                                      1 ;--------------------------------------------------------
                                      2 ; File Created by SDCC : free open source ANSI-C Compiler
                                      3 ; Version 4.2.0 #13081 (MINGW64)
                                      4 ;--------------------------------------------------------
                                      5 	.module soccerlg_s5_b3
                                      6 	.optsdcc -mz80
                                      7 	
                                      8 ;--------------------------------------------------------
                                      9 ; Public variables in this module
                                     10 ;--------------------------------------------------------
                                     11 	.globl _DEBUG_LOG
                                     12 	.globl _VPD_CommandSetupR32
                                     13 	.globl _g_SLTSL
                                     14 	.globl _g_GRPACY
                                     15 	.globl _g_GRPACX
                                     16 	.globl _g_LOGOPR
                                     17 	.globl _g_CMASK
                                     18 	.globl _g_CLOC
                                     19 	.globl _g_FNKSTR
                                     20 	.globl _g_ATRBYT
                                     21 	.globl _g_BDRCLR
                                     22 	.globl _g_BAKCLR
                                     23 	.globl _g_FORCLR
                                     24 	.globl _g_CSRX
                                     25 	.globl _g_CSRY
                                     26 	.globl _g_CLIKSW
                                     27 	.globl _g_MLTPAT
                                     28 	.globl _g_MLTATR
                                     29 	.globl _g_MLTCGP
                                     30 	.globl _g_MLTCOL
                                     31 	.globl _g_MLTNAM
                                     32 	.globl _g_GRPPAT
                                     33 	.globl _g_GRPATR
                                     34 	.globl _g_GRPCGP
                                     35 	.globl _g_GRPCOL
                                     36 	.globl _g_GRPNAM
                                     37 	.globl _g_T32PAT
                                     38 	.globl _g_T32ATR
                                     39 	.globl _g_T32CGP
                                     40 	.globl _g_T32COL
                                     41 	.globl _g_T32NAM
                                     42 	.globl _g_TXTPAT
                                     43 	.globl _g_TXTATR
                                     44 	.globl _g_TXTCGP
                                     45 	.globl _g_TXTCOL
                                     46 	.globl _g_TXTNAM
                                     47 	.globl _g_CLMLST
                                     48 	.globl _g_CRTCNT
                                     49 	.globl _g_LINLEN
                                     50 	.globl _g_LINL32
                                     51 	.globl _g_LINL40
                                     52 	.globl _g_BDOS
                                     53 	.globl _g_MASTER
                                     54 	.globl _g_RAMAD3
                                     55 	.globl _g_RAMAD2
                                     56 	.globl _g_RAMAD1
                                     57 	.globl _g_RAMAD0
                                     58 	.globl _g_BREAKV
                                     59 	.globl _g_DISKVE
                                     60 	.globl _g_KANJTABLE
                                     61 	.globl _g_STRSRC
                                     62 	.globl _g_SUBRID
                                     63 	.globl _g_CHAR_16
                                     64 	.globl _g_MSXMID
                                     65 	.globl _g_MSXVER
                                     66 	.globl _g_ROMVersion
                                     67 	.globl _g_BASRVN
                                     68 	.globl _g_VDP_DW
                                     69 	.globl _g_VDP_DR
                                     70 	.globl _g_CGTABL
                                     71 	.globl _g_SVFFFD
                                     72 	.globl _g_RG27SAV
                                     73 	.globl _g_RG26SAV
                                     74 	.globl _g_RG25SAV
                                     75 	.globl _g_SVFFF8
                                     76 	.globl _g_MINROM
                                     77 	.globl _g_RG23SAV
                                     78 	.globl _g_RG22SAV
                                     79 	.globl _g_RG21SAV
                                     80 	.globl _g_RG20SAV
                                     81 	.globl _g_RG19SAV
                                     82 	.globl _g_RG18SAV
                                     83 	.globl _g_RG17SAV
                                     84 	.globl _g_RG16SAV
                                     85 	.globl _g_RG15SAV
                                     86 	.globl _g_RG14SAV
                                     87 	.globl _g_RG13SAV
                                     88 	.globl _g_RG12SAV
                                     89 	.globl _g_RG11SAV
                                     90 	.globl _g_RG10SAV
                                     91 	.globl _g_RG09SAV
                                     92 	.globl _g_RG08SAV
                                     93 	.globl _g_PROCNM
                                     94 	.globl _g_SLTWRK
                                     95 	.globl _g_SLTATR
                                     96 	.globl _g_SLTTBL
                                     97 	.globl _g_EXPTBL
                                     98 	.globl _g_MNROM
                                     99 	.globl _g_DRWANG
                                    100 	.globl _g_DRWSCL
                                    101 	.globl _g_DRWFLG
                                    102 	.globl _g_GYPOS
                                    103 	.globl _g_GXPOS
                                    104 	.globl _g_BRDATR
                                    105 	.globl _g_CASPRV
                                    106 	.globl _g_OLDSCR
                                    107 	.globl _g_SCRMOD
                                    108 	.globl _g_FLBMEM
                                    109 	.globl _g_KANAMD
                                    110 	.globl _g_KANAST
                                    111 	.globl _g_CAPST
                                    112 	.globl _g_CSTYLE
                                    113 	.globl _g_CSRSW
                                    114 	.globl _g_INSFLG
                                    115 	.globl _g_ESCCNT
                                    116 	.globl _g_GRPHED
                                    117 	.globl _g_WINWID
                                    118 	.globl _g_LOWLIM
                                    119 	.globl _g_INTCNT
                                    120 	.globl _g_INTVAL
                                    121 	.globl _g_JIFFY
                                    122 	.globl _g_PADX
                                    123 	.globl _g_PADY
                                    124 	.globl _g_INTFLG
                                    125 	.globl _g_RTYCNT
                                    126 	.globl _g_TRPTBL
                                    127 	.globl _g_HIMEM
                                    128 	.globl _g_BOTTOM
                                    129 	.globl _g_PATWRK
                                    130 	.globl _g_LINWRK
                                    131 	.globl _g_KEYBUF
                                    132 	.globl _g_NEWKEY
                                    133 	.globl _g_OLDKEY
                                    134 	.globl _g_CLIKFL
                                    135 	.globl _g_ONGSBF
                                    136 	.globl _g_FNKFLG
                                    137 	.globl _g_FNKSWI
                                    138 	.globl _g_CODSAV
                                    139 	.globl _g_FSTPOS
                                    140 	.globl _g_LINTTB
                                    141 	.globl _g_BASROM
                                    142 	.globl _g_ENSTOP
                                    143 	.globl _g_VCBC
                                    144 	.globl _g_VCBB
                                    145 	.globl _g_VCBA
                                    146 	.globl _g_PLYCNT
                                    147 	.globl _g_MUSICF
                                    148 	.globl _g_QUEUEN
                                    149 	.globl _g_MCLPTR
                                    150 	.globl _g_MCLLEN
                                    151 	.globl _g_SAVVOL
                                    152 	.globl _g_VOICEN
                                    153 	.globl _g_SAVSP
                                    154 	.globl _g_PRSCNT
                                    155 	.globl _g_LSTMOD
                                    156 	.globl _g_LSTCOM
                                    157 	.globl _g_COMMSK
                                    158 	.globl _g_ESTBLS
                                    159 	.globl _g_FLAGS
                                    160 	.globl _g_ERRORS
                                    161 	.globl _g_DATCNT
                                    162 	.globl _g_DEVNUM
                                    163 	.globl _g_OLDINT
                                    164 	.globl _g_OLDSTT
                                    165 	.globl _g_MEXBIh
                                    166 	.globl _g_RSIQLN
                                    167 	.globl _g_RSFCB
                                    168 	.globl _g_TOCNT
                                    169 	.globl _g_RSTMP
                                    170 	.globl _g_YSAVE
                                    171 	.globl _g_XSAVE
                                    172 	.globl _g_NORUSE
                                    173 	.globl _g_MODE
                                    174 	.globl _g_ROMA
                                    175 	.globl _g_CHRCNT
                                    176 	.globl _g_EXBRSA
                                    177 	.globl _g_AVCSAV
                                    178 	.globl _g_ACPAGE
                                    179 	.globl _g_DPPAGE
                                    180 	.globl _g_RS2IQ
                                    181 	.globl _g_VOICCQ
                                    182 	.globl _g_VOICBQ
                                    183 	.globl _g_VOICAQ
                                    184 	.globl _g_QUEBAK
                                    185 	.globl _g_QUETAB
                                    186 	.globl _g_ASPCT2
                                    187 	.globl _g_ASPCT1
                                    188 	.globl _g_HEADER
                                    189 	.globl _g_HIGH
                                    190 	.globl _g_LOW
                                    191 	.globl _g_CS240
                                    192 	.globl _g_CS120
                                    193 	.globl _g_GETPNT
                                    194 	.globl _g_PUTPNT
                                    195 	.globl _g_REPCNT
                                    196 	.globl _g_SCNCNT
                                    197 	.globl _g_FRCNEW
                                    198 	.globl _g_QUEUES
                                    199 	.globl _g_MINUPD
                                    200 	.globl _g_MAXUPD
                                    201 	.globl _g_TRGFLG
                                    202 	.globl _g_STATFL
                                    203 	.globl _g_RG7SAV
                                    204 	.globl _g_RG6SAV
                                    205 	.globl _g_RG5SAV
                                    206 	.globl _g_RG4SAV
                                    207 	.globl _g_RG3SAV
                                    208 	.globl _g_RG2SAV
                                    209 	.globl _g_RG1SAV
                                    210 	.globl _g_RG0SAV
                                    211 	.globl _g_CNSDFG
                                    212 	.globl _g_USRTAB
                                    213 	.globl _g_CLPRIM
                                    214 	.globl _g_WRPRIM
                                    215 	.globl _g_RDPRIM
                                    216 	.globl _PlotField
                                    217 	.globl _RemoveSwSprite
                                    218 	.globl _RemoveScoreBoardLeft
                                    219 	.globl _PrintScoreBoardLeft
                                    220 	.globl _RemoveScoreBoardRight
                                    221 	.globl _PrintScoreBoardRight
                                    222 	.globl _SetBallSprite
                                    223 	.globl _IsBallForeground
                                    224 	.globl _ShowSpriteMessage
                                    225 	.globl _HideSpriteMessage
                                    226 ;--------------------------------------------------------
                                    227 ; special function registers
                                    228 ;--------------------------------------------------------
                         000000A8   229 _g_PortPrimarySlot	=	0x00a8
                         000000A9   230 _g_PortReadKeyboard	=	0x00a9
                         000000AA   231 _g_PortAccessKeyboard	=	0x00aa
                         000000AB   232 _g_PortControl	=	0x00ab
                         00000098   233 _g_VDP_DataPort	=	0x0098
                         00000099   234 _g_VDP_RegPort	=	0x0099
                         00000099   235 _g_VDP_AddrPort	=	0x0099
                         00000099   236 _g_VDP_StatPort	=	0x0099
                         0000009A   237 _g_VDP_PalPort	=	0x009a
                         0000009B   238 _g_VDP_IRegPort	=	0x009b
                         000000A0   239 _g_PSG_RegPort	=	0x00a0
                         000000A1   240 _g_PSG_DataPort	=	0x00a1
                         000000A2   241 _g_PSG_StatPort	=	0x00a2
                         00000010   242 _g_PSG_Ext_RegPort	=	0x0010
                         00000011   243 _g_PSG_Ext_DataPort	=	0x0011
                         00000012   244 _g_PSG_Ext_StatPort	=	0x0012
                         0000007C   245 _g_MSXMusic_IndexPort	=	0x007c
                         0000007D   246 _g_MSXMusic_DataPort	=	0x007d
                         000000C0   247 _g_MSXAudio_IndexPort	=	0x00c0
                         000000C1   248 _g_MSXAudio_DataPort	=	0x00c1
                         000000C2   249 _g_MSXAudio_IndexPort2	=	0x00c2
                         000000C3   250 _g_MSXAudio_DataPort2	=	0x00c3
                         000000B4   251 _g_RTC_AddrPort	=	0x00b4
                         000000B5   252 _g_RTC_DataPort	=	0x00b5
                                    253 ;--------------------------------------------------------
                                    254 ; ram data
                                    255 ;--------------------------------------------------------
                                    256 	.area _DATA
                         0000F3AE   257 _g_LINL40	=	0xf3ae
                         0000F3AF   258 _g_LINL32	=	0xf3af
                         0000F3B0   259 _g_LINLEN	=	0xf3b0
                         0000F3B1   260 _g_CRTCNT	=	0xf3b1
                         0000F3B2   261 _g_CLMLST	=	0xf3b2
                         0000F3B3   262 _g_TXTNAM	=	0xf3b3
                         0000F3B5   263 _g_TXTCOL	=	0xf3b5
                         0000F3B7   264 _g_TXTCGP	=	0xf3b7
                         0000F3B9   265 _g_TXTATR	=	0xf3b9
                         0000F3BB   266 _g_TXTPAT	=	0xf3bb
                         0000F3BD   267 _g_T32NAM	=	0xf3bd
                         0000F3BF   268 _g_T32COL	=	0xf3bf
                         0000F3C1   269 _g_T32CGP	=	0xf3c1
                         0000F3C3   270 _g_T32ATR	=	0xf3c3
                         0000F3C5   271 _g_T32PAT	=	0xf3c5
                         0000F3C7   272 _g_GRPNAM	=	0xf3c7
                         0000F3C9   273 _g_GRPCOL	=	0xf3c9
                         0000F3CB   274 _g_GRPCGP	=	0xf3cb
                         0000F3CD   275 _g_GRPATR	=	0xf3cd
                         0000F3CF   276 _g_GRPPAT	=	0xf3cf
                         0000F3D1   277 _g_MLTNAM	=	0xf3d1
                         0000F3D3   278 _g_MLTCOL	=	0xf3d3
                         0000F3D5   279 _g_MLTCGP	=	0xf3d5
                         0000F3D7   280 _g_MLTATR	=	0xf3d7
                         0000F3D9   281 _g_MLTPAT	=	0xf3d9
                         0000F3DB   282 _g_CLIKSW	=	0xf3db
                         0000F3DC   283 _g_CSRY	=	0xf3dc
                         0000F3DD   284 _g_CSRX	=	0xf3dd
                         0000F3E9   285 _g_FORCLR	=	0xf3e9
                         0000F3EA   286 _g_BAKCLR	=	0xf3ea
                         0000F3EB   287 _g_BDRCLR	=	0xf3eb
                         0000F3F2   288 _g_ATRBYT	=	0xf3f2
                         0000F87F   289 _g_FNKSTR	=	0xf87f
                         0000F92A   290 _g_CLOC	=	0xf92a
                         0000F92C   291 _g_CMASK	=	0xf92c
                         0000FB02   292 _g_LOGOPR	=	0xfb02
                         0000FCB7   293 _g_GRPACX	=	0xfcb7
                         0000FCB9   294 _g_GRPACY	=	0xfcb9
                         0000FFFF   295 _g_SLTSL	=	0xffff
                                    296 ;--------------------------------------------------------
                                    297 ; ram data
                                    298 ;--------------------------------------------------------
                                    299 	.area _INITIALIZED
                                    300 ;--------------------------------------------------------
                                    301 ; absolute external ram data
                                    302 ;--------------------------------------------------------
                                    303 	.area _DABS (ABS)
                                    304 ;--------------------------------------------------------
                                    305 ; global & static initialisations
                                    306 ;--------------------------------------------------------
                                    307 	.area _HOME
                                    308 	.area _GSINIT
                                    309 	.area _GSFINAL
                                    310 	.area _GSINIT
                                    311 ;--------------------------------------------------------
                                    312 ; Home
                                    313 ;--------------------------------------------------------
                                    314 	.area _HOME
                                    315 	.area _HOME
                                    316 ;--------------------------------------------------------
                                    317 ; code
                                    318 ;--------------------------------------------------------
                                    319 	.area _SEG5
                                    320 ;E:\Dropbox\FAUSTO\SVILUPPI\MSX\CODE\C\MSXgl\projects\soccerlgMSX2/soccerlg_s5_b3.c:11: void PlotField(u16 y,u16 page)
                                    321 ;	---------------------------------
                                    322 ; Function PlotField
                                    323 ; ---------------------------------
    00000000                        324 _PlotField::
    00000000 DD E5            [15]  325 	push	ix
    00000002 DD 21 00 00      [14]  326 	ld	ix,#0
    00000006 DD 39            [15]  327 	add	ix,sp
    00000008 F5               [11]  328 	push	af
    00000009 F5               [11]  329 	push	af
    0000000A 4D               [ 4]  330 	ld	c, l
    0000000B 44               [ 4]  331 	ld	b, h
    0000000C DD 73 FE         [19]  332 	ld	-2 (ix), e
    0000000F DD 72 FF         [19]  333 	ld	-1 (ix), d
                                    334 ;E:\Dropbox\FAUSTO\SVILUPPI\MSX\CODE\C\MSXgl\projects\soccerlgMSX2/soccerlg_s5_b3.c:13: for (u16 i=y; i<y+192; i++) {
    00000012 C5               [11]  335 	push	bc
    00000013 FD E1            [14]  336 	pop	iy
    00000015                        337 00104$:
    00000015 59               [ 4]  338 	ld	e, c
    00000016 50               [ 4]  339 	ld	d, b
    00000017 21 C0 00         [10]  340 	ld	hl, #0x00c0
    0000001A 19               [11]  341 	add	hl, de
    0000001B FD E5            [15]  342 	push	iy
    0000001D D1               [10]  343 	pop	de
    0000001E 7B               [ 4]  344 	ld	a, e
    0000001F 95               [ 4]  345 	sub	a, l
    00000020 7A               [ 4]  346 	ld	a, d
    00000021 9C               [ 4]  347 	sbc	a, h
    00000022 30 55            [12]  348 	jr	NC, 00106$
                                    349 ;E:\Dropbox\FAUSTO\SVILUPPI\MSX\CODE\C\MSXgl\projects\soccerlgMSX2/soccerlg_s5_b3.c:14: VDP_CommandYMMM(FieldMap[i&511]+768, 0, (i&255)+page, 1, 0);		
    00000024 7B               [ 4]  350 	ld	a, e
    00000025 2E 00            [ 7]  351 	ld	l, #0x00
                                    352 ;	spillPairReg hl
                                    353 ;	spillPairReg hl
    00000027 DD 86 FE         [19]  354 	add	a, -2 (ix)
    0000002A 67               [ 4]  355 	ld	h, a
                                    356 ;	spillPairReg hl
                                    357 ;	spillPairReg hl
    0000002B 7D               [ 4]  358 	ld	a, l
    0000002C DD 8E FF         [19]  359 	adc	a, -1 (ix)
    0000002F DD 74 FC         [19]  360 	ld	-4 (ix), h
    00000032 DD 77 FD         [19]  361 	ld	-3 (ix), a
    00000035 7A               [ 4]  362 	ld	a, d
    00000036 E6 01            [ 7]  363 	and	a, #0x01
    00000038 57               [ 4]  364 	ld	d, a
    00000039 21r7Er00         [10]  365 	ld	hl, #_FieldMap
    0000003C 19               [11]  366 	add	hl, de
    0000003D 7E               [ 7]  367 	ld	a, (hl)
    0000003E 16 00            [ 7]  368 	ld	d, #0x00
    00000040 5F               [ 4]  369 	ld	e, a
    00000041 7A               [ 4]  370 	ld	a, d
    00000042 C6 03            [ 7]  371 	add	a, #0x03
    00000044 57               [ 4]  372 	ld	d, a
                                    373 ;E:/Dropbox/FAUSTO/SVILUPPI/MSX/CODE/C/MSXgl/engine/src/vdp_inl.h:65: g_VDP_Command.SY = sy;
    00000045 ED 53r02r00      [20]  374 	ld	((_g_VDP_Command + 2)), de
                                    375 ;E:/Dropbox/FAUSTO/SVILUPPI/MSX/CODE/C/MSXgl/engine/src/vdp_inl.h:66: g_VDP_Command.DX = dx;
    00000049 21 00 00         [10]  376 	ld	hl, #0x0000
    0000004C 22r04r00         [16]  377 	ld	((_g_VDP_Command + 4)), hl
                                    378 ;E:/Dropbox/FAUSTO/SVILUPPI/MSX/CODE/C/MSXgl/engine/src/vdp_inl.h:67: g_VDP_Command.DY = dy;
    0000004F 21r06r00         [10]  379 	ld	hl, #(_g_VDP_Command + 6)
    00000052 DD 7E FC         [19]  380 	ld	a, -4 (ix)
    00000055 77               [ 7]  381 	ld	(hl), a
    00000056 23               [ 6]  382 	inc	hl
    00000057 DD 7E FD         [19]  383 	ld	a, -3 (ix)
    0000005A 77               [ 7]  384 	ld	(hl), a
                                    385 ;E:/Dropbox/FAUSTO/SVILUPPI/MSX/CODE/C/MSXgl/engine/src/vdp_inl.h:68: g_VDP_Command.NY = ny;
    0000005B 21 01 00         [10]  386 	ld	hl, #0x0001
    0000005E 22r0Ar00         [16]  387 	ld	((_g_VDP_Command + 10)), hl
                                    388 ;E:/Dropbox/FAUSTO/SVILUPPI/MSX/CODE/C/MSXgl/engine/src/vdp_inl.h:69: g_VDP_Command.ARG = dir; 
    00000061 21r0Dr00         [10]  389 	ld	hl, #(_g_VDP_Command + 13)
    00000064 36 00            [10]  390 	ld	(hl), #0x00
                                    391 ;E:/Dropbox/FAUSTO/SVILUPPI/MSX/CODE/C/MSXgl/engine/src/vdp_inl.h:70: g_VDP_Command.CMD = VDP_CMD_YMMM;
    00000066 21r0Er00         [10]  392 	ld	hl, #(_g_VDP_Command + 14)
    00000069 36 E0            [10]  393 	ld	(hl), #0xe0
                                    394 ;E:/Dropbox/FAUSTO/SVILUPPI/MSX/CODE/C/MSXgl/engine/src/vdp_inl.h:71: VPD_CommandSetupR32();
    0000006B C5               [11]  395 	push	bc
    0000006C FD E5            [15]  396 	push	iy
    0000006E CDr00r00         [17]  397 	call	_VPD_CommandSetupR32
    00000071 FD E1            [14]  398 	pop	iy
    00000073 C1               [10]  399 	pop	bc
                                    400 ;E:\Dropbox\FAUSTO\SVILUPPI\MSX\CODE\C\MSXgl\projects\soccerlgMSX2/soccerlg_s5_b3.c:13: for (u16 i=y; i<y+192; i++) {
    00000074 FD 23            [10]  401 	inc	iy
    00000076 C3r15r00         [10]  402 	jp	00104$
    00000079                        403 00106$:
                                    404 ;E:\Dropbox\FAUSTO\SVILUPPI\MSX\CODE\C\MSXgl\projects\soccerlgMSX2/soccerlg_s5_b3.c:16: }
    00000079 DD F9            [10]  405 	ld	sp, ix
    0000007B DD E1            [14]  406 	pop	ix
    0000007D C9               [10]  407 	ret
                         0000F380   408 _g_RDPRIM	=	0xf380
                         0000F385   409 _g_WRPRIM	=	0xf385
                         0000F38C   410 _g_CLPRIM	=	0xf38c
                         0000F39A   411 _g_USRTAB	=	0xf39a
                         0000F3DE   412 _g_CNSDFG	=	0xf3de
                         0000F3DF   413 _g_RG0SAV	=	0xf3df
                         0000F3E0   414 _g_RG1SAV	=	0xf3e0
                         0000F3E1   415 _g_RG2SAV	=	0xf3e1
                         0000F3E2   416 _g_RG3SAV	=	0xf3e2
                         0000F3E3   417 _g_RG4SAV	=	0xf3e3
                         0000F3E4   418 _g_RG5SAV	=	0xf3e4
                         0000F3E5   419 _g_RG6SAV	=	0xf3e5
                         0000F3E6   420 _g_RG7SAV	=	0xf3e6
                         0000F3E7   421 _g_STATFL	=	0xf3e7
                         0000F3E8   422 _g_TRGFLG	=	0xf3e8
                         0000F3EC   423 _g_MAXUPD	=	0xf3ec
                         0000F3EF   424 _g_MINUPD	=	0xf3ef
                         0000F3F3   425 _g_QUEUES	=	0xf3f3
                         0000F3F5   426 _g_FRCNEW	=	0xf3f5
                         0000F3F6   427 _g_SCNCNT	=	0xf3f6
                         0000F3F7   428 _g_REPCNT	=	0xf3f7
                         0000F3F8   429 _g_PUTPNT	=	0xf3f8
                         0000F3FA   430 _g_GETPNT	=	0xf3fa
                         0000F3FC   431 _g_CS120	=	0xf3fc
                         0000F401   432 _g_CS240	=	0xf401
                         0000F406   433 _g_LOW	=	0xf406
                         0000F408   434 _g_HIGH	=	0xf408
                         0000F40A   435 _g_HEADER	=	0xf40a
                         0000F40B   436 _g_ASPCT1	=	0xf40b
                         0000F40D   437 _g_ASPCT2	=	0xf40d
                         0000F959   438 _g_QUETAB	=	0xf959
                         0000F971   439 _g_QUEBAK	=	0xf971
                         0000F975   440 _g_VOICAQ	=	0xf975
                         0000F9F5   441 _g_VOICBQ	=	0xf9f5
                         0000FA75   442 _g_VOICCQ	=	0xfa75
                         0000FAF5   443 _g_RS2IQ	=	0xfaf5
                         0000FAF5   444 _g_DPPAGE	=	0xfaf5
                         0000FAF6   445 _g_ACPAGE	=	0xfaf6
                         0000FAF7   446 _g_AVCSAV	=	0xfaf7
                         0000FAF8   447 _g_EXBRSA	=	0xfaf8
                         0000FAF9   448 _g_CHRCNT	=	0xfaf9
                         0000FAFA   449 _g_ROMA	=	0xfafa
                         0000FAFC   450 _g_MODE	=	0xfafc
                         0000FAFD   451 _g_NORUSE	=	0xfafd
                         0000FAFE   452 _g_XSAVE	=	0xfafe
                         0000FB00   453 _g_YSAVE	=	0xfb00
                         0000FB03   454 _g_RSTMP	=	0xfb03
                         0000FB03   455 _g_TOCNT	=	0xfb03
                         0000FB04   456 _g_RSFCB	=	0xfb04
                         0000FB06   457 _g_RSIQLN	=	0xfb06
                         0000FB07   458 _g_MEXBIh	=	0xfb07
                         0000FB0C   459 _g_OLDSTT	=	0xfb0c
                         0000FB0C   460 _g_OLDINT	=	0xfb0c
                         0000FB16   461 _g_DEVNUM	=	0xfb16
                         0000FB17   462 _g_DATCNT	=	0xfb17
                         0000FB1A   463 _g_ERRORS	=	0xfb1a
                         0000FB1B   464 _g_FLAGS	=	0xfb1b
                         0000FB1C   465 _g_ESTBLS	=	0xfb1c
                         0000FB1D   466 _g_COMMSK	=	0xfb1d
                         0000FB1E   467 _g_LSTCOM	=	0xfb1e
                         0000FB1F   468 _g_LSTMOD	=	0xfb1f
                         0000FB35   469 _g_PRSCNT	=	0xfb35
                         0000FB36   470 _g_SAVSP	=	0xfb36
                         0000FB38   471 _g_VOICEN	=	0xfb38
                         0000FB39   472 _g_SAVVOL	=	0xfb39
                         0000FB3B   473 _g_MCLLEN	=	0xfb3b
                         0000FB3C   474 _g_MCLPTR	=	0xfb3c
                         0000FB3E   475 _g_QUEUEN	=	0xfb3e
                         0000FB3F   476 _g_MUSICF	=	0xfb3f
                         0000FB40   477 _g_PLYCNT	=	0xfb40
                         0000FB41   478 _g_VCBA	=	0xfb41
                         0000FB66   479 _g_VCBB	=	0xfb66
                         0000FB8B   480 _g_VCBC	=	0xfb8b
                         0000FBB0   481 _g_ENSTOP	=	0xfbb0
                         0000FBB1   482 _g_BASROM	=	0xfbb1
                         0000FBB2   483 _g_LINTTB	=	0xfbb2
                         0000FBCA   484 _g_FSTPOS	=	0xfbca
                         0000FBCC   485 _g_CODSAV	=	0xfbcc
                         0000FBCD   486 _g_FNKSWI	=	0xfbcd
                         0000FBCE   487 _g_FNKFLG	=	0xfbce
                         0000FBD8   488 _g_ONGSBF	=	0xfbd8
                         0000FBD9   489 _g_CLIKFL	=	0xfbd9
                         0000FBDA   490 _g_OLDKEY	=	0xfbda
                         0000FBE5   491 _g_NEWKEY	=	0xfbe5
                         0000FBF0   492 _g_KEYBUF	=	0xfbf0
                         0000FC18   493 _g_LINWRK	=	0xfc18
                         0000FC40   494 _g_PATWRK	=	0xfc40
                         0000FC48   495 _g_BOTTOM	=	0xfc48
                         0000FC4A   496 _g_HIMEM	=	0xfc4a
                         0000FC4C   497 _g_TRPTBL	=	0xfc4c
                         0000FC9A   498 _g_RTYCNT	=	0xfc9a
                         0000FC9B   499 _g_INTFLG	=	0xfc9b
                         0000FC9C   500 _g_PADY	=	0xfc9c
                         0000FC9D   501 _g_PADX	=	0xfc9d
                         0000FC9E   502 _g_JIFFY	=	0xfc9e
                         0000FCA0   503 _g_INTVAL	=	0xfca0
                         0000FCA2   504 _g_INTCNT	=	0xfca2
                         0000FCA4   505 _g_LOWLIM	=	0xfca4
                         0000FCA5   506 _g_WINWID	=	0xfca5
                         0000FCA6   507 _g_GRPHED	=	0xfca6
                         0000FCA7   508 _g_ESCCNT	=	0xfca7
                         0000FCA8   509 _g_INSFLG	=	0xfca8
                         0000FCA9   510 _g_CSRSW	=	0xfca9
                         0000FCAA   511 _g_CSTYLE	=	0xfcaa
                         0000FCAB   512 _g_CAPST	=	0xfcab
                         0000FCAC   513 _g_KANAST	=	0xfcac
                         0000FCAD   514 _g_KANAMD	=	0xfcad
                         0000FCAE   515 _g_FLBMEM	=	0xfcae
                         0000FCAF   516 _g_SCRMOD	=	0xfcaf
                         0000FCB0   517 _g_OLDSCR	=	0xfcb0
                         0000FCB1   518 _g_CASPRV	=	0xfcb1
                         0000FCB2   519 _g_BRDATR	=	0xfcb2
                         0000FCB3   520 _g_GXPOS	=	0xfcb3
                         0000FCB5   521 _g_GYPOS	=	0xfcb5
                         0000FCBB   522 _g_DRWFLG	=	0xfcbb
                         0000FCBC   523 _g_DRWSCL	=	0xfcbc
                         0000FCBD   524 _g_DRWANG	=	0xfcbd
                         0000FCC1   525 _g_MNROM	=	0xfcc1
                         0000FCC1   526 _g_EXPTBL	=	0xfcc1
                         0000FCC5   527 _g_SLTTBL	=	0xfcc5
                         0000FCC9   528 _g_SLTATR	=	0xfcc9
                         0000FD09   529 _g_SLTWRK	=	0xfd09
                         0000FD89   530 _g_PROCNM	=	0xfd89
                         0000FFE7   531 _g_RG08SAV	=	0xffe7
                         0000FFE8   532 _g_RG09SAV	=	0xffe8
                         0000FFE9   533 _g_RG10SAV	=	0xffe9
                         0000FFEA   534 _g_RG11SAV	=	0xffea
                         0000FFEB   535 _g_RG12SAV	=	0xffeb
                         0000FFEC   536 _g_RG13SAV	=	0xffec
                         0000FFED   537 _g_RG14SAV	=	0xffed
                         0000FFEE   538 _g_RG15SAV	=	0xffee
                         0000FFEF   539 _g_RG16SAV	=	0xffef
                         0000FFF0   540 _g_RG17SAV	=	0xfff0
                         0000FFF1   541 _g_RG18SAV	=	0xfff1
                         0000FFF2   542 _g_RG19SAV	=	0xfff2
                         0000FFF3   543 _g_RG20SAV	=	0xfff3
                         0000FFF4   544 _g_RG21SAV	=	0xfff4
                         0000FFF5   545 _g_RG22SAV	=	0xfff5
                         0000FFF6   546 _g_RG23SAV	=	0xfff6
                         0000FFF7   547 _g_MINROM	=	0xfff7
                         0000FFF8   548 _g_SVFFF8	=	0xfff8
                         0000FFFA   549 _g_RG25SAV	=	0xfffa
                         0000FFFB   550 _g_RG26SAV	=	0xfffb
                         0000FFFC   551 _g_RG27SAV	=	0xfffc
                         0000FFFD   552 _g_SVFFFD	=	0xfffd
                         00000004   553 _g_CGTABL	=	0x0004
                         00000006   554 _g_VDP_DR	=	0x0006
                         00000007   555 _g_VDP_DW	=	0x0007
                         0000002B   556 _g_BASRVN	=	0x002b
                         0000002B   557 _g_ROMVersion	=	0x002b
                         0000002D   558 _g_MSXVER	=	0x002d
                         0000002E   559 _g_MSXMID	=	0x002e
                         00000034   560 _g_CHAR_16	=	0x0034
                         00000000   561 _g_SUBRID	=	0x0000
                         00000002   562 _g_STRSRC	=	0x0002
                         0000F30F   563 _g_KANJTABLE	=	0xf30f
                         0000F323   564 _g_DISKVE	=	0xf323
                         0000F325   565 _g_BREAKV	=	0xf325
                         0000F341   566 _g_RAMAD0	=	0xf341
                         0000F342   567 _g_RAMAD1	=	0xf342
                         0000F343   568 _g_RAMAD2	=	0xf343
                         0000F344   569 _g_RAMAD3	=	0xf344
                         0000F348   570 _g_MASTER	=	0xf348
                         0000F37D   571 _g_BDOS	=	0xf37d
    0000007E                        572 _FieldMap:
    0000007E 00                     573 	.db #0x00	; 0
    0000007F 01                     574 	.db #0x01	; 1
    00000080 02                     575 	.db #0x02	; 2
    00000081 03                     576 	.db #0x03	; 3
    00000082 04                     577 	.db #0x04	; 4
    00000083 05                     578 	.db #0x05	; 5
    00000084 06                     579 	.db #0x06	; 6
    00000085 07                     580 	.db #0x07	; 7
    00000086 08                     581 	.db #0x08	; 8
    00000087 09                     582 	.db #0x09	; 9
    00000088 0A                     583 	.db #0x0a	; 10
    00000089 0B                     584 	.db #0x0b	; 11
    0000008A 0C                     585 	.db #0x0c	; 12
    0000008B 0D                     586 	.db #0x0d	; 13
    0000008C 0E                     587 	.db #0x0e	; 14
    0000008D 0F                     588 	.db #0x0f	; 15
    0000008E 10                     589 	.db #0x10	; 16
    0000008F 11                     590 	.db #0x11	; 17
    00000090 12                     591 	.db #0x12	; 18
    00000091 13                     592 	.db #0x13	; 19
    00000092 14                     593 	.db #0x14	; 20
    00000093 15                     594 	.db #0x15	; 21
    00000094 16                     595 	.db #0x16	; 22
    00000095 17                     596 	.db #0x17	; 23
    00000096 18                     597 	.db #0x18	; 24
    00000097 19                     598 	.db #0x19	; 25
    00000098 1A                     599 	.db #0x1a	; 26
    00000099 1B                     600 	.db #0x1b	; 27
    0000009A 1C                     601 	.db #0x1c	; 28
    0000009B 1D                     602 	.db #0x1d	; 29
    0000009C 1E                     603 	.db #0x1e	; 30
    0000009D 1F                     604 	.db #0x1f	; 31
    0000009E 20                     605 	.db #0x20	; 32
    0000009F 21                     606 	.db #0x21	; 33
    000000A0 22                     607 	.db #0x22	; 34
    000000A1 23                     608 	.db #0x23	; 35
    000000A2 24                     609 	.db #0x24	; 36
    000000A3 25                     610 	.db #0x25	; 37
    000000A4 26                     611 	.db #0x26	; 38
    000000A5 27                     612 	.db #0x27	; 39
    000000A6 28                     613 	.db #0x28	; 40
    000000A7 29                     614 	.db #0x29	; 41
    000000A8 2A                     615 	.db #0x2a	; 42
    000000A9 2B                     616 	.db #0x2b	; 43
    000000AA 2C                     617 	.db #0x2c	; 44
    000000AB 2D                     618 	.db #0x2d	; 45
    000000AC 2E                     619 	.db #0x2e	; 46
    000000AD 2F                     620 	.db #0x2f	; 47
    000000AE 30                     621 	.db #0x30	; 48	'0'
    000000AF 31                     622 	.db #0x31	; 49	'1'
    000000B0 32                     623 	.db #0x32	; 50	'2'
    000000B1 33                     624 	.db #0x33	; 51	'3'
    000000B2 34                     625 	.db #0x34	; 52	'4'
    000000B3 35                     626 	.db #0x35	; 53	'5'
    000000B4 36                     627 	.db #0x36	; 54	'6'
    000000B5 37                     628 	.db #0x37	; 55	'7'
    000000B6 38                     629 	.db #0x38	; 56	'8'
    000000B7 39                     630 	.db #0x39	; 57	'9'
    000000B8 3A                     631 	.db #0x3a	; 58
    000000B9 3B                     632 	.db #0x3b	; 59
    000000BA 3B                     633 	.db #0x3b	; 59
    000000BB 3B                     634 	.db #0x3b	; 59
    000000BC 3B                     635 	.db #0x3b	; 59
    000000BD 3B                     636 	.db #0x3b	; 59
    000000BE 3B                     637 	.db #0x3b	; 59
    000000BF 3B                     638 	.db #0x3b	; 59
    000000C0 3B                     639 	.db #0x3b	; 59
    000000C1 3B                     640 	.db #0x3b	; 59
    000000C2 3B                     641 	.db #0x3b	; 59
    000000C3 3B                     642 	.db #0x3b	; 59
    000000C4 3B                     643 	.db #0x3b	; 59
    000000C5 3B                     644 	.db #0x3b	; 59
    000000C6 3B                     645 	.db #0x3b	; 59
    000000C7 3C                     646 	.db #0x3c	; 60
    000000C8 3D                     647 	.db #0x3d	; 61
    000000C9 3E                     648 	.db #0x3e	; 62
    000000CA 3F                     649 	.db #0x3f	; 63
    000000CB 40                     650 	.db #0x40	; 64
    000000CC 41                     651 	.db #0x41	; 65	'A'
    000000CD 42                     652 	.db #0x42	; 66	'B'
    000000CE 43                     653 	.db #0x43	; 67	'C'
    000000CF 44                     654 	.db #0x44	; 68	'D'
    000000D0 45                     655 	.db #0x45	; 69	'E'
    000000D1 46                     656 	.db #0x46	; 70	'F'
    000000D2 47                     657 	.db #0x47	; 71	'G'
    000000D3 48                     658 	.db #0x48	; 72	'H'
    000000D4 49                     659 	.db #0x49	; 73	'I'
    000000D5 4A                     660 	.db #0x4a	; 74	'J'
    000000D6 4B                     661 	.db #0x4b	; 75	'K'
    000000D7 4C                     662 	.db #0x4c	; 76	'L'
    000000D8 4D                     663 	.db #0x4d	; 77	'M'
    000000D9 4E                     664 	.db #0x4e	; 78	'N'
    000000DA 4F                     665 	.db #0x4f	; 79	'O'
    000000DB 50                     666 	.db #0x50	; 80	'P'
    000000DC 51                     667 	.db #0x51	; 81	'Q'
    000000DD 52                     668 	.db #0x52	; 82	'R'
    000000DE 53                     669 	.db #0x53	; 83	'S'
    000000DF 54                     670 	.db #0x54	; 84	'T'
    000000E0 55                     671 	.db #0x55	; 85	'U'
    000000E1 56                     672 	.db #0x56	; 86	'V'
    000000E2 57                     673 	.db #0x57	; 87	'W'
    000000E3 58                     674 	.db #0x58	; 88	'X'
    000000E4 58                     675 	.db #0x58	; 88	'X'
    000000E5 58                     676 	.db #0x58	; 88	'X'
    000000E6 58                     677 	.db #0x58	; 88	'X'
    000000E7 58                     678 	.db #0x58	; 88	'X'
    000000E8 58                     679 	.db #0x58	; 88	'X'
    000000E9 58                     680 	.db #0x58	; 88	'X'
    000000EA 58                     681 	.db #0x58	; 88	'X'
    000000EB 58                     682 	.db #0x58	; 88	'X'
    000000EC 58                     683 	.db #0x58	; 88	'X'
    000000ED 58                     684 	.db #0x58	; 88	'X'
    000000EE 58                     685 	.db #0x58	; 88	'X'
    000000EF 58                     686 	.db #0x58	; 88	'X'
    000000F0 58                     687 	.db #0x58	; 88	'X'
    000000F1 58                     688 	.db #0x58	; 88	'X'
    000000F2 58                     689 	.db #0x58	; 88	'X'
    000000F3 58                     690 	.db #0x58	; 88	'X'
    000000F4 58                     691 	.db #0x58	; 88	'X'
    000000F5 58                     692 	.db #0x58	; 88	'X'
    000000F6 58                     693 	.db #0x58	; 88	'X'
    000000F7 58                     694 	.db #0x58	; 88	'X'
    000000F8 58                     695 	.db #0x58	; 88	'X'
    000000F9 58                     696 	.db #0x58	; 88	'X'
    000000FA 58                     697 	.db #0x58	; 88	'X'
    000000FB 58                     698 	.db #0x58	; 88	'X'
    000000FC 58                     699 	.db #0x58	; 88	'X'
    000000FD 58                     700 	.db #0x58	; 88	'X'
    000000FE 58                     701 	.db #0x58	; 88	'X'
    000000FF 58                     702 	.db #0x58	; 88	'X'
    00000100 58                     703 	.db #0x58	; 88	'X'
    00000101 58                     704 	.db #0x58	; 88	'X'
    00000102 58                     705 	.db #0x58	; 88	'X'
    00000103 58                     706 	.db #0x58	; 88	'X'
    00000104 58                     707 	.db #0x58	; 88	'X'
    00000105 58                     708 	.db #0x58	; 88	'X'
    00000106 58                     709 	.db #0x58	; 88	'X'
    00000107 58                     710 	.db #0x58	; 88	'X'
    00000108 58                     711 	.db #0x58	; 88	'X'
    00000109 58                     712 	.db #0x58	; 88	'X'
    0000010A 58                     713 	.db #0x58	; 88	'X'
    0000010B 58                     714 	.db #0x58	; 88	'X'
    0000010C 58                     715 	.db #0x58	; 88	'X'
    0000010D 58                     716 	.db #0x58	; 88	'X'
    0000010E 58                     717 	.db #0x58	; 88	'X'
    0000010F 58                     718 	.db #0x58	; 88	'X'
    00000110 58                     719 	.db #0x58	; 88	'X'
    00000111 58                     720 	.db #0x58	; 88	'X'
    00000112 58                     721 	.db #0x58	; 88	'X'
    00000113 58                     722 	.db #0x58	; 88	'X'
    00000114 58                     723 	.db #0x58	; 88	'X'
    00000115 58                     724 	.db #0x58	; 88	'X'
    00000116 58                     725 	.db #0x58	; 88	'X'
    00000117 58                     726 	.db #0x58	; 88	'X'
    00000118 58                     727 	.db #0x58	; 88	'X'
    00000119 58                     728 	.db #0x58	; 88	'X'
    0000011A 58                     729 	.db #0x58	; 88	'X'
    0000011B 58                     730 	.db #0x58	; 88	'X'
    0000011C 58                     731 	.db #0x58	; 88	'X'
    0000011D 58                     732 	.db #0x58	; 88	'X'
    0000011E 58                     733 	.db #0x58	; 88	'X'
    0000011F 58                     734 	.db #0x58	; 88	'X'
    00000120 58                     735 	.db #0x58	; 88	'X'
    00000121 58                     736 	.db #0x58	; 88	'X'
    00000122 58                     737 	.db #0x58	; 88	'X'
    00000123 58                     738 	.db #0x58	; 88	'X'
    00000124 58                     739 	.db #0x58	; 88	'X'
    00000125 58                     740 	.db #0x58	; 88	'X'
    00000126 58                     741 	.db #0x58	; 88	'X'
    00000127 58                     742 	.db #0x58	; 88	'X'
    00000128 58                     743 	.db #0x58	; 88	'X'
    00000129 58                     744 	.db #0x58	; 88	'X'
    0000012A 58                     745 	.db #0x58	; 88	'X'
    0000012B 58                     746 	.db #0x58	; 88	'X'
    0000012C 58                     747 	.db #0x58	; 88	'X'
    0000012D 58                     748 	.db #0x58	; 88	'X'
    0000012E 58                     749 	.db #0x58	; 88	'X'
    0000012F 58                     750 	.db #0x58	; 88	'X'
    00000130 58                     751 	.db #0x58	; 88	'X'
    00000131 58                     752 	.db #0x58	; 88	'X'
    00000132 58                     753 	.db #0x58	; 88	'X'
    00000133 58                     754 	.db #0x58	; 88	'X'
    00000134 58                     755 	.db #0x58	; 88	'X'
    00000135 58                     756 	.db #0x58	; 88	'X'
    00000136 58                     757 	.db #0x58	; 88	'X'
    00000137 58                     758 	.db #0x58	; 88	'X'
    00000138 58                     759 	.db #0x58	; 88	'X'
    00000139 58                     760 	.db #0x58	; 88	'X'
    0000013A 58                     761 	.db #0x58	; 88	'X'
    0000013B 58                     762 	.db #0x58	; 88	'X'
    0000013C 58                     763 	.db #0x58	; 88	'X'
    0000013D 58                     764 	.db #0x58	; 88	'X'
    0000013E 58                     765 	.db #0x58	; 88	'X'
    0000013F 58                     766 	.db #0x58	; 88	'X'
    00000140 58                     767 	.db #0x58	; 88	'X'
    00000141 58                     768 	.db #0x58	; 88	'X'
    00000142 58                     769 	.db #0x58	; 88	'X'
    00000143 58                     770 	.db #0x58	; 88	'X'
    00000144 58                     771 	.db #0x58	; 88	'X'
    00000145 58                     772 	.db #0x58	; 88	'X'
    00000146 58                     773 	.db #0x58	; 88	'X'
    00000147 58                     774 	.db #0x58	; 88	'X'
    00000148 58                     775 	.db #0x58	; 88	'X'
    00000149 58                     776 	.db #0x58	; 88	'X'
    0000014A 58                     777 	.db #0x58	; 88	'X'
    0000014B 58                     778 	.db #0x58	; 88	'X'
    0000014C 58                     779 	.db #0x58	; 88	'X'
    0000014D 58                     780 	.db #0x58	; 88	'X'
    0000014E 58                     781 	.db #0x58	; 88	'X'
    0000014F 58                     782 	.db #0x58	; 88	'X'
    00000150 58                     783 	.db #0x58	; 88	'X'
    00000151 58                     784 	.db #0x58	; 88	'X'
    00000152 58                     785 	.db #0x58	; 88	'X'
    00000153 58                     786 	.db #0x58	; 88	'X'
    00000154 58                     787 	.db #0x58	; 88	'X'
    00000155 58                     788 	.db #0x58	; 88	'X'
    00000156 58                     789 	.db #0x58	; 88	'X'
    00000157 58                     790 	.db #0x58	; 88	'X'
    00000158 58                     791 	.db #0x58	; 88	'X'
    00000159 58                     792 	.db #0x58	; 88	'X'
    0000015A 58                     793 	.db #0x58	; 88	'X'
    0000015B 59                     794 	.db #0x59	; 89	'Y'
    0000015C 5A                     795 	.db #0x5a	; 90	'Z'
    0000015D 5B                     796 	.db #0x5b	; 91
    0000015E 5C                     797 	.db #0x5c	; 92
    0000015F 5D                     798 	.db #0x5d	; 93
    00000160 5E                     799 	.db #0x5e	; 94
    00000161 5F                     800 	.db #0x5f	; 95
    00000162 60                     801 	.db #0x60	; 96
    00000163 61                     802 	.db #0x61	; 97	'a'
    00000164 62                     803 	.db #0x62	; 98	'b'
    00000165 63                     804 	.db #0x63	; 99	'c'
    00000166 64                     805 	.db #0x64	; 100	'd'
    00000167 65                     806 	.db #0x65	; 101	'e'
    00000168 66                     807 	.db #0x66	; 102	'f'
    00000169 67                     808 	.db #0x67	; 103	'g'
    0000016A 68                     809 	.db #0x68	; 104	'h'
    0000016B 69                     810 	.db #0x69	; 105	'i'
    0000016C 6A                     811 	.db #0x6a	; 106	'j'
    0000016D 6B                     812 	.db #0x6b	; 107	'k'
    0000016E 6C                     813 	.db #0x6c	; 108	'l'
    0000016F 6D                     814 	.db #0x6d	; 109	'm'
    00000170 6E                     815 	.db #0x6e	; 110	'n'
    00000171 6F                     816 	.db #0x6f	; 111	'o'
    00000172 70                     817 	.db #0x70	; 112	'p'
    00000173 71                     818 	.db #0x71	; 113	'q'
    00000174 72                     819 	.db #0x72	; 114	'r'
    00000175 73                     820 	.db #0x73	; 115	's'
    00000176 74                     821 	.db #0x74	; 116	't'
    00000177 75                     822 	.db #0x75	; 117	'u'
    00000178 76                     823 	.db #0x76	; 118	'v'
    00000179 77                     824 	.db #0x77	; 119	'w'
    0000017A 78                     825 	.db #0x78	; 120	'x'
    0000017B 79                     826 	.db #0x79	; 121	'y'
    0000017C 7A                     827 	.db #0x7a	; 122	'z'
    0000017D 7B                     828 	.db #0x7b	; 123
    0000017E 7C                     829 	.db #0x7c	; 124
    0000017F 7D                     830 	.db #0x7d	; 125
    00000180 7E                     831 	.db #0x7e	; 126
    00000181 7F                     832 	.db #0x7f	; 127
    00000182 80                     833 	.db #0x80	; 128
    00000183 81                     834 	.db #0x81	; 129
    00000184 82                     835 	.db #0x82	; 130
    00000185 83                     836 	.db #0x83	; 131
    00000186 84                     837 	.db #0x84	; 132
    00000187 85                     838 	.db #0x85	; 133
    00000188 86                     839 	.db #0x86	; 134
    00000189 87                     840 	.db #0x87	; 135
    0000018A 88                     841 	.db #0x88	; 136
    0000018B 89                     842 	.db #0x89	; 137
    0000018C 8A                     843 	.db #0x8a	; 138
    0000018D 8B                     844 	.db #0x8b	; 139
    0000018E 8C                     845 	.db #0x8c	; 140
    0000018F 8D                     846 	.db #0x8d	; 141
    00000190 8E                     847 	.db #0x8e	; 142
    00000191 8F                     848 	.db #0x8f	; 143
    00000192 90                     849 	.db #0x90	; 144
    00000193 91                     850 	.db #0x91	; 145
    00000194 92                     851 	.db #0x92	; 146
    00000195 93                     852 	.db #0x93	; 147
    00000196 94                     853 	.db #0x94	; 148
    00000197 95                     854 	.db #0x95	; 149
    00000198 96                     855 	.db #0x96	; 150
    00000199 97                     856 	.db #0x97	; 151
    0000019A 98                     857 	.db #0x98	; 152
    0000019B 98                     858 	.db #0x98	; 152
    0000019C 98                     859 	.db #0x98	; 152
    0000019D 98                     860 	.db #0x98	; 152
    0000019E 98                     861 	.db #0x98	; 152
    0000019F 98                     862 	.db #0x98	; 152
    000001A0 98                     863 	.db #0x98	; 152
    000001A1 98                     864 	.db #0x98	; 152
    000001A2 98                     865 	.db #0x98	; 152
    000001A3 98                     866 	.db #0x98	; 152
    000001A4 98                     867 	.db #0x98	; 152
    000001A5 98                     868 	.db #0x98	; 152
    000001A6 98                     869 	.db #0x98	; 152
    000001A7 98                     870 	.db #0x98	; 152
    000001A8 98                     871 	.db #0x98	; 152
    000001A9 98                     872 	.db #0x98	; 152
    000001AA 98                     873 	.db #0x98	; 152
    000001AB 98                     874 	.db #0x98	; 152
    000001AC 98                     875 	.db #0x98	; 152
    000001AD 98                     876 	.db #0x98	; 152
    000001AE 98                     877 	.db #0x98	; 152
    000001AF 98                     878 	.db #0x98	; 152
    000001B0 98                     879 	.db #0x98	; 152
    000001B1 98                     880 	.db #0x98	; 152
    000001B2 98                     881 	.db #0x98	; 152
    000001B3 98                     882 	.db #0x98	; 152
    000001B4 98                     883 	.db #0x98	; 152
    000001B5 98                     884 	.db #0x98	; 152
    000001B6 98                     885 	.db #0x98	; 152
    000001B7 98                     886 	.db #0x98	; 152
    000001B8 98                     887 	.db #0x98	; 152
    000001B9 98                     888 	.db #0x98	; 152
    000001BA 98                     889 	.db #0x98	; 152
    000001BB 98                     890 	.db #0x98	; 152
    000001BC 98                     891 	.db #0x98	; 152
    000001BD 98                     892 	.db #0x98	; 152
    000001BE 98                     893 	.db #0x98	; 152
    000001BF 98                     894 	.db #0x98	; 152
    000001C0 98                     895 	.db #0x98	; 152
    000001C1 98                     896 	.db #0x98	; 152
    000001C2 98                     897 	.db #0x98	; 152
    000001C3 98                     898 	.db #0x98	; 152
    000001C4 98                     899 	.db #0x98	; 152
    000001C5 98                     900 	.db #0x98	; 152
    000001C6 98                     901 	.db #0x98	; 152
    000001C7 98                     902 	.db #0x98	; 152
    000001C8 98                     903 	.db #0x98	; 152
    000001C9 98                     904 	.db #0x98	; 152
    000001CA 98                     905 	.db #0x98	; 152
    000001CB 98                     906 	.db #0x98	; 152
    000001CC 98                     907 	.db #0x98	; 152
    000001CD 98                     908 	.db #0x98	; 152
    000001CE 98                     909 	.db #0x98	; 152
    000001CF 98                     910 	.db #0x98	; 152
    000001D0 98                     911 	.db #0x98	; 152
    000001D1 98                     912 	.db #0x98	; 152
    000001D2 98                     913 	.db #0x98	; 152
    000001D3 98                     914 	.db #0x98	; 152
    000001D4 98                     915 	.db #0x98	; 152
    000001D5 98                     916 	.db #0x98	; 152
    000001D6 98                     917 	.db #0x98	; 152
    000001D7 98                     918 	.db #0x98	; 152
    000001D8 98                     919 	.db #0x98	; 152
    000001D9 98                     920 	.db #0x98	; 152
    000001DA 98                     921 	.db #0x98	; 152
    000001DB 98                     922 	.db #0x98	; 152
    000001DC 98                     923 	.db #0x98	; 152
    000001DD 98                     924 	.db #0x98	; 152
    000001DE 98                     925 	.db #0x98	; 152
    000001DF 98                     926 	.db #0x98	; 152
    000001E0 98                     927 	.db #0x98	; 152
    000001E1 98                     928 	.db #0x98	; 152
    000001E2 98                     929 	.db #0x98	; 152
    000001E3 98                     930 	.db #0x98	; 152
    000001E4 98                     931 	.db #0x98	; 152
    000001E5 98                     932 	.db #0x98	; 152
    000001E6 98                     933 	.db #0x98	; 152
    000001E7 98                     934 	.db #0x98	; 152
    000001E8 98                     935 	.db #0x98	; 152
    000001E9 98                     936 	.db #0x98	; 152
    000001EA 98                     937 	.db #0x98	; 152
    000001EB 98                     938 	.db #0x98	; 152
    000001EC 98                     939 	.db #0x98	; 152
    000001ED 98                     940 	.db #0x98	; 152
    000001EE 98                     941 	.db #0x98	; 152
    000001EF 98                     942 	.db #0x98	; 152
    000001F0 98                     943 	.db #0x98	; 152
    000001F1 98                     944 	.db #0x98	; 152
    000001F2 98                     945 	.db #0x98	; 152
    000001F3 98                     946 	.db #0x98	; 152
    000001F4 98                     947 	.db #0x98	; 152
    000001F5 98                     948 	.db #0x98	; 152
    000001F6 98                     949 	.db #0x98	; 152
    000001F7 98                     950 	.db #0x98	; 152
    000001F8 98                     951 	.db #0x98	; 152
    000001F9 98                     952 	.db #0x98	; 152
    000001FA 98                     953 	.db #0x98	; 152
    000001FB 98                     954 	.db #0x98	; 152
    000001FC 98                     955 	.db #0x98	; 152
    000001FD 98                     956 	.db #0x98	; 152
    000001FE 98                     957 	.db #0x98	; 152
    000001FF 98                     958 	.db #0x98	; 152
    00000200 98                     959 	.db #0x98	; 152
    00000201 98                     960 	.db #0x98	; 152
    00000202 98                     961 	.db #0x98	; 152
    00000203 98                     962 	.db #0x98	; 152
    00000204 98                     963 	.db #0x98	; 152
    00000205 98                     964 	.db #0x98	; 152
    00000206 98                     965 	.db #0x98	; 152
    00000207 98                     966 	.db #0x98	; 152
    00000208 98                     967 	.db #0x98	; 152
    00000209 98                     968 	.db #0x98	; 152
    0000020A 99                     969 	.db #0x99	; 153
    0000020B 9A                     970 	.db #0x9a	; 154
    0000020C 9B                     971 	.db #0x9b	; 155
    0000020D 9C                     972 	.db #0x9c	; 156
    0000020E 9D                     973 	.db #0x9d	; 157
    0000020F 9E                     974 	.db #0x9e	; 158
    00000210 9F                     975 	.db #0x9f	; 159
    00000211 A0                     976 	.db #0xa0	; 160
    00000212 A1                     977 	.db #0xa1	; 161
    00000213 A2                     978 	.db #0xa2	; 162
    00000214 A3                     979 	.db #0xa3	; 163
    00000215 A4                     980 	.db #0xa4	; 164
    00000216 A5                     981 	.db #0xa5	; 165
    00000217 A6                     982 	.db #0xa6	; 166
    00000218 A7                     983 	.db #0xa7	; 167
    00000219 A8                     984 	.db #0xa8	; 168
    0000021A A9                     985 	.db #0xa9	; 169
    0000021B AA                     986 	.db #0xaa	; 170
    0000021C AB                     987 	.db #0xab	; 171
    0000021D AC                     988 	.db #0xac	; 172
    0000021E AD                     989 	.db #0xad	; 173
    0000021F AE                     990 	.db #0xae	; 174
    00000220 AF                     991 	.db #0xaf	; 175
    00000221 B0                     992 	.db #0xb0	; 176
    00000222 B1                     993 	.db #0xb1	; 177
    00000223 B2                     994 	.db #0xb2	; 178
    00000224 B3                     995 	.db #0xb3	; 179
    00000225 B4                     996 	.db #0xb4	; 180
    00000226 B5                     997 	.db #0xb5	; 181
    00000227 B5                     998 	.db #0xb5	; 181
    00000228 B5                     999 	.db #0xb5	; 181
    00000229 B5                    1000 	.db #0xb5	; 181
    0000022A B5                    1001 	.db #0xb5	; 181
    0000022B B5                    1002 	.db #0xb5	; 181
    0000022C B5                    1003 	.db #0xb5	; 181
    0000022D B5                    1004 	.db #0xb5	; 181
    0000022E B5                    1005 	.db #0xb5	; 181
    0000022F B5                    1006 	.db #0xb5	; 181
    00000230 B5                    1007 	.db #0xb5	; 181
    00000231 B5                    1008 	.db #0xb5	; 181
    00000232 B5                    1009 	.db #0xb5	; 181
    00000233 B5                    1010 	.db #0xb5	; 181
    00000234 B6                    1011 	.db #0xb6	; 182
    00000235 B7                    1012 	.db #0xb7	; 183
    00000236 B8                    1013 	.db #0xb8	; 184
    00000237 B9                    1014 	.db #0xb9	; 185
    00000238 BA                    1015 	.db #0xba	; 186
    00000239 BB                    1016 	.db #0xbb	; 187
    0000023A BC                    1017 	.db #0xbc	; 188
    0000023B BD                    1018 	.db #0xbd	; 189
    0000023C BE                    1019 	.db #0xbe	; 190
    0000023D BF                    1020 	.db #0xbf	; 191
    0000023E C0                    1021 	.db #0xc0	; 192
    0000023F C1                    1022 	.db #0xc1	; 193
    00000240 C2                    1023 	.db #0xc2	; 194
    00000241 C3                    1024 	.db #0xc3	; 195
    00000242 C4                    1025 	.db #0xc4	; 196
    00000243 C5                    1026 	.db #0xc5	; 197
    00000244 C6                    1027 	.db #0xc6	; 198
    00000245 C7                    1028 	.db #0xc7	; 199
    00000246 C8                    1029 	.db #0xc8	; 200
    00000247 C9                    1030 	.db #0xc9	; 201
    00000248 CA                    1031 	.db #0xca	; 202
    00000249 CB                    1032 	.db #0xcb	; 203
    0000024A CC                    1033 	.db #0xcc	; 204
    0000024B CD                    1034 	.db #0xcd	; 205
    0000024C CE                    1035 	.db #0xce	; 206
    0000024D CF                    1036 	.db #0xcf	; 207
    0000024E D0                    1037 	.db #0xd0	; 208
    0000024F D1                    1038 	.db #0xd1	; 209
    00000250 D2                    1039 	.db #0xd2	; 210
    00000251 D3                    1040 	.db #0xd3	; 211
    00000252 D4                    1041 	.db #0xd4	; 212
    00000253 D5                    1042 	.db #0xd5	; 213
    00000254 D6                    1043 	.db #0xd6	; 214
    00000255 D7                    1044 	.db #0xd7	; 215
    00000256 D8                    1045 	.db #0xd8	; 216
    00000257 D9                    1046 	.db #0xd9	; 217
    00000258 DA                    1047 	.db #0xda	; 218
    00000259 DB                    1048 	.db #0xdb	; 219
    0000025A DC                    1049 	.db #0xdc	; 220
    0000025B DD                    1050 	.db #0xdd	; 221
    0000025C DE                    1051 	.db #0xde	; 222
    0000025D DF                    1052 	.db #0xdf	; 223
    0000025E E0                    1053 	.db #0xe0	; 224
    0000025F E1                    1054 	.db #0xe1	; 225
    00000260 E2                    1055 	.db #0xe2	; 226
    00000261 E3                    1056 	.db #0xe3	; 227
    00000262 E4                    1057 	.db #0xe4	; 228
    00000263 E5                    1058 	.db #0xe5	; 229
    00000264 E6                    1059 	.db #0xe6	; 230
    00000265 E7                    1060 	.db #0xe7	; 231
    00000266 E8                    1061 	.db #0xe8	; 232
    00000267 E9                    1062 	.db #0xe9	; 233
    00000268 EA                    1063 	.db #0xea	; 234
    00000269 EB                    1064 	.db #0xeb	; 235
    0000026A EC                    1065 	.db #0xec	; 236
    0000026B ED                    1066 	.db #0xed	; 237
    0000026C EE                    1067 	.db #0xee	; 238
    0000026D EF                    1068 	.db #0xef	; 239
    0000026E F0                    1069 	.db #0xf0	; 240
    0000026F F1                    1070 	.db #0xf1	; 241
    00000270 F2                    1071 	.db #0xf2	; 242
    00000271 F3                    1072 	.db #0xf3	; 243
    00000272 F4                    1073 	.db #0xf4	; 244
    00000273 F5                    1074 	.db #0xf5	; 245
    00000274 F6                    1075 	.db #0xf6	; 246
    00000275 F7                    1076 	.db #0xf7	; 247
    00000276 F8                    1077 	.db #0xf8	; 248
    00000277 F9                    1078 	.db #0xf9	; 249
    00000278 FA                    1079 	.db #0xfa	; 250
    00000279 FB                    1080 	.db #0xfb	; 251
    0000027A FC                    1081 	.db #0xfc	; 252
    0000027B FD                    1082 	.db #0xfd	; 253
    0000027C FE                    1083 	.db #0xfe	; 254
    0000027D FF                    1084 	.db #0xff	; 255
                                   1085 ;E:\Dropbox\FAUSTO\SVILUPPI\MSX\CODE\C\MSXgl\projects\soccerlgMSX2/soccerlg_s5_b3.c:20: void RemoveSwSprite(u8 px,u16 py,u16 page) 
                                   1086 ;	---------------------------------
                                   1087 ; Function RemoveSwSprite
                                   1088 ; ---------------------------------
    0000027E                       1089 _RemoveSwSprite::
    0000027E DD E5            [15] 1090 	push	ix
    00000280 DD 21 00 00      [14] 1091 	ld	ix,#0
    00000284 DD 39            [15] 1092 	add	ix,sp
    00000286 21 F5 FF         [10] 1093 	ld	hl, #-11
    00000289 39               [11] 1094 	add	hl, sp
    0000028A F9               [ 6] 1095 	ld	sp, hl
    0000028B DD 77 FF         [19] 1096 	ld	-1 (ix), a
                                   1097 ;E:\Dropbox\FAUSTO\SVILUPPI\MSX\CODE\C\MSXgl\projects\soccerlgMSX2/soccerlg_s5_b3.c:22: u16 diff = (py + 512 - Field.ly) & 511;
    0000028E 33               [ 6] 1098 	inc	sp
    0000028F 33               [ 6] 1099 	inc	sp
    00000290 D5               [11] 1100 	push	de
    00000291 DD 4E F5         [19] 1101 	ld	c, -11 (ix)
    00000294 DD 7E F6         [19] 1102 	ld	a, -10 (ix)
    00000297 C6 02            [ 7] 1103 	add	a, #0x02
    00000299 47               [ 4] 1104 	ld	b, a
    0000029A 2Ar04r00         [16] 1105 	ld	hl, (#(_Field + 4) + 0)
    0000029D 79               [ 4] 1106 	ld	a, c
    0000029E 95               [ 4] 1107 	sub	a, l
    0000029F 4F               [ 4] 1108 	ld	c, a
    000002A0 78               [ 4] 1109 	ld	a, b
    000002A1 9C               [ 4] 1110 	sbc	a, h
    000002A2 E6 01            [ 7] 1111 	and	a, #0x01
    000002A4 47               [ 4] 1112 	ld	b, a
                                   1113 ;E:\Dropbox\FAUSTO\SVILUPPI\MSX\CODE\C\MSXgl\projects\soccerlgMSX2/soccerlg_s5_b3.c:23: if (diff < 224 || diff > 480) 
    000002A5 79               [ 4] 1114 	ld	a, c
    000002A6 D6 E0            [ 7] 1115 	sub	a, #0xe0
    000002A8 78               [ 4] 1116 	ld	a, b
    000002A9 DE 00            [ 7] 1117 	sbc	a, #0x00
    000002AB 38 09            [12] 1118 	jr	C, 00104$
    000002AD 3E E0            [ 7] 1119 	ld	a, #0xe0
    000002AF B9               [ 4] 1120 	cp	a, c
    000002B0 3E 01            [ 7] 1121 	ld	a, #0x01
    000002B2 98               [ 4] 1122 	sbc	a, b
    000002B3 D2r2Er04         [10] 1123 	jp	NC, 00113$
    000002B6                       1124 00104$:
                                   1125 ;E:\Dropbox\FAUSTO\SVILUPPI\MSX\CODE\C\MSXgl\projects\soccerlgMSX2/soccerlg_s5_b3.c:25: if SplitSprite(py) {
    000002B6 DD 4E F5         [19] 1126 	ld	c, -11 (ix)
    000002B9 06 00            [ 7] 1127 	ld	b, #0x00
                                   1128 ;E:\Dropbox\FAUSTO\SVILUPPI\MSX\CODE\C\MSXgl\projects\soccerlgMSX2/soccerlg_s5_b3.c:27: VDP_CommandHMMM(px,FieldMap[(py)    &511]+768,px,((py)&255)+page,16,  t);	
    000002BB DD 7E FF         [19] 1129 	ld	a, -1 (ix)
    000002BE DD 77 F7         [19] 1130 	ld	-9 (ix), a
    000002C1 DD 36 F8 00      [19] 1131 	ld	-8 (ix), #0x00
    000002C5 DD 7E F5         [19] 1132 	ld	a, -11 (ix)
    000002C8 DD 77 FD         [19] 1133 	ld	-3 (ix), a
    000002CB DD 7E F6         [19] 1134 	ld	a, -10 (ix)
    000002CE E6 01            [ 7] 1135 	and	a, #0x01
    000002D0 DD 77 FE         [19] 1136 	ld	-2 (ix), a
    000002D3 DD 71 F9         [19] 1137 	ld	-7 (ix), c
    000002D6 DD 70 FA         [19] 1138 	ld	-6 (ix), b
    000002D9 DD 7E F9         [19] 1139 	ld	a, -7 (ix)
    000002DC DD 86 04         [19] 1140 	add	a, 4 (ix)
    000002DF DD 77 FB         [19] 1141 	ld	-5 (ix), a
    000002E2 DD 7E FA         [19] 1142 	ld	a, -6 (ix)
    000002E5 DD 8E 05         [19] 1143 	adc	a, 5 (ix)
    000002E8 DD 77 FC         [19] 1144 	ld	-4 (ix), a
                                   1145 ;E:\Dropbox\FAUSTO\SVILUPPI\MSX\CODE\C\MSXgl\projects\soccerlgMSX2/soccerlg_s5_b3.c:25: if SplitSprite(py) {
    000002EB 3E F0            [ 7] 1146 	ld	a, #0xf0
    000002ED B9               [ 4] 1147 	cp	a, c
    000002EE 3E 00            [ 7] 1148 	ld	a, #0x00
    000002F0 98               [ 4] 1149 	sbc	a, b
    000002F1 D2rDEr03         [10] 1150 	jp	NC, 00102$
                                   1151 ;E:\Dropbox\FAUSTO\SVILUPPI\MSX\CODE\C\MSXgl\projects\soccerlgMSX2/soccerlg_s5_b3.c:26: u8 t = 256 - (py & 255) ;
    000002F4 AF               [ 4] 1152 	xor	a, a
    000002F5 93               [ 4] 1153 	sub	a, e
    000002F6 5F               [ 4] 1154 	ld	e, a
                                   1155 ;E:\Dropbox\FAUSTO\SVILUPPI\MSX\CODE\C\MSXgl\projects\soccerlgMSX2/soccerlg_s5_b3.c:27: VDP_CommandHMMM(px,FieldMap[(py)    &511]+768,px,((py)&255)+page,16,  t);	
    000002F7 DD 73 F9         [19] 1156 	ld	-7 (ix), e
    000002FA DD 36 FA 00      [19] 1157 	ld	-6 (ix), #0x00
    000002FE DD 4E FB         [19] 1158 	ld	c, -5 (ix)
    00000301 DD 46 FC         [19] 1159 	ld	b, -4 (ix)
    00000304 DD 7E F7         [19] 1160 	ld	a, -9 (ix)
    00000307 DD 77 FB         [19] 1161 	ld	-5 (ix), a
    0000030A DD 7E F8         [19] 1162 	ld	a, -8 (ix)
    0000030D DD 77 FC         [19] 1163 	ld	-4 (ix), a
    00000310 3Er7E            [ 7] 1164 	ld	a, #<(_FieldMap)
    00000312 DD 86 FD         [19] 1165 	add	a, -3 (ix)
    00000315 57               [ 4] 1166 	ld	d, a
    00000316 3Es00            [ 7] 1167 	ld	a, #>(_FieldMap)
    00000318 DD 8E FE         [19] 1168 	adc	a, -2 (ix)
    0000031B 6A               [ 4] 1169 	ld	l, d
    0000031C 67               [ 4] 1170 	ld	h, a
    0000031D 6E               [ 7] 1171 	ld	l, (hl)
                                   1172 ;	spillPairReg hl
                                   1173 ;	spillPairReg hl
                                   1174 ;	spillPairReg hl
    0000031E AF               [ 4] 1175 	xor	a, a
    0000031F C6 03            [ 7] 1176 	add	a, #0x03
    00000321 DD 75 FD         [19] 1177 	ld	-3 (ix), l
    00000324 DD 77 FE         [19] 1178 	ld	-2 (ix), a
                                   1179 ;E:/Dropbox/FAUSTO/SVILUPPI/MSX/CODE/C/MSXgl/engine/src/vdp_inl.h:105: g_VDP_Command.SX = sx;
    00000327 21r00r00         [10] 1180 	ld	hl, #_g_VDP_Command
    0000032A DD 7E F7         [19] 1181 	ld	a, -9 (ix)
    0000032D 77               [ 7] 1182 	ld	(hl), a
    0000032E 23               [ 6] 1183 	inc	hl
    0000032F DD 7E F8         [19] 1184 	ld	a, -8 (ix)
    00000332 77               [ 7] 1185 	ld	(hl), a
                                   1186 ;E:/Dropbox/FAUSTO/SVILUPPI/MSX/CODE/C/MSXgl/engine/src/vdp_inl.h:106: g_VDP_Command.SY = sy;
    00000333 21r02r00         [10] 1187 	ld	hl, #(_g_VDP_Command + 2)
    00000336 DD 7E FD         [19] 1188 	ld	a, -3 (ix)
    00000339 77               [ 7] 1189 	ld	(hl), a
    0000033A 23               [ 6] 1190 	inc	hl
    0000033B DD 7E FE         [19] 1191 	ld	a, -2 (ix)
    0000033E 77               [ 7] 1192 	ld	(hl), a
                                   1193 ;E:/Dropbox/FAUSTO/SVILUPPI/MSX/CODE/C/MSXgl/engine/src/vdp_inl.h:107: g_VDP_Command.DX = dx;
    0000033F 21r04r00         [10] 1194 	ld	hl, #(_g_VDP_Command + 4)
    00000342 DD 7E FB         [19] 1195 	ld	a, -5 (ix)
    00000345 77               [ 7] 1196 	ld	(hl), a
    00000346 23               [ 6] 1197 	inc	hl
    00000347 DD 7E FC         [19] 1198 	ld	a, -4 (ix)
    0000034A 77               [ 7] 1199 	ld	(hl), a
                                   1200 ;E:/Dropbox/FAUSTO/SVILUPPI/MSX/CODE/C/MSXgl/engine/src/vdp_inl.h:108: g_VDP_Command.DY = dy;
    0000034B ED 43r06r00      [20] 1201 	ld	((_g_VDP_Command + 6)), bc
                                   1202 ;E:/Dropbox/FAUSTO/SVILUPPI/MSX/CODE/C/MSXgl/engine/src/vdp_inl.h:109: g_VDP_Command.NX = nx;
    0000034F 21 10 00         [10] 1203 	ld	hl, #0x0010
    00000352 22r08r00         [16] 1204 	ld	((_g_VDP_Command + 8)), hl
                                   1205 ;E:/Dropbox/FAUSTO/SVILUPPI/MSX/CODE/C/MSXgl/engine/src/vdp_inl.h:110: g_VDP_Command.NY = ny;
    00000355 21r0Ar00         [10] 1206 	ld	hl, #(_g_VDP_Command + 10)
    00000358 DD 7E F9         [19] 1207 	ld	a, -7 (ix)
    0000035B 77               [ 7] 1208 	ld	(hl), a
    0000035C 23               [ 6] 1209 	inc	hl
    0000035D DD 7E FA         [19] 1210 	ld	a, -6 (ix)
    00000360 77               [ 7] 1211 	ld	(hl), a
                                   1212 ;E:/Dropbox/FAUSTO/SVILUPPI/MSX/CODE/C/MSXgl/engine/src/vdp_inl.h:111: g_VDP_Command.ARG = arg; 
    00000361 21r0Dr00         [10] 1213 	ld	hl, #(_g_VDP_Command + 13)
    00000364 36 00            [10] 1214 	ld	(hl), #0x00
                                   1215 ;E:/Dropbox/FAUSTO/SVILUPPI/MSX/CODE/C/MSXgl/engine/src/vdp_inl.h:112: g_VDP_Command.CMD = VDP_CMD_HMMM;
    00000366 21r0Er00         [10] 1216 	ld	hl, #(_g_VDP_Command + 14)
    00000369 36 D0            [10] 1217 	ld	(hl), #0xd0
                                   1218 ;E:/Dropbox/FAUSTO/SVILUPPI/MSX/CODE/C/MSXgl/engine/src/vdp_inl.h:113: VPD_CommandSetupR32();
    0000036B D5               [11] 1219 	push	de
    0000036C CDr00r00         [17] 1220 	call	_VPD_CommandSetupR32
    0000036F D1               [10] 1221 	pop	de
                                   1222 ;E:\Dropbox\FAUSTO\SVILUPPI\MSX\CODE\C\MSXgl\projects\soccerlgMSX2/soccerlg_s5_b3.c:28: VDP_CommandHMMM(px,FieldMap[((py)+t)&511]+768,px,           page,16,16-t);	
    00000370 16 00            [ 7] 1223 	ld	d, #0x00
    00000372 21 10 00         [10] 1224 	ld	hl, #0x0010
    00000375 BF               [ 4] 1225 	cp	a, a
    00000376 ED 52            [15] 1226 	sbc	hl, de
    00000378 DD 75 FD         [19] 1227 	ld	-3 (ix), l
    0000037B DD 74 FE         [19] 1228 	ld	-2 (ix), h
    0000037E DD 4E 04         [19] 1229 	ld	c, 4 (ix)
    00000381 DD 46 05         [19] 1230 	ld	b, 5 (ix)
    00000384 DD 7E F5         [19] 1231 	ld	a, -11 (ix)
    00000387 83               [ 4] 1232 	add	a, e
    00000388 5F               [ 4] 1233 	ld	e, a
    00000389 DD 7E F6         [19] 1234 	ld	a, -10 (ix)
    0000038C 8A               [ 4] 1235 	adc	a, d
    0000038D E6 01            [ 7] 1236 	and	a, #0x01
    0000038F 57               [ 4] 1237 	ld	d, a
    00000390 21r7Er00         [10] 1238 	ld	hl, #_FieldMap
    00000393 19               [11] 1239 	add	hl, de
    00000394 6E               [ 7] 1240 	ld	l, (hl)
                                   1241 ;	spillPairReg hl
    00000395 26 00            [ 7] 1242 	ld	h, #0x00
                                   1243 ;	spillPairReg hl
                                   1244 ;	spillPairReg hl
    00000397 5D               [ 4] 1245 	ld	e, l
    00000398 7C               [ 4] 1246 	ld	a, h
    00000399 C6 03            [ 7] 1247 	add	a, #0x03
    0000039B 57               [ 4] 1248 	ld	d, a
                                   1249 ;E:/Dropbox/FAUSTO/SVILUPPI/MSX/CODE/C/MSXgl/engine/src/vdp_inl.h:105: g_VDP_Command.SX = sx;
    0000039C 21r00r00         [10] 1250 	ld	hl, #_g_VDP_Command
    0000039F DD 7E F7         [19] 1251 	ld	a, -9 (ix)
    000003A2 77               [ 7] 1252 	ld	(hl), a
    000003A3 23               [ 6] 1253 	inc	hl
    000003A4 DD 7E F8         [19] 1254 	ld	a, -8 (ix)
    000003A7 77               [ 7] 1255 	ld	(hl), a
                                   1256 ;E:/Dropbox/FAUSTO/SVILUPPI/MSX/CODE/C/MSXgl/engine/src/vdp_inl.h:106: g_VDP_Command.SY = sy;
    000003A8 ED 53r02r00      [20] 1257 	ld	((_g_VDP_Command + 2)), de
                                   1258 ;E:/Dropbox/FAUSTO/SVILUPPI/MSX/CODE/C/MSXgl/engine/src/vdp_inl.h:107: g_VDP_Command.DX = dx;
    000003AC 21r04r00         [10] 1259 	ld	hl, #(_g_VDP_Command + 4)
    000003AF DD 7E F7         [19] 1260 	ld	a, -9 (ix)
    000003B2 77               [ 7] 1261 	ld	(hl), a
    000003B3 23               [ 6] 1262 	inc	hl
    000003B4 DD 7E F8         [19] 1263 	ld	a, -8 (ix)
    000003B7 77               [ 7] 1264 	ld	(hl), a
                                   1265 ;E:/Dropbox/FAUSTO/SVILUPPI/MSX/CODE/C/MSXgl/engine/src/vdp_inl.h:108: g_VDP_Command.DY = dy;
    000003B8 ED 43r06r00      [20] 1266 	ld	((_g_VDP_Command + 6)), bc
                                   1267 ;E:/Dropbox/FAUSTO/SVILUPPI/MSX/CODE/C/MSXgl/engine/src/vdp_inl.h:109: g_VDP_Command.NX = nx;
    000003BC 21 10 00         [10] 1268 	ld	hl, #0x0010
    000003BF 22r08r00         [16] 1269 	ld	((_g_VDP_Command + 8)), hl
                                   1270 ;E:/Dropbox/FAUSTO/SVILUPPI/MSX/CODE/C/MSXgl/engine/src/vdp_inl.h:110: g_VDP_Command.NY = ny;
    000003C2 21r0Ar00         [10] 1271 	ld	hl, #(_g_VDP_Command + 10)
    000003C5 DD 7E FD         [19] 1272 	ld	a, -3 (ix)
    000003C8 77               [ 7] 1273 	ld	(hl), a
    000003C9 23               [ 6] 1274 	inc	hl
    000003CA DD 7E FE         [19] 1275 	ld	a, -2 (ix)
    000003CD 77               [ 7] 1276 	ld	(hl), a
                                   1277 ;E:/Dropbox/FAUSTO/SVILUPPI/MSX/CODE/C/MSXgl/engine/src/vdp_inl.h:111: g_VDP_Command.ARG = arg; 
    000003CE 21r0Dr00         [10] 1278 	ld	hl, #(_g_VDP_Command + 13)
    000003D1 36 00            [10] 1279 	ld	(hl), #0x00
                                   1280 ;E:/Dropbox/FAUSTO/SVILUPPI/MSX/CODE/C/MSXgl/engine/src/vdp_inl.h:112: g_VDP_Command.CMD = VDP_CMD_HMMM;
    000003D3 21r0Er00         [10] 1281 	ld	hl, #(_g_VDP_Command + 14)
    000003D6 36 D0            [10] 1282 	ld	(hl), #0xd0
                                   1283 ;E:/Dropbox/FAUSTO/SVILUPPI/MSX/CODE/C/MSXgl/engine/src/vdp_inl.h:113: VPD_CommandSetupR32();
    000003D8 CDr00r00         [17] 1284 	call	_VPD_CommandSetupR32
                                   1285 ;E:\Dropbox\FAUSTO\SVILUPPI\MSX\CODE\C\MSXgl\projects\soccerlgMSX2/soccerlg_s5_b3.c:28: VDP_CommandHMMM(px,FieldMap[((py)+t)&511]+768,px,           page,16,16-t);	
    000003DB C3r2Er04         [10] 1286 	jp	00113$
    000003DE                       1287 00102$:
                                   1288 ;E:\Dropbox\FAUSTO\SVILUPPI\MSX\CODE\C\MSXgl\projects\soccerlgMSX2/soccerlg_s5_b3.c:31: VDP_CommandHMMM(px,FieldMap[(py)&511]+768,px, ((py)&255)+page,16, 16);	
    000003DE DD 4E F7         [19] 1289 	ld	c, -9 (ix)
    000003E1 DD 46 F8         [19] 1290 	ld	b, -8 (ix)
    000003E4 3Er7E            [ 7] 1291 	ld	a, #<(_FieldMap)
    000003E6 DD 86 FD         [19] 1292 	add	a, -3 (ix)
    000003E9 6F               [ 4] 1293 	ld	l, a
                                   1294 ;	spillPairReg hl
                                   1295 ;	spillPairReg hl
    000003EA 3Es00            [ 7] 1296 	ld	a, #>(_FieldMap)
    000003EC DD 8E FE         [19] 1297 	adc	a, -2 (ix)
    000003EF 67               [ 4] 1298 	ld	h, a
                                   1299 ;	spillPairReg hl
                                   1300 ;	spillPairReg hl
    000003F0 5E               [ 7] 1301 	ld	e, (hl)
    000003F1 16 00            [ 7] 1302 	ld	d, #0x00
    000003F3 21 00 03         [10] 1303 	ld	hl, #0x0300
    000003F6 19               [11] 1304 	add	hl, de
    000003F7 EB               [ 4] 1305 	ex	de, hl
                                   1306 ;E:/Dropbox/FAUSTO/SVILUPPI/MSX/CODE/C/MSXgl/engine/src/vdp_inl.h:105: g_VDP_Command.SX = sx;
    000003F8 21r00r00         [10] 1307 	ld	hl, #_g_VDP_Command
    000003FB DD 7E F7         [19] 1308 	ld	a, -9 (ix)
    000003FE 77               [ 7] 1309 	ld	(hl), a
    000003FF 23               [ 6] 1310 	inc	hl
    00000400 DD 7E F8         [19] 1311 	ld	a, -8 (ix)
    00000403 77               [ 7] 1312 	ld	(hl), a
                                   1313 ;E:/Dropbox/FAUSTO/SVILUPPI/MSX/CODE/C/MSXgl/engine/src/vdp_inl.h:106: g_VDP_Command.SY = sy;
    00000404 ED 53r02r00      [20] 1314 	ld	((_g_VDP_Command + 2)), de
                                   1315 ;E:/Dropbox/FAUSTO/SVILUPPI/MSX/CODE/C/MSXgl/engine/src/vdp_inl.h:107: g_VDP_Command.DX = dx;
    00000408 ED 43r04r00      [20] 1316 	ld	((_g_VDP_Command + 4)), bc
                                   1317 ;E:/Dropbox/FAUSTO/SVILUPPI/MSX/CODE/C/MSXgl/engine/src/vdp_inl.h:108: g_VDP_Command.DY = dy;
    0000040C 21r06r00         [10] 1318 	ld	hl, #(_g_VDP_Command + 6)
    0000040F DD 7E FB         [19] 1319 	ld	a, -5 (ix)
    00000412 77               [ 7] 1320 	ld	(hl), a
    00000413 23               [ 6] 1321 	inc	hl
    00000414 DD 7E FC         [19] 1322 	ld	a, -4 (ix)
    00000417 77               [ 7] 1323 	ld	(hl), a
                                   1324 ;E:/Dropbox/FAUSTO/SVILUPPI/MSX/CODE/C/MSXgl/engine/src/vdp_inl.h:109: g_VDP_Command.NX = nx;
    00000418 21 10 00         [10] 1325 	ld	hl, #0x0010
    0000041B 22r08r00         [16] 1326 	ld	((_g_VDP_Command + 8)), hl
                                   1327 ;E:/Dropbox/FAUSTO/SVILUPPI/MSX/CODE/C/MSXgl/engine/src/vdp_inl.h:110: g_VDP_Command.NY = ny;
    0000041E 22r0Ar00         [16] 1328 	ld	((_g_VDP_Command + 10)), hl
                                   1329 ;E:/Dropbox/FAUSTO/SVILUPPI/MSX/CODE/C/MSXgl/engine/src/vdp_inl.h:111: g_VDP_Command.ARG = arg; 
    00000421 21r0Dr00         [10] 1330 	ld	hl, #(_g_VDP_Command + 13)
    00000424 36 00            [10] 1331 	ld	(hl), #0x00
                                   1332 ;E:/Dropbox/FAUSTO/SVILUPPI/MSX/CODE/C/MSXgl/engine/src/vdp_inl.h:112: g_VDP_Command.CMD = VDP_CMD_HMMM;
    00000426 21r0Er00         [10] 1333 	ld	hl, #(_g_VDP_Command + 14)
    00000429 36 D0            [10] 1334 	ld	(hl), #0xd0
                                   1335 ;E:/Dropbox/FAUSTO/SVILUPPI/MSX/CODE/C/MSXgl/engine/src/vdp_inl.h:113: VPD_CommandSetupR32();
    0000042B CDr00r00         [17] 1336 	call	_VPD_CommandSetupR32
                                   1337 ;E:\Dropbox\FAUSTO\SVILUPPI\MSX\CODE\C\MSXgl\projects\soccerlgMSX2/soccerlg_s5_b3.c:31: VDP_CommandHMMM(px,FieldMap[(py)&511]+768,px, ((py)&255)+page,16, 16);	
    0000042E                       1338 00113$:
                                   1339 ;E:\Dropbox\FAUSTO\SVILUPPI\MSX\CODE\C\MSXgl\projects\soccerlgMSX2/soccerlg_s5_b3.c:33: }
    0000042E DD F9            [10] 1340 	ld	sp, ix
    00000430 DD E1            [14] 1341 	pop	ix
    00000432 E1               [10] 1342 	pop	hl
    00000433 F1               [10] 1343 	pop	af
    00000434 E9               [ 4] 1344 	jp	(hl)
                                   1345 ;E:\Dropbox\FAUSTO\SVILUPPI\MSX\CODE\C\MSXgl\projects\soccerlgMSX2/soccerlg_s5_b3.c:35: void RemoveScoreBoardLeft(u8 px,u16 py,u16 page)
                                   1346 ;	---------------------------------
                                   1347 ; Function RemoveScoreBoardLeft
                                   1348 ; ---------------------------------
    00000435                       1349 _RemoveScoreBoardLeft::
    00000435 DD E5            [15] 1350 	push	ix
    00000437 DD 21 00 00      [14] 1351 	ld	ix,#0
    0000043B DD 39            [15] 1352 	add	ix,sp
    0000043D 21 F5 FF         [10] 1353 	ld	hl, #-11
    00000440 39               [11] 1354 	add	hl, sp
    00000441 F9               [ 6] 1355 	ld	sp, hl
    00000442 4F               [ 4] 1356 	ld	c, a
    00000443 DD 73 FE         [19] 1357 	ld	-2 (ix), e
    00000446 DD 72 FF         [19] 1358 	ld	-1 (ix), d
                                   1359 ;E:\Dropbox\FAUSTO\SVILUPPI\MSX\CODE\C\MSXgl\projects\soccerlgMSX2/soccerlg_s5_b3.c:37: if (((py&255)>256-SCOREBOARD_NY_LEFT) ) 
    00000449 DD 7E FE         [19] 1360 	ld	a, -2 (ix)
    0000044C DD 77 F5         [19] 1361 	ld	-11 (ix), a
    0000044F DD 7E FF         [19] 1362 	ld	a, -1 (ix)
    00000452 DD 77 F6         [19] 1363 	ld	-10 (ix), a
    00000455 DD 7E F5         [19] 1364 	ld	a, -11 (ix)
    00000458 DD 77 FC         [19] 1365 	ld	-4 (ix), a
    0000045B DD 36 FD 00      [19] 1366 	ld	-3 (ix), #0x00
                                   1367 ;E:\Dropbox\FAUSTO\SVILUPPI\MSX\CODE\C\MSXgl\projects\soccerlgMSX2/soccerlg_s5_b3.c:40: VDP_CommandHMMM(px, FieldMap[(py)&511]+768,   px, ((py)&255)+page, SCOREBOARD_NX_LEFT, t);
    0000045F DD 71 F7         [19] 1368 	ld	-9 (ix), c
    00000462 DD 36 F8 00      [19] 1369 	ld	-8 (ix), #0x00
    00000466 DD 4E F5         [19] 1370 	ld	c, -11 (ix)
    00000469 DD 7E F6         [19] 1371 	ld	a, -10 (ix)
    0000046C E6 01            [ 7] 1372 	and	a, #0x01
    0000046E 47               [ 4] 1373 	ld	b, a
    0000046F DD 7E FC         [19] 1374 	ld	a, -4 (ix)
    00000472 DD 56 FD         [19] 1375 	ld	d, -3 (ix)
    00000475 DD 86 04         [19] 1376 	add	a, 4 (ix)
    00000478 5F               [ 4] 1377 	ld	e, a
    00000479 7A               [ 4] 1378 	ld	a, d
    0000047A DD 8E 05         [19] 1379 	adc	a, 5 (ix)
    0000047D 57               [ 4] 1380 	ld	d, a
                                   1381 ;E:\Dropbox\FAUSTO\SVILUPPI\MSX\CODE\C\MSXgl\projects\soccerlgMSX2/soccerlg_s5_b3.c:37: if (((py&255)>256-SCOREBOARD_NY_LEFT) ) 
    0000047E 3E 2C            [ 7] 1382 	ld	a, #0x2c
    00000480 DD BE FC         [19] 1383 	cp	a, -4 (ix)
    00000483 3E 00            [ 7] 1384 	ld	a, #0x00
    00000485 DD 9E FD         [19] 1385 	sbc	a, -3 (ix)
    00000488 D2r62r05         [10] 1386 	jp	NC, 00102$
                                   1387 ;E:\Dropbox\FAUSTO\SVILUPPI\MSX\CODE\C\MSXgl\projects\soccerlgMSX2/soccerlg_s5_b3.c:39: u8 t = 256 - (py & 255) ;
    0000048B DD 7E FE         [19] 1388 	ld	a, -2 (ix)
    0000048E ED 44            [ 8] 1389 	neg
                                   1390 ;E:\Dropbox\FAUSTO\SVILUPPI\MSX\CODE\C\MSXgl\projects\soccerlgMSX2/soccerlg_s5_b3.c:40: VDP_CommandHMMM(px, FieldMap[(py)&511]+768,   px, ((py)&255)+page, SCOREBOARD_NX_LEFT, t);
    00000490 DD 77 F9         [19] 1391 	ld	-7 (ix), a
    00000493 DD 77 FA         [19] 1392 	ld	-6 (ix), a
    00000496 DD 36 FB 00      [19] 1393 	ld	-5 (ix), #0x00
    0000049A DD 73 FC         [19] 1394 	ld	-4 (ix), e
    0000049D DD 72 FD         [19] 1395 	ld	-3 (ix), d
    000004A0 DD 5E F7         [19] 1396 	ld	e, -9 (ix)
    000004A3 DD 56 F8         [19] 1397 	ld	d, -8 (ix)
    000004A6 21r7Er00         [10] 1398 	ld	hl, #_FieldMap
    000004A9 09               [11] 1399 	add	hl, bc
    000004AA 6E               [ 7] 1400 	ld	l, (hl)
                                   1401 ;	spillPairReg hl
    000004AB 26 00            [ 7] 1402 	ld	h, #0x00
                                   1403 ;	spillPairReg hl
                                   1404 ;	spillPairReg hl
    000004AD 4D               [ 4] 1405 	ld	c, l
    000004AE 7C               [ 4] 1406 	ld	a, h
    000004AF C6 03            [ 7] 1407 	add	a, #0x03
    000004B1 47               [ 4] 1408 	ld	b, a
                                   1409 ;E:/Dropbox/FAUSTO/SVILUPPI/MSX/CODE/C/MSXgl/engine/src/vdp_inl.h:105: g_VDP_Command.SX = sx;
    000004B2 21r00r00         [10] 1410 	ld	hl, #_g_VDP_Command
    000004B5 DD 7E F7         [19] 1411 	ld	a, -9 (ix)
    000004B8 77               [ 7] 1412 	ld	(hl), a
    000004B9 23               [ 6] 1413 	inc	hl
    000004BA DD 7E F8         [19] 1414 	ld	a, -8 (ix)
    000004BD 77               [ 7] 1415 	ld	(hl), a
                                   1416 ;E:/Dropbox/FAUSTO/SVILUPPI/MSX/CODE/C/MSXgl/engine/src/vdp_inl.h:106: g_VDP_Command.SY = sy;
    000004BE ED 43r02r00      [20] 1417 	ld	((_g_VDP_Command + 2)), bc
                                   1418 ;E:/Dropbox/FAUSTO/SVILUPPI/MSX/CODE/C/MSXgl/engine/src/vdp_inl.h:107: g_VDP_Command.DX = dx;
    000004C2 ED 53r04r00      [20] 1419 	ld	((_g_VDP_Command + 4)), de
                                   1420 ;E:/Dropbox/FAUSTO/SVILUPPI/MSX/CODE/C/MSXgl/engine/src/vdp_inl.h:108: g_VDP_Command.DY = dy;
    000004C6 21r06r00         [10] 1421 	ld	hl, #(_g_VDP_Command + 6)
    000004C9 DD 7E FC         [19] 1422 	ld	a, -4 (ix)
    000004CC 77               [ 7] 1423 	ld	(hl), a
    000004CD 23               [ 6] 1424 	inc	hl
    000004CE DD 7E FD         [19] 1425 	ld	a, -3 (ix)
    000004D1 77               [ 7] 1426 	ld	(hl), a
                                   1427 ;E:/Dropbox/FAUSTO/SVILUPPI/MSX/CODE/C/MSXgl/engine/src/vdp_inl.h:109: g_VDP_Command.NX = nx;
    000004D2 21 08 00         [10] 1428 	ld	hl, #0x0008
    000004D5 22r08r00         [16] 1429 	ld	((_g_VDP_Command + 8)), hl
                                   1430 ;E:/Dropbox/FAUSTO/SVILUPPI/MSX/CODE/C/MSXgl/engine/src/vdp_inl.h:110: g_VDP_Command.NY = ny;
    000004D8 21r0Ar00         [10] 1431 	ld	hl, #(_g_VDP_Command + 10)
    000004DB DD 7E FA         [19] 1432 	ld	a, -6 (ix)
    000004DE 77               [ 7] 1433 	ld	(hl), a
    000004DF 23               [ 6] 1434 	inc	hl
    000004E0 DD 7E FB         [19] 1435 	ld	a, -5 (ix)
    000004E3 77               [ 7] 1436 	ld	(hl), a
                                   1437 ;E:/Dropbox/FAUSTO/SVILUPPI/MSX/CODE/C/MSXgl/engine/src/vdp_inl.h:111: g_VDP_Command.ARG = arg; 
    000004E4 21r0Dr00         [10] 1438 	ld	hl, #(_g_VDP_Command + 13)
    000004E7 36 00            [10] 1439 	ld	(hl), #0x00
                                   1440 ;E:/Dropbox/FAUSTO/SVILUPPI/MSX/CODE/C/MSXgl/engine/src/vdp_inl.h:112: g_VDP_Command.CMD = VDP_CMD_HMMM;
    000004E9 21r0Er00         [10] 1441 	ld	hl, #(_g_VDP_Command + 14)
    000004EC 36 D0            [10] 1442 	ld	(hl), #0xd0
                                   1443 ;E:/Dropbox/FAUSTO/SVILUPPI/MSX/CODE/C/MSXgl/engine/src/vdp_inl.h:113: VPD_CommandSetupR32();
    000004EE CDr00r00         [17] 1444 	call	_VPD_CommandSetupR32
                                   1445 ;E:\Dropbox\FAUSTO\SVILUPPI\MSX\CODE\C\MSXgl\projects\soccerlgMSX2/soccerlg_s5_b3.c:41: VDP_CommandHMMM(px, FieldMap[((py)+t)&511]+768, px, page,            SCOREBOARD_NX_LEFT, SCOREBOARD_NY_LEFT-t);
    000004F1 DD 5E F9         [19] 1446 	ld	e, -7 (ix)
    000004F4 16 00            [ 7] 1447 	ld	d, #0x00
    000004F6 21 D4 00         [10] 1448 	ld	hl, #0x00d4
    000004F9 BF               [ 4] 1449 	cp	a, a
    000004FA ED 52            [15] 1450 	sbc	hl, de
    000004FC DD 75 FC         [19] 1451 	ld	-4 (ix), l
    000004FF DD 74 FD         [19] 1452 	ld	-3 (ix), h
    00000502 DD 4E 04         [19] 1453 	ld	c, 4 (ix)
    00000505 DD 46 05         [19] 1454 	ld	b, 5 (ix)
    00000508 DD 7E F5         [19] 1455 	ld	a, -11 (ix)
    0000050B 83               [ 4] 1456 	add	a, e
    0000050C 5F               [ 4] 1457 	ld	e, a
    0000050D DD 7E F6         [19] 1458 	ld	a, -10 (ix)
    00000510 8A               [ 4] 1459 	adc	a, d
    00000511 E6 01            [ 7] 1460 	and	a, #0x01
    00000513 57               [ 4] 1461 	ld	d, a
    00000514 21r7Er00         [10] 1462 	ld	hl, #_FieldMap
    00000517 19               [11] 1463 	add	hl, de
    00000518 6E               [ 7] 1464 	ld	l, (hl)
                                   1465 ;	spillPairReg hl
    00000519 26 00            [ 7] 1466 	ld	h, #0x00
                                   1467 ;	spillPairReg hl
                                   1468 ;	spillPairReg hl
    0000051B 5D               [ 4] 1469 	ld	e, l
    0000051C 7C               [ 4] 1470 	ld	a, h
    0000051D C6 03            [ 7] 1471 	add	a, #0x03
    0000051F 57               [ 4] 1472 	ld	d, a
                                   1473 ;E:/Dropbox/FAUSTO/SVILUPPI/MSX/CODE/C/MSXgl/engine/src/vdp_inl.h:105: g_VDP_Command.SX = sx;
    00000520 21r00r00         [10] 1474 	ld	hl, #_g_VDP_Command
    00000523 DD 7E F7         [19] 1475 	ld	a, -9 (ix)
    00000526 77               [ 7] 1476 	ld	(hl), a
    00000527 23               [ 6] 1477 	inc	hl
    00000528 DD 7E F8         [19] 1478 	ld	a, -8 (ix)
    0000052B 77               [ 7] 1479 	ld	(hl), a
                                   1480 ;E:/Dropbox/FAUSTO/SVILUPPI/MSX/CODE/C/MSXgl/engine/src/vdp_inl.h:106: g_VDP_Command.SY = sy;
    0000052C ED 53r02r00      [20] 1481 	ld	((_g_VDP_Command + 2)), de
                                   1482 ;E:/Dropbox/FAUSTO/SVILUPPI/MSX/CODE/C/MSXgl/engine/src/vdp_inl.h:107: g_VDP_Command.DX = dx;
    00000530 21r04r00         [10] 1483 	ld	hl, #(_g_VDP_Command + 4)
    00000533 DD 7E F7         [19] 1484 	ld	a, -9 (ix)
    00000536 77               [ 7] 1485 	ld	(hl), a
    00000537 23               [ 6] 1486 	inc	hl
    00000538 DD 7E F8         [19] 1487 	ld	a, -8 (ix)
    0000053B 77               [ 7] 1488 	ld	(hl), a
                                   1489 ;E:/Dropbox/FAUSTO/SVILUPPI/MSX/CODE/C/MSXgl/engine/src/vdp_inl.h:108: g_VDP_Command.DY = dy;
    0000053C ED 43r06r00      [20] 1490 	ld	((_g_VDP_Command + 6)), bc
                                   1491 ;E:/Dropbox/FAUSTO/SVILUPPI/MSX/CODE/C/MSXgl/engine/src/vdp_inl.h:109: g_VDP_Command.NX = nx;
    00000540 21 08 00         [10] 1492 	ld	hl, #0x0008
    00000543 22r08r00         [16] 1493 	ld	((_g_VDP_Command + 8)), hl
                                   1494 ;E:/Dropbox/FAUSTO/SVILUPPI/MSX/CODE/C/MSXgl/engine/src/vdp_inl.h:110: g_VDP_Command.NY = ny;
    00000546 21r0Ar00         [10] 1495 	ld	hl, #(_g_VDP_Command + 10)
    00000549 DD 7E FC         [19] 1496 	ld	a, -4 (ix)
    0000054C 77               [ 7] 1497 	ld	(hl), a
    0000054D 23               [ 6] 1498 	inc	hl
    0000054E DD 7E FD         [19] 1499 	ld	a, -3 (ix)
    00000551 77               [ 7] 1500 	ld	(hl), a
                                   1501 ;E:/Dropbox/FAUSTO/SVILUPPI/MSX/CODE/C/MSXgl/engine/src/vdp_inl.h:111: g_VDP_Command.ARG = arg; 
    00000552 21r0Dr00         [10] 1502 	ld	hl, #(_g_VDP_Command + 13)
    00000555 36 00            [10] 1503 	ld	(hl), #0x00
                                   1504 ;E:/Dropbox/FAUSTO/SVILUPPI/MSX/CODE/C/MSXgl/engine/src/vdp_inl.h:112: g_VDP_Command.CMD = VDP_CMD_HMMM;
    00000557 21r0Er00         [10] 1505 	ld	hl, #(_g_VDP_Command + 14)
    0000055A 36 D0            [10] 1506 	ld	(hl), #0xd0
                                   1507 ;E:/Dropbox/FAUSTO/SVILUPPI/MSX/CODE/C/MSXgl/engine/src/vdp_inl.h:113: VPD_CommandSetupR32();
    0000055C CDr00r00         [17] 1508 	call	_VPD_CommandSetupR32
                                   1509 ;E:\Dropbox\FAUSTO\SVILUPPI\MSX\CODE\C\MSXgl\projects\soccerlgMSX2/soccerlg_s5_b3.c:41: VDP_CommandHMMM(px, FieldMap[((py)+t)&511]+768, px, page,            SCOREBOARD_NX_LEFT, SCOREBOARD_NY_LEFT-t);
    0000055F C3rB2r05         [10] 1510 	jp	00110$
    00000562                       1511 00102$:
                                   1512 ;E:\Dropbox\FAUSTO\SVILUPPI\MSX\CODE\C\MSXgl\projects\soccerlgMSX2/soccerlg_s5_b3.c:44: VDP_CommandHMMM(px, FieldMap[(py)&511]+768, px, ((py)&255)+page, SCOREBOARD_NX_LEFT, SCOREBOARD_NY_LEFT);
    00000562 DD 7E F7         [19] 1513 	ld	a, -9 (ix)
    00000565 DD 77 FC         [19] 1514 	ld	-4 (ix), a
    00000568 DD 7E F8         [19] 1515 	ld	a, -8 (ix)
    0000056B DD 77 FD         [19] 1516 	ld	-3 (ix), a
    0000056E 21r7Er00         [10] 1517 	ld	hl, #_FieldMap+0
    00000571 09               [11] 1518 	add	hl, bc
    00000572 6E               [ 7] 1519 	ld	l, (hl)
                                   1520 ;	spillPairReg hl
    00000573 26 00            [ 7] 1521 	ld	h, #0x00
                                   1522 ;	spillPairReg hl
                                   1523 ;	spillPairReg hl
    00000575 4D               [ 4] 1524 	ld	c, l
    00000576 7C               [ 4] 1525 	ld	a, h
    00000577 C6 03            [ 7] 1526 	add	a, #0x03
    00000579 47               [ 4] 1527 	ld	b, a
                                   1528 ;E:/Dropbox/FAUSTO/SVILUPPI/MSX/CODE/C/MSXgl/engine/src/vdp_inl.h:105: g_VDP_Command.SX = sx;
    0000057A 21r00r00         [10] 1529 	ld	hl, #_g_VDP_Command
    0000057D DD 7E F7         [19] 1530 	ld	a, -9 (ix)
    00000580 77               [ 7] 1531 	ld	(hl), a
    00000581 23               [ 6] 1532 	inc	hl
    00000582 DD 7E F8         [19] 1533 	ld	a, -8 (ix)
    00000585 77               [ 7] 1534 	ld	(hl), a
                                   1535 ;E:/Dropbox/FAUSTO/SVILUPPI/MSX/CODE/C/MSXgl/engine/src/vdp_inl.h:106: g_VDP_Command.SY = sy;
    00000586 ED 43r02r00      [20] 1536 	ld	((_g_VDP_Command + 2)), bc
                                   1537 ;E:/Dropbox/FAUSTO/SVILUPPI/MSX/CODE/C/MSXgl/engine/src/vdp_inl.h:107: g_VDP_Command.DX = dx;
    0000058A 21r04r00         [10] 1538 	ld	hl, #(_g_VDP_Command + 4)
    0000058D DD 7E FC         [19] 1539 	ld	a, -4 (ix)
    00000590 77               [ 7] 1540 	ld	(hl), a
    00000591 23               [ 6] 1541 	inc	hl
    00000592 DD 7E FD         [19] 1542 	ld	a, -3 (ix)
    00000595 77               [ 7] 1543 	ld	(hl), a
                                   1544 ;E:/Dropbox/FAUSTO/SVILUPPI/MSX/CODE/C/MSXgl/engine/src/vdp_inl.h:108: g_VDP_Command.DY = dy;
    00000596 ED 53r06r00      [20] 1545 	ld	((_g_VDP_Command + 6)), de
                                   1546 ;E:/Dropbox/FAUSTO/SVILUPPI/MSX/CODE/C/MSXgl/engine/src/vdp_inl.h:109: g_VDP_Command.NX = nx;
    0000059A 21 08 00         [10] 1547 	ld	hl, #0x0008
    0000059D 22r08r00         [16] 1548 	ld	((_g_VDP_Command + 8)), hl
                                   1549 ;E:/Dropbox/FAUSTO/SVILUPPI/MSX/CODE/C/MSXgl/engine/src/vdp_inl.h:110: g_VDP_Command.NY = ny;
    000005A0 2E D4            [ 7] 1550 	ld	l, #0xd4
    000005A2 22r0Ar00         [16] 1551 	ld	((_g_VDP_Command + 10)), hl
                                   1552 ;E:/Dropbox/FAUSTO/SVILUPPI/MSX/CODE/C/MSXgl/engine/src/vdp_inl.h:111: g_VDP_Command.ARG = arg; 
    000005A5 21r0Dr00         [10] 1553 	ld	hl, #(_g_VDP_Command + 13)
    000005A8 36 00            [10] 1554 	ld	(hl), #0x00
                                   1555 ;E:/Dropbox/FAUSTO/SVILUPPI/MSX/CODE/C/MSXgl/engine/src/vdp_inl.h:112: g_VDP_Command.CMD = VDP_CMD_HMMM;
    000005AA 21r0Er00         [10] 1556 	ld	hl, #(_g_VDP_Command + 14)
    000005AD 36 D0            [10] 1557 	ld	(hl), #0xd0
                                   1558 ;E:/Dropbox/FAUSTO/SVILUPPI/MSX/CODE/C/MSXgl/engine/src/vdp_inl.h:113: VPD_CommandSetupR32();
    000005AF CDr00r00         [17] 1559 	call	_VPD_CommandSetupR32
                                   1560 ;E:\Dropbox\FAUSTO\SVILUPPI\MSX\CODE\C\MSXgl\projects\soccerlgMSX2/soccerlg_s5_b3.c:44: VDP_CommandHMMM(px, FieldMap[(py)&511]+768, px, ((py)&255)+page, SCOREBOARD_NX_LEFT, SCOREBOARD_NY_LEFT);
    000005B2                       1561 00110$:
                                   1562 ;E:\Dropbox\FAUSTO\SVILUPPI\MSX\CODE\C\MSXgl\projects\soccerlgMSX2/soccerlg_s5_b3.c:45: }
    000005B2 DD F9            [10] 1563 	ld	sp, ix
    000005B4 DD E1            [14] 1564 	pop	ix
    000005B6 E1               [10] 1565 	pop	hl
    000005B7 F1               [10] 1566 	pop	af
    000005B8 E9               [ 4] 1567 	jp	(hl)
                                   1568 ;E:\Dropbox\FAUSTO\SVILUPPI\MSX\CODE\C\MSXgl\projects\soccerlgMSX2/soccerlg_s5_b3.c:47: void PrintScoreBoardLeft(u8 px,u16 py,u16 page)
                                   1569 ;	---------------------------------
                                   1570 ; Function PrintScoreBoardLeft
                                   1571 ; ---------------------------------
    000005B9                       1572 _PrintScoreBoardLeft::
    000005B9 DD E5            [15] 1573 	push	ix
    000005BB DD 21 00 00      [14] 1574 	ld	ix,#0
    000005BF DD 39            [15] 1575 	add	ix,sp
    000005C1 21 F9 FF         [10] 1576 	ld	hl, #-7
    000005C4 39               [11] 1577 	add	hl, sp
    000005C5 F9               [ 6] 1578 	ld	sp, hl
    000005C6 4F               [ 4] 1579 	ld	c, a
    000005C7 DD 73 FE         [19] 1580 	ld	-2 (ix), e
    000005CA DD 72 FF         [19] 1581 	ld	-1 (ix), d
                                   1582 ;E:\Dropbox\FAUSTO\SVILUPPI\MSX\CODE\C\MSXgl\projects\soccerlgMSX2/soccerlg_s5_b3.c:49: if (((py&255)>256-SCOREBOARD_NY_LEFT) ) 
    000005CD DD 7E FE         [19] 1583 	ld	a, -2 (ix)
    000005D0 DD 77 FC         [19] 1584 	ld	-4 (ix), a
    000005D3 DD 36 FD 00      [19] 1585 	ld	-3 (ix), #0x00
                                   1586 ;E:\Dropbox\FAUSTO\SVILUPPI\MSX\CODE\C\MSXgl\projects\soccerlgMSX2/soccerlg_s5_b3.c:52: VDP_CommandHMMM(0, 768,   px, ((py)&255)+page, SCOREBOARD_NX_LEFT, t);
    000005D7 06 00            [ 7] 1587 	ld	b, #0x00
    000005D9 DD 7E FC         [19] 1588 	ld	a, -4 (ix)
    000005DC DD 56 FD         [19] 1589 	ld	d, -3 (ix)
    000005DF DD 86 04         [19] 1590 	add	a, 4 (ix)
    000005E2 5F               [ 4] 1591 	ld	e, a
    000005E3 7A               [ 4] 1592 	ld	a, d
    000005E4 DD 8E 05         [19] 1593 	adc	a, 5 (ix)
    000005E7 57               [ 4] 1594 	ld	d, a
                                   1595 ;E:\Dropbox\FAUSTO\SVILUPPI\MSX\CODE\C\MSXgl\projects\soccerlgMSX2/soccerlg_s5_b3.c:49: if (((py&255)>256-SCOREBOARD_NY_LEFT) ) 
    000005E8 3E 2C            [ 7] 1596 	ld	a, #0x2c
    000005EA DD BE FC         [19] 1597 	cp	a, -4 (ix)
    000005ED 3E 00            [ 7] 1598 	ld	a, #0x00
    000005EF DD 9E FD         [19] 1599 	sbc	a, -3 (ix)
    000005F2 D2rA2r06         [10] 1600 	jp	NC, 00102$
                                   1601 ;E:\Dropbox\FAUSTO\SVILUPPI\MSX\CODE\C\MSXgl\projects\soccerlgMSX2/soccerlg_s5_b3.c:51: u8 t = 256 - (py & 255) ;
    000005F5 DD 7E FE         [19] 1602 	ld	a, -2 (ix)
    000005F8 ED 44            [ 8] 1603 	neg
                                   1604 ;E:\Dropbox\FAUSTO\SVILUPPI\MSX\CODE\C\MSXgl\projects\soccerlgMSX2/soccerlg_s5_b3.c:52: VDP_CommandHMMM(0, 768,   px, ((py)&255)+page, SCOREBOARD_NX_LEFT, t);
    000005FA DD 77 F9         [19] 1605 	ld	-7 (ix), a
    000005FD DD 77 FA         [19] 1606 	ld	-6 (ix), a
    00000600 DD 36 FB 00      [19] 1607 	ld	-5 (ix), #0x00
    00000604 DD 71 FC         [19] 1608 	ld	-4 (ix), c
    00000607 DD 70 FD         [19] 1609 	ld	-3 (ix), b
                                   1610 ;E:/Dropbox/FAUSTO/SVILUPPI/MSX/CODE/C/MSXgl/engine/src/vdp_inl.h:105: g_VDP_Command.SX = sx;
    0000060A 21 00 00         [10] 1611 	ld	hl, #0x0000
    0000060D 22r00r00         [16] 1612 	ld	(_g_VDP_Command), hl
                                   1613 ;E:/Dropbox/FAUSTO/SVILUPPI/MSX/CODE/C/MSXgl/engine/src/vdp_inl.h:106: g_VDP_Command.SY = sy;
    00000610 26 03            [ 7] 1614 	ld	h, #0x03
    00000612 22r02r00         [16] 1615 	ld	((_g_VDP_Command + 2)), hl
                                   1616 ;E:/Dropbox/FAUSTO/SVILUPPI/MSX/CODE/C/MSXgl/engine/src/vdp_inl.h:107: g_VDP_Command.DX = dx;
    00000615 21r04r00         [10] 1617 	ld	hl, #(_g_VDP_Command + 4)
    00000618 DD 7E FC         [19] 1618 	ld	a, -4 (ix)
    0000061B 77               [ 7] 1619 	ld	(hl), a
    0000061C 23               [ 6] 1620 	inc	hl
    0000061D DD 7E FD         [19] 1621 	ld	a, -3 (ix)
    00000620 77               [ 7] 1622 	ld	(hl), a
                                   1623 ;E:/Dropbox/FAUSTO/SVILUPPI/MSX/CODE/C/MSXgl/engine/src/vdp_inl.h:108: g_VDP_Command.DY = dy;
    00000621 ED 53r06r00      [20] 1624 	ld	((_g_VDP_Command + 6)), de
                                   1625 ;E:/Dropbox/FAUSTO/SVILUPPI/MSX/CODE/C/MSXgl/engine/src/vdp_inl.h:109: g_VDP_Command.NX = nx;
    00000625 21 08 00         [10] 1626 	ld	hl, #0x0008
    00000628 22r08r00         [16] 1627 	ld	((_g_VDP_Command + 8)), hl
                                   1628 ;E:/Dropbox/FAUSTO/SVILUPPI/MSX/CODE/C/MSXgl/engine/src/vdp_inl.h:110: g_VDP_Command.NY = ny;
    0000062B 21r0Ar00         [10] 1629 	ld	hl, #(_g_VDP_Command + 10)
    0000062E DD 7E FA         [19] 1630 	ld	a, -6 (ix)
    00000631 77               [ 7] 1631 	ld	(hl), a
    00000632 23               [ 6] 1632 	inc	hl
    00000633 DD 7E FB         [19] 1633 	ld	a, -5 (ix)
    00000636 77               [ 7] 1634 	ld	(hl), a
                                   1635 ;E:/Dropbox/FAUSTO/SVILUPPI/MSX/CODE/C/MSXgl/engine/src/vdp_inl.h:111: g_VDP_Command.ARG = arg; 
    00000637 21r0Dr00         [10] 1636 	ld	hl, #(_g_VDP_Command + 13)
    0000063A 36 00            [10] 1637 	ld	(hl), #0x00
                                   1638 ;E:/Dropbox/FAUSTO/SVILUPPI/MSX/CODE/C/MSXgl/engine/src/vdp_inl.h:112: g_VDP_Command.CMD = VDP_CMD_HMMM;
    0000063C 21r0Er00         [10] 1639 	ld	hl, #(_g_VDP_Command + 14)
    0000063F 36 D0            [10] 1640 	ld	(hl), #0xd0
                                   1641 ;E:/Dropbox/FAUSTO/SVILUPPI/MSX/CODE/C/MSXgl/engine/src/vdp_inl.h:113: VPD_CommandSetupR32();
    00000641 C5               [11] 1642 	push	bc
    00000642 CDr00r00         [17] 1643 	call	_VPD_CommandSetupR32
    00000645 C1               [10] 1644 	pop	bc
                                   1645 ;E:\Dropbox\FAUSTO\SVILUPPI\MSX\CODE\C\MSXgl\projects\soccerlgMSX2/soccerlg_s5_b3.c:53: VDP_CommandHMMM(0, 768+t, px, page,            SCOREBOARD_NX_LEFT, SCOREBOARD_NY_LEFT-t);
    00000646 DD 6E F9         [19] 1646 	ld	l, -7 (ix)
                                   1647 ;	spillPairReg hl
                                   1648 ;	spillPairReg hl
    00000649 26 00            [ 7] 1649 	ld	h, #0x00
                                   1650 ;	spillPairReg hl
                                   1651 ;	spillPairReg hl
    0000064B 3E D4            [ 7] 1652 	ld	a, #0xd4
    0000064D 95               [ 4] 1653 	sub	a, l
    0000064E 5F               [ 4] 1654 	ld	e, a
    0000064F 9F               [ 4] 1655 	sbc	a, a
    00000650 94               [ 4] 1656 	sub	a, h
    00000651 DD 73 FA         [19] 1657 	ld	-6 (ix), e
    00000654 DD 77 FB         [19] 1658 	ld	-5 (ix), a
    00000657 DD 5E 04         [19] 1659 	ld	e, 4 (ix)
    0000065A DD 56 05         [19] 1660 	ld	d, 5 (ix)
    0000065D 7C               [ 4] 1661 	ld	a, h
    0000065E C6 03            [ 7] 1662 	add	a, #0x03
    00000660 DD 75 FC         [19] 1663 	ld	-4 (ix), l
    00000663 DD 77 FD         [19] 1664 	ld	-3 (ix), a
                                   1665 ;E:/Dropbox/FAUSTO/SVILUPPI/MSX/CODE/C/MSXgl/engine/src/vdp_inl.h:105: g_VDP_Command.SX = sx;
    00000666 21 00 00         [10] 1666 	ld	hl, #0x0000
    00000669 22r00r00         [16] 1667 	ld	(_g_VDP_Command), hl
                                   1668 ;E:/Dropbox/FAUSTO/SVILUPPI/MSX/CODE/C/MSXgl/engine/src/vdp_inl.h:106: g_VDP_Command.SY = sy;
    0000066C 21r02r00         [10] 1669 	ld	hl, #(_g_VDP_Command + 2)
    0000066F DD 7E FC         [19] 1670 	ld	a, -4 (ix)
    00000672 77               [ 7] 1671 	ld	(hl), a
    00000673 23               [ 6] 1672 	inc	hl
    00000674 DD 7E FD         [19] 1673 	ld	a, -3 (ix)
    00000677 77               [ 7] 1674 	ld	(hl), a
                                   1675 ;E:/Dropbox/FAUSTO/SVILUPPI/MSX/CODE/C/MSXgl/engine/src/vdp_inl.h:107: g_VDP_Command.DX = dx;
    00000678 ED 43r04r00      [20] 1676 	ld	((_g_VDP_Command + 4)), bc
                                   1677 ;E:/Dropbox/FAUSTO/SVILUPPI/MSX/CODE/C/MSXgl/engine/src/vdp_inl.h:108: g_VDP_Command.DY = dy;
    0000067C ED 53r06r00      [20] 1678 	ld	((_g_VDP_Command + 6)), de
                                   1679 ;E:/Dropbox/FAUSTO/SVILUPPI/MSX/CODE/C/MSXgl/engine/src/vdp_inl.h:109: g_VDP_Command.NX = nx;
    00000680 21 08 00         [10] 1680 	ld	hl, #0x0008
    00000683 22r08r00         [16] 1681 	ld	((_g_VDP_Command + 8)), hl
                                   1682 ;E:/Dropbox/FAUSTO/SVILUPPI/MSX/CODE/C/MSXgl/engine/src/vdp_inl.h:110: g_VDP_Command.NY = ny;
    00000686 21r0Ar00         [10] 1683 	ld	hl, #(_g_VDP_Command + 10)
    00000689 DD 7E FA         [19] 1684 	ld	a, -6 (ix)
    0000068C 77               [ 7] 1685 	ld	(hl), a
    0000068D 23               [ 6] 1686 	inc	hl
    0000068E DD 7E FB         [19] 1687 	ld	a, -5 (ix)
    00000691 77               [ 7] 1688 	ld	(hl), a
                                   1689 ;E:/Dropbox/FAUSTO/SVILUPPI/MSX/CODE/C/MSXgl/engine/src/vdp_inl.h:111: g_VDP_Command.ARG = arg; 
    00000692 21r0Dr00         [10] 1690 	ld	hl, #(_g_VDP_Command + 13)
    00000695 36 00            [10] 1691 	ld	(hl), #0x00
                                   1692 ;E:/Dropbox/FAUSTO/SVILUPPI/MSX/CODE/C/MSXgl/engine/src/vdp_inl.h:112: g_VDP_Command.CMD = VDP_CMD_HMMM;
    00000697 21r0Er00         [10] 1693 	ld	hl, #(_g_VDP_Command + 14)
    0000069A 36 D0            [10] 1694 	ld	(hl), #0xd0
                                   1695 ;E:/Dropbox/FAUSTO/SVILUPPI/MSX/CODE/C/MSXgl/engine/src/vdp_inl.h:113: VPD_CommandSetupR32();
    0000069C CDr00r00         [17] 1696 	call	_VPD_CommandSetupR32
                                   1697 ;E:\Dropbox\FAUSTO\SVILUPPI\MSX\CODE\C\MSXgl\projects\soccerlgMSX2/soccerlg_s5_b3.c:53: VDP_CommandHMMM(0, 768+t, px, page,            SCOREBOARD_NX_LEFT, SCOREBOARD_NY_LEFT-t);
    0000069F C3rCDr06         [10] 1698 	jp	00110$
    000006A2                       1699 00102$:
                                   1700 ;E:\Dropbox\FAUSTO\SVILUPPI\MSX\CODE\C\MSXgl\projects\soccerlgMSX2/soccerlg_s5_b3.c:56: VDP_CommandHMMM(0, 768, px, ((py)&255)+page, SCOREBOARD_NX_LEFT, SCOREBOARD_NY_LEFT);
                                   1701 ;E:/Dropbox/FAUSTO/SVILUPPI/MSX/CODE/C/MSXgl/engine/src/vdp_inl.h:105: g_VDP_Command.SX = sx;
    000006A2 21 00 00         [10] 1702 	ld	hl, #0x0000
    000006A5 22r00r00         [16] 1703 	ld	(_g_VDP_Command), hl
                                   1704 ;E:/Dropbox/FAUSTO/SVILUPPI/MSX/CODE/C/MSXgl/engine/src/vdp_inl.h:106: g_VDP_Command.SY = sy;
    000006A8 26 03            [ 7] 1705 	ld	h, #0x03
    000006AA 22r02r00         [16] 1706 	ld	((_g_VDP_Command + 2)), hl
                                   1707 ;E:/Dropbox/FAUSTO/SVILUPPI/MSX/CODE/C/MSXgl/engine/src/vdp_inl.h:107: g_VDP_Command.DX = dx;
    000006AD ED 43r04r00      [20] 1708 	ld	((_g_VDP_Command + 4)), bc
                                   1709 ;E:/Dropbox/FAUSTO/SVILUPPI/MSX/CODE/C/MSXgl/engine/src/vdp_inl.h:108: g_VDP_Command.DY = dy;
    000006B1 ED 53r06r00      [20] 1710 	ld	((_g_VDP_Command + 6)), de
                                   1711 ;E:/Dropbox/FAUSTO/SVILUPPI/MSX/CODE/C/MSXgl/engine/src/vdp_inl.h:109: g_VDP_Command.NX = nx;
    000006B5 21 08 00         [10] 1712 	ld	hl, #0x0008
    000006B8 22r08r00         [16] 1713 	ld	((_g_VDP_Command + 8)), hl
                                   1714 ;E:/Dropbox/FAUSTO/SVILUPPI/MSX/CODE/C/MSXgl/engine/src/vdp_inl.h:110: g_VDP_Command.NY = ny;
    000006BB 2E D4            [ 7] 1715 	ld	l, #0xd4
    000006BD 22r0Ar00         [16] 1716 	ld	((_g_VDP_Command + 10)), hl
                                   1717 ;E:/Dropbox/FAUSTO/SVILUPPI/MSX/CODE/C/MSXgl/engine/src/vdp_inl.h:111: g_VDP_Command.ARG = arg; 
    000006C0 21r0Dr00         [10] 1718 	ld	hl, #(_g_VDP_Command + 13)
    000006C3 36 00            [10] 1719 	ld	(hl), #0x00
                                   1720 ;E:/Dropbox/FAUSTO/SVILUPPI/MSX/CODE/C/MSXgl/engine/src/vdp_inl.h:112: g_VDP_Command.CMD = VDP_CMD_HMMM;
    000006C5 21r0Er00         [10] 1721 	ld	hl, #(_g_VDP_Command + 14)
    000006C8 36 D0            [10] 1722 	ld	(hl), #0xd0
                                   1723 ;E:/Dropbox/FAUSTO/SVILUPPI/MSX/CODE/C/MSXgl/engine/src/vdp_inl.h:113: VPD_CommandSetupR32();
    000006CA CDr00r00         [17] 1724 	call	_VPD_CommandSetupR32
                                   1725 ;E:\Dropbox\FAUSTO\SVILUPPI\MSX\CODE\C\MSXgl\projects\soccerlgMSX2/soccerlg_s5_b3.c:56: VDP_CommandHMMM(0, 768, px, ((py)&255)+page, SCOREBOARD_NX_LEFT, SCOREBOARD_NY_LEFT);
    000006CD                       1726 00110$:
                                   1727 ;E:\Dropbox\FAUSTO\SVILUPPI\MSX\CODE\C\MSXgl\projects\soccerlgMSX2/soccerlg_s5_b3.c:57: }
    000006CD DD F9            [10] 1728 	ld	sp, ix
    000006CF DD E1            [14] 1729 	pop	ix
    000006D1 E1               [10] 1730 	pop	hl
    000006D2 F1               [10] 1731 	pop	af
    000006D3 E9               [ 4] 1732 	jp	(hl)
                                   1733 ;E:\Dropbox\FAUSTO\SVILUPPI\MSX\CODE\C\MSXgl\projects\soccerlgMSX2/soccerlg_s5_b3.c:59: void RemoveScoreBoardRight(u8 px,u16 py,u16 page)
                                   1734 ;	---------------------------------
                                   1735 ; Function RemoveScoreBoardRight
                                   1736 ; ---------------------------------
    000006D4                       1737 _RemoveScoreBoardRight::
    000006D4 DD E5            [15] 1738 	push	ix
    000006D6 DD 21 00 00      [14] 1739 	ld	ix,#0
    000006DA DD 39            [15] 1740 	add	ix,sp
    000006DC 21 F5 FF         [10] 1741 	ld	hl, #-11
    000006DF 39               [11] 1742 	add	hl, sp
    000006E0 F9               [ 6] 1743 	ld	sp, hl
    000006E1 4F               [ 4] 1744 	ld	c, a
    000006E2 DD 73 FE         [19] 1745 	ld	-2 (ix), e
    000006E5 DD 72 FF         [19] 1746 	ld	-1 (ix), d
                                   1747 ;E:\Dropbox\FAUSTO\SVILUPPI\MSX\CODE\C\MSXgl\projects\soccerlgMSX2/soccerlg_s5_b3.c:61: if (((py&255)>256-SCOREBOARD_NY_RIGHT) ) 
    000006E8 DD 7E FE         [19] 1748 	ld	a, -2 (ix)
    000006EB DD 77 F5         [19] 1749 	ld	-11 (ix), a
    000006EE DD 7E FF         [19] 1750 	ld	a, -1 (ix)
    000006F1 DD 77 F6         [19] 1751 	ld	-10 (ix), a
    000006F4 DD 7E F5         [19] 1752 	ld	a, -11 (ix)
    000006F7 DD 77 FC         [19] 1753 	ld	-4 (ix), a
    000006FA DD 36 FD 00      [19] 1754 	ld	-3 (ix), #0x00
                                   1755 ;E:\Dropbox\FAUSTO\SVILUPPI\MSX\CODE\C\MSXgl\projects\soccerlgMSX2/soccerlg_s5_b3.c:64: VDP_CommandHMMM(px, FieldMap[(py)&511]+768,   px, ((py)&255)+page, SCOREBOARD_NX_RIGHT, t);
    000006FE DD 71 F7         [19] 1756 	ld	-9 (ix), c
    00000701 DD 36 F8 00      [19] 1757 	ld	-8 (ix), #0x00
    00000705 DD 4E F5         [19] 1758 	ld	c, -11 (ix)
    00000708 DD 7E F6         [19] 1759 	ld	a, -10 (ix)
    0000070B E6 01            [ 7] 1760 	and	a, #0x01
    0000070D 47               [ 4] 1761 	ld	b, a
    0000070E DD 7E FC         [19] 1762 	ld	a, -4 (ix)
    00000711 DD 56 FD         [19] 1763 	ld	d, -3 (ix)
    00000714 DD 86 04         [19] 1764 	add	a, 4 (ix)
    00000717 5F               [ 4] 1765 	ld	e, a
    00000718 7A               [ 4] 1766 	ld	a, d
    00000719 DD 8E 05         [19] 1767 	adc	a, 5 (ix)
    0000071C 57               [ 4] 1768 	ld	d, a
                                   1769 ;E:\Dropbox\FAUSTO\SVILUPPI\MSX\CODE\C\MSXgl\projects\soccerlgMSX2/soccerlg_s5_b3.c:61: if (((py&255)>256-SCOREBOARD_NY_RIGHT) ) 
    0000071D 3E 2C            [ 7] 1770 	ld	a, #0x2c
    0000071F DD BE FC         [19] 1771 	cp	a, -4 (ix)
    00000722 3E 00            [ 7] 1772 	ld	a, #0x00
    00000724 DD 9E FD         [19] 1773 	sbc	a, -3 (ix)
    00000727 D2r01r08         [10] 1774 	jp	NC, 00102$
                                   1775 ;E:\Dropbox\FAUSTO\SVILUPPI\MSX\CODE\C\MSXgl\projects\soccerlgMSX2/soccerlg_s5_b3.c:63: u8 t = 256 - (py & 255) ;
    0000072A DD 7E FE         [19] 1776 	ld	a, -2 (ix)
    0000072D ED 44            [ 8] 1777 	neg
                                   1778 ;E:\Dropbox\FAUSTO\SVILUPPI\MSX\CODE\C\MSXgl\projects\soccerlgMSX2/soccerlg_s5_b3.c:64: VDP_CommandHMMM(px, FieldMap[(py)&511]+768,   px, ((py)&255)+page, SCOREBOARD_NX_RIGHT, t);
    0000072F DD 77 F9         [19] 1779 	ld	-7 (ix), a
    00000732 DD 77 FA         [19] 1780 	ld	-6 (ix), a
    00000735 DD 36 FB 00      [19] 1781 	ld	-5 (ix), #0x00
    00000739 DD 73 FC         [19] 1782 	ld	-4 (ix), e
    0000073C DD 72 FD         [19] 1783 	ld	-3 (ix), d
    0000073F DD 5E F7         [19] 1784 	ld	e, -9 (ix)
    00000742 DD 56 F8         [19] 1785 	ld	d, -8 (ix)
    00000745 21r7Er00         [10] 1786 	ld	hl, #_FieldMap
    00000748 09               [11] 1787 	add	hl, bc
    00000749 6E               [ 7] 1788 	ld	l, (hl)
                                   1789 ;	spillPairReg hl
    0000074A 26 00            [ 7] 1790 	ld	h, #0x00
                                   1791 ;	spillPairReg hl
                                   1792 ;	spillPairReg hl
    0000074C 4D               [ 4] 1793 	ld	c, l
    0000074D 7C               [ 4] 1794 	ld	a, h
    0000074E C6 03            [ 7] 1795 	add	a, #0x03
    00000750 47               [ 4] 1796 	ld	b, a
                                   1797 ;E:/Dropbox/FAUSTO/SVILUPPI/MSX/CODE/C/MSXgl/engine/src/vdp_inl.h:105: g_VDP_Command.SX = sx;
    00000751 21r00r00         [10] 1798 	ld	hl, #_g_VDP_Command
    00000754 DD 7E F7         [19] 1799 	ld	a, -9 (ix)
    00000757 77               [ 7] 1800 	ld	(hl), a
    00000758 23               [ 6] 1801 	inc	hl
    00000759 DD 7E F8         [19] 1802 	ld	a, -8 (ix)
    0000075C 77               [ 7] 1803 	ld	(hl), a
                                   1804 ;E:/Dropbox/FAUSTO/SVILUPPI/MSX/CODE/C/MSXgl/engine/src/vdp_inl.h:106: g_VDP_Command.SY = sy;
    0000075D ED 43r02r00      [20] 1805 	ld	((_g_VDP_Command + 2)), bc
                                   1806 ;E:/Dropbox/FAUSTO/SVILUPPI/MSX/CODE/C/MSXgl/engine/src/vdp_inl.h:107: g_VDP_Command.DX = dx;
    00000761 ED 53r04r00      [20] 1807 	ld	((_g_VDP_Command + 4)), de
                                   1808 ;E:/Dropbox/FAUSTO/SVILUPPI/MSX/CODE/C/MSXgl/engine/src/vdp_inl.h:108: g_VDP_Command.DY = dy;
    00000765 21r06r00         [10] 1809 	ld	hl, #(_g_VDP_Command + 6)
    00000768 DD 7E FC         [19] 1810 	ld	a, -4 (ix)
    0000076B 77               [ 7] 1811 	ld	(hl), a
    0000076C 23               [ 6] 1812 	inc	hl
    0000076D DD 7E FD         [19] 1813 	ld	a, -3 (ix)
    00000770 77               [ 7] 1814 	ld	(hl), a
                                   1815 ;E:/Dropbox/FAUSTO/SVILUPPI/MSX/CODE/C/MSXgl/engine/src/vdp_inl.h:109: g_VDP_Command.NX = nx;
    00000771 21 08 00         [10] 1816 	ld	hl, #0x0008
    00000774 22r08r00         [16] 1817 	ld	((_g_VDP_Command + 8)), hl
                                   1818 ;E:/Dropbox/FAUSTO/SVILUPPI/MSX/CODE/C/MSXgl/engine/src/vdp_inl.h:110: g_VDP_Command.NY = ny;
    00000777 21r0Ar00         [10] 1819 	ld	hl, #(_g_VDP_Command + 10)
    0000077A DD 7E FA         [19] 1820 	ld	a, -6 (ix)
    0000077D 77               [ 7] 1821 	ld	(hl), a
    0000077E 23               [ 6] 1822 	inc	hl
    0000077F DD 7E FB         [19] 1823 	ld	a, -5 (ix)
    00000782 77               [ 7] 1824 	ld	(hl), a
                                   1825 ;E:/Dropbox/FAUSTO/SVILUPPI/MSX/CODE/C/MSXgl/engine/src/vdp_inl.h:111: g_VDP_Command.ARG = arg; 
    00000783 21r0Dr00         [10] 1826 	ld	hl, #(_g_VDP_Command + 13)
    00000786 36 00            [10] 1827 	ld	(hl), #0x00
                                   1828 ;E:/Dropbox/FAUSTO/SVILUPPI/MSX/CODE/C/MSXgl/engine/src/vdp_inl.h:112: g_VDP_Command.CMD = VDP_CMD_HMMM;
    00000788 21r0Er00         [10] 1829 	ld	hl, #(_g_VDP_Command + 14)
    0000078B 36 D0            [10] 1830 	ld	(hl), #0xd0
                                   1831 ;E:/Dropbox/FAUSTO/SVILUPPI/MSX/CODE/C/MSXgl/engine/src/vdp_inl.h:113: VPD_CommandSetupR32();
    0000078D CDr00r00         [17] 1832 	call	_VPD_CommandSetupR32
                                   1833 ;E:\Dropbox\FAUSTO\SVILUPPI\MSX\CODE\C\MSXgl\projects\soccerlgMSX2/soccerlg_s5_b3.c:65: VDP_CommandHMMM(px, FieldMap[((py)+t)&511]+768, px, page,            SCOREBOARD_NX_RIGHT, SCOREBOARD_NY_RIGHT-t);
    00000790 DD 5E F9         [19] 1834 	ld	e, -7 (ix)
    00000793 16 00            [ 7] 1835 	ld	d, #0x00
    00000795 21 D4 00         [10] 1836 	ld	hl, #0x00d4
    00000798 BF               [ 4] 1837 	cp	a, a
    00000799 ED 52            [15] 1838 	sbc	hl, de
    0000079B DD 75 FC         [19] 1839 	ld	-4 (ix), l
    0000079E DD 74 FD         [19] 1840 	ld	-3 (ix), h
    000007A1 DD 4E 04         [19] 1841 	ld	c, 4 (ix)
    000007A4 DD 46 05         [19] 1842 	ld	b, 5 (ix)
    000007A7 DD 7E F5         [19] 1843 	ld	a, -11 (ix)
    000007AA 83               [ 4] 1844 	add	a, e
    000007AB 5F               [ 4] 1845 	ld	e, a
    000007AC DD 7E F6         [19] 1846 	ld	a, -10 (ix)
    000007AF 8A               [ 4] 1847 	adc	a, d
    000007B0 E6 01            [ 7] 1848 	and	a, #0x01
    000007B2 57               [ 4] 1849 	ld	d, a
    000007B3 21r7Er00         [10] 1850 	ld	hl, #_FieldMap
    000007B6 19               [11] 1851 	add	hl, de
    000007B7 6E               [ 7] 1852 	ld	l, (hl)
                                   1853 ;	spillPairReg hl
    000007B8 26 00            [ 7] 1854 	ld	h, #0x00
                                   1855 ;	spillPairReg hl
                                   1856 ;	spillPairReg hl
    000007BA 5D               [ 4] 1857 	ld	e, l
    000007BB 7C               [ 4] 1858 	ld	a, h
    000007BC C6 03            [ 7] 1859 	add	a, #0x03
    000007BE 57               [ 4] 1860 	ld	d, a
                                   1861 ;E:/Dropbox/FAUSTO/SVILUPPI/MSX/CODE/C/MSXgl/engine/src/vdp_inl.h:105: g_VDP_Command.SX = sx;
    000007BF 21r00r00         [10] 1862 	ld	hl, #_g_VDP_Command
    000007C2 DD 7E F7         [19] 1863 	ld	a, -9 (ix)
    000007C5 77               [ 7] 1864 	ld	(hl), a
    000007C6 23               [ 6] 1865 	inc	hl
    000007C7 DD 7E F8         [19] 1866 	ld	a, -8 (ix)
    000007CA 77               [ 7] 1867 	ld	(hl), a
                                   1868 ;E:/Dropbox/FAUSTO/SVILUPPI/MSX/CODE/C/MSXgl/engine/src/vdp_inl.h:106: g_VDP_Command.SY = sy;
    000007CB ED 53r02r00      [20] 1869 	ld	((_g_VDP_Command + 2)), de
                                   1870 ;E:/Dropbox/FAUSTO/SVILUPPI/MSX/CODE/C/MSXgl/engine/src/vdp_inl.h:107: g_VDP_Command.DX = dx;
    000007CF 21r04r00         [10] 1871 	ld	hl, #(_g_VDP_Command + 4)
    000007D2 DD 7E F7         [19] 1872 	ld	a, -9 (ix)
    000007D5 77               [ 7] 1873 	ld	(hl), a
    000007D6 23               [ 6] 1874 	inc	hl
    000007D7 DD 7E F8         [19] 1875 	ld	a, -8 (ix)
    000007DA 77               [ 7] 1876 	ld	(hl), a
                                   1877 ;E:/Dropbox/FAUSTO/SVILUPPI/MSX/CODE/C/MSXgl/engine/src/vdp_inl.h:108: g_VDP_Command.DY = dy;
    000007DB ED 43r06r00      [20] 1878 	ld	((_g_VDP_Command + 6)), bc
                                   1879 ;E:/Dropbox/FAUSTO/SVILUPPI/MSX/CODE/C/MSXgl/engine/src/vdp_inl.h:109: g_VDP_Command.NX = nx;
    000007DF 21 08 00         [10] 1880 	ld	hl, #0x0008
    000007E2 22r08r00         [16] 1881 	ld	((_g_VDP_Command + 8)), hl
                                   1882 ;E:/Dropbox/FAUSTO/SVILUPPI/MSX/CODE/C/MSXgl/engine/src/vdp_inl.h:110: g_VDP_Command.NY = ny;
    000007E5 21r0Ar00         [10] 1883 	ld	hl, #(_g_VDP_Command + 10)
    000007E8 DD 7E FC         [19] 1884 	ld	a, -4 (ix)
    000007EB 77               [ 7] 1885 	ld	(hl), a
    000007EC 23               [ 6] 1886 	inc	hl
    000007ED DD 7E FD         [19] 1887 	ld	a, -3 (ix)
    000007F0 77               [ 7] 1888 	ld	(hl), a
                                   1889 ;E:/Dropbox/FAUSTO/SVILUPPI/MSX/CODE/C/MSXgl/engine/src/vdp_inl.h:111: g_VDP_Command.ARG = arg; 
    000007F1 21r0Dr00         [10] 1890 	ld	hl, #(_g_VDP_Command + 13)
    000007F4 36 00            [10] 1891 	ld	(hl), #0x00
                                   1892 ;E:/Dropbox/FAUSTO/SVILUPPI/MSX/CODE/C/MSXgl/engine/src/vdp_inl.h:112: g_VDP_Command.CMD = VDP_CMD_HMMM;
    000007F6 21r0Er00         [10] 1893 	ld	hl, #(_g_VDP_Command + 14)
    000007F9 36 D0            [10] 1894 	ld	(hl), #0xd0
                                   1895 ;E:/Dropbox/FAUSTO/SVILUPPI/MSX/CODE/C/MSXgl/engine/src/vdp_inl.h:113: VPD_CommandSetupR32();
    000007FB CDr00r00         [17] 1896 	call	_VPD_CommandSetupR32
                                   1897 ;E:\Dropbox\FAUSTO\SVILUPPI\MSX\CODE\C\MSXgl\projects\soccerlgMSX2/soccerlg_s5_b3.c:65: VDP_CommandHMMM(px, FieldMap[((py)+t)&511]+768, px, page,            SCOREBOARD_NX_RIGHT, SCOREBOARD_NY_RIGHT-t);
    000007FE C3r51r08         [10] 1898 	jp	00110$
    00000801                       1899 00102$:
                                   1900 ;E:\Dropbox\FAUSTO\SVILUPPI\MSX\CODE\C\MSXgl\projects\soccerlgMSX2/soccerlg_s5_b3.c:68: VDP_CommandHMMM(px, FieldMap[(py)&511]+768, px, ((py)&255)+page, SCOREBOARD_NX_RIGHT, SCOREBOARD_NY_RIGHT);
    00000801 DD 7E F7         [19] 1901 	ld	a, -9 (ix)
    00000804 DD 77 FC         [19] 1902 	ld	-4 (ix), a
    00000807 DD 7E F8         [19] 1903 	ld	a, -8 (ix)
    0000080A DD 77 FD         [19] 1904 	ld	-3 (ix), a
    0000080D 21r7Er00         [10] 1905 	ld	hl, #_FieldMap+0
    00000810 09               [11] 1906 	add	hl, bc
    00000811 6E               [ 7] 1907 	ld	l, (hl)
                                   1908 ;	spillPairReg hl
    00000812 26 00            [ 7] 1909 	ld	h, #0x00
                                   1910 ;	spillPairReg hl
                                   1911 ;	spillPairReg hl
    00000814 4D               [ 4] 1912 	ld	c, l
    00000815 7C               [ 4] 1913 	ld	a, h
    00000816 C6 03            [ 7] 1914 	add	a, #0x03
    00000818 47               [ 4] 1915 	ld	b, a
                                   1916 ;E:/Dropbox/FAUSTO/SVILUPPI/MSX/CODE/C/MSXgl/engine/src/vdp_inl.h:105: g_VDP_Command.SX = sx;
    00000819 21r00r00         [10] 1917 	ld	hl, #_g_VDP_Command
    0000081C DD 7E F7         [19] 1918 	ld	a, -9 (ix)
    0000081F 77               [ 7] 1919 	ld	(hl), a
    00000820 23               [ 6] 1920 	inc	hl
    00000821 DD 7E F8         [19] 1921 	ld	a, -8 (ix)
    00000824 77               [ 7] 1922 	ld	(hl), a
                                   1923 ;E:/Dropbox/FAUSTO/SVILUPPI/MSX/CODE/C/MSXgl/engine/src/vdp_inl.h:106: g_VDP_Command.SY = sy;
    00000825 ED 43r02r00      [20] 1924 	ld	((_g_VDP_Command + 2)), bc
                                   1925 ;E:/Dropbox/FAUSTO/SVILUPPI/MSX/CODE/C/MSXgl/engine/src/vdp_inl.h:107: g_VDP_Command.DX = dx;
    00000829 21r04r00         [10] 1926 	ld	hl, #(_g_VDP_Command + 4)
    0000082C DD 7E FC         [19] 1927 	ld	a, -4 (ix)
    0000082F 77               [ 7] 1928 	ld	(hl), a
    00000830 23               [ 6] 1929 	inc	hl
    00000831 DD 7E FD         [19] 1930 	ld	a, -3 (ix)
    00000834 77               [ 7] 1931 	ld	(hl), a
                                   1932 ;E:/Dropbox/FAUSTO/SVILUPPI/MSX/CODE/C/MSXgl/engine/src/vdp_inl.h:108: g_VDP_Command.DY = dy;
    00000835 ED 53r06r00      [20] 1933 	ld	((_g_VDP_Command + 6)), de
                                   1934 ;E:/Dropbox/FAUSTO/SVILUPPI/MSX/CODE/C/MSXgl/engine/src/vdp_inl.h:109: g_VDP_Command.NX = nx;
    00000839 21 08 00         [10] 1935 	ld	hl, #0x0008
    0000083C 22r08r00         [16] 1936 	ld	((_g_VDP_Command + 8)), hl
                                   1937 ;E:/Dropbox/FAUSTO/SVILUPPI/MSX/CODE/C/MSXgl/engine/src/vdp_inl.h:110: g_VDP_Command.NY = ny;
    0000083F 2E D4            [ 7] 1938 	ld	l, #0xd4
    00000841 22r0Ar00         [16] 1939 	ld	((_g_VDP_Command + 10)), hl
                                   1940 ;E:/Dropbox/FAUSTO/SVILUPPI/MSX/CODE/C/MSXgl/engine/src/vdp_inl.h:111: g_VDP_Command.ARG = arg; 
    00000844 21r0Dr00         [10] 1941 	ld	hl, #(_g_VDP_Command + 13)
    00000847 36 00            [10] 1942 	ld	(hl), #0x00
                                   1943 ;E:/Dropbox/FAUSTO/SVILUPPI/MSX/CODE/C/MSXgl/engine/src/vdp_inl.h:112: g_VDP_Command.CMD = VDP_CMD_HMMM;
    00000849 21r0Er00         [10] 1944 	ld	hl, #(_g_VDP_Command + 14)
    0000084C 36 D0            [10] 1945 	ld	(hl), #0xd0
                                   1946 ;E:/Dropbox/FAUSTO/SVILUPPI/MSX/CODE/C/MSXgl/engine/src/vdp_inl.h:113: VPD_CommandSetupR32();
    0000084E CDr00r00         [17] 1947 	call	_VPD_CommandSetupR32
                                   1948 ;E:\Dropbox\FAUSTO\SVILUPPI\MSX\CODE\C\MSXgl\projects\soccerlgMSX2/soccerlg_s5_b3.c:68: VDP_CommandHMMM(px, FieldMap[(py)&511]+768, px, ((py)&255)+page, SCOREBOARD_NX_RIGHT, SCOREBOARD_NY_RIGHT);
    00000851                       1949 00110$:
                                   1950 ;E:\Dropbox\FAUSTO\SVILUPPI\MSX\CODE\C\MSXgl\projects\soccerlgMSX2/soccerlg_s5_b3.c:69: }
    00000851 DD F9            [10] 1951 	ld	sp, ix
    00000853 DD E1            [14] 1952 	pop	ix
    00000855 E1               [10] 1953 	pop	hl
    00000856 F1               [10] 1954 	pop	af
    00000857 E9               [ 4] 1955 	jp	(hl)
                                   1956 ;E:\Dropbox\FAUSTO\SVILUPPI\MSX\CODE\C\MSXgl\projects\soccerlgMSX2/soccerlg_s5_b3.c:71: void PrintScoreBoardRight(u8 px,u16 py,u16 page)
                                   1957 ;	---------------------------------
                                   1958 ; Function PrintScoreBoardRight
                                   1959 ; ---------------------------------
    00000858                       1960 _PrintScoreBoardRight::
    00000858 DD E5            [15] 1961 	push	ix
    0000085A DD 21 00 00      [14] 1962 	ld	ix,#0
    0000085E DD 39            [15] 1963 	add	ix,sp
    00000860 21 F9 FF         [10] 1964 	ld	hl, #-7
    00000863 39               [11] 1965 	add	hl, sp
    00000864 F9               [ 6] 1966 	ld	sp, hl
    00000865 4F               [ 4] 1967 	ld	c, a
    00000866 DD 73 FE         [19] 1968 	ld	-2 (ix), e
    00000869 DD 72 FF         [19] 1969 	ld	-1 (ix), d
                                   1970 ;E:\Dropbox\FAUSTO\SVILUPPI\MSX\CODE\C\MSXgl\projects\soccerlgMSX2/soccerlg_s5_b3.c:73: if (((py&255)>256-SCOREBOARD_NY_RIGHT) ) 
    0000086C DD 7E FE         [19] 1971 	ld	a, -2 (ix)
    0000086F DD 77 FC         [19] 1972 	ld	-4 (ix), a
    00000872 DD 36 FD 00      [19] 1973 	ld	-3 (ix), #0x00
                                   1974 ;E:\Dropbox\FAUSTO\SVILUPPI\MSX\CODE\C\MSXgl\projects\soccerlgMSX2/soccerlg_s5_b3.c:76: VDP_CommandHMMM(px, 768,   px, ((py)&255)+page, SCOREBOARD_NX_RIGHT, t);
    00000876 06 00            [ 7] 1975 	ld	b, #0x00
    00000878 DD 7E FC         [19] 1976 	ld	a, -4 (ix)
    0000087B DD 56 FD         [19] 1977 	ld	d, -3 (ix)
    0000087E DD 86 04         [19] 1978 	add	a, 4 (ix)
    00000881 5F               [ 4] 1979 	ld	e, a
    00000882 7A               [ 4] 1980 	ld	a, d
    00000883 DD 8E 05         [19] 1981 	adc	a, 5 (ix)
    00000886 57               [ 4] 1982 	ld	d, a
                                   1983 ;E:\Dropbox\FAUSTO\SVILUPPI\MSX\CODE\C\MSXgl\projects\soccerlgMSX2/soccerlg_s5_b3.c:73: if (((py&255)>256-SCOREBOARD_NY_RIGHT) ) 
    00000887 3E 2C            [ 7] 1984 	ld	a, #0x2c
    00000889 DD BE FC         [19] 1985 	cp	a, -4 (ix)
    0000088C 3E 00            [ 7] 1986 	ld	a, #0x00
    0000088E DD 9E FD         [19] 1987 	sbc	a, -3 (ix)
    00000891 D2r3Er09         [10] 1988 	jp	NC, 00102$
                                   1989 ;E:\Dropbox\FAUSTO\SVILUPPI\MSX\CODE\C\MSXgl\projects\soccerlgMSX2/soccerlg_s5_b3.c:75: u8 t = 256 - (py & 255) ;
    00000894 DD 7E FE         [19] 1990 	ld	a, -2 (ix)
    00000897 ED 44            [ 8] 1991 	neg
                                   1992 ;E:\Dropbox\FAUSTO\SVILUPPI\MSX\CODE\C\MSXgl\projects\soccerlgMSX2/soccerlg_s5_b3.c:76: VDP_CommandHMMM(px, 768,   px, ((py)&255)+page, SCOREBOARD_NX_RIGHT, t);
    00000899 DD 77 F9         [19] 1993 	ld	-7 (ix), a
    0000089C DD 77 FA         [19] 1994 	ld	-6 (ix), a
    0000089F DD 36 FB 00      [19] 1995 	ld	-5 (ix), #0x00
    000008A3 DD 71 FC         [19] 1996 	ld	-4 (ix), c
    000008A6 DD 70 FD         [19] 1997 	ld	-3 (ix), b
                                   1998 ;E:/Dropbox/FAUSTO/SVILUPPI/MSX/CODE/C/MSXgl/engine/src/vdp_inl.h:105: g_VDP_Command.SX = sx;
    000008A9 ED 43r00r00      [20] 1999 	ld	(_g_VDP_Command), bc
                                   2000 ;E:/Dropbox/FAUSTO/SVILUPPI/MSX/CODE/C/MSXgl/engine/src/vdp_inl.h:106: g_VDP_Command.SY = sy;
    000008AD 21 00 03         [10] 2001 	ld	hl, #0x0300
    000008B0 22r02r00         [16] 2002 	ld	((_g_VDP_Command + 2)), hl
                                   2003 ;E:/Dropbox/FAUSTO/SVILUPPI/MSX/CODE/C/MSXgl/engine/src/vdp_inl.h:107: g_VDP_Command.DX = dx;
    000008B3 21r04r00         [10] 2004 	ld	hl, #(_g_VDP_Command + 4)
    000008B6 DD 7E FC         [19] 2005 	ld	a, -4 (ix)
    000008B9 77               [ 7] 2006 	ld	(hl), a
    000008BA 23               [ 6] 2007 	inc	hl
    000008BB DD 7E FD         [19] 2008 	ld	a, -3 (ix)
    000008BE 77               [ 7] 2009 	ld	(hl), a
                                   2010 ;E:/Dropbox/FAUSTO/SVILUPPI/MSX/CODE/C/MSXgl/engine/src/vdp_inl.h:108: g_VDP_Command.DY = dy;
    000008BF ED 53r06r00      [20] 2011 	ld	((_g_VDP_Command + 6)), de
                                   2012 ;E:/Dropbox/FAUSTO/SVILUPPI/MSX/CODE/C/MSXgl/engine/src/vdp_inl.h:109: g_VDP_Command.NX = nx;
    000008C3 21 08 00         [10] 2013 	ld	hl, #0x0008
    000008C6 22r08r00         [16] 2014 	ld	((_g_VDP_Command + 8)), hl
                                   2015 ;E:/Dropbox/FAUSTO/SVILUPPI/MSX/CODE/C/MSXgl/engine/src/vdp_inl.h:110: g_VDP_Command.NY = ny;
    000008C9 21r0Ar00         [10] 2016 	ld	hl, #(_g_VDP_Command + 10)
    000008CC DD 7E FA         [19] 2017 	ld	a, -6 (ix)
    000008CF 77               [ 7] 2018 	ld	(hl), a
    000008D0 23               [ 6] 2019 	inc	hl
    000008D1 DD 7E FB         [19] 2020 	ld	a, -5 (ix)
    000008D4 77               [ 7] 2021 	ld	(hl), a
                                   2022 ;E:/Dropbox/FAUSTO/SVILUPPI/MSX/CODE/C/MSXgl/engine/src/vdp_inl.h:111: g_VDP_Command.ARG = arg; 
    000008D5 21r0Dr00         [10] 2023 	ld	hl, #(_g_VDP_Command + 13)
    000008D8 36 00            [10] 2024 	ld	(hl), #0x00
                                   2025 ;E:/Dropbox/FAUSTO/SVILUPPI/MSX/CODE/C/MSXgl/engine/src/vdp_inl.h:112: g_VDP_Command.CMD = VDP_CMD_HMMM;
    000008DA 21r0Er00         [10] 2026 	ld	hl, #(_g_VDP_Command + 14)
    000008DD 36 D0            [10] 2027 	ld	(hl), #0xd0
                                   2028 ;E:/Dropbox/FAUSTO/SVILUPPI/MSX/CODE/C/MSXgl/engine/src/vdp_inl.h:113: VPD_CommandSetupR32();
    000008DF C5               [11] 2029 	push	bc
    000008E0 CDr00r00         [17] 2030 	call	_VPD_CommandSetupR32
    000008E3 C1               [10] 2031 	pop	bc
                                   2032 ;E:\Dropbox\FAUSTO\SVILUPPI\MSX\CODE\C\MSXgl\projects\soccerlgMSX2/soccerlg_s5_b3.c:77: VDP_CommandHMMM(px, 768+t, px, page,            SCOREBOARD_NX_RIGHT, SCOREBOARD_NY_RIGHT-t);
    000008E4 DD 6E F9         [19] 2033 	ld	l, -7 (ix)
                                   2034 ;	spillPairReg hl
                                   2035 ;	spillPairReg hl
    000008E7 26 00            [ 7] 2036 	ld	h, #0x00
                                   2037 ;	spillPairReg hl
                                   2038 ;	spillPairReg hl
    000008E9 3E D4            [ 7] 2039 	ld	a, #0xd4
    000008EB 95               [ 4] 2040 	sub	a, l
    000008EC 5F               [ 4] 2041 	ld	e, a
    000008ED 9F               [ 4] 2042 	sbc	a, a
    000008EE 94               [ 4] 2043 	sub	a, h
    000008EF DD 73 FA         [19] 2044 	ld	-6 (ix), e
    000008F2 DD 77 FB         [19] 2045 	ld	-5 (ix), a
    000008F5 DD 5E 04         [19] 2046 	ld	e, 4 (ix)
    000008F8 DD 56 05         [19] 2047 	ld	d, 5 (ix)
    000008FB 7C               [ 4] 2048 	ld	a, h
    000008FC C6 03            [ 7] 2049 	add	a, #0x03
    000008FE DD 75 FC         [19] 2050 	ld	-4 (ix), l
    00000901 DD 77 FD         [19] 2051 	ld	-3 (ix), a
                                   2052 ;E:/Dropbox/FAUSTO/SVILUPPI/MSX/CODE/C/MSXgl/engine/src/vdp_inl.h:105: g_VDP_Command.SX = sx;
    00000904 ED 43r00r00      [20] 2053 	ld	(_g_VDP_Command), bc
                                   2054 ;E:/Dropbox/FAUSTO/SVILUPPI/MSX/CODE/C/MSXgl/engine/src/vdp_inl.h:106: g_VDP_Command.SY = sy;
    00000908 21r02r00         [10] 2055 	ld	hl, #(_g_VDP_Command + 2)
    0000090B DD 7E FC         [19] 2056 	ld	a, -4 (ix)
    0000090E 77               [ 7] 2057 	ld	(hl), a
    0000090F 23               [ 6] 2058 	inc	hl
    00000910 DD 7E FD         [19] 2059 	ld	a, -3 (ix)
    00000913 77               [ 7] 2060 	ld	(hl), a
                                   2061 ;E:/Dropbox/FAUSTO/SVILUPPI/MSX/CODE/C/MSXgl/engine/src/vdp_inl.h:107: g_VDP_Command.DX = dx;
    00000914 ED 43r04r00      [20] 2062 	ld	((_g_VDP_Command + 4)), bc
                                   2063 ;E:/Dropbox/FAUSTO/SVILUPPI/MSX/CODE/C/MSXgl/engine/src/vdp_inl.h:108: g_VDP_Command.DY = dy;
    00000918 ED 53r06r00      [20] 2064 	ld	((_g_VDP_Command + 6)), de
                                   2065 ;E:/Dropbox/FAUSTO/SVILUPPI/MSX/CODE/C/MSXgl/engine/src/vdp_inl.h:109: g_VDP_Command.NX = nx;
    0000091C 21 08 00         [10] 2066 	ld	hl, #0x0008
    0000091F 22r08r00         [16] 2067 	ld	((_g_VDP_Command + 8)), hl
                                   2068 ;E:/Dropbox/FAUSTO/SVILUPPI/MSX/CODE/C/MSXgl/engine/src/vdp_inl.h:110: g_VDP_Command.NY = ny;
    00000922 21r0Ar00         [10] 2069 	ld	hl, #(_g_VDP_Command + 10)
    00000925 DD 7E FA         [19] 2070 	ld	a, -6 (ix)
    00000928 77               [ 7] 2071 	ld	(hl), a
    00000929 23               [ 6] 2072 	inc	hl
    0000092A DD 7E FB         [19] 2073 	ld	a, -5 (ix)
    0000092D 77               [ 7] 2074 	ld	(hl), a
                                   2075 ;E:/Dropbox/FAUSTO/SVILUPPI/MSX/CODE/C/MSXgl/engine/src/vdp_inl.h:111: g_VDP_Command.ARG = arg; 
    0000092E 21r0Dr00         [10] 2076 	ld	hl, #(_g_VDP_Command + 13)
    00000931 36 00            [10] 2077 	ld	(hl), #0x00
                                   2078 ;E:/Dropbox/FAUSTO/SVILUPPI/MSX/CODE/C/MSXgl/engine/src/vdp_inl.h:112: g_VDP_Command.CMD = VDP_CMD_HMMM;
    00000933 21r0Er00         [10] 2079 	ld	hl, #(_g_VDP_Command + 14)
    00000936 36 D0            [10] 2080 	ld	(hl), #0xd0
                                   2081 ;E:/Dropbox/FAUSTO/SVILUPPI/MSX/CODE/C/MSXgl/engine/src/vdp_inl.h:113: VPD_CommandSetupR32();
    00000938 CDr00r00         [17] 2082 	call	_VPD_CommandSetupR32
                                   2083 ;E:\Dropbox\FAUSTO\SVILUPPI\MSX\CODE\C\MSXgl\projects\soccerlgMSX2/soccerlg_s5_b3.c:77: VDP_CommandHMMM(px, 768+t, px, page,            SCOREBOARD_NX_RIGHT, SCOREBOARD_NY_RIGHT-t);
    0000093B C3r76r09         [10] 2084 	jp	00110$
    0000093E                       2085 00102$:
                                   2086 ;E:\Dropbox\FAUSTO\SVILUPPI\MSX\CODE\C\MSXgl\projects\soccerlgMSX2/soccerlg_s5_b3.c:80: VDP_CommandHMMM(px, 768, px, ((py)&255)+page, SCOREBOARD_NX_RIGHT, SCOREBOARD_NY_RIGHT);
    0000093E DD 71 FC         [19] 2087 	ld	-4 (ix), c
    00000941 DD 70 FD         [19] 2088 	ld	-3 (ix), b
                                   2089 ;E:/Dropbox/FAUSTO/SVILUPPI/MSX/CODE/C/MSXgl/engine/src/vdp_inl.h:105: g_VDP_Command.SX = sx;
    00000944 ED 43r00r00      [20] 2090 	ld	(_g_VDP_Command), bc
                                   2091 ;E:/Dropbox/FAUSTO/SVILUPPI/MSX/CODE/C/MSXgl/engine/src/vdp_inl.h:106: g_VDP_Command.SY = sy;
    00000948 21 00 03         [10] 2092 	ld	hl, #0x0300
    0000094B 22r02r00         [16] 2093 	ld	((_g_VDP_Command + 2)), hl
                                   2094 ;E:/Dropbox/FAUSTO/SVILUPPI/MSX/CODE/C/MSXgl/engine/src/vdp_inl.h:107: g_VDP_Command.DX = dx;
    0000094E 21r04r00         [10] 2095 	ld	hl, #(_g_VDP_Command + 4)
    00000951 DD 7E FC         [19] 2096 	ld	a, -4 (ix)
    00000954 77               [ 7] 2097 	ld	(hl), a
    00000955 23               [ 6] 2098 	inc	hl
    00000956 DD 7E FD         [19] 2099 	ld	a, -3 (ix)
    00000959 77               [ 7] 2100 	ld	(hl), a
                                   2101 ;E:/Dropbox/FAUSTO/SVILUPPI/MSX/CODE/C/MSXgl/engine/src/vdp_inl.h:108: g_VDP_Command.DY = dy;
    0000095A ED 53r06r00      [20] 2102 	ld	((_g_VDP_Command + 6)), de
                                   2103 ;E:/Dropbox/FAUSTO/SVILUPPI/MSX/CODE/C/MSXgl/engine/src/vdp_inl.h:109: g_VDP_Command.NX = nx;
    0000095E 21 08 00         [10] 2104 	ld	hl, #0x0008
    00000961 22r08r00         [16] 2105 	ld	((_g_VDP_Command + 8)), hl
                                   2106 ;E:/Dropbox/FAUSTO/SVILUPPI/MSX/CODE/C/MSXgl/engine/src/vdp_inl.h:110: g_VDP_Command.NY = ny;
    00000964 2E D4            [ 7] 2107 	ld	l, #0xd4
    00000966 22r0Ar00         [16] 2108 	ld	((_g_VDP_Command + 10)), hl
                                   2109 ;E:/Dropbox/FAUSTO/SVILUPPI/MSX/CODE/C/MSXgl/engine/src/vdp_inl.h:111: g_VDP_Command.ARG = arg; 
    00000969 21r0Dr00         [10] 2110 	ld	hl, #(_g_VDP_Command + 13)
    0000096C 36 00            [10] 2111 	ld	(hl), #0x00
                                   2112 ;E:/Dropbox/FAUSTO/SVILUPPI/MSX/CODE/C/MSXgl/engine/src/vdp_inl.h:112: g_VDP_Command.CMD = VDP_CMD_HMMM;
    0000096E 21r0Er00         [10] 2113 	ld	hl, #(_g_VDP_Command + 14)
    00000971 36 D0            [10] 2114 	ld	(hl), #0xd0
                                   2115 ;E:/Dropbox/FAUSTO/SVILUPPI/MSX/CODE/C/MSXgl/engine/src/vdp_inl.h:113: VPD_CommandSetupR32();
    00000973 CDr00r00         [17] 2116 	call	_VPD_CommandSetupR32
                                   2117 ;E:\Dropbox\FAUSTO\SVILUPPI\MSX\CODE\C\MSXgl\projects\soccerlgMSX2/soccerlg_s5_b3.c:80: VDP_CommandHMMM(px, 768, px, ((py)&255)+page, SCOREBOARD_NX_RIGHT, SCOREBOARD_NY_RIGHT);
    00000976                       2118 00110$:
                                   2119 ;E:\Dropbox\FAUSTO\SVILUPPI\MSX\CODE\C\MSXgl\projects\soccerlgMSX2/soccerlg_s5_b3.c:81: }
    00000976 DD F9            [10] 2120 	ld	sp, ix
    00000978 DD E1            [14] 2121 	pop	ix
    0000097A E1               [10] 2122 	pop	hl
    0000097B F1               [10] 2123 	pop	af
    0000097C E9               [ 4] 2124 	jp	(hl)
                                   2125 ;E:\Dropbox\FAUSTO\SVILUPPI\MSX\CODE\C\MSXgl\projects\soccerlgMSX2/soccerlg_s5_b3.c:85: void SetBallSprite(u8 height) 
                                   2126 ;	---------------------------------
                                   2127 ; Function SetBallSprite
                                   2128 ; ---------------------------------
    0000097D                       2129 _SetBallSprite::
    0000097D 4F               [ 4] 2130 	ld	c, a
                                   2131 ;E:\Dropbox\FAUSTO\SVILUPPI\MSX\CODE\C\MSXgl\projects\soccerlgMSX2/soccerlg_s5_b3.c:87: if (height > 7) height = 7;
    0000097E 3E 07            [ 7] 2132 	ld	a, #0x07
    00000980 91               [ 4] 2133 	sub	a, c
    00000981 30 02            [12] 2134 	jr	NC, 00102$
    00000983 0E 07            [ 7] 2135 	ld	c, #0x07
    00000985                       2136 00102$:
                                   2137 ;E:\Dropbox\FAUSTO\SVILUPPI\MSX\CODE\C\MSXgl\projects\soccerlgMSX2/soccerlg_s5_b3.c:88: SwSprite[14].frame = SPR_BALL_SIZE_1 + height;
    00000985 06 00            [ 7] 2138 	ld	b, #0x00
    00000987 21 60 00         [10] 2139 	ld	hl, #0x0060
    0000098A 09               [11] 2140 	add	hl, bc
    0000098B EB               [ 4] 2141 	ex	de, hl
    0000098C ED 53r51r01      [20] 2142 	ld	((_SwSprite + 337)), de
                                   2143 ;E:\Dropbox\FAUSTO\SVILUPPI\MSX\CODE\C\MSXgl\projects\soccerlgMSX2/soccerlg_s5_b3.c:89: }
    00000990 C9               [10] 2144 	ret
                                   2145 ;E:\Dropbox\FAUSTO\SVILUPPI\MSX\CODE\C\MSXgl\projects\soccerlgMSX2/soccerlg_s5_b3.c:92: bool IsBallForeground() 
                                   2146 ;	---------------------------------
                                   2147 ; Function IsBallForeground
                                   2148 ; ---------------------------------
    00000991                       2149 _IsBallForeground::
    00000991 DD E5            [15] 2150 	push	ix
    00000993 DD 21 00 00      [14] 2151 	ld	ix,#0
    00000997 DD 39            [15] 2152 	add	ix,sp
    00000999 21 F3 FF         [10] 2153 	ld	hl, #-13
    0000099C 39               [11] 2154 	add	hl, sp
    0000099D F9               [ 6] 2155 	ld	sp, hl
                                   2156 ;E:\Dropbox\FAUSTO\SVILUPPI\MSX\CODE\C\MSXgl\projects\soccerlgMSX2/soccerlg_s5_b3.c:95: if (SwSprite[14].frame > SPR_BALL_SIZE_1) return TRUE;
    0000099E 2Ar51r01         [16] 2157 	ld	hl, (#_SwSprite + 337)
    000009A1 3E 60            [ 7] 2158 	ld	a, #0x60
    000009A3 BD               [ 4] 2159 	cp	a, l
    000009A4 3E 00            [ 7] 2160 	ld	a, #0x00
    000009A6 9C               [ 4] 2161 	sbc	a, h
    000009A7 30 05            [12] 2162 	jr	NC, 00102$
    000009A9 3E 01            [ 7] 2163 	ld	a, #0x01
    000009AB C3rC6r0A         [10] 2164 	jp	00111$
    000009AE                       2165 00102$:
                                   2166 ;E:\Dropbox\FAUSTO\SVILUPPI\MSX\CODE\C\MSXgl\projects\soccerlgMSX2/soccerlg_s5_b3.c:97: u8 closest_player = 0;
    000009AE DD 36 F3 00      [19] 2167 	ld	-13 (ix), #0x00
                                   2168 ;E:\Dropbox\FAUSTO\SVILUPPI\MSX\CODE\C\MSXgl\projects\soccerlgMSX2/soccerlg_s5_b3.c:98: u16 min_dist = 0xFFFF;
    000009B2 DD 36 F4 FF      [19] 2169 	ld	-12 (ix), #0xff
    000009B6 DD 36 F5 FF      [19] 2170 	ld	-11 (ix), #0xff
                                   2171 ;E:\Dropbox\FAUSTO\SVILUPPI\MSX\CODE\C\MSXgl\projects\soccerlgMSX2/soccerlg_s5_b3.c:101: for (u8 i = 0; i < 14; i++) {
    000009BA 3Ar42r01         [13] 2172 	ld	a, (#_SwSprite + 322)
    000009BD DD 77 F6         [19] 2173 	ld	-10 (ix), a
    000009C0 DD 36 FF 00      [19] 2174 	ld	-1 (ix), #0x00
    000009C4                       2175 00109$:
                                   2176 ;E:\Dropbox\FAUSTO\SVILUPPI\MSX\CODE\C\MSXgl\projects\soccerlgMSX2/soccerlg_s5_b3.c:103: u16 dy = (SwSprite[i].ly > SwSprite[14].ly) ? (SwSprite[i].ly - SwSprite[14].ly) : (SwSprite[14].ly - SwSprite[i].ly);
    000009C4 21r46r01         [10] 2177 	ld	hl, #_SwSprite + 326
    000009C7 7E               [ 7] 2178 	ld	a, (hl)
    000009C8 DD 77 F7         [19] 2179 	ld	-9 (ix), a
    000009CB 23               [ 6] 2180 	inc	hl
    000009CC 7E               [ 7] 2181 	ld	a, (hl)
    000009CD DD 77 F8         [19] 2182 	ld	-8 (ix), a
                                   2183 ;E:\Dropbox\FAUSTO\SVILUPPI\MSX\CODE\C\MSXgl\projects\soccerlgMSX2/soccerlg_s5_b3.c:101: for (u8 i = 0; i < 14; i++) {
    000009D0 DD 7E FF         [19] 2184 	ld	a, -1 (ix)
    000009D3 D6 0E            [ 7] 2185 	sub	a, #0x0e
    000009D5 D2r98r0A         [10] 2186 	jp	NC, 00105$
                                   2187 ;E:\Dropbox\FAUSTO\SVILUPPI\MSX\CODE\C\MSXgl\projects\soccerlgMSX2/soccerlg_s5_b3.c:102: u16 dx = (SwSprite[i].lx > SwSprite[14].lx) ? (SwSprite[i].lx - SwSprite[14].lx) : (SwSprite[14].lx - SwSprite[i].lx);
    000009D8 DD 4E FF         [19] 2188 	ld	c, -1 (ix)
    000009DB 06 00            [ 7] 2189 	ld	b, #0x00
    000009DD 69               [ 4] 2190 	ld	l, c
    000009DE 60               [ 4] 2191 	ld	h, b
    000009DF 29               [11] 2192 	add	hl, hl
    000009E0 29               [11] 2193 	add	hl, hl
    000009E1 09               [11] 2194 	add	hl, bc
    000009E2 29               [11] 2195 	add	hl, hl
    000009E3 09               [11] 2196 	add	hl, bc
    000009E4 29               [11] 2197 	add	hl, hl
    000009E5 09               [11] 2198 	add	hl, bc
    000009E6 11r00r00         [10] 2199 	ld	de, #_SwSprite
    000009E9 19               [11] 2200 	add	hl, de
    000009EA 4D               [ 4] 2201 	ld	c, l
    000009EB 44               [ 4] 2202 	ld	b, h
    000009EC 0A               [ 7] 2203 	ld	a, (bc)
    000009ED 6F               [ 4] 2204 	ld	l, a
                                   2205 ;	spillPairReg hl
                                   2206 ;	spillPairReg hl
    000009EE DD 75 FD         [19] 2207 	ld	-3 (ix), l
    000009F1 DD 36 FE 00      [19] 2208 	ld	-2 (ix), #0x00
    000009F5 DD 5E F6         [19] 2209 	ld	e, -10 (ix)
    000009F8 16 00            [ 7] 2210 	ld	d, #0x00
    000009FA DD 7E F6         [19] 2211 	ld	a, -10 (ix)
    000009FD 95               [ 4] 2212 	sub	a, l
    000009FE 30 0D            [12] 2213 	jr	NC, 00113$
    00000A00 DD 7E FD         [19] 2214 	ld	a, -3 (ix)
    00000A03 93               [ 4] 2215 	sub	a, e
    00000A04 5F               [ 4] 2216 	ld	e, a
    00000A05 DD 7E FE         [19] 2217 	ld	a, -2 (ix)
    00000A08 9A               [ 4] 2218 	sbc	a, d
    00000A09 57               [ 4] 2219 	ld	d, a
    00000A0A C3r17r0A         [10] 2220 	jp	00114$
    00000A0D                       2221 00113$:
    00000A0D 7B               [ 4] 2222 	ld	a, e
    00000A0E DD 96 FD         [19] 2223 	sub	a, -3 (ix)
    00000A11 5F               [ 4] 2224 	ld	e, a
    00000A12 7A               [ 4] 2225 	ld	a, d
    00000A13 DD 9E FE         [19] 2226 	sbc	a, -2 (ix)
    00000A16 57               [ 4] 2227 	ld	d, a
    00000A17                       2228 00114$:
    00000A17 DD 73 F9         [19] 2229 	ld	-7 (ix), e
    00000A1A DD 72 FA         [19] 2230 	ld	-6 (ix), d
                                   2231 ;E:\Dropbox\FAUSTO\SVILUPPI\MSX\CODE\C\MSXgl\projects\soccerlgMSX2/soccerlg_s5_b3.c:103: u16 dy = (SwSprite[i].ly > SwSprite[14].ly) ? (SwSprite[i].ly - SwSprite[14].ly) : (SwSprite[14].ly - SwSprite[i].ly);
    00000A1D 21 04 00         [10] 2232 	ld	hl, #4
    00000A20 09               [11] 2233 	add	hl, bc
    00000A21 7E               [ 7] 2234 	ld	a, (hl)
    00000A22 DD 77 FB         [19] 2235 	ld	-5 (ix), a
    00000A25 23               [ 6] 2236 	inc	hl
    00000A26 7E               [ 7] 2237 	ld	a, (hl)
    00000A27 DD 77 FC         [19] 2238 	ld	-4 (ix), a
    00000A2A DD 7E F7         [19] 2239 	ld	a, -9 (ix)
    00000A2D DD 96 FB         [19] 2240 	sub	a, -5 (ix)
    00000A30 DD 7E F8         [19] 2241 	ld	a, -8 (ix)
    00000A33 DD 9E FC         [19] 2242 	sbc	a, -4 (ix)
    00000A36 30 15            [12] 2243 	jr	NC, 00115$
    00000A38 DD 7E FB         [19] 2244 	ld	a, -5 (ix)
    00000A3B DD 96 F7         [19] 2245 	sub	a, -9 (ix)
    00000A3E DD 77 FD         [19] 2246 	ld	-3 (ix), a
    00000A41 DD 7E FC         [19] 2247 	ld	a, -4 (ix)
    00000A44 DD 9E F8         [19] 2248 	sbc	a, -8 (ix)
    00000A47 DD 77 FE         [19] 2249 	ld	-2 (ix), a
    00000A4A C3r5Fr0A         [10] 2250 	jp	00116$
    00000A4D                       2251 00115$:
    00000A4D DD 7E F7         [19] 2252 	ld	a, -9 (ix)
    00000A50 DD 96 FB         [19] 2253 	sub	a, -5 (ix)
    00000A53 DD 77 FD         [19] 2254 	ld	-3 (ix), a
    00000A56 DD 7E F8         [19] 2255 	ld	a, -8 (ix)
    00000A59 DD 9E FC         [19] 2256 	sbc	a, -4 (ix)
    00000A5C DD 77 FE         [19] 2257 	ld	-2 (ix), a
    00000A5F                       2258 00116$:
    00000A5F DD 4E FD         [19] 2259 	ld	c, -3 (ix)
    00000A62 DD 46 FE         [19] 2260 	ld	b, -2 (ix)
                                   2261 ;E:\Dropbox\FAUSTO\SVILUPPI\MSX\CODE\C\MSXgl\projects\soccerlgMSX2/soccerlg_s5_b3.c:104: u16 dist = dx + dy;
    00000A65 DD 6E F9         [19] 2262 	ld	l, -7 (ix)
    00000A68 DD 66 FA         [19] 2263 	ld	h, -6 (ix)
    00000A6B 09               [11] 2264 	add	hl, bc
    00000A6C DD 75 FD         [19] 2265 	ld	-3 (ix), l
    00000A6F DD 74 FE         [19] 2266 	ld	-2 (ix), h
                                   2267 ;E:\Dropbox\FAUSTO\SVILUPPI\MSX\CODE\C\MSXgl\projects\soccerlgMSX2/soccerlg_s5_b3.c:106: if (dist < min_dist) {
    00000A72 DD 7E FD         [19] 2268 	ld	a, -3 (ix)
    00000A75 DD 96 F4         [19] 2269 	sub	a, -12 (ix)
    00000A78 DD 7E FE         [19] 2270 	ld	a, -2 (ix)
    00000A7B DD 9E F5         [19] 2271 	sbc	a, -11 (ix)
    00000A7E 30 12            [12] 2272 	jr	NC, 00110$
                                   2273 ;E:\Dropbox\FAUSTO\SVILUPPI\MSX\CODE\C\MSXgl\projects\soccerlgMSX2/soccerlg_s5_b3.c:107: min_dist = dist;
    00000A80 DD 7E FD         [19] 2274 	ld	a, -3 (ix)
    00000A83 DD 77 F4         [19] 2275 	ld	-12 (ix), a
    00000A86 DD 7E FE         [19] 2276 	ld	a, -2 (ix)
    00000A89 DD 77 F5         [19] 2277 	ld	-11 (ix), a
                                   2278 ;E:\Dropbox\FAUSTO\SVILUPPI\MSX\CODE\C\MSXgl\projects\soccerlgMSX2/soccerlg_s5_b3.c:108: closest_player = i;
    00000A8C DD 7E FF         [19] 2279 	ld	a, -1 (ix)
    00000A8F DD 77 F3         [19] 2280 	ld	-13 (ix), a
    00000A92                       2281 00110$:
                                   2282 ;E:\Dropbox\FAUSTO\SVILUPPI\MSX\CODE\C\MSXgl\projects\soccerlgMSX2/soccerlg_s5_b3.c:101: for (u8 i = 0; i < 14; i++) {
    00000A92 DD 34 FF         [23] 2283 	inc	-1 (ix)
    00000A95 C3rC4r09         [10] 2284 	jp	00109$
    00000A98                       2285 00105$:
                                   2286 ;E:\Dropbox\FAUSTO\SVILUPPI\MSX\CODE\C\MSXgl\projects\soccerlgMSX2/soccerlg_s5_b3.c:115: if (SwSprite[14].ly <= SwSprite[closest_player].ly + 4) {
    00000A98 DD 4E F3         [19] 2287 	ld	c, -13 (ix)
    00000A9B 06 00            [ 7] 2288 	ld	b, #0x00
    00000A9D 69               [ 4] 2289 	ld	l, c
    00000A9E 60               [ 4] 2290 	ld	h, b
    00000A9F 29               [11] 2291 	add	hl, hl
    00000AA0 29               [11] 2292 	add	hl, hl
    00000AA1 09               [11] 2293 	add	hl, bc
    00000AA2 29               [11] 2294 	add	hl, hl
    00000AA3 09               [11] 2295 	add	hl, bc
    00000AA4 29               [11] 2296 	add	hl, hl
    00000AA5 09               [11] 2297 	add	hl, bc
    00000AA6 11r00r00         [10] 2298 	ld	de, #_SwSprite
    00000AA9 19               [11] 2299 	add	hl, de
    00000AAA 11 04 00         [10] 2300 	ld	de, #0x0004
    00000AAD 19               [11] 2301 	add	hl, de
    00000AAE 4E               [ 7] 2302 	ld	c, (hl)
    00000AAF 23               [ 6] 2303 	inc	hl
    00000AB0 46               [ 7] 2304 	ld	b, (hl)
    00000AB1 21 04 00         [10] 2305 	ld	hl, #0x0004
    00000AB4 09               [11] 2306 	add	hl, bc
    00000AB5 DD 4E F7         [19] 2307 	ld	c, -9 (ix)
    00000AB8 DD 46 F8         [19] 2308 	ld	b, -8 (ix)
    00000ABB AF               [ 4] 2309 	xor	a, a
    00000ABC ED 42            [15] 2310 	sbc	hl, bc
    00000ABE 38 04            [12] 2311 	jr	C, 00107$
                                   2312 ;E:\Dropbox\FAUSTO\SVILUPPI\MSX\CODE\C\MSXgl\projects\soccerlgMSX2/soccerlg_s5_b3.c:116: return FALSE;
    00000AC0 AF               [ 4] 2313 	xor	a, a
    00000AC1 C3rC6r0A         [10] 2314 	jp	00111$
    00000AC4                       2315 00107$:
                                   2316 ;E:\Dropbox\FAUSTO\SVILUPPI\MSX\CODE\C\MSXgl\projects\soccerlgMSX2/soccerlg_s5_b3.c:119: return TRUE;
    00000AC4 3E 01            [ 7] 2317 	ld	a, #0x01
    00000AC6                       2318 00111$:
                                   2319 ;E:\Dropbox\FAUSTO\SVILUPPI\MSX\CODE\C\MSXgl\projects\soccerlgMSX2/soccerlg_s5_b3.c:120: }
    00000AC6 DD F9            [10] 2320 	ld	sp, ix
    00000AC8 DD E1            [14] 2321 	pop	ix
    00000ACA C9               [10] 2322 	ret
                                   2323 ;E:\Dropbox\FAUSTO\SVILUPPI\MSX\CODE\C\MSXgl\projects\soccerlgMSX2/soccerlg_s5_b3.c:123: void ShowSpriteMessage(u16 messageId)
                                   2324 ;	---------------------------------
                                   2325 ; Function ShowSpriteMessage
                                   2326 ; ---------------------------------
    00000ACB                       2327 _ShowSpriteMessage::
    00000ACB DD E5            [15] 2328 	push	ix
    00000ACD DD 21 00 00      [14] 2329 	ld	ix,#0
    00000AD1 DD 39            [15] 2330 	add	ix,sp
    00000AD3 FD 21 F7 FF      [14] 2331 	ld	iy, #-9
    00000AD7 FD 39            [15] 2332 	add	iy, sp
    00000AD9 FD F9            [10] 2333 	ld	sp, iy
                                   2334 ;E:\Dropbox\FAUSTO\SVILUPPI\MSX\CODE\C\MSXgl\projects\soccerlgMSX2/soccerlg_s5_b3.c:125: DEBUG_LOG("1-1");
    00000ADB E5               [11] 2335 	push	hl
    00000ADC 21r97r0C         [10] 2336 	ld	hl, #___str_0
    00000ADF CDr00r00         [17] 2337 	call	_DEBUG_LOG
    00000AE2 C1               [10] 2338 	pop	bc
                                   2339 ;E:\Dropbox\FAUSTO\SVILUPPI\MSX\CODE\C\MSXgl\projects\soccerlgMSX2/soccerlg_s5_b3.c:129: if (messageId == SPR_MSG_KICKOFF) {
    00000AE3 79               [ 4] 2340 	ld	a, c
    00000AE4 D6 20            [ 7] 2341 	sub	a, #0x20
    00000AE6 20 23            [12] 2342 	jr	NZ, 00123$
    00000AE8 78               [ 4] 2343 	ld	a, b
    00000AE9 3D               [ 4] 2344 	dec	a
    00000AEA 20 1F            [12] 2345 	jr	NZ, 00123$
                                   2346 ;E:\Dropbox\FAUSTO\SVILUPPI\MSX\CODE\C\MSXgl\projects\soccerlgMSX2/soccerlg_s5_b3.c:130: len = SPRITE_MSG_KICKOFF_LENGTH;
    00000AEC DD 36 F7 04      [19] 2347 	ld	-9 (ix), #0x04
                                   2348 ;E:\Dropbox\FAUSTO\SVILUPPI\MSX\CODE\C\MSXgl\projects\soccerlgMSX2/soccerlg_s5_b3.c:131: logical_y = (KickOffTeam == TEAM_1) ? (Field.ly + 48) : (Field.ly + 144); // Centro della rispettiva metà inquadratura
    00000AF0 3Ar00r00         [13] 2349 	ld	a, (_KickOffTeam+0)
    00000AF3 B7               [ 4] 2350 	or	a, a
    00000AF4 20 0A            [12] 2351 	jr	NZ, 00135$
    00000AF6 2Ar04r00         [16] 2352 	ld	hl, (#(_Field + 4) + 0)
    00000AF9 11 30 00         [10] 2353 	ld	de, #0x0030
    00000AFC 19               [11] 2354 	add	hl, de
    00000AFD C3r07r0B         [10] 2355 	jp	00136$
    00000B00                       2356 00135$:
    00000B00 2Ar04r00         [16] 2357 	ld	hl, (#(_Field + 4) + 0)
    00000B03 11 90 00         [10] 2358 	ld	de, #0x0090
    00000B06 19               [11] 2359 	add	hl, de
    00000B07                       2360 00136$:
    00000B07 EB               [ 4] 2361 	ex	de, hl
    00000B08 C3rB5r0B         [10] 2362 	jp	00124$
    00000B0B                       2363 00123$:
                                   2364 ;E:\Dropbox\FAUSTO\SVILUPPI\MSX\CODE\C\MSXgl\projects\soccerlgMSX2/soccerlg_s5_b3.c:132: } else if (messageId == SPR_MSG_GOALKICK) {
    00000B0B 79               [ 4] 2365 	ld	a, c
    00000B0C D6 24            [ 7] 2366 	sub	a, #0x24
    00000B0E 20 13            [12] 2367 	jr	NZ, 00120$
    00000B10 78               [ 4] 2368 	ld	a, b
    00000B11 3D               [ 4] 2369 	dec	a
    00000B12 20 0F            [12] 2370 	jr	NZ, 00120$
                                   2371 ;E:\Dropbox\FAUSTO\SVILUPPI\MSX\CODE\C\MSXgl\projects\soccerlgMSX2/soccerlg_s5_b3.c:133: len = SPRITE_MSG_GOALKICK_LENGTH;
    00000B14 DD 36 F7 05      [19] 2372 	ld	-9 (ix), #0x05
                                   2373 ;E:\Dropbox\FAUSTO\SVILUPPI\MSX\CODE\C\MSXgl\projects\soccerlgMSX2/soccerlg_s5_b3.c:134: logical_y = Field.ly + 96; // Metà dello schermo (192 / 2)
    00000B18 2Ar04r00         [16] 2374 	ld	hl, (#(_Field + 4) + 0)
    00000B1B 11 60 00         [10] 2375 	ld	de, #0x0060
    00000B1E 19               [11] 2376 	add	hl, de
    00000B1F EB               [ 4] 2377 	ex	de, hl
    00000B20 C3rB5r0B         [10] 2378 	jp	00124$
    00000B23                       2379 00120$:
                                   2380 ;E:\Dropbox\FAUSTO\SVILUPPI\MSX\CODE\C\MSXgl\projects\soccerlgMSX2/soccerlg_s5_b3.c:135: } else if (messageId == SPR_MSG_THROWIN) {
    00000B23 79               [ 4] 2381 	ld	a, c
    00000B24 D6 29            [ 7] 2382 	sub	a, #0x29
    00000B26 20 13            [12] 2383 	jr	NZ, 00117$
    00000B28 78               [ 4] 2384 	ld	a, b
    00000B29 3D               [ 4] 2385 	dec	a
    00000B2A 20 0F            [12] 2386 	jr	NZ, 00117$
                                   2387 ;E:\Dropbox\FAUSTO\SVILUPPI\MSX\CODE\C\MSXgl\projects\soccerlgMSX2/soccerlg_s5_b3.c:136: len = SPRITE_MSG_THROWIN_LENGTH;
    00000B2C DD 36 F7 05      [19] 2388 	ld	-9 (ix), #0x05
                                   2389 ;E:\Dropbox\FAUSTO\SVILUPPI\MSX\CODE\C\MSXgl\projects\soccerlgMSX2/soccerlg_s5_b3.c:137: logical_y = Field.ly + 96;
    00000B30 2Ar04r00         [16] 2390 	ld	hl, (#(_Field + 4) + 0)
    00000B33 11 60 00         [10] 2391 	ld	de, #0x0060
    00000B36 19               [11] 2392 	add	hl, de
    00000B37 EB               [ 4] 2393 	ex	de, hl
    00000B38 C3rB5r0B         [10] 2394 	jp	00124$
    00000B3B                       2395 00117$:
                                   2396 ;E:\Dropbox\FAUSTO\SVILUPPI\MSX\CODE\C\MSXgl\projects\soccerlgMSX2/soccerlg_s5_b3.c:138: } else if (messageId == SPR_MSG_CORNERKICK) {
    00000B3B 79               [ 4] 2397 	ld	a, c
    00000B3C D6 30            [ 7] 2398 	sub	a, #0x30
    00000B3E 20 13            [12] 2399 	jr	NZ, 00114$
    00000B40 78               [ 4] 2400 	ld	a, b
    00000B41 3D               [ 4] 2401 	dec	a
    00000B42 20 0F            [12] 2402 	jr	NZ, 00114$
                                   2403 ;E:\Dropbox\FAUSTO\SVILUPPI\MSX\CODE\C\MSXgl\projects\soccerlgMSX2/soccerlg_s5_b3.c:139: len = SPRITE_MSG_CORNERKICK_LENGTH;
    00000B44 DD 36 F7 06      [19] 2404 	ld	-9 (ix), #0x06
                                   2405 ;E:\Dropbox\FAUSTO\SVILUPPI\MSX\CODE\C\MSXgl\projects\soccerlgMSX2/soccerlg_s5_b3.c:140: logical_y = Field.ly + 96;
    00000B48 2Ar04r00         [16] 2406 	ld	hl, (#(_Field + 4) + 0)
    00000B4B 11 60 00         [10] 2407 	ld	de, #0x0060
    00000B4E 19               [11] 2408 	add	hl, de
    00000B4F EB               [ 4] 2409 	ex	de, hl
    00000B50 C3rB5r0B         [10] 2410 	jp	00124$
    00000B53                       2411 00114$:
                                   2412 ;E:\Dropbox\FAUSTO\SVILUPPI\MSX\CODE\C\MSXgl\projects\soccerlgMSX2/soccerlg_s5_b3.c:141: } else if (messageId == SPR_MSG_INGOAL) {
    00000B53 79               [ 4] 2413 	ld	a, c
    00000B54 D6 39            [ 7] 2414 	sub	a, #0x39
    00000B56 20 13            [12] 2415 	jr	NZ, 00111$
    00000B58 78               [ 4] 2416 	ld	a, b
    00000B59 3D               [ 4] 2417 	dec	a
    00000B5A 20 0F            [12] 2418 	jr	NZ, 00111$
                                   2419 ;E:\Dropbox\FAUSTO\SVILUPPI\MSX\CODE\C\MSXgl\projects\soccerlgMSX2/soccerlg_s5_b3.c:142: len = SPRITE_MSG_INGOAL_LENGTH;
    00000B5C DD 36 F7 04      [19] 2420 	ld	-9 (ix), #0x04
                                   2421 ;E:\Dropbox\FAUSTO\SVILUPPI\MSX\CODE\C\MSXgl\projects\soccerlgMSX2/soccerlg_s5_b3.c:143: logical_y = Field.ly + 96;
    00000B60 2Ar04r00         [16] 2422 	ld	hl, (#(_Field + 4) + 0)
    00000B63 11 60 00         [10] 2423 	ld	de, #0x0060
    00000B66 19               [11] 2424 	add	hl, de
    00000B67 EB               [ 4] 2425 	ex	de, hl
    00000B68 C3rB5r0B         [10] 2426 	jp	00124$
    00000B6B                       2427 00111$:
                                   2428 ;E:\Dropbox\FAUSTO\SVILUPPI\MSX\CODE\C\MSXgl\projects\soccerlgMSX2/soccerlg_s5_b3.c:144: } else if (messageId == SPR_MSG_TIMEUP) {
    00000B6B 79               [ 4] 2429 	ld	a, c
    00000B6C D6 40            [ 7] 2430 	sub	a, #0x40
    00000B6E 20 13            [12] 2431 	jr	NZ, 00108$
    00000B70 78               [ 4] 2432 	ld	a, b
    00000B71 3D               [ 4] 2433 	dec	a
    00000B72 20 0F            [12] 2434 	jr	NZ, 00108$
                                   2435 ;E:\Dropbox\FAUSTO\SVILUPPI\MSX\CODE\C\MSXgl\projects\soccerlgMSX2/soccerlg_s5_b3.c:145: len = SPRITE_MSG_TIMEUP_LENGTH;
    00000B74 DD 36 F7 04      [19] 2436 	ld	-9 (ix), #0x04
                                   2437 ;E:\Dropbox\FAUSTO\SVILUPPI\MSX\CODE\C\MSXgl\projects\soccerlgMSX2/soccerlg_s5_b3.c:146: logical_y = Field.ly + 96;
    00000B78 2Ar04r00         [16] 2438 	ld	hl, (#(_Field + 4) + 0)
    00000B7B 11 60 00         [10] 2439 	ld	de, #0x0060
    00000B7E 19               [11] 2440 	add	hl, de
    00000B7F EB               [ 4] 2441 	ex	de, hl
    00000B80 C3rB5r0B         [10] 2442 	jp	00124$
    00000B83                       2443 00108$:
                                   2444 ;E:\Dropbox\FAUSTO\SVILUPPI\MSX\CODE\C\MSXgl\projects\soccerlgMSX2/soccerlg_s5_b3.c:147: } else if (messageId == SPR_MSG_HALFTIME) {
    00000B83 79               [ 4] 2445 	ld	a, c
    00000B84 D6 44            [ 7] 2446 	sub	a, #0x44
    00000B86 20 13            [12] 2447 	jr	NZ, 00105$
    00000B88 78               [ 4] 2448 	ld	a, b
    00000B89 3D               [ 4] 2449 	dec	a
    00000B8A 20 0F            [12] 2450 	jr	NZ, 00105$
                                   2451 ;E:\Dropbox\FAUSTO\SVILUPPI\MSX\CODE\C\MSXgl\projects\soccerlgMSX2/soccerlg_s5_b3.c:148: len = SPRITE_MSG_HALFTIME_LENGTH;
    00000B8C DD 36 F7 05      [19] 2452 	ld	-9 (ix), #0x05
                                   2453 ;E:\Dropbox\FAUSTO\SVILUPPI\MSX\CODE\C\MSXgl\projects\soccerlgMSX2/soccerlg_s5_b3.c:149: logical_y = Field.ly + 96;
    00000B90 2Ar04r00         [16] 2454 	ld	hl, (#(_Field + 4) + 0)
    00000B93 11 60 00         [10] 2455 	ld	de, #0x0060
    00000B96 19               [11] 2456 	add	hl, de
    00000B97 EB               [ 4] 2457 	ex	de, hl
    00000B98 C3rB5r0B         [10] 2458 	jp	00124$
    00000B9B                       2459 00105$:
                                   2460 ;E:\Dropbox\FAUSTO\SVILUPPI\MSX\CODE\C\MSXgl\projects\soccerlgMSX2/soccerlg_s5_b3.c:150: } else if (messageId == SPR_MSG_PENALTIES) {
    00000B9B 79               [ 4] 2461 	ld	a, c
    00000B9C D6 49            [ 7] 2462 	sub	a, #0x49
    00000B9E C2r92r0C         [10] 2463 	jp	NZ,00133$
    00000BA1 78               [ 4] 2464 	ld	a, b
    00000BA2 3D               [ 4] 2465 	dec	a
    00000BA3 C2r92r0C         [10] 2466 	jp	NZ,00133$
                                   2467 ;E:\Dropbox\FAUSTO\SVILUPPI\MSX\CODE\C\MSXgl\projects\soccerlgMSX2/soccerlg_s5_b3.c:151: len = SPRITE_MSG_PENALTIES_LENGTH;
    00000BA6 DD 36 F7 05      [19] 2468 	ld	-9 (ix), #0x05
                                   2469 ;E:\Dropbox\FAUSTO\SVILUPPI\MSX\CODE\C\MSXgl\projects\soccerlgMSX2/soccerlg_s5_b3.c:152: logical_y = Field.ly + 96;
    00000BAA 2Ar04r00         [16] 2470 	ld	hl, (#(_Field + 4) + 0)
    00000BAD 11 60 00         [10] 2471 	ld	de, #0x0060
    00000BB0 19               [11] 2472 	add	hl, de
    00000BB1 EB               [ 4] 2473 	ex	de, hl
                                   2474 ;E:\Dropbox\FAUSTO\SVILUPPI\MSX\CODE\C\MSXgl\projects\soccerlgMSX2/soccerlg_s5_b3.c:154: return;
    00000BB2 C3rB5r0B         [10] 2475 	jp	00124$
    00000BB5                       2476 00124$:
                                   2477 ;E:\Dropbox\FAUSTO\SVILUPPI\MSX\CODE\C\MSXgl\projects\soccerlgMSX2/soccerlg_s5_b3.c:157: u8 start_x = 128 - (len * 8); // Centrato orizzontalmente: 128 - (lunghezza * 16 / 2)
    00000BB5 DD 7E F7         [19] 2478 	ld	a, -9 (ix)
    00000BB8 87               [ 4] 2479 	add	a, a
    00000BB9 87               [ 4] 2480 	add	a, a
    00000BBA 87               [ 4] 2481 	add	a, a
    00000BBB 6F               [ 4] 2482 	ld	l, a
                                   2483 ;	spillPairReg hl
                                   2484 ;	spillPairReg hl
    00000BBC 3E 80            [ 7] 2485 	ld	a, #0x80
    00000BBE 95               [ 4] 2486 	sub	a, l
    00000BBF DD 77 F8         [19] 2487 	ld	-8 (ix), a
                                   2488 ;E:\Dropbox\FAUSTO\SVILUPPI\MSX\CODE\C\MSXgl\projects\soccerlgMSX2/soccerlg_s5_b3.c:159: for (u8 i = 0; i < len; i++) {
    00000BC2 DD 36 FF 00      [19] 2489 	ld	-1 (ix), #0x00
    00000BC6                       2490 00128$:
    00000BC6 DD 7E FF         [19] 2491 	ld	a, -1 (ix)
    00000BC9 DD 96 F7         [19] 2492 	sub	a, -9 (ix)
    00000BCC D2r6Br0C         [10] 2493 	jp	NC, 00125$
                                   2494 ;E:\Dropbox\FAUSTO\SVILUPPI\MSX\CODE\C\MSXgl\projects\soccerlgMSX2/soccerlg_s5_b3.c:160: SwSprite[15 + i].lx = start_x + (i * 16);
    00000BCF DD 7E FF         [19] 2495 	ld	a, -1 (ix)
    00000BD2 DD 77 FD         [19] 2496 	ld	-3 (ix), a
    00000BD5 DD 36 FE 00      [19] 2497 	ld	-2 (ix), #0x00
    00000BD9 DD 7E FD         [19] 2498 	ld	a, -3 (ix)
    00000BDC C6 0F            [ 7] 2499 	add	a, #0x0f
    00000BDE 6F               [ 4] 2500 	ld	l, a
                                   2501 ;	spillPairReg hl
                                   2502 ;	spillPairReg hl
    00000BDF DD 7E FE         [19] 2503 	ld	a, -2 (ix)
    00000BE2 CE 00            [ 7] 2504 	adc	a, #0x00
    00000BE4 67               [ 4] 2505 	ld	h, a
                                   2506 ;	spillPairReg hl
                                   2507 ;	spillPairReg hl
    00000BE5 D5               [11] 2508 	push	de
    00000BE6 5D               [ 4] 2509 	ld	e, l
    00000BE7 54               [ 4] 2510 	ld	d, h
    00000BE8 29               [11] 2511 	add	hl, hl
    00000BE9 29               [11] 2512 	add	hl, hl
    00000BEA 19               [11] 2513 	add	hl, de
    00000BEB 29               [11] 2514 	add	hl, hl
    00000BEC 19               [11] 2515 	add	hl, de
    00000BED 29               [11] 2516 	add	hl, hl
    00000BEE 19               [11] 2517 	add	hl, de
    00000BEF D1               [10] 2518 	pop	de
    00000BF0 7D               [ 4] 2519 	ld	a, l
    00000BF1 C6r00            [ 7] 2520 	add	a, #<(_SwSprite)
    00000BF3 DD 77 F9         [19] 2521 	ld	-7 (ix), a
    00000BF6 7C               [ 4] 2522 	ld	a, h
    00000BF7 CEs00            [ 7] 2523 	adc	a, #>(_SwSprite)
    00000BF9 DD 77 FA         [19] 2524 	ld	-6 (ix), a
    00000BFC DD 7E FF         [19] 2525 	ld	a, -1 (ix)
    00000BFF 87               [ 4] 2526 	add	a, a
    00000C00 87               [ 4] 2527 	add	a, a
    00000C01 87               [ 4] 2528 	add	a, a
    00000C02 87               [ 4] 2529 	add	a, a
    00000C03 DD 6E F8         [19] 2530 	ld	l, -8 (ix)
                                   2531 ;	spillPairReg hl
                                   2532 ;	spillPairReg hl
    00000C06 85               [ 4] 2533 	add	a, l
    00000C07 DD 6E F9         [19] 2534 	ld	l, -7 (ix)
    00000C0A DD 66 FA         [19] 2535 	ld	h, -6 (ix)
    00000C0D 77               [ 7] 2536 	ld	(hl), a
                                   2537 ;E:\Dropbox\FAUSTO\SVILUPPI\MSX\CODE\C\MSXgl\projects\soccerlgMSX2/soccerlg_s5_b3.c:161: SwSprite[15 + i].ly = logical_y;
    00000C0E DD 7E F9         [19] 2538 	ld	a, -7 (ix)
    00000C11 C6 04            [ 7] 2539 	add	a, #0x04
    00000C13 6F               [ 4] 2540 	ld	l, a
                                   2541 ;	spillPairReg hl
                                   2542 ;	spillPairReg hl
    00000C14 DD 7E FA         [19] 2543 	ld	a, -6 (ix)
    00000C17 CE 00            [ 7] 2544 	adc	a, #0x00
    00000C19 67               [ 4] 2545 	ld	h, a
                                   2546 ;	spillPairReg hl
                                   2547 ;	spillPairReg hl
    00000C1A 73               [ 7] 2548 	ld	(hl), e
    00000C1B 23               [ 6] 2549 	inc	hl
    00000C1C 72               [ 7] 2550 	ld	(hl), d
                                   2551 ;E:\Dropbox\FAUSTO\SVILUPPI\MSX\CODE\C\MSXgl\projects\soccerlgMSX2/soccerlg_s5_b3.c:162: SwSprite[15 + i].frame = messageId + i;
    00000C1D DD 7E F9         [19] 2552 	ld	a, -7 (ix)
    00000C20 C6 0F            [ 7] 2553 	add	a, #0x0f
    00000C22 DD 77 FB         [19] 2554 	ld	-5 (ix), a
    00000C25 DD 7E FA         [19] 2555 	ld	a, -6 (ix)
    00000C28 CE 00            [ 7] 2556 	adc	a, #0x00
    00000C2A DD 77 FC         [19] 2557 	ld	-4 (ix), a
    00000C2D DD 6E FD         [19] 2558 	ld	l, -3 (ix)
                                   2559 ;	spillPairReg hl
                                   2560 ;	spillPairReg hl
    00000C30 DD 66 FE         [19] 2561 	ld	h, -2 (ix)
                                   2562 ;	spillPairReg hl
                                   2563 ;	spillPairReg hl
    00000C33 09               [11] 2564 	add	hl, bc
    00000C34 DD 75 FD         [19] 2565 	ld	-3 (ix), l
    00000C37 DD 74 FE         [19] 2566 	ld	-2 (ix), h
    00000C3A DD 6E FB         [19] 2567 	ld	l, -5 (ix)
    00000C3D DD 66 FC         [19] 2568 	ld	h, -4 (ix)
    00000C40 DD 7E FD         [19] 2569 	ld	a, -3 (ix)
    00000C43 77               [ 7] 2570 	ld	(hl), a
    00000C44 23               [ 6] 2571 	inc	hl
    00000C45 DD 7E FE         [19] 2572 	ld	a, -2 (ix)
    00000C48 77               [ 7] 2573 	ld	(hl), a
                                   2574 ;E:\Dropbox\FAUSTO\SVILUPPI\MSX\CODE\C\MSXgl\projects\soccerlgMSX2/soccerlg_s5_b3.c:163: SwSprite[15 + i].dx = 0;
    00000C49 DD 7E F9         [19] 2575 	ld	a, -7 (ix)
    00000C4C C6 11            [ 7] 2576 	add	a, #0x11
    00000C4E 6F               [ 4] 2577 	ld	l, a
                                   2578 ;	spillPairReg hl
                                   2579 ;	spillPairReg hl
    00000C4F DD 7E FA         [19] 2580 	ld	a, -6 (ix)
    00000C52 CE 00            [ 7] 2581 	adc	a, #0x00
    00000C54 67               [ 4] 2582 	ld	h, a
    00000C55 36 00            [10] 2583 	ld	(hl), #0x00
                                   2584 ;E:\Dropbox\FAUSTO\SVILUPPI\MSX\CODE\C\MSXgl\projects\soccerlgMSX2/soccerlg_s5_b3.c:164: SwSprite[15 + i].dy = 0;
    00000C57 DD 7E F9         [19] 2585 	ld	a, -7 (ix)
    00000C5A C6 12            [ 7] 2586 	add	a, #0x12
    00000C5C 6F               [ 4] 2587 	ld	l, a
                                   2588 ;	spillPairReg hl
                                   2589 ;	spillPairReg hl
    00000C5D DD 7E FA         [19] 2590 	ld	a, -6 (ix)
    00000C60 CE 00            [ 7] 2591 	adc	a, #0x00
    00000C62 67               [ 4] 2592 	ld	h, a
    00000C63 36 00            [10] 2593 	ld	(hl), #0x00
                                   2594 ;E:\Dropbox\FAUSTO\SVILUPPI\MSX\CODE\C\MSXgl\projects\soccerlgMSX2/soccerlg_s5_b3.c:159: for (u8 i = 0; i < len; i++) {
    00000C65 DD 34 FF         [23] 2595 	inc	-1 (ix)
    00000C68 C3rC6r0B         [10] 2596 	jp	00128$
    00000C6B                       2597 00125$:
                                   2598 ;E:\Dropbox\FAUSTO\SVILUPPI\MSX\CODE\C\MSXgl\projects\soccerlgMSX2/soccerlg_s5_b3.c:168: for (u8 i = 15 + len; i < NumSprite; i++) {
    00000C6B DD 7E F7         [19] 2599 	ld	a, -9 (ix)
    00000C6E C6 0F            [ 7] 2600 	add	a, #0x0f
    00000C70 4F               [ 4] 2601 	ld	c, a
    00000C71                       2602 00131$:
    00000C71 79               [ 4] 2603 	ld	a, c
    00000C72 D6 18            [ 7] 2604 	sub	a, #0x18
    00000C74 30 1C            [12] 2605 	jr	NC, 00133$
                                   2606 ;E:\Dropbox\FAUSTO\SVILUPPI\MSX\CODE\C\MSXgl\projects\soccerlgMSX2/soccerlg_s5_b3.c:169: SwSprite[i].ly = 1000;
    00000C76 06 00            [ 7] 2607 	ld	b, #0x00
    00000C78 69               [ 4] 2608 	ld	l, c
    00000C79 60               [ 4] 2609 	ld	h, b
    00000C7A 29               [11] 2610 	add	hl, hl
    00000C7B 29               [11] 2611 	add	hl, hl
    00000C7C 09               [11] 2612 	add	hl, bc
    00000C7D 29               [11] 2613 	add	hl, hl
    00000C7E 09               [11] 2614 	add	hl, bc
    00000C7F 29               [11] 2615 	add	hl, hl
    00000C80 09               [11] 2616 	add	hl, bc
    00000C81 11r00r00         [10] 2617 	ld	de, #_SwSprite
    00000C84 19               [11] 2618 	add	hl, de
    00000C85 11 04 00         [10] 2619 	ld	de, #0x0004
    00000C88 19               [11] 2620 	add	hl, de
    00000C89 36 E8            [10] 2621 	ld	(hl), #0xe8
    00000C8B 23               [ 6] 2622 	inc	hl
    00000C8C 36 03            [10] 2623 	ld	(hl), #0x03
                                   2624 ;E:\Dropbox\FAUSTO\SVILUPPI\MSX\CODE\C\MSXgl\projects\soccerlgMSX2/soccerlg_s5_b3.c:168: for (u8 i = 15 + len; i < NumSprite; i++) {
    00000C8E 0C               [ 4] 2625 	inc	c
    00000C8F C3r71r0C         [10] 2626 	jp	00131$
    00000C92                       2627 00133$:
                                   2628 ;E:\Dropbox\FAUSTO\SVILUPPI\MSX\CODE\C\MSXgl\projects\soccerlgMSX2/soccerlg_s5_b3.c:171: }
    00000C92 DD F9            [10] 2629 	ld	sp, ix
    00000C94 DD E1            [14] 2630 	pop	ix
    00000C96 C9               [10] 2631 	ret
    00000C97                       2632 ___str_0:
    00000C97 31 2D 31              2633 	.ascii "1-1"
    00000C9A 00                    2634 	.db 0x00
                                   2635 ;E:\Dropbox\FAUSTO\SVILUPPI\MSX\CODE\C\MSXgl\projects\soccerlgMSX2/soccerlg_s5_b3.c:174: void HideSpriteMessage()
                                   2636 ;	---------------------------------
                                   2637 ; Function HideSpriteMessage
                                   2638 ; ---------------------------------
    00000C9B                       2639 _HideSpriteMessage::
                                   2640 ;E:\Dropbox\FAUSTO\SVILUPPI\MSX\CODE\C\MSXgl\projects\soccerlgMSX2/soccerlg_s5_b3.c:176: for (u8 i = 15; i < NumSprite; i++) {
    00000C9B 11r00r00         [10] 2641 	ld	de, #_SwSprite+0
    00000C9E 0E 0F            [ 7] 2642 	ld	c, #0x0f
    00000CA0                       2643 00103$:
    00000CA0 79               [ 4] 2644 	ld	a, c
    00000CA1 D6 18            [ 7] 2645 	sub	a, #0x18
    00000CA3 D0               [11] 2646 	ret	NC
                                   2647 ;E:\Dropbox\FAUSTO\SVILUPPI\MSX\CODE\C\MSXgl\projects\soccerlgMSX2/soccerlg_s5_b3.c:177: SwSprite[i].ly = 0xFFF0; // Valore "sicuro" per essere fuori schermo
    00000CA4 06 00            [ 7] 2648 	ld	b, #0x00
    00000CA6 69               [ 4] 2649 	ld	l, c
    00000CA7 60               [ 4] 2650 	ld	h, b
    00000CA8 29               [11] 2651 	add	hl, hl
    00000CA9 29               [11] 2652 	add	hl, hl
    00000CAA 09               [11] 2653 	add	hl, bc
    00000CAB 29               [11] 2654 	add	hl, hl
    00000CAC 09               [11] 2655 	add	hl, bc
    00000CAD 29               [11] 2656 	add	hl, hl
    00000CAE 09               [11] 2657 	add	hl, bc
    00000CAF 19               [11] 2658 	add	hl, de
    00000CB0 23               [ 6] 2659 	inc	hl
    00000CB1 23               [ 6] 2660 	inc	hl
    00000CB2 23               [ 6] 2661 	inc	hl
    00000CB3 23               [ 6] 2662 	inc	hl
    00000CB4 36 F0            [10] 2663 	ld	(hl), #0xf0
    00000CB6 23               [ 6] 2664 	inc	hl
    00000CB7 36 FF            [10] 2665 	ld	(hl), #0xff
                                   2666 ;E:\Dropbox\FAUSTO\SVILUPPI\MSX\CODE\C\MSXgl\projects\soccerlgMSX2/soccerlg_s5_b3.c:176: for (u8 i = 15; i < NumSprite; i++) {
    00000CB9 0C               [ 4] 2667 	inc	c
                                   2668 ;E:\Dropbox\FAUSTO\SVILUPPI\MSX\CODE\C\MSXgl\projects\soccerlgMSX2/soccerlg_s5_b3.c:179: }
    00000CBA C3rA0r0C         [10] 2669 	jp	00103$
                                   2670 	.area _SEG5
                                   2671 	.area _INITIALIZER
                                   2672 	.area _CABS (ABS)
