;--------------------------------------------------------
; File Created by SDCC : free open source ANSI-C Compiler
; Version 4.2.0 #13081 (MINGW64)
;--------------------------------------------------------
	.module soccerlg_s9_b3
	.optsdcc -mz80
	
;--------------------------------------------------------
; Public variables in this module
;--------------------------------------------------------
	.globl _CheckFieldBoundaries
	.globl _UpdateFieldCamera
	.globl _UpdateGameState_Restarts
	.globl _GetPlayerIdleFrame
	.globl _GetPlayerAnimFrame
	.globl _AssignKickOffTargets
	.globl _EventOffside
	.globl _EventHalfTime
	.globl _EventBallKicked
	.globl _EventKickOffReady
	.globl _EventPlayerFirstPresentationStarted
	.globl _FindReceiver
	.globl _SetBallSprite
	.globl _PlayerAI
	.globl _HideSpriteMessage
	.globl _ShowSpriteMessage
	.globl _CallFnc_U16_P4B
	.globl _CallFnc_U16_P4
	.globl _CallFnc_U16_P3
	.globl _CallFnc_VOID_16_P1
	.globl _CallFnc_VOID_3PTR_U16
	.globl _CallFnc_VOID_3PTR
	.globl _CallFnc_VOID_P1
	.globl _CallFnc_VOID
	.globl _g_SLTSL
	.globl _g_GRPACY
	.globl _g_GRPACX
	.globl _g_LOGOPR
	.globl _g_CMASK
	.globl _g_CLOC
	.globl _g_FNKSTR
	.globl _g_ATRBYT
	.globl _g_BDRCLR
	.globl _g_BAKCLR
	.globl _g_FORCLR
	.globl _g_CSRX
	.globl _g_CSRY
	.globl _g_CLIKSW
	.globl _g_MLTPAT
	.globl _g_MLTATR
	.globl _g_MLTCGP
	.globl _g_MLTCOL
	.globl _g_MLTNAM
	.globl _g_GRPPAT
	.globl _g_GRPATR
	.globl _g_GRPCGP
	.globl _g_GRPCOL
	.globl _g_GRPNAM
	.globl _g_T32PAT
	.globl _g_T32ATR
	.globl _g_T32CGP
	.globl _g_T32COL
	.globl _g_T32NAM
	.globl _g_TXTPAT
	.globl _g_TXTATR
	.globl _g_TXTCGP
	.globl _g_TXTCOL
	.globl _g_TXTNAM
	.globl _g_CLMLST
	.globl _g_CRTCNT
	.globl _g_LINLEN
	.globl _g_LINL32
	.globl _g_LINL40
	.globl _g_BDOS
	.globl _g_MASTER
	.globl _g_RAMAD3
	.globl _g_RAMAD2
	.globl _g_RAMAD1
	.globl _g_RAMAD0
	.globl _g_BREAKV
	.globl _g_DISKVE
	.globl _g_KANJTABLE
	.globl _g_STRSRC
	.globl _g_SUBRID
	.globl _g_CHAR_16
	.globl _g_MSXMID
	.globl _g_MSXVER
	.globl _g_ROMVersion
	.globl _g_BASRVN
	.globl _g_VDP_DW
	.globl _g_VDP_DR
	.globl _g_CGTABL
	.globl _g_SVFFFD
	.globl _g_RG27SAV
	.globl _g_RG26SAV
	.globl _g_RG25SAV
	.globl _g_SVFFF8
	.globl _g_MINROM
	.globl _g_RG23SAV
	.globl _g_RG22SAV
	.globl _g_RG21SAV
	.globl _g_RG20SAV
	.globl _g_RG19SAV
	.globl _g_RG18SAV
	.globl _g_RG17SAV
	.globl _g_RG16SAV
	.globl _g_RG15SAV
	.globl _g_RG14SAV
	.globl _g_RG13SAV
	.globl _g_RG12SAV
	.globl _g_RG11SAV
	.globl _g_RG10SAV
	.globl _g_RG09SAV
	.globl _g_RG08SAV
	.globl _g_PROCNM
	.globl _g_SLTWRK
	.globl _g_SLTATR
	.globl _g_SLTTBL
	.globl _g_EXPTBL
	.globl _g_MNROM
	.globl _g_DRWANG
	.globl _g_DRWSCL
	.globl _g_DRWFLG
	.globl _g_GYPOS
	.globl _g_GXPOS
	.globl _g_BRDATR
	.globl _g_CASPRV
	.globl _g_OLDSCR
	.globl _g_SCRMOD
	.globl _g_FLBMEM
	.globl _g_KANAMD
	.globl _g_KANAST
	.globl _g_CAPST
	.globl _g_CSTYLE
	.globl _g_CSRSW
	.globl _g_INSFLG
	.globl _g_ESCCNT
	.globl _g_GRPHED
	.globl _g_WINWID
	.globl _g_LOWLIM
	.globl _g_INTCNT
	.globl _g_INTVAL
	.globl _g_JIFFY
	.globl _g_PADX
	.globl _g_PADY
	.globl _g_INTFLG
	.globl _g_RTYCNT
	.globl _g_TRPTBL
	.globl _g_HIMEM
	.globl _g_BOTTOM
	.globl _g_PATWRK
	.globl _g_LINWRK
	.globl _g_KEYBUF
	.globl _g_NEWKEY
	.globl _g_OLDKEY
	.globl _g_CLIKFL
	.globl _g_ONGSBF
	.globl _g_FNKFLG
	.globl _g_FNKSWI
	.globl _g_CODSAV
	.globl _g_FSTPOS
	.globl _g_LINTTB
	.globl _g_BASROM
	.globl _g_ENSTOP
	.globl _g_VCBC
	.globl _g_VCBB
	.globl _g_VCBA
	.globl _g_PLYCNT
	.globl _g_MUSICF
	.globl _g_QUEUEN
	.globl _g_MCLPTR
	.globl _g_MCLLEN
	.globl _g_SAVVOL
	.globl _g_VOICEN
	.globl _g_SAVSP
	.globl _g_PRSCNT
	.globl _g_LSTMOD
	.globl _g_LSTCOM
	.globl _g_COMMSK
	.globl _g_ESTBLS
	.globl _g_FLAGS
	.globl _g_ERRORS
	.globl _g_DATCNT
	.globl _g_DEVNUM
	.globl _g_OLDINT
	.globl _g_OLDSTT
	.globl _g_MEXBIh
	.globl _g_RSIQLN
	.globl _g_RSFCB
	.globl _g_TOCNT
	.globl _g_RSTMP
	.globl _g_YSAVE
	.globl _g_XSAVE
	.globl _g_NORUSE
	.globl _g_MODE
	.globl _g_ROMA
	.globl _g_CHRCNT
	.globl _g_EXBRSA
	.globl _g_AVCSAV
	.globl _g_ACPAGE
	.globl _g_DPPAGE
	.globl _g_RS2IQ
	.globl _g_VOICCQ
	.globl _g_VOICBQ
	.globl _g_VOICAQ
	.globl _g_QUEBAK
	.globl _g_QUETAB
	.globl _g_ASPCT2
	.globl _g_ASPCT1
	.globl _g_HEADER
	.globl _g_HIGH
	.globl _g_LOW
	.globl _g_CS240
	.globl _g_CS120
	.globl _g_GETPNT
	.globl _g_PUTPNT
	.globl _g_REPCNT
	.globl _g_SCNCNT
	.globl _g_FRCNEW
	.globl _g_QUEUES
	.globl _g_MINUPD
	.globl _g_MAXUPD
	.globl _g_TRGFLG
	.globl _g_STATFL
	.globl _g_RG7SAV
	.globl _g_RG6SAV
	.globl _g_RG5SAV
	.globl _g_RG4SAV
	.globl _g_RG3SAV
	.globl _g_RG2SAV
	.globl _g_RG1SAV
	.globl _g_RG0SAV
	.globl _g_CNSDFG
	.globl _g_USRTAB
	.globl _g_CLPRIM
	.globl _g_WRPRIM
	.globl _g_RDPRIM
	.globl _UpdateGameState
;--------------------------------------------------------
; special function registers
;--------------------------------------------------------
_g_PortPrimarySlot	=	0x00a8
_g_PortReadKeyboard	=	0x00a9
_g_PortAccessKeyboard	=	0x00aa
_g_PortControl	=	0x00ab
_g_VDP_DataPort	=	0x0098
_g_VDP_RegPort	=	0x0099
_g_VDP_AddrPort	=	0x0099
_g_VDP_StatPort	=	0x0099
_g_VDP_PalPort	=	0x009a
_g_VDP_IRegPort	=	0x009b
_g_PSG_RegPort	=	0x00a0
_g_PSG_DataPort	=	0x00a1
_g_PSG_StatPort	=	0x00a2
_g_PSG_Ext_RegPort	=	0x0010
_g_PSG_Ext_DataPort	=	0x0011
_g_PSG_Ext_StatPort	=	0x0012
_g_MSXMusic_IndexPort	=	0x007c
_g_MSXMusic_DataPort	=	0x007d
_g_MSXAudio_IndexPort	=	0x00c0
_g_MSXAudio_DataPort	=	0x00c1
_g_MSXAudio_IndexPort2	=	0x00c2
_g_MSXAudio_DataPort2	=	0x00c3
_g_RTC_AddrPort	=	0x00b4
_g_RTC_DataPort	=	0x00b5
;--------------------------------------------------------
; ram data
;--------------------------------------------------------
	.area _DATA
_g_LINL40	=	0xf3ae
_g_LINL32	=	0xf3af
_g_LINLEN	=	0xf3b0
_g_CRTCNT	=	0xf3b1
_g_CLMLST	=	0xf3b2
_g_TXTNAM	=	0xf3b3
_g_TXTCOL	=	0xf3b5
_g_TXTCGP	=	0xf3b7
_g_TXTATR	=	0xf3b9
_g_TXTPAT	=	0xf3bb
_g_T32NAM	=	0xf3bd
_g_T32COL	=	0xf3bf
_g_T32CGP	=	0xf3c1
_g_T32ATR	=	0xf3c3
_g_T32PAT	=	0xf3c5
_g_GRPNAM	=	0xf3c7
_g_GRPCOL	=	0xf3c9
_g_GRPCGP	=	0xf3cb
_g_GRPATR	=	0xf3cd
_g_GRPPAT	=	0xf3cf
_g_MLTNAM	=	0xf3d1
_g_MLTCOL	=	0xf3d3
_g_MLTCGP	=	0xf3d5
_g_MLTATR	=	0xf3d7
_g_MLTPAT	=	0xf3d9
_g_CLIKSW	=	0xf3db
_g_CSRY	=	0xf3dc
_g_CSRX	=	0xf3dd
_g_FORCLR	=	0xf3e9
_g_BAKCLR	=	0xf3ea
_g_BDRCLR	=	0xf3eb
_g_ATRBYT	=	0xf3f2
_g_FNKSTR	=	0xf87f
_g_CLOC	=	0xf92a
_g_CMASK	=	0xf92c
_g_LOGOPR	=	0xfb02
_g_GRPACX	=	0xfcb7
_g_GRPACY	=	0xfcb9
_g_SLTSL	=	0xffff
;--------------------------------------------------------
; ram data
;--------------------------------------------------------
	.area _INITIALIZED
;--------------------------------------------------------
; absolute external ram data
;--------------------------------------------------------
	.area _DABS (ABS)
;--------------------------------------------------------
; global & static initialisations
;--------------------------------------------------------
	.area _HOME
	.area _GSINIT
	.area _GSFINAL
	.area _GSINIT
;--------------------------------------------------------
; Home
;--------------------------------------------------------
	.area _HOME
	.area _HOME
;--------------------------------------------------------
; code
;--------------------------------------------------------
	.area _SEG9
;E:\Dropbox\FAUSTO\SVILUPPI\MSX\CODE\C\MSXgl\projects\soccerlgMSX2/soccerlg_s9_b3.c:11: void UpdateGameState(u8* game_state, u8* wait_secs, u8* start_sec, u16 target_ly) 
;	---------------------------------
; Function UpdateGameState
; ---------------------------------
_UpdateGameState::
	push	ix
	ld	ix,#0
	add	ix,sp
	ld	iy, #-37
	add	iy, sp
	ld	sp, iy
	ld	-3 (ix), l
	ld	-2 (ix), h
	ld	-5 (ix), e
	ld	-4 (ix), d
;E:\Dropbox\FAUSTO\SVILUPPI\MSX\CODE\C\MSXgl\projects\soccerlgMSX2/soccerlg_s9_b3.c:13: if (*game_state == 0) {
	ld	l, -3 (ix)
	ld	h, -2 (ix)
	ld	a, (hl)
	ld	-1 (ix), a
	or	a, a
	jp	NZ, 00442$
;E:\Dropbox\FAUSTO\SVILUPPI\MSX\CODE\C\MSXgl\projects\soccerlgMSX2/soccerlg_s9_b3.c:14: if (Field.ly >= target_ly) {
	ld	hl, #(_Field + 4)
	ld	a, (hl)
	ld	-9 (ix), a
	inc	hl
	ld	a, (hl)
	ld	-8 (ix), a
;E:\Dropbox\FAUSTO\SVILUPPI\MSX\CODE\C\MSXgl\projects\soccerlgMSX2/soccerlg_s9_b3.c:15: Field.dy = 0; // Ferma lo scorrimento
;E:\Dropbox\FAUSTO\SVILUPPI\MSX\CODE\C\MSXgl\projects\soccerlgMSX2/soccerlg_s9_b3.c:14: if (Field.ly >= target_ly) {
	ld	a, -9 (ix)
	sub	a, 6 (ix)
	ld	a, -8 (ix)
	sbc	a, 7 (ix)
	jr	C, 00102$
;E:\Dropbox\FAUSTO\SVILUPPI\MSX\CODE\C\MSXgl\projects\soccerlgMSX2/soccerlg_s9_b3.c:15: Field.dy = 0; // Ferma lo scorrimento
	ld	hl, #(_Field + 18)
	ld	(hl), #0x00
;E:\Dropbox\FAUSTO\SVILUPPI\MSX\CODE\C\MSXgl\projects\soccerlgMSX2/soccerlg_s9_b3.c:16: *game_state = 1;
	ld	l, -3 (ix)
	ld	h, -2 (ix)
	ld	(hl), #0x01
;E:\Dropbox\FAUSTO\SVILUPPI\MSX\CODE\C\MSXgl\projects\soccerlgMSX2/soccerlg_s9_b3.c:17: *wait_secs = 2; 
	ld	l, -5 (ix)
	ld	h, -4 (ix)
	ld	(hl), #0x02
;E:\Dropbox\FAUSTO\SVILUPPI\MSX\CODE\C\MSXgl\projects\soccerlgMSX2/soccerlg_s9_b3.c:18: *start_sec = Frms;
	ld	c, 4 (ix)
	ld	b, 5 (ix)
	ld	a, (_Frms+0)
	ld	(bc), a
	jp	00459$
00102$:
;E:\Dropbox\FAUSTO\SVILUPPI\MSX\CODE\C\MSXgl\projects\soccerlgMSX2/soccerlg_s9_b3.c:20: Field.ly += Field.dy;
	ld	a, (#(_Field + 18) + 0)
	ld	-1 (ix), a
	ld	-7 (ix), a
	rlca
	sbc	a, a
	ld	-6 (ix), a
	ld	a, -9 (ix)
	ld	-11 (ix), a
	ld	a, -8 (ix)
	ld	-10 (ix), a
	ld	a, -7 (ix)
	ld	-9 (ix), a
	ld	a, -6 (ix)
	ld	-8 (ix), a
	ld	a, -9 (ix)
	add	a, -11 (ix)
	ld	-7 (ix), a
	ld	a, -8 (ix)
	adc	a, -10 (ix)
	ld	-6 (ix), a
	ld	hl, #(_Field + 4)
	ld	a, -7 (ix)
	ld	(hl), a
	inc	hl
	ld	a, -6 (ix)
	ld	(hl), a
	jp	00459$
00442$:
;E:\Dropbox\FAUSTO\SVILUPPI\MSX\CODE\C\MSXgl\projects\soccerlgMSX2/soccerlg_s9_b3.c:24: } else if (*game_state == 1) {
	ld	a, -1 (ix)
	dec	a
	jr	NZ, 00439$
;E:\Dropbox\FAUSTO\SVILUPPI\MSX\CODE\C\MSXgl\projects\soccerlgMSX2/soccerlg_s9_b3.c:25: if (*start_sec < Frms) { // Frms wrapped from 1 to 60
	ld	a, 4 (ix)
	ld	-7 (ix), a
	ld	a, 5 (ix)
	ld	-6 (ix), a
	ld	l, -7 (ix)
	ld	h, -6 (ix)
	ld	c, (hl)
	ld	hl, #_Frms
	ld	a, c
	sub	a, (hl)
	jr	NC, 00107$
;E:\Dropbox\FAUSTO\SVILUPPI\MSX\CODE\C\MSXgl\projects\soccerlgMSX2/soccerlg_s9_b3.c:26: (*wait_secs)--;
	ld	l, -5 (ix)
	ld	h, -4 (ix)
	ld	a, (hl)
	dec	a
	ld	l, -5 (ix)
	ld	h, -4 (ix)
	ld	(hl), a
;E:\Dropbox\FAUSTO\SVILUPPI\MSX\CODE\C\MSXgl\projects\soccerlgMSX2/soccerlg_s9_b3.c:27: if (*wait_secs == 0) {
	or	a, a
	jr	NZ, 00107$
;E:\Dropbox\FAUSTO\SVILUPPI\MSX\CODE\C\MSXgl\projects\soccerlgMSX2/soccerlg_s9_b3.c:28: *game_state = 2; // Passa al posizionamento
	ld	l, -3 (ix)
	ld	h, -2 (ix)
	ld	(hl), #0x02
;E:\Dropbox\FAUSTO\SVILUPPI\MSX\CODE\C\MSXgl\projects\soccerlgMSX2/soccerlg_s9_b3.c:29: CallFnc_VOID(SEG_EVENTS, EventPlayerFirstPresentationStarted);
	ld	de, #_EventPlayerFirstPresentationStarted
	ld	a, #0x08
	call	_CallFnc_VOID
;E:\Dropbox\FAUSTO\SVILUPPI\MSX\CODE\C\MSXgl\projects\soccerlgMSX2/soccerlg_s9_b3.c:30: CallFnc_VOID(SEG_GAMESTATE_2, AssignKickOffTargets);
	ld	de, #_AssignKickOffTargets
	ld	a, #0x0b
	call	_CallFnc_VOID
00107$:
;E:\Dropbox\FAUSTO\SVILUPPI\MSX\CODE\C\MSXgl\projects\soccerlgMSX2/soccerlg_s9_b3.c:33: *start_sec = Frms;
	ld	l, -7 (ix)
	ld	h, -6 (ix)
	ld	a, (_Frms+0)
	ld	(hl), a
	jp	00459$
00439$:
;E:\Dropbox\FAUSTO\SVILUPPI\MSX\CODE\C\MSXgl\projects\soccerlgMSX2/soccerlg_s9_b3.c:34: } else if (*game_state == 2) {
	ld	a, -1 (ix)
	sub	a, #0x02
	jp	NZ,00436$
;E:\Dropbox\FAUSTO\SVILUPPI\MSX\CODE\C\MSXgl\projects\soccerlgMSX2/soccerlg_s9_b3.c:35: bool all_in_position = TRUE;
	ld	-20 (ix), #0x01
;E:\Dropbox\FAUSTO\SVILUPPI\MSX\CODE\C\MSXgl\projects\soccerlgMSX2/soccerlg_s9_b3.c:38: u16 ball_ref_x = (RestartType == RESTART_GKSAVE) ? RestartSideX : SwSprite[14].lx;
	ld	a, (_RestartType+0)
	sub	a, #0x04
	ld	a, #0x01
	jr	Z, 01695$
	xor	a, a
01695$:
	ld	c, a
	or	a, a
	jr	Z, 00461$
	ld	a, (_RestartSideX+0)
	jp	00462$
00461$:
	ld	a, (#(_SwSprite + 322) + 0)
00462$:
	ld	d, a
	ld	e, #0x00
;E:\Dropbox\FAUSTO\SVILUPPI\MSX\CODE\C\MSXgl\projects\soccerlgMSX2/soccerlg_s9_b3.c:39: u16 ball_ref_y = (RestartType == RESTART_GKSAVE) ? RestartSideY : SwSprite[14].ly;
	ld	a, c
	or	a, a
	jr	Z, 00463$
	ld	hl, (_RestartSideY)
	ld	-7 (ix), l
	ld	-6 (ix), h
	jp	00464$
00463$:
	ld	hl, #(_SwSprite + 326)
	ld	a, (hl)
	ld	-7 (ix), a
	inc	hl
	ld	a, (hl)
	ld	-6 (ix), a
00464$:
	ld	c, -7 (ix)
	ld	b, -6 (ix)
;E:\Dropbox\FAUSTO\SVILUPPI\MSX\CODE\C\MSXgl\projects\soccerlgMSX2/soccerlg_s9_b3.c:40: u16 ref_tx = (ball_ref_x < 128) ? (ball_ref_x + 40) : (ball_ref_x - 40);
	ld	a, d
	sub	a, #0x80
	ld	a, e
	sbc	a, #0x00
	jr	NC, 00465$
	ld	l, d
	ld	h, e
	ld	de, #0x0028
	add	hl, de
	jp	00466$
00465$:
	ld	a, d
	add	a, #0xd8
	ld	l, a
;	spillPairReg hl
;	spillPairReg hl
	ld	a, e
	adc	a, #0xff
	ld	h, a
;	spillPairReg hl
;	spillPairReg hl
00466$:
	ex	de, hl
;E:\Dropbox\FAUSTO\SVILUPPI\MSX\CODE\C\MSXgl\projects\soccerlgMSX2/soccerlg_s9_b3.c:41: u16 ref_ty = (ball_ref_y < 256) ? (ball_ref_y + 48) : (ball_ref_y - 48);
	ld	a, b
	sub	a, #0x01
	jr	NC, 00467$
	ld	hl, #0x0030
	add	hl, bc
	ld	c, l
	ld	a, h
	jp	00468$
00467$:
	ld	a, c
	add	a, #0xd0
	ld	c, a
	ld	a, b
	adc	a, #0xff
00468$:
	ld	b, a
;E:\Dropbox\FAUSTO\SVILUPPI\MSX\CODE\C\MSXgl\projects\soccerlgMSX2/soccerlg_s9_b3.c:42: if (ref_tx < 16) ref_tx = 16;
	ld	l, e
;	spillPairReg hl
;	spillPairReg hl
	ld	h, d
;	spillPairReg hl
;	spillPairReg hl
	ld	a, l
	sub	a, #0x10
	ld	a, h
	sbc	a, #0x00
	jr	NC, 00109$
	ld	de, #0x0010
00109$:
;E:\Dropbox\FAUSTO\SVILUPPI\MSX\CODE\C\MSXgl\projects\soccerlgMSX2/soccerlg_s9_b3.c:43: if (ref_tx > 240) ref_tx = 240;
	ld	l, e
;	spillPairReg hl
;	spillPairReg hl
	ld	h, d
;	spillPairReg hl
;	spillPairReg hl
	ld	a, #0xf0
	cp	a, l
	ld	a, #0x00
	sbc	a, h
	jr	NC, 00111$
	ld	de, #0x00f0
00111$:
;E:\Dropbox\FAUSTO\SVILUPPI\MSX\CODE\C\MSXgl\projects\soccerlgMSX2/soccerlg_s9_b3.c:44: if (ref_ty < 24) ref_ty = 24;
	ld	l, c
;	spillPairReg hl
;	spillPairReg hl
	ld	h, b
;	spillPairReg hl
;	spillPairReg hl
	ld	a, l
	sub	a, #0x18
	ld	a, h
	sbc	a, #0x00
	jr	NC, 00113$
	ld	bc, #0x0018
00113$:
;E:\Dropbox\FAUSTO\SVILUPPI\MSX\CODE\C\MSXgl\projects\soccerlgMSX2/soccerlg_s9_b3.c:45: if (ref_ty > 488) ref_ty = 488;
	ld	l, c
;	spillPairReg hl
;	spillPairReg hl
	ld	h, b
;	spillPairReg hl
;	spillPairReg hl
	ld	a, #0xe8
	cp	a, l
	ld	a, #0x01
	sbc	a, h
	jr	NC, 00115$
	ld	bc, #0x01e8
00115$:
;E:\Dropbox\FAUSTO\SVILUPPI\MSX\CODE\C\MSXgl\projects\soccerlgMSX2/soccerlg_s9_b3.c:46: SwSprite[26].tx = ref_tx;
	ld	hl, #_SwSprite + 610
	ld	(hl), e
;E:\Dropbox\FAUSTO\SVILUPPI\MSX\CODE\C\MSXgl\projects\soccerlgMSX2/soccerlg_s9_b3.c:47: SwSprite[26].ty = ref_ty;
	ld	((_SwSprite + 611)), bc
;E:\Dropbox\FAUSTO\SVILUPPI\MSX\CODE\C\MSXgl\projects\soccerlgMSX2/soccerlg_s9_b3.c:49: for (u8 i = 0; i <= 26; i++) {
	ld	-1 (ix), #0x00
00445$:
	ld	a, #0x1a
	sub	a, -1 (ix)
	jp	C, 00152$
;E:\Dropbox\FAUSTO\SVILUPPI\MSX\CODE\C\MSXgl\projects\soccerlgMSX2/soccerlg_s9_b3.c:50: if (i >= 14 && i < 26) continue;
	ld	a, -1 (ix)
	sub	a, #0x0e
	jr	C, 00117$
	ld	a, -1 (ix)
	sub	a, #0x1a
	jp	C, 00151$
00117$:
;E:\Dropbox\FAUSTO\SVILUPPI\MSX\CODE\C\MSXgl\projects\soccerlgMSX2/soccerlg_s9_b3.c:51: struct ObjectInfo* p = &SwSprite[i];
	ld	c, -1 (ix)
	ld	b, #0x00
	ld	l, c
	ld	h, b
	add	hl, hl
	add	hl, hl
	add	hl, bc
	add	hl, hl
	add	hl, bc
	add	hl, hl
	add	hl, bc
	ld	de, #_SwSprite
	add	hl, de
;E:\Dropbox\FAUSTO\SVILUPPI\MSX\CODE\C\MSXgl\projects\soccerlgMSX2/soccerlg_s9_b3.c:52: if (p->lx != p->tx || p->ly != p->ty) {
	ld	-22 (ix), l
	ld	-21 (ix), h
	ld	a, (hl)
	ld	-19 (ix), a
	ld	c, -22 (ix)
	ld	b, -21 (ix)
	ld	hl, #12
	add	hl, bc
	ld	c, (hl)
	ld	a, -22 (ix)
	add	a, #0x04
	ld	-9 (ix), a
	ld	a, -21 (ix)
	adc	a, #0x00
	ld	-8 (ix), a
	ld	a, -22 (ix)
	add	a, #0x0d
	ld	b, a
	ld	a, -21 (ix)
	adc	a, #0x00
	ld	e, a
;E:\Dropbox\FAUSTO\SVILUPPI\MSX\CODE\C\MSXgl\projects\soccerlgMSX2/soccerlg_s9_b3.c:55: if (p->tx > p->lx) p->dx = (p->tx - p->lx >= 2) ? 2 : (p->tx - p->lx);
	ld	a, -22 (ix)
	add	a, #0x11
	ld	-18 (ix), a
	ld	a, -21 (ix)
	adc	a, #0x00
	ld	-17 (ix), a
;E:\Dropbox\FAUSTO\SVILUPPI\MSX\CODE\C\MSXgl\projects\soccerlgMSX2/soccerlg_s9_b3.c:59: if (p->ty > p->ly) p->dy = (p->ty - p->ly >= 2) ? 2 : (p->ty - p->ly);
	ld	a, -22 (ix)
	add	a, #0x12
	ld	-16 (ix), a
	ld	a, -21 (ix)
	adc	a, #0x00
	ld	-15 (ix), a
;E:\Dropbox\FAUSTO\SVILUPPI\MSX\CODE\C\MSXgl\projects\soccerlgMSX2/soccerlg_s9_b3.c:68: p->frame = CallFnc_U16_P4(SEG_GAMESTATE_2, GetPlayerAnimFrame, i, p->dx, p->dy, walk_seq[(p->anim / 3) % 4]); 
	ld	a, -22 (ix)
	add	a, #0x0f
	ld	-14 (ix), a
	ld	a, -21 (ix)
	adc	a, #0x00
	ld	-13 (ix), a
;E:\Dropbox\FAUSTO\SVILUPPI\MSX\CODE\C\MSXgl\projects\soccerlgMSX2/soccerlg_s9_b3.c:52: if (p->lx != p->tx || p->ly != p->ty) {
	ld	a, -19 (ix)
	sub	a, c
	jr	NZ, 00147$
	ld	l, -9 (ix)
	ld	h, -8 (ix)
	ld	a, (hl)
	ld	-12 (ix), a
	inc	hl
	ld	a, (hl)
	ld	-11 (ix), a
	ld	l, b
	ld	h, e
	ld	a, (hl)
	ld	-7 (ix), a
	inc	hl
	ld	a, (hl)
	ld	-6 (ix), a
	ld	a, -12 (ix)
	sub	a, -7 (ix)
	jr	NZ, 01698$
	ld	a, -11 (ix)
	sub	a, -6 (ix)
	jp	Z,00148$
01698$:
00147$:
;E:\Dropbox\FAUSTO\SVILUPPI\MSX\CODE\C\MSXgl\projects\soccerlgMSX2/soccerlg_s9_b3.c:53: all_in_position = FALSE;
	ld	-20 (ix), #0x00
;E:\Dropbox\FAUSTO\SVILUPPI\MSX\CODE\C\MSXgl\projects\soccerlgMSX2/soccerlg_s9_b3.c:55: if (p->tx > p->lx) p->dx = (p->tx - p->lx >= 2) ? 2 : (p->tx - p->lx);
	ld	a, -19 (ix)
	sub	a, c
	jr	NC, 00123$
	ld	a, c
	ld	d, #0x00
	ld	l, -19 (ix)
;	spillPairReg hl
;	spillPairReg hl
	ld	h, #0x00
;	spillPairReg hl
;	spillPairReg hl
	sub	a, l
	ld	l, a
;	spillPairReg hl
;	spillPairReg hl
	ld	a, d
	sbc	a, h
	ld	d, a
	ld	a, l
	sub	a, #0x02
	ld	a, d
	rla
	ccf
	rra
	sbc	a, #0x80
	jr	C, 00469$
	ld	a, #0x02
	ld	d, #0x00
	jp	00470$
00469$:
	ld	a, c
	sub	a, -19 (ix)
	ld	d, #0x00
00470$:
	ld	l, -18 (ix)
	ld	h, -17 (ix)
	ld	(hl), a
	jp	00124$
00123$:
;E:\Dropbox\FAUSTO\SVILUPPI\MSX\CODE\C\MSXgl\projects\soccerlgMSX2/soccerlg_s9_b3.c:56: else if (p->tx < p->lx) p->dx = (p->lx - p->tx >= 2) ? -2 : -(p->lx - p->tx);
	ld	a, c
	sub	a, -19 (ix)
	jr	NC, 00120$
	ld	a, -19 (ix)
	ld	l, #0x00
;	spillPairReg hl
;	spillPairReg hl
	ld	d, c
	ld	h, #0x00
;	spillPairReg hl
;	spillPairReg hl
	sub	a, d
	ld	d, a
	ld	a, l
	sbc	a, h
	ld	l, a
;	spillPairReg hl
;	spillPairReg hl
	ld	a, d
	sub	a, #0x02
	ld	a, l
	rla
	ccf
	rra
	sbc	a, #0x80
	jr	C, 00471$
	ld	a, #0xfe
	jp	00472$
00471$:
	ld	a, -19 (ix)
	sub	a, c
	neg
00472$:
	ld	l, -18 (ix)
	ld	h, -17 (ix)
	ld	(hl), a
	jp	00124$
00120$:
;E:\Dropbox\FAUSTO\SVILUPPI\MSX\CODE\C\MSXgl\projects\soccerlgMSX2/soccerlg_s9_b3.c:57: else p->dx = 0;
	ld	l, -18 (ix)
	ld	h, -17 (ix)
	ld	(hl), #0x00
00124$:
;E:\Dropbox\FAUSTO\SVILUPPI\MSX\CODE\C\MSXgl\projects\soccerlgMSX2/soccerlg_s9_b3.c:59: if (p->ty > p->ly) p->dy = (p->ty - p->ly >= 2) ? 2 : (p->ty - p->ly);
	ld	l, b
	ld	h, e
	ld	a, (hl)
	ld	-11 (ix), a
	inc	hl
	ld	a, (hl)
	ld	-10 (ix), a
	ld	l, -9 (ix)
	ld	h, -8 (ix)
	ld	a, (hl)
	ld	-7 (ix), a
	inc	hl
	ld	a, (hl)
	ld	-6 (ix), a
	ld	a, -7 (ix)
	sub	a, -11 (ix)
	ld	a, -6 (ix)
	sbc	a, -10 (ix)
	jr	NC, 00129$
	ld	a, -11 (ix)
	sub	a, -7 (ix)
	ld	c, a
	ld	a, -10 (ix)
	sbc	a, -6 (ix)
	ld	b, a
	ld	a, c
	sub	a, #0x02
	ld	a, b
	sbc	a, #0x00
	jr	C, 00473$
	ld	a, #0x02
	jp	00474$
00473$:
	ld	a, -11 (ix)
	ld	c, -7 (ix)
	sub	a, c
00474$:
	ld	l, -16 (ix)
	ld	h, -15 (ix)
	ld	(hl), a
	jp	00130$
00129$:
;E:\Dropbox\FAUSTO\SVILUPPI\MSX\CODE\C\MSXgl\projects\soccerlgMSX2/soccerlg_s9_b3.c:60: else if (p->ty < p->ly) p->dy = (p->ly - p->ty >= 2) ? -2 : -(p->ly - p->ty);
	ld	a, -11 (ix)
	sub	a, -7 (ix)
	ld	a, -10 (ix)
	sbc	a, -6 (ix)
	jr	NC, 00126$
	ld	a, -7 (ix)
	sub	a, -11 (ix)
	ld	c, a
	ld	a, -6 (ix)
	sbc	a, -10 (ix)
	ld	b, a
	ld	a, c
	sub	a, #0x02
	ld	a, b
	sbc	a, #0x00
	jr	C, 00475$
	ld	a, #0xfe
	jp	00476$
00475$:
	ld	a, -7 (ix)
	ld	c, -11 (ix)
	sub	a, c
	neg
00476$:
	ld	l, -16 (ix)
	ld	h, -15 (ix)
	ld	(hl), a
	jp	00130$
00126$:
;E:\Dropbox\FAUSTO\SVILUPPI\MSX\CODE\C\MSXgl\projects\soccerlgMSX2/soccerlg_s9_b3.c:61: else p->dy = 0;
	ld	l, -16 (ix)
	ld	h, -15 (ix)
	ld	(hl), #0x00
00130$:
;E:\Dropbox\FAUSTO\SVILUPPI\MSX\CODE\C\MSXgl\projects\soccerlgMSX2/soccerlg_s9_b3.c:63: p->lx += p->dx;
	ld	l, -22 (ix)
	ld	h, -21 (ix)
	ld	c, (hl)
	ld	l, -18 (ix)
	ld	h, -17 (ix)
	ld	a, (hl)
	add	a, c
	ld	l, -22 (ix)
	ld	h, -21 (ix)
	ld	(hl), a
;E:\Dropbox\FAUSTO\SVILUPPI\MSX\CODE\C\MSXgl\projects\soccerlgMSX2/soccerlg_s9_b3.c:64: p->ly += p->dy;
	ld	l, -9 (ix)
	ld	h, -8 (ix)
	ld	c, (hl)
	inc	hl
	ld	b, (hl)
	ld	l, -16 (ix)
	ld	h, -15 (ix)
	ld	a, (hl)
	ld	l, a
;	spillPairReg hl
;	spillPairReg hl
	rlca
	sbc	a, a
	ld	h, a
;	spillPairReg hl
;	spillPairReg hl
	add	hl, bc
	ex	de, hl
	ld	l, -9 (ix)
	ld	h, -8 (ix)
	ld	(hl), e
	inc	hl
	ld	(hl), d
;E:\Dropbox\FAUSTO\SVILUPPI\MSX\CODE\C\MSXgl\projects\soccerlgMSX2/soccerlg_s9_b3.c:65: p->anim++;
	ld	l, -22 (ix)
	ld	h, -21 (ix)
	ld	de, #0x0013
	add	hl, de
	ld	e, (hl)
	inc	hl
	ld	d, (hl)
	dec	hl
	inc	de
	ld	(hl), e
	inc	hl
	ld	(hl), d
;E:\Dropbox\FAUSTO\SVILUPPI\MSX\CODE\C\MSXgl\projects\soccerlgMSX2/soccerlg_s9_b3.c:67: const u8 walk_seq[4] = {0, 1, 2, 1}; // 1->2->3->2->1...
	ld	-27 (ix), #0x00
	ld	-26 (ix), #0x01
	ld	-25 (ix), #0x02
	ld	-24 (ix), #0x01
;E:\Dropbox\FAUSTO\SVILUPPI\MSX\CODE\C\MSXgl\projects\soccerlgMSX2/soccerlg_s9_b3.c:68: p->frame = CallFnc_U16_P4(SEG_GAMESTATE_2, GetPlayerAnimFrame, i, p->dx, p->dy, walk_seq[(p->anim / 3) % 4]); 
	ex	de, hl
	ld	de, #0x0003
	call	__divuint
	ld	a, e
	and	a, #0x03
	ld	c, a
	ld	b, #0x00
	ld	hl, #10
	add	hl, sp
	add	hl, bc
	ld	d, (hl)
	ld	l, -16 (ix)
	ld	h, -15 (ix)
	ld	b, (hl)
	ld	l, -18 (ix)
	ld	h, -17 (ix)
	ld	a, (hl)
	ld	e, b
	push	de
	push	af
	inc	sp
	ld	a, -1 (ix)
	push	af
	inc	sp
	ld	de, #_GetPlayerAnimFrame
	ld	a, #0x0b
	call	_CallFnc_U16_P4
	ld	l, -14 (ix)
	ld	h, -13 (ix)
	ld	(hl), e
	inc	hl
	ld	(hl), d
	jp	00151$
00148$:
;E:\Dropbox\FAUSTO\SVILUPPI\MSX\CODE\C\MSXgl\projects\soccerlgMSX2/soccerlg_s9_b3.c:70: i8 dir_x = (SwSprite[14].lx > p->lx) ? 1 : ((SwSprite[14].lx < p->lx) ? -1 : 0);
	ld	a, (#_SwSprite + 322)
	ld	-10 (ix), a
	ld	a, -19 (ix)
	sub	a, -10 (ix)
	jr	NC, 00477$
	ld	de, #0x0001
	jp	00478$
00477$:
	ld	a, -10 (ix)
	sub	a, -19 (ix)
	jr	NC, 00479$
	ld	de, #0xffff
	jp	00480$
00479$:
	ld	de, #0x0000
00480$:
00478$:
	ld	-8 (ix), e
;E:\Dropbox\FAUSTO\SVILUPPI\MSX\CODE\C\MSXgl\projects\soccerlgMSX2/soccerlg_s9_b3.c:71: i8 dir_y = (i < 7) ? 1 : -1; // Team 1 guarda sempre a Sud, Team 2 sempre a Nord
	ld	a, -1 (ix)
	sub	a, #0x07
	ld	a, #0x00
	rla
	ld	-9 (ix), a
	or	a, a
	jr	Z, 00481$
	ld	-7 (ix), #0x01
	ld	-6 (ix), #0
	jp	00482$
00481$:
	ld	-7 (ix), #0xff
	ld	-6 (ix), #0xff
00482$:
	ld	a, -7 (ix)
	ld	-6 (ix), a
;E:\Dropbox\FAUSTO\SVILUPPI\MSX\CODE\C\MSXgl\projects\soccerlgMSX2/soccerlg_s9_b3.c:72: if (i == 26) {
	ld	a, -1 (ix)
	sub	a, #0x1a
	jp	NZ,00135$
;E:\Dropbox\FAUSTO\SVILUPPI\MSX\CODE\C\MSXgl\projects\soccerlgMSX2/soccerlg_s9_b3.c:73: u16 face_y = (RestartType == RESTART_GKSAVE) ? RestartSideY : SwSprite[14].ly;
	ld	a, (_RestartType+0)
	sub	a, #0x04
	ld	a, #0x01
	jr	Z, 01702$
	xor	a, a
01702$:
	ld	-8 (ix), a
	or	a, a
	jr	Z, 00483$
	ld	hl, (_RestartSideY)
	ld	-7 (ix), l
	ld	-6 (ix), h
	jp	00484$
00483$:
	ld	hl, #_SwSprite + 326
	ld	a, (hl)
	ld	-7 (ix), a
	inc	hl
	ld	a, (hl)
	ld	-6 (ix), a
00484$:
;E:\Dropbox\FAUSTO\SVILUPPI\MSX\CODE\C\MSXgl\projects\soccerlgMSX2/soccerlg_s9_b3.c:74: u16 face_x = (RestartType == RESTART_GKSAVE) ? RestartSideX : SwSprite[14].lx;
	ld	a, -8 (ix)
	or	a, a
	jr	Z, 00485$
	ld	a, (_RestartSideX+0)
	ld	-8 (ix), a
	jp	00486$
00485$:
	ld	a, -10 (ix)
	ld	-8 (ix), a
00486$:
	ld	a, -8 (ix)
	ld	-22 (ix), a
	ld	-21 (ix), #0x00
;E:\Dropbox\FAUSTO\SVILUPPI\MSX\CODE\C\MSXgl\projects\soccerlgMSX2/soccerlg_s9_b3.c:75: dir_x = (face_x > p->lx) ? 1 : ((face_x < p->lx) ? -1 : 0);
	ld	a, -19 (ix)
	ld	-33 (ix), a
	ld	-32 (ix), #0x00
	ld	a, -33 (ix)
	sub	a, -22 (ix)
	ld	a, -32 (ix)
	sbc	a, -21 (ix)
	jr	NC, 00487$
	ld	-22 (ix), #0x01
	ld	-21 (ix), #0
	jp	00488$
00487$:
	ld	a, -22 (ix)
	sub	a, -33 (ix)
	ld	a, -21 (ix)
	sbc	a, -32 (ix)
	jr	NC, 00489$
	ld	-22 (ix), #0xff
	ld	-21 (ix), #0xff
	jp	00490$
00489$:
	xor	a, a
	ld	-22 (ix), a
	ld	-21 (ix), a
00490$:
00488$:
	ld	a, -22 (ix)
	ld	-8 (ix), a
;E:\Dropbox\FAUSTO\SVILUPPI\MSX\CODE\C\MSXgl\projects\soccerlgMSX2/soccerlg_s9_b3.c:76: dir_y = (face_y > p->ly) ? 1 : ((face_y < p->ly) ? -1 : 0);
	ld	a, -12 (ix)
	sub	a, -7 (ix)
	ld	a, -11 (ix)
	sbc	a, -6 (ix)
	jr	NC, 00491$
	ld	-7 (ix), #0x01
	ld	-6 (ix), #0
	jp	00492$
00491$:
	ld	a, -7 (ix)
	sub	a, -12 (ix)
	ld	a, -6 (ix)
	sbc	a, -11 (ix)
	jr	NC, 00493$
	ld	-7 (ix), #0xff
	ld	-6 (ix), #0xff
	jp	00494$
00493$:
	xor	a, a
	ld	-7 (ix), a
	ld	-6 (ix), a
00494$:
00492$:
	ld	a, -7 (ix)
	ld	-6 (ix), a
;E:\Dropbox\FAUSTO\SVILUPPI\MSX\CODE\C\MSXgl\projects\soccerlgMSX2/soccerlg_s9_b3.c:77: if (dir_x == 0 && dir_y == 0) dir_y = 1;
	ld	a, -8 (ix)
	or	a, a
	jr	NZ, 00135$
	ld	a, -6 (ix)
	or	a, a
	jr	NZ, 00135$
	ld	-6 (ix), #0x01
00135$:
;E:\Dropbox\FAUSTO\SVILUPPI\MSX\CODE\C\MSXgl\projects\soccerlgMSX2/soccerlg_s9_b3.c:79: p->dx = 0; p->dy = 0;
	ld	l, -18 (ix)
	ld	h, -17 (ix)
	ld	(hl), #0x00
	ld	l, -16 (ix)
	ld	h, -15 (ix)
	ld	(hl), #0x00
;E:\Dropbox\FAUSTO\SVILUPPI\MSX\CODE\C\MSXgl\projects\soccerlgMSX2/soccerlg_s9_b3.c:81: if (RestartType == RESTART_THROWIN && i == g_thrower_id) {
	ld	a, (_RestartType+0)
	dec	a
	jr	NZ, 00144$
	ld	a, -1 (ix)
	ld	iy, #_g_thrower_id
	sub	a, 0 (iy)
	jr	NZ, 00144$
;E:\Dropbox\FAUSTO\SVILUPPI\MSX\CODE\C\MSXgl\projects\soccerlgMSX2/soccerlg_s9_b3.c:83: p->frame = (RestartSideX < 128) ? SPR_T1_PLAYER_THROWIN_FROM_WEST_1 : SPR_T1_PLAYER_THROWIN_FROM_EAST_1;
	ld	a, (_RestartSideX+0)
	sub	a, #0x80
	ld	a, #0x00
	rla
	ld	c, a
;E:\Dropbox\FAUSTO\SVILUPPI\MSX\CODE\C\MSXgl\projects\soccerlgMSX2/soccerlg_s9_b3.c:82: if (i < 7) {
	ld	a, -9 (ix)
	or	a, a
	jr	Z, 00137$
;E:\Dropbox\FAUSTO\SVILUPPI\MSX\CODE\C\MSXgl\projects\soccerlgMSX2/soccerlg_s9_b3.c:83: p->frame = (RestartSideX < 128) ? SPR_T1_PLAYER_THROWIN_FROM_WEST_1 : SPR_T1_PLAYER_THROWIN_FROM_EAST_1;
	ld	a, c
	or	a, a
	jr	Z, 00495$
	ld	bc, #0x0025
	jp	00496$
00495$:
	ld	bc, #0x0022
00496$:
	ld	l, -14 (ix)
	ld	h, -13 (ix)
	ld	(hl), c
	inc	hl
	ld	(hl), b
	jp	00151$
00137$:
;E:\Dropbox\FAUSTO\SVILUPPI\MSX\CODE\C\MSXgl\projects\soccerlgMSX2/soccerlg_s9_b3.c:85: p->frame = (RestartSideX < 128) ? SPR_T2_PLAYER_THROWIN_FROM_WEST_1 : SPR_T2_PLAYER_THROWIN_FROM_EAST_1;
	ld	a, c
	or	a, a
	jr	Z, 00497$
	ld	bc, #0x0095
	jp	00498$
00497$:
	ld	bc, #0x0092
00498$:
	ld	l, -14 (ix)
	ld	h, -13 (ix)
	ld	(hl), c
	inc	hl
	ld	(hl), b
	jp	00151$
00144$:
;E:\Dropbox\FAUSTO\SVILUPPI\MSX\CODE\C\MSXgl\projects\soccerlgMSX2/soccerlg_s9_b3.c:87: } else if (RestartType == RESTART_GKSAVE && i == ((RestartSideY < 256) ? 0 : 7)) {
	ld	a, (_RestartType+0)
	sub	a, #0x04
	jr	NZ, 00140$
	ld	hl, (_RestartSideY)
	ld	a, h
	sub	a, #0x01
	jr	NC, 00499$
	ld	bc, #0x0000
	jp	00500$
00499$:
	ld	bc, #0x0007
00500$:
	ld	l, -1 (ix)
;	spillPairReg hl
;	spillPairReg hl
	ld	h, #0x00
;	spillPairReg hl
;	spillPairReg hl
	cp	a, a
	sbc	hl, bc
	jr	NZ, 00140$
;E:\Dropbox\FAUSTO\SVILUPPI\MSX\CODE\C\MSXgl\projects\soccerlgMSX2/soccerlg_s9_b3.c:88: p->frame = (i == 0) ? SPR_GK_PLAYER_SOUTH_WITH_BALL : SPR_GK_PLAYER_NORTH_WITH_BALL;
	ld	a, -1 (ix)
	or	a, a
	jr	NZ, 00501$
	ld	bc, #0x00f0
	jp	00502$
00501$:
	ld	bc, #0x00f1
00502$:
	ld	l, -14 (ix)
	ld	h, -13 (ix)
	ld	(hl), c
	inc	hl
	ld	(hl), b
	jp	00151$
00140$:
;E:\Dropbox\FAUSTO\SVILUPPI\MSX\CODE\C\MSXgl\projects\soccerlgMSX2/soccerlg_s9_b3.c:90: p->frame = CallFnc_U16_P4(SEG_GAMESTATE_2, GetPlayerAnimFrame, i, dir_x, dir_y, 0); // Posa ferma (0) verso la palla
	xor	a, a
	push	af
	inc	sp
	ld	h, -6 (ix)
	ld	l, -8 (ix)
	push	hl
	ld	a, -1 (ix)
	push	af
	inc	sp
	ld	de, #_GetPlayerAnimFrame
	ld	a, #0x0b
	call	_CallFnc_U16_P4
	ld	l, -14 (ix)
	ld	h, -13 (ix)
	ld	(hl), e
	inc	hl
	ld	(hl), d
00151$:
;E:\Dropbox\FAUSTO\SVILUPPI\MSX\CODE\C\MSXgl\projects\soccerlgMSX2/soccerlg_s9_b3.c:49: for (u8 i = 0; i <= 26; i++) {
	inc	-1 (ix)
	jp	00445$
00152$:
;E:\Dropbox\FAUSTO\SVILUPPI\MSX\CODE\C\MSXgl\projects\soccerlgMSX2/soccerlg_s9_b3.c:94: if (all_in_position) {
	ld	a, -20 (ix)
	or	a, a
	jp	Z, 00459$
;E:\Dropbox\FAUSTO\SVILUPPI\MSX\CODE\C\MSXgl\projects\soccerlgMSX2/soccerlg_s9_b3.c:18: *start_sec = Frms;
	ld	c, 4 (ix)
	ld	b, 5 (ix)
;E:\Dropbox\FAUSTO\SVILUPPI\MSX\CODE\C\MSXgl\projects\soccerlgMSX2/soccerlg_s9_b3.c:95: if (RestartType == RESTART_THROWIN || RestartType == RESTART_CORNERKICK) {
	ld	a, (_RestartType+0)
	dec	a
	jr	Z, 00168$
	ld	a, (_RestartType+0)
	sub	a, #0x03
	jr	NZ, 00169$
00168$:
;E:\Dropbox\FAUSTO\SVILUPPI\MSX\CODE\C\MSXgl\projects\soccerlgMSX2/soccerlg_s9_b3.c:96: *game_state = 7;
	ld	l, -3 (ix)
	ld	h, -2 (ix)
	ld	(hl), #0x07
;E:\Dropbox\FAUSTO\SVILUPPI\MSX\CODE\C\MSXgl\projects\soccerlgMSX2/soccerlg_s9_b3.c:97: u8 throw_team = (g_thrower_id < 7) ? TEAM_1 : TEAM_2;
	ld	a, (_g_thrower_id+0)
	sub	a, #0x07
	jr	NC, 00503$
	xor	a, a
	jp	00504$
00503$:
	ld	a, #0x01
00504$:
;E:\Dropbox\FAUSTO\SVILUPPI\MSX\CODE\C\MSXgl\projects\soccerlgMSX2/soccerlg_s9_b3.c:98: bool is_human = FALSE;
	ld	e, #0x00
;E:\Dropbox\FAUSTO\SVILUPPI\MSX\CODE\C\MSXgl\projects\soccerlgMSX2/soccerlg_s9_b3.c:99: if (throw_team == TEAM_2) is_human = TRUE;
	cp	a, #0x01
	jr	NZ, 00157$
	ld	e, #0x01
	jp	00158$
00157$:
;E:\Dropbox\FAUSTO\SVILUPPI\MSX\CODE\C\MSXgl\projects\soccerlgMSX2/soccerlg_s9_b3.c:100: else if (throw_team == TEAM_1 && GameMode == GAMEMODE_P1_VS_P2) is_human = TRUE;
	or	a, a
	jr	NZ, 00158$
	ld	a, (_GameMode+0)
	dec	a
	jr	NZ, 00158$
	ld	e, #0x01
00158$:
;E:\Dropbox\FAUSTO\SVILUPPI\MSX\CODE\C\MSXgl\projects\soccerlgMSX2/soccerlg_s9_b3.c:102: *wait_secs = is_human ? 5 : 1; // 5 secondi per il giocatore, 1 per la CPU
	ld	a, e
	or	a, a
	jr	Z, 00505$
	ld	de, #0x0005
	jp	00506$
00505$:
	ld	de, #0x0001
00506$:
	ld	l, -5 (ix)
	ld	h, -4 (ix)
	ld	(hl), e
;E:\Dropbox\FAUSTO\SVILUPPI\MSX\CODE\C\MSXgl\projects\soccerlgMSX2/soccerlg_s9_b3.c:103: *start_sec = Frms;
	ld	a, (_Frms+0)
	ld	(bc), a
;E:\Dropbox\FAUSTO\SVILUPPI\MSX\CODE\C\MSXgl\projects\soccerlgMSX2/soccerlg_s9_b3.c:104: g_last_input_dir = DIRECTION_NONE; // Resetta l'input per la selezione
	ld	iy, #_g_last_input_dir
	ld	0 (iy), #0x00
;E:\Dropbox\FAUSTO\SVILUPPI\MSX\CODE\C\MSXgl\projects\soccerlgMSX2/soccerlg_s9_b3.c:106: return;
	jp	00459$
00169$:
;E:\Dropbox\FAUSTO\SVILUPPI\MSX\CODE\C\MSXgl\projects\soccerlgMSX2/soccerlg_s9_b3.c:107: } else if (RestartType == RESTART_GOALKICK || RestartType == RESTART_GKSAVE) {
	ld	a,(_RestartType+0)
	cp	a,#0x02
	jr	Z, 00165$
	sub	a, #0x04
	jr	NZ, 00170$
00165$:
;E:\Dropbox\FAUSTO\SVILUPPI\MSX\CODE\C\MSXgl\projects\soccerlgMSX2/soccerlg_s9_b3.c:108: *game_state = 8; // Stato di attesa e rincorsa rinvio
	ld	l, -3 (ix)
	ld	h, -2 (ix)
	ld	(hl), #0x08
;E:\Dropbox\FAUSTO\SVILUPPI\MSX\CODE\C\MSXgl\projects\soccerlgMSX2/soccerlg_s9_b3.c:110: u8 gk = (RestartSideY < 256) ? 0 : 7;
	ld	hl, (_RestartSideY)
	ld	a, h
	sub	a, #0x01
	jr	NC, 00507$
	xor	a, a
	jp	00508$
00507$:
	ld	a, #0x07
00508$:
;E:\Dropbox\FAUSTO\SVILUPPI\MSX\CODE\C\MSXgl\projects\soccerlgMSX2/soccerlg_s9_b3.c:111: u8 team_to_kick = (gk == 0) ? TEAM_1 : TEAM_2;
	or	a,a
	jr	Z, 00510$
	ld	a, #0x01
00510$:
;E:\Dropbox\FAUSTO\SVILUPPI\MSX\CODE\C\MSXgl\projects\soccerlgMSX2/soccerlg_s9_b3.c:112: bool is_human = FALSE;
	ld	e, #0x00
;E:\Dropbox\FAUSTO\SVILUPPI\MSX\CODE\C\MSXgl\projects\soccerlgMSX2/soccerlg_s9_b3.c:113: if (team_to_kick == TEAM_2) is_human = TRUE;
	cp	a, #0x01
	jr	NZ, 00163$
	ld	e, #0x01
	jp	00164$
00163$:
;E:\Dropbox\FAUSTO\SVILUPPI\MSX\CODE\C\MSXgl\projects\soccerlgMSX2/soccerlg_s9_b3.c:114: else if (team_to_kick == TEAM_1 && GameMode == GAMEMODE_P1_VS_P2) is_human = TRUE;
	or	a, a
	jr	NZ, 00164$
	ld	a, (_GameMode+0)
	dec	a
	jr	NZ, 00164$
	ld	e, #0x01
00164$:
;E:\Dropbox\FAUSTO\SVILUPPI\MSX\CODE\C\MSXgl\projects\soccerlgMSX2/soccerlg_s9_b3.c:116: *wait_secs = is_human ? 5 : 1; // 5s per l'umano, 1s per la CPU
	ld	a, e
	or	a, a
	jr	Z, 00511$
	ld	de, #0x0005
	jp	00512$
00511$:
	ld	de, #0x0001
00512$:
	ld	l, -5 (ix)
	ld	h, -4 (ix)
	ld	(hl), e
;E:\Dropbox\FAUSTO\SVILUPPI\MSX\CODE\C\MSXgl\projects\soccerlgMSX2/soccerlg_s9_b3.c:117: *start_sec = Frms;
	ld	a, (_Frms+0)
	ld	(bc), a
;E:\Dropbox\FAUSTO\SVILUPPI\MSX\CODE\C\MSXgl\projects\soccerlgMSX2/soccerlg_s9_b3.c:118: g_last_input_dir = DIRECTION_NONE; // Resetta l'input per la selezione
	ld	iy, #_g_last_input_dir
	ld	0 (iy), #0x00
;E:\Dropbox\FAUSTO\SVILUPPI\MSX\CODE\C\MSXgl\projects\soccerlgMSX2/soccerlg_s9_b3.c:120: return;
	jp	00459$
00170$:
;E:\Dropbox\FAUSTO\SVILUPPI\MSX\CODE\C\MSXgl\projects\soccerlgMSX2/soccerlg_s9_b3.c:122: *game_state = 3;
	ld	l, -3 (ix)
	ld	h, -2 (ix)
	ld	(hl), #0x03
;E:\Dropbox\FAUSTO\SVILUPPI\MSX\CODE\C\MSXgl\projects\soccerlgMSX2/soccerlg_s9_b3.c:125: if (KickOffTeam == TEAM_1) {
	ld	a, (_KickOffTeam+0)
	or	a, a
	jr	NZ, 00173$
;E:\Dropbox\FAUSTO\SVILUPPI\MSX\CODE\C\MSXgl\projects\soccerlgMSX2/soccerlg_s9_b3.c:126: T1_Carrier = 3; // Giocatore a sinistra della palla
	ld	hl, #_T1_Carrier
	ld	(hl), #0x03
;E:\Dropbox\FAUSTO\SVILUPPI\MSX\CODE\C\MSXgl\projects\soccerlgMSX2/soccerlg_s9_b3.c:127: T1_Receiver = (u8)CallFnc_U16_P4B(SEG_LOGIC, FindReceiver, T1_Carrier, 4, 0, 1); // Ignora il compagno (4)
	push	bc
	ld	a, #0x01
	push	af
	inc	sp
	xor	a, a
	ld	h, a
	ld	l, #0x04
	push	hl
	ld	a, #0x03
	push	af
	inc	sp
	ld	de, #_FindReceiver
	ld	a, #0x06
	call	_CallFnc_U16_P4B
	pop	bc
	ld	a, e
	ld	(#_T1_Receiver), a
;E:\Dropbox\FAUSTO\SVILUPPI\MSX\CODE\C\MSXgl\projects\soccerlgMSX2/soccerlg_s9_b3.c:128: T2_Carrier = T2_Receiver = 0xFF; // Difesa senza palla
	ld	a,#0xff
	ld	(#_T2_Receiver),a
	ld	(#_T2_Carrier), a
	jp	00174$
00173$:
;E:\Dropbox\FAUSTO\SVILUPPI\MSX\CODE\C\MSXgl\projects\soccerlgMSX2/soccerlg_s9_b3.c:130: T2_Carrier = 11; // Giocatore a destra della palla
	ld	hl, #_T2_Carrier
	ld	(hl), #0x0b
;E:\Dropbox\FAUSTO\SVILUPPI\MSX\CODE\C\MSXgl\projects\soccerlgMSX2/soccerlg_s9_b3.c:131: T2_Receiver = (u8)CallFnc_U16_P4B(SEG_LOGIC, FindReceiver, T2_Carrier, 10, 0, -1); // Ignora il compagno (10)
	push	bc
	ld	a, #0xff
	push	af
	inc	sp
	xor	a, a
	ld	h, a
	ld	l, #0x0a
	push	hl
	ld	a, #0x0b
	push	af
	inc	sp
	ld	de, #_FindReceiver
	ld	a, #0x06
	call	_CallFnc_U16_P4B
	pop	bc
	ld	a, e
	ld	(#_T2_Receiver), a
;E:\Dropbox\FAUSTO\SVILUPPI\MSX\CODE\C\MSXgl\projects\soccerlgMSX2/soccerlg_s9_b3.c:132: T1_Carrier = T1_Receiver = 0xFF; // Difesa senza palla
	ld	a,#0xff
	ld	(#_T1_Receiver),a
	ld	(#_T1_Carrier), a
00174$:
;E:\Dropbox\FAUSTO\SVILUPPI\MSX\CODE\C\MSXgl\projects\soccerlgMSX2/soccerlg_s9_b3.c:135: LastTouchTeam = KickOffTeam; // Assegna possesso fittizio al team che batte per far allargare i compagni
	ld	a, (_KickOffTeam+0)
	ld	(_LastTouchTeam+0), a
;E:\Dropbox\FAUSTO\SVILUPPI\MSX\CODE\C\MSXgl\projects\soccerlgMSX2/soccerlg_s9_b3.c:137: *wait_secs = 2;
	ld	l, -5 (ix)
	ld	h, -4 (ix)
	ld	(hl), #0x02
;E:\Dropbox\FAUSTO\SVILUPPI\MSX\CODE\C\MSXgl\projects\soccerlgMSX2/soccerlg_s9_b3.c:138: *start_sec = Frms;
	ld	a, (_Frms+0)
	ld	(bc), a
;E:\Dropbox\FAUSTO\SVILUPPI\MSX\CODE\C\MSXgl\projects\soccerlgMSX2/soccerlg_s9_b3.c:139: CallFnc_VOID(SEG_EVENTS, EventKickOffReady);
	ld	de, #_EventKickOffReady
	ld	a, #0x08
	call	_CallFnc_VOID
	jp	00459$
00436$:
;E:\Dropbox\FAUSTO\SVILUPPI\MSX\CODE\C\MSXgl\projects\soccerlgMSX2/soccerlg_s9_b3.c:141: } else if (*game_state == 3) {
	ld	a, -1 (ix)
	sub	a, #0x03
	jp	NZ,00433$
;E:\Dropbox\FAUSTO\SVILUPPI\MSX\CODE\C\MSXgl\projects\soccerlgMSX2/soccerlg_s9_b3.c:143: if (Mins == 0 && Secs == 0) {
	ld	a, (_Mins+0)
	or	a, a
	jr	NZ, 00183$
	ld	a, (_Secs+0)
	or	a, a
	jr	NZ, 00183$
;E:\Dropbox\FAUSTO\SVILUPPI\MSX\CODE\C\MSXgl\projects\soccerlgMSX2/soccerlg_s9_b3.c:144: if (Half == 1) {
	ld	a, (_Half+0)
	dec	a
	jr	NZ, 00180$
;E:\Dropbox\FAUSTO\SVILUPPI\MSX\CODE\C\MSXgl\projects\soccerlgMSX2/soccerlg_s9_b3.c:145: *game_state = 4;
	ld	l, -3 (ix)
	ld	h, -2 (ix)
	ld	(hl), #0x04
;E:\Dropbox\FAUSTO\SVILUPPI\MSX\CODE\C\MSXgl\projects\soccerlgMSX2/soccerlg_s9_b3.c:146: *wait_secs = 2;
	ld	l, -5 (ix)
	ld	h, -4 (ix)
	ld	(hl), #0x02
;E:\Dropbox\FAUSTO\SVILUPPI\MSX\CODE\C\MSXgl\projects\soccerlgMSX2/soccerlg_s9_b3.c:147: *start_sec = Frms;
	ld	c, 4 (ix)
	ld	b, 5 (ix)
	ld	a, (_Frms+0)
	ld	(bc), a
;E:\Dropbox\FAUSTO\SVILUPPI\MSX\CODE\C\MSXgl\projects\soccerlgMSX2/soccerlg_s9_b3.c:148: CallFnc_VOID_16_P1(SEG_DRAW, ShowSpriteMessage, SPR_MSG_HALFTIME);
	ld	hl, #0x0144
	push	hl
	ld	de, #_ShowSpriteMessage
	ld	a, #0x05
	call	_CallFnc_VOID_16_P1
;E:\Dropbox\FAUSTO\SVILUPPI\MSX\CODE\C\MSXgl\projects\soccerlgMSX2/soccerlg_s9_b3.c:149: CallFnc_VOID(SEG_EVENTS, EventHalfTime);
	ld	de, #_EventHalfTime
	ld	a, #0x08
	call	_CallFnc_VOID
	jp	00459$
00180$:
;E:\Dropbox\FAUSTO\SVILUPPI\MSX\CODE\C\MSXgl\projects\soccerlgMSX2/soccerlg_s9_b3.c:150: } else if (Half == 2) {
	ld	a, (_Half+0)
	sub	a, #0x02
	jp	NZ,00459$
;E:\Dropbox\FAUSTO\SVILUPPI\MSX\CODE\C\MSXgl\projects\soccerlgMSX2/soccerlg_s9_b3.c:151: *game_state = 5;
	ld	l, -3 (ix)
	ld	h, -2 (ix)
	ld	(hl), #0x05
;E:\Dropbox\FAUSTO\SVILUPPI\MSX\CODE\C\MSXgl\projects\soccerlgMSX2/soccerlg_s9_b3.c:152: *wait_secs = 2;
	ld	l, -5 (ix)
	ld	h, -4 (ix)
	ld	(hl), #0x02
;E:\Dropbox\FAUSTO\SVILUPPI\MSX\CODE\C\MSXgl\projects\soccerlgMSX2/soccerlg_s9_b3.c:153: *start_sec = Frms;
	ld	c, 4 (ix)
	ld	b, 5 (ix)
	ld	a, (_Frms+0)
	ld	(bc), a
;E:\Dropbox\FAUSTO\SVILUPPI\MSX\CODE\C\MSXgl\projects\soccerlgMSX2/soccerlg_s9_b3.c:154: CallFnc_VOID_16_P1(SEG_DRAW, ShowSpriteMessage, SPR_MSG_TIMEUP);
	ld	hl, #0x0140
	push	hl
	ld	de, #_ShowSpriteMessage
	ld	a, #0x05
	call	_CallFnc_VOID_16_P1
;E:\Dropbox\FAUSTO\SVILUPPI\MSX\CODE\C\MSXgl\projects\soccerlgMSX2/soccerlg_s9_b3.c:156: return;
	jp	00459$
00183$:
;E:\Dropbox\FAUSTO\SVILUPPI\MSX\CODE\C\MSXgl\projects\soccerlgMSX2/soccerlg_s9_b3.c:160: if (*wait_secs > 0) {
	ld	l, -5 (ix)
	ld	h, -4 (ix)
	ld	e, (hl)
	ld	a, e
	or	a, a
	jr	Z, 00190$
;E:\Dropbox\FAUSTO\SVILUPPI\MSX\CODE\C\MSXgl\projects\soccerlgMSX2/soccerlg_s9_b3.c:161: if (*start_sec < Frms) { // Frms wrapped from 1 to 60
	ld	c, 4 (ix)
	ld	b, 5 (ix)
	ld	a, (bc)
	ld	d, a
	ld	hl, #_Frms
	ld	a, d
	sub	a, (hl)
	jr	NC, 00188$
;E:\Dropbox\FAUSTO\SVILUPPI\MSX\CODE\C\MSXgl\projects\soccerlgMSX2/soccerlg_s9_b3.c:162: (*wait_secs)--;
	ld	a, e
	dec	a
	ld	l, -5 (ix)
	ld	h, -4 (ix)
	ld	(hl), a
;E:\Dropbox\FAUSTO\SVILUPPI\MSX\CODE\C\MSXgl\projects\soccerlgMSX2/soccerlg_s9_b3.c:163: if (*wait_secs == 0) {
	or	a, a
	jr	NZ, 00188$
;E:\Dropbox\FAUSTO\SVILUPPI\MSX\CODE\C\MSXgl\projects\soccerlgMSX2/soccerlg_s9_b3.c:164: CallFnc_VOID(SEG_DRAW, HideSpriteMessage);
	push	bc
	ld	de, #_HideSpriteMessage
	ld	a, #0x05
	call	_CallFnc_VOID
	pop	bc
;E:\Dropbox\FAUSTO\SVILUPPI\MSX\CODE\C\MSXgl\projects\soccerlgMSX2/soccerlg_s9_b3.c:165: TimerEnabled = TRUE; // Avvia il cronometro alla sparizione della scritta
	ld	iy, #_TimerEnabled
	ld	0 (iy), #0x01
00188$:
;E:\Dropbox\FAUSTO\SVILUPPI\MSX\CODE\C\MSXgl\projects\soccerlgMSX2/soccerlg_s9_b3.c:168: *start_sec = Frms;
	ld	a, (_Frms+0)
	ld	(bc), a
;E:\Dropbox\FAUSTO\SVILUPPI\MSX\CODE\C\MSXgl\projects\soccerlgMSX2/soccerlg_s9_b3.c:170: return; // Ferma l'IA e il gioco finché la scritta non sparisce
	jp	00459$
00190$:
;E:\Dropbox\FAUSTO\SVILUPPI\MSX\CODE\C\MSXgl\projects\soccerlgMSX2/soccerlg_s9_b3.c:174: CallFnc_VOID(SEG_FIELD, UpdateFieldCamera);
	ld	de, #_UpdateFieldCamera
	ld	a, #0x0a
	call	_CallFnc_VOID
;E:\Dropbox\FAUSTO\SVILUPPI\MSX\CODE\C\MSXgl\projects\soccerlgMSX2/soccerlg_s9_b3.c:175: CallFnc_VOID_3PTR(SEG_FIELD, CheckFieldBoundaries, game_state, wait_secs, start_sec);
	ld	l, 4 (ix)
;	spillPairReg hl
;	spillPairReg hl
	ld	h, 5 (ix)
;	spillPairReg hl
;	spillPairReg hl
	push	hl
	ld	l, -5 (ix)
;	spillPairReg hl
;	spillPairReg hl
	ld	h, -4 (ix)
;	spillPairReg hl
;	spillPairReg hl
	push	hl
	ld	l, -3 (ix)
;	spillPairReg hl
;	spillPairReg hl
	ld	h, -2 (ix)
;	spillPairReg hl
;	spillPairReg hl
	push	hl
	ld	de, #_CheckFieldBoundaries
	ld	a, #0x0a
	call	_CallFnc_VOID_3PTR
;E:\Dropbox\FAUSTO\SVILUPPI\MSX\CODE\C\MSXgl\projects\soccerlgMSX2/soccerlg_s9_b3.c:178: g_h_arrow_x += g_h_arrow_dir;
	ld	a, (_g_h_arrow_dir+0)
	ld	c, a
	rlca
	sbc	a, a
	ld	hl, (_g_h_arrow_x)
	ld	b, a
	add	hl, bc
;E:\Dropbox\FAUSTO\SVILUPPI\MSX\CODE\C\MSXgl\projects\soccerlgMSX2/soccerlg_s9_b3.c:179: if (g_h_arrow_x < 80) { g_h_arrow_x = 80; g_h_arrow_dir = 1; }
	ld	(_g_h_arrow_x), hl
	ld	a, l
	sub	a, #0x50
	ld	a, h
	sbc	a, #0x00
	jr	NC, 00194$
	ld	hl, #0x0050
	ld	(_g_h_arrow_x), hl
	ld	hl, #_g_h_arrow_dir
	ld	(hl), #0x01
	jp	00195$
00194$:
;E:\Dropbox\FAUSTO\SVILUPPI\MSX\CODE\C\MSXgl\projects\soccerlgMSX2/soccerlg_s9_b3.c:180: else if (g_h_arrow_x > 162) { g_h_arrow_x = 162; g_h_arrow_dir = -1; }
	ld	a, #0xa2
	cp	a, l
	ld	a, #0x00
	sbc	a, h
	jr	NC, 00195$
	ld	hl, #0x00a2
	ld	(_g_h_arrow_x), hl
	ld	hl, #_g_h_arrow_dir
	ld	(hl), #0xff
00195$:
;E:\Dropbox\FAUSTO\SVILUPPI\MSX\CODE\C\MSXgl\projects\soccerlgMSX2/soccerlg_s9_b3.c:184: if (GameMode == GAMEMODE_P1_VS_P2) {
	ld	a, (_GameMode+0)
	dec	a
	jr	NZ, 00197$
;E:\Dropbox\FAUSTO\SVILUPPI\MSX\CODE\C\MSXgl\projects\soccerlgMSX2/soccerlg_s9_b3.c:185: SwSprite[24].lx = (u8)g_h_arrow_x;
	ld	bc, #_SwSprite + 552
	ld	a, (_g_h_arrow_x+0)
	ld	(bc), a
;E:\Dropbox\FAUSTO\SVILUPPI\MSX\CODE\C\MSXgl\projects\soccerlgMSX2/soccerlg_s9_b3.c:186: SwSprite[24].ly = 440; 
	ld	hl, #0x01b8
	ld	((_SwSprite + 556)), hl
;E:\Dropbox\FAUSTO\SVILUPPI\MSX\CODE\C\MSXgl\projects\soccerlgMSX2/soccerlg_s9_b3.c:187: SwSprite[24].frame = SPR_BIG_ARROW_BOTTOM;
	ld	hl, #0x006b
	ld	((_SwSprite + 567)), hl
	jp	00198$
00197$:
;E:\Dropbox\FAUSTO\SVILUPPI\MSX\CODE\C\MSXgl\projects\soccerlgMSX2/soccerlg_s9_b3.c:189: SwSprite[24].ly = 1000; // Nascondi
	ld	hl, #0x03e8
	ld	((_SwSprite + 556)), hl
00198$:
;E:\Dropbox\FAUSTO\SVILUPPI\MSX\CODE\C\MSXgl\projects\soccerlgMSX2/soccerlg_s9_b3.c:192: SwSprite[25].lx = (u8)g_h_arrow_x; SwSprite[25].ly = 50; SwSprite[25].frame = SPR_BIG_ARROW_TOP;
	ld	bc, #_SwSprite + 575
	ld	a, (_g_h_arrow_x+0)
	ld	(bc), a
	ld	hl, #0x0032
	ld	((_SwSprite + 579)), hl
	ld	l, #0x6c
	ld	((_SwSprite + 590)), hl
;E:\Dropbox\FAUSTO\SVILUPPI\MSX\CODE\C\MSXgl\projects\soccerlgMSX2/soccerlg_s9_b3.c:196: struct ObjectInfo* Ball = &SwSprite[14];
;E:\Dropbox\FAUSTO\SVILUPPI\MSX\CODE\C\MSXgl\projects\soccerlgMSX2/soccerlg_s9_b3.c:198: u8 closest_t1 = 1; u16 min_dist_t1 = 0xFFFF;
	ld	-17 (ix), #0x01
	ld	-16 (ix), #0xff
	ld	-15 (ix), #0xff
;E:\Dropbox\FAUSTO\SVILUPPI\MSX\CODE\C\MSXgl\projects\soccerlgMSX2/soccerlg_s9_b3.c:199: u8 closest_t2 = 8; u16 min_dist_t2 = 0xFFFF;
	ld	-14 (ix), #0x08
	ld	-13 (ix), #0xff
	ld	-12 (ix), #0xff
;E:\Dropbox\FAUSTO\SVILUPPI\MSX\CODE\C\MSXgl\projects\soccerlgMSX2/soccerlg_s9_b3.c:201: for (u8 i = 1; i < 7; i++) { 
	ld	-1 (ix), #0x01
00447$:
	ld	a, -1 (ix)
	sub	a, #0x07
	jp	NC, 00201$
;E:\Dropbox\FAUSTO\SVILUPPI\MSX\CODE\C\MSXgl\projects\soccerlgMSX2/soccerlg_s9_b3.c:202: u8 dx_diff = (u8)(SwSprite[i].lx - Ball->lx);
	ld	c, -1 (ix)
	ld	b, #0x00
	ld	l, c
	ld	h, b
	add	hl, hl
	add	hl, hl
	add	hl, bc
	add	hl, hl
	add	hl, bc
	add	hl, hl
	add	hl, bc
	ld	de, #_SwSprite
	add	hl, de
	ld	c, l
	ld	b, h
	ld	a, (bc)
	ld	hl, #(_SwSprite + 322)
	ld	e, (hl)
	sub	a, e
;E:\Dropbox\FAUSTO\SVILUPPI\MSX\CODE\C\MSXgl\projects\soccerlgMSX2/soccerlg_s9_b3.c:203: u16 dist_x = (dx_diff < 128) ? dx_diff : (256 - dx_diff);
	ld	e, a
	ld	d, #0x00
	sub	a, #0x80
	jr	NC, 00513$
	ld	a, d
	jp	00514$
00513$:
	xor	a, a
	sub	a, e
	ld	e, a
	ld	a, #0x01
	sbc	a, d
00514$:
	ld	-11 (ix), e
	ld	-10 (ix), a
;E:\Dropbox\FAUSTO\SVILUPPI\MSX\CODE\C\MSXgl\projects\soccerlgMSX2/soccerlg_s9_b3.c:204: u16 dy_diff = (u16)(SwSprite[i].ly - Ball->ly) & 511;
	ld	hl, #4
	add	hl, bc
	ld	c, (hl)
	inc	hl
	ld	b, (hl)
	ld	hl, (#(_SwSprite + 326) + 0)
	ld	a, c
	sub	a, l
	ld	c, a
	ld	a, b
	sbc	a, h
	and	a, #0x01
	ld	-9 (ix), c
;E:\Dropbox\FAUSTO\SVILUPPI\MSX\CODE\C\MSXgl\projects\soccerlgMSX2/soccerlg_s9_b3.c:205: u16 dist_y = (dy_diff < 256) ? dy_diff : (512 - dy_diff);
	ld	-8 (ix), a
	sub	a, #0x01
	jr	NC, 00515$
	ld	a, -9 (ix)
	ld	-7 (ix), a
	ld	a, -8 (ix)
	ld	-6 (ix), a
	jp	00516$
00515$:
	xor	a, a
	sub	a, -9 (ix)
	ld	-7 (ix), a
	ld	a, #0x02
	sbc	a, -8 (ix)
	ld	-6 (ix), a
00516$:
	ld	a, -7 (ix)
	ld	b, -6 (ix)
;E:\Dropbox\FAUSTO\SVILUPPI\MSX\CODE\C\MSXgl\projects\soccerlgMSX2/soccerlg_s9_b3.c:206: if (dist_x + dist_y < min_dist_t1) { min_dist_t1 = dist_x + dist_y; closest_t1 = i; }
	add	a, -11 (ix)
	ld	c, a
	ld	a, b
	adc	a, -10 (ix)
	ld	b, a
	ld	a, c
	sub	a, -16 (ix)
	ld	a, b
	sbc	a, -15 (ix)
	jr	NC, 00448$
	ld	-16 (ix), c
	ld	-15 (ix), b
	ld	a, -1 (ix)
	ld	-17 (ix), a
00448$:
;E:\Dropbox\FAUSTO\SVILUPPI\MSX\CODE\C\MSXgl\projects\soccerlgMSX2/soccerlg_s9_b3.c:201: for (u8 i = 1; i < 7; i++) { 
	inc	-1 (ix)
	jp	00447$
00201$:
;E:\Dropbox\FAUSTO\SVILUPPI\MSX\CODE\C\MSXgl\projects\soccerlgMSX2/soccerlg_s9_b3.c:208: for (u8 i = 8; i < 14; i++) {
	ld	c, #0x08
00450$:
	ld	a, c
	sub	a, #0x0e
	jr	NC, 00204$
;E:\Dropbox\FAUSTO\SVILUPPI\MSX\CODE\C\MSXgl\projects\soccerlgMSX2/soccerlg_s9_b3.c:209: u8 dx_diff = (u8)(SwSprite[i].lx - Ball->lx);
	ld	b, #0x00
	ld	l, c
	ld	h, b
	add	hl, hl
	add	hl, hl
	add	hl, bc
	add	hl, hl
	add	hl, bc
	add	hl, hl
	add	hl, bc
	ld	de, #_SwSprite
	add	hl, de
	ld	-9 (ix), l
	ld	-8 (ix), h
	ld	a, (hl)
	ld	hl, #(_SwSprite + 322)
	ld	b, (hl)
	sub	a, b
;E:\Dropbox\FAUSTO\SVILUPPI\MSX\CODE\C\MSXgl\projects\soccerlgMSX2/soccerlg_s9_b3.c:210: u16 dist_x = (dx_diff < 128) ? dx_diff : (256 - dx_diff);
	ld	e, a
	ld	d, #0x00
	sub	a, #0x80
	jr	NC, 00517$
	ld	a, d
	jp	00518$
00517$:
	xor	a, a
	sub	a, e
	ld	e, a
	ld	a, #0x01
	sbc	a, d
00518$:
	ld	-7 (ix), e
	ld	-6 (ix), a
;E:\Dropbox\FAUSTO\SVILUPPI\MSX\CODE\C\MSXgl\projects\soccerlgMSX2/soccerlg_s9_b3.c:211: u16 dy_diff = (u16)(SwSprite[i].ly - Ball->ly) & 511;
	ld	e, -9 (ix)
	ld	d, -8 (ix)
	ld	hl, #4
	add	hl, de
	ld	b, (hl)
	inc	hl
	ld	d, (hl)
	ld	hl, (#(_SwSprite + 326) + 0)
	ld	a, b
	sub	a, l
	ld	e, a
	ld	a, d
	sbc	a, h
	and	a, #0x01
;E:\Dropbox\FAUSTO\SVILUPPI\MSX\CODE\C\MSXgl\projects\soccerlgMSX2/soccerlg_s9_b3.c:212: u16 dist_y = (dy_diff < 256) ? dy_diff : (512 - dy_diff);
;	spillPairReg hl
;	spillPairReg hl
	ld	d, a
	sub	a, #0x01
	jr	C, 00520$
	ld	hl, #0x0200
	cp	a, a
	sbc	hl, de
	ex	de, hl
00520$:
	ld	a, e
;E:\Dropbox\FAUSTO\SVILUPPI\MSX\CODE\C\MSXgl\projects\soccerlgMSX2/soccerlg_s9_b3.c:213: if (dist_x + dist_y < min_dist_t2) { min_dist_t2 = dist_x + dist_y; closest_t2 = i; }
	add	a, -7 (ix)
	ld	b, a
	ld	a, d
	adc	a, -6 (ix)
	ld	e, a
	ld	a, b
	sub	a, -13 (ix)
	ld	a, e
	sbc	a, -12 (ix)
	jr	NC, 00451$
	ld	-13 (ix), b
	ld	-12 (ix), e
	ld	-14 (ix), c
00451$:
;E:\Dropbox\FAUSTO\SVILUPPI\MSX\CODE\C\MSXgl\projects\soccerlgMSX2/soccerlg_s9_b3.c:208: for (u8 i = 8; i < 14; i++) {
	inc	c
	jp	00450$
00204$:
;E:\Dropbox\FAUSTO\SVILUPPI\MSX\CODE\C\MSXgl\projects\soccerlgMSX2/soccerlg_s9_b3.c:217: T2_Carrier = closest_t2;
	ld	a, -14 (ix)
	ld	(_T2_Carrier+0), a
;E:\Dropbox\FAUSTO\SVILUPPI\MSX\CODE\C\MSXgl\projects\soccerlgMSX2/soccerlg_s9_b3.c:218: if (GameMode == GAMEMODE_P1_VS_P2) T1_Carrier = closest_t1;
	ld	a, (_GameMode+0)
	dec	a
	jr	NZ, 00206$
	ld	a, -17 (ix)
	ld	(_T1_Carrier+0), a
	jp	00207$
00206$:
;E:\Dropbox\FAUSTO\SVILUPPI\MSX\CODE\C\MSXgl\projects\soccerlgMSX2/soccerlg_s9_b3.c:219: else T1_Carrier = 0xFF;
	ld	hl, #_T1_Carrier
	ld	(hl), #0xff
00207$:
;E:\Dropbox\FAUSTO\SVILUPPI\MSX\CODE\C\MSXgl\projects\soccerlgMSX2/soccerlg_s9_b3.c:222: if (min_dist_t2 <= 24) T2_Receiver = (u8)CallFnc_U16_P4B(SEG_LOGIC, FindReceiver, T2_Carrier, 0xFF, g_last_dx[1], g_last_dy[1]);
	ld	c, -13 (ix)
	ld	b, -12 (ix)
	ld	a, #0x18
	cp	a, c
	ld	a, #0x00
	sbc	a, b
	jr	C, 00209$
	ld	hl, #_g_last_dy+1
	ld	b, (hl)
	ld	a, (#(_g_last_dx + 1) + 0)
	push	bc
	inc	sp
	ld	h, a
	ld	l, #0xff
	push	hl
	ld	a, (_T2_Carrier+0)
	push	af
	inc	sp
	ld	de, #_FindReceiver
	ld	a, #0x06
	call	_CallFnc_U16_P4B
	ld	iy, #_T2_Receiver
	ld	0 (iy), e
	jp	00210$
00209$:
;E:\Dropbox\FAUSTO\SVILUPPI\MSX\CODE\C\MSXgl\projects\soccerlgMSX2/soccerlg_s9_b3.c:223: else T2_Receiver = 0xFF;
	ld	iy, #_T2_Receiver
	ld	0 (iy), #0xff
00210$:
;E:\Dropbox\FAUSTO\SVILUPPI\MSX\CODE\C\MSXgl\projects\soccerlgMSX2/soccerlg_s9_b3.c:225: if (GameMode == GAMEMODE_P1_VS_P2) {
	ld	a, (_GameMode+0)
	dec	a
	jr	NZ, 00215$
;E:\Dropbox\FAUSTO\SVILUPPI\MSX\CODE\C\MSXgl\projects\soccerlgMSX2/soccerlg_s9_b3.c:226: if (min_dist_t1 <= 24) T1_Receiver = (u8)CallFnc_U16_P4B(SEG_LOGIC, FindReceiver, T1_Carrier, 0xFF, g_last_dx[0], g_last_dy[0]);
	ld	c, -16 (ix)
	ld	b, -15 (ix)
	ld	a, #0x18
	cp	a, c
	ld	a, #0x00
	sbc	a, b
	jr	C, 00212$
	ld	hl, #_g_last_dy+0
	ld	b, (hl)
	ld	a, (#_g_last_dx + 0)
	push	bc
	inc	sp
	ld	h, a
	ld	l, #0xff
	push	hl
	ld	a, (_T1_Carrier+0)
	push	af
	inc	sp
	ld	de, #_FindReceiver
	ld	a, #0x06
	call	_CallFnc_U16_P4B
	ld	iy, #_T1_Receiver
	ld	0 (iy), e
	jp	00215$
00212$:
;E:\Dropbox\FAUSTO\SVILUPPI\MSX\CODE\C\MSXgl\projects\soccerlgMSX2/soccerlg_s9_b3.c:227: else T1_Receiver = 0xFF;
	ld	iy, #_T1_Receiver
	ld	0 (iy), #0xff
00215$:
;E:\Dropbox\FAUSTO\SVILUPPI\MSX\CODE\C\MSXgl\projects\soccerlgMSX2/soccerlg_s9_b3.c:233: if (Ball->anim > 0) {
	ld	hl, #(_SwSprite + 341)
	ld	a, (hl)
	ld	-7 (ix), a
	inc	hl
	ld	a, (hl)
	ld	-6 (ix), a
	or	a, -7 (ix)
	jp	Z, 00284$
;E:\Dropbox\FAUSTO\SVILUPPI\MSX\CODE\C\MSXgl\projects\soccerlgMSX2/soccerlg_s9_b3.c:234: if (Ball->anim == 5) {
	ld	a, -7 (ix)
	ld	b, -6 (ix)
	sub	a, #0x05
	or	a, b
	jp	NZ,00281$
;E:\Dropbox\FAUSTO\SVILUPPI\MSX\CODE\C\MSXgl\projects\soccerlgMSX2/soccerlg_s9_b3.c:236: u8 progress = Ball->count; // 0 = inizio da tiratore, max = fine verso ricevitore
	ld	a, (#(_SwSprite + 343) + 0)
	ld	-35 (ix), a
;E:\Dropbox\FAUSTO\SVILUPPI\MSX\CODE\C\MSXgl\projects\soccerlgMSX2/soccerlg_s9_b3.c:237: u8 half_frame = g_pass_max_frames >> 1; // metà del percorso
	ld	a, (_g_pass_max_frames+0)
	srl	a
	ld	-34 (ix), a
;E:\Dropbox\FAUSTO\SVILUPPI\MSX\CODE\C\MSXgl\projects\soccerlgMSX2/soccerlg_s9_b3.c:239: i16 dx_total = (i16)g_pass_target_x - (i16)g_pass_start_x;
	ld	hl, (_g_pass_target_x)
	ld	-11 (ix), l
	ld	-10 (ix), h
	ld	hl, (_g_pass_start_x)
	ld	-9 (ix), l
	ld	-8 (ix), h
	ld	a, -11 (ix)
	sub	a, -9 (ix)
	ld	-7 (ix), a
	ld	a, -10 (ix)
	sbc	a, -8 (ix)
	ld	-6 (ix), a
	ld	a, -7 (ix)
	ld	-33 (ix), a
	ld	a, -6 (ix)
	ld	-32 (ix), a
;E:\Dropbox\FAUSTO\SVILUPPI\MSX\CODE\C\MSXgl\projects\soccerlgMSX2/soccerlg_s9_b3.c:240: i16 dy_total = (i16)g_pass_target_y - (i16)g_pass_start_y;
	ld	hl, (_g_pass_target_y)
	ld	-11 (ix), l
	ld	-10 (ix), h
	ld	hl, (_g_pass_start_y)
	ld	-9 (ix), l
	ld	-8 (ix), h
	ld	a, -11 (ix)
	sub	a, -9 (ix)
	ld	-7 (ix), a
	ld	a, -10 (ix)
	sbc	a, -8 (ix)
	ld	-6 (ix), a
	ld	a, -7 (ix)
	ld	-23 (ix), a
	ld	a, -6 (ix)
	ld	-22 (ix), a
;E:\Dropbox\FAUSTO\SVILUPPI\MSX\CODE\C\MSXgl\projects\soccerlgMSX2/soccerlg_s9_b3.c:241: bool hit_post = FALSE;
	ld	-1 (ix), #0x00
;E:\Dropbox\FAUSTO\SVILUPPI\MSX\CODE\C\MSXgl\projects\soccerlgMSX2/soccerlg_s9_b3.c:244: if (progress == 0) {
	ld	a, -35 (ix)
	or	a, a
	jr	NZ, 00220$
;E:\Dropbox\FAUSTO\SVILUPPI\MSX\CODE\C\MSXgl\projects\soccerlgMSX2/soccerlg_s9_b3.c:245: Ball->lx = g_pass_start_x;
	ld	a, (_g_pass_start_x+0)
	ld	(#(_SwSprite + 322)),a
;E:\Dropbox\FAUSTO\SVILUPPI\MSX\CODE\C\MSXgl\projects\soccerlgMSX2/soccerlg_s9_b3.c:246: Ball->ly = g_pass_start_y;
	ld	hl, #(_SwSprite + 326)
	ld	a, (_g_pass_start_y+0)
	ld	(hl), a
	inc	hl
	ld	a, (_g_pass_start_y+1)
	ld	(hl), a
	jp	00221$
00220$:
;E:\Dropbox\FAUSTO\SVILUPPI\MSX\CODE\C\MSXgl\projects\soccerlgMSX2/soccerlg_s9_b3.c:247: } else if (progress >= g_pass_max_frames) {
	ld	hl, #_g_pass_max_frames
	ld	a, -35 (ix)
	sub	a, (hl)
	jr	C, 00217$
;E:\Dropbox\FAUSTO\SVILUPPI\MSX\CODE\C\MSXgl\projects\soccerlgMSX2/soccerlg_s9_b3.c:248: Ball->lx = g_pass_target_x;
	ld	a, (_g_pass_target_x+0)
	ld	(#(_SwSprite + 322)),a
;E:\Dropbox\FAUSTO\SVILUPPI\MSX\CODE\C\MSXgl\projects\soccerlgMSX2/soccerlg_s9_b3.c:249: Ball->ly = g_pass_target_y;
	ld	hl, #(_SwSprite + 326)
	ld	a, (_g_pass_target_y+0)
	ld	(hl), a
	inc	hl
	ld	a, (_g_pass_target_y+1)
	ld	(hl), a
	jp	00221$
00217$:
;E:\Dropbox\FAUSTO\SVILUPPI\MSX\CODE\C\MSXgl\projects\soccerlgMSX2/soccerlg_s9_b3.c:252: Ball->lx = (u16)((i16)g_pass_start_x + (dx_total * progress) / g_pass_max_frames);
	ld	a, (_g_pass_start_x+0)
	ld	-10 (ix), a
	ld	a, -35 (ix)
	ld	-9 (ix), a
	ld	-8 (ix), #0x00
	ld	e, a
	ld	d, #0x00
	ld	l, -33 (ix)
;	spillPairReg hl
;	spillPairReg hl
	ld	h, -32 (ix)
;	spillPairReg hl
;	spillPairReg hl
	call	__mulint
	ld	-12 (ix), e
	ld	-11 (ix), d
	ld	a, (_g_pass_max_frames+0)
	ld	-7 (ix), a
	ld	-6 (ix), #0x00
	ld	e, a
	ld	d, #0x00
	ld	l, -12 (ix)
;	spillPairReg hl
;	spillPairReg hl
	ld	h, -11 (ix)
;	spillPairReg hl
;	spillPairReg hl
	call	__divsint
	ld	-7 (ix), e
	ld	-6 (ix), d
	ld	a, -7 (ix)
	ld	-6 (ix), a
	add	a, -10 (ix)
	ld	(#(_SwSprite + 322)),a
;E:\Dropbox\FAUSTO\SVILUPPI\MSX\CODE\C\MSXgl\projects\soccerlgMSX2/soccerlg_s9_b3.c:253: Ball->ly = (u16)((i16)g_pass_start_y + (dy_total * progress) / g_pass_max_frames);
	ld	bc, (_g_pass_start_y)
	push	bc
	ld	e, -9 (ix)
	ld	d, -8 (ix)
	ld	l, -23 (ix)
;	spillPairReg hl
;	spillPairReg hl
	ld	h, -22 (ix)
;	spillPairReg hl
;	spillPairReg hl
	call	__mulint
	ex	de, hl
	pop	bc
	ld	a, (_g_pass_max_frames+0)
	ld	e, a
	ld	d, #0x00
	push	bc
	call	__divsint
	ex	de, hl
	pop	bc
	add	hl, bc
	ex	de, hl
	ld	((_SwSprite + 326)), de
00221$:
;E:\Dropbox\FAUSTO\SVILUPPI\MSX\CODE\C\MSXgl\projects\soccerlgMSX2/soccerlg_s9_b3.c:257: if (g_pass_max_height <= 2 && progress > 0) {
	ld	a, #0x02
	ld	hl, #_g_pass_max_height
	sub	a, (hl)
	jp	C, 00251$
	ld	a, -35 (ix)
	or	a, a
	jp	Z, 00251$
;E:\Dropbox\FAUSTO\SVILUPPI\MSX\CODE\C\MSXgl\projects\soccerlgMSX2/soccerlg_s9_b3.c:263: i16 old_ly = (i16)g_pass_start_y + (dy_total * (progress - 1)) / g_pass_max_frames;
	ld	hl, (_g_pass_start_y)
	ld	-9 (ix), l
	ld	-8 (ix), h
	ld	c, -35 (ix)
	ld	b, #0x00
	dec	bc
	ld	l, -23 (ix)
;	spillPairReg hl
;	spillPairReg hl
	ld	h, -22 (ix)
;	spillPairReg hl
;	spillPairReg hl
	push	bc
	ld	e, c
	ld	d, b
	call	__mulint
	ex	de, hl
	pop	bc
	ld	a, (_g_pass_max_frames+0)
	ld	-7 (ix), a
	ld	-6 (ix), #0x00
	push	bc
	ld	e, -7 (ix)
	ld	d, -6 (ix)
	call	__divsint
	pop	bc
	ld	l, -9 (ix)
;	spillPairReg hl
;	spillPairReg hl
	ld	h, -8 (ix)
;	spillPairReg hl
;	spillPairReg hl
	add	hl, de
	ld	-21 (ix), l
	ld	-20 (ix), h
;E:\Dropbox\FAUSTO\SVILUPPI\MSX\CODE\C\MSXgl\projects\soccerlgMSX2/soccerlg_s9_b3.c:264: i16 new_ly = Ball->ly;
	ld	hl, #(_SwSprite + 326)
	ld	a, (hl)
	ld	-19 (ix), a
	inc	hl
	ld	a, (hl)
	ld	-18 (ix), a
	ld	a, -19 (ix)
	ld	-17 (ix), a
	ld	a, -18 (ix)
	ld	-16 (ix), a
;E:\Dropbox\FAUSTO\SVILUPPI\MSX\CODE\C\MSXgl\projects\soccerlgMSX2/soccerlg_s9_b3.c:265: i16 old_lx = (i16)g_pass_start_x + (dx_total * (progress - 1)) / g_pass_max_frames;
	ld	hl, (_g_pass_start_x)
	ld	a, -33 (ix)
	ld	-15 (ix), a
	ld	a, -32 (ix)
	ld	-14 (ix), a
	push	hl
	ld	e, c
	ld	d, b
	ld	l, -15 (ix)
;	spillPairReg hl
;	spillPairReg hl
	ld	h, -14 (ix)
;	spillPairReg hl
;	spillPairReg hl
	call	__mulint
	ld	c, e
	ld	b, d
	ld	e, -7 (ix)
	ld	d, -6 (ix)
	ld	l, c
;	spillPairReg hl
;	spillPairReg hl
	ld	h, b
;	spillPairReg hl
;	spillPairReg hl
	call	__divsint
	pop	hl
	add	hl, de
	ld	-13 (ix), l
	ld	-12 (ix), h
;E:\Dropbox\FAUSTO\SVILUPPI\MSX\CODE\C\MSXgl\projects\soccerlgMSX2/soccerlg_s9_b3.c:266: i16 new_lx = Ball->lx;
	ld	a, (#(_SwSprite + 322) + 0)
	ld	-11 (ix), a
	ld	-10 (ix), #0x00
;E:\Dropbox\FAUSTO\SVILUPPI\MSX\CODE\C\MSXgl\projects\soccerlgMSX2/soccerlg_s9_b3.c:269: if (old_ly > top_boundary && new_ly <= top_boundary) {
	ld	a, -21 (ix)
	ld	-9 (ix), a
	ld	a, -20 (ix)
	ld	-8 (ix), a
	ld	a, #0x18
	cp	a, -9 (ix)
	ld	a, #0x00
	sbc	a, -8 (ix)
	jp	NC, 00236$
	ld	a, -17 (ix)
	ld	-7 (ix), a
	ld	a, -16 (ix)
	ld	-6 (ix), a
	ld	a, #0x18
	cp	a, -7 (ix)
	ld	a, #0x00
	sbc	a, -6 (ix)
	jr	C, 00236$
;E:\Dropbox\FAUSTO\SVILUPPI\MSX\CODE\C\MSXgl\projects\soccerlgMSX2/soccerlg_s9_b3.c:270: i16 cross_x = old_lx + ((new_lx - old_lx) * (old_ly - top_boundary)) / (old_ly - new_ly);
	ld	a, -11 (ix)
	sub	a, -13 (ix)
	ld	c, a
	ld	a, -10 (ix)
	sbc	a, -12 (ix)
	ld	b, a
	ld	a, -9 (ix)
	add	a, #0xe8
	ld	e, a
	ld	a, -8 (ix)
	adc	a, #0xff
	ld	d, a
	ld	l, c
;	spillPairReg hl
;	spillPairReg hl
	ld	h, b
;	spillPairReg hl
;	spillPairReg hl
	call	__mulint
	ld	c, e
	ld	b, d
	ld	a, -21 (ix)
	sub	a, -17 (ix)
	ld	e, a
	ld	a, -20 (ix)
	sbc	a, -16 (ix)
	ld	d, a
	ld	l, c
;	spillPairReg hl
;	spillPairReg hl
	ld	h, b
;	spillPairReg hl
;	spillPairReg hl
	call	__divuint
	ld	l, -13 (ix)
;	spillPairReg hl
;	spillPairReg hl
	ld	h, -12 (ix)
;	spillPairReg hl
;	spillPairReg hl
	add	hl, de
;E:\Dropbox\FAUSTO\SVILUPPI\MSX\CODE\C\MSXgl\projects\soccerlgMSX2/soccerlg_s9_b3.c:271: if ((cross_x >= goal_left - 4 && cross_x <= goal_left + 4) ||
	ld	a, l
	sub	a, #0x60
	ld	a, h
	rla
	ccf
	rra
	sbc	a, #0x80
	jr	C, 00226$
	ld	a, #0x68
	cp	a, l
	ld	a, #0x00
	sbc	a, h
	jp	PO, 01739$
	xor	a, #0x80
01739$:
	jp	P, 00222$
00226$:
;E:\Dropbox\FAUSTO\SVILUPPI\MSX\CODE\C\MSXgl\projects\soccerlgMSX2/soccerlg_s9_b3.c:272: (cross_x >= goal_right - 4 && cross_x <= goal_right + 4)) {
	ld	a, l
	sub	a, #0x98
	ld	a, h
	rla
	ccf
	rra
	sbc	a, #0x80
	jp	C, 00237$
	ld	a, #0xa0
	cp	a, l
	ld	a, #0x00
	sbc	a, h
	jp	PO, 01740$
	xor	a, #0x80
01740$:
	jp	M, 00237$
00222$:
;E:\Dropbox\FAUSTO\SVILUPPI\MSX\CODE\C\MSXgl\projects\soccerlgMSX2/soccerlg_s9_b3.c:273: hit_post = TRUE;
	ld	-1 (ix), #0x01
	jp	00237$
00236$:
;E:\Dropbox\FAUSTO\SVILUPPI\MSX\CODE\C\MSXgl\projects\soccerlgMSX2/soccerlg_s9_b3.c:277: else if (old_ly < bottom_boundary && new_ly >= bottom_boundary) {
	ld	a, -9 (ix)
	sub	a, #0xde
	ld	a, -8 (ix)
	sbc	a, #0x01
	jp	NC, 00237$
	ld	a, -17 (ix)
	ld	b, -16 (ix)
	sub	a, #0xde
	ld	a, b
	sbc	a, #0x01
	jr	C, 00237$
;E:\Dropbox\FAUSTO\SVILUPPI\MSX\CODE\C\MSXgl\projects\soccerlgMSX2/soccerlg_s9_b3.c:278: i16 cross_x = old_lx + ((new_lx - old_lx) * (bottom_boundary - old_ly)) / (new_ly - old_ly);
	ld	a, -11 (ix)
	sub	a, -13 (ix)
	ld	c, a
	ld	a, -10 (ix)
	sbc	a, -12 (ix)
	ld	b, a
	ld	a, #0xde
	sub	a, -9 (ix)
	ld	e, a
	ld	a, #0x01
	sbc	a, -8 (ix)
	ld	d, a
	ld	l, c
;	spillPairReg hl
;	spillPairReg hl
	ld	h, b
;	spillPairReg hl
;	spillPairReg hl
	call	__mulint
	ld	c, e
	ld	b, d
	ld	a, -17 (ix)
	sub	a, -21 (ix)
	ld	e, a
	ld	a, -16 (ix)
	sbc	a, -20 (ix)
	ld	d, a
	ld	l, c
;	spillPairReg hl
;	spillPairReg hl
	ld	h, b
;	spillPairReg hl
;	spillPairReg hl
	call	__divuint
	ld	l, -13 (ix)
;	spillPairReg hl
;	spillPairReg hl
	ld	h, -12 (ix)
;	spillPairReg hl
;	spillPairReg hl
	add	hl, de
;E:\Dropbox\FAUSTO\SVILUPPI\MSX\CODE\C\MSXgl\projects\soccerlgMSX2/soccerlg_s9_b3.c:279: if ((cross_x >= goal_left - 4 && cross_x <= goal_left + 4) ||
	ld	a, l
	sub	a, #0x60
	ld	a, h
	rla
	ccf
	rra
	sbc	a, #0x80
	jr	C, 00231$
	ld	a, #0x68
	cp	a, l
	ld	a, #0x00
	sbc	a, h
	jp	PO, 01741$
	xor	a, #0x80
01741$:
	jp	P, 00227$
00231$:
;E:\Dropbox\FAUSTO\SVILUPPI\MSX\CODE\C\MSXgl\projects\soccerlgMSX2/soccerlg_s9_b3.c:280: (cross_x >= goal_right - 4 && cross_x <= goal_right + 4)) {
	ld	a, l
	sub	a, #0x98
	ld	a, h
	rla
	ccf
	rra
	sbc	a, #0x80
	jr	C, 00237$
	ld	a, #0xa0
	cp	a, l
	ld	a, #0x00
	sbc	a, h
	jp	PO, 01742$
	xor	a, #0x80
01742$:
	jp	M, 00237$
00227$:
;E:\Dropbox\FAUSTO\SVILUPPI\MSX\CODE\C\MSXgl\projects\soccerlgMSX2/soccerlg_s9_b3.c:281: hit_post = TRUE;
	ld	-1 (ix), #0x01
00237$:
;E:\Dropbox\FAUSTO\SVILUPPI\MSX\CODE\C\MSXgl\projects\soccerlgMSX2/soccerlg_s9_b3.c:285: if (hit_post) {
	ld	a, -1 (ix)
	or	a, a
	jp	Z, 00251$
;E:\Dropbox\FAUSTO\SVILUPPI\MSX\CODE\C\MSXgl\projects\soccerlgMSX2/soccerlg_s9_b3.c:290: i16 out_dx = in_dx;
	ld	a, -33 (ix)
	ld	-9 (ix), a
	ld	a, -32 (ix)
	ld	-8 (ix), a
;E:\Dropbox\FAUSTO\SVILUPPI\MSX\CODE\C\MSXgl\projects\soccerlgMSX2/soccerlg_s9_b3.c:291: i16 out_dy = -in_dy;
	xor	a, a
	sub	a, -23 (ix)
	ld	-7 (ix), a
	sbc	a, a
	sub	a, -22 (ix)
	ld	-6 (ix), a
;E:\Dropbox\FAUSTO\SVILUPPI\MSX\CODE\C\MSXgl\projects\soccerlgMSX2/soccerlg_s9_b3.c:294: i16 len = (out_dx > 0 ? out_dx : -out_dx) + (out_dy > 0 ? out_dy : -out_dy);
	xor	a, a
	cp	a, -15 (ix)
	sbc	a, -14 (ix)
	jp	PO, 01743$
	xor	a, #0x80
01743$:
	jp	P, 00521$
	ld	a, -33 (ix)
	ld	-11 (ix), a
	ld	a, -32 (ix)
	ld	-10 (ix), a
	jp	00522$
00521$:
	xor	a, a
	sub	a, -33 (ix)
	ld	-11 (ix), a
	sbc	a, a
	sub	a, -32 (ix)
	ld	-10 (ix), a
00522$:
	ld	a, -7 (ix)
	ld	-15 (ix), a
	ld	a, -6 (ix)
	ld	-14 (ix), a
	xor	a, a
	cp	a, -15 (ix)
	sbc	a, -14 (ix)
	jp	PO, 01744$
	xor	a, #0x80
01744$:
	jp	P, 00523$
	ld	a, -7 (ix)
	ld	-13 (ix), a
	ld	a, -6 (ix)
	ld	-12 (ix), a
	jp	00524$
00523$:
	xor	a, a
	sub	a, -7 (ix)
	ld	-13 (ix), a
	sbc	a, a
	sub	a, -6 (ix)
	ld	-12 (ix), a
00524$:
	ld	a, -11 (ix)
	add	a, -13 (ix)
	ld	c, a
	ld	a, -10 (ix)
	adc	a, -12 (ix)
	ld	-7 (ix), c
;E:\Dropbox\FAUSTO\SVILUPPI\MSX\CODE\C\MSXgl\projects\soccerlgMSX2/soccerlg_s9_b3.c:295: if (len == 0) len = 1;
	ld	-6 (ix), a
	or	a, -7 (ix)
	jr	NZ, 00240$
	ld	-7 (ix), #0x01
	ld	-6 (ix), #0
00240$:
;E:\Dropbox\FAUSTO\SVILUPPI\MSX\CODE\C\MSXgl\projects\soccerlgMSX2/soccerlg_s9_b3.c:297: out_dx = (out_dx * 40) / len;
	ld	c, -9 (ix)
	ld	b, -8 (ix)
	ld	l, c
	ld	h, b
	add	hl, hl
	add	hl, hl
	add	hl, bc
	add	hl, hl
	add	hl, hl
	add	hl, hl
	ld	e, -7 (ix)
	ld	d, -6 (ix)
	call	__divsint
	ld	-9 (ix), e
	ld	-8 (ix), d
;E:\Dropbox\FAUSTO\SVILUPPI\MSX\CODE\C\MSXgl\projects\soccerlgMSX2/soccerlg_s9_b3.c:298: out_dy = (out_dy * 40) / len;
	ld	c, -15 (ix)
	ld	b, -14 (ix)
	ld	l, c
	ld	h, b
	add	hl, hl
	add	hl, hl
	add	hl, bc
	add	hl, hl
	add	hl, hl
	add	hl, hl
	ld	e, -7 (ix)
	ld	d, -6 (ix)
	call	__divsint
;E:\Dropbox\FAUSTO\SVILUPPI\MSX\CODE\C\MSXgl\projects\soccerlgMSX2/soccerlg_s9_b3.c:301: if (out_dy > 0) {
	ld	l, e
;	spillPairReg hl
;	spillPairReg hl
	ld	h, d
;	spillPairReg hl
;	spillPairReg hl
;E:\Dropbox\FAUSTO\SVILUPPI\MSX\CODE\C\MSXgl\projects\soccerlgMSX2/soccerlg_s9_b3.c:302: if (Ball->ly < top_boundary + 2) Ball->ly = top_boundary + 2;
	ld	c, -19 (ix)
	ld	b, -18 (ix)
;E:\Dropbox\FAUSTO\SVILUPPI\MSX\CODE\C\MSXgl\projects\soccerlgMSX2/soccerlg_s9_b3.c:301: if (out_dy > 0) {
	xor	a, a
	cp	a, l
	sbc	a, h
	jp	PO, 01745$
	xor	a, #0x80
01745$:
	jp	P, 00246$
;E:\Dropbox\FAUSTO\SVILUPPI\MSX\CODE\C\MSXgl\projects\soccerlgMSX2/soccerlg_s9_b3.c:302: if (Ball->ly < top_boundary + 2) Ball->ly = top_boundary + 2;
	ld	a, c
	sub	a, #0x1a
	ld	a, b
	sbc	a, #0x00
	jr	NC, 00247$
	ld	hl, #0x001a
	ld	((_SwSprite + 326)), hl
	jp	00247$
00246$:
;E:\Dropbox\FAUSTO\SVILUPPI\MSX\CODE\C\MSXgl\projects\soccerlgMSX2/soccerlg_s9_b3.c:304: if (Ball->ly > bottom_boundary - 2) Ball->ly = bottom_boundary - 2;
	ld	a, #0xdc
	cp	a, c
	ld	a, #0x01
	sbc	a, b
	jr	NC, 00247$
	ld	hl, #0x01dc
	ld	((_SwSprite + 326)), hl
00247$:
;E:\Dropbox\FAUSTO\SVILUPPI\MSX\CODE\C\MSXgl\projects\soccerlgMSX2/soccerlg_s9_b3.c:307: g_pass_start_x = Ball->lx;
	ld	a, (#(_SwSprite + 322) + 0)
	ld	(_g_pass_start_x+0), a
	xor	a, a
	ld	(_g_pass_start_x+1), a
;E:\Dropbox\FAUSTO\SVILUPPI\MSX\CODE\C\MSXgl\projects\soccerlgMSX2/soccerlg_s9_b3.c:308: g_pass_start_y = Ball->ly;
	ld	hl, #(_SwSprite + 326)
	ld	a, (hl)
	inc	hl
	ld	(_g_pass_start_y+0), a
	ld	a, (hl)
	ld	(_g_pass_start_y+1), a
;E:\Dropbox\FAUSTO\SVILUPPI\MSX\CODE\C\MSXgl\projects\soccerlgMSX2/soccerlg_s9_b3.c:310: g_pass_target_x = g_pass_start_x + out_dx;
	ld	c, -9 (ix)
	ld	b, -8 (ix)
	ld	hl, #_g_pass_target_x
	ld	a, (_g_pass_start_x+0)
	add	a, c
	ld	(hl), a
	inc	hl
	ld	a, (_g_pass_start_x+1)
	adc	a, b
	ld	(hl), a
;E:\Dropbox\FAUSTO\SVILUPPI\MSX\CODE\C\MSXgl\projects\soccerlgMSX2/soccerlg_s9_b3.c:311: g_pass_target_y = g_pass_start_y + out_dy;
	ld	a, e
	ld	hl, #_g_pass_start_y
	ld	iy, #_g_pass_target_y
	add	a, (hl)
	ld	0 (iy), a
	inc	hl
	ld	a, d
	adc	a, (hl)
	inc	iy
	ld	0 (iy), a
;E:\Dropbox\FAUSTO\SVILUPPI\MSX\CODE\C\MSXgl\projects\soccerlgMSX2/soccerlg_s9_b3.c:313: g_pass_max_frames = 10; // Rimbalzo rapido
	ld	hl, #_g_pass_max_frames
	ld	(hl), #0x0a
;E:\Dropbox\FAUSTO\SVILUPPI\MSX\CODE\C\MSXgl\projects\soccerlgMSX2/soccerlg_s9_b3.c:314: Ball->count = 0; 
	ld	hl, #0x0000
	ld	((_SwSprite + 343)), hl
00251$:
;E:\Dropbox\FAUSTO\SVILUPPI\MSX\CODE\C\MSXgl\projects\soccerlgMSX2/soccerlg_s9_b3.c:319: if (!hit_post && progress > 0) {
	ld	a, -1 (ix)
	or	a, a
	jp	NZ, 00261$
	ld	a, -35 (ix)
	or	a, a
	jp	Z, 00261$
;E:\Dropbox\FAUSTO\SVILUPPI\MSX\CODE\C\MSXgl\projects\soccerlgMSX2/soccerlg_s9_b3.c:320: u8 gks[2] = {0, 7};
	ld	-25 (ix), #0x00
	ld	-24 (ix), #0x07
;E:\Dropbox\FAUSTO\SVILUPPI\MSX\CODE\C\MSXgl\projects\soccerlgMSX2/soccerlg_s9_b3.c:321: for (u8 g = 0; g < 2; g++) {
	ld	c, #0x00
00453$:
	ld	a, c
	sub	a, #0x02
	jp	NC, 00261$
;E:\Dropbox\FAUSTO\SVILUPPI\MSX\CODE\C\MSXgl\projects\soccerlgMSX2/soccerlg_s9_b3.c:322: u8 gk_idx = gks[g];
	ld	e, c
	ld	d, #0x00
	ld	hl, #12
	add	hl, sp
	add	hl, de
	ld	e, (hl)
;E:\Dropbox\FAUSTO\SVILUPPI\MSX\CODE\C\MSXgl\projects\soccerlgMSX2/soccerlg_s9_b3.c:325: if (LastTouchPlayer == gk_idx) continue;
	ld	a, (_LastTouchPlayer+0)
	sub	a, e
	jp	Z,00258$
;E:\Dropbox\FAUSTO\SVILUPPI\MSX\CODE\C\MSXgl\projects\soccerlgMSX2/soccerlg_s9_b3.c:327: u16 dist_x = (SwSprite[gk_idx].lx > Ball->lx) ? (SwSprite[gk_idx].lx - Ball->lx) : (Ball->lx - SwSprite[gk_idx].lx);
	ld	d, #0x00
	ld	l, e
	ld	h, d
	add	hl, hl
	add	hl, hl
	add	hl, de
	add	hl, hl
	add	hl, de
	add	hl, hl
	add	hl, de
	ld	de, #_SwSprite
	add	hl, de
	ld	-13 (ix), l
	ld	-12 (ix), h
	ld	e, (hl)
;E:\Dropbox\FAUSTO\SVILUPPI\MSX\CODE\C\MSXgl\projects\soccerlgMSX2/soccerlg_s9_b3.c:202: u8 dx_diff = (u8)(SwSprite[i].lx - Ball->lx);
	ld	hl, #(_SwSprite + 322)
	ld	l, (hl)
;	spillPairReg hl
;E:\Dropbox\FAUSTO\SVILUPPI\MSX\CODE\C\MSXgl\projects\soccerlgMSX2/soccerlg_s9_b3.c:327: u16 dist_x = (SwSprite[gk_idx].lx > Ball->lx) ? (SwSprite[gk_idx].lx - Ball->lx) : (Ball->lx - SwSprite[gk_idx].lx);
	ld	-11 (ix), e
	ld	-10 (ix), #0x00
	ld	-9 (ix), l
	ld	-8 (ix), #0x00
	ld	a, l
	sub	a, e
	jr	NC, 00525$
	ld	a, -11 (ix)
	sub	a, -9 (ix)
	ld	-7 (ix), a
	ld	a, -10 (ix)
	sbc	a, -8 (ix)
	ld	-6 (ix), a
	jp	00526$
00525$:
	ld	a, -9 (ix)
	sub	a, -11 (ix)
	ld	-7 (ix), a
	ld	a, -8 (ix)
	sbc	a, -10 (ix)
	ld	-6 (ix), a
00526$:
	ld	a, -7 (ix)
	ld	-11 (ix), a
	ld	a, -6 (ix)
	ld	-10 (ix), a
;E:\Dropbox\FAUSTO\SVILUPPI\MSX\CODE\C\MSXgl\projects\soccerlgMSX2/soccerlg_s9_b3.c:328: u16 dist_y = (SwSprite[gk_idx].ly > Ball->ly) ? (SwSprite[gk_idx].ly - Ball->ly) : (Ball->ly - SwSprite[gk_idx].ly);
	ld	a, -13 (ix)
	add	a, #0x04
	ld	-9 (ix), a
	ld	a, -12 (ix)
	adc	a, #0x00
	ld	-8 (ix), a
	ld	l, -9 (ix)
	ld	h, -8 (ix)
	ld	a, (hl)
	ld	-7 (ix), a
	inc	hl
	ld	a, (hl)
	ld	-6 (ix), a
	ld	de, (#(_SwSprite + 326) + 0)
	ld	a, e
	sub	a, -7 (ix)
	ld	a, d
	sbc	a, -6 (ix)
	jr	NC, 00527$
	ld	a, -7 (ix)
	sub	a, e
	ld	e, a
	ld	a, -6 (ix)
	sbc	a, d
	jp	00528$
00527$:
	ld	a, e
	sub	a, -7 (ix)
	ld	e, a
	ld	a, d
	sbc	a, -6 (ix)
00528$:
	ld	b, a
;E:\Dropbox\FAUSTO\SVILUPPI\MSX\CODE\C\MSXgl\projects\soccerlgMSX2/soccerlg_s9_b3.c:330: if (dist_x <= 12 && dist_y <= 12) {
	ld	l, -11 (ix)
;	spillPairReg hl
;	spillPairReg hl
	ld	d, -10 (ix)
	ld	a, #0x0c
	cp	a, l
	ld	a, #0x00
	sbc	a, d
	jr	C, 00258$
	ld	a, #0x0c
	cp	a, e
	ld	a, #0x00
	sbc	a, b
	jr	C, 00258$
;E:\Dropbox\FAUSTO\SVILUPPI\MSX\CODE\C\MSXgl\projects\soccerlgMSX2/soccerlg_s9_b3.c:331: *game_state = 6; // Ferma il gioco per preparare il rinvio
	ld	l, -3 (ix)
	ld	h, -2 (ix)
	ld	(hl), #0x06
;E:\Dropbox\FAUSTO\SVILUPPI\MSX\CODE\C\MSXgl\projects\soccerlgMSX2/soccerlg_s9_b3.c:332: Field.dy = 0;
	ld	hl, #(_Field + 18)
	ld	(hl), #0x00
;E:\Dropbox\FAUSTO\SVILUPPI\MSX\CODE\C\MSXgl\projects\soccerlgMSX2/soccerlg_s9_b3.c:333: RestartType = RESTART_GKSAVE;
	ld	hl, #_RestartType
	ld	(hl), #0x04
;E:\Dropbox\FAUSTO\SVILUPPI\MSX\CODE\C\MSXgl\projects\soccerlgMSX2/soccerlg_s9_b3.c:334: RestartSideX = SwSprite[gk_idx].lx;
	ld	l, -13 (ix)
	ld	h, -12 (ix)
	ld	a, (hl)
	ld	(_RestartSideX+0), a
;E:\Dropbox\FAUSTO\SVILUPPI\MSX\CODE\C\MSXgl\projects\soccerlgMSX2/soccerlg_s9_b3.c:335: RestartSideY = SwSprite[gk_idx].ly;
	ld	l, -9 (ix)
	ld	h, -8 (ix)
	ld	a, (hl)
	inc	hl
	ld	(_RestartSideY+0), a
	ld	a, (hl)
	ld	(_RestartSideY+1), a
;E:\Dropbox\FAUSTO\SVILUPPI\MSX\CODE\C\MSXgl\projects\soccerlgMSX2/soccerlg_s9_b3.c:336: Ball->anim = Ball->dx = Ball->dy = 0;
	ld	hl, #(_SwSprite + 340)
	ld	(hl), #0x00
	ld	hl, #(_SwSprite + 339)
	ld	(hl), #0x00
	ld	hl, #0x0000
	ld	((_SwSprite + 341)), hl
;E:\Dropbox\FAUSTO\SVILUPPI\MSX\CODE\C\MSXgl\projects\soccerlgMSX2/soccerlg_s9_b3.c:337: Ball->frame = SPR_BALL_SIZE_1; // Forza la dimensione a terra
	ld	hl, #_T2_Carrier
	ld	(hl), #0xff
	ld	hl, #_T1_Carrier
	ld	(hl), #0xff
;E:\Dropbox\FAUSTO\SVILUPPI\MSX\CODE\C\MSXgl\projects\soccerlgMSX2/soccerlg_s9_b3.c:338: T1_Carrier = T2_Carrier = 0xFF;
	ld	iy, #_TimerEnabled
	ld	0 (iy), #0x00
;E:\Dropbox\FAUSTO\SVILUPPI\MSX\CODE\C\MSXgl\projects\soccerlgMSX2/soccerlg_s9_b3.c:339: TimerEnabled = FALSE;
	ld	l, -5 (ix)
	ld	h, -4 (ix)
	ld	(hl), #0x01
	ld	c, 4 (ix)
	ld	b, 5 (ix)
	ld	a, (_Frms+0)
	ld	(bc), a
;E:\Dropbox\FAUSTO\SVILUPPI\MSX\CODE\C\MSXgl\projects\soccerlgMSX2/soccerlg_s9_b3.c:340: *wait_secs = 1; *start_sec = Frms;
	jp	00459$
00258$:
;E:\Dropbox\FAUSTO\SVILUPPI\MSX\CODE\C\MSXgl\projects\soccerlgMSX2/soccerlg_s9_b3.c:321: for (u8 g = 0; g < 2; g++) {
	inc	c
	jp	00453$
00261$:
;E:\Dropbox\FAUSTO\SVILUPPI\MSX\CODE\C\MSXgl\projects\soccerlgMSX2/soccerlg_s9_b3.c:349: // Prima metà: sale fino all'altezza massima stabilita
	ld	c, -34 (ix)
	ld	b, #0x00
;E:\Dropbox\FAUSTO\SVILUPPI\MSX\CODE\C\MSXgl\projects\soccerlgMSX2/soccerlg_s9_b3.c:347: u8 scale;
	ld	a, -34 (ix)
	sub	a, -35 (ix)
	jr	C, 00264$
;E:\Dropbox\FAUSTO\SVILUPPI\MSX\CODE\C\MSXgl\projects\soccerlgMSX2/soccerlg_s9_b3.c:349: // Prima metà: sale fino all'altezza massima stabilita
	push	bc
	ld	a, (#_g_pass_max_height + 0)
	ld	e, a
	ld	h, -35 (ix)
;	spillPairReg hl
;	spillPairReg hl
	ld	l, #0x00
	ld	d, l
	ld	b, #0x08
01747$:
	add	hl, hl
	jr	NC, 01748$
	add	hl, de
01748$:
	djnz	01747$
	pop	de
	call	__divsint
	ld	b, e
	inc	b
	jp	00265$
00264$:
;E:\Dropbox\FAUSTO\SVILUPPI\MSX\CODE\C\MSXgl\projects\soccerlgMSX2/soccerlg_s9_b3.c:352: // Seconda metà: scende dall'altezza massima a 0
	ld	a, -35 (ix)
	sub	a, -34 (ix)
	ld	e, a
;E:\Dropbox\FAUSTO\SVILUPPI\MSX\CODE\C\MSXgl\projects\soccerlgMSX2/soccerlg_s9_b3.c:353: u8 progress_down = progress - half_frame;
	ld	a, (_g_pass_max_height+0)
	inc	a
	ld	-1 (ix), a
	push	bc
	ld	a, (#_g_pass_max_height + 0)
	ld	h, a
;	spillPairReg hl
;	spillPairReg hl
	ld	l, #0x00
	ld	d, l
	ld	b, #0x08
01749$:
	add	hl, hl
	jr	NC, 01750$
	add	hl, de
01750$:
	djnz	01749$
	pop	bc
	ld	a, (_g_pass_max_frames+0)
	ld	d, #0x00
	sub	a, c
	ld	e, a
	ld	a, d
	sbc	a, b
	ld	d, a
	call	__divsint
	ld	a, -1 (ix)
	sub	a, e
	ld	b, a
00265$:
;E:\Dropbox\FAUSTO\SVILUPPI\MSX\CODE\C\MSXgl\projects\soccerlgMSX2/soccerlg_s9_b3.c:355: }
	ld	a, #0x07
	sub	a, b
	jr	NC, 00267$
	ld	b, #0x07
00267$:
;E:\Dropbox\FAUSTO\SVILUPPI\MSX\CODE\C\MSXgl\projects\soccerlgMSX2/soccerlg_s9_b3.c:356: if (scale > 7) scale = 7; // Clamp a 7 (SPR_BALL_SIZE_8 = SPR_BALL_SIZE_1 + 7)
	push	bc
	inc	sp
	ld	de, #_SetBallSprite
	ld	a, #0x05
	call	_CallFnc_VOID_P1
;E:\Dropbox\FAUSTO\SVILUPPI\MSX\CODE\C\MSXgl\projects\soccerlgMSX2/soccerlg_s9_b3.c:358: 
	ld	bc, (#(_SwSprite + 343) + 0)
	inc	bc
	ld	((_SwSprite + 343)), bc
;E:\Dropbox\FAUSTO\SVILUPPI\MSX\CODE\C\MSXgl\projects\soccerlgMSX2/soccerlg_s9_b3.c:359: Ball->count++;
	ld	a, (_g_pass_max_frames+0)
	ld	e, a
	ld	d, #0x00
	ld	a, c
	sub	a, e
	ld	a, b
	sbc	a, d
	jp	C, 00284$
;E:\Dropbox\FAUSTO\SVILUPPI\MSX\CODE\C\MSXgl\projects\soccerlgMSX2/soccerlg_s9_b3.c:360: if (Ball->count >= g_pass_max_frames) {
	ld	hl, #0x0000
	ld	((_SwSprite + 341)), hl
;E:\Dropbox\FAUSTO\SVILUPPI\MSX\CODE\C\MSXgl\projects\soccerlgMSX2/soccerlg_s9_b3.c:361: Ball->anim = 0; // Passaggio completato
	ld	((_SwSprite + 343)), hl
;E:\Dropbox\FAUSTO\SVILUPPI\MSX\CODE\C\MSXgl\projects\soccerlgMSX2/soccerlg_s9_b3.c:362: Ball->count = 0;
	ld	hl, #(_SwSprite + 340)
	ld	(hl), #0x00
	ld	hl, #(_SwSprite + 339)
	ld	(hl), #0x00
;E:\Dropbox\FAUSTO\SVILUPPI\MSX\CODE\C\MSXgl\projects\soccerlgMSX2/soccerlg_s9_b3.c:363: Ball->dx = Ball->dy = 0;
	xor	a, a
	push	af
	inc	sp
	ld	de, #_SetBallSprite
	ld	a, #0x05
	call	_CallFnc_VOID_P1
	jp	00284$
00281$:
;E:\Dropbox\FAUSTO\SVILUPPI\MSX\CODE\C\MSXgl\projects\soccerlgMSX2/soccerlg_s9_b3.c:367: // Dribbling velocità decrescente: 5, 4, 3, 2 (totale 14 pixel). Supera i 2 px del portatore per staccarsi visibilmente!
	ld	a, -7 (ix)
	inc	a
	ld	-1 (ix), a
;E:\Dropbox\FAUSTO\SVILUPPI\MSX\CODE\C\MSXgl\projects\soccerlgMSX2/soccerlg_s9_b3.c:368: u8 speed = Ball->anim + 1;
	ld	hl, #(_SwSprite + 322) + 17
	ld	c, (hl)
	xor	a, a
	sub	a, c
	jp	PO, 01751$
	xor	a, #0x80
01751$:
	jp	P, 00273$
	ld	a, (#(_SwSprite + 322) + 0)
	ld	-6 (ix), a
	add	a, -1 (ix)
	ld	-6 (ix), a
	ld	hl, #(_SwSprite + 322)
	ld	a, -6 (ix)
	ld	(hl), a
	jp	00274$
00273$:
;E:\Dropbox\FAUSTO\SVILUPPI\MSX\CODE\C\MSXgl\projects\soccerlgMSX2/soccerlg_s9_b3.c:369: if (Ball->dx > 0) Ball->lx += speed;
	bit	7, c
	jr	Z, 00274$
	ld	a, (#(_SwSprite + 322) + 0)
	sub	a, -1 (ix)
	ld	(#(_SwSprite + 322)),a
00274$:
;E:\Dropbox\FAUSTO\SVILUPPI\MSX\CODE\C\MSXgl\projects\soccerlgMSX2/soccerlg_s9_b3.c:371: 
	ld	a, (#(_SwSprite + 322) + 18)
	ld	-6 (ix), a
	xor	a, a
	sub	a, -6 (ix)
	jp	PO, 01752$
	xor	a, #0x80
01752$:
	jp	P, 00278$
	ld	hl, #(_SwSprite + 326)
	ld	a, (hl)
	ld	-9 (ix), a
	inc	hl
	ld	a, (hl)
	ld	-8 (ix), a
	ld	a, -1 (ix)
	ld	-7 (ix), a
	ld	-6 (ix), #0x00
	ld	a, -7 (ix)
	add	a, -9 (ix)
	ld	-11 (ix), a
	ld	a, -6 (ix)
	adc	a, -8 (ix)
	ld	-10 (ix), a
	ld	a, -11 (ix)
	ld	-7 (ix), a
	ld	a, -10 (ix)
	ld	-6 (ix), a
	ld	hl, #(_SwSprite + 326)
	ld	a, -7 (ix)
	ld	(hl), a
	inc	hl
	ld	a, -6 (ix)
	ld	(hl), a
	jp	00279$
00278$:
;E:\Dropbox\FAUSTO\SVILUPPI\MSX\CODE\C\MSXgl\projects\soccerlgMSX2/soccerlg_s9_b3.c:372: if (Ball->dy > 0) Ball->ly += speed;
	bit	7, -6 (ix)
	jr	Z, 00279$
	ld	hl, #(_SwSprite + 326)
	ld	a, (hl)
	ld	-9 (ix), a
	inc	hl
	ld	a, (hl)
	ld	-8 (ix), a
	ld	a, -1 (ix)
	ld	-7 (ix), a
	ld	-6 (ix), #0x00
	ld	a, -9 (ix)
	ld	-11 (ix), a
	ld	a, -8 (ix)
	ld	-10 (ix), a
	ld	a, -7 (ix)
	ld	-9 (ix), a
	ld	a, -6 (ix)
	ld	-8 (ix), a
	ld	a, -11 (ix)
	sub	a, -9 (ix)
	ld	-7 (ix), a
	ld	a, -10 (ix)
	sbc	a, -8 (ix)
	ld	-6 (ix), a
	ld	hl, #(_SwSprite + 326)
	ld	a, -7 (ix)
	ld	(hl), a
	inc	hl
	ld	a, -6 (ix)
	ld	(hl), a
00279$:
;E:\Dropbox\FAUSTO\SVILUPPI\MSX\CODE\C\MSXgl\projects\soccerlgMSX2/soccerlg_s9_b3.c:374: 
	ld	bc, (#(_SwSprite + 341) + 0)
	dec	bc
	ld	((_SwSprite + 341)), bc
00284$:
;E:\Dropbox\FAUSTO\SVILUPPI\MSX\CODE\C\MSXgl\projects\soccerlgMSX2/soccerlg_s9_b3.c:379: // 2. Gestione portatori (Player 1 e Player 2)
	ld	a, (_T1_Carrier+0)
	ld	-31 (ix), a
	ld	a, (_T2_Carrier+0)
	ld	-30 (ix), a
;E:\Dropbox\FAUSTO\SVILUPPI\MSX\CODE\C\MSXgl\projects\soccerlgMSX2/soccerlg_s9_b3.c:380: u8 carriers[2] = {T1_Carrier, T2_Carrier};
	ld	a, (_T1_Receiver+0)
	ld	-29 (ix), a
	ld	a, (_T2_Receiver+0)
	ld	-28 (ix), a
;E:\Dropbox\FAUSTO\SVILUPPI\MSX\CODE\C\MSXgl\projects\soccerlgMSX2/soccerlg_s9_b3.c:382: 
	ld	-1 (ix), #0x00
00455$:
	ld	a, -1 (ix)
	sub	a, #0x02
	jp	NC, 00405$
;E:\Dropbox\FAUSTO\SVILUPPI\MSX\CODE\C\MSXgl\projects\soccerlgMSX2/soccerlg_s9_b3.c:383: for (u8 i = 0; i < 2; i++) { // i=0 per Team 1 (P2/CPU), i=1 per Team 2 (P1)
	ld	e, -1 (ix)
	ld	d, #0x00
	ld	hl, #6
	add	hl, sp
	add	hl, de
	ld	-7 (ix), l
	ld	-6 (ix), h
	ld	a, (hl)
;E:\Dropbox\FAUSTO\SVILUPPI\MSX\CODE\C\MSXgl\projects\soccerlgMSX2/soccerlg_s9_b3.c:384: u8 carrier = carriers[i];
	ld	-9 (ix), a
	inc	a
	jp	Z,00404$
;E:\Dropbox\FAUSTO\SVILUPPI\MSX\CODE\C\MSXgl\projects\soccerlgMSX2/soccerlg_s9_b3.c:386: 
	ld	c, -1 (ix)
	ld	b, #0x00
	ld	l, c
	ld	h, b
	add	hl, hl
	add	hl, bc
	ld	de, #_g_player_input
	add	hl, de
	ld	-7 (ix), l
	ld	-6 (ix), h
	ld	e, (hl)
;E:\Dropbox\FAUSTO\SVILUPPI\MSX\CODE\C\MSXgl\projects\soccerlgMSX2/soccerlg_s9_b3.c:387: u8 dir = g_player_input[i].direction;
	ld	c, -7 (ix)
	ld	b, -6 (ix)
	inc	bc
	ld	a, (bc)
	ld	-8 (ix), a
;E:\Dropbox\FAUSTO\SVILUPPI\MSX\CODE\C\MSXgl\projects\soccerlgMSX2/soccerlg_s9_b3.c:388: bool trigger_pressed = g_player_input[i].trigger_pressed;
	ld	c, -9 (ix)
	ld	b, #0x00
	ld	l, c
	ld	h, b
	add	hl, hl
	add	hl, hl
	add	hl, bc
	add	hl, hl
	add	hl, bc
	add	hl, hl
	add	hl, bc
	ld	bc, #_SwSprite
	add	hl, bc
	ld	-23 (ix), l
	ld	-22 (ix), h
;E:\Dropbox\FAUSTO\SVILUPPI\MSX\CODE\C\MSXgl\projects\soccerlgMSX2/soccerlg_s9_b3.c:390: 
	ld	a, -23 (ix)
	add	a, #0x11
	ld	-21 (ix), a
	ld	a, -22 (ix)
	adc	a, #0x00
	ld	-20 (ix), a
	ld	l, -21 (ix)
	ld	h, -20 (ix)
	ld	(hl), #0x00
	ld	a, -23 (ix)
	add	a, #0x12
	ld	-19 (ix), a
	ld	a, -22 (ix)
	adc	a, #0x00
	ld	-18 (ix), a
	ld	l, -19 (ix)
	ld	h, -18 (ix)
	ld	(hl), #0x00
;E:\Dropbox\FAUSTO\SVILUPPI\MSX\CODE\C\MSXgl\projects\soccerlgMSX2/soccerlg_s9_b3.c:391: Carrier->dx = 0; Carrier->dy = 0;
	ld	a, #0x08
	sub	a, e
	jp	C, 00295$
	ld	d, #0x00
	ld	hl, #01754$
	add	hl, de
	add	hl, de
	add	hl, de
	jp	(hl)
01754$:
	jp	00295$
	jp	00287$
	jp	00288$
	jp	00289$
	jp	00290$
	jp	00291$
	jp	00292$
	jp	00293$
	jp	00294$
;E:\Dropbox\FAUSTO\SVILUPPI\MSX\CODE\C\MSXgl\projects\soccerlgMSX2/soccerlg_s9_b3.c:392: switch(dir) {
00287$:
	ld	l, -19 (ix)
	ld	h, -18 (ix)
	ld	(hl), #0xfe
	jp	00295$
;E:\Dropbox\FAUSTO\SVILUPPI\MSX\CODE\C\MSXgl\projects\soccerlgMSX2/soccerlg_s9_b3.c:393: case DIRECTION_UP: Carrier->dy = -2; break;
00288$:
	ld	l, -19 (ix)
	ld	h, -18 (ix)
	ld	(hl), #0xfe
	ld	l, -21 (ix)
	ld	h, -20 (ix)
	ld	(hl), #0x02
	jp	00295$
;E:\Dropbox\FAUSTO\SVILUPPI\MSX\CODE\C\MSXgl\projects\soccerlgMSX2/soccerlg_s9_b3.c:394: case DIRECTION_UP_RIGHT: Carrier->dy = -2; Carrier->dx = 2; break;
00289$:
	ld	l, -21 (ix)
	ld	h, -20 (ix)
	ld	(hl), #0x02
	jp	00295$
;E:\Dropbox\FAUSTO\SVILUPPI\MSX\CODE\C\MSXgl\projects\soccerlgMSX2/soccerlg_s9_b3.c:395: case DIRECTION_RIGHT: Carrier->dx = 2; break;
00290$:
	ld	l, -19 (ix)
	ld	h, -18 (ix)
	ld	(hl), #0x02
	ld	l, -21 (ix)
	ld	h, -20 (ix)
	ld	(hl), #0x02
	jp	00295$
;E:\Dropbox\FAUSTO\SVILUPPI\MSX\CODE\C\MSXgl\projects\soccerlgMSX2/soccerlg_s9_b3.c:396: case DIRECTION_DOWN_RIGHT: Carrier->dy = 2; Carrier->dx = 2; break;
00291$:
	ld	l, -19 (ix)
	ld	h, -18 (ix)
	ld	(hl), #0x02
	jp	00295$
;E:\Dropbox\FAUSTO\SVILUPPI\MSX\CODE\C\MSXgl\projects\soccerlgMSX2/soccerlg_s9_b3.c:397: case DIRECTION_DOWN: Carrier->dy = 2; break;
00292$:
	ld	l, -19 (ix)
	ld	h, -18 (ix)
	ld	(hl), #0x02
	ld	l, -21 (ix)
	ld	h, -20 (ix)
	ld	(hl), #0xfe
	jp	00295$
;E:\Dropbox\FAUSTO\SVILUPPI\MSX\CODE\C\MSXgl\projects\soccerlgMSX2/soccerlg_s9_b3.c:398: case DIRECTION_DOWN_LEFT: Carrier->dy = 2; Carrier->dx = -2; break;
00293$:
	ld	l, -21 (ix)
	ld	h, -20 (ix)
	ld	(hl), #0xfe
	jp	00295$
;E:\Dropbox\FAUSTO\SVILUPPI\MSX\CODE\C\MSXgl\projects\soccerlgMSX2/soccerlg_s9_b3.c:399: case DIRECTION_LEFT: Carrier->dx = -2; break;
00294$:
	ld	l, -19 (ix)
	ld	h, -18 (ix)
	ld	(hl), #0xfe
	ld	l, -21 (ix)
	ld	h, -20 (ix)
	ld	(hl), #0xfe
;E:\Dropbox\FAUSTO\SVILUPPI\MSX\CODE\C\MSXgl\projects\soccerlgMSX2/soccerlg_s9_b3.c:400: case DIRECTION_UP_LEFT: Carrier->dy = -2; Carrier->dx = -2; break;
00295$:
;E:\Dropbox\FAUSTO\SVILUPPI\MSX\CODE\C\MSXgl\projects\soccerlgMSX2/soccerlg_s9_b3.c:403: // Se il giocatore si muove
	ld	l, -21 (ix)
	ld	h, -20 (ix)
	ld	e, (hl)
;E:\Dropbox\FAUSTO\SVILUPPI\MSX\CODE\C\MSXgl\projects\soccerlgMSX2/soccerlg_s9_b3.c:412: 
	ld	a, -23 (ix)
	add	a, #0x04
	ld	-17 (ix), a
	ld	a, -22 (ix)
	adc	a, #0x00
	ld	-16 (ix), a
;E:\Dropbox\FAUSTO\SVILUPPI\MSX\CODE\C\MSXgl\projects\soccerlgMSX2/soccerlg_s9_b3.c:419: const u8 walk_seq[4] = {0, 1, 2, 1}; 
	ld	a, -23 (ix)
	add	a, #0x0f
	ld	c, a
	ld	a, -22 (ix)
	adc	a, #0x00
	ld	b, a
;E:\Dropbox\FAUSTO\SVILUPPI\MSX\CODE\C\MSXgl\projects\soccerlgMSX2/soccerlg_s9_b3.c:403: // Se il giocatore si muove
	ld	a, e
	or	a, a
	jr	NZ, 00308$
	ld	l, -19 (ix)
	ld	h, -18 (ix)
	ld	a, (hl)
	or	a, a
	jp	Z, 00309$
00308$:
;E:\Dropbox\FAUSTO\SVILUPPI\MSX\CODE\C\MSXgl\projects\soccerlgMSX2/soccerlg_s9_b3.c:404: if (Carrier->dx != 0 || Carrier->dy != 0) {
	ld	a, #<(_g_last_dx)
	add	a, -1 (ix)
	ld	d, a
	ld	a, #>(_g_last_dx)
	adc	a, #0x00
	ld	l, d
	ld	h, a
	ld	(hl), e
;E:\Dropbox\FAUSTO\SVILUPPI\MSX\CODE\C\MSXgl\projects\soccerlgMSX2/soccerlg_s9_b3.c:405: g_last_dx[i] = Carrier->dx;
	ld	a, #<(_g_last_dy)
	add	a, -1 (ix)
	ld	e, a
	ld	a, #>(_g_last_dy)
	adc	a, #0x00
	ld	d, a
	ld	l, -19 (ix)
	ld	h, -18 (ix)
	ld	a, (hl)
	ld	(de), a
;E:\Dropbox\FAUSTO\SVILUPPI\MSX\CODE\C\MSXgl\projects\soccerlgMSX2/soccerlg_s9_b3.c:407: 
	ld	l, -23 (ix)
	ld	h, -22 (ix)
	ld	e, (hl)
	ld	d, #0x00
	ld	l, -21 (ix)
	ld	h, -20 (ix)
	ld	a, (hl)
	ld	l, a
;	spillPairReg hl
;	spillPairReg hl
	rlca
	sbc	a, a
	ld	h, a
;	spillPairReg hl
;	spillPairReg hl
	add	hl, de
;E:\Dropbox\FAUSTO\SVILUPPI\MSX\CODE\C\MSXgl\projects\soccerlgMSX2/soccerlg_s9_b3.c:408: i16 next_x = (i16)Carrier->lx + Carrier->dx;
	ld	e, l
	ld	d, h
	ld	a, e
	sub	a, #0x10
	ld	a, d
	rla
	ccf
	rra
	sbc	a, #0x80
	jr	NC, 00300$
	ld	l, -23 (ix)
	ld	h, -22 (ix)
	ld	(hl), #0x10
	jp	00301$
00300$:
;E:\Dropbox\FAUSTO\SVILUPPI\MSX\CODE\C\MSXgl\projects\soccerlgMSX2/soccerlg_s9_b3.c:409: if (next_x < 16) Carrier->lx = 16;
	ld	a, #0xf0
	cp	a, e
	ld	a, #0x00
	sbc	a, d
	jp	PO, 01755$
	xor	a, #0x80
01755$:
	jp	P, 00297$
	ld	l, -23 (ix)
	ld	h, -22 (ix)
	ld	(hl), #0xf0
	jp	00301$
00297$:
;E:\Dropbox\FAUSTO\SVILUPPI\MSX\CODE\C\MSXgl\projects\soccerlgMSX2/soccerlg_s9_b3.c:410: else if (next_x > 240) Carrier->lx = 240;
	ld	a, l
	ld	l, -23 (ix)
	ld	h, -22 (ix)
	ld	(hl), a
00301$:
;E:\Dropbox\FAUSTO\SVILUPPI\MSX\CODE\C\MSXgl\projects\soccerlgMSX2/soccerlg_s9_b3.c:412: 
	ld	l, -17 (ix)
	ld	h, -16 (ix)
	ld	e, (hl)
	inc	hl
	ld	d, (hl)
	ld	l, -19 (ix)
	ld	h, -18 (ix)
	ld	a, (hl)
	ld	l, a
;	spillPairReg hl
;	spillPairReg hl
	rlca
	sbc	a, a
	ld	h, a
;	spillPairReg hl
;	spillPairReg hl
	add	hl, de
;E:\Dropbox\FAUSTO\SVILUPPI\MSX\CODE\C\MSXgl\projects\soccerlgMSX2/soccerlg_s9_b3.c:413: i16 next_y = (i16)Carrier->ly + Carrier->dy;
	ld	e, l
	ld	d, h
	ld	a, e
	sub	a, #0x18
	ld	a, d
	rla
	ccf
	rra
	sbc	a, #0x80
	jr	NC, 00306$
	ld	l, -17 (ix)
	ld	h, -16 (ix)
	ld	(hl), #0x18
	inc	hl
	ld	(hl), #0x00
	jp	00307$
00306$:
;E:\Dropbox\FAUSTO\SVILUPPI\MSX\CODE\C\MSXgl\projects\soccerlgMSX2/soccerlg_s9_b3.c:414: if (next_y < 24) Carrier->ly = 24;
	ld	a, #0xe8
	cp	a, e
	ld	a, #0x01
	sbc	a, d
	jp	PO, 01756$
	xor	a, #0x80
01756$:
	jp	P, 00303$
	ld	l, -17 (ix)
	ld	h, -16 (ix)
	ld	(hl), #0xe8
	inc	hl
	ld	(hl), #0x01
	jp	00307$
00303$:
;E:\Dropbox\FAUSTO\SVILUPPI\MSX\CODE\C\MSXgl\projects\soccerlgMSX2/soccerlg_s9_b3.c:415: else if (next_y > 488) Carrier->ly = 488;
	ex	de, hl
	ld	l, -17 (ix)
	ld	h, -16 (ix)
	ld	(hl), e
	inc	hl
	ld	(hl), d
00307$:
;E:\Dropbox\FAUSTO\SVILUPPI\MSX\CODE\C\MSXgl\projects\soccerlgMSX2/soccerlg_s9_b3.c:417: 
	ld	l, -23 (ix)
	ld	h, -22 (ix)
	ld	de, #0x0013
	add	hl, de
	ld	e, (hl)
	inc	hl
	ld	d, (hl)
	dec	hl
	inc	de
	ld	(hl), e
	inc	hl
	ld	(hl), d
;E:\Dropbox\FAUSTO\SVILUPPI\MSX\CODE\C\MSXgl\projects\soccerlgMSX2/soccerlg_s9_b3.c:418: Carrier->anim++;
	ld	-27 (ix), #0x00
	ld	-26 (ix), #0x01
	ld	-25 (ix), #0x02
	ld	-24 (ix), #0x01
;E:\Dropbox\FAUSTO\SVILUPPI\MSX\CODE\C\MSXgl\projects\soccerlgMSX2/soccerlg_s9_b3.c:419: const u8 walk_seq[4] = {0, 1, 2, 1}; 
	push	bc
	ex	de, hl
	ld	de, #0x0003
	call	__divuint
	pop	bc
	ld	a, e
	and	a, #0x03
	ld	e, a
	ld	d, #0x00
	ld	hl, #10
	add	hl, sp
	add	hl, de
	ld	d, (hl)
	ld	l, -19 (ix)
	ld	h, -18 (ix)
	ld	a, (hl)
	ld	l, -21 (ix)
	ld	h, -20 (ix)
	ld	h, (hl)
;	spillPairReg hl
	push	bc
	push	de
	inc	sp
	push	af
	inc	sp
	push	hl
	inc	sp
	ld	a, -9 (ix)
	push	af
	inc	sp
	ld	de, #_GetPlayerAnimFrame
	ld	a, #0x0b
	call	_CallFnc_U16_P4
	pop	bc
	ld	a, e
	ld	(bc), a
	inc	bc
	ld	a, d
	ld	(bc), a
	jp	00310$
00309$:
;E:\Dropbox\FAUSTO\SVILUPPI\MSX\CODE\C\MSXgl\projects\soccerlgMSX2/soccerlg_s9_b3.c:422: // Se è fermo, usa l'ultima direzione di movimento per la posa di attesa
	ld	a, #<(_g_last_dy)
	add	a, -1 (ix)
	ld	l, a
;	spillPairReg hl
;	spillPairReg hl
	ld	a, #>(_g_last_dy)
	adc	a, #0x00
	ld	h, a
	ld	d, (hl)
	ld	a, #<(_g_last_dx)
	add	a, -1 (ix)
	ld	e, a
	ld	a, #>(_g_last_dx)
	adc	a, #0x00
	ld	l, e
	ld	h, a
	ld	a, (hl)
	push	bc
	push	de
	inc	sp
	push	af
	inc	sp
	ld	a, -9 (ix)
	push	af
	inc	sp
	ld	de, #_GetPlayerIdleFrame
	ld	a, #0x0b
	call	_CallFnc_U16_P3
	pop	bc
	ld	a, e
	ld	(bc), a
	inc	bc
	ld	a, d
	ld	(bc), a
00310$:
;E:\Dropbox\FAUSTO\SVILUPPI\MSX\CODE\C\MSXgl\projects\soccerlgMSX2/soccerlg_s9_b3.c:426: // Calcolo della distanza dalla palla (SEMPRE, sia che si muova che fermo)
	ld	l, -23 (ix)
	ld	h, -22 (ix)
	ld	e, (hl)
	ld	hl, #(_SwSprite + 322)
	ld	d, (hl)
	ld	c, e
	ld	b, #0x00
	ld	-11 (ix), d
	ld	-10 (ix), #0x00
	ld	a, d
	sub	a, e
	jr	NC, 00529$
	ld	a, c
	sub	a, -11 (ix)
	ld	c, a
	ld	a, b
	sbc	a, -10 (ix)
	jp	00530$
00529$:
	ld	a, -11 (ix)
	sub	a, c
	ld	c, a
	ld	a, -10 (ix)
	sbc	a, b
00530$:
	ld	-37 (ix), c
	ld	-36 (ix), a
;E:\Dropbox\FAUSTO\SVILUPPI\MSX\CODE\C\MSXgl\projects\soccerlgMSX2/soccerlg_s9_b3.c:427: u16 dist_x = (Carrier->lx > Ball->lx) ? (Carrier->lx - Ball->lx) : (Ball->lx - Carrier->lx);
	ld	l, -17 (ix)
	ld	h, -16 (ix)
	ld	a, (hl)
	ld	-33 (ix), a
	inc	hl
	ld	a, (hl)
	ld	-32 (ix), a
	ld	hl, #(_SwSprite + 326)
	ld	a, (hl)
	ld	-13 (ix), a
	inc	hl
	ld	a, (hl)
	ld	-12 (ix), a
	ld	a, -13 (ix)
	sub	a, -33 (ix)
	ld	a, -12 (ix)
	sbc	a, -32 (ix)
	jr	NC, 00531$
	ld	a, -33 (ix)
	sub	a, -13 (ix)
	ld	-11 (ix), a
	ld	a, -32 (ix)
	sbc	a, -12 (ix)
	ld	-10 (ix), a
	jp	00532$
00531$:
	ld	a, -13 (ix)
	sub	a, -33 (ix)
	ld	-11 (ix), a
	ld	a, -12 (ix)
	sbc	a, -32 (ix)
	ld	-10 (ix), a
00532$:
	ld	a, -11 (ix)
	ld	-35 (ix), a
	ld	a, -10 (ix)
	ld	-34 (ix), a
;E:\Dropbox\FAUSTO\SVILUPPI\MSX\CODE\C\MSXgl\projects\soccerlgMSX2/soccerlg_s9_b3.c:429: 
	ld	a, -9 (ix)
	sub	a, #0x07
	ld	a, #0x00
	rla
	ld	-15 (ix), a
	or	a, a
	jr	Z, 00533$
	xor	a, a
	ld	-11 (ix), a
	ld	-10 (ix), a
	jp	00534$
00533$:
	ld	-11 (ix), #0x01
	ld	-10 (ix), #0
00534$:
	ld	c, -11 (ix)
;E:\Dropbox\FAUSTO\SVILUPPI\MSX\CODE\C\MSXgl\projects\soccerlgMSX2/soccerlg_s9_b3.c:430: u8 carrier_team = (carrier < 7) ? TEAM_1 : TEAM_2;
	ld	a,(_LastTouchTeam+0)
	cp	a,c
	jr	Z, 00538$
	inc	a
	jr	NZ, 00535$
00538$:
	ld	-11 (ix), #0x18
	ld	-10 (ix), #0
	jp	00536$
00535$:
	ld	-11 (ix), #0x0a
	ld	-10 (ix), #0
00536$:
	ld	c, -11 (ix)
;E:\Dropbox\FAUSTO\SVILUPPI\MSX\CODE\C\MSXgl\projects\soccerlgMSX2/soccerlg_s9_b3.c:233: if (Ball->anim > 0) {
	ld	hl, (#(_SwSprite + 341) + 0)
;E:\Dropbox\FAUSTO\SVILUPPI\MSX\CODE\C\MSXgl\projects\soccerlgMSX2/soccerlg_s9_b3.c:431: u8 touch_dist = (LastTouchTeam == carrier_team || LastTouchTeam == 0xFF) ? 24 : 10; // 10 pixel per il tackle
	ld	-13 (ix), l
	ld	-12 (ix), h
	ld	a, -13 (ix)
	sub	a, #0x06
	ld	a, -12 (ix)
	sbc	a, #0x00
	jr	C, 00313$
	ld	c, #0x08
00313$:
;E:\Dropbox\FAUSTO\SVILUPPI\MSX\CODE\C\MSXgl\projects\soccerlgMSX2/soccerlg_s9_b3.c:434: // Se il giocatore tocca fisicamente la palla (e non è in volo)
	ld	-11 (ix), c
	ld	-10 (ix), #0x00
	ld	a, -11 (ix)
	sub	a, -37 (ix)
	ld	a, -10 (ix)
	sbc	a, -36 (ix)
	jp	C, 00404$
	ld	a, -11 (ix)
	sub	a, -35 (ix)
	ld	a, -10 (ix)
	sbc	a, -34 (ix)
	jp	C, 00404$
	ld	a, -13 (ix)
	sub	a, #0x05
	or	a, -12 (ix)
	jp	Z,00404$
;E:\Dropbox\FAUSTO\SVILUPPI\MSX\CODE\C\MSXgl\projects\soccerlgMSX2/soccerlg_s9_b3.c:436: // Controllo Fuorigioco al momento della ricezione
	ld	-12 (ix), #0x00
;E:\Dropbox\FAUSTO\SVILUPPI\MSX\CODE\C\MSXgl\projects\soccerlgMSX2/soccerlg_s9_b3.c:437: bool offside = FALSE;
	ld	a, -15 (ix)
	or	a, a
	jp	Z, 00325$
	ld	a, (_LastTouchTeam+0)
	or	a, a
	jr	NZ, 00325$
	ld	a, (_LastTouchPlayer+0)
	sub	a, -9 (ix)
	jr	Z, 00325$
;E:\Dropbox\FAUSTO\SVILUPPI\MSX\CODE\C\MSXgl\projects\soccerlgMSX2/soccerlg_s9_b3.c:438: if (carrier < 7 && LastTouchTeam == TEAM_1 && LastTouchPlayer != carrier) {
	ld	hl, #_SwSprite + 188
	ld	a, (hl)
	ld	-14 (ix), a
	inc	hl
	ld	a, (hl)
	ld	-13 (ix), a
	ld	hl, #_SwSprite + 211
	ld	a, (hl)
	ld	-11 (ix), a
	inc	hl
	ld	a, (hl)
	ld	-10 (ix), a
	ld	a, -14 (ix)
	sub	a, -11 (ix)
	ld	a, -13 (ix)
	sbc	a, -10 (ix)
	jr	NC, 00540$
	ld	a, -14 (ix)
	ld	-11 (ix), a
	ld	a, -13 (ix)
	ld	-10 (ix), a
00540$:
;E:\Dropbox\FAUSTO\SVILUPPI\MSX\CODE\C\MSXgl\projects\soccerlgMSX2/soccerlg_s9_b3.c:439: u16 offside_line = (SwSprite[8].ly < SwSprite[9].ly) ? SwSprite[8].ly : SwSprite[9].ly;
	ld	a, -11 (ix)
	add	a, #0x08
	ld	-14 (ix), a
	ld	a, -10 (ix)
	adc	a, #0x00
	ld	-13 (ix), a
	ld	a, -33 (ix)
	ld	-11 (ix), a
	ld	a, -32 (ix)
	ld	-10 (ix), a
	ld	a, -14 (ix)
	sub	a, -11 (ix)
	ld	a, -13 (ix)
	sbc	a, -10 (ix)
	jp	NC, 00326$
	xor	a, a
	cp	a, -11 (ix)
	ld	a, #0x01
	sbc	a, -10 (ix)
	jp	NC, 00326$
	ld	-12 (ix), #0x01
	jp	00326$
00325$:
;E:\Dropbox\FAUSTO\SVILUPPI\MSX\CODE\C\MSXgl\projects\soccerlgMSX2/soccerlg_s9_b3.c:440: if (Carrier->ly > offside_line + 8 && Carrier->ly > 256) offside = TRUE;
	ld	c, -15 (ix)
	bit	0, c
	jr	NZ, 00326$
	ld	a, (_LastTouchTeam+0)
	dec	a
	jr	NZ, 00326$
	ld	a, (_LastTouchPlayer+0)
	sub	a, -9 (ix)
	jr	Z, 00326$
;E:\Dropbox\FAUSTO\SVILUPPI\MSX\CODE\C\MSXgl\projects\soccerlgMSX2/soccerlg_s9_b3.c:441: } else if (carrier >= 7 && LastTouchTeam == TEAM_2 && LastTouchPlayer != carrier) {
	ld	hl, #_SwSprite + 27
	ld	a, (hl)
	ld	-14 (ix), a
	inc	hl
	ld	a, (hl)
	ld	-13 (ix), a
	ld	hl, #_SwSprite + 50
	ld	a, (hl)
	ld	-11 (ix), a
	inc	hl
	ld	a, (hl)
	ld	-10 (ix), a
	ld	a, -11 (ix)
	sub	a, -14 (ix)
	ld	a, -10 (ix)
	sbc	a, -13 (ix)
	jr	NC, 00542$
	ld	a, -14 (ix)
	ld	-11 (ix), a
	ld	a, -13 (ix)
	ld	-10 (ix), a
00542$:
;E:\Dropbox\FAUSTO\SVILUPPI\MSX\CODE\C\MSXgl\projects\soccerlgMSX2/soccerlg_s9_b3.c:442: u16 offside_line = (SwSprite[1].ly > SwSprite[2].ly) ? SwSprite[1].ly : SwSprite[2].ly;
	ld	a, -11 (ix)
	add	a, #0xf8
	ld	-14 (ix), a
	ld	a, -10 (ix)
	adc	a, #0xff
	ld	-13 (ix), a
	ld	a, -33 (ix)
	ld	-11 (ix), a
	ld	a, -32 (ix)
	ld	-10 (ix), a
	ld	a, -11 (ix)
	sub	a, -14 (ix)
	ld	a, -10 (ix)
	sbc	a, -13 (ix)
	jr	NC, 00326$
	ld	a, -10 (ix)
	sub	a, #0x01
	jr	NC, 00326$
	ld	-12 (ix), #0x01
00326$:
;E:\Dropbox\FAUSTO\SVILUPPI\MSX\CODE\C\MSXgl\projects\soccerlgMSX2/soccerlg_s9_b3.c:444: }
	ld	a, -12 (ix)
	or	a, a
	jr	Z, 00330$
;E:\Dropbox\FAUSTO\SVILUPPI\MSX\CODE\C\MSXgl\projects\soccerlgMSX2/soccerlg_s9_b3.c:445: if (offside) {
	ld	l, -3 (ix)
	ld	h, -2 (ix)
	ld	(hl), #0x06
;E:\Dropbox\FAUSTO\SVILUPPI\MSX\CODE\C\MSXgl\projects\soccerlgMSX2/soccerlg_s9_b3.c:446: *game_state = 6; // Ferma il gioco
	ld	hl, #_RestartType
	ld	(hl), #0x00
;E:\Dropbox\FAUSTO\SVILUPPI\MSX\CODE\C\MSXgl\projects\soccerlgMSX2/soccerlg_s9_b3.c:447: RestartType = 0; // Temporaneo fallback a KickOff per la ripresa
	ld	de, #_EventOffside
	ld	a, #0x08
	call	_CallFnc_VOID
;E:\Dropbox\FAUSTO\SVILUPPI\MSX\CODE\C\MSXgl\projects\soccerlgMSX2/soccerlg_s9_b3.c:448: CallFnc_VOID(SEG_EVENTS, EventOffside);
	ld	hl, #(_SwSprite + 340)
	ld	(hl), #0x00
	ld	hl, #(_SwSprite + 339)
	ld	(hl), #0x00
	ld	hl, #0x0000
	ld	((_SwSprite + 341)), hl
;E:\Dropbox\FAUSTO\SVILUPPI\MSX\CODE\C\MSXgl\projects\soccerlgMSX2/soccerlg_s9_b3.c:449: Ball->anim = Ball->dx = Ball->dy = 0;
	ld	hl, #_T2_Carrier
	ld	(hl), #0xff
	ld	hl, #_T1_Carrier
	ld	(hl), #0xff
;E:\Dropbox\FAUSTO\SVILUPPI\MSX\CODE\C\MSXgl\projects\soccerlgMSX2/soccerlg_s9_b3.c:450: Ball->frame = SPR_BALL_SIZE_1; // Forza la dimensione a terra
	ld	iy, #_TimerEnabled
	ld	0 (iy), #0x00
;E:\Dropbox\FAUSTO\SVILUPPI\MSX\CODE\C\MSXgl\projects\soccerlgMSX2/soccerlg_s9_b3.c:451: T1_Carrier = T2_Carrier = 0xFF;
	ld	l, -5 (ix)
	ld	h, -4 (ix)
	ld	(hl), #0x02
	ld	c, 4 (ix)
	ld	b, 5 (ix)
	ld	a, (_Frms+0)
	ld	(bc), a
;E:\Dropbox\FAUSTO\SVILUPPI\MSX\CODE\C\MSXgl\projects\soccerlgMSX2/soccerlg_s9_b3.c:452: TimerEnabled = FALSE;
	jp	00404$
00330$:
;E:\Dropbox\FAUSTO\SVILUPPI\MSX\CODE\C\MSXgl\projects\soccerlgMSX2/soccerlg_s9_b3.c:455: }
	ld	a, -15 (ix)
	or	a, a
	jr	Z, 00544$
	ld	bc, #0x0000
	jp	00545$
00544$:
	ld	bc, #0x0001
00545$:
	ld	a, c
	ld	(#_LastTouchTeam), a
;E:\Dropbox\FAUSTO\SVILUPPI\MSX\CODE\C\MSXgl\projects\soccerlgMSX2/soccerlg_s9_b3.c:456: 
	ld	a, -9 (ix)
	ld	(_LastTouchPlayer+0), a
;E:\Dropbox\FAUSTO\SVILUPPI\MSX\CODE\C\MSXgl\projects\soccerlgMSX2/soccerlg_s9_b3.c:403: // Se il giocatore si muove
	ld	l, -21 (ix)
	ld	h, -20 (ix)
	ld	a, (hl)
	ld	-10 (ix), a
	ld	l, -19 (ix)
	ld	h, -18 (ix)
	ld	a, (hl)
	ld	-12 (ix), a
;E:\Dropbox\FAUSTO\SVILUPPI\MSX\CODE\C\MSXgl\projects\soccerlgMSX2/soccerlg_s9_b3.c:460: 
	ld	a, -10 (ix)
	or	a, a
	jr	NZ, 00331$
	ld	a, -12 (ix)
	or	a, a
	jr	Z, 00332$
00331$:
;E:\Dropbox\FAUSTO\SVILUPPI\MSX\CODE\C\MSXgl\projects\soccerlgMSX2/soccerlg_s9_b3.c:461: // Ricalcola il ricevitore adesso che il portatore ha la palla
	xor	a, a
	sub	a, -10 (ix)
	jp	PO, 01765$
	xor	a, #0x80
01765$:
	jp	P, 00546$
	ld	-11 (ix), #0x01
	ld	-10 (ix), #0
	jp	00547$
00546$:
	bit	7, -10 (ix)
	jr	Z, 00548$
	ld	-11 (ix), #0xff
	ld	-10 (ix), #0xff
	jp	00549$
00548$:
	xor	a, a
	ld	-11 (ix), a
	ld	-10 (ix), a
00549$:
00547$:
	ld	a, -11 (ix)
	ld	-15 (ix), a
;E:\Dropbox\FAUSTO\SVILUPPI\MSX\CODE\C\MSXgl\projects\soccerlgMSX2/soccerlg_s9_b3.c:462: i8 c_dx, c_dy;
	xor	a, a
	sub	a, -12 (ix)
	jp	PO, 01766$
	xor	a, #0x80
01766$:
	jp	P, 00550$
	ld	de, #0x0001
	jp	00551$
00550$:
	bit	7, -12 (ix)
	jr	Z, 00552$
	ld	de, #0xffff
	jp	00553$
00552$:
	ld	de, #0x0000
00553$:
00551$:
	ld	-14 (ix), e
	jp	00333$
00332$:
;E:\Dropbox\FAUSTO\SVILUPPI\MSX\CODE\C\MSXgl\projects\soccerlgMSX2/soccerlg_s9_b3.c:465: c_dy = (Carrier->dy > 0) ? 1 : ((Carrier->dy < 0) ? -1 : 0);
	ld	a, #<(_g_last_dx)
	add	a, -1 (ix)
	ld	l, a
;	spillPairReg hl
;	spillPairReg hl
	ld	a, #>(_g_last_dx)
	adc	a, #0x00
	ld	h, a
	ld	c, (hl)
	xor	a, a
	sub	a, c
	jp	PO, 01767$
	xor	a, #0x80
01767$:
	jp	P, 00554$
	ld	de, #0x0001
	jp	00555$
00554$:
	bit	7, c
	jr	Z, 00556$
	ld	de, #0xffff
	jp	00557$
00556$:
	ld	de, #0x0000
00557$:
00555$:
	ld	-15 (ix), e
;E:\Dropbox\FAUSTO\SVILUPPI\MSX\CODE\C\MSXgl\projects\soccerlgMSX2/soccerlg_s9_b3.c:466: } else {
	ld	a, #<(_g_last_dy)
	add	a, -1 (ix)
	ld	l, a
;	spillPairReg hl
;	spillPairReg hl
	ld	a, #>(_g_last_dy)
	adc	a, #0x00
	ld	h, a
	ld	c, (hl)
	xor	a, a
	sub	a, c
	jp	PO, 01768$
	xor	a, #0x80
01768$:
	jp	P, 00558$
	ld	de, #0x0001
	jp	00559$
00558$:
	bit	7, c
	jr	Z, 00560$
	ld	de, #0xffff
	jp	00561$
00560$:
	ld	de, #0x0000
00561$:
00559$:
	ld	-14 (ix), e
00333$:
;E:\Dropbox\FAUSTO\SVILUPPI\MSX\CODE\C\MSXgl\projects\soccerlgMSX2/soccerlg_s9_b3.c:468: c_dx = (g_last_dx[i] > 0) ? 1 : ((g_last_dx[i] < 0) ? -1 : 0);
	ld	e, -1 (ix)
	ld	d, #0x00
	ld	hl, #8
	add	hl, sp
	add	hl, de
	ld	-13 (ix), l
	ld	-12 (ix), h
	ld	a, -14 (ix)
	push	af
	inc	sp
	ld	h, -15 (ix)
	ld	l, #0xff
	push	hl
	ld	a, -9 (ix)
	push	af
	inc	sp
	ld	de, #_FindReceiver
	ld	a, #0x06
	call	_CallFnc_U16_P4B
	ld	l, -13 (ix)
	ld	h, -12 (ix)
	ld	(hl), e
;E:\Dropbox\FAUSTO\SVILUPPI\MSX\CODE\C\MSXgl\projects\soccerlgMSX2/soccerlg_s9_b3.c:471: receivers[i] = (u8)CallFnc_U16_P4B(SEG_LOGIC, FindReceiver, carrier, 0xFF, c_dx, c_dy);
	ld	-11 (ix), #0x00
;E:\Dropbox\FAUSTO\SVILUPPI\MSX\CODE\C\MSXgl\projects\soccerlgMSX2/soccerlg_s9_b3.c:472: 
	ld	a, -8 (ix)
	or	a, a
	jp	Z, 00367$
;E:\Dropbox\FAUSTO\SVILUPPI\MSX\CODE\C\MSXgl\projects\soccerlgMSX2/soccerlg_s9_b3.c:473: // AZIONE DEL GIOCATORE: Passaggio o Dribbling
	ld	-10 (ix), #0x00
;E:\Dropbox\FAUSTO\SVILUPPI\MSX\CODE\C\MSXgl\projects\soccerlgMSX2/soccerlg_s9_b3.c:474: bool action_taken = FALSE;
	ld	l, -7 (ix)
	ld	h, -6 (ix)
	ld	a, (hl)
	ld	-9 (ix), a
;E:\Dropbox\FAUSTO\SVILUPPI\MSX\CODE\C\MSXgl\projects\soccerlgMSX2/soccerlg_s9_b3.c:478: 
	ld	a, -1 (ix)
	dec	a
	ld	a, #0x01
	jr	Z, 01770$
	xor	a, a
01770$:
	ld	-8 (ix), a
	or	a, a
	jr	Z, 00349$
	ld	l, -17 (ix)
	ld	h, -16 (ix)
	ld	a, (hl)
	ld	-7 (ix), a
	inc	hl
	ld	a, (hl)
	ld	-6 (ix), a
	sub	a, #0x01
	jr	NC, 00349$
	ld	hl, (#(_Field + 4) + 0)
	ld	a, h
	or	a, l
	jr	NZ, 00349$
;E:\Dropbox\FAUSTO\SVILUPPI\MSX\CODE\C\MSXgl\projects\soccerlgMSX2/soccerlg_s9_b3.c:479: // Condizioni per il tiro
	ld	a, -9 (ix)
	dec	a
	jr	Z, 00335$
	ld	a, -9 (ix)
	sub	a, #0x08
	jr	Z, 00335$
	ld	a, -9 (ix)
	sub	a, #0x02
	jr	NZ, 00350$
00335$:
;E:\Dropbox\FAUSTO\SVILUPPI\MSX\CODE\C\MSXgl\projects\soccerlgMSX2/soccerlg_s9_b3.c:480: // Team 2 (P1, sud) attacca verso Nord
	ld	-10 (ix), #0x01
	jp	00350$
00349$:
;E:\Dropbox\FAUSTO\SVILUPPI\MSX\CODE\C\MSXgl\projects\soccerlgMSX2/soccerlg_s9_b3.c:484: }
	ld	a, -1 (ix)
	or	a, a
	jr	NZ, 00350$
	ld	a, (_GameMode+0)
	dec	a
	jr	NZ, 00350$
	ld	l, -17 (ix)
	ld	h, -16 (ix)
	ld	a, (hl)
	ld	-7 (ix), a
	inc	hl
	ld	a, (hl)
	ld	-6 (ix), a
	xor	a, a
	cp	a, -7 (ix)
	ld	a, #0x01
	sbc	a, -6 (ix)
	jr	NC, 00350$
	ld	hl, #(_Field + 4)
	ld	a, (hl)
	ld	-7 (ix), a
	inc	hl
	ld	a, (hl)
	ld	-6 (ix), a
	ld	a, -7 (ix)
	sub	a, #0x40
	jr	NZ, 00350$
	ld	a, -6 (ix)
	dec	a
	jr	NZ, 00350$
;E:\Dropbox\FAUSTO\SVILUPPI\MSX\CODE\C\MSXgl\projects\soccerlgMSX2/soccerlg_s9_b3.c:485: }
	ld	a, -9 (ix)
	sub	a, #0x05
	jr	Z, 00339$
	ld	a, -9 (ix)
	sub	a, #0x06
	jr	Z, 00339$
	ld	a, -9 (ix)
	sub	a, #0x04
	jr	NZ, 00350$
00339$:
;E:\Dropbox\FAUSTO\SVILUPPI\MSX\CODE\C\MSXgl\projects\soccerlgMSX2/soccerlg_s9_b3.c:486: // Team 1 (P2, nord) attacca verso Sud
	ld	-10 (ix), #0x01
00350$:
;E:\Dropbox\FAUSTO\SVILUPPI\MSX\CODE\C\MSXgl\projects\soccerlgMSX2/soccerlg_s9_b3.c:490: }
	ld	a, -10 (ix)
	or	a, a
	jp	Z, 00364$
;E:\Dropbox\FAUSTO\SVILUPPI\MSX\CODE\C\MSXgl\projects\soccerlgMSX2/soccerlg_s9_b3.c:491: }
	ld	-11 (ix), #0x01
;E:\Dropbox\FAUSTO\SVILUPPI\MSX\CODE\C\MSXgl\projects\soccerlgMSX2/soccerlg_s9_b3.c:492: 
	ld	hl, #0x0000
	ld	((_SwSprite + 341)), hl
	ld	((_SwSprite + 343)), hl
;E:\Dropbox\FAUSTO\SVILUPPI\MSX\CODE\C\MSXgl\projects\soccerlgMSX2/soccerlg_s9_b3.c:493: if (is_shooting) {
	ld	hl, #_g_pass_receiver
	ld	(hl), #0xff
;E:\Dropbox\FAUSTO\SVILUPPI\MSX\CODE\C\MSXgl\projects\soccerlgMSX2/soccerlg_s9_b3.c:495: Ball->anim = 0; Ball->count = 0;
	ld	l, -23 (ix)
	ld	h, -22 (ix)
	ld	a, (hl)
	ld	(_g_pass_start_x+0), a
	ld	hl, #_g_pass_start_x + 1
	ld	(hl), #0x00
;E:\Dropbox\FAUSTO\SVILUPPI\MSX\CODE\C\MSXgl\projects\soccerlgMSX2/soccerlg_s9_b3.c:496: g_pass_receiver = 0xFF; 
	ld	l, -17 (ix)
	ld	h, -16 (ix)
	ld	a, (hl)
	inc	hl
	ld	(_g_pass_start_y+0), a
	ld	a, (hl)
	ld	(_g_pass_start_y+1), a
;E:\Dropbox\FAUSTO\SVILUPPI\MSX\CODE\C\MSXgl\projects\soccerlgMSX2/soccerlg_s9_b3.c:498: g_pass_start_x = Carrier->lx;
	ld	hl, (_g_h_arrow_x)
	ld	(_g_pass_target_x), hl
;E:\Dropbox\FAUSTO\SVILUPPI\MSX\CODE\C\MSXgl\projects\soccerlgMSX2/soccerlg_s9_b3.c:499: g_pass_start_y = Carrier->ly;
	ld	a, -8 (ix)
	or	a, a
	jr	Z, 00562$
	ld	de, #0x0010
	jp	00563$
00562$:
	ld	de, #0x01f0
00563$:
	ld	(_g_pass_target_y), de
;E:\Dropbox\FAUSTO\SVILUPPI\MSX\CODE\C\MSXgl\projects\soccerlgMSX2/soccerlg_s9_b3.c:501: g_pass_target_x = g_h_arrow_x; // Direzione della freccia
	ld	hl, #_g_pass_start_x
	ld	a, (hl)
	ld	iy, #_g_pass_target_x
	sub	a, 0 (iy)
	inc	hl
	ld	a, (hl)
	sbc	a, 1 (iy)
	jr	NC, 00564$
	ld	hl, #_g_pass_start_x
	ld	a, (_g_pass_target_x+0)
	sub	a, (hl)
	ld	-7 (ix), a
	inc	hl
	ld	a, (_g_pass_target_x+1)
	sbc	a, (hl)
	ld	-6 (ix), a
	jp	00565$
00564$:
	ld	hl, #_g_pass_target_x
	ld	a, (_g_pass_start_x+0)
	sub	a, (hl)
	ld	-7 (ix), a
	inc	hl
	ld	a, (_g_pass_start_x+1)
	sbc	a, (hl)
	ld	-6 (ix), a
00565$:
	ld	a, -7 (ix)
	ld	-13 (ix), a
	ld	a, -6 (ix)
	ld	-12 (ix), a
;E:\Dropbox\FAUSTO\SVILUPPI\MSX\CODE\C\MSXgl\projects\soccerlgMSX2/soccerlg_s9_b3.c:502: g_pass_target_y = (i == 1) ? 16 : 496; // Dentro la porta
	ld	hl, #_g_pass_start_y
	ld	a, (hl)
	ld	iy, #_g_pass_target_y
	sub	a, 0 (iy)
	inc	hl
	ld	a, (hl)
	sbc	a, 1 (iy)
	jr	NC, 00566$
	ld	hl, #_g_pass_start_y
	ld	a, (_g_pass_target_y+0)
	sub	a, (hl)
	ld	-7 (ix), a
	inc	hl
	ld	a, (_g_pass_target_y+1)
	sbc	a, (hl)
	ld	-6 (ix), a
	jp	00567$
00566$:
	ld	hl, #_g_pass_target_y
	ld	a, (_g_pass_start_y+0)
	sub	a, (hl)
	ld	-7 (ix), a
	inc	hl
	ld	a, (_g_pass_start_y+1)
	sbc	a, (hl)
	ld	-6 (ix), a
00567$:
	ld	a, -7 (ix)
	ld	-9 (ix), a
	ld	a, -6 (ix)
	ld	-8 (ix), a
;E:\Dropbox\FAUSTO\SVILUPPI\MSX\CODE\C\MSXgl\projects\soccerlgMSX2/soccerlg_s9_b3.c:504: u16 r_dx = (g_pass_target_x > g_pass_start_x) ? (g_pass_target_x - g_pass_start_x) : (g_pass_start_x - g_pass_target_x);
	ld	a, -9 (ix)
	add	a, -13 (ix)
	ld	-7 (ix), a
	ld	a, -8 (ix)
	adc	a, -12 (ix)
	ld	-6 (ix), a
	srl	-6 (ix)
	rr	-7 (ix)
	srl	-6 (ix)
	rr	-7 (ix)
	srl	-6 (ix)
	rr	-7 (ix)
	ld	a, -7 (ix)
;E:\Dropbox\FAUSTO\SVILUPPI\MSX\CODE\C\MSXgl\projects\soccerlgMSX2/soccerlg_s9_b3.c:505: u16 r_dy = (g_pass_target_y > g_pass_start_y) ? (g_pass_target_y - g_pass_start_y) : (g_pass_start_y - g_pass_target_y);
	ld	(_g_pass_max_frames+0), a
	sub	a, #0x0a
	jr	NC, 00354$
	ld	hl, #_g_pass_max_frames
	ld	(hl), #0x0a
00354$:
;E:\Dropbox\FAUSTO\SVILUPPI\MSX\CODE\C\MSXgl\projects\soccerlgMSX2/soccerlg_s9_b3.c:506: 
	ld	a, #0x19
	ld	iy, #_g_pass_max_frames
	sub	a, 0 (iy)
	jr	NC, 00356$
	ld	0 (iy), #0x19
00356$:
;E:\Dropbox\FAUSTO\SVILUPPI\MSX\CODE\C\MSXgl\projects\soccerlgMSX2/soccerlg_s9_b3.c:507: g_pass_max_frames = (r_dx + r_dy) / 8; // Tiro potente e veloce
	ld	hl, #_g_pass_max_height
	ld	(hl), #0x02
;E:\Dropbox\FAUSTO\SVILUPPI\MSX\CODE\C\MSXgl\projects\soccerlgMSX2/soccerlg_s9_b3.c:509: if (g_pass_max_frames > 25) g_pass_max_frames = 25;
	ld	hl, #0x0005
	ld	((_SwSprite + 341)), hl
;E:\Dropbox\FAUSTO\SVILUPPI\MSX\CODE\C\MSXgl\projects\soccerlgMSX2/soccerlg_s9_b3.c:510: g_pass_max_height = 2; // Tiro rasoterra e limitato
	ld	de, #_EventBallKicked
	ld	a, #0x08
	call	_CallFnc_VOID
	jp	00367$
00364$:
;E:\Dropbox\FAUSTO\SVILUPPI\MSX\CODE\C\MSXgl\projects\soccerlgMSX2/soccerlg_s9_b3.c:513: CallFnc_VOID(SEG_EVENTS, EventBallKicked);
	ld	l, -13 (ix)
	ld	h, -12 (ix)
	ld	a, (hl)
;E:\Dropbox\FAUSTO\SVILUPPI\MSX\CODE\C\MSXgl\projects\soccerlgMSX2/soccerlg_s9_b3.c:515: // Se non si tira, si passa
	ld	-6 (ix), a
	inc	a
	jp	Z,00367$
;E:\Dropbox\FAUSTO\SVILUPPI\MSX\CODE\C\MSXgl\projects\soccerlgMSX2/soccerlg_s9_b3.c:517: 
	ld	hl, #0x0000
	ld	((_SwSprite + 341)), hl
	ld	((_SwSprite + 343)), hl
;E:\Dropbox\FAUSTO\SVILUPPI\MSX\CODE\C\MSXgl\projects\soccerlgMSX2/soccerlg_s9_b3.c:519: // === PASSAGGIO DIRETTO AL DESTINATARIO - FORZA PASSAGGIO ===
	ld	a, -6 (ix)
	ld	(_g_pass_receiver+0), a
;E:\Dropbox\FAUSTO\SVILUPPI\MSX\CODE\C\MSXgl\projects\soccerlgMSX2/soccerlg_s9_b3.c:520: Ball->anim = 0; Ball->count = 0;
	ld	l, -23 (ix)
	ld	h, -22 (ix)
	ld	a, (hl)
	ld	(_g_pass_start_x+0), a
	ld	hl, #_g_pass_start_x + 1
	ld	(hl), #0x00
;E:\Dropbox\FAUSTO\SVILUPPI\MSX\CODE\C\MSXgl\projects\soccerlgMSX2/soccerlg_s9_b3.c:521: 
	ld	l, -17 (ix)
	ld	h, -16 (ix)
	ld	a, (hl)
	inc	hl
	ld	(_g_pass_start_y+0), a
	ld	a, (hl)
	ld	(_g_pass_start_y+1), a
;E:\Dropbox\FAUSTO\SVILUPPI\MSX\CODE\C\MSXgl\projects\soccerlgMSX2/soccerlg_s9_b3.c:522: g_pass_receiver = receiver;
	ld	c, -6 (ix)
	ld	b, #0x00
	ld	l, c
	ld	h, b
	add	hl, hl
	add	hl, hl
	add	hl, bc
	add	hl, hl
	add	hl, bc
	add	hl, hl
	add	hl, bc
	ld	-7 (ix), l
	ld	-6 (ix), h
	ld	a, #<(_SwSprite)
	add	a, -7 (ix)
	ld	-9 (ix), a
	ld	a, #>(_SwSprite)
	adc	a, -6 (ix)
	ld	-8 (ix), a
	ld	l, -9 (ix)
	ld	h, -8 (ix)
	ld	a, (hl)
	ld	-6 (ix), a
	ld	(_g_pass_target_x+0), a
	ld	iy, #_g_pass_target_x
	ld	1 (iy), #0x00
;E:\Dropbox\FAUSTO\SVILUPPI\MSX\CODE\C\MSXgl\projects\soccerlgMSX2/soccerlg_s9_b3.c:523: g_pass_start_x = Carrier->lx;
	ld	a, -9 (ix)
	ld	-7 (ix), a
	ld	a, -8 (ix)
	ld	-6 (ix), a
	ld	l, -7 (ix)
	ld	h, -6 (ix)
	ld	de, #0x0004
	add	hl, de
	ld	a, (hl)
	inc	hl
	ld	(_g_pass_target_y+0), a
	ld	a, (hl)
	ld	(_g_pass_target_y+1), a
;E:\Dropbox\FAUSTO\SVILUPPI\MSX\CODE\C\MSXgl\projects\soccerlgMSX2/soccerlg_s9_b3.c:525: g_pass_target_x = SwSprite[receiver].lx;
	ld	hl, #_g_pass_start_x
	ld	a, (hl)
	sub	a, 0 (iy)
	inc	hl
	ld	a, (hl)
	sbc	a, 1 (iy)
	jr	NC, 00568$
	ld	hl, #_g_pass_start_x
	ld	a, (_g_pass_target_x+0)
	sub	a, (hl)
	ld	-7 (ix), a
	inc	hl
	ld	a, (_g_pass_target_x+1)
	sbc	a, (hl)
	ld	-6 (ix), a
	jp	00569$
00568$:
	ld	hl, #_g_pass_target_x
	ld	a, (_g_pass_start_x+0)
	sub	a, (hl)
	ld	-7 (ix), a
	inc	hl
	ld	a, (_g_pass_start_x+1)
	sbc	a, (hl)
	ld	-6 (ix), a
00569$:
	ld	a, -7 (ix)
	ld	-11 (ix), a
	ld	a, -6 (ix)
	ld	-10 (ix), a
;E:\Dropbox\FAUSTO\SVILUPPI\MSX\CODE\C\MSXgl\projects\soccerlgMSX2/soccerlg_s9_b3.c:526: g_pass_target_y = SwSprite[receiver].ly;
	ld	hl, #_g_pass_start_y
	ld	a, (hl)
	ld	iy, #_g_pass_target_y
	sub	a, 0 (iy)
	inc	hl
	ld	a, (hl)
	sbc	a, 1 (iy)
	jr	NC, 00570$
	ld	hl, #_g_pass_start_y
	ld	a, (_g_pass_target_y+0)
	sub	a, (hl)
	ld	-7 (ix), a
	inc	hl
	ld	a, (_g_pass_target_y+1)
	sbc	a, (hl)
	ld	-6 (ix), a
	jp	00571$
00570$:
	ld	hl, #_g_pass_target_y
	ld	a, (_g_pass_start_y+0)
	sub	a, (hl)
	ld	-7 (ix), a
	inc	hl
	ld	a, (_g_pass_start_y+1)
	sbc	a, (hl)
	ld	-6 (ix), a
00571$:
	ld	a, -7 (ix)
	ld	-9 (ix), a
	ld	a, -6 (ix)
	ld	-8 (ix), a
;E:\Dropbox\FAUSTO\SVILUPPI\MSX\CODE\C\MSXgl\projects\soccerlgMSX2/soccerlg_s9_b3.c:527: 
	ld	a, -9 (ix)
	add	a, -11 (ix)
	ld	-7 (ix), a
	ld	a, -8 (ix)
	adc	a, -10 (ix)
	ld	-6 (ix), a
	ld	de, #0x0005
	ld	l, -7 (ix)
;	spillPairReg hl
;	spillPairReg hl
	ld	h, -6 (ix)
;	spillPairReg hl
;	spillPairReg hl
	call	__divuint
	ld	iy, #_g_pass_max_frames
	ld	0 (iy), e
;E:\Dropbox\FAUSTO\SVILUPPI\MSX\CODE\C\MSXgl\projects\soccerlgMSX2/soccerlg_s9_b3.c:528: u16 r_dx = (g_pass_target_x > g_pass_start_x) ? (g_pass_target_x - g_pass_start_x) : (g_pass_start_x - g_pass_target_x);
	ld	a, (_g_pass_max_frames+0)
	sub	a, #0x08
	jr	NC, 00358$
	ld	0 (iy), #0x08
00358$:
;E:\Dropbox\FAUSTO\SVILUPPI\MSX\CODE\C\MSXgl\projects\soccerlgMSX2/soccerlg_s9_b3.c:529: u16 r_dy = (g_pass_target_y > g_pass_start_y) ? (g_pass_target_y - g_pass_start_y) : (g_pass_start_y - g_pass_target_y);
	ld	a, #0x22
	ld	iy, #_g_pass_max_frames
	sub	a, 0 (iy)
	jr	NC, 00360$
	ld	0 (iy), #0x22
00360$:
;E:\Dropbox\FAUSTO\SVILUPPI\MSX\CODE\C\MSXgl\projects\soccerlgMSX2/soccerlg_s9_b3.c:530: g_pass_max_frames = (r_dx + r_dy) / 5; // Velocità di volo passaggi
	ld	hl, #_g_pass_max_height
	ld	(hl), #0x07
;E:\Dropbox\FAUSTO\SVILUPPI\MSX\CODE\C\MSXgl\projects\soccerlgMSX2/soccerlg_s9_b3.c:532: if (g_pass_max_frames > 34) g_pass_max_frames = 34;
	ld	hl, #0x0005
	ld	((_SwSprite + 341)), hl
;E:\Dropbox\FAUSTO\SVILUPPI\MSX\CODE\C\MSXgl\projects\soccerlgMSX2/soccerlg_s9_b3.c:533: g_pass_max_height = 7; // Passaggio normale alto
	ld	de, #_EventBallKicked
	ld	a, #0x08
	call	_CallFnc_VOID
;E:\Dropbox\FAUSTO\SVILUPPI\MSX\CODE\C\MSXgl\projects\soccerlgMSX2/soccerlg_s9_b3.c:534: 
	ld	-11 (ix), #0x01
00367$:
;E:\Dropbox\FAUSTO\SVILUPPI\MSX\CODE\C\MSXgl\projects\soccerlgMSX2/soccerlg_s9_b3.c:539: }
	ld	a, -11 (ix)
	or	a, a
	jp	NZ, 00395$
	ld	hl, (#(_SwSprite + 341) + 0)
	ld	a, h
	or	a, l
	jp	NZ, 00395$
	ld	hl, #(_SwSprite + 339)
	ld	c, (hl)
	ld	a, -15 (ix)
	sub	a, c
	jr	NZ, 00394$
	ld	hl, #(_SwSprite + 340)
	ld	c, (hl)
	ld	a, -14 (ix)
	sub	a, c
	jp	Z,00395$
00394$:
;E:\Dropbox\FAUSTO\SVILUPPI\MSX\CODE\C\MSXgl\projects\soccerlgMSX2/soccerlg_s9_b3.c:541: 
	ld	-7 (ix), #0x00
	ld	-6 (ix), #0x06
;E:\Dropbox\FAUSTO\SVILUPPI\MSX\CODE\C\MSXgl\projects\soccerlgMSX2/soccerlg_s9_b3.c:542: if (!action_taken && Ball->anim == 0 && (Ball->dx != c_dx || Ball->dy != c_dy)) {
	xor	a, a
	sub	a, -15 (ix)
	jp	PO, 01787$
	xor	a, #0x80
01787$:
	jp	P, 00371$
	ld	-7 (ix), #0x09
	jp	00372$
00371$:
	bit	7, -15 (ix)
	jr	Z, 00372$
	ld	-7 (ix), #0xf7
00372$:
;E:\Dropbox\FAUSTO\SVILUPPI\MSX\CODE\C\MSXgl\projects\soccerlgMSX2/soccerlg_s9_b3.c:543: // Cambio direzione istantaneo e sicuro (senza perdere mai il controllo)
	xor	a, a
	sub	a, -14 (ix)
	jp	PO, 01788$
	xor	a, #0x80
01788$:
	jp	P, 00376$
	ld	-6 (ix), #0x08
	jp	00377$
00376$:
	bit	7, -14 (ix)
	jr	Z, 00377$
	ld	-6 (ix), #0xfd
00377$:
;E:\Dropbox\FAUSTO\SVILUPPI\MSX\CODE\C\MSXgl\projects\soccerlgMSX2/soccerlg_s9_b3.c:545: if (c_dx > 0) off_x = 9; else if (c_dx < 0) off_x = -9;
	ld	hl, #(_SwSprite + 339)
	ld	a, -15 (ix)
	ld	(hl), a
;E:\Dropbox\FAUSTO\SVILUPPI\MSX\CODE\C\MSXgl\projects\soccerlgMSX2/soccerlg_s9_b3.c:546: if (c_dy > 0) off_y = 8; else if (c_dy < 0) off_y = -3;
	ld	hl, #(_SwSprite + 340)
	ld	a, -14 (ix)
	ld	(hl), a
;E:\Dropbox\FAUSTO\SVILUPPI\MSX\CODE\C\MSXgl\projects\soccerlgMSX2/soccerlg_s9_b3.c:547: 
	ld	l, -23 (ix)
	ld	h, -22 (ix)
	ld	a, (hl)
	ld	-9 (ix), a
	add	a, -7 (ix)
	ld	-7 (ix), a
	ld	hl, #(_SwSprite + 322)
	ld	a, -7 (ix)
	ld	(hl), a
;E:\Dropbox\FAUSTO\SVILUPPI\MSX\CODE\C\MSXgl\projects\soccerlgMSX2/soccerlg_s9_b3.c:548: Ball->dx = c_dx;
	ld	l, -17 (ix)
	ld	h, -16 (ix)
	ld	a, (hl)
	ld	-8 (ix), a
	inc	hl
	ld	a, (hl)
	ld	-7 (ix), a
	ld	a, -6 (ix)
	ld	-10 (ix), a
	rlca
	sbc	a, a
	ld	-9 (ix), a
	ld	a, -8 (ix)
	ld	-12 (ix), a
	ld	a, -7 (ix)
	ld	-11 (ix), a
	ld	a, -10 (ix)
	ld	-7 (ix), a
	ld	a, -9 (ix)
	ld	-6 (ix), a
	ld	a, -7 (ix)
	add	a, -12 (ix)
	ld	-9 (ix), a
	ld	a, -6 (ix)
	adc	a, -11 (ix)
	ld	-8 (ix), a
	ld	a, -9 (ix)
	ld	-7 (ix), a
	ld	a, -8 (ix)
	and	a, #0x01
	ld	-6 (ix), a
	ld	hl, #(_SwSprite + 326)
	ld	a, -7 (ix)
	ld	(hl), a
	inc	hl
	ld	a, -6 (ix)
	ld	(hl), a
	jp	00404$
00395$:
;E:\Dropbox\FAUSTO\SVILUPPI\MSX\CODE\C\MSXgl\projects\soccerlgMSX2/soccerlg_s9_b3.c:549: Ball->dy = c_dy;
	ld	a, -11 (ix)
	or	a, a
	jp	NZ, 00404$
	ld	hl, (#(_SwSprite + 341) + 0)
	ld	a, h
	or	a, l
	jp	NZ, 00404$
;E:\Dropbox\FAUSTO\SVILUPPI\MSX\CODE\C\MSXgl\projects\soccerlgMSX2/soccerlg_s9_b3.c:551: Ball->ly = (Carrier->ly + off_y) & 511;
	ld	-7 (ix), #0x00
	ld	-6 (ix), #0x06
;E:\Dropbox\FAUSTO\SVILUPPI\MSX\CODE\C\MSXgl\projects\soccerlgMSX2/soccerlg_s9_b3.c:552: } else if (!action_taken && Ball->anim == 0) {
	xor	a, a
	sub	a, -15 (ix)
	jp	PO, 01789$
	xor	a, #0x80
01789$:
	jp	P, 00381$
	ld	-7 (ix), #0x09
	jp	00382$
00381$:
	bit	7, -15 (ix)
	jr	Z, 00382$
	ld	-7 (ix), #0xf7
00382$:
;E:\Dropbox\FAUSTO\SVILUPPI\MSX\CODE\C\MSXgl\projects\soccerlgMSX2/soccerlg_s9_b3.c:553: // Stessa direzione: ricalibra la palla e dai un calcetto in avanti
	xor	a, a
	sub	a, -14 (ix)
	jp	PO, 01790$
	xor	a, #0x80
01790$:
	jp	P, 00386$
	ld	-6 (ix), #0x08
	jp	00387$
00386$:
	bit	7, -14 (ix)
	jr	Z, 00387$
	ld	-6 (ix), #0xfd
00387$:
;E:\Dropbox\FAUSTO\SVILUPPI\MSX\CODE\C\MSXgl\projects\soccerlgMSX2/soccerlg_s9_b3.c:555: if (c_dx > 0) off_x = 9; else if (c_dx < 0) off_x = -9;
	ld	l, -23 (ix)
	ld	h, -22 (ix)
	ld	a, (hl)
	ld	-8 (ix), a
	add	a, -7 (ix)
	ld	-7 (ix), a
	ld	hl, #(_SwSprite + 322)
	ld	a, -7 (ix)
	ld	(hl), a
;E:\Dropbox\FAUSTO\SVILUPPI\MSX\CODE\C\MSXgl\projects\soccerlgMSX2/soccerlg_s9_b3.c:556: if (c_dy > 0) off_y = 8; else if (c_dy < 0) off_y = -3;
	ld	l, -17 (ix)
	ld	h, -16 (ix)
	ld	a, (hl)
	ld	-8 (ix), a
	inc	hl
	ld	a, (hl)
	ld	-7 (ix), a
	ld	a, -6 (ix)
	ld	-10 (ix), a
	rlca
	sbc	a, a
	ld	-9 (ix), a
	ld	a, -8 (ix)
	ld	-12 (ix), a
	ld	a, -7 (ix)
	ld	-11 (ix), a
	ld	a, -10 (ix)
	ld	-7 (ix), a
	ld	a, -9 (ix)
	ld	-6 (ix), a
	ld	a, -7 (ix)
	add	a, -12 (ix)
	ld	-9 (ix), a
	ld	a, -6 (ix)
	adc	a, -11 (ix)
	ld	-8 (ix), a
	ld	a, -9 (ix)
	ld	-7 (ix), a
	ld	a, -8 (ix)
	and	a, #0x01
	ld	-6 (ix), a
	ld	hl, #(_SwSprite + 326)
	ld	a, -7 (ix)
	ld	(hl), a
	inc	hl
	ld	a, -6 (ix)
	ld	(hl), a
;E:\Dropbox\FAUSTO\SVILUPPI\MSX\CODE\C\MSXgl\projects\soccerlgMSX2/soccerlg_s9_b3.c:558: Ball->lx = (u8)(Carrier->lx + off_x);
	ld	l, -21 (ix)
	ld	h, -20 (ix)
	ld	a, (hl)
	ld	-6 (ix), a
	or	a, a
	jr	NZ, 00388$
	ld	l, -19 (ix)
	ld	h, -18 (ix)
	ld	a, (hl)
	ld	-6 (ix), a
	or	a, a
	jr	Z, 00404$
00388$:
;E:\Dropbox\FAUSTO\SVILUPPI\MSX\CODE\C\MSXgl\projects\soccerlgMSX2/soccerlg_s9_b3.c:559: Ball->ly = (Carrier->ly + off_y) & 511;
	ld	hl, #0x0003
	ld	((_SwSprite + 341)), hl
;E:\Dropbox\FAUSTO\SVILUPPI\MSX\CODE\C\MSXgl\projects\soccerlgMSX2/soccerlg_s9_b3.c:560: 
	ld	de, #_EventBallKicked
	ld	a, #0x08
	call	_CallFnc_VOID
00404$:
;E:\Dropbox\FAUSTO\SVILUPPI\MSX\CODE\C\MSXgl\projects\soccerlgMSX2/soccerlg_s9_b3.c:382: 
	inc	-1 (ix)
	jp	00455$
00405$:
;E:\Dropbox\FAUSTO\SVILUPPI\MSX\CODE\C\MSXgl\projects\soccerlgMSX2/soccerlg_s9_b3.c:567: }
	ld	b, #0x00
00457$:
	ld	a, b
	sub	a, #0x0e
	jr	NC, 00406$
;E:\Dropbox\FAUSTO\SVILUPPI\MSX\CODE\C\MSXgl\projects\soccerlgMSX2/soccerlg_s9_b3.c:568: 
	push	bc
	push	bc
	inc	sp
	ld	de, #_PlayerAI
	ld	a, #0x06
	call	_CallFnc_VOID_P1
	pop	bc
;E:\Dropbox\FAUSTO\SVILUPPI\MSX\CODE\C\MSXgl\projects\soccerlgMSX2/soccerlg_s9_b3.c:567: }
	inc	b
	jp	00457$
00406$:
;E:\Dropbox\FAUSTO\SVILUPPI\MSX\CODE\C\MSXgl\projects\soccerlgMSX2/soccerlg_s9_b3.c:572: }
;E:\Dropbox\FAUSTO\SVILUPPI\MSX\CODE\C\MSXgl\projects\soccerlgMSX2/soccerlg_s9_b3.c:575: struct ObjectInfo* Referee = &SwSprite[26];
	ld	a, (#(_SwSprite + 322) + 0)
	ld	c, a
	ld	b, #0x00
	sub	a, #0x80
	jr	NC, 00572$
	ld	hl, #0x0028
	add	hl, bc
	ld	c, l
	ld	b, h
	jp	00573$
00572$:
	ld	a, c
	add	a, #0xd8
	ld	c, a
	ld	a, b
	adc	a, #0xff
	ld	b, a
00573$:
	ld	-7 (ix), c
	ld	-6 (ix), b
;E:\Dropbox\FAUSTO\SVILUPPI\MSX\CODE\C\MSXgl\projects\soccerlgMSX2/soccerlg_s9_b3.c:576: 
	ld	bc, #(_SwSprite + 326)
	ld	hl, (#(_SwSprite + 326) + 0)
	ld	-11 (ix), l
	ld	-10 (ix), h
	ld	a, h
	sub	a, #0x01
	jr	NC, 00574$
	ld	a, -11 (ix)
	add	a, #0x30
	ld	-9 (ix), a
	ld	a, -10 (ix)
	adc	a, #0x00
	ld	-8 (ix), a
	jp	00575$
00574$:
	ld	a, -11 (ix)
	add	a, #0xd0
	ld	-9 (ix), a
	ld	a, -10 (ix)
	adc	a, #0xff
	ld	-8 (ix), a
00575$:
	ld	a, -9 (ix)
	ld	-13 (ix), a
	ld	a, -8 (ix)
	ld	-12 (ix), a
;E:\Dropbox\FAUSTO\SVILUPPI\MSX\CODE\C\MSXgl\projects\soccerlgMSX2/soccerlg_s9_b3.c:579: u16 target_y = (Ball->ly < 256) ? (Ball->ly + 48) : (Ball->ly - 48);
	ld	a, -7 (ix)
	ld	d, -6 (ix)
	sub	a, #0x10
	ld	a, d
	sbc	a, #0x00
	jr	NC, 00408$
	ld	-7 (ix), #0x10
	ld	-6 (ix), #0
00408$:
;E:\Dropbox\FAUSTO\SVILUPPI\MSX\CODE\C\MSXgl\projects\soccerlgMSX2/soccerlg_s9_b3.c:580: 
	ld	e, -7 (ix)
	ld	d, -6 (ix)
	ld	a, #0xf0
	cp	a, e
	ld	a, #0x00
	sbc	a, d
	jr	NC, 00410$
	ld	-7 (ix), #0xf0
	ld	-6 (ix), #0
00410$:
;E:\Dropbox\FAUSTO\SVILUPPI\MSX\CODE\C\MSXgl\projects\soccerlgMSX2/soccerlg_s9_b3.c:581: // Limiti per non uscire troppo dal campo
	ld	a, -13 (ix)
	ld	d, -12 (ix)
	sub	a, #0x18
	ld	a, d
	sbc	a, #0x00
	jr	NC, 00412$
	ld	-13 (ix), #0x18
	ld	-12 (ix), #0
00412$:
;E:\Dropbox\FAUSTO\SVILUPPI\MSX\CODE\C\MSXgl\projects\soccerlgMSX2/soccerlg_s9_b3.c:582: if (target_x < 16) target_x = 16;
	ld	e, -13 (ix)
	ld	d, -12 (ix)
	ld	a, #0xe8
	cp	a, e
	ld	a, #0x01
	sbc	a, d
	jr	NC, 00414$
	ld	-13 (ix), #0xe8
	ld	-12 (ix), #0x01
00414$:
;E:\Dropbox\FAUSTO\SVILUPPI\MSX\CODE\C\MSXgl\projects\soccerlgMSX2/soccerlg_s9_b3.c:585: if (target_y > 488) target_y = 488;
	ld	-11 (ix), #0x00
;E:\Dropbox\FAUSTO\SVILUPPI\MSX\CODE\C\MSXgl\projects\soccerlgMSX2/soccerlg_s9_b3.c:586: 
	ld	-10 (ix), #0x00
;E:\Dropbox\FAUSTO\SVILUPPI\MSX\CODE\C\MSXgl\projects\soccerlgMSX2/soccerlg_s9_b3.c:589: i8 ref_dy = 0;
	ld	a, (#(_SwSprite + 598) + 0)
	ld	-1 (ix), a
	ld	-9 (ix), a
	ld	-8 (ix), #0x00
	ld	e, a
	ld	d, #0x00
	inc	de
	ld	a, e
	sub	a, -7 (ix)
	ld	a, d
	sbc	a, -6 (ix)
	jr	NC, 00418$
	ld	-11 (ix), #0x01
	jp	00419$
00418$:
;E:\Dropbox\FAUSTO\SVILUPPI\MSX\CODE\C\MSXgl\projects\soccerlgMSX2/soccerlg_s9_b3.c:590: u8 speed = 1; // L'arbitro si muove più lentamente
	ld	e, -9 (ix)
	ld	d, -8 (ix)
	dec	de
	ld	a, -7 (ix)
	sub	a, e
	ld	a, -6 (ix)
	sbc	a, d
	jr	NC, 00419$
	ld	-11 (ix), #0xff
00419$:
;E:\Dropbox\FAUSTO\SVILUPPI\MSX\CODE\C\MSXgl\projects\soccerlgMSX2/soccerlg_s9_b3.c:592: if (target_x > Referee->lx + speed) ref_dx = speed;
	ld	hl, (#(_SwSprite + 602) + 0)
	ld	-9 (ix), l
	ld	-8 (ix), h
	inc	hl
	ex	de,hl
	ld	a, -13 (ix)
	ld	-7 (ix), a
	ld	a, -12 (ix)
	ld	-6 (ix), a
	ld	a, e
	sub	a, -7 (ix)
	ld	a, d
	sbc	a, -6 (ix)
	jr	NC, 00423$
	ld	-10 (ix), #0x01
	jp	00424$
00423$:
;E:\Dropbox\FAUSTO\SVILUPPI\MSX\CODE\C\MSXgl\projects\soccerlgMSX2/soccerlg_s9_b3.c:593: else if (target_x < Referee->lx - speed) ref_dx = -speed;
	ld	e, -9 (ix)
	ld	d, -8 (ix)
	dec	de
	ld	a, -7 (ix)
	sub	a, e
	ld	a, -6 (ix)
	sbc	a, d
	jr	NC, 00424$
	ld	-10 (ix), #0xff
00424$:
;E:\Dropbox\FAUSTO\SVILUPPI\MSX\CODE\C\MSXgl\projects\soccerlgMSX2/soccerlg_s9_b3.c:595: if (target_y > Referee->ly + speed) ref_dy = speed;
	ld	a, -1 (ix)
	add	a, -11 (ix)
	ld	(#(_SwSprite + 598)),a
;E:\Dropbox\FAUSTO\SVILUPPI\MSX\CODE\C\MSXgl\projects\soccerlgMSX2/soccerlg_s9_b3.c:596: else if (target_y < Referee->ly - speed) ref_dy = -speed;
	ld	hl, (#(_SwSprite + 602) + 0)
	ld	a, -10 (ix)
	ld	e, a
	rlca
	sbc	a, a
	ld	d, a
	add	hl, de
	ex	de, hl
	ld	((_SwSprite + 602)), de
;E:\Dropbox\FAUSTO\SVILUPPI\MSX\CODE\C\MSXgl\projects\soccerlgMSX2/soccerlg_s9_b3.c:599: Referee->ly += ref_dy;
	ld	a, (#(_SwSprite + 322) + 0)
	ld	-1 (ix), a
	ld	hl, #(_SwSprite + 598)
	ld	e, (hl)
	ld	a, e
	sub	a, -1 (ix)
	jr	NC, 00576$
	ld	de, #0x0001
	jp	00577$
00576$:
	ld	a, -1 (ix)
	sub	a, e
	jr	NC, 00578$
	ld	de, #0xffff
	jp	00579$
00578$:
	ld	de, #0x0000
00579$:
00577$:
	ld	-1 (ix), e
;E:\Dropbox\FAUSTO\SVILUPPI\MSX\CODE\C\MSXgl\projects\soccerlgMSX2/soccerlg_s9_b3.c:600: 
	ld	a, (bc)
	ld	-9 (ix), a
	inc	bc
	ld	a, (bc)
	ld	-8 (ix), a
;E:\Dropbox\FAUSTO\SVILUPPI\MSX\CODE\C\MSXgl\projects\soccerlgMSX2/soccerlg_s9_b3.c:592: if (target_x > Referee->lx + speed) ref_dx = speed;
	ld	hl, #(_SwSprite + 602)
	ld	a, (hl)
	ld	-7 (ix), a
	inc	hl
	ld	a, (hl)
	ld	-6 (ix), a
;E:\Dropbox\FAUSTO\SVILUPPI\MSX\CODE\C\MSXgl\projects\soccerlgMSX2/soccerlg_s9_b3.c:600: 
	ld	a, -7 (ix)
	sub	a, -9 (ix)
	ld	a, -6 (ix)
	sbc	a, -8 (ix)
	jr	NC, 00580$
	ld	bc, #0x0001
	jp	00581$
00580$:
	ld	a, -9 (ix)
	sub	a, -7 (ix)
	ld	a, -8 (ix)
	sbc	a, -6 (ix)
	jr	NC, 00582$
	ld	-7 (ix), #0xff
	ld	-6 (ix), #0xff
	jp	00583$
00582$:
	xor	a, a
	ld	-7 (ix), a
	ld	-6 (ix), a
00583$:
	ld	c, -7 (ix)
00581$:
	ld	-6 (ix), c
;E:\Dropbox\FAUSTO\SVILUPPI\MSX\CODE\C\MSXgl\projects\soccerlgMSX2/soccerlg_s9_b3.c:601: // Sguardo sempre orientato verso la palla
	ld	a, -1 (ix)
	or	a, a
	jr	NZ, 00426$
	ld	a, -6 (ix)
	or	a, a
	jr	NZ, 00426$
	ld	-6 (ix), #0x01
00426$:
;E:\Dropbox\FAUSTO\SVILUPPI\MSX\CODE\C\MSXgl\projects\soccerlgMSX2/soccerlg_s9_b3.c:608: Referee->anim++;
;E:\Dropbox\FAUSTO\SVILUPPI\MSX\CODE\C\MSXgl\projects\soccerlgMSX2/soccerlg_s9_b3.c:604: if (look_dx == 0 && look_dy == 0) look_dy = 1; // Guarda in basso di default
	ld	a, -11 (ix)
	or	a, a
	jr	NZ, 00428$
	ld	a, -10 (ix)
	or	a, a
	jp	Z, 00429$
00428$:
;E:\Dropbox\FAUSTO\SVILUPPI\MSX\CODE\C\MSXgl\projects\soccerlgMSX2/soccerlg_s9_b3.c:605: 
	ld	hl, (#(_SwSprite + 617) + 0)
	inc	hl
	ld	-8 (ix), l
	ld	-7 (ix), h
	ld	hl, #(_SwSprite + 617)
	ld	a, -8 (ix)
	ld	(hl), a
	inc	hl
	ld	a, -7 (ix)
	ld	(hl), a
;E:\Dropbox\FAUSTO\SVILUPPI\MSX\CODE\C\MSXgl\projects\soccerlgMSX2/soccerlg_s9_b3.c:606: // Animazione
	ld	-27 (ix), #0x00
	ld	-26 (ix), #0x01
	ld	-25 (ix), #0x02
	ld	-24 (ix), #0x01
;E:\Dropbox\FAUSTO\SVILUPPI\MSX\CODE\C\MSXgl\projects\soccerlgMSX2/soccerlg_s9_b3.c:608: Referee->anim++;
	ld	de, #0x0003
	ld	l, -8 (ix)
;	spillPairReg hl
;	spillPairReg hl
	ld	h, -7 (ix)
;	spillPairReg hl
;	spillPairReg hl
	call	__divuint
	ld	-8 (ix), e
	ld	-7 (ix), d
	ld	a, -8 (ix)
	and	a, #0x03
	ld	-10 (ix), a
	ld	-9 (ix), #0x00
	ld	e, a
	ld	d, #0x00
	ld	hl, #10
	add	hl, sp
	add	hl, de
	ld	-8 (ix), l
	ld	-7 (ix), h
	ld	a, (hl)
	ld	-7 (ix), a
	ld	h, a
	ld	l, -6 (ix)
	push	hl
	ld	h, -1 (ix)
	ld	l, #0x1a
	push	hl
	ld	de, #_GetPlayerAnimFrame
	ld	a, #0x0b
	call	_CallFnc_U16_P4
	ld	-7 (ix), e
	ld	-6 (ix), d
	ld	hl, #(_SwSprite + 613)
	ld	a, -7 (ix)
	ld	(hl), a
	inc	hl
	ld	a, -6 (ix)
	ld	(hl), a
	jp	00459$
00429$:
;E:\Dropbox\FAUSTO\SVILUPPI\MSX\CODE\C\MSXgl\projects\soccerlgMSX2/soccerlg_s9_b3.c:611: Referee->frame = CallFnc_U16_P4(SEG_GAMESTATE_2, GetPlayerAnimFrame, 26, look_dx, look_dy, walk_seq[(Referee->anim / 3) % 4]);
	ld	a, -6 (ix)
	push	af
	inc	sp
	ld	h, -1 (ix)
	ld	l, #0x1a
	push	hl
	ld	de, #_GetPlayerIdleFrame
	ld	a, #0x0b
	call	_CallFnc_U16_P3
	ld	((_SwSprite + 613)), de
	jp	00459$
00433$:
;E:\Dropbox\FAUSTO\SVILUPPI\MSX\CODE\C\MSXgl\projects\soccerlgMSX2/soccerlg_s9_b3.c:614: Referee->frame = CallFnc_U16_P3(SEG_GAMESTATE_2, GetPlayerIdleFrame, 26, look_dx, look_dy);
	ld	hl, #0x03e8
	ld	((_SwSprite + 556)), hl
;E:\Dropbox\FAUSTO\SVILUPPI\MSX\CODE\C\MSXgl\projects\soccerlgMSX2/soccerlg_s9_b3.c:615: }
	ld	((_SwSprite + 579)), hl
;E:\Dropbox\FAUSTO\SVILUPPI\MSX\CODE\C\MSXgl\projects\soccerlgMSX2/soccerlg_s9_b3.c:616: } else {
	ld	l, 6 (ix)
;	spillPairReg hl
;	spillPairReg hl
	ld	h, 7 (ix)
;	spillPairReg hl
;	spillPairReg hl
	push	hl
	ld	l, 4 (ix)
;	spillPairReg hl
;	spillPairReg hl
	ld	h, 5 (ix)
;	spillPairReg hl
;	spillPairReg hl
	push	hl
	ld	l, -5 (ix)
;	spillPairReg hl
;	spillPairReg hl
	ld	h, -4 (ix)
;	spillPairReg hl
;	spillPairReg hl
	push	hl
	ld	l, -3 (ix)
;	spillPairReg hl
;	spillPairReg hl
	ld	h, -2 (ix)
;	spillPairReg hl
;	spillPairReg hl
	push	hl
	ld	de, #_UpdateGameState_Restarts
	ld	a, #0x0c
	call	_CallFnc_VOID_3PTR_U16
00459$:
;E:\Dropbox\FAUSTO\SVILUPPI\MSX\CODE\C\MSXgl\projects\soccerlgMSX2/soccerlg_s9_b3.c:618: SwSprite[25].ly = 1000; // Nasconde la freccia inferiore durante le pause
	ld	sp, ix
	pop	ix
	pop	hl
	pop	af
	pop	af
	jp	(hl)
_g_RDPRIM	=	0xf380
_g_WRPRIM	=	0xf385
_g_CLPRIM	=	0xf38c
_g_USRTAB	=	0xf39a
_g_CNSDFG	=	0xf3de
_g_RG0SAV	=	0xf3df
_g_RG1SAV	=	0xf3e0
_g_RG2SAV	=	0xf3e1
_g_RG3SAV	=	0xf3e2
_g_RG4SAV	=	0xf3e3
_g_RG5SAV	=	0xf3e4
_g_RG6SAV	=	0xf3e5
_g_RG7SAV	=	0xf3e6
_g_STATFL	=	0xf3e7
_g_TRGFLG	=	0xf3e8
_g_MAXUPD	=	0xf3ec
_g_MINUPD	=	0xf3ef
_g_QUEUES	=	0xf3f3
_g_FRCNEW	=	0xf3f5
_g_SCNCNT	=	0xf3f6
_g_REPCNT	=	0xf3f7
_g_PUTPNT	=	0xf3f8
_g_GETPNT	=	0xf3fa
_g_CS120	=	0xf3fc
_g_CS240	=	0xf401
_g_LOW	=	0xf406
_g_HIGH	=	0xf408
_g_HEADER	=	0xf40a
_g_ASPCT1	=	0xf40b
_g_ASPCT2	=	0xf40d
_g_QUETAB	=	0xf959
_g_QUEBAK	=	0xf971
_g_VOICAQ	=	0xf975
_g_VOICBQ	=	0xf9f5
_g_VOICCQ	=	0xfa75
_g_RS2IQ	=	0xfaf5
_g_DPPAGE	=	0xfaf5
_g_ACPAGE	=	0xfaf6
_g_AVCSAV	=	0xfaf7
_g_EXBRSA	=	0xfaf8
_g_CHRCNT	=	0xfaf9
_g_ROMA	=	0xfafa
_g_MODE	=	0xfafc
_g_NORUSE	=	0xfafd
_g_XSAVE	=	0xfafe
_g_YSAVE	=	0xfb00
_g_RSTMP	=	0xfb03
_g_TOCNT	=	0xfb03
_g_RSFCB	=	0xfb04
_g_RSIQLN	=	0xfb06
_g_MEXBIh	=	0xfb07
_g_OLDSTT	=	0xfb0c
_g_OLDINT	=	0xfb0c
_g_DEVNUM	=	0xfb16
_g_DATCNT	=	0xfb17
_g_ERRORS	=	0xfb1a
_g_FLAGS	=	0xfb1b
_g_ESTBLS	=	0xfb1c
_g_COMMSK	=	0xfb1d
_g_LSTCOM	=	0xfb1e
_g_LSTMOD	=	0xfb1f
_g_PRSCNT	=	0xfb35
_g_SAVSP	=	0xfb36
_g_VOICEN	=	0xfb38
_g_SAVVOL	=	0xfb39
_g_MCLLEN	=	0xfb3b
_g_MCLPTR	=	0xfb3c
_g_QUEUEN	=	0xfb3e
_g_MUSICF	=	0xfb3f
_g_PLYCNT	=	0xfb40
_g_VCBA	=	0xfb41
_g_VCBB	=	0xfb66
_g_VCBC	=	0xfb8b
_g_ENSTOP	=	0xfbb0
_g_BASROM	=	0xfbb1
_g_LINTTB	=	0xfbb2
_g_FSTPOS	=	0xfbca
_g_CODSAV	=	0xfbcc
_g_FNKSWI	=	0xfbcd
_g_FNKFLG	=	0xfbce
_g_ONGSBF	=	0xfbd8
_g_CLIKFL	=	0xfbd9
_g_OLDKEY	=	0xfbda
_g_NEWKEY	=	0xfbe5
_g_KEYBUF	=	0xfbf0
_g_LINWRK	=	0xfc18
_g_PATWRK	=	0xfc40
_g_BOTTOM	=	0xfc48
_g_HIMEM	=	0xfc4a
_g_TRPTBL	=	0xfc4c
_g_RTYCNT	=	0xfc9a
_g_INTFLG	=	0xfc9b
_g_PADY	=	0xfc9c
_g_PADX	=	0xfc9d
_g_JIFFY	=	0xfc9e
_g_INTVAL	=	0xfca0
_g_INTCNT	=	0xfca2
_g_LOWLIM	=	0xfca4
_g_WINWID	=	0xfca5
_g_GRPHED	=	0xfca6
_g_ESCCNT	=	0xfca7
_g_INSFLG	=	0xfca8
_g_CSRSW	=	0xfca9
_g_CSTYLE	=	0xfcaa
_g_CAPST	=	0xfcab
_g_KANAST	=	0xfcac
_g_KANAMD	=	0xfcad
_g_FLBMEM	=	0xfcae
_g_SCRMOD	=	0xfcaf
_g_OLDSCR	=	0xfcb0
_g_CASPRV	=	0xfcb1
_g_BRDATR	=	0xfcb2
_g_GXPOS	=	0xfcb3
_g_GYPOS	=	0xfcb5
_g_DRWFLG	=	0xfcbb
_g_DRWSCL	=	0xfcbc
_g_DRWANG	=	0xfcbd
_g_MNROM	=	0xfcc1
_g_EXPTBL	=	0xfcc1
_g_SLTTBL	=	0xfcc5
_g_SLTATR	=	0xfcc9
_g_SLTWRK	=	0xfd09
_g_PROCNM	=	0xfd89
_g_RG08SAV	=	0xffe7
_g_RG09SAV	=	0xffe8
_g_RG10SAV	=	0xffe9
_g_RG11SAV	=	0xffea
_g_RG12SAV	=	0xffeb
_g_RG13SAV	=	0xffec
_g_RG14SAV	=	0xffed
_g_RG15SAV	=	0xffee
_g_RG16SAV	=	0xffef
_g_RG17SAV	=	0xfff0
_g_RG18SAV	=	0xfff1
_g_RG19SAV	=	0xfff2
_g_RG20SAV	=	0xfff3
_g_RG21SAV	=	0xfff4
_g_RG22SAV	=	0xfff5
_g_RG23SAV	=	0xfff6
_g_MINROM	=	0xfff7
_g_SVFFF8	=	0xfff8
_g_RG25SAV	=	0xfffa
_g_RG26SAV	=	0xfffb
_g_RG27SAV	=	0xfffc
_g_SVFFFD	=	0xfffd
_g_CGTABL	=	0x0004
_g_VDP_DR	=	0x0006
_g_VDP_DW	=	0x0007
_g_BASRVN	=	0x002b
_g_ROMVersion	=	0x002b
_g_MSXVER	=	0x002d
_g_MSXMID	=	0x002e
_g_CHAR_16	=	0x0034
_g_SUBRID	=	0x0000
_g_STRSRC	=	0x0002
_g_KANJTABLE	=	0xf30f
_g_DISKVE	=	0xf323
_g_BREAKV	=	0xf325
_g_RAMAD0	=	0xf341
_g_RAMAD1	=	0xf342
_g_RAMAD2	=	0xf343
_g_RAMAD3	=	0xf344
_g_MASTER	=	0xf348
_g_BDOS	=	0xf37d
	.area _SEG9
	.area _INITIALIZER
	.area _CABS (ABS)
