                                      1 ;--------------------------------------------------------
                                      2 ; File Created by SDCC : free open source ANSI-C Compiler
                                      3 ; Version 4.2.0 #13081 (MINGW64)
                                      4 ;--------------------------------------------------------
                                      5 	.module soccerlg_s19_b3
                                      6 	.optsdcc -mz80
                                      7 	
                                      8 ;--------------------------------------------------------
                                      9 ; Public variables in this module
                                     10 ;--------------------------------------------------------
                                     11 	.globl _g_SLTSL
                                     12 	.globl _g_GRPACY
                                     13 	.globl _g_GRPACX
                                     14 	.globl _g_LOGOPR
                                     15 	.globl _g_CMASK
                                     16 	.globl _g_CLOC
                                     17 	.globl _g_FNKSTR
                                     18 	.globl _g_ATRBYT
                                     19 	.globl _g_BDRCLR
                                     20 	.globl _g_BAKCLR
                                     21 	.globl _g_FORCLR
                                     22 	.globl _g_CSRX
                                     23 	.globl _g_CSRY
                                     24 	.globl _g_CLIKSW
                                     25 	.globl _g_MLTPAT
                                     26 	.globl _g_MLTATR
                                     27 	.globl _g_MLTCGP
                                     28 	.globl _g_MLTCOL
                                     29 	.globl _g_MLTNAM
                                     30 	.globl _g_GRPPAT
                                     31 	.globl _g_GRPATR
                                     32 	.globl _g_GRPCGP
                                     33 	.globl _g_GRPCOL
                                     34 	.globl _g_GRPNAM
                                     35 	.globl _g_T32PAT
                                     36 	.globl _g_T32ATR
                                     37 	.globl _g_T32CGP
                                     38 	.globl _g_T32COL
                                     39 	.globl _g_T32NAM
                                     40 	.globl _g_TXTPAT
                                     41 	.globl _g_TXTATR
                                     42 	.globl _g_TXTCGP
                                     43 	.globl _g_TXTCOL
                                     44 	.globl _g_TXTNAM
                                     45 	.globl _g_CLMLST
                                     46 	.globl _g_CRTCNT
                                     47 	.globl _g_LINLEN
                                     48 	.globl _g_LINL32
                                     49 	.globl _g_LINL40
                                     50 	.globl _g_BDOS
                                     51 	.globl _g_MASTER
                                     52 	.globl _g_RAMAD3
                                     53 	.globl _g_RAMAD2
                                     54 	.globl _g_RAMAD1
                                     55 	.globl _g_RAMAD0
                                     56 	.globl _g_BREAKV
                                     57 	.globl _g_DISKVE
                                     58 	.globl _g_KANJTABLE
                                     59 	.globl _g_STRSRC
                                     60 	.globl _g_SUBRID
                                     61 	.globl _g_CHAR_16
                                     62 	.globl _g_MSXMID
                                     63 	.globl _g_MSXVER
                                     64 	.globl _g_ROMVersion
                                     65 	.globl _g_BASRVN
                                     66 	.globl _g_VDP_DW
                                     67 	.globl _g_VDP_DR
                                     68 	.globl _g_CGTABL
                                     69 	.globl _g_SVFFFD
                                     70 	.globl _g_RG27SAV
                                     71 	.globl _g_RG26SAV
                                     72 	.globl _g_RG25SAV
                                     73 	.globl _g_SVFFF8
                                     74 	.globl _g_MINROM
                                     75 	.globl _g_RG23SAV
                                     76 	.globl _g_RG22SAV
                                     77 	.globl _g_RG21SAV
                                     78 	.globl _g_RG20SAV
                                     79 	.globl _g_RG19SAV
                                     80 	.globl _g_RG18SAV
                                     81 	.globl _g_RG17SAV
                                     82 	.globl _g_RG16SAV
                                     83 	.globl _g_RG15SAV
                                     84 	.globl _g_RG14SAV
                                     85 	.globl _g_RG13SAV
                                     86 	.globl _g_RG12SAV
                                     87 	.globl _g_RG11SAV
                                     88 	.globl _g_RG10SAV
                                     89 	.globl _g_RG09SAV
                                     90 	.globl _g_RG08SAV
                                     91 	.globl _g_PROCNM
                                     92 	.globl _g_SLTWRK
                                     93 	.globl _g_SLTATR
                                     94 	.globl _g_SLTTBL
                                     95 	.globl _g_EXPTBL
                                     96 	.globl _g_MNROM
                                     97 	.globl _g_DRWANG
                                     98 	.globl _g_DRWSCL
                                     99 	.globl _g_DRWFLG
                                    100 	.globl _g_GYPOS
                                    101 	.globl _g_GXPOS
                                    102 	.globl _g_BRDATR
                                    103 	.globl _g_CASPRV
                                    104 	.globl _g_OLDSCR
                                    105 	.globl _g_SCRMOD
                                    106 	.globl _g_FLBMEM
                                    107 	.globl _g_KANAMD
                                    108 	.globl _g_KANAST
                                    109 	.globl _g_CAPST
                                    110 	.globl _g_CSTYLE
                                    111 	.globl _g_CSRSW
                                    112 	.globl _g_INSFLG
                                    113 	.globl _g_ESCCNT
                                    114 	.globl _g_GRPHED
                                    115 	.globl _g_WINWID
                                    116 	.globl _g_LOWLIM
                                    117 	.globl _g_INTCNT
                                    118 	.globl _g_INTVAL
                                    119 	.globl _g_JIFFY
                                    120 	.globl _g_PADX
                                    121 	.globl _g_PADY
                                    122 	.globl _g_INTFLG
                                    123 	.globl _g_RTYCNT
                                    124 	.globl _g_TRPTBL
                                    125 	.globl _g_HIMEM
                                    126 	.globl _g_BOTTOM
                                    127 	.globl _g_PATWRK
                                    128 	.globl _g_LINWRK
                                    129 	.globl _g_KEYBUF
                                    130 	.globl _g_NEWKEY
                                    131 	.globl _g_OLDKEY
                                    132 	.globl _g_CLIKFL
                                    133 	.globl _g_ONGSBF
                                    134 	.globl _g_FNKFLG
                                    135 	.globl _g_FNKSWI
                                    136 	.globl _g_CODSAV
                                    137 	.globl _g_FSTPOS
                                    138 	.globl _g_LINTTB
                                    139 	.globl _g_BASROM
                                    140 	.globl _g_ENSTOP
                                    141 	.globl _g_VCBC
                                    142 	.globl _g_VCBB
                                    143 	.globl _g_VCBA
                                    144 	.globl _g_PLYCNT
                                    145 	.globl _g_MUSICF
                                    146 	.globl _g_QUEUEN
                                    147 	.globl _g_MCLPTR
                                    148 	.globl _g_MCLLEN
                                    149 	.globl _g_SAVVOL
                                    150 	.globl _g_VOICEN
                                    151 	.globl _g_SAVSP
                                    152 	.globl _g_PRSCNT
                                    153 	.globl _g_LSTMOD
                                    154 	.globl _g_LSTCOM
                                    155 	.globl _g_COMMSK
                                    156 	.globl _g_ESTBLS
                                    157 	.globl _g_FLAGS
                                    158 	.globl _g_ERRORS
                                    159 	.globl _g_DATCNT
                                    160 	.globl _g_DEVNUM
                                    161 	.globl _g_OLDINT
                                    162 	.globl _g_OLDSTT
                                    163 	.globl _g_MEXBIh
                                    164 	.globl _g_RSIQLN
                                    165 	.globl _g_RSFCB
                                    166 	.globl _g_TOCNT
                                    167 	.globl _g_RSTMP
                                    168 	.globl _g_YSAVE
                                    169 	.globl _g_XSAVE
                                    170 	.globl _g_NORUSE
                                    171 	.globl _g_MODE
                                    172 	.globl _g_ROMA
                                    173 	.globl _g_CHRCNT
                                    174 	.globl _g_EXBRSA
                                    175 	.globl _g_AVCSAV
                                    176 	.globl _g_ACPAGE
                                    177 	.globl _g_DPPAGE
                                    178 	.globl _g_RS2IQ
                                    179 	.globl _g_VOICCQ
                                    180 	.globl _g_VOICBQ
                                    181 	.globl _g_VOICAQ
                                    182 	.globl _g_QUEBAK
                                    183 	.globl _g_QUETAB
                                    184 	.globl _g_ASPCT2
                                    185 	.globl _g_ASPCT1
                                    186 	.globl _g_HEADER
                                    187 	.globl _g_HIGH
                                    188 	.globl _g_LOW
                                    189 	.globl _g_CS240
                                    190 	.globl _g_CS120
                                    191 	.globl _g_GETPNT
                                    192 	.globl _g_PUTPNT
                                    193 	.globl _g_REPCNT
                                    194 	.globl _g_SCNCNT
                                    195 	.globl _g_FRCNEW
                                    196 	.globl _g_QUEUES
                                    197 	.globl _g_MINUPD
                                    198 	.globl _g_MAXUPD
                                    199 	.globl _g_TRGFLG
                                    200 	.globl _g_STATFL
                                    201 	.globl _g_RG7SAV
                                    202 	.globl _g_RG6SAV
                                    203 	.globl _g_RG5SAV
                                    204 	.globl _g_RG4SAV
                                    205 	.globl _g_RG3SAV
                                    206 	.globl _g_RG2SAV
                                    207 	.globl _g_RG1SAV
                                    208 	.globl _g_RG0SAV
                                    209 	.globl _g_CNSDFG
                                    210 	.globl _g_USRTAB
                                    211 	.globl _g_CLPRIM
                                    212 	.globl _g_WRPRIM
                                    213 	.globl _g_RDPRIM
                                    214 	.globl _GetPlayerAnimFrame
                                    215 	.globl _GetPlayerIdleFrame
                                    216 ;--------------------------------------------------------
                                    217 ; special function registers
                                    218 ;--------------------------------------------------------
                         000000A8   219 _g_PortPrimarySlot	=	0x00a8
                         000000A9   220 _g_PortReadKeyboard	=	0x00a9
                         000000AA   221 _g_PortAccessKeyboard	=	0x00aa
                         000000AB   222 _g_PortControl	=	0x00ab
                         00000098   223 _g_VDP_DataPort	=	0x0098
                         00000099   224 _g_VDP_RegPort	=	0x0099
                         00000099   225 _g_VDP_AddrPort	=	0x0099
                         00000099   226 _g_VDP_StatPort	=	0x0099
                         0000009A   227 _g_VDP_PalPort	=	0x009a
                         0000009B   228 _g_VDP_IRegPort	=	0x009b
                         000000A0   229 _g_PSG_RegPort	=	0x00a0
                         000000A1   230 _g_PSG_DataPort	=	0x00a1
                         000000A2   231 _g_PSG_StatPort	=	0x00a2
                         00000010   232 _g_PSG_Ext_RegPort	=	0x0010
                         00000011   233 _g_PSG_Ext_DataPort	=	0x0011
                         00000012   234 _g_PSG_Ext_StatPort	=	0x0012
                         0000007C   235 _g_MSXMusic_IndexPort	=	0x007c
                         0000007D   236 _g_MSXMusic_DataPort	=	0x007d
                         000000C0   237 _g_MSXAudio_IndexPort	=	0x00c0
                         000000C1   238 _g_MSXAudio_DataPort	=	0x00c1
                         000000C2   239 _g_MSXAudio_IndexPort2	=	0x00c2
                         000000C3   240 _g_MSXAudio_DataPort2	=	0x00c3
                         000000B4   241 _g_RTC_AddrPort	=	0x00b4
                         000000B5   242 _g_RTC_DataPort	=	0x00b5
                                    243 ;--------------------------------------------------------
                                    244 ; ram data
                                    245 ;--------------------------------------------------------
                                    246 	.area _DATA
                         0000F3AE   247 _g_LINL40	=	0xf3ae
                         0000F3AF   248 _g_LINL32	=	0xf3af
                         0000F3B0   249 _g_LINLEN	=	0xf3b0
                         0000F3B1   250 _g_CRTCNT	=	0xf3b1
                         0000F3B2   251 _g_CLMLST	=	0xf3b2
                         0000F3B3   252 _g_TXTNAM	=	0xf3b3
                         0000F3B5   253 _g_TXTCOL	=	0xf3b5
                         0000F3B7   254 _g_TXTCGP	=	0xf3b7
                         0000F3B9   255 _g_TXTATR	=	0xf3b9
                         0000F3BB   256 _g_TXTPAT	=	0xf3bb
                         0000F3BD   257 _g_T32NAM	=	0xf3bd
                         0000F3BF   258 _g_T32COL	=	0xf3bf
                         0000F3C1   259 _g_T32CGP	=	0xf3c1
                         0000F3C3   260 _g_T32ATR	=	0xf3c3
                         0000F3C5   261 _g_T32PAT	=	0xf3c5
                         0000F3C7   262 _g_GRPNAM	=	0xf3c7
                         0000F3C9   263 _g_GRPCOL	=	0xf3c9
                         0000F3CB   264 _g_GRPCGP	=	0xf3cb
                         0000F3CD   265 _g_GRPATR	=	0xf3cd
                         0000F3CF   266 _g_GRPPAT	=	0xf3cf
                         0000F3D1   267 _g_MLTNAM	=	0xf3d1
                         0000F3D3   268 _g_MLTCOL	=	0xf3d3
                         0000F3D5   269 _g_MLTCGP	=	0xf3d5
                         0000F3D7   270 _g_MLTATR	=	0xf3d7
                         0000F3D9   271 _g_MLTPAT	=	0xf3d9
                         0000F3DB   272 _g_CLIKSW	=	0xf3db
                         0000F3DC   273 _g_CSRY	=	0xf3dc
                         0000F3DD   274 _g_CSRX	=	0xf3dd
                         0000F3E9   275 _g_FORCLR	=	0xf3e9
                         0000F3EA   276 _g_BAKCLR	=	0xf3ea
                         0000F3EB   277 _g_BDRCLR	=	0xf3eb
                         0000F3F2   278 _g_ATRBYT	=	0xf3f2
                         0000F87F   279 _g_FNKSTR	=	0xf87f
                         0000F92A   280 _g_CLOC	=	0xf92a
                         0000F92C   281 _g_CMASK	=	0xf92c
                         0000FB02   282 _g_LOGOPR	=	0xfb02
                         0000FCB7   283 _g_GRPACX	=	0xfcb7
                         0000FCB9   284 _g_GRPACY	=	0xfcb9
                         0000FFFF   285 _g_SLTSL	=	0xffff
                                    286 ;--------------------------------------------------------
                                    287 ; ram data
                                    288 ;--------------------------------------------------------
                                    289 	.area _INITIALIZED
                                    290 ;--------------------------------------------------------
                                    291 ; absolute external ram data
                                    292 ;--------------------------------------------------------
                                    293 	.area _DABS (ABS)
                                    294 ;--------------------------------------------------------
                                    295 ; global & static initialisations
                                    296 ;--------------------------------------------------------
                                    297 	.area _HOME
                                    298 	.area _GSINIT
                                    299 	.area _GSFINAL
                                    300 	.area _GSINIT
                                    301 ;--------------------------------------------------------
                                    302 ; Home
                                    303 ;--------------------------------------------------------
                                    304 	.area _HOME
                                    305 	.area _HOME
                                    306 ;--------------------------------------------------------
                                    307 ; code
                                    308 ;--------------------------------------------------------
                                    309 	.area _SEG19
                                    310 ;E:\Dropbox\FAUSTO\SVILUPPI\MSX\CODE\C\MSXgl\projects\soccerlgMSX2/soccerlg_s19_b3.c:10: u16 GetPlayerAnimFrame(u8 i, i8 dx, i8 dy, u8 step) 
                                    311 ;	---------------------------------
                                    312 ; Function GetPlayerAnimFrame
                                    313 ; ---------------------------------
    00000000                        314 _GetPlayerAnimFrame::
    00000000 DD E5            [15]  315 	push	ix
    00000002 DD 21 00 00      [14]  316 	ld	ix,#0
    00000006 DD 39            [15]  317 	add	ix,sp
    00000008 F5               [11]  318 	push	af
    00000009 F5               [11]  319 	push	af
    0000000A DD 77 FF         [19]  320 	ld	-1 (ix), a
    0000000D 4D               [ 4]  321 	ld	c, l
                                    322 ;E:\Dropbox\FAUSTO\SVILUPPI\MSX\CODE\C\MSXgl\projects\soccerlgMSX2/soccerlg_s19_b3.c:12: bool is_gk = (i == 0 || i == 7);
    0000000E DD 7E FF         [19]  323 	ld	a, -1 (ix)
    00000011 B7               [ 4]  324 	or	a, a
    00000012 28 0B            [12]  325 	jr	Z, 00224$
    00000014 DD 7E FF         [19]  326 	ld	a, -1 (ix)
    00000017 D6 07            [ 7]  327 	sub	a, #0x07
    00000019 28 04            [12]  328 	jr	Z, 00224$
    0000001B AF               [ 4]  329 	xor	a, a
    0000001C C3r21r00         [10]  330 	jp	00225$
    0000001F                        331 00224$:
    0000001F 3E 01            [ 7]  332 	ld	a, #0x01
    00000021                        333 00225$:
    00000021 DD 77 FC         [19]  334 	ld	-4 (ix), a
                                    335 ;E:\Dropbox\FAUSTO\SVILUPPI\MSX\CODE\C\MSXgl\projects\soccerlgMSX2/soccerlg_s19_b3.c:13: if (i == 26) { // Arbitro
    00000024 DD 7E FF         [19]  336 	ld	a, -1 (ix)
    00000027 D6 1A            [ 7]  337 	sub	a, #0x1a
    00000029 C2r8Fr01         [10]  338 	jp	NZ,00126$
                                    339 ;E:\Dropbox\FAUSTO\SVILUPPI\MSX\CODE\C\MSXgl\projects\soccerlgMSX2/soccerlg_s19_b3.c:14: if (dy < 0 && dx == 0) return (step==0) ? SPR_REFEREE_NORTH_DIRECTION_1 : (step==1) ? SPR_REFEREE_NORTH_DIRECTION_2 : SPR_REFEREE_NORTH_DIRECTION_3;
    0000002C DD 7E 04         [19]  340 	ld	a, 4 (ix)
    0000002F 07               [ 4]  341 	rlca
    00000030 E6 01            [ 7]  342 	and	a,#0x01
    00000032 DD 77 FE         [19]  343 	ld	-2 (ix), a
    00000035 B7               [ 4]  344 	or	a, a
    00000036 28 22            [12]  345 	jr	Z, 00102$
    00000038 79               [ 4]  346 	ld	a, c
    00000039 B7               [ 4]  347 	or	a, a
    0000003A 20 1E            [12]  348 	jr	NZ, 00102$
    0000003C DD 7E 05         [19]  349 	ld	a, 5 (ix)
    0000003F B7               [ 4]  350 	or	a, a
    00000040 20 06            [12]  351 	jr	NZ, 00226$
    00000042 11 13 01         [10]  352 	ld	de, #0x0113
    00000045 C3rBBr06         [10]  353 	jp	00221$
    00000048                        354 00226$:
    00000048 DD 7E 05         [19]  355 	ld	a, 5 (ix)
    0000004B 3D               [ 4]  356 	dec	a
    0000004C 20 06            [12]  357 	jr	NZ, 00228$
    0000004E 11 14 01         [10]  358 	ld	de, #0x0114
    00000051 C3rBBr06         [10]  359 	jp	00221$
    00000054                        360 00228$:
    00000054 11 15 01         [10]  361 	ld	de, #0x0115
    00000057 C3rBBr06         [10]  362 	jp	00221$
    0000005A                        363 00102$:
                                    364 ;E:\Dropbox\FAUSTO\SVILUPPI\MSX\CODE\C\MSXgl\projects\soccerlgMSX2/soccerlg_s19_b3.c:15: if (dy > 0 && dx == 0) return (step==0) ? SPR_REFEREE_SOUTH_DIRECTION_1 : (step==1) ? SPR_REFEREE_SOUTH_DIRECTION_2 : SPR_REFEREE_SOUTH_DIRECTION_3;
    0000005A AF               [ 4]  365 	xor	a, a
    0000005B DD 96 04         [19]  366 	sub	a, 4 (ix)
    0000005E E2r63r00         [10]  367 	jp	PO, 01174$
    00000061 EE 80            [ 7]  368 	xor	a, #0x80
    00000063                        369 01174$:
    00000063 07               [ 4]  370 	rlca
    00000064 E6 01            [ 7]  371 	and	a,#0x01
    00000066 5F               [ 4]  372 	ld	e, a
    00000067 B7               [ 4]  373 	or	a, a
    00000068 28 22            [12]  374 	jr	Z, 00105$
    0000006A 79               [ 4]  375 	ld	a, c
    0000006B B7               [ 4]  376 	or	a, a
    0000006C 20 1E            [12]  377 	jr	NZ, 00105$
    0000006E DD 7E 05         [19]  378 	ld	a, 5 (ix)
    00000071 B7               [ 4]  379 	or	a, a
    00000072 20 06            [12]  380 	jr	NZ, 00230$
    00000074 11 00 01         [10]  381 	ld	de, #0x0100
    00000077 C3rBBr06         [10]  382 	jp	00221$
    0000007A                        383 00230$:
    0000007A DD 7E 05         [19]  384 	ld	a, 5 (ix)
    0000007D 3D               [ 4]  385 	dec	a
    0000007E 20 06            [12]  386 	jr	NZ, 00232$
    00000080 11 01 01         [10]  387 	ld	de, #0x0101
    00000083 C3rBBr06         [10]  388 	jp	00221$
    00000086                        389 00232$:
    00000086 11 02 01         [10]  390 	ld	de, #0x0102
    00000089 C3rBBr06         [10]  391 	jp	00221$
    0000008C                        392 00105$:
                                    393 ;E:\Dropbox\FAUSTO\SVILUPPI\MSX\CODE\C\MSXgl\projects\soccerlgMSX2/soccerlg_s19_b3.c:16: if (dy == 0 && dx > 0) return (step==0) ? SPR_REFEREE_EAST_DIRECTION_1 : (step==1) ? SPR_REFEREE_EAST_DIRECTION_2 : SPR_REFEREE_EAST_DIRECTION_3;
    0000008C DD 7E 04         [19]  394 	ld	a, 4 (ix)
    0000008F B7               [ 4]  395 	or	a,a
    00000090 20 27            [12]  396 	jr	NZ, 00108$
    00000092 91               [ 4]  397 	sub	a, c
    00000093 E2r98r00         [10]  398 	jp	PO, 01177$
    00000096 EE 80            [ 7]  399 	xor	a, #0x80
    00000098                        400 01177$:
    00000098 F2rB9r00         [10]  401 	jp	P, 00108$
    0000009B DD 7E 05         [19]  402 	ld	a, 5 (ix)
    0000009E B7               [ 4]  403 	or	a, a
    0000009F 20 06            [12]  404 	jr	NZ, 00234$
    000000A1 11 1D 01         [10]  405 	ld	de, #0x011d
    000000A4 C3rBBr06         [10]  406 	jp	00221$
    000000A7                        407 00234$:
    000000A7 DD 7E 05         [19]  408 	ld	a, 5 (ix)
    000000AA 3D               [ 4]  409 	dec	a
    000000AB 20 06            [12]  410 	jr	NZ, 00236$
    000000AD 11 1C 01         [10]  411 	ld	de, #0x011c
    000000B0 C3rBBr06         [10]  412 	jp	00221$
    000000B3                        413 00236$:
    000000B3 11 1B 01         [10]  414 	ld	de, #0x011b
    000000B6 C3rBBr06         [10]  415 	jp	00221$
    000000B9                        416 00108$:
                                    417 ;E:\Dropbox\FAUSTO\SVILUPPI\MSX\CODE\C\MSXgl\projects\soccerlgMSX2/soccerlg_s19_b3.c:17: if (dy == 0 && dx < 0) return (step==0) ? SPR_REFEREE_WEST_DIRECTION_1 : (step==1) ? SPR_REFEREE_WEST_DIRECTION_2 : SPR_REFEREE_WEST_DIRECTION_3;
    000000B9 DD 7E 04         [19]  418 	ld	a, 4 (ix)
    000000BC B7               [ 4]  419 	or	a, a
    000000BD 20 22            [12]  420 	jr	NZ, 00111$
    000000BF CB 79            [ 8]  421 	bit	7, c
    000000C1 28 1E            [12]  422 	jr	Z, 00111$
    000000C3 DD 7E 05         [19]  423 	ld	a, 5 (ix)
    000000C6 B7               [ 4]  424 	or	a, a
    000000C7 20 06            [12]  425 	jr	NZ, 00238$
    000000C9 11 18 01         [10]  426 	ld	de, #0x0118
    000000CC C3rBBr06         [10]  427 	jp	00221$
    000000CF                        428 00238$:
    000000CF DD 7E 05         [19]  429 	ld	a, 5 (ix)
    000000D2 3D               [ 4]  430 	dec	a
    000000D3 20 06            [12]  431 	jr	NZ, 00240$
    000000D5 11 19 01         [10]  432 	ld	de, #0x0119
    000000D8 C3rBBr06         [10]  433 	jp	00221$
    000000DB                        434 00240$:
    000000DB 11 1A 01         [10]  435 	ld	de, #0x011a
    000000DE C3rBBr06         [10]  436 	jp	00221$
    000000E1                        437 00111$:
                                    438 ;E:\Dropbox\FAUSTO\SVILUPPI\MSX\CODE\C\MSXgl\projects\soccerlgMSX2/soccerlg_s19_b3.c:18: if (dy < 0 && dx > 0) return (step==0) ? SPR_REFEREE_NORTH_EAST_DIRECTION_1 : (step==1) ? SPR_REFEREE_NORTH_EAST_DIRECTION_2 : SPR_REFEREE_NORTH_EAST_DIRECTION_3;
    000000E1 DD 7E FE         [19]  439 	ld	a, -2 (ix)
    000000E4 B7               [ 4]  440 	or	a, a
    000000E5 28 28            [12]  441 	jr	Z, 00114$
    000000E7 AF               [ 4]  442 	xor	a, a
    000000E8 91               [ 4]  443 	sub	a, c
    000000E9 E2rEEr00         [10]  444 	jp	PO, 01182$
    000000EC EE 80            [ 7]  445 	xor	a, #0x80
    000000EE                        446 01182$:
    000000EE F2r0Fr01         [10]  447 	jp	P, 00114$
    000000F1 DD 7E 05         [19]  448 	ld	a, 5 (ix)
    000000F4 B7               [ 4]  449 	or	a, a
    000000F5 20 06            [12]  450 	jr	NZ, 00242$
    000000F7 11 0F 01         [10]  451 	ld	de, #0x010f
    000000FA C3rBBr06         [10]  452 	jp	00221$
    000000FD                        453 00242$:
    000000FD DD 7E 05         [19]  454 	ld	a, 5 (ix)
    00000100 3D               [ 4]  455 	dec	a
    00000101 20 06            [12]  456 	jr	NZ, 00244$
    00000103 11 0E 01         [10]  457 	ld	de, #0x010e
    00000106 C3rBBr06         [10]  458 	jp	00221$
    00000109                        459 00244$:
    00000109 11 0D 01         [10]  460 	ld	de, #0x010d
    0000010C C3rBBr06         [10]  461 	jp	00221$
    0000010F                        462 00114$:
                                    463 ;E:\Dropbox\FAUSTO\SVILUPPI\MSX\CODE\C\MSXgl\projects\soccerlgMSX2/soccerlg_s19_b3.c:19: if (dy < 0 && dx < 0) return (step==0) ? SPR_REFEREE_NORTH_WEST_DIRECTION_1 : (step==1) ? SPR_REFEREE_NORTH_WEST_DIRECTION_2 : SPR_REFEREE_NORTH_WEST_DIRECTION_3;
    0000010F DD 7E FE         [19]  464 	ld	a, -2 (ix)
    00000112 B7               [ 4]  465 	or	a, a
    00000113 28 22            [12]  466 	jr	Z, 00117$
    00000115 CB 79            [ 8]  467 	bit	7, c
    00000117 28 1E            [12]  468 	jr	Z, 00117$
    00000119 DD 7E 05         [19]  469 	ld	a, 5 (ix)
    0000011C B7               [ 4]  470 	or	a, a
    0000011D 20 06            [12]  471 	jr	NZ, 00246$
    0000011F 11 10 01         [10]  472 	ld	de, #0x0110
    00000122 C3rBBr06         [10]  473 	jp	00221$
    00000125                        474 00246$:
    00000125 DD 7E 05         [19]  475 	ld	a, 5 (ix)
    00000128 3D               [ 4]  476 	dec	a
    00000129 20 06            [12]  477 	jr	NZ, 00248$
    0000012B 11 11 01         [10]  478 	ld	de, #0x0111
    0000012E C3rBBr06         [10]  479 	jp	00221$
    00000131                        480 00248$:
    00000131 11 12 01         [10]  481 	ld	de, #0x0112
    00000134 C3rBBr06         [10]  482 	jp	00221$
    00000137                        483 00117$:
                                    484 ;E:\Dropbox\FAUSTO\SVILUPPI\MSX\CODE\C\MSXgl\projects\soccerlgMSX2/soccerlg_s19_b3.c:20: if (dy > 0 && dx > 0) return (step==0) ? SPR_REFEREE_SOUTH_EAST_DIRECTION_1 : (step==1) ? SPR_REFEREE_SOUTH_EAST_DIRECTION_2 : SPR_REFEREE_SOUTH_EAST_DIRECTION_3;
    00000137 7B               [ 4]  485 	ld	a, e
    00000138 B7               [ 4]  486 	or	a, a
    00000139 28 28            [12]  487 	jr	Z, 00120$
    0000013B AF               [ 4]  488 	xor	a, a
    0000013C 91               [ 4]  489 	sub	a, c
    0000013D E2r42r01         [10]  490 	jp	PO, 01187$
    00000140 EE 80            [ 7]  491 	xor	a, #0x80
    00000142                        492 01187$:
    00000142 F2r63r01         [10]  493 	jp	P, 00120$
    00000145 DD 7E 05         [19]  494 	ld	a, 5 (ix)
    00000148 B7               [ 4]  495 	or	a, a
    00000149 20 06            [12]  496 	jr	NZ, 00250$
    0000014B 11 0C 01         [10]  497 	ld	de, #0x010c
    0000014E C3rBBr06         [10]  498 	jp	00221$
    00000151                        499 00250$:
    00000151 DD 7E 05         [19]  500 	ld	a, 5 (ix)
    00000154 3D               [ 4]  501 	dec	a
    00000155 20 06            [12]  502 	jr	NZ, 00252$
    00000157 11 0B 01         [10]  503 	ld	de, #0x010b
    0000015A C3rBBr06         [10]  504 	jp	00221$
    0000015D                        505 00252$:
    0000015D 11 0A 01         [10]  506 	ld	de, #0x010a
    00000160 C3rBBr06         [10]  507 	jp	00221$
    00000163                        508 00120$:
                                    509 ;E:\Dropbox\FAUSTO\SVILUPPI\MSX\CODE\C\MSXgl\projects\soccerlgMSX2/soccerlg_s19_b3.c:21: if (dy > 0 && dx < 0) return (step==0) ? SPR_REFEREE_SOUTH_WEST_DIRECTION_1 : (step==1) ? SPR_REFEREE_SOUTH_WEST_DIRECTION_2 : SPR_REFEREE_SOUTH_WEST_DIRECTION_3;
    00000163 7B               [ 4]  510 	ld	a, e
    00000164 B7               [ 4]  511 	or	a, a
    00000165 28 22            [12]  512 	jr	Z, 00123$
    00000167 CB 79            [ 8]  513 	bit	7, c
    00000169 28 1E            [12]  514 	jr	Z, 00123$
    0000016B DD 7E 05         [19]  515 	ld	a, 5 (ix)
    0000016E B7               [ 4]  516 	or	a, a
    0000016F 20 06            [12]  517 	jr	NZ, 00254$
    00000171 11 07 01         [10]  518 	ld	de, #0x0107
    00000174 C3rBBr06         [10]  519 	jp	00221$
    00000177                        520 00254$:
    00000177 DD 7E 05         [19]  521 	ld	a, 5 (ix)
    0000017A 3D               [ 4]  522 	dec	a
    0000017B 20 06            [12]  523 	jr	NZ, 00256$
    0000017D 11 09 01         [10]  524 	ld	de, #0x0109
    00000180 C3rBBr06         [10]  525 	jp	00221$
    00000183                        526 00256$:
    00000183 11 08 01         [10]  527 	ld	de, #0x0108
    00000186 C3rBBr06         [10]  528 	jp	00221$
    00000189                        529 00123$:
                                    530 ;E:\Dropbox\FAUSTO\SVILUPPI\MSX\CODE\C\MSXgl\projects\soccerlgMSX2/soccerlg_s19_b3.c:22: return SPR_REFEREE_FACE_TO_SOUTH;
    00000189 11 06 01         [10]  531 	ld	de, #0x0106
    0000018C C3rBBr06         [10]  532 	jp	00221$
    0000018F                        533 00126$:
                                    534 ;E:\Dropbox\FAUSTO\SVILUPPI\MSX\CODE\C\MSXgl\projects\soccerlgMSX2/soccerlg_s19_b3.c:24: u8 team = (i < 7) ? 1 : 2;
    0000018F DD 7E FF         [19]  535 	ld	a, -1 (ix)
    00000192 D6 07            [ 7]  536 	sub	a, #0x07
    00000194 30 06            [12]  537 	jr	NC, 00258$
    00000196 11 01 00         [10]  538 	ld	de, #0x0001
    00000199 C3r9Fr01         [10]  539 	jp	00259$
    0000019C                        540 00258$:
    0000019C 11 02 00         [10]  541 	ld	de, #0x0002
    0000019F                        542 00259$:
    0000019F DD 73 FD         [19]  543 	ld	-3 (ix), e
                                    544 ;E:\Dropbox\FAUSTO\SVILUPPI\MSX\CODE\C\MSXgl\projects\soccerlgMSX2/soccerlg_s19_b3.c:25: bool is_celebrating = (RestartType == RESTART_GOAL && ((team == 1 && KickOffTeam == TEAM_2) || (team == 2 && KickOffTeam == TEAM_1)));
    000001A2 3Ar00r00         [13]  545 	ld	a, (_RestartType+0)
    000001A5 D6 05            [ 7]  546 	sub	a, #0x05
    000001A7 20 19            [12]  547 	jr	NZ, 00260$
    000001A9 DD 7E FD         [19]  548 	ld	a, -3 (ix)
    000001AC 3D               [ 4]  549 	dec	a
    000001AD 20 06            [12]  550 	jr	NZ, 00268$
    000001AF 3Ar00r00         [13]  551 	ld	a, (_KickOffTeam+0)
    000001B2 3D               [ 4]  552 	dec	a
    000001B3 28 11            [12]  553 	jr	Z, 00261$
    000001B5                        554 00268$:
    000001B5 DD 7E FD         [19]  555 	ld	a, -3 (ix)
    000001B8 D6 02            [ 7]  556 	sub	a, #0x02
    000001BA 20 06            [12]  557 	jr	NZ, 00260$
    000001BC 3Ar00r00         [13]  558 	ld	a, (_KickOffTeam+0)
    000001BF B7               [ 4]  559 	or	a, a
    000001C0 28 04            [12]  560 	jr	Z, 00261$
    000001C2                        561 00260$:
    000001C2 AF               [ 4]  562 	xor	a, a
    000001C3 C3rC8r01         [10]  563 	jp	00262$
    000001C6                        564 00261$:
    000001C6 3E 01            [ 7]  565 	ld	a, #0x01
    000001C8                        566 00262$:
    000001C8 DD 77 FE         [19]  567 	ld	-2 (ix), a
                                    568 ;E:\Dropbox\FAUSTO\SVILUPPI\MSX\CODE\C\MSXgl\projects\soccerlgMSX2/soccerlg_s19_b3.c:27: if (is_gk) {
    000001CB DD 7E FC         [19]  569 	ld	a, -4 (ix)
    000001CE B7               [ 4]  570 	or	a, a
    000001CF CAr35r03         [10]  571 	jp	Z, 00219$
                                    572 ;E:\Dropbox\FAUSTO\SVILUPPI\MSX\CODE\C\MSXgl\projects\soccerlgMSX2/soccerlg_s19_b3.c:28: if (dy < 0 && dx == 0) return (step==0) ? SPR_GK_PLAYER_NORTH_DIRECTION_1 : (step==1) ? SPR_GK_PLAYER_NORTH_DIRECTION_2 : SPR_GK_PLAYER_NORTH_DIRECTION_3;
    000001D2 DD 7E 04         [19]  573 	ld	a, 4 (ix)
    000001D5 07               [ 4]  574 	rlca
    000001D6 E6 01            [ 7]  575 	and	a,#0x01
    000001D8 DD 77 FE         [19]  576 	ld	-2 (ix), a
    000001DB B7               [ 4]  577 	or	a, a
    000001DC 28 22            [12]  578 	jr	Z, 00128$
    000001DE 79               [ 4]  579 	ld	a, c
    000001DF B7               [ 4]  580 	or	a, a
    000001E0 20 1E            [12]  581 	jr	NZ, 00128$
    000001E2 DD 7E 05         [19]  582 	ld	a, 5 (ix)
    000001E5 B7               [ 4]  583 	or	a, a
    000001E6 20 06            [12]  584 	jr	NZ, 00272$
    000001E8 11 E3 00         [10]  585 	ld	de, #0x00e3
    000001EB C3rBBr06         [10]  586 	jp	00221$
    000001EE                        587 00272$:
    000001EE DD 7E 05         [19]  588 	ld	a, 5 (ix)
    000001F1 3D               [ 4]  589 	dec	a
    000001F2 20 06            [12]  590 	jr	NZ, 00274$
    000001F4 11 E4 00         [10]  591 	ld	de, #0x00e4
    000001F7 C3rBBr06         [10]  592 	jp	00221$
    000001FA                        593 00274$:
    000001FA 11 E5 00         [10]  594 	ld	de, #0x00e5
    000001FD C3rBBr06         [10]  595 	jp	00221$
    00000200                        596 00128$:
                                    597 ;E:\Dropbox\FAUSTO\SVILUPPI\MSX\CODE\C\MSXgl\projects\soccerlgMSX2/soccerlg_s19_b3.c:29: if (dy > 0 && dx == 0) return (step==0) ? SPR_GK_PLAYER_SOUTH_DIRECTION_1 : (step==1) ? SPR_GK_PLAYER_SOUTH_DIRECTION_2 : SPR_GK_PLAYER_SOUTH_DIRECTION_3;
    00000200 AF               [ 4]  598 	xor	a, a
    00000201 DD 96 04         [19]  599 	sub	a, 4 (ix)
    00000204 E2r09r02         [10]  600 	jp	PO, 01201$
    00000207 EE 80            [ 7]  601 	xor	a, #0x80
    00000209                        602 01201$:
    00000209 07               [ 4]  603 	rlca
    0000020A E6 01            [ 7]  604 	and	a,#0x01
    0000020C 47               [ 4]  605 	ld	b, a
    0000020D B7               [ 4]  606 	or	a, a
    0000020E 28 22            [12]  607 	jr	Z, 00131$
    00000210 79               [ 4]  608 	ld	a, c
    00000211 B7               [ 4]  609 	or	a, a
    00000212 20 1E            [12]  610 	jr	NZ, 00131$
    00000214 DD 7E 05         [19]  611 	ld	a, 5 (ix)
    00000217 B7               [ 4]  612 	or	a, a
    00000218 20 06            [12]  613 	jr	NZ, 00276$
    0000021A 11 D0 00         [10]  614 	ld	de, #0x00d0
    0000021D C3rBBr06         [10]  615 	jp	00221$
    00000220                        616 00276$:
    00000220 DD 7E 05         [19]  617 	ld	a, 5 (ix)
    00000223 3D               [ 4]  618 	dec	a
    00000224 20 06            [12]  619 	jr	NZ, 00278$
    00000226 11 D1 00         [10]  620 	ld	de, #0x00d1
    00000229 C3rBBr06         [10]  621 	jp	00221$
    0000022C                        622 00278$:
    0000022C 11 D2 00         [10]  623 	ld	de, #0x00d2
    0000022F C3rBBr06         [10]  624 	jp	00221$
    00000232                        625 00131$:
                                    626 ;E:\Dropbox\FAUSTO\SVILUPPI\MSX\CODE\C\MSXgl\projects\soccerlgMSX2/soccerlg_s19_b3.c:30: if (dy == 0 && dx > 0) return (step==0) ? SPR_GK_PLAYER_EAST_DIRECTION_1 : (step==1) ? SPR_GK_PLAYER_EAST_DIRECTION_2 : SPR_GK_PLAYER_EAST_DIRECTION_3;
    00000232 DD 7E 04         [19]  627 	ld	a, 4 (ix)
    00000235 B7               [ 4]  628 	or	a,a
    00000236 20 27            [12]  629 	jr	NZ, 00134$
    00000238 91               [ 4]  630 	sub	a, c
    00000239 E2r3Er02         [10]  631 	jp	PO, 01204$
    0000023C EE 80            [ 7]  632 	xor	a, #0x80
    0000023E                        633 01204$:
    0000023E F2r5Fr02         [10]  634 	jp	P, 00134$
    00000241 DD 7E 05         [19]  635 	ld	a, 5 (ix)
    00000244 B7               [ 4]  636 	or	a, a
    00000245 20 06            [12]  637 	jr	NZ, 00280$
    00000247 11 ED 00         [10]  638 	ld	de, #0x00ed
    0000024A C3rBBr06         [10]  639 	jp	00221$
    0000024D                        640 00280$:
    0000024D DD 7E 05         [19]  641 	ld	a, 5 (ix)
    00000250 3D               [ 4]  642 	dec	a
    00000251 20 06            [12]  643 	jr	NZ, 00282$
    00000253 11 EC 00         [10]  644 	ld	de, #0x00ec
    00000256 C3rBBr06         [10]  645 	jp	00221$
    00000259                        646 00282$:
    00000259 11 EB 00         [10]  647 	ld	de, #0x00eb
    0000025C C3rBBr06         [10]  648 	jp	00221$
    0000025F                        649 00134$:
                                    650 ;E:\Dropbox\FAUSTO\SVILUPPI\MSX\CODE\C\MSXgl\projects\soccerlgMSX2/soccerlg_s19_b3.c:31: if (dy == 0 && dx < 0) return (step==0) ? SPR_GK_PLAYER_WEST_DIRECTION_1 : (step==1) ? SPR_GK_PLAYER_WEST_DIRECTION_2 : SPR_GK_PLAYER_WEST_DIRECTION_3;
    0000025F DD 7E 04         [19]  651 	ld	a, 4 (ix)
    00000262 B7               [ 4]  652 	or	a, a
    00000263 20 22            [12]  653 	jr	NZ, 00137$
    00000265 CB 79            [ 8]  654 	bit	7, c
    00000267 28 1E            [12]  655 	jr	Z, 00137$
    00000269 DD 7E 05         [19]  656 	ld	a, 5 (ix)
    0000026C B7               [ 4]  657 	or	a, a
    0000026D 20 06            [12]  658 	jr	NZ, 00284$
    0000026F 11 E8 00         [10]  659 	ld	de, #0x00e8
    00000272 C3rBBr06         [10]  660 	jp	00221$
    00000275                        661 00284$:
    00000275 DD 7E 05         [19]  662 	ld	a, 5 (ix)
    00000278 3D               [ 4]  663 	dec	a
    00000279 20 06            [12]  664 	jr	NZ, 00286$
    0000027B 11 E9 00         [10]  665 	ld	de, #0x00e9
    0000027E C3rBBr06         [10]  666 	jp	00221$
    00000281                        667 00286$:
    00000281 11 EA 00         [10]  668 	ld	de, #0x00ea
    00000284 C3rBBr06         [10]  669 	jp	00221$
    00000287                        670 00137$:
                                    671 ;E:\Dropbox\FAUSTO\SVILUPPI\MSX\CODE\C\MSXgl\projects\soccerlgMSX2/soccerlg_s19_b3.c:32: if (dy < 0 && dx > 0) return (step==0) ? SPR_GK_PLAYER_NORTH_EAST_DIRECTION_1 : (step==1) ? SPR_GK_PLAYER_NORTH_EAST_DIRECTION_2 : SPR_GK_PLAYER_NORTH_EAST_DIRECTION_3;
    00000287 DD 7E FE         [19]  672 	ld	a, -2 (ix)
    0000028A B7               [ 4]  673 	or	a, a
    0000028B 28 28            [12]  674 	jr	Z, 00140$
    0000028D AF               [ 4]  675 	xor	a, a
    0000028E 91               [ 4]  676 	sub	a, c
    0000028F E2r94r02         [10]  677 	jp	PO, 01209$
    00000292 EE 80            [ 7]  678 	xor	a, #0x80
    00000294                        679 01209$:
    00000294 F2rB5r02         [10]  680 	jp	P, 00140$
    00000297 DD 7E 05         [19]  681 	ld	a, 5 (ix)
    0000029A B7               [ 4]  682 	or	a, a
    0000029B 20 06            [12]  683 	jr	NZ, 00288$
    0000029D 11 DF 00         [10]  684 	ld	de, #0x00df
    000002A0 C3rBBr06         [10]  685 	jp	00221$
    000002A3                        686 00288$:
    000002A3 DD 7E 05         [19]  687 	ld	a, 5 (ix)
    000002A6 3D               [ 4]  688 	dec	a
    000002A7 20 06            [12]  689 	jr	NZ, 00290$
    000002A9 11 DE 00         [10]  690 	ld	de, #0x00de
    000002AC C3rBBr06         [10]  691 	jp	00221$
    000002AF                        692 00290$:
    000002AF 11 DD 00         [10]  693 	ld	de, #0x00dd
    000002B2 C3rBBr06         [10]  694 	jp	00221$
    000002B5                        695 00140$:
                                    696 ;E:\Dropbox\FAUSTO\SVILUPPI\MSX\CODE\C\MSXgl\projects\soccerlgMSX2/soccerlg_s19_b3.c:33: if (dy < 0 && dx < 0) return (step==0) ? SPR_GK_PLAYER_NORTH_WEST_DIRECTION_1 : (step==1) ? SPR_GK_PLAYER_NORTH_WEST_DIRECTION_2 : SPR_GK_PLAYER_NORTH_WEST_DIRECTION_3;
    000002B5 DD 7E FE         [19]  697 	ld	a, -2 (ix)
    000002B8 B7               [ 4]  698 	or	a, a
    000002B9 28 22            [12]  699 	jr	Z, 00143$
    000002BB CB 79            [ 8]  700 	bit	7, c
    000002BD 28 1E            [12]  701 	jr	Z, 00143$
    000002BF DD 7E 05         [19]  702 	ld	a, 5 (ix)
    000002C2 B7               [ 4]  703 	or	a, a
    000002C3 20 06            [12]  704 	jr	NZ, 00292$
    000002C5 11 E0 00         [10]  705 	ld	de, #0x00e0
    000002C8 C3rBBr06         [10]  706 	jp	00221$
    000002CB                        707 00292$:
    000002CB DD 7E 05         [19]  708 	ld	a, 5 (ix)
    000002CE 3D               [ 4]  709 	dec	a
    000002CF 20 06            [12]  710 	jr	NZ, 00294$
    000002D1 11 E1 00         [10]  711 	ld	de, #0x00e1
    000002D4 C3rBBr06         [10]  712 	jp	00221$
    000002D7                        713 00294$:
    000002D7 11 E2 00         [10]  714 	ld	de, #0x00e2
    000002DA C3rBBr06         [10]  715 	jp	00221$
    000002DD                        716 00143$:
                                    717 ;E:\Dropbox\FAUSTO\SVILUPPI\MSX\CODE\C\MSXgl\projects\soccerlgMSX2/soccerlg_s19_b3.c:34: if (dy > 0 && dx > 0) return (step==0) ? SPR_GK_PLAYER_SOUTH_EAST_DIRECTION_1 : (step==1) ? SPR_GK_PLAYER_SOUTH_EAST_DIRECTION_2 : SPR_GK_PLAYER_SOUTH_EAST_DIRECTION_3;
    000002DD 78               [ 4]  718 	ld	a, b
    000002DE B7               [ 4]  719 	or	a, a
    000002DF 28 28            [12]  720 	jr	Z, 00146$
    000002E1 AF               [ 4]  721 	xor	a, a
    000002E2 91               [ 4]  722 	sub	a, c
    000002E3 E2rE8r02         [10]  723 	jp	PO, 01214$
    000002E6 EE 80            [ 7]  724 	xor	a, #0x80
    000002E8                        725 01214$:
    000002E8 F2r09r03         [10]  726 	jp	P, 00146$
    000002EB DD 7E 05         [19]  727 	ld	a, 5 (ix)
    000002EE B7               [ 4]  728 	or	a, a
    000002EF 20 06            [12]  729 	jr	NZ, 00296$
    000002F1 11 DC 00         [10]  730 	ld	de, #0x00dc
    000002F4 C3rBBr06         [10]  731 	jp	00221$
    000002F7                        732 00296$:
    000002F7 DD 7E 05         [19]  733 	ld	a, 5 (ix)
    000002FA 3D               [ 4]  734 	dec	a
    000002FB 20 06            [12]  735 	jr	NZ, 00298$
    000002FD 11 DB 00         [10]  736 	ld	de, #0x00db
    00000300 C3rBBr06         [10]  737 	jp	00221$
    00000303                        738 00298$:
    00000303 11 DA 00         [10]  739 	ld	de, #0x00da
    00000306 C3rBBr06         [10]  740 	jp	00221$
    00000309                        741 00146$:
                                    742 ;E:\Dropbox\FAUSTO\SVILUPPI\MSX\CODE\C\MSXgl\projects\soccerlgMSX2/soccerlg_s19_b3.c:35: if (dy > 0 && dx < 0) return (step==0) ? SPR_GK_PLAYER_SOUTH_WEST_DIRECTION_1 : (step==1) ? SPR_GK_PLAYER_SOUTH_WEST_DIRECTION_2 : SPR_GK_PLAYER_SOUTH_WEST_DIRECTION_3;
    00000309 78               [ 4]  743 	ld	a, b
    0000030A B7               [ 4]  744 	or	a, a
    0000030B 28 22            [12]  745 	jr	Z, 00149$
    0000030D CB 79            [ 8]  746 	bit	7, c
    0000030F 28 1E            [12]  747 	jr	Z, 00149$
    00000311 DD 7E 05         [19]  748 	ld	a, 5 (ix)
    00000314 B7               [ 4]  749 	or	a, a
    00000315 20 06            [12]  750 	jr	NZ, 00300$
    00000317 11 D7 00         [10]  751 	ld	de, #0x00d7
    0000031A C3rBBr06         [10]  752 	jp	00221$
    0000031D                        753 00300$:
    0000031D DD 7E 05         [19]  754 	ld	a, 5 (ix)
    00000320 3D               [ 4]  755 	dec	a
    00000321 20 06            [12]  756 	jr	NZ, 00302$
    00000323 11 D8 00         [10]  757 	ld	de, #0x00d8
    00000326 C3rBBr06         [10]  758 	jp	00221$
    00000329                        759 00302$:
    00000329 11 D9 00         [10]  760 	ld	de, #0x00d9
    0000032C C3rBBr06         [10]  761 	jp	00221$
    0000032F                        762 00149$:
                                    763 ;E:\Dropbox\FAUSTO\SVILUPPI\MSX\CODE\C\MSXgl\projects\soccerlgMSX2/soccerlg_s19_b3.c:36: return SPR_GK_PLAYER_FACE_TO_SOUTH;
    0000032F 11 D5 00         [10]  764 	ld	de, #0x00d5
    00000332 C3rBBr06         [10]  765 	jp	00221$
    00000335                        766 00219$:
                                    767 ;E:\Dropbox\FAUSTO\SVILUPPI\MSX\CODE\C\MSXgl\projects\soccerlgMSX2/soccerlg_s19_b3.c:38: else if (team == 1) {
    00000335 DD 7E FD         [19]  768 	ld	a, -3 (ix)
    00000338 3D               [ 4]  769 	dec	a
    00000339 C2rFBr04         [10]  770 	jp	NZ,00216$
                                    771 ;E:\Dropbox\FAUSTO\SVILUPPI\MSX\CODE\C\MSXgl\projects\soccerlgMSX2/soccerlg_s19_b3.c:39: if (is_celebrating && dy < 0 && dx == 0) return (step==0) ? SPR_T1_PLAYER_HAPPY_TO_NORTH_1 : (step==1) ? SPR_T1_PLAYER_HAPPY_TO_NORTH_2 : SPR_T1_PLAYER_HAPPY_TO_NORTH_3;
    0000033C DD 7E FE         [19]  772 	ld	a, -2 (ix)
    0000033F B7               [ 4]  773 	or	a, a
    00000340 28 28            [12]  774 	jr	Z, 00152$
    00000342 DD CB 04 7E      [20]  775 	bit	7, 4 (ix)
    00000346 28 22            [12]  776 	jr	Z, 00152$
    00000348 79               [ 4]  777 	ld	a, c
    00000349 B7               [ 4]  778 	or	a, a
    0000034A 20 1E            [12]  779 	jr	NZ, 00152$
    0000034C DD 7E 05         [19]  780 	ld	a, 5 (ix)
    0000034F B7               [ 4]  781 	or	a, a
    00000350 20 06            [12]  782 	jr	NZ, 00304$
    00000352 11 5C 00         [10]  783 	ld	de, #0x005c
    00000355 C3rBBr06         [10]  784 	jp	00221$
    00000358                        785 00304$:
    00000358 DD 7E 05         [19]  786 	ld	a, 5 (ix)
    0000035B 3D               [ 4]  787 	dec	a
    0000035C 20 06            [12]  788 	jr	NZ, 00306$
    0000035E 11 5D 00         [10]  789 	ld	de, #0x005d
    00000361 C3rBBr06         [10]  790 	jp	00221$
    00000364                        791 00306$:
    00000364 11 5E 00         [10]  792 	ld	de, #0x005e
    00000367 C3rBBr06         [10]  793 	jp	00221$
    0000036A                        794 00152$:
                                    795 ;E:\Dropbox\FAUSTO\SVILUPPI\MSX\CODE\C\MSXgl\projects\soccerlgMSX2/soccerlg_s19_b3.c:40: if (is_celebrating && dy > 0 && dx == 0) return (step==0) ? SPR_T1_PLAYER_HAPPY_TO_SOUTH_1 : (step==1) ? SPR_T1_PLAYER_HAPPY_TO_SOUTH_2 : SPR_T1_PLAYER_HAPPY_TO_SOUTH_3;
    0000036A DD 7E FE         [19]  796 	ld	a, -2 (ix)
    0000036D B7               [ 4]  797 	or	a, a
    0000036E 28 2E            [12]  798 	jr	Z, 00156$
    00000370 AF               [ 4]  799 	xor	a, a
    00000371 DD 96 04         [19]  800 	sub	a, 4 (ix)
    00000374 E2r79r03         [10]  801 	jp	PO, 01223$
    00000377 EE 80            [ 7]  802 	xor	a, #0x80
    00000379                        803 01223$:
    00000379 F2r9Er03         [10]  804 	jp	P, 00156$
    0000037C 79               [ 4]  805 	ld	a, c
    0000037D B7               [ 4]  806 	or	a, a
    0000037E 20 1E            [12]  807 	jr	NZ, 00156$
    00000380 DD 7E 05         [19]  808 	ld	a, 5 (ix)
    00000383 B7               [ 4]  809 	or	a, a
    00000384 20 06            [12]  810 	jr	NZ, 00308$
    00000386 11 2E 00         [10]  811 	ld	de, #0x002e
    00000389 C3rBBr06         [10]  812 	jp	00221$
    0000038C                        813 00308$:
    0000038C DD 7E 05         [19]  814 	ld	a, 5 (ix)
    0000038F 3D               [ 4]  815 	dec	a
    00000390 20 06            [12]  816 	jr	NZ, 00310$
    00000392 11 2D 00         [10]  817 	ld	de, #0x002d
    00000395 C3rBBr06         [10]  818 	jp	00221$
    00000398                        819 00310$:
    00000398 11 2C 00         [10]  820 	ld	de, #0x002c
    0000039B C3rBBr06         [10]  821 	jp	00221$
    0000039E                        822 00156$:
                                    823 ;E:\Dropbox\FAUSTO\SVILUPPI\MSX\CODE\C\MSXgl\projects\soccerlgMSX2/soccerlg_s19_b3.c:42: if (dy < 0 && dx == 0) return (step==0) ? SPR_T1_PLAYER_NORTH_DIRECTION_1 : (step==1) ? SPR_T1_PLAYER_NORTH_DIRECTION_2 : SPR_T1_PLAYER_NORTH_DIRECTION_3;
    0000039E DD 7E 04         [19]  824 	ld	a, 4 (ix)
    000003A1 07               [ 4]  825 	rlca
    000003A2 E6 01            [ 7]  826 	and	a,#0x01
    000003A4 47               [ 4]  827 	ld	b, a
    000003A5 B7               [ 4]  828 	or	a, a
    000003A6 28 22            [12]  829 	jr	Z, 00160$
    000003A8 79               [ 4]  830 	ld	a, c
    000003A9 B7               [ 4]  831 	or	a, a
    000003AA 20 1E            [12]  832 	jr	NZ, 00160$
    000003AC DD 7E 05         [19]  833 	ld	a, 5 (ix)
    000003AF B7               [ 4]  834 	or	a, a
    000003B0 20 06            [12]  835 	jr	NZ, 00312$
    000003B2 11 13 00         [10]  836 	ld	de, #0x0013
    000003B5 C3rBBr06         [10]  837 	jp	00221$
    000003B8                        838 00312$:
    000003B8 DD 7E 05         [19]  839 	ld	a, 5 (ix)
    000003BB 3D               [ 4]  840 	dec	a
    000003BC 20 06            [12]  841 	jr	NZ, 00314$
    000003BE 11 14 00         [10]  842 	ld	de, #0x0014
    000003C1 C3rBBr06         [10]  843 	jp	00221$
    000003C4                        844 00314$:
    000003C4 11 15 00         [10]  845 	ld	de, #0x0015
    000003C7 C3rBBr06         [10]  846 	jp	00221$
    000003CA                        847 00160$:
                                    848 ;E:\Dropbox\FAUSTO\SVILUPPI\MSX\CODE\C\MSXgl\projects\soccerlgMSX2/soccerlg_s19_b3.c:43: if (dy > 0 && dx == 0) return (step==0) ? SPR_T1_PLAYER_SOUTH_DIRECTION_1 : (step==1) ? SPR_T1_PLAYER_SOUTH_DIRECTION_2 : SPR_T1_PLAYER_SOUTH_DIRECTION_3;
    000003CA AF               [ 4]  849 	xor	a, a
    000003CB DD 96 04         [19]  850 	sub	a, 4 (ix)
    000003CE E2rD3r03         [10]  851 	jp	PO, 01228$
    000003D1 EE 80            [ 7]  852 	xor	a, #0x80
    000003D3                        853 01228$:
    000003D3 07               [ 4]  854 	rlca
    000003D4 E6 01            [ 7]  855 	and	a,#0x01
    000003D6 5F               [ 4]  856 	ld	e, a
    000003D7 B7               [ 4]  857 	or	a, a
    000003D8 28 22            [12]  858 	jr	Z, 00163$
    000003DA 79               [ 4]  859 	ld	a, c
    000003DB B7               [ 4]  860 	or	a, a
    000003DC 20 1E            [12]  861 	jr	NZ, 00163$
    000003DE DD 7E 05         [19]  862 	ld	a, 5 (ix)
    000003E1 B7               [ 4]  863 	or	a, a
    000003E2 20 06            [12]  864 	jr	NZ, 00316$
    000003E4 11 00 00         [10]  865 	ld	de, #0x0000
    000003E7 C3rBBr06         [10]  866 	jp	00221$
    000003EA                        867 00316$:
    000003EA DD 7E 05         [19]  868 	ld	a, 5 (ix)
    000003ED 3D               [ 4]  869 	dec	a
    000003EE 20 06            [12]  870 	jr	NZ, 00318$
    000003F0 11 01 00         [10]  871 	ld	de, #0x0001
    000003F3 C3rBBr06         [10]  872 	jp	00221$
    000003F6                        873 00318$:
    000003F6 11 02 00         [10]  874 	ld	de, #0x0002
    000003F9 C3rBBr06         [10]  875 	jp	00221$
    000003FC                        876 00163$:
                                    877 ;E:\Dropbox\FAUSTO\SVILUPPI\MSX\CODE\C\MSXgl\projects\soccerlgMSX2/soccerlg_s19_b3.c:44: if (dy == 0 && dx > 0) return (step==0) ? SPR_T1_PLAYER_EAST_DIRECTION_1 : (step==1) ? SPR_T1_PLAYER_EAST_DIRECTION_2 : SPR_T1_PLAYER_EAST_DIRECTION_3;
    000003FC DD 7E 04         [19]  878 	ld	a, 4 (ix)
    000003FF B7               [ 4]  879 	or	a,a
    00000400 20 27            [12]  880 	jr	NZ, 00166$
    00000402 91               [ 4]  881 	sub	a, c
    00000403 E2r08r04         [10]  882 	jp	PO, 01231$
    00000406 EE 80            [ 7]  883 	xor	a, #0x80
    00000408                        884 01231$:
    00000408 F2r29r04         [10]  885 	jp	P, 00166$
    0000040B DD 7E 05         [19]  886 	ld	a, 5 (ix)
    0000040E B7               [ 4]  887 	or	a, a
    0000040F 20 06            [12]  888 	jr	NZ, 00320$
    00000411 11 1D 00         [10]  889 	ld	de, #0x001d
    00000414 C3rBBr06         [10]  890 	jp	00221$
    00000417                        891 00320$:
    00000417 DD 7E 05         [19]  892 	ld	a, 5 (ix)
    0000041A 3D               [ 4]  893 	dec	a
    0000041B 20 06            [12]  894 	jr	NZ, 00322$
    0000041D 11 1C 00         [10]  895 	ld	de, #0x001c
    00000420 C3rBBr06         [10]  896 	jp	00221$
    00000423                        897 00322$:
    00000423 11 1B 00         [10]  898 	ld	de, #0x001b
    00000426 C3rBBr06         [10]  899 	jp	00221$
    00000429                        900 00166$:
                                    901 ;E:\Dropbox\FAUSTO\SVILUPPI\MSX\CODE\C\MSXgl\projects\soccerlgMSX2/soccerlg_s19_b3.c:45: if (dy == 0 && dx < 0) return (step==0) ? SPR_T1_PLAYER_WEST_DIRECTION_1 : (step==1) ? SPR_T1_PLAYER_WEST_DIRECTION_2 : SPR_T1_PLAYER_WEST_DIRECTION_3;
    00000429 DD 7E 04         [19]  902 	ld	a, 4 (ix)
    0000042C B7               [ 4]  903 	or	a, a
    0000042D 20 22            [12]  904 	jr	NZ, 00169$
    0000042F CB 79            [ 8]  905 	bit	7, c
    00000431 28 1E            [12]  906 	jr	Z, 00169$
    00000433 DD 7E 05         [19]  907 	ld	a, 5 (ix)
    00000436 B7               [ 4]  908 	or	a, a
    00000437 20 06            [12]  909 	jr	NZ, 00324$
    00000439 11 18 00         [10]  910 	ld	de, #0x0018
    0000043C C3rBBr06         [10]  911 	jp	00221$
    0000043F                        912 00324$:
    0000043F DD 7E 05         [19]  913 	ld	a, 5 (ix)
    00000442 3D               [ 4]  914 	dec	a
    00000443 20 06            [12]  915 	jr	NZ, 00326$
    00000445 11 19 00         [10]  916 	ld	de, #0x0019
    00000448 C3rBBr06         [10]  917 	jp	00221$
    0000044B                        918 00326$:
    0000044B 11 1A 00         [10]  919 	ld	de, #0x001a
    0000044E C3rBBr06         [10]  920 	jp	00221$
    00000451                        921 00169$:
                                    922 ;E:\Dropbox\FAUSTO\SVILUPPI\MSX\CODE\C\MSXgl\projects\soccerlgMSX2/soccerlg_s19_b3.c:46: if (dy < 0 && dx > 0) return (step==0) ? SPR_T1_PLAYER_NORTH_EAST_DIRECTION_1 : (step==1) ? SPR_T1_PLAYER_NORTH_EAST_DIRECTION_2 : SPR_T1_PLAYER_NORTH_EAST_DIRECTION_3;
    00000451 78               [ 4]  923 	ld	a, b
    00000452 B7               [ 4]  924 	or	a, a
    00000453 28 28            [12]  925 	jr	Z, 00172$
    00000455 AF               [ 4]  926 	xor	a, a
    00000456 91               [ 4]  927 	sub	a, c
    00000457 E2r5Cr04         [10]  928 	jp	PO, 01236$
    0000045A EE 80            [ 7]  929 	xor	a, #0x80
    0000045C                        930 01236$:
    0000045C F2r7Dr04         [10]  931 	jp	P, 00172$
    0000045F DD 7E 05         [19]  932 	ld	a, 5 (ix)
    00000462 B7               [ 4]  933 	or	a, a
    00000463 20 06            [12]  934 	jr	NZ, 00328$
    00000465 11 0F 00         [10]  935 	ld	de, #0x000f
    00000468 C3rBBr06         [10]  936 	jp	00221$
    0000046B                        937 00328$:
    0000046B DD 7E 05         [19]  938 	ld	a, 5 (ix)
    0000046E 3D               [ 4]  939 	dec	a
    0000046F 20 06            [12]  940 	jr	NZ, 00330$
    00000471 11 0E 00         [10]  941 	ld	de, #0x000e
    00000474 C3rBBr06         [10]  942 	jp	00221$
    00000477                        943 00330$:
    00000477 11 0D 00         [10]  944 	ld	de, #0x000d
    0000047A C3rBBr06         [10]  945 	jp	00221$
    0000047D                        946 00172$:
                                    947 ;E:\Dropbox\FAUSTO\SVILUPPI\MSX\CODE\C\MSXgl\projects\soccerlgMSX2/soccerlg_s19_b3.c:47: if (dy < 0 && dx < 0) return (step==0) ? SPR_T1_PLAYER_NORTH_WEST_DIRECTION_1 : (step==1) ? SPR_T1_PLAYER_NORTH_WEST_DIRECTION_2 : SPR_T1_PLAYER_NORTH_WEST_DIRECTION_3;
    0000047D 78               [ 4]  948 	ld	a, b
    0000047E B7               [ 4]  949 	or	a, a
    0000047F 28 22            [12]  950 	jr	Z, 00175$
    00000481 CB 79            [ 8]  951 	bit	7, c
    00000483 28 1E            [12]  952 	jr	Z, 00175$
    00000485 DD 7E 05         [19]  953 	ld	a, 5 (ix)
    00000488 B7               [ 4]  954 	or	a, a
    00000489 20 06            [12]  955 	jr	NZ, 00332$
    0000048B 11 10 00         [10]  956 	ld	de, #0x0010
    0000048E C3rBBr06         [10]  957 	jp	00221$
    00000491                        958 00332$:
    00000491 DD 7E 05         [19]  959 	ld	a, 5 (ix)
    00000494 3D               [ 4]  960 	dec	a
    00000495 20 06            [12]  961 	jr	NZ, 00334$
    00000497 11 11 00         [10]  962 	ld	de, #0x0011
    0000049A C3rBBr06         [10]  963 	jp	00221$
    0000049D                        964 00334$:
    0000049D 11 12 00         [10]  965 	ld	de, #0x0012
    000004A0 C3rBBr06         [10]  966 	jp	00221$
    000004A3                        967 00175$:
                                    968 ;E:\Dropbox\FAUSTO\SVILUPPI\MSX\CODE\C\MSXgl\projects\soccerlgMSX2/soccerlg_s19_b3.c:48: if (dy > 0 && dx > 0) return (step==0) ? SPR_T1_PLAYER_SOUTH_EAST_DIRECTION_1 : (step==1) ? SPR_T1_PLAYER_SOUTH_EAST_DIRECTION_2 : SPR_T1_PLAYER_SOUTH_EAST_DIRECTION_3;
    000004A3 7B               [ 4]  969 	ld	a, e
    000004A4 B7               [ 4]  970 	or	a, a
    000004A5 28 28            [12]  971 	jr	Z, 00178$
    000004A7 AF               [ 4]  972 	xor	a, a
    000004A8 91               [ 4]  973 	sub	a, c
    000004A9 E2rAEr04         [10]  974 	jp	PO, 01241$
    000004AC EE 80            [ 7]  975 	xor	a, #0x80
    000004AE                        976 01241$:
    000004AE F2rCFr04         [10]  977 	jp	P, 00178$
    000004B1 DD 7E 05         [19]  978 	ld	a, 5 (ix)
    000004B4 B7               [ 4]  979 	or	a, a
    000004B5 20 06            [12]  980 	jr	NZ, 00336$
    000004B7 11 0A 00         [10]  981 	ld	de, #0x000a
    000004BA C3rBBr06         [10]  982 	jp	00221$
    000004BD                        983 00336$:
    000004BD DD 7E 05         [19]  984 	ld	a, 5 (ix)
    000004C0 3D               [ 4]  985 	dec	a
    000004C1 20 06            [12]  986 	jr	NZ, 00338$
    000004C3 11 0B 00         [10]  987 	ld	de, #0x000b
    000004C6 C3rBBr06         [10]  988 	jp	00221$
    000004C9                        989 00338$:
    000004C9 11 0C 00         [10]  990 	ld	de, #0x000c
    000004CC C3rBBr06         [10]  991 	jp	00221$
    000004CF                        992 00178$:
                                    993 ;E:\Dropbox\FAUSTO\SVILUPPI\MSX\CODE\C\MSXgl\projects\soccerlgMSX2/soccerlg_s19_b3.c:49: if (dy > 0 && dx < 0) return (step==0) ? SPR_T1_PLAYER_SOUTH_WEST_DIRECTION_1 : (step==1) ? SPR_T1_PLAYER_SOUTH_WEST_DIRECTION_2 : SPR_T1_PLAYER_SOUTH_WEST_DIRECTION_3;
    000004CF 7B               [ 4]  994 	ld	a, e
    000004D0 B7               [ 4]  995 	or	a, a
    000004D1 28 22            [12]  996 	jr	Z, 00181$
    000004D3 CB 79            [ 8]  997 	bit	7, c
    000004D5 28 1E            [12]  998 	jr	Z, 00181$
    000004D7 DD 7E 05         [19]  999 	ld	a, 5 (ix)
    000004DA B7               [ 4] 1000 	or	a, a
    000004DB 20 06            [12] 1001 	jr	NZ, 00340$
    000004DD 11 09 00         [10] 1002 	ld	de, #0x0009
    000004E0 C3rBBr06         [10] 1003 	jp	00221$
    000004E3                       1004 00340$:
    000004E3 DD 7E 05         [19] 1005 	ld	a, 5 (ix)
    000004E6 3D               [ 4] 1006 	dec	a
    000004E7 20 06            [12] 1007 	jr	NZ, 00342$
    000004E9 11 08 00         [10] 1008 	ld	de, #0x0008
    000004EC C3rBBr06         [10] 1009 	jp	00221$
    000004EF                       1010 00342$:
    000004EF 11 07 00         [10] 1011 	ld	de, #0x0007
    000004F2 C3rBBr06         [10] 1012 	jp	00221$
    000004F5                       1013 00181$:
                                   1014 ;E:\Dropbox\FAUSTO\SVILUPPI\MSX\CODE\C\MSXgl\projects\soccerlgMSX2/soccerlg_s19_b3.c:50: return SPR_T1_PLAYER_FACE_TO_SOUTH;
    000004F5 11 01 00         [10] 1015 	ld	de, #0x0001
    000004F8 C3rBBr06         [10] 1016 	jp	00221$
    000004FB                       1017 00216$:
                                   1018 ;E:\Dropbox\FAUSTO\SVILUPPI\MSX\CODE\C\MSXgl\projects\soccerlgMSX2/soccerlg_s19_b3.c:53: if (is_celebrating && dy < 0 && dx == 0) return (step==0) ? SPR_T2_PLAYER_HAPPY_TO_NORTH_1 : (step==1) ? SPR_T2_PLAYER_HAPPY_TO_NORTH_2 : SPR_T2_PLAYER_HAPPY_TO_NORTH_3;
    000004FB DD 7E FE         [19] 1019 	ld	a, -2 (ix)
    000004FE B7               [ 4] 1020 	or	a, a
    000004FF 28 28            [12] 1021 	jr	Z, 00184$
    00000501 DD CB 04 7E      [20] 1022 	bit	7, 4 (ix)
    00000505 28 22            [12] 1023 	jr	Z, 00184$
    00000507 79               [ 4] 1024 	ld	a, c
    00000508 B7               [ 4] 1025 	or	a, a
    00000509 20 1E            [12] 1026 	jr	NZ, 00184$
    0000050B DD 7E 05         [19] 1027 	ld	a, 5 (ix)
    0000050E B7               [ 4] 1028 	or	a, a
    0000050F 20 06            [12] 1029 	jr	NZ, 00344$
    00000511 11 CC 00         [10] 1030 	ld	de, #0x00cc
    00000514 C3rBBr06         [10] 1031 	jp	00221$
    00000517                       1032 00344$:
    00000517 DD 7E 05         [19] 1033 	ld	a, 5 (ix)
    0000051A 3D               [ 4] 1034 	dec	a
    0000051B 20 06            [12] 1035 	jr	NZ, 00346$
    0000051D 11 CD 00         [10] 1036 	ld	de, #0x00cd
    00000520 C3rBBr06         [10] 1037 	jp	00221$
    00000523                       1038 00346$:
    00000523 11 CE 00         [10] 1039 	ld	de, #0x00ce
    00000526 C3rBBr06         [10] 1040 	jp	00221$
    00000529                       1041 00184$:
                                   1042 ;E:\Dropbox\FAUSTO\SVILUPPI\MSX\CODE\C\MSXgl\projects\soccerlgMSX2/soccerlg_s19_b3.c:54: if (is_celebrating && dy > 0 && dx == 0) return (step==0) ? SPR_T2_PLAYER_HAPPY_TO_SOUTH_1 : (step==1) ? SPR_T2_PLAYER_HAPPY_TO_SOUTH_2 : SPR_T2_PLAYER_HAPPY_TO_SOUTH_3;
    00000529 DD 7E FE         [19] 1043 	ld	a, -2 (ix)
    0000052C B7               [ 4] 1044 	or	a, a
    0000052D 28 2E            [12] 1045 	jr	Z, 00188$
    0000052F AF               [ 4] 1046 	xor	a, a
    00000530 DD 96 04         [19] 1047 	sub	a, 4 (ix)
    00000533 E2r38r05         [10] 1048 	jp	PO, 01248$
    00000536 EE 80            [ 7] 1049 	xor	a, #0x80
    00000538                       1050 01248$:
    00000538 F2r5Dr05         [10] 1051 	jp	P, 00188$
    0000053B 79               [ 4] 1052 	ld	a, c
    0000053C B7               [ 4] 1053 	or	a, a
    0000053D 20 1E            [12] 1054 	jr	NZ, 00188$
    0000053F DD 7E 05         [19] 1055 	ld	a, 5 (ix)
    00000542 B7               [ 4] 1056 	or	a, a
    00000543 20 06            [12] 1057 	jr	NZ, 00348$
    00000545 11 9C 00         [10] 1058 	ld	de, #0x009c
    00000548 C3rBBr06         [10] 1059 	jp	00221$
    0000054B                       1060 00348$:
    0000054B DD 7E 05         [19] 1061 	ld	a, 5 (ix)
    0000054E 3D               [ 4] 1062 	dec	a
    0000054F 20 06            [12] 1063 	jr	NZ, 00350$
    00000551 11 9D 00         [10] 1064 	ld	de, #0x009d
    00000554 C3rBBr06         [10] 1065 	jp	00221$
    00000557                       1066 00350$:
    00000557 11 9E 00         [10] 1067 	ld	de, #0x009e
    0000055A C3rBBr06         [10] 1068 	jp	00221$
    0000055D                       1069 00188$:
                                   1070 ;E:\Dropbox\FAUSTO\SVILUPPI\MSX\CODE\C\MSXgl\projects\soccerlgMSX2/soccerlg_s19_b3.c:56: if (dy < 0 && dx == 0) return (step==0) ? SPR_T2_PLAYER_NORTH_DIRECTION_1 : (step==1) ? SPR_T2_PLAYER_NORTH_DIRECTION_2 : SPR_T2_PLAYER_NORTH_DIRECTION_3;
    0000055D DD 7E 04         [19] 1071 	ld	a, 4 (ix)
    00000560 07               [ 4] 1072 	rlca
    00000561 E6 01            [ 7] 1073 	and	a,#0x01
    00000563 47               [ 4] 1074 	ld	b, a
    00000564 B7               [ 4] 1075 	or	a, a
    00000565 28 22            [12] 1076 	jr	Z, 00192$
    00000567 79               [ 4] 1077 	ld	a, c
    00000568 B7               [ 4] 1078 	or	a, a
    00000569 20 1E            [12] 1079 	jr	NZ, 00192$
    0000056B DD 7E 05         [19] 1080 	ld	a, 5 (ix)
    0000056E B7               [ 4] 1081 	or	a, a
    0000056F 20 06            [12] 1082 	jr	NZ, 00352$
    00000571 11 83 00         [10] 1083 	ld	de, #0x0083
    00000574 C3rBBr06         [10] 1084 	jp	00221$
    00000577                       1085 00352$:
    00000577 DD 7E 05         [19] 1086 	ld	a, 5 (ix)
    0000057A 3D               [ 4] 1087 	dec	a
    0000057B 20 06            [12] 1088 	jr	NZ, 00354$
    0000057D 11 84 00         [10] 1089 	ld	de, #0x0084
    00000580 C3rBBr06         [10] 1090 	jp	00221$
    00000583                       1091 00354$:
    00000583 11 85 00         [10] 1092 	ld	de, #0x0085
    00000586 C3rBBr06         [10] 1093 	jp	00221$
    00000589                       1094 00192$:
                                   1095 ;E:\Dropbox\FAUSTO\SVILUPPI\MSX\CODE\C\MSXgl\projects\soccerlgMSX2/soccerlg_s19_b3.c:57: if (dy > 0 && dx == 0) return (step==0) ? SPR_T2_PLAYER_SOUTH_DIRECTION_1 : (step==1) ? SPR_T2_PLAYER_SOUTH_DIRECTION_2 : SPR_T2_PLAYER_SOUTH_DIRECTION_3;
    00000589 AF               [ 4] 1096 	xor	a, a
    0000058A DD 96 04         [19] 1097 	sub	a, 4 (ix)
    0000058D E2r92r05         [10] 1098 	jp	PO, 01253$
    00000590 EE 80            [ 7] 1099 	xor	a, #0x80
    00000592                       1100 01253$:
    00000592 07               [ 4] 1101 	rlca
    00000593 E6 01            [ 7] 1102 	and	a,#0x01
    00000595 5F               [ 4] 1103 	ld	e, a
    00000596 B7               [ 4] 1104 	or	a, a
    00000597 28 22            [12] 1105 	jr	Z, 00195$
    00000599 79               [ 4] 1106 	ld	a, c
    0000059A B7               [ 4] 1107 	or	a, a
    0000059B 20 1E            [12] 1108 	jr	NZ, 00195$
    0000059D DD 7E 05         [19] 1109 	ld	a, 5 (ix)
    000005A0 B7               [ 4] 1110 	or	a, a
    000005A1 20 06            [12] 1111 	jr	NZ, 00356$
    000005A3 11 70 00         [10] 1112 	ld	de, #0x0070
    000005A6 C3rBBr06         [10] 1113 	jp	00221$
    000005A9                       1114 00356$:
    000005A9 DD 7E 05         [19] 1115 	ld	a, 5 (ix)
    000005AC 3D               [ 4] 1116 	dec	a
    000005AD 20 06            [12] 1117 	jr	NZ, 00358$
    000005AF 11 71 00         [10] 1118 	ld	de, #0x0071
    000005B2 C3rBBr06         [10] 1119 	jp	00221$
    000005B5                       1120 00358$:
    000005B5 11 72 00         [10] 1121 	ld	de, #0x0072
    000005B8 C3rBBr06         [10] 1122 	jp	00221$
    000005BB                       1123 00195$:
                                   1124 ;E:\Dropbox\FAUSTO\SVILUPPI\MSX\CODE\C\MSXgl\projects\soccerlgMSX2/soccerlg_s19_b3.c:58: if (dy == 0 && dx > 0) return (step==0) ? SPR_T2_PLAYER_EAST_DIRECTION_1 : (step==1) ? SPR_T2_PLAYER_EAST_DIRECTION_2 : SPR_T2_PLAYER_EAST_DIRECTION_3;
    000005BB DD 7E 04         [19] 1125 	ld	a, 4 (ix)
    000005BE B7               [ 4] 1126 	or	a,a
    000005BF 20 27            [12] 1127 	jr	NZ, 00198$
    000005C1 91               [ 4] 1128 	sub	a, c
    000005C2 E2rC7r05         [10] 1129 	jp	PO, 01256$
    000005C5 EE 80            [ 7] 1130 	xor	a, #0x80
    000005C7                       1131 01256$:
    000005C7 F2rE8r05         [10] 1132 	jp	P, 00198$
    000005CA DD 7E 05         [19] 1133 	ld	a, 5 (ix)
    000005CD B7               [ 4] 1134 	or	a, a
    000005CE 20 06            [12] 1135 	jr	NZ, 00360$
    000005D0 11 8D 00         [10] 1136 	ld	de, #0x008d
    000005D3 C3rBBr06         [10] 1137 	jp	00221$
    000005D6                       1138 00360$:
    000005D6 DD 7E 05         [19] 1139 	ld	a, 5 (ix)
    000005D9 3D               [ 4] 1140 	dec	a
    000005DA 20 06            [12] 1141 	jr	NZ, 00362$
    000005DC 11 8C 00         [10] 1142 	ld	de, #0x008c
    000005DF C3rBBr06         [10] 1143 	jp	00221$
    000005E2                       1144 00362$:
    000005E2 11 8B 00         [10] 1145 	ld	de, #0x008b
    000005E5 C3rBBr06         [10] 1146 	jp	00221$
    000005E8                       1147 00198$:
                                   1148 ;E:\Dropbox\FAUSTO\SVILUPPI\MSX\CODE\C\MSXgl\projects\soccerlgMSX2/soccerlg_s19_b3.c:59: if (dy == 0 && dx < 0) return (step==0) ? SPR_T2_PLAYER_WEST_DIRECTION_1 : (step==1) ? SPR_T2_PLAYER_WEST_DIRECTION_2 : SPR_T2_PLAYER_WEST_DIRECTION_3;
    000005E8 DD 7E 04         [19] 1149 	ld	a, 4 (ix)
    000005EB B7               [ 4] 1150 	or	a, a
    000005EC 20 22            [12] 1151 	jr	NZ, 00201$
    000005EE CB 79            [ 8] 1152 	bit	7, c
    000005F0 28 1E            [12] 1153 	jr	Z, 00201$
    000005F2 DD 7E 05         [19] 1154 	ld	a, 5 (ix)
    000005F5 B7               [ 4] 1155 	or	a, a
    000005F6 20 06            [12] 1156 	jr	NZ, 00364$
    000005F8 11 88 00         [10] 1157 	ld	de, #0x0088
    000005FB C3rBBr06         [10] 1158 	jp	00221$
    000005FE                       1159 00364$:
    000005FE DD 7E 05         [19] 1160 	ld	a, 5 (ix)
    00000601 3D               [ 4] 1161 	dec	a
    00000602 20 06            [12] 1162 	jr	NZ, 00366$
    00000604 11 89 00         [10] 1163 	ld	de, #0x0089
    00000607 C3rBBr06         [10] 1164 	jp	00221$
    0000060A                       1165 00366$:
    0000060A 11 8A 00         [10] 1166 	ld	de, #0x008a
    0000060D C3rBBr06         [10] 1167 	jp	00221$
    00000610                       1168 00201$:
                                   1169 ;E:\Dropbox\FAUSTO\SVILUPPI\MSX\CODE\C\MSXgl\projects\soccerlgMSX2/soccerlg_s19_b3.c:60: if (dy < 0 && dx > 0) return (step==0) ? SPR_T2_PLAYER_NORTH_EAST_DIRECTION_1 : (step==1) ? SPR_T2_PLAYER_NORTH_EAST_DIRECTION_2 : SPR_T2_PLAYER_NORTH_EAST_DIRECTION_3;
    00000610 78               [ 4] 1170 	ld	a, b
    00000611 B7               [ 4] 1171 	or	a, a
    00000612 28 28            [12] 1172 	jr	Z, 00204$
    00000614 AF               [ 4] 1173 	xor	a, a
    00000615 91               [ 4] 1174 	sub	a, c
    00000616 E2r1Br06         [10] 1175 	jp	PO, 01261$
    00000619 EE 80            [ 7] 1176 	xor	a, #0x80
    0000061B                       1177 01261$:
    0000061B F2r3Cr06         [10] 1178 	jp	P, 00204$
    0000061E DD 7E 05         [19] 1179 	ld	a, 5 (ix)
    00000621 B7               [ 4] 1180 	or	a, a
    00000622 20 06            [12] 1181 	jr	NZ, 00368$
    00000624 11 7F 00         [10] 1182 	ld	de, #0x007f
    00000627 C3rBBr06         [10] 1183 	jp	00221$
    0000062A                       1184 00368$:
    0000062A DD 7E 05         [19] 1185 	ld	a, 5 (ix)
    0000062D 3D               [ 4] 1186 	dec	a
    0000062E 20 06            [12] 1187 	jr	NZ, 00370$
    00000630 11 7E 00         [10] 1188 	ld	de, #0x007e
    00000633 C3rBBr06         [10] 1189 	jp	00221$
    00000636                       1190 00370$:
    00000636 11 7D 00         [10] 1191 	ld	de, #0x007d
    00000639 C3rBBr06         [10] 1192 	jp	00221$
    0000063C                       1193 00204$:
                                   1194 ;E:\Dropbox\FAUSTO\SVILUPPI\MSX\CODE\C\MSXgl\projects\soccerlgMSX2/soccerlg_s19_b3.c:61: if (dy < 0 && dx < 0) return (step==0) ? SPR_T2_PLAYER_NORTH_WEST_DIRECTION_1 : (step==1) ? SPR_T2_PLAYER_NORTH_WEST_DIRECTION_2 : SPR_T2_PLAYER_NORTH_WEST_DIRECTION_3;
    0000063C 78               [ 4] 1195 	ld	a, b
    0000063D B7               [ 4] 1196 	or	a, a
    0000063E 28 22            [12] 1197 	jr	Z, 00207$
    00000640 CB 79            [ 8] 1198 	bit	7, c
    00000642 28 1E            [12] 1199 	jr	Z, 00207$
    00000644 DD 7E 05         [19] 1200 	ld	a, 5 (ix)
    00000647 B7               [ 4] 1201 	or	a, a
    00000648 20 06            [12] 1202 	jr	NZ, 00372$
    0000064A 11 80 00         [10] 1203 	ld	de, #0x0080
    0000064D C3rBBr06         [10] 1204 	jp	00221$
    00000650                       1205 00372$:
    00000650 DD 7E 05         [19] 1206 	ld	a, 5 (ix)
    00000653 3D               [ 4] 1207 	dec	a
    00000654 20 06            [12] 1208 	jr	NZ, 00374$
    00000656 11 81 00         [10] 1209 	ld	de, #0x0081
    00000659 C3rBBr06         [10] 1210 	jp	00221$
    0000065C                       1211 00374$:
    0000065C 11 82 00         [10] 1212 	ld	de, #0x0082
    0000065F C3rBBr06         [10] 1213 	jp	00221$
    00000662                       1214 00207$:
                                   1215 ;E:\Dropbox\FAUSTO\SVILUPPI\MSX\CODE\C\MSXgl\projects\soccerlgMSX2/soccerlg_s19_b3.c:62: if (dy > 0 && dx > 0) return (step==0) ? SPR_T2_PLAYER_SOUTH_EAST_DIRECTION_1 : (step==1) ? SPR_T2_PLAYER_SOUTH_EAST_DIRECTION_2 : SPR_T2_PLAYER_SOUTH_EAST_DIRECTION_3;
    00000662 7B               [ 4] 1216 	ld	a, e
    00000663 B7               [ 4] 1217 	or	a, a
    00000664 28 2A            [12] 1218 	jr	Z, 00210$
    00000666 AF               [ 4] 1219 	xor	a, a
    00000667 91               [ 4] 1220 	sub	a, c
    00000668 E2r6Dr06         [10] 1221 	jp	PO, 01266$
    0000066B EE 80            [ 7] 1222 	xor	a, #0x80
    0000066D                       1223 01266$:
    0000066D F2r90r06         [10] 1224 	jp	P, 00210$
    00000670 DD 7E 05         [19] 1225 	ld	a, 5 (ix)
    00000673 B7               [ 4] 1226 	or	a, a
    00000674 20 06            [12] 1227 	jr	NZ, 00376$
    00000676 01 7C 00         [10] 1228 	ld	bc, #0x007c
    00000679 C3r8Br06         [10] 1229 	jp	00377$
    0000067C                       1230 00376$:
    0000067C DD 7E 05         [19] 1231 	ld	a, 5 (ix)
    0000067F 3D               [ 4] 1232 	dec	a
    00000680 20 06            [12] 1233 	jr	NZ, 00378$
    00000682 01 7B 00         [10] 1234 	ld	bc, #0x007b
    00000685 C3r8Br06         [10] 1235 	jp	00379$
    00000688                       1236 00378$:
    00000688 01 7A 00         [10] 1237 	ld	bc, #0x007a
    0000068B                       1238 00379$:
    0000068B                       1239 00377$:
    0000068B 59               [ 4] 1240 	ld	e, c
    0000068C 50               [ 4] 1241 	ld	d, b
    0000068D C3rBBr06         [10] 1242 	jp	00221$
    00000690                       1243 00210$:
                                   1244 ;E:\Dropbox\FAUSTO\SVILUPPI\MSX\CODE\C\MSXgl\projects\soccerlgMSX2/soccerlg_s19_b3.c:63: if (dy > 0 && dx < 0) return (step==0) ? SPR_T2_PLAYER_SOUTH_WEST_DIRECTION_1 : (step==1) ? SPR_T2_PLAYER_SOUTH_WEST_DIRECTION_2 : SPR_T2_PLAYER_SOUTH_WEST_DIRECTION_3;
    00000690 7B               [ 4] 1245 	ld	a, e
    00000691 B7               [ 4] 1246 	or	a, a
    00000692 28 24            [12] 1247 	jr	Z, 00213$
    00000694 CB 79            [ 8] 1248 	bit	7, c
    00000696 28 20            [12] 1249 	jr	Z, 00213$
    00000698 DD 7E 05         [19] 1250 	ld	a, 5 (ix)
    0000069B B7               [ 4] 1251 	or	a, a
    0000069C 20 06            [12] 1252 	jr	NZ, 00380$
    0000069E 01 77 00         [10] 1253 	ld	bc, #0x0077
    000006A1 C3rB3r06         [10] 1254 	jp	00381$
    000006A4                       1255 00380$:
    000006A4 DD 7E 05         [19] 1256 	ld	a, 5 (ix)
    000006A7 3D               [ 4] 1257 	dec	a
    000006A8 20 06            [12] 1258 	jr	NZ, 00382$
    000006AA 01 78 00         [10] 1259 	ld	bc, #0x0078
    000006AD C3rB3r06         [10] 1260 	jp	00383$
    000006B0                       1261 00382$:
    000006B0 01 79 00         [10] 1262 	ld	bc, #0x0079
    000006B3                       1263 00383$:
    000006B3                       1264 00381$:
    000006B3 59               [ 4] 1265 	ld	e, c
    000006B4 50               [ 4] 1266 	ld	d, b
    000006B5 C3rBBr06         [10] 1267 	jp	00221$
    000006B8                       1268 00213$:
                                   1269 ;E:\Dropbox\FAUSTO\SVILUPPI\MSX\CODE\C\MSXgl\projects\soccerlgMSX2/soccerlg_s19_b3.c:64: return SPR_T2_PLAYER_FACE_TO_NORTH;
    000006B8 11 83 00         [10] 1270 	ld	de, #0x0083
    000006BB                       1271 00221$:
                                   1272 ;E:\Dropbox\FAUSTO\SVILUPPI\MSX\CODE\C\MSXgl\projects\soccerlgMSX2/soccerlg_s19_b3.c:66: }
    000006BB DD F9            [10] 1273 	ld	sp, ix
    000006BD DD E1            [14] 1274 	pop	ix
    000006BF E1               [10] 1275 	pop	hl
    000006C0 F1               [10] 1276 	pop	af
    000006C1 E9               [ 4] 1277 	jp	(hl)
                         0000F380  1278 _g_RDPRIM	=	0xf380
                         0000F385  1279 _g_WRPRIM	=	0xf385
                         0000F38C  1280 _g_CLPRIM	=	0xf38c
                         0000F39A  1281 _g_USRTAB	=	0xf39a
                         0000F3DE  1282 _g_CNSDFG	=	0xf3de
                         0000F3DF  1283 _g_RG0SAV	=	0xf3df
                         0000F3E0  1284 _g_RG1SAV	=	0xf3e0
                         0000F3E1  1285 _g_RG2SAV	=	0xf3e1
                         0000F3E2  1286 _g_RG3SAV	=	0xf3e2
                         0000F3E3  1287 _g_RG4SAV	=	0xf3e3
                         0000F3E4  1288 _g_RG5SAV	=	0xf3e4
                         0000F3E5  1289 _g_RG6SAV	=	0xf3e5
                         0000F3E6  1290 _g_RG7SAV	=	0xf3e6
                         0000F3E7  1291 _g_STATFL	=	0xf3e7
                         0000F3E8  1292 _g_TRGFLG	=	0xf3e8
                         0000F3EC  1293 _g_MAXUPD	=	0xf3ec
                         0000F3EF  1294 _g_MINUPD	=	0xf3ef
                         0000F3F3  1295 _g_QUEUES	=	0xf3f3
                         0000F3F5  1296 _g_FRCNEW	=	0xf3f5
                         0000F3F6  1297 _g_SCNCNT	=	0xf3f6
                         0000F3F7  1298 _g_REPCNT	=	0xf3f7
                         0000F3F8  1299 _g_PUTPNT	=	0xf3f8
                         0000F3FA  1300 _g_GETPNT	=	0xf3fa
                         0000F3FC  1301 _g_CS120	=	0xf3fc
                         0000F401  1302 _g_CS240	=	0xf401
                         0000F406  1303 _g_LOW	=	0xf406
                         0000F408  1304 _g_HIGH	=	0xf408
                         0000F40A  1305 _g_HEADER	=	0xf40a
                         0000F40B  1306 _g_ASPCT1	=	0xf40b
                         0000F40D  1307 _g_ASPCT2	=	0xf40d
                         0000F959  1308 _g_QUETAB	=	0xf959
                         0000F971  1309 _g_QUEBAK	=	0xf971
                         0000F975  1310 _g_VOICAQ	=	0xf975
                         0000F9F5  1311 _g_VOICBQ	=	0xf9f5
                         0000FA75  1312 _g_VOICCQ	=	0xfa75
                         0000FAF5  1313 _g_RS2IQ	=	0xfaf5
                         0000FAF5  1314 _g_DPPAGE	=	0xfaf5
                         0000FAF6  1315 _g_ACPAGE	=	0xfaf6
                         0000FAF7  1316 _g_AVCSAV	=	0xfaf7
                         0000FAF8  1317 _g_EXBRSA	=	0xfaf8
                         0000FAF9  1318 _g_CHRCNT	=	0xfaf9
                         0000FAFA  1319 _g_ROMA	=	0xfafa
                         0000FAFC  1320 _g_MODE	=	0xfafc
                         0000FAFD  1321 _g_NORUSE	=	0xfafd
                         0000FAFE  1322 _g_XSAVE	=	0xfafe
                         0000FB00  1323 _g_YSAVE	=	0xfb00
                         0000FB03  1324 _g_RSTMP	=	0xfb03
                         0000FB03  1325 _g_TOCNT	=	0xfb03
                         0000FB04  1326 _g_RSFCB	=	0xfb04
                         0000FB06  1327 _g_RSIQLN	=	0xfb06
                         0000FB07  1328 _g_MEXBIh	=	0xfb07
                         0000FB0C  1329 _g_OLDSTT	=	0xfb0c
                         0000FB0C  1330 _g_OLDINT	=	0xfb0c
                         0000FB16  1331 _g_DEVNUM	=	0xfb16
                         0000FB17  1332 _g_DATCNT	=	0xfb17
                         0000FB1A  1333 _g_ERRORS	=	0xfb1a
                         0000FB1B  1334 _g_FLAGS	=	0xfb1b
                         0000FB1C  1335 _g_ESTBLS	=	0xfb1c
                         0000FB1D  1336 _g_COMMSK	=	0xfb1d
                         0000FB1E  1337 _g_LSTCOM	=	0xfb1e
                         0000FB1F  1338 _g_LSTMOD	=	0xfb1f
                         0000FB35  1339 _g_PRSCNT	=	0xfb35
                         0000FB36  1340 _g_SAVSP	=	0xfb36
                         0000FB38  1341 _g_VOICEN	=	0xfb38
                         0000FB39  1342 _g_SAVVOL	=	0xfb39
                         0000FB3B  1343 _g_MCLLEN	=	0xfb3b
                         0000FB3C  1344 _g_MCLPTR	=	0xfb3c
                         0000FB3E  1345 _g_QUEUEN	=	0xfb3e
                         0000FB3F  1346 _g_MUSICF	=	0xfb3f
                         0000FB40  1347 _g_PLYCNT	=	0xfb40
                         0000FB41  1348 _g_VCBA	=	0xfb41
                         0000FB66  1349 _g_VCBB	=	0xfb66
                         0000FB8B  1350 _g_VCBC	=	0xfb8b
                         0000FBB0  1351 _g_ENSTOP	=	0xfbb0
                         0000FBB1  1352 _g_BASROM	=	0xfbb1
                         0000FBB2  1353 _g_LINTTB	=	0xfbb2
                         0000FBCA  1354 _g_FSTPOS	=	0xfbca
                         0000FBCC  1355 _g_CODSAV	=	0xfbcc
                         0000FBCD  1356 _g_FNKSWI	=	0xfbcd
                         0000FBCE  1357 _g_FNKFLG	=	0xfbce
                         0000FBD8  1358 _g_ONGSBF	=	0xfbd8
                         0000FBD9  1359 _g_CLIKFL	=	0xfbd9
                         0000FBDA  1360 _g_OLDKEY	=	0xfbda
                         0000FBE5  1361 _g_NEWKEY	=	0xfbe5
                         0000FBF0  1362 _g_KEYBUF	=	0xfbf0
                         0000FC18  1363 _g_LINWRK	=	0xfc18
                         0000FC40  1364 _g_PATWRK	=	0xfc40
                         0000FC48  1365 _g_BOTTOM	=	0xfc48
                         0000FC4A  1366 _g_HIMEM	=	0xfc4a
                         0000FC4C  1367 _g_TRPTBL	=	0xfc4c
                         0000FC9A  1368 _g_RTYCNT	=	0xfc9a
                         0000FC9B  1369 _g_INTFLG	=	0xfc9b
                         0000FC9C  1370 _g_PADY	=	0xfc9c
                         0000FC9D  1371 _g_PADX	=	0xfc9d
                         0000FC9E  1372 _g_JIFFY	=	0xfc9e
                         0000FCA0  1373 _g_INTVAL	=	0xfca0
                         0000FCA2  1374 _g_INTCNT	=	0xfca2
                         0000FCA4  1375 _g_LOWLIM	=	0xfca4
                         0000FCA5  1376 _g_WINWID	=	0xfca5
                         0000FCA6  1377 _g_GRPHED	=	0xfca6
                         0000FCA7  1378 _g_ESCCNT	=	0xfca7
                         0000FCA8  1379 _g_INSFLG	=	0xfca8
                         0000FCA9  1380 _g_CSRSW	=	0xfca9
                         0000FCAA  1381 _g_CSTYLE	=	0xfcaa
                         0000FCAB  1382 _g_CAPST	=	0xfcab
                         0000FCAC  1383 _g_KANAST	=	0xfcac
                         0000FCAD  1384 _g_KANAMD	=	0xfcad
                         0000FCAE  1385 _g_FLBMEM	=	0xfcae
                         0000FCAF  1386 _g_SCRMOD	=	0xfcaf
                         0000FCB0  1387 _g_OLDSCR	=	0xfcb0
                         0000FCB1  1388 _g_CASPRV	=	0xfcb1
                         0000FCB2  1389 _g_BRDATR	=	0xfcb2
                         0000FCB3  1390 _g_GXPOS	=	0xfcb3
                         0000FCB5  1391 _g_GYPOS	=	0xfcb5
                         0000FCBB  1392 _g_DRWFLG	=	0xfcbb
                         0000FCBC  1393 _g_DRWSCL	=	0xfcbc
                         0000FCBD  1394 _g_DRWANG	=	0xfcbd
                         0000FCC1  1395 _g_MNROM	=	0xfcc1
                         0000FCC1  1396 _g_EXPTBL	=	0xfcc1
                         0000FCC5  1397 _g_SLTTBL	=	0xfcc5
                         0000FCC9  1398 _g_SLTATR	=	0xfcc9
                         0000FD09  1399 _g_SLTWRK	=	0xfd09
                         0000FD89  1400 _g_PROCNM	=	0xfd89
                         0000FFE7  1401 _g_RG08SAV	=	0xffe7
                         0000FFE8  1402 _g_RG09SAV	=	0xffe8
                         0000FFE9  1403 _g_RG10SAV	=	0xffe9
                         0000FFEA  1404 _g_RG11SAV	=	0xffea
                         0000FFEB  1405 _g_RG12SAV	=	0xffeb
                         0000FFEC  1406 _g_RG13SAV	=	0xffec
                         0000FFED  1407 _g_RG14SAV	=	0xffed
                         0000FFEE  1408 _g_RG15SAV	=	0xffee
                         0000FFEF  1409 _g_RG16SAV	=	0xffef
                         0000FFF0  1410 _g_RG17SAV	=	0xfff0
                         0000FFF1  1411 _g_RG18SAV	=	0xfff1
                         0000FFF2  1412 _g_RG19SAV	=	0xfff2
                         0000FFF3  1413 _g_RG20SAV	=	0xfff3
                         0000FFF4  1414 _g_RG21SAV	=	0xfff4
                         0000FFF5  1415 _g_RG22SAV	=	0xfff5
                         0000FFF6  1416 _g_RG23SAV	=	0xfff6
                         0000FFF7  1417 _g_MINROM	=	0xfff7
                         0000FFF8  1418 _g_SVFFF8	=	0xfff8
                         0000FFFA  1419 _g_RG25SAV	=	0xfffa
                         0000FFFB  1420 _g_RG26SAV	=	0xfffb
                         0000FFFC  1421 _g_RG27SAV	=	0xfffc
                         0000FFFD  1422 _g_SVFFFD	=	0xfffd
                         00000004  1423 _g_CGTABL	=	0x0004
                         00000006  1424 _g_VDP_DR	=	0x0006
                         00000007  1425 _g_VDP_DW	=	0x0007
                         0000002B  1426 _g_BASRVN	=	0x002b
                         0000002B  1427 _g_ROMVersion	=	0x002b
                         0000002D  1428 _g_MSXVER	=	0x002d
                         0000002E  1429 _g_MSXMID	=	0x002e
                         00000034  1430 _g_CHAR_16	=	0x0034
                         00000000  1431 _g_SUBRID	=	0x0000
                         00000002  1432 _g_STRSRC	=	0x0002
                         0000F30F  1433 _g_KANJTABLE	=	0xf30f
                         0000F323  1434 _g_DISKVE	=	0xf323
                         0000F325  1435 _g_BREAKV	=	0xf325
                         0000F341  1436 _g_RAMAD0	=	0xf341
                         0000F342  1437 _g_RAMAD1	=	0xf342
                         0000F343  1438 _g_RAMAD2	=	0xf343
                         0000F344  1439 _g_RAMAD3	=	0xf344
                         0000F348  1440 _g_MASTER	=	0xf348
                         0000F37D  1441 _g_BDOS	=	0xf37d
                                   1442 ;E:\Dropbox\FAUSTO\SVILUPPI\MSX\CODE\C\MSXgl\projects\soccerlgMSX2/soccerlg_s19_b3.c:68: u16 GetPlayerIdleFrame(u8 i, i8 dx, i8 dy) 
                                   1443 ;	---------------------------------
                                   1444 ; Function GetPlayerIdleFrame
                                   1445 ; ---------------------------------
    000006C2                       1446 _GetPlayerIdleFrame::
    000006C2 DD E5            [15] 1447 	push	ix
    000006C4 DD 21 00 00      [14] 1448 	ld	ix,#0
    000006C8 DD 39            [15] 1449 	add	ix,sp
                                   1450 ;E:\Dropbox\FAUSTO\SVILUPPI\MSX\CODE\C\MSXgl\projects\soccerlgMSX2/soccerlg_s19_b3.c:70: bool is_gk = (i == 0 || i == 7);
    000006CA 4F               [ 4] 1451 	ld	c,a
    000006CB B7               [ 4] 1452 	or	a,a
    000006CC 28 06            [12] 1453 	jr	Z, 00208$
    000006CE D6 07            [ 7] 1454 	sub	a, #0x07
    000006D0 1E 00            [ 7] 1455 	ld	e, #0x00
    000006D2 20 02            [12] 1456 	jr	NZ, 00209$
    000006D4                       1457 00208$:
    000006D4 1E 01            [ 7] 1458 	ld	e, #0x01
    000006D6                       1459 00209$:
                                   1460 ;E:\Dropbox\FAUSTO\SVILUPPI\MSX\CODE\C\MSXgl\projects\soccerlgMSX2/soccerlg_s19_b3.c:72: if (dy < 0 && dx == 0) return SPR_REFEREE_FACE_TO_NORTH;
    000006D6 DD 7E 04         [19] 1461 	ld	a, 4 (ix)
    000006D9 07               [ 4] 1462 	rlca
    000006DA E6 01            [ 7] 1463 	and	a,#0x01
    000006DC 57               [ 4] 1464 	ld	d, a
                                   1465 ;E:\Dropbox\FAUSTO\SVILUPPI\MSX\CODE\C\MSXgl\projects\soccerlgMSX2/soccerlg_s19_b3.c:71: if (i == 26) { // Arbitro
    000006DD 79               [ 4] 1466 	ld	a, c
                                   1467 ;E:\Dropbox\FAUSTO\SVILUPPI\MSX\CODE\C\MSXgl\projects\soccerlgMSX2/soccerlg_s19_b3.c:72: if (dy < 0 && dx == 0) return SPR_REFEREE_FACE_TO_NORTH;
    000006DE D6 1A            [ 7] 1468 	sub	a,#0x1a
    000006E0 C2r79r07         [10] 1469 	jp	NZ,00126$
    000006E3 B2               [ 4] 1470 	or	a,d
    000006E4 28 0A            [12] 1471 	jr	Z, 00102$
    000006E6 7D               [ 4] 1472 	ld	a, l
    000006E7 B7               [ 4] 1473 	or	a, a
    000006E8 20 06            [12] 1474 	jr	NZ, 00102$
    000006EA 11 05 01         [10] 1475 	ld	de, #0x0105
    000006ED C3r52r09         [10] 1476 	jp	00205$
    000006F0                       1477 00102$:
                                   1478 ;E:\Dropbox\FAUSTO\SVILUPPI\MSX\CODE\C\MSXgl\projects\soccerlgMSX2/soccerlg_s19_b3.c:73: if (dy > 0 && dx == 0) return SPR_REFEREE_FACE_TO_SOUTH;
    000006F0 AF               [ 4] 1479 	xor	a, a
    000006F1 DD 96 04         [19] 1480 	sub	a, 4 (ix)
    000006F4 E2rF9r06         [10] 1481 	jp	PO, 00565$
    000006F7 EE 80            [ 7] 1482 	xor	a, #0x80
    000006F9                       1483 00565$:
    000006F9 07               [ 4] 1484 	rlca
    000006FA E6 01            [ 7] 1485 	and	a,#0x01
    000006FC 4F               [ 4] 1486 	ld	c, a
    000006FD B7               [ 4] 1487 	or	a, a
    000006FE 28 0A            [12] 1488 	jr	Z, 00105$
    00000700 7D               [ 4] 1489 	ld	a, l
    00000701 B7               [ 4] 1490 	or	a, a
    00000702 20 06            [12] 1491 	jr	NZ, 00105$
    00000704 11 06 01         [10] 1492 	ld	de, #0x0106
    00000707 C3r52r09         [10] 1493 	jp	00205$
    0000070A                       1494 00105$:
                                   1495 ;E:\Dropbox\FAUSTO\SVILUPPI\MSX\CODE\C\MSXgl\projects\soccerlgMSX2/soccerlg_s19_b3.c:74: if (dy == 0 && dx > 0) return SPR_REFEREE_FACE_TO_EAST;
    0000070A DD 7E 04         [19] 1496 	ld	a, 4 (ix)
    0000070D B7               [ 4] 1497 	or	a,a
    0000070E 20 0F            [12] 1498 	jr	NZ, 00108$
    00000710 95               [ 4] 1499 	sub	a, l
    00000711 E2r16r07         [10] 1500 	jp	PO, 00566$
    00000714 EE 80            [ 7] 1501 	xor	a, #0x80
    00000716                       1502 00566$:
    00000716 F2r1Fr07         [10] 1503 	jp	P, 00108$
    00000719 11 1A 01         [10] 1504 	ld	de, #0x011a
    0000071C C3r52r09         [10] 1505 	jp	00205$
    0000071F                       1506 00108$:
                                   1507 ;E:\Dropbox\FAUSTO\SVILUPPI\MSX\CODE\C\MSXgl\projects\soccerlgMSX2/soccerlg_s19_b3.c:75: if (dy == 0 && dx < 0) return SPR_REFEREE_FACE_TO_WEST;
    0000071F DD 7E 04         [19] 1508 	ld	a, 4 (ix)
    00000722 B7               [ 4] 1509 	or	a, a
    00000723 20 0A            [12] 1510 	jr	NZ, 00111$
    00000725 CB 7D            [ 8] 1511 	bit	7, l
    00000727 28 06            [12] 1512 	jr	Z, 00111$
    00000729 11 1B 01         [10] 1513 	ld	de, #0x011b
    0000072C C3r52r09         [10] 1514 	jp	00205$
    0000072F                       1515 00111$:
                                   1516 ;E:\Dropbox\FAUSTO\SVILUPPI\MSX\CODE\C\MSXgl\projects\soccerlgMSX2/soccerlg_s19_b3.c:76: if (dy < 0 && dx > 0) return SPR_REFEREE_FACE_TO_NORTH_EAST;
    0000072F 7A               [ 4] 1517 	ld	a, d
    00000730 B7               [ 4] 1518 	or	a, a
    00000731 28 10            [12] 1519 	jr	Z, 00114$
    00000733 AF               [ 4] 1520 	xor	a, a
    00000734 95               [ 4] 1521 	sub	a, l
    00000735 E2r3Ar07         [10] 1522 	jp	PO, 00567$
    00000738 EE 80            [ 7] 1523 	xor	a, #0x80
    0000073A                       1524 00567$:
    0000073A F2r43r07         [10] 1525 	jp	P, 00114$
    0000073D 11 10 01         [10] 1526 	ld	de, #0x0110
    00000740 C3r52r09         [10] 1527 	jp	00205$
    00000743                       1528 00114$:
                                   1529 ;E:\Dropbox\FAUSTO\SVILUPPI\MSX\CODE\C\MSXgl\projects\soccerlgMSX2/soccerlg_s19_b3.c:77: if (dy < 0 && dx < 0) return SPR_REFEREE_FACE_TO_NORTH_WEST;
    00000743 7A               [ 4] 1530 	ld	a, d
    00000744 B7               [ 4] 1531 	or	a, a
    00000745 28 0A            [12] 1532 	jr	Z, 00117$
    00000747 CB 7D            [ 8] 1533 	bit	7, l
    00000749 28 06            [12] 1534 	jr	Z, 00117$
    0000074B 11 0F 01         [10] 1535 	ld	de, #0x010f
    0000074E C3r52r09         [10] 1536 	jp	00205$
    00000751                       1537 00117$:
                                   1538 ;E:\Dropbox\FAUSTO\SVILUPPI\MSX\CODE\C\MSXgl\projects\soccerlgMSX2/soccerlg_s19_b3.c:78: if (dy > 0 && dx > 0) return SPR_REFEREE_FACE_TO_SOUTH_EAST;
    00000751 79               [ 4] 1539 	ld	a, c
    00000752 B7               [ 4] 1540 	or	a, a
    00000753 28 10            [12] 1541 	jr	Z, 00120$
    00000755 AF               [ 4] 1542 	xor	a, a
    00000756 95               [ 4] 1543 	sub	a, l
    00000757 E2r5Cr07         [10] 1544 	jp	PO, 00568$
    0000075A EE 80            [ 7] 1545 	xor	a, #0x80
    0000075C                       1546 00568$:
    0000075C F2r65r07         [10] 1547 	jp	P, 00120$
    0000075F 11 09 01         [10] 1548 	ld	de, #0x0109
    00000762 C3r52r09         [10] 1549 	jp	00205$
    00000765                       1550 00120$:
                                   1551 ;E:\Dropbox\FAUSTO\SVILUPPI\MSX\CODE\C\MSXgl\projects\soccerlgMSX2/soccerlg_s19_b3.c:79: if (dy > 0 && dx < 0) return SPR_REFEREE_FACE_TO_SOUTH_WEST;
    00000765 79               [ 4] 1552 	ld	a, c
    00000766 B7               [ 4] 1553 	or	a, a
    00000767 28 0A            [12] 1554 	jr	Z, 00123$
    00000769 CB 7D            [ 8] 1555 	bit	7, l
    0000076B 28 06            [12] 1556 	jr	Z, 00123$
    0000076D 11 09 01         [10] 1557 	ld	de, #0x0109
    00000770 C3r52r09         [10] 1558 	jp	00205$
    00000773                       1559 00123$:
                                   1560 ;E:\Dropbox\FAUSTO\SVILUPPI\MSX\CODE\C\MSXgl\projects\soccerlgMSX2/soccerlg_s19_b3.c:80: return SPR_REFEREE_FACE_TO_SOUTH;
    00000773 11 06 01         [10] 1561 	ld	de, #0x0106
    00000776 C3r52r09         [10] 1562 	jp	00205$
    00000779                       1563 00126$:
                                   1564 ;E:\Dropbox\FAUSTO\SVILUPPI\MSX\CODE\C\MSXgl\projects\soccerlgMSX2/soccerlg_s19_b3.c:82: u8 team = (i < 7) ? 1 : 2;
    00000779 79               [ 4] 1565 	ld	a, c
    0000077A D6 07            [ 7] 1566 	sub	a, #0x07
    0000077C 30 06            [12] 1567 	jr	NC, 00210$
    0000077E 01 01 00         [10] 1568 	ld	bc, #0x0001
    00000781 C3r87r07         [10] 1569 	jp	00211$
    00000784                       1570 00210$:
    00000784 01 02 00         [10] 1571 	ld	bc, #0x0002
    00000787                       1572 00211$:
                                   1573 ;E:\Dropbox\FAUSTO\SVILUPPI\MSX\CODE\C\MSXgl\projects\soccerlgMSX2/soccerlg_s19_b3.c:84: if (is_gk) {
    00000787 7B               [ 4] 1574 	ld	a, e
    00000788 B7               [ 4] 1575 	or	a, a
    00000789 CAr23r08         [10] 1576 	jp	Z, 00203$
                                   1577 ;E:\Dropbox\FAUSTO\SVILUPPI\MSX\CODE\C\MSXgl\projects\soccerlgMSX2/soccerlg_s19_b3.c:85: if (dy < 0 && dx == 0) return SPR_GK_PLAYER_FACE_TO_NORTH;
    0000078C 7A               [ 4] 1578 	ld	a, d
    0000078D B7               [ 4] 1579 	or	a, a
    0000078E 28 0A            [12] 1580 	jr	Z, 00128$
    00000790 7D               [ 4] 1581 	ld	a, l
    00000791 B7               [ 4] 1582 	or	a, a
    00000792 20 06            [12] 1583 	jr	NZ, 00128$
    00000794 11 D6 00         [10] 1584 	ld	de, #0x00d6
    00000797 C3r52r09         [10] 1585 	jp	00205$
    0000079A                       1586 00128$:
                                   1587 ;E:\Dropbox\FAUSTO\SVILUPPI\MSX\CODE\C\MSXgl\projects\soccerlgMSX2/soccerlg_s19_b3.c:86: if (dy > 0 && dx == 0) return SPR_GK_PLAYER_FACE_TO_SOUTH;
    0000079A AF               [ 4] 1588 	xor	a, a
    0000079B DD 96 04         [19] 1589 	sub	a, 4 (ix)
    0000079E E2rA3r07         [10] 1590 	jp	PO, 00569$
    000007A1 EE 80            [ 7] 1591 	xor	a, #0x80
    000007A3                       1592 00569$:
    000007A3 07               [ 4] 1593 	rlca
    000007A4 E6 01            [ 7] 1594 	and	a,#0x01
    000007A6 4F               [ 4] 1595 	ld	c, a
    000007A7 B7               [ 4] 1596 	or	a, a
    000007A8 28 0A            [12] 1597 	jr	Z, 00131$
    000007AA 7D               [ 4] 1598 	ld	a, l
    000007AB B7               [ 4] 1599 	or	a, a
    000007AC 20 06            [12] 1600 	jr	NZ, 00131$
    000007AE 11 D5 00         [10] 1601 	ld	de, #0x00d5
    000007B1 C3r52r09         [10] 1602 	jp	00205$
    000007B4                       1603 00131$:
                                   1604 ;E:\Dropbox\FAUSTO\SVILUPPI\MSX\CODE\C\MSXgl\projects\soccerlgMSX2/soccerlg_s19_b3.c:87: if (dy == 0 && dx > 0) return SPR_GK_PLAYER_FACE_TO_EAST;
    000007B4 DD 7E 04         [19] 1605 	ld	a, 4 (ix)
    000007B7 B7               [ 4] 1606 	or	a,a
    000007B8 20 0F            [12] 1607 	jr	NZ, 00134$
    000007BA 95               [ 4] 1608 	sub	a, l
    000007BB E2rC0r07         [10] 1609 	jp	PO, 00570$
    000007BE EE 80            [ 7] 1610 	xor	a, #0x80
    000007C0                       1611 00570$:
    000007C0 F2rC9r07         [10] 1612 	jp	P, 00134$
    000007C3 11 EA 00         [10] 1613 	ld	de, #0x00ea
    000007C6 C3r52r09         [10] 1614 	jp	00205$
    000007C9                       1615 00134$:
                                   1616 ;E:\Dropbox\FAUSTO\SVILUPPI\MSX\CODE\C\MSXgl\projects\soccerlgMSX2/soccerlg_s19_b3.c:88: if (dy == 0 && dx < 0) return SPR_GK_PLAYER_FACE_TO_WEST;
    000007C9 DD 7E 04         [19] 1617 	ld	a, 4 (ix)
    000007CC B7               [ 4] 1618 	or	a, a
    000007CD 20 0A            [12] 1619 	jr	NZ, 00137$
    000007CF CB 7D            [ 8] 1620 	bit	7, l
    000007D1 28 06            [12] 1621 	jr	Z, 00137$
    000007D3 11 EB 00         [10] 1622 	ld	de, #0x00eb
    000007D6 C3r52r09         [10] 1623 	jp	00205$
    000007D9                       1624 00137$:
                                   1625 ;E:\Dropbox\FAUSTO\SVILUPPI\MSX\CODE\C\MSXgl\projects\soccerlgMSX2/soccerlg_s19_b3.c:89: if (dy < 0 && dx > 0) return SPR_GK_PLAYER_FACE_TO_NORTH_EAST;
    000007D9 7A               [ 4] 1626 	ld	a, d
    000007DA B7               [ 4] 1627 	or	a, a
    000007DB 28 10            [12] 1628 	jr	Z, 00140$
    000007DD AF               [ 4] 1629 	xor	a, a
    000007DE 95               [ 4] 1630 	sub	a, l
    000007DF E2rE4r07         [10] 1631 	jp	PO, 00571$
    000007E2 EE 80            [ 7] 1632 	xor	a, #0x80
    000007E4                       1633 00571$:
    000007E4 F2rEDr07         [10] 1634 	jp	P, 00140$
    000007E7 11 DF 00         [10] 1635 	ld	de, #0x00df
    000007EA C3r52r09         [10] 1636 	jp	00205$
    000007ED                       1637 00140$:
                                   1638 ;E:\Dropbox\FAUSTO\SVILUPPI\MSX\CODE\C\MSXgl\projects\soccerlgMSX2/soccerlg_s19_b3.c:90: if (dy < 0 && dx < 0) return SPR_GK_PLAYER_FACE_TO_NORTH_WEST;
    000007ED 7A               [ 4] 1639 	ld	a, d
    000007EE B7               [ 4] 1640 	or	a, a
    000007EF 28 0A            [12] 1641 	jr	Z, 00143$
    000007F1 CB 7D            [ 8] 1642 	bit	7, l
    000007F3 28 06            [12] 1643 	jr	Z, 00143$
    000007F5 11 E0 00         [10] 1644 	ld	de, #0x00e0
    000007F8 C3r52r09         [10] 1645 	jp	00205$
    000007FB                       1646 00143$:
                                   1647 ;E:\Dropbox\FAUSTO\SVILUPPI\MSX\CODE\C\MSXgl\projects\soccerlgMSX2/soccerlg_s19_b3.c:91: if (dy > 0 && dx > 0) return SPR_GK_PLAYER_FACE_TO_SOUTH_EAST;
    000007FB 79               [ 4] 1648 	ld	a, c
    000007FC B7               [ 4] 1649 	or	a, a
    000007FD 28 10            [12] 1650 	jr	Z, 00146$
    000007FF AF               [ 4] 1651 	xor	a, a
    00000800 95               [ 4] 1652 	sub	a, l
    00000801 E2r06r08         [10] 1653 	jp	PO, 00572$
    00000804 EE 80            [ 7] 1654 	xor	a, #0x80
    00000806                       1655 00572$:
    00000806 F2r0Fr08         [10] 1656 	jp	P, 00146$
    00000809 11 EB 00         [10] 1657 	ld	de, #0x00eb
    0000080C C3r52r09         [10] 1658 	jp	00205$
    0000080F                       1659 00146$:
                                   1660 ;E:\Dropbox\FAUSTO\SVILUPPI\MSX\CODE\C\MSXgl\projects\soccerlgMSX2/soccerlg_s19_b3.c:92: if (dy > 0 && dx < 0) return SPR_GK_PLAYER_FACE_TO_SOUTH_WEST;
    0000080F 79               [ 4] 1661 	ld	a, c
    00000810 B7               [ 4] 1662 	or	a, a
    00000811 28 0A            [12] 1663 	jr	Z, 00149$
    00000813 CB 7D            [ 8] 1664 	bit	7, l
    00000815 28 06            [12] 1665 	jr	Z, 00149$
    00000817 11 EA 00         [10] 1666 	ld	de, #0x00ea
    0000081A C3r52r09         [10] 1667 	jp	00205$
    0000081D                       1668 00149$:
                                   1669 ;E:\Dropbox\FAUSTO\SVILUPPI\MSX\CODE\C\MSXgl\projects\soccerlgMSX2/soccerlg_s19_b3.c:93: return SPR_GK_PLAYER_FACE_TO_SOUTH;
    0000081D 11 D5 00         [10] 1670 	ld	de, #0x00d5
    00000820 C3r52r09         [10] 1671 	jp	00205$
    00000823                       1672 00203$:
                                   1673 ;E:\Dropbox\FAUSTO\SVILUPPI\MSX\CODE\C\MSXgl\projects\soccerlgMSX2/soccerlg_s19_b3.c:95: else if (team == 1) {
    00000823 0D               [ 4] 1674 	dec	c
    00000824 C2rBEr08         [10] 1675 	jp	NZ,00200$
                                   1676 ;E:\Dropbox\FAUSTO\SVILUPPI\MSX\CODE\C\MSXgl\projects\soccerlgMSX2/soccerlg_s19_b3.c:96: if (dy < 0 && dx == 0) return SPR_T1_PLAYER_FACE_TO_NORTH;
    00000827 7A               [ 4] 1677 	ld	a, d
    00000828 B7               [ 4] 1678 	or	a, a
    00000829 28 0A            [12] 1679 	jr	Z, 00152$
    0000082B 7D               [ 4] 1680 	ld	a, l
    0000082C B7               [ 4] 1681 	or	a, a
    0000082D 20 06            [12] 1682 	jr	NZ, 00152$
    0000082F 11 14 00         [10] 1683 	ld	de, #0x0014
    00000832 C3r52r09         [10] 1684 	jp	00205$
    00000835                       1685 00152$:
                                   1686 ;E:\Dropbox\FAUSTO\SVILUPPI\MSX\CODE\C\MSXgl\projects\soccerlgMSX2/soccerlg_s19_b3.c:97: if (dy > 0 && dx == 0) return SPR_T1_PLAYER_FACE_TO_SOUTH;
    00000835 AF               [ 4] 1687 	xor	a, a
    00000836 DD 96 04         [19] 1688 	sub	a, 4 (ix)
    00000839 E2r3Er08         [10] 1689 	jp	PO, 00575$
    0000083C EE 80            [ 7] 1690 	xor	a, #0x80
    0000083E                       1691 00575$:
    0000083E 07               [ 4] 1692 	rlca
    0000083F E6 01            [ 7] 1693 	and	a,#0x01
    00000841 4F               [ 4] 1694 	ld	c, a
    00000842 B7               [ 4] 1695 	or	a, a
    00000843 28 0A            [12] 1696 	jr	Z, 00155$
    00000845 7D               [ 4] 1697 	ld	a, l
    00000846 B7               [ 4] 1698 	or	a, a
    00000847 20 06            [12] 1699 	jr	NZ, 00155$
    00000849 11 01 00         [10] 1700 	ld	de, #0x0001
    0000084C C3r52r09         [10] 1701 	jp	00205$
    0000084F                       1702 00155$:
                                   1703 ;E:\Dropbox\FAUSTO\SVILUPPI\MSX\CODE\C\MSXgl\projects\soccerlgMSX2/soccerlg_s19_b3.c:98: if (dy == 0 && dx > 0) return SPR_T1_PLAYER_FACE_TO_EAST;
    0000084F DD 7E 04         [19] 1704 	ld	a, 4 (ix)
    00000852 B7               [ 4] 1705 	or	a,a
    00000853 20 0F            [12] 1706 	jr	NZ, 00158$
    00000855 95               [ 4] 1707 	sub	a, l
    00000856 E2r5Br08         [10] 1708 	jp	PO, 00576$
    00000859 EE 80            [ 7] 1709 	xor	a, #0x80
    0000085B                       1710 00576$:
    0000085B F2r64r08         [10] 1711 	jp	P, 00158$
    0000085E 11 1A 00         [10] 1712 	ld	de, #0x001a
    00000861 C3r52r09         [10] 1713 	jp	00205$
    00000864                       1714 00158$:
                                   1715 ;E:\Dropbox\FAUSTO\SVILUPPI\MSX\CODE\C\MSXgl\projects\soccerlgMSX2/soccerlg_s19_b3.c:99: if (dy == 0 && dx < 0) return SPR_T1_PLAYER_FACE_TO_WEST;
    00000864 DD 7E 04         [19] 1716 	ld	a, 4 (ix)
    00000867 B7               [ 4] 1717 	or	a, a
    00000868 20 0A            [12] 1718 	jr	NZ, 00161$
    0000086A CB 7D            [ 8] 1719 	bit	7, l
    0000086C 28 06            [12] 1720 	jr	Z, 00161$
    0000086E 11 1B 00         [10] 1721 	ld	de, #0x001b
    00000871 C3r52r09         [10] 1722 	jp	00205$
    00000874                       1723 00161$:
                                   1724 ;E:\Dropbox\FAUSTO\SVILUPPI\MSX\CODE\C\MSXgl\projects\soccerlgMSX2/soccerlg_s19_b3.c:100: if (dy < 0 && dx > 0) return SPR_T1_PLAYER_FACE_TO_NORTH_EAST;
    00000874 7A               [ 4] 1725 	ld	a, d
    00000875 B7               [ 4] 1726 	or	a, a
    00000876 28 10            [12] 1727 	jr	Z, 00164$
    00000878 AF               [ 4] 1728 	xor	a, a
    00000879 95               [ 4] 1729 	sub	a, l
    0000087A E2r7Fr08         [10] 1730 	jp	PO, 00577$
    0000087D EE 80            [ 7] 1731 	xor	a, #0x80
    0000087F                       1732 00577$:
    0000087F F2r88r08         [10] 1733 	jp	P, 00164$
    00000882 11 0F 00         [10] 1734 	ld	de, #0x000f
    00000885 C3r52r09         [10] 1735 	jp	00205$
    00000888                       1736 00164$:
                                   1737 ;E:\Dropbox\FAUSTO\SVILUPPI\MSX\CODE\C\MSXgl\projects\soccerlgMSX2/soccerlg_s19_b3.c:101: if (dy < 0 && dx < 0) return SPR_T1_PLAYER_FACE_TO_NORTH_WEST;
    00000888 7A               [ 4] 1738 	ld	a, d
    00000889 B7               [ 4] 1739 	or	a, a
    0000088A 28 0A            [12] 1740 	jr	Z, 00167$
    0000088C CB 7D            [ 8] 1741 	bit	7, l
    0000088E 28 06            [12] 1742 	jr	Z, 00167$
    00000890 11 10 00         [10] 1743 	ld	de, #0x0010
    00000893 C3r52r09         [10] 1744 	jp	00205$
    00000896                       1745 00167$:
                                   1746 ;E:\Dropbox\FAUSTO\SVILUPPI\MSX\CODE\C\MSXgl\projects\soccerlgMSX2/soccerlg_s19_b3.c:102: if (dy > 0 && dx > 0) return SPR_T1_PLAYER_FACE_TO_SOUTH_EAST;
    00000896 79               [ 4] 1747 	ld	a, c
    00000897 B7               [ 4] 1748 	or	a, a
    00000898 28 10            [12] 1749 	jr	Z, 00170$
    0000089A AF               [ 4] 1750 	xor	a, a
    0000089B 95               [ 4] 1751 	sub	a, l
    0000089C E2rA1r08         [10] 1752 	jp	PO, 00578$
    0000089F EE 80            [ 7] 1753 	xor	a, #0x80
    000008A1                       1754 00578$:
    000008A1 F2rAAr08         [10] 1755 	jp	P, 00170$
    000008A4 11 1B 00         [10] 1756 	ld	de, #0x001b
    000008A7 C3r52r09         [10] 1757 	jp	00205$
    000008AA                       1758 00170$:
                                   1759 ;E:\Dropbox\FAUSTO\SVILUPPI\MSX\CODE\C\MSXgl\projects\soccerlgMSX2/soccerlg_s19_b3.c:103: if (dy > 0 && dx < 0) return SPR_T1_PLAYER_FACE_TO_SOUTH_WEST;
    000008AA 79               [ 4] 1760 	ld	a, c
    000008AB B7               [ 4] 1761 	or	a, a
    000008AC 28 0A            [12] 1762 	jr	Z, 00173$
    000008AE CB 7D            [ 8] 1763 	bit	7, l
    000008B0 28 06            [12] 1764 	jr	Z, 00173$
    000008B2 11 1A 00         [10] 1765 	ld	de, #0x001a
    000008B5 C3r52r09         [10] 1766 	jp	00205$
    000008B8                       1767 00173$:
                                   1768 ;E:\Dropbox\FAUSTO\SVILUPPI\MSX\CODE\C\MSXgl\projects\soccerlgMSX2/soccerlg_s19_b3.c:104: return SPR_T1_PLAYER_FACE_TO_SOUTH;
    000008B8 11 01 00         [10] 1769 	ld	de, #0x0001
    000008BB C3r52r09         [10] 1770 	jp	00205$
    000008BE                       1771 00200$:
                                   1772 ;E:\Dropbox\FAUSTO\SVILUPPI\MSX\CODE\C\MSXgl\projects\soccerlgMSX2/soccerlg_s19_b3.c:107: if (dy < 0 && dx == 0) return SPR_T2_PLAYER_FACE_TO_NORTH;
    000008BE 7A               [ 4] 1773 	ld	a, d
    000008BF B7               [ 4] 1774 	or	a, a
    000008C0 28 0A            [12] 1775 	jr	Z, 00176$
    000008C2 7D               [ 4] 1776 	ld	a, l
    000008C3 B7               [ 4] 1777 	or	a, a
    000008C4 20 06            [12] 1778 	jr	NZ, 00176$
    000008C6 11 83 00         [10] 1779 	ld	de, #0x0083
    000008C9 C3r52r09         [10] 1780 	jp	00205$
    000008CC                       1781 00176$:
                                   1782 ;E:\Dropbox\FAUSTO\SVILUPPI\MSX\CODE\C\MSXgl\projects\soccerlgMSX2/soccerlg_s19_b3.c:108: if (dy > 0 && dx == 0) return SPR_T2_PLAYER_FACE_TO_SOUTH;
    000008CC AF               [ 4] 1783 	xor	a, a
    000008CD DD 96 04         [19] 1784 	sub	a, 4 (ix)
    000008D0 E2rD5r08         [10] 1785 	jp	PO, 00579$
    000008D3 EE 80            [ 7] 1786 	xor	a, #0x80
    000008D5                       1787 00579$:
    000008D5 07               [ 4] 1788 	rlca
    000008D6 E6 01            [ 7] 1789 	and	a,#0x01
    000008D8 4F               [ 4] 1790 	ld	c, a
    000008D9 B7               [ 4] 1791 	or	a, a
    000008DA 28 0A            [12] 1792 	jr	Z, 00179$
    000008DC 7D               [ 4] 1793 	ld	a, l
    000008DD B7               [ 4] 1794 	or	a, a
    000008DE 20 06            [12] 1795 	jr	NZ, 00179$
    000008E0 11 70 00         [10] 1796 	ld	de, #0x0070
    000008E3 C3r52r09         [10] 1797 	jp	00205$
    000008E6                       1798 00179$:
                                   1799 ;E:\Dropbox\FAUSTO\SVILUPPI\MSX\CODE\C\MSXgl\projects\soccerlgMSX2/soccerlg_s19_b3.c:109: if (dy == 0 && dx > 0) return SPR_T2_PLAYER_FACE_TO_EAST;
    000008E6 DD 7E 04         [19] 1800 	ld	a, 4 (ix)
    000008E9 B7               [ 4] 1801 	or	a,a
    000008EA 20 0F            [12] 1802 	jr	NZ, 00182$
    000008EC 95               [ 4] 1803 	sub	a, l
    000008ED E2rF2r08         [10] 1804 	jp	PO, 00580$
    000008F0 EE 80            [ 7] 1805 	xor	a, #0x80
    000008F2                       1806 00580$:
    000008F2 F2rFBr08         [10] 1807 	jp	P, 00182$
    000008F5 11 8B 00         [10] 1808 	ld	de, #0x008b
    000008F8 C3r52r09         [10] 1809 	jp	00205$
    000008FB                       1810 00182$:
                                   1811 ;E:\Dropbox\FAUSTO\SVILUPPI\MSX\CODE\C\MSXgl\projects\soccerlgMSX2/soccerlg_s19_b3.c:110: if (dy == 0 && dx < 0) return SPR_T2_PLAYER_FACE_TO_WEST;
    000008FB DD 7E 04         [19] 1812 	ld	a, 4 (ix)
    000008FE B7               [ 4] 1813 	or	a, a
    000008FF 20 0A            [12] 1814 	jr	NZ, 00185$
    00000901 CB 7D            [ 8] 1815 	bit	7, l
    00000903 28 06            [12] 1816 	jr	Z, 00185$
    00000905 11 8A 00         [10] 1817 	ld	de, #0x008a
    00000908 C3r52r09         [10] 1818 	jp	00205$
    0000090B                       1819 00185$:
                                   1820 ;E:\Dropbox\FAUSTO\SVILUPPI\MSX\CODE\C\MSXgl\projects\soccerlgMSX2/soccerlg_s19_b3.c:111: if (dy < 0 && dx > 0) return SPR_T2_PLAYER_FACE_TO_NORTH_EAST;
    0000090B 7A               [ 4] 1821 	ld	a, d
    0000090C B7               [ 4] 1822 	or	a, a
    0000090D 28 10            [12] 1823 	jr	Z, 00188$
    0000090F AF               [ 4] 1824 	xor	a, a
    00000910 95               [ 4] 1825 	sub	a, l
    00000911 E2r16r09         [10] 1826 	jp	PO, 00581$
    00000914 EE 80            [ 7] 1827 	xor	a, #0x80
    00000916                       1828 00581$:
    00000916 F2r1Fr09         [10] 1829 	jp	P, 00188$
    00000919 11 7F 00         [10] 1830 	ld	de, #0x007f
    0000091C C3r52r09         [10] 1831 	jp	00205$
    0000091F                       1832 00188$:
                                   1833 ;E:\Dropbox\FAUSTO\SVILUPPI\MSX\CODE\C\MSXgl\projects\soccerlgMSX2/soccerlg_s19_b3.c:112: if (dy < 0 && dx < 0) return SPR_T2_PLAYER_FACE_TO_NORTH_WEST;
    0000091F 7A               [ 4] 1834 	ld	a, d
    00000920 B7               [ 4] 1835 	or	a, a
    00000921 28 0A            [12] 1836 	jr	Z, 00191$
    00000923 CB 7D            [ 8] 1837 	bit	7, l
    00000925 28 06            [12] 1838 	jr	Z, 00191$
    00000927 11 80 00         [10] 1839 	ld	de, #0x0080
    0000092A C3r52r09         [10] 1840 	jp	00205$
    0000092D                       1841 00191$:
                                   1842 ;E:\Dropbox\FAUSTO\SVILUPPI\MSX\CODE\C\MSXgl\projects\soccerlgMSX2/soccerlg_s19_b3.c:113: if (dy > 0 && dx > 0) return SPR_T2_PLAYER_FACE_TO_SOUTH_EAST;
    0000092D 79               [ 4] 1843 	ld	a, c
    0000092E B7               [ 4] 1844 	or	a, a
    0000092F 28 10            [12] 1845 	jr	Z, 00194$
    00000931 AF               [ 4] 1846 	xor	a, a
    00000932 95               [ 4] 1847 	sub	a, l
    00000933 E2r38r09         [10] 1848 	jp	PO, 00582$
    00000936 EE 80            [ 7] 1849 	xor	a, #0x80
    00000938                       1850 00582$:
    00000938 F2r41r09         [10] 1851 	jp	P, 00194$
    0000093B 11 8B 00         [10] 1852 	ld	de, #0x008b
    0000093E C3r52r09         [10] 1853 	jp	00205$
    00000941                       1854 00194$:
                                   1855 ;E:\Dropbox\FAUSTO\SVILUPPI\MSX\CODE\C\MSXgl\projects\soccerlgMSX2/soccerlg_s19_b3.c:114: if (dy > 0 && dx < 0) return SPR_T2_PLAYER_FACE_TO_SOUTH_WEST;
    00000941 79               [ 4] 1856 	ld	a, c
    00000942 B7               [ 4] 1857 	or	a, a
    00000943 28 0A            [12] 1858 	jr	Z, 00197$
    00000945 CB 7D            [ 8] 1859 	bit	7, l
    00000947 28 06            [12] 1860 	jr	Z, 00197$
    00000949 11 8A 00         [10] 1861 	ld	de, #0x008a
    0000094C C3r52r09         [10] 1862 	jp	00205$
    0000094F                       1863 00197$:
                                   1864 ;E:\Dropbox\FAUSTO\SVILUPPI\MSX\CODE\C\MSXgl\projects\soccerlgMSX2/soccerlg_s19_b3.c:115: return SPR_T2_PLAYER_FACE_TO_NORTH;
    0000094F 11 83 00         [10] 1865 	ld	de, #0x0083
    00000952                       1866 00205$:
                                   1867 ;E:\Dropbox\FAUSTO\SVILUPPI\MSX\CODE\C\MSXgl\projects\soccerlgMSX2/soccerlg_s19_b3.c:117: }
    00000952 DD E1            [14] 1868 	pop	ix
    00000954 E1               [10] 1869 	pop	hl
    00000955 33               [ 6] 1870 	inc	sp
    00000956 E9               [ 4] 1871 	jp	(hl)
                                   1872 	.area _SEG19
                                   1873 	.area _INITIALIZER
                                   1874 	.area _CABS (ABS)
