                                      1 ;--------------------------------------------------------
                                      2 ; File Created by SDCC : free open source ANSI-C Compiler
                                      3 ; Version 4.2.0 #13081 (MINGW64)
                                      4 ;--------------------------------------------------------
                                      5 	.module soccerlg_s17_b3
                                      6 	.optsdcc -mz80
                                      7 	
                                      8 ;--------------------------------------------------------
                                      9 ; Public variables in this module
                                     10 ;--------------------------------------------------------
                                     11 	.globl _EventBallKicked
                                     12 	.globl _CallFnc_VOID
                                     13 	.globl _g_SLTSL
                                     14 	.globl _g_GRPACY
                                     15 	.globl _g_GRPACX
                                     16 	.globl _g_LOGOPR
                                     17 	.globl _g_CMASK
                                     18 	.globl _g_CLOC
                                     19 	.globl _g_FNKSTR
                                     20 	.globl _g_ATRBYT
                                     21 	.globl _g_BDRCLR
                                     22 	.globl _g_BAKCLR
                                     23 	.globl _g_FORCLR
                                     24 	.globl _g_CSRX
                                     25 	.globl _g_CSRY
                                     26 	.globl _g_CLIKSW
                                     27 	.globl _g_MLTPAT
                                     28 	.globl _g_MLTATR
                                     29 	.globl _g_MLTCGP
                                     30 	.globl _g_MLTCOL
                                     31 	.globl _g_MLTNAM
                                     32 	.globl _g_GRPPAT
                                     33 	.globl _g_GRPATR
                                     34 	.globl _g_GRPCGP
                                     35 	.globl _g_GRPCOL
                                     36 	.globl _g_GRPNAM
                                     37 	.globl _g_T32PAT
                                     38 	.globl _g_T32ATR
                                     39 	.globl _g_T32CGP
                                     40 	.globl _g_T32COL
                                     41 	.globl _g_T32NAM
                                     42 	.globl _g_TXTPAT
                                     43 	.globl _g_TXTATR
                                     44 	.globl _g_TXTCGP
                                     45 	.globl _g_TXTCOL
                                     46 	.globl _g_TXTNAM
                                     47 	.globl _g_CLMLST
                                     48 	.globl _g_CRTCNT
                                     49 	.globl _g_LINLEN
                                     50 	.globl _g_LINL32
                                     51 	.globl _g_LINL40
                                     52 	.globl _g_BDOS
                                     53 	.globl _g_MASTER
                                     54 	.globl _g_RAMAD3
                                     55 	.globl _g_RAMAD2
                                     56 	.globl _g_RAMAD1
                                     57 	.globl _g_RAMAD0
                                     58 	.globl _g_BREAKV
                                     59 	.globl _g_DISKVE
                                     60 	.globl _g_KANJTABLE
                                     61 	.globl _g_STRSRC
                                     62 	.globl _g_SUBRID
                                     63 	.globl _g_CHAR_16
                                     64 	.globl _g_MSXMID
                                     65 	.globl _g_MSXVER
                                     66 	.globl _g_ROMVersion
                                     67 	.globl _g_BASRVN
                                     68 	.globl _g_VDP_DW
                                     69 	.globl _g_VDP_DR
                                     70 	.globl _g_CGTABL
                                     71 	.globl _g_SVFFFD
                                     72 	.globl _g_RG27SAV
                                     73 	.globl _g_RG26SAV
                                     74 	.globl _g_RG25SAV
                                     75 	.globl _g_SVFFF8
                                     76 	.globl _g_MINROM
                                     77 	.globl _g_RG23SAV
                                     78 	.globl _g_RG22SAV
                                     79 	.globl _g_RG21SAV
                                     80 	.globl _g_RG20SAV
                                     81 	.globl _g_RG19SAV
                                     82 	.globl _g_RG18SAV
                                     83 	.globl _g_RG17SAV
                                     84 	.globl _g_RG16SAV
                                     85 	.globl _g_RG15SAV
                                     86 	.globl _g_RG14SAV
                                     87 	.globl _g_RG13SAV
                                     88 	.globl _g_RG12SAV
                                     89 	.globl _g_RG11SAV
                                     90 	.globl _g_RG10SAV
                                     91 	.globl _g_RG09SAV
                                     92 	.globl _g_RG08SAV
                                     93 	.globl _g_PROCNM
                                     94 	.globl _g_SLTWRK
                                     95 	.globl _g_SLTATR
                                     96 	.globl _g_SLTTBL
                                     97 	.globl _g_EXPTBL
                                     98 	.globl _g_MNROM
                                     99 	.globl _g_DRWANG
                                    100 	.globl _g_DRWSCL
                                    101 	.globl _g_DRWFLG
                                    102 	.globl _g_GYPOS
                                    103 	.globl _g_GXPOS
                                    104 	.globl _g_BRDATR
                                    105 	.globl _g_CASPRV
                                    106 	.globl _g_OLDSCR
                                    107 	.globl _g_SCRMOD
                                    108 	.globl _g_FLBMEM
                                    109 	.globl _g_KANAMD
                                    110 	.globl _g_KANAST
                                    111 	.globl _g_CAPST
                                    112 	.globl _g_CSTYLE
                                    113 	.globl _g_CSRSW
                                    114 	.globl _g_INSFLG
                                    115 	.globl _g_ESCCNT
                                    116 	.globl _g_GRPHED
                                    117 	.globl _g_WINWID
                                    118 	.globl _g_LOWLIM
                                    119 	.globl _g_INTCNT
                                    120 	.globl _g_INTVAL
                                    121 	.globl _g_JIFFY
                                    122 	.globl _g_PADX
                                    123 	.globl _g_PADY
                                    124 	.globl _g_INTFLG
                                    125 	.globl _g_RTYCNT
                                    126 	.globl _g_TRPTBL
                                    127 	.globl _g_HIMEM
                                    128 	.globl _g_BOTTOM
                                    129 	.globl _g_PATWRK
                                    130 	.globl _g_LINWRK
                                    131 	.globl _g_KEYBUF
                                    132 	.globl _g_NEWKEY
                                    133 	.globl _g_OLDKEY
                                    134 	.globl _g_CLIKFL
                                    135 	.globl _g_ONGSBF
                                    136 	.globl _g_FNKFLG
                                    137 	.globl _g_FNKSWI
                                    138 	.globl _g_CODSAV
                                    139 	.globl _g_FSTPOS
                                    140 	.globl _g_LINTTB
                                    141 	.globl _g_BASROM
                                    142 	.globl _g_ENSTOP
                                    143 	.globl _g_VCBC
                                    144 	.globl _g_VCBB
                                    145 	.globl _g_VCBA
                                    146 	.globl _g_PLYCNT
                                    147 	.globl _g_MUSICF
                                    148 	.globl _g_QUEUEN
                                    149 	.globl _g_MCLPTR
                                    150 	.globl _g_MCLLEN
                                    151 	.globl _g_SAVVOL
                                    152 	.globl _g_VOICEN
                                    153 	.globl _g_SAVSP
                                    154 	.globl _g_PRSCNT
                                    155 	.globl _g_LSTMOD
                                    156 	.globl _g_LSTCOM
                                    157 	.globl _g_COMMSK
                                    158 	.globl _g_ESTBLS
                                    159 	.globl _g_FLAGS
                                    160 	.globl _g_ERRORS
                                    161 	.globl _g_DATCNT
                                    162 	.globl _g_DEVNUM
                                    163 	.globl _g_OLDINT
                                    164 	.globl _g_OLDSTT
                                    165 	.globl _g_MEXBIh
                                    166 	.globl _g_RSIQLN
                                    167 	.globl _g_RSFCB
                                    168 	.globl _g_TOCNT
                                    169 	.globl _g_RSTMP
                                    170 	.globl _g_YSAVE
                                    171 	.globl _g_XSAVE
                                    172 	.globl _g_NORUSE
                                    173 	.globl _g_MODE
                                    174 	.globl _g_ROMA
                                    175 	.globl _g_CHRCNT
                                    176 	.globl _g_EXBRSA
                                    177 	.globl _g_AVCSAV
                                    178 	.globl _g_ACPAGE
                                    179 	.globl _g_DPPAGE
                                    180 	.globl _g_RS2IQ
                                    181 	.globl _g_VOICCQ
                                    182 	.globl _g_VOICBQ
                                    183 	.globl _g_VOICAQ
                                    184 	.globl _g_QUEBAK
                                    185 	.globl _g_QUETAB
                                    186 	.globl _g_ASPCT2
                                    187 	.globl _g_ASPCT1
                                    188 	.globl _g_HEADER
                                    189 	.globl _g_HIGH
                                    190 	.globl _g_LOW
                                    191 	.globl _g_CS240
                                    192 	.globl _g_CS120
                                    193 	.globl _g_GETPNT
                                    194 	.globl _g_PUTPNT
                                    195 	.globl _g_REPCNT
                                    196 	.globl _g_SCNCNT
                                    197 	.globl _g_FRCNEW
                                    198 	.globl _g_QUEUES
                                    199 	.globl _g_MINUPD
                                    200 	.globl _g_MAXUPD
                                    201 	.globl _g_TRGFLG
                                    202 	.globl _g_STATFL
                                    203 	.globl _g_RG7SAV
                                    204 	.globl _g_RG6SAV
                                    205 	.globl _g_RG5SAV
                                    206 	.globl _g_RG4SAV
                                    207 	.globl _g_RG3SAV
                                    208 	.globl _g_RG2SAV
                                    209 	.globl _g_RG1SAV
                                    210 	.globl _g_RG0SAV
                                    211 	.globl _g_CNSDFG
                                    212 	.globl _g_USRTAB
                                    213 	.globl _g_CLPRIM
                                    214 	.globl _g_WRPRIM
                                    215 	.globl _g_RDPRIM
                                    216 	.globl _AssignThrowInTargets
                                    217 	.globl _AssignGoalKickTargets
                                    218 	.globl _AssignCornerKickTargets
                                    219 	.globl _ExecuteThrowIn
                                    220 	.globl _ExecuteCornerKick
                                    221 	.globl _AssignOffsideTargets
                                    222 ;--------------------------------------------------------
                                    223 ; special function registers
                                    224 ;--------------------------------------------------------
                         000000A8   225 _g_PortPrimarySlot	=	0x00a8
                         000000A9   226 _g_PortReadKeyboard	=	0x00a9
                         000000AA   227 _g_PortAccessKeyboard	=	0x00aa
                         000000AB   228 _g_PortControl	=	0x00ab
                         00000098   229 _g_VDP_DataPort	=	0x0098
                         00000099   230 _g_VDP_RegPort	=	0x0099
                         00000099   231 _g_VDP_AddrPort	=	0x0099
                         00000099   232 _g_VDP_StatPort	=	0x0099
                         0000009A   233 _g_VDP_PalPort	=	0x009a
                         0000009B   234 _g_VDP_IRegPort	=	0x009b
                         000000A0   235 _g_PSG_RegPort	=	0x00a0
                         000000A1   236 _g_PSG_DataPort	=	0x00a1
                         000000A2   237 _g_PSG_StatPort	=	0x00a2
                         00000010   238 _g_PSG_Ext_RegPort	=	0x0010
                         00000011   239 _g_PSG_Ext_DataPort	=	0x0011
                         00000012   240 _g_PSG_Ext_StatPort	=	0x0012
                         0000007C   241 _g_MSXMusic_IndexPort	=	0x007c
                         0000007D   242 _g_MSXMusic_DataPort	=	0x007d
                         000000C0   243 _g_MSXAudio_IndexPort	=	0x00c0
                         000000C1   244 _g_MSXAudio_DataPort	=	0x00c1
                         000000C2   245 _g_MSXAudio_IndexPort2	=	0x00c2
                         000000C3   246 _g_MSXAudio_DataPort2	=	0x00c3
                         000000B4   247 _g_RTC_AddrPort	=	0x00b4
                         000000B5   248 _g_RTC_DataPort	=	0x00b5
                                    249 ;--------------------------------------------------------
                                    250 ; ram data
                                    251 ;--------------------------------------------------------
                                    252 	.area _DATA
                         0000F3AE   253 _g_LINL40	=	0xf3ae
                         0000F3AF   254 _g_LINL32	=	0xf3af
                         0000F3B0   255 _g_LINLEN	=	0xf3b0
                         0000F3B1   256 _g_CRTCNT	=	0xf3b1
                         0000F3B2   257 _g_CLMLST	=	0xf3b2
                         0000F3B3   258 _g_TXTNAM	=	0xf3b3
                         0000F3B5   259 _g_TXTCOL	=	0xf3b5
                         0000F3B7   260 _g_TXTCGP	=	0xf3b7
                         0000F3B9   261 _g_TXTATR	=	0xf3b9
                         0000F3BB   262 _g_TXTPAT	=	0xf3bb
                         0000F3BD   263 _g_T32NAM	=	0xf3bd
                         0000F3BF   264 _g_T32COL	=	0xf3bf
                         0000F3C1   265 _g_T32CGP	=	0xf3c1
                         0000F3C3   266 _g_T32ATR	=	0xf3c3
                         0000F3C5   267 _g_T32PAT	=	0xf3c5
                         0000F3C7   268 _g_GRPNAM	=	0xf3c7
                         0000F3C9   269 _g_GRPCOL	=	0xf3c9
                         0000F3CB   270 _g_GRPCGP	=	0xf3cb
                         0000F3CD   271 _g_GRPATR	=	0xf3cd
                         0000F3CF   272 _g_GRPPAT	=	0xf3cf
                         0000F3D1   273 _g_MLTNAM	=	0xf3d1
                         0000F3D3   274 _g_MLTCOL	=	0xf3d3
                         0000F3D5   275 _g_MLTCGP	=	0xf3d5
                         0000F3D7   276 _g_MLTATR	=	0xf3d7
                         0000F3D9   277 _g_MLTPAT	=	0xf3d9
                         0000F3DB   278 _g_CLIKSW	=	0xf3db
                         0000F3DC   279 _g_CSRY	=	0xf3dc
                         0000F3DD   280 _g_CSRX	=	0xf3dd
                         0000F3E9   281 _g_FORCLR	=	0xf3e9
                         0000F3EA   282 _g_BAKCLR	=	0xf3ea
                         0000F3EB   283 _g_BDRCLR	=	0xf3eb
                         0000F3F2   284 _g_ATRBYT	=	0xf3f2
                         0000F87F   285 _g_FNKSTR	=	0xf87f
                         0000F92A   286 _g_CLOC	=	0xf92a
                         0000F92C   287 _g_CMASK	=	0xf92c
                         0000FB02   288 _g_LOGOPR	=	0xfb02
                         0000FCB7   289 _g_GRPACX	=	0xfcb7
                         0000FCB9   290 _g_GRPACY	=	0xfcb9
                         0000FFFF   291 _g_SLTSL	=	0xffff
                                    292 ;--------------------------------------------------------
                                    293 ; ram data
                                    294 ;--------------------------------------------------------
                                    295 	.area _INITIALIZED
                                    296 ;--------------------------------------------------------
                                    297 ; absolute external ram data
                                    298 ;--------------------------------------------------------
                                    299 	.area _DABS (ABS)
                                    300 ;--------------------------------------------------------
                                    301 ; global & static initialisations
                                    302 ;--------------------------------------------------------
                                    303 	.area _HOME
                                    304 	.area _GSINIT
                                    305 	.area _GSFINAL
                                    306 	.area _GSINIT
                                    307 ;--------------------------------------------------------
                                    308 ; Home
                                    309 ;--------------------------------------------------------
                                    310 	.area _HOME
                                    311 	.area _HOME
                                    312 ;--------------------------------------------------------
                                    313 ; code
                                    314 ;--------------------------------------------------------
                                    315 	.area _SEG17
                                    316 ;E:\Dropbox\FAUSTO\SVILUPPI\MSX\CODE\C\MSXgl\projects\soccerlgMSX2/soccerlg_s17_b3.c:10: void AssignThrowInTargets() {
                                    317 ;	---------------------------------
                                    318 ; Function AssignThrowInTargets
                                    319 ; ---------------------------------
    00000000                        320 _AssignThrowInTargets::
    00000000 DD E5            [15]  321 	push	ix
    00000002 DD 21 00 00      [14]  322 	ld	ix,#0
    00000006 DD 39            [15]  323 	add	ix,sp
    00000008 21 EB FF         [10]  324 	ld	hl, #-21
    0000000B 39               [11]  325 	add	hl, sp
    0000000C F9               [ 6]  326 	ld	sp, hl
                                    327 ;E:\Dropbox\FAUSTO\SVILUPPI\MSX\CODE\C\MSXgl\projects\soccerlgMSX2/soccerlg_s17_b3.c:11: u8 team_to_throw = (LastTouchTeam == TEAM_1) ? TEAM_2 : TEAM_1;
    0000000D 3Ar00r00         [13]  328 	ld	a, (_LastTouchTeam+0)
    00000010 B7               [ 4]  329 	or	a, a
    00000011 20 06            [12]  330 	jr	NZ, 00183$
    00000013 01 01 00         [10]  331 	ld	bc, #0x0001
    00000016 C3r1Cr00         [10]  332 	jp	00184$
    00000019                        333 00183$:
    00000019 01 00 00         [10]  334 	ld	bc, #0x0000
    0000001C                        335 00184$:
    0000001C DD 71 F3         [19]  336 	ld	-13 (ix), c
                                    337 ;E:\Dropbox\FAUSTO\SVILUPPI\MSX\CODE\C\MSXgl\projects\soccerlgMSX2/soccerlg_s17_b3.c:12: if (LastTouchTeam == 0xFF) team_to_throw = TEAM_1;
    0000001F 3Ar00r00         [13]  338 	ld	a, (_LastTouchTeam+0)
    00000022 3C               [ 4]  339 	inc	a
    00000023 20 04            [12]  340 	jr	NZ, 00102$
    00000025 DD 36 F3 00      [19]  341 	ld	-13 (ix), #0x00
    00000029                        342 00102$:
                                    343 ;E:\Dropbox\FAUSTO\SVILUPPI\MSX\CODE\C\MSXgl\projects\soccerlgMSX2/soccerlg_s17_b3.c:15: if (RestartSideY < 48) RestartSideY = 48;
    00000029 2Ar00r00         [16]  344 	ld	hl, (_RestartSideY)
    0000002C 11 30 00         [10]  345 	ld	de, #0x0030
    0000002F BF               [ 4]  346 	cp	a, a
    00000030 ED 52            [15]  347 	sbc	hl, de
    00000032 30 06            [12]  348 	jr	NC, 00104$
    00000034 21 30 00         [10]  349 	ld	hl, #0x0030
    00000037 22r00r00         [16]  350 	ld	(_RestartSideY), hl
    0000003A                        351 00104$:
                                    352 ;E:\Dropbox\FAUSTO\SVILUPPI\MSX\CODE\C\MSXgl\projects\soccerlgMSX2/soccerlg_s17_b3.c:16: if (RestartSideY > 464) RestartSideY = 464;
    0000003A 2Ar00r00         [16]  353 	ld	hl, (_RestartSideY)
    0000003D 3E D0            [ 7]  354 	ld	a, #0xd0
    0000003F BD               [ 4]  355 	cp	a, l
    00000040 3E 01            [ 7]  356 	ld	a, #0x01
    00000042 9C               [ 4]  357 	sbc	a, h
    00000043 30 06            [12]  358 	jr	NC, 00106$
    00000045 21 D0 01         [10]  359 	ld	hl, #0x01d0
    00000048 22r00r00         [16]  360 	ld	(_RestartSideY), hl
    0000004B                        361 00106$:
                                    362 ;E:\Dropbox\FAUSTO\SVILUPPI\MSX\CODE\C\MSXgl\projects\soccerlgMSX2/soccerlg_s17_b3.c:19: u8 start_t = (team_to_throw == TEAM_1) ? 1 : 8;
    0000004B DD 7E F3         [19]  363 	ld	a, -13 (ix)
    0000004E B7               [ 4]  364 	or	a, a
    0000004F 20 06            [12]  365 	jr	NZ, 00185$
    00000051 01 01 00         [10]  366 	ld	bc, #0x0001
    00000054 C3r5Ar00         [10]  367 	jp	00186$
    00000057                        368 00185$:
    00000057 01 08 00         [10]  369 	ld	bc, #0x0008
    0000005A                        370 00186$:
                                    371 ;E:\Dropbox\FAUSTO\SVILUPPI\MSX\CODE\C\MSXgl\projects\soccerlgMSX2/soccerlg_s17_b3.c:20: u8 end_t = start_t + 6;
    0000005A DD 71 FF         [19]  372 	ld	-1 (ix), c
    0000005D 79               [ 4]  373 	ld	a, c
    0000005E DD 77 FD         [19]  374 	ld	-3 (ix), a
    00000061 C6 06            [ 7]  375 	add	a, #0x06
    00000063 DD 77 F4         [19]  376 	ld	-12 (ix), a
                                    377 ;E:\Dropbox\FAUSTO\SVILUPPI\MSX\CODE\C\MSXgl\projects\soccerlgMSX2/soccerlg_s17_b3.c:21: u8 thrower = start_t;
    00000066 DD 7E FF         [19]  378 	ld	a, -1 (ix)
    00000069 DD 77 EF         [19]  379 	ld	-17 (ix), a
                                    380 ;E:\Dropbox\FAUSTO\SVILUPPI\MSX\CODE\C\MSXgl\projects\soccerlgMSX2/soccerlg_s17_b3.c:22: u16 min_dist = 0xFFFF;
    0000006C DD 36 F5 FF      [19]  381 	ld	-11 (ix), #0xff
    00000070 DD 36 F6 FF      [19]  382 	ld	-10 (ix), #0xff
                                    383 ;E:\Dropbox\FAUSTO\SVILUPPI\MSX\CODE\C\MSXgl\projects\soccerlgMSX2/soccerlg_s17_b3.c:24: for (u8 i = start_t; i < end_t; i++) {
    00000074 DD 7E FF         [19]  384 	ld	a, -1 (ix)
    00000077 DD 77 FE         [19]  385 	ld	-2 (ix), a
    0000007A                        386 00169$:
    0000007A DD 7E FE         [19]  387 	ld	a, -2 (ix)
    0000007D DD 96 F4         [19]  388 	sub	a, -12 (ix)
    00000080 D2r36r01         [10]  389 	jp	NC, 00109$
                                    390 ;E:\Dropbox\FAUSTO\SVILUPPI\MSX\CODE\C\MSXgl\projects\soccerlgMSX2/soccerlg_s17_b3.c:25: u16 dx = (SwSprite[i].lx > RestartSideX) ? (SwSprite[i].lx - RestartSideX) : (RestartSideX - SwSprite[i].lx);
    00000083 DD 4E FE         [19]  391 	ld	c, -2 (ix)
    00000086 06 00            [ 7]  392 	ld	b, #0x00
    00000088 69               [ 4]  393 	ld	l, c
    00000089 60               [ 4]  394 	ld	h, b
    0000008A 29               [11]  395 	add	hl, hl
    0000008B 29               [11]  396 	add	hl, hl
    0000008C 09               [11]  397 	add	hl, bc
    0000008D 29               [11]  398 	add	hl, hl
    0000008E 09               [11]  399 	add	hl, bc
    0000008F 29               [11]  400 	add	hl, hl
    00000090 09               [11]  401 	add	hl, bc
    00000091 11r00r00         [10]  402 	ld	de, #_SwSprite
    00000094 19               [11]  403 	add	hl, de
    00000095 DD 75 FB         [19]  404 	ld	-5 (ix), l
    00000098 DD 74 FC         [19]  405 	ld	-4 (ix), h
    0000009B 7E               [ 7]  406 	ld	a, (hl)
    0000009C DD 77 FA         [19]  407 	ld	-6 (ix), a
    0000009F 4F               [ 4]  408 	ld	c, a
    000000A0 06 00            [ 7]  409 	ld	b, #0x00
    000000A2 3Ar00r00         [13]  410 	ld	a, (_RestartSideX+0)
    000000A5 5F               [ 4]  411 	ld	e, a
    000000A6 16 00            [ 7]  412 	ld	d, #0x00
    000000A8 3Ar00r00         [13]  413 	ld	a, (#_RestartSideX)
    000000AB DD 96 FA         [19]  414 	sub	a, -6 (ix)
    000000AE 30 08            [12]  415 	jr	NC, 00187$
    000000B0 79               [ 4]  416 	ld	a, c
    000000B1 93               [ 4]  417 	sub	a, e
    000000B2 4F               [ 4]  418 	ld	c, a
    000000B3 78               [ 4]  419 	ld	a, b
    000000B4 9A               [ 4]  420 	sbc	a, d
    000000B5 C3rBDr00         [10]  421 	jp	00188$
    000000B8                        422 00187$:
    000000B8 7B               [ 4]  423 	ld	a, e
    000000B9 91               [ 4]  424 	sub	a, c
    000000BA 4F               [ 4]  425 	ld	c, a
    000000BB 7A               [ 4]  426 	ld	a, d
    000000BC 98               [ 4]  427 	sbc	a, b
    000000BD                        428 00188$:
    000000BD DD 71 F7         [19]  429 	ld	-9 (ix), c
    000000C0 DD 77 F8         [19]  430 	ld	-8 (ix), a
                                    431 ;E:\Dropbox\FAUSTO\SVILUPPI\MSX\CODE\C\MSXgl\projects\soccerlgMSX2/soccerlg_s17_b3.c:26: u16 dy = (SwSprite[i].ly > RestartSideY) ? (SwSprite[i].ly - RestartSideY) : (RestartSideY - SwSprite[i].ly);
    000000C3 DD 4E FB         [19]  432 	ld	c, -5 (ix)
    000000C6 DD 46 FC         [19]  433 	ld	b, -4 (ix)
    000000C9 21 04 00         [10]  434 	ld	hl, #4
    000000CC 09               [11]  435 	add	hl, bc
    000000CD 7E               [ 7]  436 	ld	a, (hl)
    000000CE DD 77 F9         [19]  437 	ld	-7 (ix), a
    000000D1 23               [ 6]  438 	inc	hl
    000000D2 7E               [ 7]  439 	ld	a, (hl)
    000000D3 DD 77 FA         [19]  440 	ld	-6 (ix), a
    000000D6 21r00r00         [10]  441 	ld	hl, #_RestartSideY
    000000D9 7E               [ 7]  442 	ld	a, (hl)
    000000DA DD 96 F9         [19]  443 	sub	a, -7 (ix)
    000000DD 23               [ 6]  444 	inc	hl
    000000DE 7E               [ 7]  445 	ld	a, (hl)
    000000DF DD 9E FA         [19]  446 	sbc	a, -6 (ix)
    000000E2 30 15            [12]  447 	jr	NC, 00189$
    000000E4 21r00r00         [10]  448 	ld	hl, #_RestartSideY
    000000E7 DD 7E F9         [19]  449 	ld	a, -7 (ix)
    000000EA 96               [ 7]  450 	sub	a, (hl)
    000000EB DD 77 FB         [19]  451 	ld	-5 (ix), a
    000000EE DD 7E FA         [19]  452 	ld	a, -6 (ix)
    000000F1 23               [ 6]  453 	inc	hl
    000000F2 9E               [ 7]  454 	sbc	a, (hl)
    000000F3 DD 77 FC         [19]  455 	ld	-4 (ix), a
    000000F6 C3r0Br01         [10]  456 	jp	00190$
    000000F9                        457 00189$:
    000000F9 3Ar00r00         [13]  458 	ld	a, (_RestartSideY+0)
    000000FC DD 96 F9         [19]  459 	sub	a, -7 (ix)
    000000FF DD 77 FB         [19]  460 	ld	-5 (ix), a
    00000102 3Ar01r00         [13]  461 	ld	a, (_RestartSideY+1)
    00000105 DD 9E FA         [19]  462 	sbc	a, -6 (ix)
    00000108 DD 77 FC         [19]  463 	ld	-4 (ix), a
    0000010B                        464 00190$:
    0000010B DD 7E FB         [19]  465 	ld	a, -5 (ix)
    0000010E DD 46 FC         [19]  466 	ld	b, -4 (ix)
                                    467 ;E:\Dropbox\FAUSTO\SVILUPPI\MSX\CODE\C\MSXgl\projects\soccerlgMSX2/soccerlg_s17_b3.c:27: if (dx + dy < min_dist) {
    00000111 DD 86 F7         [19]  468 	add	a, -9 (ix)
    00000114 4F               [ 4]  469 	ld	c, a
    00000115 78               [ 4]  470 	ld	a, b
    00000116 DD 8E F8         [19]  471 	adc	a, -8 (ix)
    00000119 47               [ 4]  472 	ld	b, a
    0000011A 79               [ 4]  473 	ld	a, c
    0000011B DD 96 F5         [19]  474 	sub	a, -11 (ix)
    0000011E 78               [ 4]  475 	ld	a, b
    0000011F DD 9E F6         [19]  476 	sbc	a, -10 (ix)
    00000122 30 0C            [12]  477 	jr	NC, 00170$
                                    478 ;E:\Dropbox\FAUSTO\SVILUPPI\MSX\CODE\C\MSXgl\projects\soccerlgMSX2/soccerlg_s17_b3.c:28: min_dist = dx + dy;
    00000124 DD 71 F5         [19]  479 	ld	-11 (ix), c
    00000127 DD 70 F6         [19]  480 	ld	-10 (ix), b
                                    481 ;E:\Dropbox\FAUSTO\SVILUPPI\MSX\CODE\C\MSXgl\projects\soccerlgMSX2/soccerlg_s17_b3.c:29: thrower = i;
    0000012A DD 7E FE         [19]  482 	ld	a, -2 (ix)
    0000012D DD 77 EF         [19]  483 	ld	-17 (ix), a
    00000130                        484 00170$:
                                    485 ;E:\Dropbox\FAUSTO\SVILUPPI\MSX\CODE\C\MSXgl\projects\soccerlgMSX2/soccerlg_s17_b3.c:24: for (u8 i = start_t; i < end_t; i++) {
    00000130 DD 34 FE         [23]  486 	inc	-2 (ix)
    00000133 C3r7Ar00         [10]  487 	jp	00169$
    00000136                        488 00109$:
                                    489 ;E:\Dropbox\FAUSTO\SVILUPPI\MSX\CODE\C\MSXgl\projects\soccerlgMSX2/soccerlg_s17_b3.c:34: u8 rec1 = (thrower == start_t) ? start_t + 1 : start_t;
    00000136 DD 7E EF         [19]  490 	ld	a, -17 (ix)
    00000139 DD 96 FF         [19]  491 	sub	a, -1 (ix)
    0000013C 3E 01            [ 7]  492 	ld	a, #0x01
    0000013E 28 01            [12]  493 	jr	Z, 00539$
    00000140 AF               [ 4]  494 	xor	a, a
    00000141                        495 00539$:
    00000141 DD 77 FE         [19]  496 	ld	-2 (ix), a
    00000144 B7               [ 4]  497 	or	a, a
    00000145 28 07            [12]  498 	jr	Z, 00191$
    00000147 DD 7E FD         [19]  499 	ld	a, -3 (ix)
    0000014A 3C               [ 4]  500 	inc	a
    0000014B C3r51r01         [10]  501 	jp	00192$
    0000014E                        502 00191$:
    0000014E DD 7E FF         [19]  503 	ld	a, -1 (ix)
    00000151                        504 00192$:
    00000151 DD 77 F0         [19]  505 	ld	-16 (ix), a
                                    506 ;E:\Dropbox\FAUSTO\SVILUPPI\MSX\CODE\C\MSXgl\projects\soccerlgMSX2/soccerlg_s17_b3.c:35: u8 rec2 = (thrower == start_t) ? start_t + 2 : ((thrower == start_t + 1) ? start_t + 2 : start_t + 1);
    00000154 DD 7E FE         [19]  507 	ld	a, -2 (ix)
    00000157 B7               [ 4]  508 	or	a, a
    00000158 28 08            [12]  509 	jr	Z, 00193$
    0000015A DD 7E FD         [19]  510 	ld	a, -3 (ix)
    0000015D 3C               [ 4]  511 	inc	a
    0000015E 3C               [ 4]  512 	inc	a
    0000015F C3rA2r01         [10]  513 	jp	00194$
    00000162                        514 00193$:
    00000162 DD 7E FF         [19]  515 	ld	a, -1 (ix)
    00000165 DD 77 FB         [19]  516 	ld	-5 (ix), a
    00000168 DD 36 FC 00      [19]  517 	ld	-4 (ix), #0x00
    0000016C DD 7E FB         [19]  518 	ld	a, -5 (ix)
    0000016F C6 01            [ 7]  519 	add	a, #0x01
    00000171 DD 77 F9         [19]  520 	ld	-7 (ix), a
    00000174 DD 7E FC         [19]  521 	ld	a, -4 (ix)
    00000177 CE 00            [ 7]  522 	adc	a, #0x00
    00000179 DD 77 FA         [19]  523 	ld	-6 (ix), a
    0000017C DD 7E EF         [19]  524 	ld	a, -17 (ix)
    0000017F DD 77 FB         [19]  525 	ld	-5 (ix), a
    00000182 DD 36 FC 00      [19]  526 	ld	-4 (ix), #0x00
    00000186 DD 7E F9         [19]  527 	ld	a, -7 (ix)
    00000189 DD 96 FB         [19]  528 	sub	a, -5 (ix)
    0000018C 20 10            [12]  529 	jr	NZ, 00195$
    0000018E DD 7E FA         [19]  530 	ld	a, -6 (ix)
    00000191 DD 96 FC         [19]  531 	sub	a, -4 (ix)
    00000194 20 08            [12]  532 	jr	NZ, 00195$
    00000196 DD 7E FD         [19]  533 	ld	a, -3 (ix)
    00000199 3C               [ 4]  534 	inc	a
    0000019A 3C               [ 4]  535 	inc	a
    0000019B C3rA2r01         [10]  536 	jp	00196$
    0000019E                        537 00195$:
    0000019E DD 7E FD         [19]  538 	ld	a, -3 (ix)
    000001A1 3C               [ 4]  539 	inc	a
    000001A2                        540 00196$:
    000001A2                        541 00194$:
    000001A2 DD 77 F1         [19]  542 	ld	-15 (ix), a
                                    543 ;E:\Dropbox\FAUSTO\SVILUPPI\MSX\CODE\C\MSXgl\projects\soccerlgMSX2/soccerlg_s17_b3.c:36: u16 min1 = 0xFFFF, min2 = 0xFFFF;
    000001A5 DD 36 F5 FF      [19]  544 	ld	-11 (ix), #0xff
    000001A9 DD 36 F6 FF      [19]  545 	ld	-10 (ix), #0xff
    000001AD DD 36 F7 FF      [19]  546 	ld	-9 (ix), #0xff
    000001B1 DD 36 F8 FF      [19]  547 	ld	-8 (ix), #0xff
                                    548 ;E:\Dropbox\FAUSTO\SVILUPPI\MSX\CODE\C\MSXgl\projects\soccerlgMSX2/soccerlg_s17_b3.c:38: for (u8 i = start_t; i < end_t; i++) {
    000001B5                        549 00172$:
    000001B5 DD 7E FF         [19]  550 	ld	a, -1 (ix)
    000001B8 DD 96 F4         [19]  551 	sub	a, -12 (ix)
    000001BB D2rA5r02         [10]  552 	jp	NC, 00118$
                                    553 ;E:\Dropbox\FAUSTO\SVILUPPI\MSX\CODE\C\MSXgl\projects\soccerlgMSX2/soccerlg_s17_b3.c:39: if (i == thrower) continue;
    000001BE DD 7E EF         [19]  554 	ld	a, -17 (ix)
    000001C1 DD 96 FF         [19]  555 	sub	a, -1 (ix)
    000001C4 CAr9Fr02         [10]  556 	jp	Z,00117$
                                    557 ;E:\Dropbox\FAUSTO\SVILUPPI\MSX\CODE\C\MSXgl\projects\soccerlgMSX2/soccerlg_s17_b3.c:40: u16 dx = (SwSprite[i].lx > RestartSideX) ? (SwSprite[i].lx - RestartSideX) : (RestartSideX - SwSprite[i].lx);
    000001C7 DD 4E FF         [19]  558 	ld	c, -1 (ix)
    000001CA 06 00            [ 7]  559 	ld	b, #0x00
    000001CC 69               [ 4]  560 	ld	l, c
    000001CD 60               [ 4]  561 	ld	h, b
    000001CE 29               [11]  562 	add	hl, hl
    000001CF 29               [11]  563 	add	hl, hl
    000001D0 09               [11]  564 	add	hl, bc
    000001D1 29               [11]  565 	add	hl, hl
    000001D2 09               [11]  566 	add	hl, bc
    000001D3 29               [11]  567 	add	hl, hl
    000001D4 09               [11]  568 	add	hl, bc
    000001D5 11r00r00         [10]  569 	ld	de, #_SwSprite
    000001D8 19               [11]  570 	add	hl, de
    000001D9 DD 75 FD         [19]  571 	ld	-3 (ix), l
    000001DC DD 74 FE         [19]  572 	ld	-2 (ix), h
    000001DF 7E               [ 7]  573 	ld	a, (hl)
    000001E0 DD 77 FC         [19]  574 	ld	-4 (ix), a
                                    575 ;E:\Dropbox\FAUSTO\SVILUPPI\MSX\CODE\C\MSXgl\projects\soccerlgMSX2/soccerlg_s17_b3.c:25: u16 dx = (SwSprite[i].lx > RestartSideX) ? (SwSprite[i].lx - RestartSideX) : (RestartSideX - SwSprite[i].lx);
    000001E3 3Ar00r00         [13]  576 	ld	a, (_RestartSideX+0)
    000001E6 4F               [ 4]  577 	ld	c, a
    000001E7 06 00            [ 7]  578 	ld	b, #0x00
                                    579 ;E:\Dropbox\FAUSTO\SVILUPPI\MSX\CODE\C\MSXgl\projects\soccerlgMSX2/soccerlg_s17_b3.c:40: u16 dx = (SwSprite[i].lx > RestartSideX) ? (SwSprite[i].lx - RestartSideX) : (RestartSideX - SwSprite[i].lx);
    000001E9 DD 5E FC         [19]  580 	ld	e, -4 (ix)
    000001EC 16 00            [ 7]  581 	ld	d, #0x00
    000001EE 3Ar00r00         [13]  582 	ld	a, (#_RestartSideX)
    000001F1 DD 96 FC         [19]  583 	sub	a, -4 (ix)
    000001F4 30 08            [12]  584 	jr	NC, 00197$
    000001F6 7B               [ 4]  585 	ld	a, e
    000001F7 91               [ 4]  586 	sub	a, c
    000001F8 4F               [ 4]  587 	ld	c, a
    000001F9 7A               [ 4]  588 	ld	a, d
    000001FA 98               [ 4]  589 	sbc	a, b
    000001FB C3r03r02         [10]  590 	jp	00198$
    000001FE                        591 00197$:
    000001FE 79               [ 4]  592 	ld	a, c
    000001FF 93               [ 4]  593 	sub	a, e
    00000200 4F               [ 4]  594 	ld	c, a
    00000201 78               [ 4]  595 	ld	a, b
    00000202 9A               [ 4]  596 	sbc	a, d
    00000203                        597 00198$:
    00000203 DD 71 F9         [19]  598 	ld	-7 (ix), c
    00000206 DD 77 FA         [19]  599 	ld	-6 (ix), a
                                    600 ;E:\Dropbox\FAUSTO\SVILUPPI\MSX\CODE\C\MSXgl\projects\soccerlgMSX2/soccerlg_s17_b3.c:41: u16 dy = (SwSprite[i].ly > RestartSideY) ? (SwSprite[i].ly - RestartSideY) : (RestartSideY - SwSprite[i].ly);
    00000209 DD 4E FD         [19]  601 	ld	c, -3 (ix)
    0000020C DD 46 FE         [19]  602 	ld	b, -2 (ix)
    0000020F 21 04 00         [10]  603 	ld	hl, #4
    00000212 09               [11]  604 	add	hl, bc
    00000213 7E               [ 7]  605 	ld	a, (hl)
    00000214 DD 77 FB         [19]  606 	ld	-5 (ix), a
    00000217 23               [ 6]  607 	inc	hl
    00000218 7E               [ 7]  608 	ld	a, (hl)
    00000219 DD 77 FC         [19]  609 	ld	-4 (ix), a
    0000021C 21r00r00         [10]  610 	ld	hl, #_RestartSideY
    0000021F 7E               [ 7]  611 	ld	a, (hl)
    00000220 DD 96 FB         [19]  612 	sub	a, -5 (ix)
    00000223 23               [ 6]  613 	inc	hl
    00000224 7E               [ 7]  614 	ld	a, (hl)
    00000225 DD 9E FC         [19]  615 	sbc	a, -4 (ix)
    00000228 30 15            [12]  616 	jr	NC, 00199$
    0000022A 21r00r00         [10]  617 	ld	hl, #_RestartSideY
    0000022D DD 7E FB         [19]  618 	ld	a, -5 (ix)
    00000230 96               [ 7]  619 	sub	a, (hl)
    00000231 DD 77 FD         [19]  620 	ld	-3 (ix), a
    00000234 DD 7E FC         [19]  621 	ld	a, -4 (ix)
    00000237 23               [ 6]  622 	inc	hl
    00000238 9E               [ 7]  623 	sbc	a, (hl)
    00000239 DD 77 FE         [19]  624 	ld	-2 (ix), a
    0000023C C3r51r02         [10]  625 	jp	00200$
    0000023F                        626 00199$:
    0000023F 3Ar00r00         [13]  627 	ld	a, (_RestartSideY+0)
    00000242 DD 96 FB         [19]  628 	sub	a, -5 (ix)
    00000245 DD 77 FD         [19]  629 	ld	-3 (ix), a
    00000248 3Ar01r00         [13]  630 	ld	a, (_RestartSideY+1)
    0000024B DD 9E FC         [19]  631 	sbc	a, -4 (ix)
    0000024E DD 77 FE         [19]  632 	ld	-2 (ix), a
    00000251                        633 00200$:
    00000251 DD 4E FD         [19]  634 	ld	c, -3 (ix)
    00000254 DD 46 FE         [19]  635 	ld	b, -2 (ix)
                                    636 ;E:\Dropbox\FAUSTO\SVILUPPI\MSX\CODE\C\MSXgl\projects\soccerlgMSX2/soccerlg_s17_b3.c:42: if (dx + dy < min1) {
    00000257 DD 6E F9         [19]  637 	ld	l, -7 (ix)
    0000025A DD 66 FA         [19]  638 	ld	h, -6 (ix)
    0000025D 09               [11]  639 	add	hl, bc
    0000025E 7D               [ 4]  640 	ld	a, l
    0000025F DD 96 F5         [19]  641 	sub	a, -11 (ix)
    00000262 7C               [ 4]  642 	ld	a, h
    00000263 DD 9E F6         [19]  643 	sbc	a, -10 (ix)
    00000266 30 21            [12]  644 	jr	NC, 00115$
                                    645 ;E:\Dropbox\FAUSTO\SVILUPPI\MSX\CODE\C\MSXgl\projects\soccerlgMSX2/soccerlg_s17_b3.c:43: min2 = min1; rec2 = rec1;
    00000268 DD 7E F5         [19]  646 	ld	a, -11 (ix)
    0000026B DD 77 F7         [19]  647 	ld	-9 (ix), a
    0000026E DD 7E F6         [19]  648 	ld	a, -10 (ix)
    00000271 DD 77 F8         [19]  649 	ld	-8 (ix), a
    00000274 DD 7E F0         [19]  650 	ld	a, -16 (ix)
    00000277 DD 77 F1         [19]  651 	ld	-15 (ix), a
                                    652 ;E:\Dropbox\FAUSTO\SVILUPPI\MSX\CODE\C\MSXgl\projects\soccerlgMSX2/soccerlg_s17_b3.c:44: min1 = dx + dy; rec1 = i;
    0000027A DD 75 F5         [19]  653 	ld	-11 (ix), l
    0000027D DD 74 F6         [19]  654 	ld	-10 (ix), h
    00000280 DD 7E FF         [19]  655 	ld	a, -1 (ix)
    00000283 DD 77 F0         [19]  656 	ld	-16 (ix), a
    00000286 C3r9Fr02         [10]  657 	jp	00117$
    00000289                        658 00115$:
                                    659 ;E:\Dropbox\FAUSTO\SVILUPPI\MSX\CODE\C\MSXgl\projects\soccerlgMSX2/soccerlg_s17_b3.c:45: } else if (dx + dy < min2) {
    00000289 7D               [ 4]  660 	ld	a, l
    0000028A DD 96 F7         [19]  661 	sub	a, -9 (ix)
    0000028D 7C               [ 4]  662 	ld	a, h
    0000028E DD 9E F8         [19]  663 	sbc	a, -8 (ix)
    00000291 30 0C            [12]  664 	jr	NC, 00117$
                                    665 ;E:\Dropbox\FAUSTO\SVILUPPI\MSX\CODE\C\MSXgl\projects\soccerlgMSX2/soccerlg_s17_b3.c:46: min2 = dx + dy; rec2 = i;
    00000293 DD 75 F7         [19]  666 	ld	-9 (ix), l
    00000296 DD 74 F8         [19]  667 	ld	-8 (ix), h
    00000299 DD 7E FF         [19]  668 	ld	a, -1 (ix)
    0000029C DD 77 F1         [19]  669 	ld	-15 (ix), a
    0000029F                        670 00117$:
                                    671 ;E:\Dropbox\FAUSTO\SVILUPPI\MSX\CODE\C\MSXgl\projects\soccerlgMSX2/soccerlg_s17_b3.c:38: for (u8 i = start_t; i < end_t; i++) {
    0000029F DD 34 FF         [23]  672 	inc	-1 (ix)
    000002A2 C3rB5r01         [10]  673 	jp	00172$
    000002A5                        674 00118$:
                                    675 ;E:\Dropbox\FAUSTO\SVILUPPI\MSX\CODE\C\MSXgl\projects\soccerlgMSX2/soccerlg_s17_b3.c:51: u8 def_t = (team_to_throw == TEAM_1) ? 8 : 1;
    000002A5 DD 7E F3         [19]  676 	ld	a, -13 (ix)
    000002A8 B7               [ 4]  677 	or	a, a
    000002A9 20 06            [12]  678 	jr	NZ, 00201$
    000002AB 01 08 00         [10]  679 	ld	bc, #0x0008
    000002AE C3rB4r02         [10]  680 	jp	00202$
    000002B1                        681 00201$:
    000002B1 01 01 00         [10]  682 	ld	bc, #0x0001
    000002B4                        683 00202$:
                                    684 ;E:\Dropbox\FAUSTO\SVILUPPI\MSX\CODE\C\MSXgl\projects\soccerlgMSX2/soccerlg_s17_b3.c:52: u8 def_end = def_t + 6;
    000002B4 DD 71 FF         [19]  685 	ld	-1 (ix), c
    000002B7 79               [ 4]  686 	ld	a, c
    000002B8 DD 77 FE         [19]  687 	ld	-2 (ix), a
    000002BB C6 06            [ 7]  688 	add	a, #0x06
    000002BD DD 77 F7         [19]  689 	ld	-9 (ix), a
                                    690 ;E:\Dropbox\FAUSTO\SVILUPPI\MSX\CODE\C\MSXgl\projects\soccerlgMSX2/soccerlg_s17_b3.c:53: u8 def1 = def_t, def2 = def_t + 1;
    000002C0 DD 7E FF         [19]  691 	ld	a, -1 (ix)
    000002C3 DD 77 F2         [19]  692 	ld	-14 (ix), a
    000002C6 DD 7E FE         [19]  693 	ld	a, -2 (ix)
    000002C9 3C               [ 4]  694 	inc	a
    000002CA DD 77 F3         [19]  695 	ld	-13 (ix), a
                                    696 ;E:\Dropbox\FAUSTO\SVILUPPI\MSX\CODE\C\MSXgl\projects\soccerlgMSX2/soccerlg_s17_b3.c:54: min1 = 0xFFFF; min2 = 0xFFFF;
    000002CD DD 36 F8 FF      [19]  697 	ld	-8 (ix), #0xff
    000002D1 DD 36 F9 FF      [19]  698 	ld	-7 (ix), #0xff
    000002D5 DD 36 FA FF      [19]  699 	ld	-6 (ix), #0xff
    000002D9 DD 36 FB FF      [19]  700 	ld	-5 (ix), #0xff
                                    701 ;E:\Dropbox\FAUSTO\SVILUPPI\MSX\CODE\C\MSXgl\projects\soccerlgMSX2/soccerlg_s17_b3.c:56: for (u8 i = def_t; i < def_end; i++) {
    000002DD DD 7E FF         [19]  702 	ld	a, -1 (ix)
    000002E0 DD 77 FD         [19]  703 	ld	-3 (ix), a
    000002E3                        704 00174$:
                                    705 ;E:\Dropbox\FAUSTO\SVILUPPI\MSX\CODE\C\MSXgl\projects\soccerlgMSX2/soccerlg_s17_b3.c:25: u16 dx = (SwSprite[i].lx > RestartSideX) ? (SwSprite[i].lx - RestartSideX) : (RestartSideX - SwSprite[i].lx);
    000002E3 3Ar00r00         [13]  706 	ld	a, (_RestartSideX+0)
    000002E6 DD 77 FE         [19]  707 	ld	-2 (ix), a
    000002E9 DD 36 FF 00      [19]  708 	ld	-1 (ix), #0x00
                                    709 ;E:\Dropbox\FAUSTO\SVILUPPI\MSX\CODE\C\MSXgl\projects\soccerlgMSX2/soccerlg_s17_b3.c:56: for (u8 i = def_t; i < def_end; i++) {
    000002ED DD 7E FD         [19]  710 	ld	a, -3 (ix)
    000002F0 DD 96 F7         [19]  711 	sub	a, -9 (ix)
    000002F3 D2rB7r03         [10]  712 	jp	NC, 00124$
                                    713 ;E:\Dropbox\FAUSTO\SVILUPPI\MSX\CODE\C\MSXgl\projects\soccerlgMSX2/soccerlg_s17_b3.c:57: u16 dx = (SwSprite[i].lx > RestartSideX) ? (SwSprite[i].lx - RestartSideX) : (RestartSideX - SwSprite[i].lx);
    000002F6 DD 4E FD         [19]  714 	ld	c, -3 (ix)
    000002F9 06 00            [ 7]  715 	ld	b, #0x00
    000002FB 69               [ 4]  716 	ld	l, c
    000002FC 60               [ 4]  717 	ld	h, b
    000002FD 29               [11]  718 	add	hl, hl
    000002FE 29               [11]  719 	add	hl, hl
    000002FF 09               [11]  720 	add	hl, bc
    00000300 29               [11]  721 	add	hl, hl
    00000301 09               [11]  722 	add	hl, bc
    00000302 29               [11]  723 	add	hl, hl
    00000303 09               [11]  724 	add	hl, bc
    00000304 EB               [ 4]  725 	ex	de, hl
    00000305 21r00r00         [10]  726 	ld	hl, #_SwSprite
    00000308 19               [11]  727 	add	hl, de
    00000309 EB               [ 4]  728 	ex	de, hl
    0000030A 1A               [ 7]  729 	ld	a, (de)
    0000030B DD 77 FC         [19]  730 	ld	-4 (ix), a
    0000030E 4F               [ 4]  731 	ld	c, a
    0000030F 06 00            [ 7]  732 	ld	b, #0x00
    00000311 3Ar00r00         [13]  733 	ld	a, (#_RestartSideX)
    00000314 DD 96 FC         [19]  734 	sub	a, -4 (ix)
    00000317 30 0C            [12]  735 	jr	NC, 00203$
    00000319 79               [ 4]  736 	ld	a, c
    0000031A DD 96 FE         [19]  737 	sub	a, -2 (ix)
    0000031D 4F               [ 4]  738 	ld	c, a
    0000031E 78               [ 4]  739 	ld	a, b
    0000031F DD 9E FF         [19]  740 	sbc	a, -1 (ix)
    00000322 C3r2Er03         [10]  741 	jp	00204$
    00000325                        742 00203$:
    00000325 DD 7E FE         [19]  743 	ld	a, -2 (ix)
    00000328 91               [ 4]  744 	sub	a, c
    00000329 4F               [ 4]  745 	ld	c, a
    0000032A DD 7E FF         [19]  746 	ld	a, -1 (ix)
    0000032D 98               [ 4]  747 	sbc	a, b
    0000032E                        748 00204$:
    0000032E 47               [ 4]  749 	ld	b, a
                                    750 ;E:\Dropbox\FAUSTO\SVILUPPI\MSX\CODE\C\MSXgl\projects\soccerlgMSX2/soccerlg_s17_b3.c:58: u16 dy = (SwSprite[i].ly > RestartSideY) ? (SwSprite[i].ly - RestartSideY) : (RestartSideY - SwSprite[i].ly);
    0000032F 21 04 00         [10]  751 	ld	hl, #4
    00000332 19               [11]  752 	add	hl, de
    00000333 5E               [ 7]  753 	ld	e, (hl)
    00000334 23               [ 6]  754 	inc	hl
    00000335 56               [ 7]  755 	ld	d, (hl)
    00000336 21r00r00         [10]  756 	ld	hl, #_RestartSideY
    00000339 7E               [ 7]  757 	ld	a, (hl)
    0000033A 23               [ 6]  758 	inc	hl
    0000033B 93               [ 4]  759 	sub	a, e
    0000033C 7E               [ 7]  760 	ld	a, (hl)
    0000033D 9A               [ 4]  761 	sbc	a, d
    0000033E 30 0D            [12]  762 	jr	NC, 00205$
    00000340 21r00r00         [10]  763 	ld	hl, #_RestartSideY
    00000343 7B               [ 4]  764 	ld	a, e
    00000344 96               [ 7]  765 	sub	a, (hl)
    00000345 23               [ 6]  766 	inc	hl
    00000346 5F               [ 4]  767 	ld	e, a
    00000347 7A               [ 4]  768 	ld	a, d
    00000348 9E               [ 7]  769 	sbc	a, (hl)
    00000349 57               [ 4]  770 	ld	d, a
    0000034A C3r54r03         [10]  771 	jp	00206$
    0000034D                        772 00205$:
    0000034D 2Ar00r00         [16]  773 	ld	hl, (_RestartSideY)
    00000350 BF               [ 4]  774 	cp	a, a
    00000351 ED 52            [15]  775 	sbc	hl, de
    00000353 EB               [ 4]  776 	ex	de, hl
    00000354                        777 00206$:
    00000354 EB               [ 4]  778 	ex	de, hl
                                    779 ;E:\Dropbox\FAUSTO\SVILUPPI\MSX\CODE\C\MSXgl\projects\soccerlgMSX2/soccerlg_s17_b3.c:59: if (dx + dy < min1) {
    00000355 09               [11]  780 	add	hl, bc
    00000356 DD 75 FE         [19]  781 	ld	-2 (ix), l
    00000359 DD 74 FF         [19]  782 	ld	-1 (ix), h
    0000035C DD 7E FE         [19]  783 	ld	a, -2 (ix)
    0000035F DD 96 F8         [19]  784 	sub	a, -8 (ix)
    00000362 DD 7E FF         [19]  785 	ld	a, -1 (ix)
    00000365 DD 9E F9         [19]  786 	sbc	a, -7 (ix)
    00000368 30 27            [12]  787 	jr	NC, 00122$
                                    788 ;E:\Dropbox\FAUSTO\SVILUPPI\MSX\CODE\C\MSXgl\projects\soccerlgMSX2/soccerlg_s17_b3.c:60: min2 = min1; def2 = def1;
    0000036A DD 7E F8         [19]  789 	ld	a, -8 (ix)
    0000036D DD 77 FA         [19]  790 	ld	-6 (ix), a
    00000370 DD 7E F9         [19]  791 	ld	a, -7 (ix)
    00000373 DD 77 FB         [19]  792 	ld	-5 (ix), a
    00000376 DD 7E F2         [19]  793 	ld	a, -14 (ix)
    00000379 DD 77 F3         [19]  794 	ld	-13 (ix), a
                                    795 ;E:\Dropbox\FAUSTO\SVILUPPI\MSX\CODE\C\MSXgl\projects\soccerlgMSX2/soccerlg_s17_b3.c:61: min1 = dx + dy; def1 = i;
    0000037C DD 7E FE         [19]  796 	ld	a, -2 (ix)
    0000037F DD 4E FF         [19]  797 	ld	c, -1 (ix)
    00000382 DD 77 F8         [19]  798 	ld	-8 (ix), a
    00000385 DD 71 F9         [19]  799 	ld	-7 (ix), c
    00000388 DD 7E FD         [19]  800 	ld	a, -3 (ix)
    0000038B DD 77 F2         [19]  801 	ld	-14 (ix), a
    0000038E C3rB1r03         [10]  802 	jp	00175$
    00000391                        803 00122$:
                                    804 ;E:\Dropbox\FAUSTO\SVILUPPI\MSX\CODE\C\MSXgl\projects\soccerlgMSX2/soccerlg_s17_b3.c:62: } else if (dx + dy < min2) {
    00000391 DD 7E FE         [19]  805 	ld	a, -2 (ix)
    00000394 DD 96 FA         [19]  806 	sub	a, -6 (ix)
    00000397 DD 7E FF         [19]  807 	ld	a, -1 (ix)
    0000039A DD 9E FB         [19]  808 	sbc	a, -5 (ix)
    0000039D 30 12            [12]  809 	jr	NC, 00175$
                                    810 ;E:\Dropbox\FAUSTO\SVILUPPI\MSX\CODE\C\MSXgl\projects\soccerlgMSX2/soccerlg_s17_b3.c:63: min2 = dx + dy; def2 = i;
    0000039F DD 7E FE         [19]  811 	ld	a, -2 (ix)
    000003A2 DD 4E FF         [19]  812 	ld	c, -1 (ix)
    000003A5 DD 77 FA         [19]  813 	ld	-6 (ix), a
    000003A8 DD 71 FB         [19]  814 	ld	-5 (ix), c
    000003AB DD 7E FD         [19]  815 	ld	a, -3 (ix)
    000003AE DD 77 F3         [19]  816 	ld	-13 (ix), a
    000003B1                        817 00175$:
                                    818 ;E:\Dropbox\FAUSTO\SVILUPPI\MSX\CODE\C\MSXgl\projects\soccerlgMSX2/soccerlg_s17_b3.c:56: for (u8 i = def_t; i < def_end; i++) {
    000003B1 DD 34 FD         [23]  819 	inc	-3 (ix)
    000003B4 C3rE3r02         [10]  820 	jp	00174$
    000003B7                        821 00124$:
                                    822 ;E:\Dropbox\FAUSTO\SVILUPPI\MSX\CODE\C\MSXgl\projects\soccerlgMSX2/soccerlg_s17_b3.c:68: u16 thrower_y = RestartSideY - 8;
    000003B7 2Ar00r00         [16]  823 	ld	hl, (_RestartSideY)
    000003BA 7D               [ 4]  824 	ld	a, l
    000003BB C6 F8            [ 7]  825 	add	a, #0xf8
    000003BD 4F               [ 4]  826 	ld	c, a
    000003BE 7C               [ 4]  827 	ld	a, h
    000003BF CE FF            [ 7]  828 	adc	a, #0xff
    000003C1 DD 71 F4         [19]  829 	ld	-12 (ix), c
    000003C4 DD 77 F5         [19]  830 	ld	-11 (ix), a
                                    831 ;E:\Dropbox\FAUSTO\SVILUPPI\MSX\CODE\C\MSXgl\projects\soccerlgMSX2/soccerlg_s17_b3.c:69: i8 dir_x = (RestartSideX < 128) ? 1 : -1;
    000003C7 3Ar00r00         [13]  832 	ld	a, (_RestartSideX+0)
    000003CA D6 80            [ 7]  833 	sub	a, #0x80
    000003CC 30 06            [12]  834 	jr	NC, 00207$
    000003CE 01 01 00         [10]  835 	ld	bc, #0x0001
    000003D1 C3rD7r03         [10]  836 	jp	00208$
    000003D4                        837 00207$:
    000003D4 01 FF FF         [10]  838 	ld	bc, #0xffff
    000003D7                        839 00208$:
                                    840 ;E:\Dropbox\FAUSTO\SVILUPPI\MSX\CODE\C\MSXgl\projects\soccerlgMSX2/soccerlg_s17_b3.c:70: u16 thrower_x = RestartSideX - (dir_x * 8); // Arretra di 8 pixel fuori dal campo
    000003D7 DD 71 F6         [19]  841 	ld	-10 (ix), c
    000003DA 79               [ 4]  842 	ld	a, c
    000003DB 6F               [ 4]  843 	ld	l, a
                                    844 ;	spillPairReg hl
                                    845 ;	spillPairReg hl
    000003DC 07               [ 4]  846 	rlca
    000003DD 9F               [ 4]  847 	sbc	a, a
    000003DE 67               [ 4]  848 	ld	h, a
    000003DF 29               [11]  849 	add	hl, hl
    000003E0 29               [11]  850 	add	hl, hl
    000003E1 29               [11]  851 	add	hl, hl
    000003E2 DD 7E FE         [19]  852 	ld	a, -2 (ix)
    000003E5 95               [ 4]  853 	sub	a, l
    000003E6 4F               [ 4]  854 	ld	c, a
    000003E7 DD 7E FF         [19]  855 	ld	a, -1 (ix)
    000003EA 9C               [ 4]  856 	sbc	a, h
    000003EB DD 71 F7         [19]  857 	ld	-9 (ix), c
    000003EE DD 77 F8         [19]  858 	ld	-8 (ix), a
                                    859 ;E:\Dropbox\FAUSTO\SVILUPPI\MSX\CODE\C\MSXgl\projects\soccerlgMSX2/soccerlg_s17_b3.c:72: SwSprite[14].lx = thrower_x;
    000003F1 DD 7E F7         [19]  860 	ld	a, -9 (ix)
    000003F4 32r42r01         [13]  861 	ld	(#(_SwSprite + 322)),a
                                    862 ;E:\Dropbox\FAUSTO\SVILUPPI\MSX\CODE\C\MSXgl\projects\soccerlgMSX2/soccerlg_s17_b3.c:73: SwSprite[14].ly = thrower_y - 6; // Palla sopra la testa del battitore
    000003F7 DD 7E F4         [19]  863 	ld	a, -12 (ix)
    000003FA DD 4E F5         [19]  864 	ld	c, -11 (ix)
    000003FD C6 FA            [ 7]  865 	add	a, #0xfa
    000003FF 5F               [ 4]  866 	ld	e, a
    00000400 79               [ 4]  867 	ld	a, c
    00000401 CE FF            [ 7]  868 	adc	a, #0xff
    00000403 57               [ 4]  869 	ld	d, a
    00000404 ED 53r46r01      [20]  870 	ld	((_SwSprite + 326)), de
                                    871 ;E:\Dropbox\FAUSTO\SVILUPPI\MSX\CODE\C\MSXgl\projects\soccerlgMSX2/soccerlg_s17_b3.c:74: SwSprite[14].frame = SPR_BALL_SIZE_2; 
    00000408 21 61 00         [10]  872 	ld	hl, #0x0061
    0000040B 22r51r01         [16]  873 	ld	((_SwSprite + 337)), hl
                                    874 ;E:\Dropbox\FAUSTO\SVILUPPI\MSX\CODE\C\MSXgl\projects\soccerlgMSX2/soccerlg_s17_b3.c:75: SwSprite[14].dx = SwSprite[14].dy = SwSprite[14].anim = SwSprite[14].count = 0;
    0000040E 6C               [ 4]  875 	ld	l, h
    0000040F 22r57r01         [16]  876 	ld	((_SwSprite + 343)), hl
    00000412 22r55r01         [16]  877 	ld	((_SwSprite + 341)), hl
    00000415 21r54r01         [10]  878 	ld	hl, #(_SwSprite + 340)
    00000418 36 00            [10]  879 	ld	(hl), #0x00
    0000041A 21r53r01         [10]  880 	ld	hl, #(_SwSprite + 339)
    0000041D 36 00            [10]  881 	ld	(hl), #0x00
                                    882 ;E:\Dropbox\FAUSTO\SVILUPPI\MSX\CODE\C\MSXgl\projects\soccerlgMSX2/soccerlg_s17_b3.c:76: g_thrower_id = thrower;
    0000041F DD 7E EF         [19]  883 	ld	a, -17 (ix)
    00000422 32r00r00         [13]  884 	ld	(_g_thrower_id+0), a
                                    885 ;E:\Dropbox\FAUSTO\SVILUPPI\MSX\CODE\C\MSXgl\projects\soccerlgMSX2/soccerlg_s17_b3.c:78: g_throw_rec_1 = rec1;
    00000425 DD 7E F0         [19]  886 	ld	a, -16 (ix)
    00000428 32r00r00         [13]  887 	ld	(_g_throw_rec_1+0), a
                                    888 ;E:\Dropbox\FAUSTO\SVILUPPI\MSX\CODE\C\MSXgl\projects\soccerlgMSX2/soccerlg_s17_b3.c:79: g_throw_rec_2 = rec2;
    0000042B DD 7E F1         [19]  889 	ld	a, -15 (ix)
    0000042E 32r00r00         [13]  890 	ld	(_g_throw_rec_2+0), a
                                    891 ;E:\Dropbox\FAUSTO\SVILUPPI\MSX\CODE\C\MSXgl\projects\soccerlgMSX2/soccerlg_s17_b3.c:80: g_selected_rec = 0;
    00000431 21r00r00         [10]  892 	ld	hl, #_g_selected_rec
    00000434 36 00            [10]  893 	ld	(hl), #0x00
                                    894 ;E:\Dropbox\FAUSTO\SVILUPPI\MSX\CODE\C\MSXgl\projects\soccerlgMSX2/soccerlg_s17_b3.c:83: SwSprite[0].tx = 128; SwSprite[0].ty = 32;
    00000436 21r0Cr00         [10]  895 	ld	hl, #(_SwSprite + 12)
    00000439 36 80            [10]  896 	ld	(hl), #0x80
    0000043B 21 20 00         [10]  897 	ld	hl, #0x0020
    0000043E 22r0Dr00         [16]  898 	ld	((_SwSprite + 13)), hl
                                    899 ;E:\Dropbox\FAUSTO\SVILUPPI\MSX\CODE\C\MSXgl\projects\soccerlgMSX2/soccerlg_s17_b3.c:84: SwSprite[7].tx = 128; SwSprite[7].ty = 444;
    00000441 21rADr00         [10]  900 	ld	hl, #(_SwSprite + 173)
    00000444 36 80            [10]  901 	ld	(hl), #0x80
    00000446 21 BC 01         [10]  902 	ld	hl, #0x01bc
    00000449 22rAEr00         [16]  903 	ld	((_SwSprite + 174)), hl
                                    904 ;E:\Dropbox\FAUSTO\SVILUPPI\MSX\CODE\C\MSXgl\projects\soccerlgMSX2/soccerlg_s17_b3.c:87: for(u8 i=1; i<14; i++) {
    0000044C DD 36 FF 01      [19]  905 	ld	-1 (ix), #0x01
    00000450                        906 00177$:
    00000450 DD 7E FF         [19]  907 	ld	a, -1 (ix)
    00000453 D6 0E            [ 7]  908 	sub	a, #0x0e
    00000455 D2r3Ar06         [10]  909 	jp	NC, 00158$
                                    910 ;E:\Dropbox\FAUSTO\SVILUPPI\MSX\CODE\C\MSXgl\projects\soccerlgMSX2/soccerlg_s17_b3.c:88: if (i == 7 || i == thrower || i == rec1 || i == rec2 || i == def1 || i == def2) continue;
    00000458 DD 7E FF         [19]  911 	ld	a, -1 (ix)
    0000045B D6 07            [ 7]  912 	sub	a, #0x07
    0000045D CAr34r06         [10]  913 	jp	Z,00157$
    00000460 DD 7E EF         [19]  914 	ld	a, -17 (ix)
    00000463 DD 96 FF         [19]  915 	sub	a, -1 (ix)
    00000466 CAr34r06         [10]  916 	jp	Z,00157$
    00000469 DD 7E F0         [19]  917 	ld	a, -16 (ix)
    0000046C DD 96 FF         [19]  918 	sub	a, -1 (ix)
    0000046F CAr34r06         [10]  919 	jp	Z,00157$
    00000472 DD 7E F1         [19]  920 	ld	a, -15 (ix)
    00000475 DD 96 FF         [19]  921 	sub	a, -1 (ix)
    00000478 CAr34r06         [10]  922 	jp	Z,00157$
    0000047B DD 7E F2         [19]  923 	ld	a, -14 (ix)
    0000047E DD 96 FF         [19]  924 	sub	a, -1 (ix)
    00000481 CAr34r06         [10]  925 	jp	Z,00157$
    00000484 DD 7E F3         [19]  926 	ld	a, -13 (ix)
    00000487 DD 96 FF         [19]  927 	sub	a, -1 (ix)
    0000048A CAr34r06         [10]  928 	jp	Z,00157$
                                    929 ;E:\Dropbox\FAUSTO\SVILUPPI\MSX\CODE\C\MSXgl\projects\soccerlgMSX2/soccerlg_s17_b3.c:90: u8 team = (i < 7) ? TEAM_1 : TEAM_2;
    0000048D DD 7E FF         [19]  930 	ld	a, -1 (ix)
    00000490 D6 07            [ 7]  931 	sub	a, #0x07
    00000492 30 06            [12]  932 	jr	NC, 00209$
    00000494 11 00 00         [10]  933 	ld	de, #0x0000
    00000497 C3r9Dr04         [10]  934 	jp	00210$
    0000049A                        935 00209$:
    0000049A 11 01 00         [10]  936 	ld	de, #0x0001
    0000049D                        937 00210$:
    0000049D 4B               [ 4]  938 	ld	c, e
                                    939 ;E:\Dropbox\FAUSTO\SVILUPPI\MSX\CODE\C\MSXgl\projects\soccerlgMSX2/soccerlg_s17_b3.c:91: u8 role = (team == TEAM_1) ? i : (i - 7);
    0000049E 79               [ 4]  940 	ld	a, c
    0000049F B7               [ 4]  941 	or	a, a
    000004A0 20 06            [12]  942 	jr	NZ, 00211$
    000004A2 DD 7E FF         [19]  943 	ld	a, -1 (ix)
    000004A5 C3rADr04         [10]  944 	jp	00212$
    000004A8                        945 00211$:
    000004A8 DD 7E FF         [19]  946 	ld	a, -1 (ix)
    000004AB C6 F9            [ 7]  947 	add	a, #0xf9
    000004AD                        948 00212$:
                                    949 ;E:\Dropbox\FAUSTO\SVILUPPI\MSX\CODE\C\MSXgl\projects\soccerlgMSX2/soccerlg_s17_b3.c:92: u16 base_x = 128;
    000004AD DD 36 F9 80      [19]  950 	ld	-7 (ix), #0x80
    000004B1 DD 36 FA 00      [19]  951 	ld	-6 (ix), #0x00
                                    952 ;E:\Dropbox\FAUSTO\SVILUPPI\MSX\CODE\C\MSXgl\projects\soccerlgMSX2/soccerlg_s17_b3.c:93: u16 base_y = 256;
    000004B5 DD 36 FB 00      [19]  953 	ld	-5 (ix), #0x00
    000004B9 DD 36 FC 01      [19]  954 	ld	-4 (ix), #0x01
                                    955 ;E:\Dropbox\FAUSTO\SVILUPPI\MSX\CODE\C\MSXgl\projects\soccerlgMSX2/soccerlg_s17_b3.c:95: if (role == 1) { base_x = 64;  base_y = (team == TEAM_1) ? 120 : 392; }
    000004BD FE 01            [ 7]  956 	cp	a, #0x01
    000004BF 20 1E            [12]  957 	jr	NZ, 00147$
    000004C1 DD 36 F9 40      [19]  958 	ld	-7 (ix), #0x40
    000004C5 DD 36 FA 00      [19]  959 	ld	-6 (ix), #0
    000004C9 79               [ 4]  960 	ld	a, c
    000004CA B7               [ 4]  961 	or	a, a
    000004CB 20 06            [12]  962 	jr	NZ, 00213$
    000004CD 11 78 00         [10]  963 	ld	de, #0x0078
    000004D0 C3rD6r04         [10]  964 	jp	00214$
    000004D3                        965 00213$:
    000004D3 11 88 01         [10]  966 	ld	de, #0x0188
    000004D6                        967 00214$:
    000004D6 DD 73 FB         [19]  968 	ld	-5 (ix), e
    000004D9 DD 72 FC         [19]  969 	ld	-4 (ix), d
    000004DC C3r96r05         [10]  970 	jp	00148$
    000004DF                        971 00147$:
                                    972 ;E:\Dropbox\FAUSTO\SVILUPPI\MSX\CODE\C\MSXgl\projects\soccerlgMSX2/soccerlg_s17_b3.c:96: else if (role == 2) { base_x = 192; base_y = (team == TEAM_1) ? 120 : 392; }
    000004DF FE 02            [ 7]  973 	cp	a, #0x02
    000004E1 20 2E            [12]  974 	jr	NZ, 00144$
    000004E3 DD 36 F9 C0      [19]  975 	ld	-7 (ix), #0xc0
    000004E7 DD 36 FA 00      [19]  976 	ld	-6 (ix), #0
    000004EB 79               [ 4]  977 	ld	a, c
    000004EC B7               [ 4]  978 	or	a, a
    000004ED 20 0B            [12]  979 	jr	NZ, 00215$
    000004EF DD 36 FD 78      [19]  980 	ld	-3 (ix), #0x78
    000004F3 DD 36 FE 00      [19]  981 	ld	-2 (ix), #0
    000004F7 C3r02r05         [10]  982 	jp	00216$
    000004FA                        983 00215$:
    000004FA DD 36 FD 88      [19]  984 	ld	-3 (ix), #0x88
    000004FE DD 36 FE 01      [19]  985 	ld	-2 (ix), #0x01
    00000502                        986 00216$:
    00000502 DD 7E FD         [19]  987 	ld	a, -3 (ix)
    00000505 DD 77 FB         [19]  988 	ld	-5 (ix), a
    00000508 DD 7E FE         [19]  989 	ld	a, -2 (ix)
    0000050B DD 77 FC         [19]  990 	ld	-4 (ix), a
    0000050E C3r96r05         [10]  991 	jp	00148$
    00000511                        992 00144$:
                                    993 ;E:\Dropbox\FAUSTO\SVILUPPI\MSX\CODE\C\MSXgl\projects\soccerlgMSX2/soccerlg_s17_b3.c:97: else if (role == 3) { base_x = 64;  base_y = (team == TEAM_1) ? 200 : 312; }
    00000511 FE 03            [ 7]  994 	cp	a, #0x03
    00000513 20 1E            [12]  995 	jr	NZ, 00141$
    00000515 DD 36 F9 40      [19]  996 	ld	-7 (ix), #0x40
    00000519 DD 36 FA 00      [19]  997 	ld	-6 (ix), #0
    0000051D 79               [ 4]  998 	ld	a, c
    0000051E B7               [ 4]  999 	or	a, a
    0000051F 20 06            [12] 1000 	jr	NZ, 00217$
    00000521 01 C8 00         [10] 1001 	ld	bc, #0x00c8
    00000524 C3r2Ar05         [10] 1002 	jp	00218$
    00000527                       1003 00217$:
    00000527 01 38 01         [10] 1004 	ld	bc, #0x0138
    0000052A                       1005 00218$:
    0000052A DD 71 FB         [19] 1006 	ld	-5 (ix), c
    0000052D DD 70 FC         [19] 1007 	ld	-4 (ix), b
    00000530 C3r96r05         [10] 1008 	jp	00148$
    00000533                       1009 00141$:
                                   1010 ;E:\Dropbox\FAUSTO\SVILUPPI\MSX\CODE\C\MSXgl\projects\soccerlgMSX2/soccerlg_s17_b3.c:98: else if (role == 4) { base_x = 192; base_y = (team == TEAM_1) ? 200 : 312; }
    00000533 FE 04            [ 7] 1011 	cp	a, #0x04
    00000535 20 1E            [12] 1012 	jr	NZ, 00138$
    00000537 DD 36 F9 C0      [19] 1013 	ld	-7 (ix), #0xc0
    0000053B DD 36 FA 00      [19] 1014 	ld	-6 (ix), #0
    0000053F 79               [ 4] 1015 	ld	a, c
    00000540 B7               [ 4] 1016 	or	a, a
    00000541 20 06            [12] 1017 	jr	NZ, 00219$
    00000543 01 C8 00         [10] 1018 	ld	bc, #0x00c8
    00000546 C3r4Cr05         [10] 1019 	jp	00220$
    00000549                       1020 00219$:
    00000549 01 38 01         [10] 1021 	ld	bc, #0x0138
    0000054C                       1022 00220$:
    0000054C DD 71 FB         [19] 1023 	ld	-5 (ix), c
    0000054F DD 70 FC         [19] 1024 	ld	-4 (ix), b
    00000552 C3r96r05         [10] 1025 	jp	00148$
    00000555                       1026 00138$:
                                   1027 ;E:\Dropbox\FAUSTO\SVILUPPI\MSX\CODE\C\MSXgl\projects\soccerlgMSX2/soccerlg_s17_b3.c:99: else if (role == 5) { base_x = 80;  base_y = (team == TEAM_1) ? 280 : 232; }
    00000555 FE 05            [ 7] 1028 	cp	a, #0x05
    00000557 20 1E            [12] 1029 	jr	NZ, 00135$
    00000559 DD 36 F9 50      [19] 1030 	ld	-7 (ix), #0x50
    0000055D DD 36 FA 00      [19] 1031 	ld	-6 (ix), #0
    00000561 79               [ 4] 1032 	ld	a, c
    00000562 B7               [ 4] 1033 	or	a, a
    00000563 20 06            [12] 1034 	jr	NZ, 00221$
    00000565 01 18 01         [10] 1035 	ld	bc, #0x0118
    00000568 C3r6Er05         [10] 1036 	jp	00222$
    0000056B                       1037 00221$:
    0000056B 01 E8 00         [10] 1038 	ld	bc, #0x00e8
    0000056E                       1039 00222$:
    0000056E DD 71 FB         [19] 1040 	ld	-5 (ix), c
    00000571 DD 70 FC         [19] 1041 	ld	-4 (ix), b
    00000574 C3r96r05         [10] 1042 	jp	00148$
    00000577                       1043 00135$:
                                   1044 ;E:\Dropbox\FAUSTO\SVILUPPI\MSX\CODE\C\MSXgl\projects\soccerlgMSX2/soccerlg_s17_b3.c:100: else if (role == 6) { base_x = 176; base_y = (team == TEAM_1) ? 280 : 232; }
    00000577 D6 06            [ 7] 1045 	sub	a, #0x06
    00000579 20 1B            [12] 1046 	jr	NZ, 00148$
    0000057B DD 36 F9 B0      [19] 1047 	ld	-7 (ix), #0xb0
    0000057F DD 36 FA 00      [19] 1048 	ld	-6 (ix), #0
    00000583 79               [ 4] 1049 	ld	a, c
    00000584 B7               [ 4] 1050 	or	a, a
    00000585 20 06            [12] 1051 	jr	NZ, 00223$
    00000587 01 18 01         [10] 1052 	ld	bc, #0x0118
    0000058A C3r90r05         [10] 1053 	jp	00224$
    0000058D                       1054 00223$:
    0000058D 01 E8 00         [10] 1055 	ld	bc, #0x00e8
    00000590                       1056 00224$:
    00000590 DD 71 FB         [19] 1057 	ld	-5 (ix), c
    00000593 DD 70 FC         [19] 1058 	ld	-4 (ix), b
    00000596                       1059 00148$:
                                   1060 ;E:\Dropbox\FAUSTO\SVILUPPI\MSX\CODE\C\MSXgl\projects\soccerlgMSX2/soccerlg_s17_b3.c:103: i16 ball_offset_y = (i16)RestartSideY - 256;
    00000596 2Ar00r00         [16] 1061 	ld	hl, (_RestartSideY)
    00000599 4D               [ 4] 1062 	ld	c, l
    0000059A 7C               [ 4] 1063 	ld	a,h
    0000059B 3D               [ 4] 1064 	dec	a
    0000059C 47               [ 4] 1065 	ld	b, a
                                   1066 ;E:\Dropbox\FAUSTO\SVILUPPI\MSX\CODE\C\MSXgl\projects\soccerlgMSX2/soccerlg_s17_b3.c:104: SwSprite[i].tx = base_x;
    0000059D DD 5E FF         [19] 1067 	ld	e, -1 (ix)
    000005A0 16 00            [ 7] 1068 	ld	d, #0x00
    000005A2 6B               [ 4] 1069 	ld	l, e
    000005A3 62               [ 4] 1070 	ld	h, d
    000005A4 29               [11] 1071 	add	hl, hl
    000005A5 29               [11] 1072 	add	hl, hl
    000005A6 19               [11] 1073 	add	hl, de
    000005A7 29               [11] 1074 	add	hl, hl
    000005A8 19               [11] 1075 	add	hl, de
    000005A9 29               [11] 1076 	add	hl, hl
    000005AA 19               [11] 1077 	add	hl, de
    000005AB EB               [ 4] 1078 	ex	de, hl
    000005AC 21r00r00         [10] 1079 	ld	hl, #_SwSprite
    000005AF 19               [11] 1080 	add	hl, de
    000005B0 EB               [ 4] 1081 	ex	de, hl
    000005B1 21 0C 00         [10] 1082 	ld	hl, #0x000c
    000005B4 19               [11] 1083 	add	hl, de
    000005B5 DD 75 FD         [19] 1084 	ld	-3 (ix), l
    000005B8 DD 74 FE         [19] 1085 	ld	-2 (ix), h
    000005BB DD 7E F9         [19] 1086 	ld	a, -7 (ix)
    000005BE DD 6E FD         [19] 1087 	ld	l, -3 (ix)
    000005C1 DD 66 FE         [19] 1088 	ld	h, -2 (ix)
    000005C4 77               [ 7] 1089 	ld	(hl), a
                                   1090 ;E:\Dropbox\FAUSTO\SVILUPPI\MSX\CODE\C\MSXgl\projects\soccerlgMSX2/soccerlg_s17_b3.c:105: SwSprite[i].ty = base_y + (ball_offset_y / 2);
    000005C5 21 0D 00         [10] 1091 	ld	hl, #0x000d
    000005C8 19               [11] 1092 	add	hl, de
    000005C9 EB               [ 4] 1093 	ex	de, hl
    000005CA 69               [ 4] 1094 	ld	l, c
                                   1095 ;	spillPairReg hl
                                   1096 ;	spillPairReg hl
    000005CB 60               [ 4] 1097 	ld	h, b
                                   1098 ;	spillPairReg hl
                                   1099 ;	spillPairReg hl
    000005CC CB 78            [ 8] 1100 	bit	7, b
    000005CE 28 03            [12] 1101 	jr	Z, 00225$
    000005D0 69               [ 4] 1102 	ld	l, c
                                   1103 ;	spillPairReg hl
                                   1104 ;	spillPairReg hl
    000005D1 60               [ 4] 1105 	ld	h, b
                                   1106 ;	spillPairReg hl
                                   1107 ;	spillPairReg hl
    000005D2 23               [ 6] 1108 	inc	hl
    000005D3                       1109 00225$:
    000005D3 CB 2C            [ 8] 1110 	sra	h
    000005D5 CB 1D            [ 8] 1111 	rr	l
    000005D7 DD 4E FB         [19] 1112 	ld	c, -5 (ix)
    000005DA DD 46 FC         [19] 1113 	ld	b, -4 (ix)
    000005DD 09               [11] 1114 	add	hl, bc
    000005DE 4D               [ 4] 1115 	ld	c, l
    000005DF 44               [ 4] 1116 	ld	b, h
    000005E0 6B               [ 4] 1117 	ld	l, e
    000005E1 62               [ 4] 1118 	ld	h, d
    000005E2 71               [ 7] 1119 	ld	(hl), c
    000005E3 23               [ 6] 1120 	inc	hl
    000005E4 70               [ 7] 1121 	ld	(hl), b
                                   1122 ;E:\Dropbox\FAUSTO\SVILUPPI\MSX\CODE\C\MSXgl\projects\soccerlgMSX2/soccerlg_s17_b3.c:107: if (SwSprite[i].tx < 16) SwSprite[i].tx = 16;
    000005E5 DD 6E FD         [19] 1123 	ld	l, -3 (ix)
    000005E8 DD 66 FE         [19] 1124 	ld	h, -2 (ix)
    000005EB 7E               [ 7] 1125 	ld	a, (hl)
    000005EC D6 10            [ 7] 1126 	sub	a, #0x10
    000005EE 30 08            [12] 1127 	jr	NC, 00150$
    000005F0 DD 6E FD         [19] 1128 	ld	l, -3 (ix)
    000005F3 DD 66 FE         [19] 1129 	ld	h, -2 (ix)
    000005F6 36 10            [10] 1130 	ld	(hl), #0x10
    000005F8                       1131 00150$:
                                   1132 ;E:\Dropbox\FAUSTO\SVILUPPI\MSX\CODE\C\MSXgl\projects\soccerlgMSX2/soccerlg_s17_b3.c:108: if (SwSprite[i].tx > 224) SwSprite[i].tx = 224;
    000005F8 DD 6E FD         [19] 1133 	ld	l, -3 (ix)
    000005FB DD 66 FE         [19] 1134 	ld	h, -2 (ix)
    000005FE 4E               [ 7] 1135 	ld	c, (hl)
    000005FF 3E E0            [ 7] 1136 	ld	a, #0xe0
    00000601 91               [ 4] 1137 	sub	a, c
    00000602 30 08            [12] 1138 	jr	NC, 00152$
    00000604 DD 6E FD         [19] 1139 	ld	l, -3 (ix)
    00000607 DD 66 FE         [19] 1140 	ld	h, -2 (ix)
    0000060A 36 E0            [10] 1141 	ld	(hl), #0xe0
    0000060C                       1142 00152$:
                                   1143 ;E:\Dropbox\FAUSTO\SVILUPPI\MSX\CODE\C\MSXgl\projects\soccerlgMSX2/soccerlg_s17_b3.c:109: if (SwSprite[i].ty < 48) SwSprite[i].ty = 48;
    0000060C 6B               [ 4] 1144 	ld	l, e
    0000060D 62               [ 4] 1145 	ld	h, d
    0000060E 4E               [ 7] 1146 	ld	c, (hl)
    0000060F 23               [ 6] 1147 	inc	hl
    00000610 46               [ 7] 1148 	ld	b, (hl)
    00000611 79               [ 4] 1149 	ld	a, c
    00000612 D6 30            [ 7] 1150 	sub	a, #0x30
    00000614 78               [ 4] 1151 	ld	a, b
    00000615 DE 00            [ 7] 1152 	sbc	a, #0x00
    00000617 30 07            [12] 1153 	jr	NC, 00154$
    00000619 6B               [ 4] 1154 	ld	l, e
    0000061A 62               [ 4] 1155 	ld	h, d
    0000061B 36 30            [10] 1156 	ld	(hl), #0x30
    0000061D 23               [ 6] 1157 	inc	hl
    0000061E 36 00            [10] 1158 	ld	(hl), #0x00
    00000620                       1159 00154$:
                                   1160 ;E:\Dropbox\FAUSTO\SVILUPPI\MSX\CODE\C\MSXgl\projects\soccerlgMSX2/soccerlg_s17_b3.c:110: if (SwSprite[i].ty > 464) SwSprite[i].ty = 464;
    00000620 6B               [ 4] 1161 	ld	l, e
    00000621 62               [ 4] 1162 	ld	h, d
    00000622 4E               [ 7] 1163 	ld	c, (hl)
    00000623 23               [ 6] 1164 	inc	hl
    00000624 46               [ 7] 1165 	ld	b, (hl)
    00000625 3E D0            [ 7] 1166 	ld	a, #0xd0
    00000627 B9               [ 4] 1167 	cp	a, c
    00000628 3E 01            [ 7] 1168 	ld	a, #0x01
    0000062A 98               [ 4] 1169 	sbc	a, b
    0000062B 30 07            [12] 1170 	jr	NC, 00157$
    0000062D 3E D0            [ 7] 1171 	ld	a, #0xd0
    0000062F 12               [ 7] 1172 	ld	(de), a
    00000630 13               [ 6] 1173 	inc	de
    00000631 3E 01            [ 7] 1174 	ld	a, #0x01
    00000633 12               [ 7] 1175 	ld	(de), a
    00000634                       1176 00157$:
                                   1177 ;E:\Dropbox\FAUSTO\SVILUPPI\MSX\CODE\C\MSXgl\projects\soccerlgMSX2/soccerlg_s17_b3.c:87: for(u8 i=1; i<14; i++) {
    00000634 DD 34 FF         [23] 1178 	inc	-1 (ix)
    00000637 C3r50r04         [10] 1179 	jp	00177$
    0000063A                       1180 00158$:
                                   1181 ;E:\Dropbox\FAUSTO\SVILUPPI\MSX\CODE\C\MSXgl\projects\soccerlgMSX2/soccerlg_s17_b3.c:113: SwSprite[thrower].tx = thrower_x;
    0000063A DD 4E EF         [19] 1182 	ld	c, -17 (ix)
    0000063D 06 00            [ 7] 1183 	ld	b, #0x00
    0000063F 69               [ 4] 1184 	ld	l, c
    00000640 60               [ 4] 1185 	ld	h, b
    00000641 29               [11] 1186 	add	hl, hl
    00000642 29               [11] 1187 	add	hl, hl
    00000643 09               [11] 1188 	add	hl, bc
    00000644 29               [11] 1189 	add	hl, hl
    00000645 09               [11] 1190 	add	hl, bc
    00000646 29               [11] 1191 	add	hl, hl
    00000647 09               [11] 1192 	add	hl, bc
    00000648 EB               [ 4] 1193 	ex	de, hl
    00000649 21r00r00         [10] 1194 	ld	hl, #_SwSprite
    0000064C 19               [11] 1195 	add	hl, de
    0000064D EB               [ 4] 1196 	ex	de, hl
    0000064E 21 0C 00         [10] 1197 	ld	hl, #0x000c
    00000651 19               [11] 1198 	add	hl, de
    00000652 DD 7E F7         [19] 1199 	ld	a, -9 (ix)
    00000655 77               [ 7] 1200 	ld	(hl), a
                                   1201 ;E:\Dropbox\FAUSTO\SVILUPPI\MSX\CODE\C\MSXgl\projects\soccerlgMSX2/soccerlg_s17_b3.c:114: SwSprite[thrower].ty = thrower_y;
    00000656 21 0D 00         [10] 1202 	ld	hl, #0x000d
    00000659 19               [11] 1203 	add	hl, de
    0000065A DD 7E F4         [19] 1204 	ld	a, -12 (ix)
    0000065D 77               [ 7] 1205 	ld	(hl), a
    0000065E 23               [ 6] 1206 	inc	hl
    0000065F DD 7E F5         [19] 1207 	ld	a, -11 (ix)
    00000662 77               [ 7] 1208 	ld	(hl), a
                                   1209 ;E:\Dropbox\FAUSTO\SVILUPPI\MSX\CODE\C\MSXgl\projects\soccerlgMSX2/soccerlg_s17_b3.c:117: SwSprite[rec1].tx = RestartSideX + dir_x * 50; SwSprite[rec1].ty = RestartSideY - 48;
    00000663 DD 4E F0         [19] 1210 	ld	c, -16 (ix)
    00000666 06 00            [ 7] 1211 	ld	b, #0x00
    00000668 69               [ 4] 1212 	ld	l, c
    00000669 60               [ 4] 1213 	ld	h, b
    0000066A 29               [11] 1214 	add	hl, hl
    0000066B 29               [11] 1215 	add	hl, hl
    0000066C 09               [11] 1216 	add	hl, bc
    0000066D 29               [11] 1217 	add	hl, hl
    0000066E 09               [11] 1218 	add	hl, bc
    0000066F 29               [11] 1219 	add	hl, hl
    00000670 09               [11] 1220 	add	hl, bc
    00000671 EB               [ 4] 1221 	ex	de, hl
    00000672 21r00r00         [10] 1222 	ld	hl, #_SwSprite
    00000675 19               [11] 1223 	add	hl, de
    00000676 4D               [ 4] 1224 	ld	c, l
    00000677 44               [ 4] 1225 	ld	b, h
    00000678 21 0C 00         [10] 1226 	ld	hl, #0x000c
    0000067B 09               [11] 1227 	add	hl, bc
    0000067C EB               [ 4] 1228 	ex	de, hl
    0000067D D5               [11] 1229 	push	de
    0000067E DD 6E F6         [19] 1230 	ld	l, -10 (ix)
                                   1231 ;	spillPairReg hl
                                   1232 ;	spillPairReg hl
    00000681 5D               [ 4] 1233 	ld	e, l
    00000682 29               [11] 1234 	add	hl, hl
    00000683 19               [11] 1235 	add	hl, de
    00000684 29               [11] 1236 	add	hl, hl
    00000685 29               [11] 1237 	add	hl, hl
    00000686 29               [11] 1238 	add	hl, hl
    00000687 19               [11] 1239 	add	hl, de
    00000688 29               [11] 1240 	add	hl, hl
    00000689 D1               [10] 1241 	pop	de
    0000068A 3Ar00r00         [13] 1242 	ld	a, (_RestartSideX+0)
    0000068D 85               [ 4] 1243 	add	a, l
    0000068E 12               [ 7] 1244 	ld	(de), a
    0000068F 21 0D 00         [10] 1245 	ld	hl, #0x000d
    00000692 09               [11] 1246 	add	hl, bc
    00000693 ED 4Br00r00      [20] 1247 	ld	bc, (_RestartSideY)
    00000697 79               [ 4] 1248 	ld	a, c
    00000698 C6 D0            [ 7] 1249 	add	a, #0xd0
    0000069A 4F               [ 4] 1250 	ld	c, a
    0000069B 78               [ 4] 1251 	ld	a, b
    0000069C CE FF            [ 7] 1252 	adc	a, #0xff
    0000069E 47               [ 4] 1253 	ld	b, a
    0000069F 71               [ 7] 1254 	ld	(hl), c
    000006A0 23               [ 6] 1255 	inc	hl
    000006A1 70               [ 7] 1256 	ld	(hl), b
                                   1257 ;E:\Dropbox\FAUSTO\SVILUPPI\MSX\CODE\C\MSXgl\projects\soccerlgMSX2/soccerlg_s17_b3.c:118: SwSprite[rec2].tx = RestartSideX + dir_x * 70; SwSprite[rec2].ty = RestartSideY + 32;
    000006A2 DD 4E F1         [19] 1258 	ld	c, -15 (ix)
    000006A5 06 00            [ 7] 1259 	ld	b, #0x00
    000006A7 69               [ 4] 1260 	ld	l, c
    000006A8 60               [ 4] 1261 	ld	h, b
    000006A9 29               [11] 1262 	add	hl, hl
    000006AA 29               [11] 1263 	add	hl, hl
    000006AB 09               [11] 1264 	add	hl, bc
    000006AC 29               [11] 1265 	add	hl, hl
    000006AD 09               [11] 1266 	add	hl, bc
    000006AE 29               [11] 1267 	add	hl, hl
    000006AF 09               [11] 1268 	add	hl, bc
    000006B0 EB               [ 4] 1269 	ex	de, hl
    000006B1 21r00r00         [10] 1270 	ld	hl, #_SwSprite
    000006B4 19               [11] 1271 	add	hl, de
    000006B5 4D               [ 4] 1272 	ld	c, l
    000006B6 44               [ 4] 1273 	ld	b, h
    000006B7 21 0C 00         [10] 1274 	ld	hl, #0x000c
    000006BA 09               [11] 1275 	add	hl, bc
    000006BB EB               [ 4] 1276 	ex	de, hl
    000006BC D5               [11] 1277 	push	de
    000006BD DD 6E F6         [19] 1278 	ld	l, -10 (ix)
                                   1279 ;	spillPairReg hl
                                   1280 ;	spillPairReg hl
    000006C0 5D               [ 4] 1281 	ld	e, l
    000006C1 29               [11] 1282 	add	hl, hl
    000006C2 29               [11] 1283 	add	hl, hl
    000006C3 29               [11] 1284 	add	hl, hl
    000006C4 29               [11] 1285 	add	hl, hl
    000006C5 19               [11] 1286 	add	hl, de
    000006C6 29               [11] 1287 	add	hl, hl
    000006C7 19               [11] 1288 	add	hl, de
    000006C8 29               [11] 1289 	add	hl, hl
    000006C9 D1               [10] 1290 	pop	de
    000006CA 3Ar00r00         [13] 1291 	ld	a, (_RestartSideX+0)
    000006CD 85               [ 4] 1292 	add	a, l
    000006CE 12               [ 7] 1293 	ld	(de), a
    000006CF 21 0D 00         [10] 1294 	ld	hl, #0x000d
    000006D2 09               [11] 1295 	add	hl, bc
    000006D3 ED 4Br00r00      [20] 1296 	ld	bc, (_RestartSideY)
    000006D7 79               [ 4] 1297 	ld	a, c
    000006D8 C6 20            [ 7] 1298 	add	a, #0x20
    000006DA 4F               [ 4] 1299 	ld	c, a
    000006DB 30 01            [12] 1300 	jr	NC, 00561$
    000006DD 04               [ 4] 1301 	inc	b
    000006DE                       1302 00561$:
    000006DE 71               [ 7] 1303 	ld	(hl), c
    000006DF 23               [ 6] 1304 	inc	hl
    000006E0 70               [ 7] 1305 	ld	(hl), b
                                   1306 ;E:\Dropbox\FAUSTO\SVILUPPI\MSX\CODE\C\MSXgl\projects\soccerlgMSX2/soccerlg_s17_b3.c:119: SwSprite[def1].tx = RestartSideX + dir_x * 40; SwSprite[def1].ty = RestartSideY - 24;
    000006E1 DD 4E F2         [19] 1307 	ld	c, -14 (ix)
    000006E4 06 00            [ 7] 1308 	ld	b, #0x00
    000006E6 69               [ 4] 1309 	ld	l, c
    000006E7 60               [ 4] 1310 	ld	h, b
    000006E8 29               [11] 1311 	add	hl, hl
    000006E9 29               [11] 1312 	add	hl, hl
    000006EA 09               [11] 1313 	add	hl, bc
    000006EB 29               [11] 1314 	add	hl, hl
    000006EC 09               [11] 1315 	add	hl, bc
    000006ED 29               [11] 1316 	add	hl, hl
    000006EE 09               [11] 1317 	add	hl, bc
    000006EF EB               [ 4] 1318 	ex	de, hl
    000006F0 21r00r00         [10] 1319 	ld	hl, #_SwSprite
    000006F3 19               [11] 1320 	add	hl, de
    000006F4 4D               [ 4] 1321 	ld	c, l
    000006F5 44               [ 4] 1322 	ld	b, h
    000006F6 21 0C 00         [10] 1323 	ld	hl, #0x000c
    000006F9 09               [11] 1324 	add	hl, bc
    000006FA EB               [ 4] 1325 	ex	de, hl
    000006FB D5               [11] 1326 	push	de
    000006FC DD 6E F6         [19] 1327 	ld	l, -10 (ix)
                                   1328 ;	spillPairReg hl
                                   1329 ;	spillPairReg hl
    000006FF 5D               [ 4] 1330 	ld	e, l
    00000700 29               [11] 1331 	add	hl, hl
    00000701 29               [11] 1332 	add	hl, hl
    00000702 19               [11] 1333 	add	hl, de
    00000703 29               [11] 1334 	add	hl, hl
    00000704 29               [11] 1335 	add	hl, hl
    00000705 29               [11] 1336 	add	hl, hl
    00000706 D1               [10] 1337 	pop	de
    00000707 3Ar00r00         [13] 1338 	ld	a, (_RestartSideX+0)
    0000070A 85               [ 4] 1339 	add	a, l
    0000070B 12               [ 7] 1340 	ld	(de), a
    0000070C 21 0D 00         [10] 1341 	ld	hl, #0x000d
    0000070F 09               [11] 1342 	add	hl, bc
    00000710 ED 4Br00r00      [20] 1343 	ld	bc, (_RestartSideY)
    00000714 79               [ 4] 1344 	ld	a, c
    00000715 C6 E8            [ 7] 1345 	add	a, #0xe8
    00000717 4F               [ 4] 1346 	ld	c, a
    00000718 78               [ 4] 1347 	ld	a, b
    00000719 CE FF            [ 7] 1348 	adc	a, #0xff
    0000071B 47               [ 4] 1349 	ld	b, a
    0000071C 71               [ 7] 1350 	ld	(hl), c
    0000071D 23               [ 6] 1351 	inc	hl
    0000071E 70               [ 7] 1352 	ld	(hl), b
                                   1353 ;E:\Dropbox\FAUSTO\SVILUPPI\MSX\CODE\C\MSXgl\projects\soccerlgMSX2/soccerlg_s17_b3.c:120: SwSprite[def2].tx = RestartSideX + dir_x * 60; SwSprite[def2].ty = RestartSideY + 48;
    0000071F DD 4E F3         [19] 1354 	ld	c, -13 (ix)
    00000722 06 00            [ 7] 1355 	ld	b, #0x00
    00000724 69               [ 4] 1356 	ld	l, c
    00000725 60               [ 4] 1357 	ld	h, b
    00000726 29               [11] 1358 	add	hl, hl
    00000727 29               [11] 1359 	add	hl, hl
    00000728 09               [11] 1360 	add	hl, bc
    00000729 29               [11] 1361 	add	hl, hl
    0000072A 09               [11] 1362 	add	hl, bc
    0000072B 29               [11] 1363 	add	hl, hl
    0000072C 09               [11] 1364 	add	hl, bc
    0000072D EB               [ 4] 1365 	ex	de, hl
    0000072E 21r00r00         [10] 1366 	ld	hl, #_SwSprite
    00000731 19               [11] 1367 	add	hl, de
    00000732 4D               [ 4] 1368 	ld	c, l
    00000733 44               [ 4] 1369 	ld	b, h
    00000734 21 0C 00         [10] 1370 	ld	hl, #0x000c
    00000737 09               [11] 1371 	add	hl, bc
    00000738 EB               [ 4] 1372 	ex	de, hl
    00000739 D5               [11] 1373 	push	de
    0000073A DD 6E F6         [19] 1374 	ld	l, -10 (ix)
                                   1375 ;	spillPairReg hl
                                   1376 ;	spillPairReg hl
    0000073D 5D               [ 4] 1377 	ld	e, l
    0000073E 29               [11] 1378 	add	hl, hl
    0000073F 19               [11] 1379 	add	hl, de
    00000740 29               [11] 1380 	add	hl, hl
    00000741 19               [11] 1381 	add	hl, de
    00000742 29               [11] 1382 	add	hl, hl
    00000743 19               [11] 1383 	add	hl, de
    00000744 29               [11] 1384 	add	hl, hl
    00000745 29               [11] 1385 	add	hl, hl
    00000746 D1               [10] 1386 	pop	de
    00000747 3Ar00r00         [13] 1387 	ld	a, (_RestartSideX+0)
    0000074A 85               [ 4] 1388 	add	a, l
    0000074B 12               [ 7] 1389 	ld	(de), a
    0000074C 21 0D 00         [10] 1390 	ld	hl, #0x000d
    0000074F 09               [11] 1391 	add	hl, bc
    00000750 ED 4Br00r00      [20] 1392 	ld	bc, (_RestartSideY)
    00000754 79               [ 4] 1393 	ld	a, c
    00000755 C6 30            [ 7] 1394 	add	a, #0x30
    00000757 4F               [ 4] 1395 	ld	c, a
    00000758 30 01            [12] 1396 	jr	NC, 00562$
    0000075A 04               [ 4] 1397 	inc	b
    0000075B                       1398 00562$:
    0000075B 71               [ 7] 1399 	ld	(hl), c
    0000075C 23               [ 6] 1400 	inc	hl
    0000075D 70               [ 7] 1401 	ld	(hl), b
                                   1402 ;E:\Dropbox\FAUSTO\SVILUPPI\MSX\CODE\C\MSXgl\projects\soccerlgMSX2/soccerlg_s17_b3.c:122: u8 players_to_check[4] = {rec1, rec2, def1, def2};
    0000075E DD 7E F0         [19] 1403 	ld	a, -16 (ix)
    00000761 DD 77 EB         [19] 1404 	ld	-21 (ix), a
    00000764 DD 7E F1         [19] 1405 	ld	a, -15 (ix)
    00000767 DD 77 EC         [19] 1406 	ld	-20 (ix), a
    0000076A DD 7E F2         [19] 1407 	ld	a, -14 (ix)
    0000076D DD 77 ED         [19] 1408 	ld	-19 (ix), a
    00000770 DD 7E F3         [19] 1409 	ld	a, -13 (ix)
    00000773 DD 77 EE         [19] 1410 	ld	-18 (ix), a
                                   1411 ;E:\Dropbox\FAUSTO\SVILUPPI\MSX\CODE\C\MSXgl\projects\soccerlgMSX2/soccerlg_s17_b3.c:123: for(u8 p=0; p<4; p++) {
    00000776 DD 36 FF 00      [19] 1412 	ld	-1 (ix), #0x00
    0000077A                       1413 00179$:
    0000077A DD 7E FF         [19] 1414 	ld	a, -1 (ix)
    0000077D D6 04            [ 7] 1415 	sub	a, #0x04
    0000077F 30 74            [12] 1416 	jr	NC, 00181$
                                   1417 ;E:\Dropbox\FAUSTO\SVILUPPI\MSX\CODE\C\MSXgl\projects\soccerlgMSX2/soccerlg_s17_b3.c:124: u8 idx = players_to_check[p];
    00000781 DD 5E FF         [19] 1418 	ld	e, -1 (ix)
    00000784 16 00            [ 7] 1419 	ld	d, #0x00
    00000786 21 00 00         [10] 1420 	ld	hl, #0
    00000789 39               [11] 1421 	add	hl, sp
    0000078A 19               [11] 1422 	add	hl, de
    0000078B 4E               [ 7] 1423 	ld	c, (hl)
                                   1424 ;E:\Dropbox\FAUSTO\SVILUPPI\MSX\CODE\C\MSXgl\projects\soccerlgMSX2/soccerlg_s17_b3.c:125: if (SwSprite[idx].tx < 16) SwSprite[idx].tx = 16;
    0000078C 06 00            [ 7] 1425 	ld	b, #0x00
    0000078E 69               [ 4] 1426 	ld	l, c
    0000078F 60               [ 4] 1427 	ld	h, b
    00000790 29               [11] 1428 	add	hl, hl
    00000791 29               [11] 1429 	add	hl, hl
    00000792 09               [11] 1430 	add	hl, bc
    00000793 29               [11] 1431 	add	hl, hl
    00000794 09               [11] 1432 	add	hl, bc
    00000795 29               [11] 1433 	add	hl, hl
    00000796 09               [11] 1434 	add	hl, bc
    00000797 EB               [ 4] 1435 	ex	de, hl
    00000798 21r00r00         [10] 1436 	ld	hl, #_SwSprite
    0000079B 19               [11] 1437 	add	hl, de
    0000079C EB               [ 4] 1438 	ex	de, hl
    0000079D 21 0C 00         [10] 1439 	ld	hl, #0x000c
    000007A0 19               [11] 1440 	add	hl, de
    000007A1 DD 75 FD         [19] 1441 	ld	-3 (ix), l
    000007A4 DD 74 FE         [19] 1442 	ld	-2 (ix), h
    000007A7 7E               [ 7] 1443 	ld	a, (hl)
    000007A8 D6 10            [ 7] 1444 	sub	a, #0x10
    000007AA 30 08            [12] 1445 	jr	NC, 00160$
    000007AC DD 6E FD         [19] 1446 	ld	l, -3 (ix)
    000007AF DD 66 FE         [19] 1447 	ld	h, -2 (ix)
    000007B2 36 10            [10] 1448 	ld	(hl), #0x10
    000007B4                       1449 00160$:
                                   1450 ;E:\Dropbox\FAUSTO\SVILUPPI\MSX\CODE\C\MSXgl\projects\soccerlgMSX2/soccerlg_s17_b3.c:126: if (SwSprite[idx].tx > 224) SwSprite[idx].tx = 224;
    000007B4 DD 6E FD         [19] 1451 	ld	l, -3 (ix)
    000007B7 DD 66 FE         [19] 1452 	ld	h, -2 (ix)
    000007BA 4E               [ 7] 1453 	ld	c, (hl)
    000007BB 3E E0            [ 7] 1454 	ld	a, #0xe0
    000007BD 91               [ 4] 1455 	sub	a, c
    000007BE 30 08            [12] 1456 	jr	NC, 00162$
    000007C0 DD 6E FD         [19] 1457 	ld	l, -3 (ix)
    000007C3 DD 66 FE         [19] 1458 	ld	h, -2 (ix)
    000007C6 36 E0            [10] 1459 	ld	(hl), #0xe0
    000007C8                       1460 00162$:
                                   1461 ;E:\Dropbox\FAUSTO\SVILUPPI\MSX\CODE\C\MSXgl\projects\soccerlgMSX2/soccerlg_s17_b3.c:127: if (SwSprite[idx].ty < 24) SwSprite[idx].ty = 24;
    000007C8 21 0D 00         [10] 1462 	ld	hl, #0x000d
    000007CB 19               [11] 1463 	add	hl, de
    000007CC 4E               [ 7] 1464 	ld	c, (hl)
    000007CD 23               [ 6] 1465 	inc	hl
    000007CE 46               [ 7] 1466 	ld	b, (hl)
    000007CF 2B               [ 6] 1467 	dec	hl
    000007D0 79               [ 4] 1468 	ld	a, c
    000007D1 D6 18            [ 7] 1469 	sub	a, #0x18
    000007D3 78               [ 4] 1470 	ld	a, b
    000007D4 DE 00            [ 7] 1471 	sbc	a, #0x00
    000007D6 30 06            [12] 1472 	jr	NC, 00164$
    000007D8 36 18            [10] 1473 	ld	(hl), #0x18
    000007DA 23               [ 6] 1474 	inc	hl
    000007DB 36 00            [10] 1475 	ld	(hl), #0x00
    000007DD 2B               [ 6] 1476 	dec	hl
    000007DE                       1477 00164$:
                                   1478 ;E:\Dropbox\FAUSTO\SVILUPPI\MSX\CODE\C\MSXgl\projects\soccerlgMSX2/soccerlg_s17_b3.c:128: if (SwSprite[idx].ty > 488) SwSprite[idx].ty = 488;
    000007DE 4E               [ 7] 1479 	ld	c, (hl)
    000007DF 23               [ 6] 1480 	inc	hl
    000007E0 46               [ 7] 1481 	ld	b, (hl)
    000007E1 2B               [ 6] 1482 	dec	hl
    000007E2 3E E8            [ 7] 1483 	ld	a, #0xe8
    000007E4 B9               [ 4] 1484 	cp	a, c
    000007E5 3E 01            [ 7] 1485 	ld	a, #0x01
    000007E7 98               [ 4] 1486 	sbc	a, b
    000007E8 30 05            [12] 1487 	jr	NC, 00180$
    000007EA 36 E8            [10] 1488 	ld	(hl), #0xe8
    000007EC 23               [ 6] 1489 	inc	hl
    000007ED 36 01            [10] 1490 	ld	(hl), #0x01
    000007EF                       1491 00180$:
                                   1492 ;E:\Dropbox\FAUSTO\SVILUPPI\MSX\CODE\C\MSXgl\projects\soccerlgMSX2/soccerlg_s17_b3.c:123: for(u8 p=0; p<4; p++) {
    000007EF DD 34 FF         [23] 1493 	inc	-1 (ix)
    000007F2 C3r7Ar07         [10] 1494 	jp	00179$
    000007F5                       1495 00181$:
                                   1496 ;E:\Dropbox\FAUSTO\SVILUPPI\MSX\CODE\C\MSXgl\projects\soccerlgMSX2/soccerlg_s17_b3.c:130: }
    000007F5 DD F9            [10] 1497 	ld	sp, ix
    000007F7 DD E1            [14] 1498 	pop	ix
    000007F9 C9               [10] 1499 	ret
                         0000F380  1500 _g_RDPRIM	=	0xf380
                         0000F385  1501 _g_WRPRIM	=	0xf385
                         0000F38C  1502 _g_CLPRIM	=	0xf38c
                         0000F39A  1503 _g_USRTAB	=	0xf39a
                         0000F3DE  1504 _g_CNSDFG	=	0xf3de
                         0000F3DF  1505 _g_RG0SAV	=	0xf3df
                         0000F3E0  1506 _g_RG1SAV	=	0xf3e0
                         0000F3E1  1507 _g_RG2SAV	=	0xf3e1
                         0000F3E2  1508 _g_RG3SAV	=	0xf3e2
                         0000F3E3  1509 _g_RG4SAV	=	0xf3e3
                         0000F3E4  1510 _g_RG5SAV	=	0xf3e4
                         0000F3E5  1511 _g_RG6SAV	=	0xf3e5
                         0000F3E6  1512 _g_RG7SAV	=	0xf3e6
                         0000F3E7  1513 _g_STATFL	=	0xf3e7
                         0000F3E8  1514 _g_TRGFLG	=	0xf3e8
                         0000F3EC  1515 _g_MAXUPD	=	0xf3ec
                         0000F3EF  1516 _g_MINUPD	=	0xf3ef
                         0000F3F3  1517 _g_QUEUES	=	0xf3f3
                         0000F3F5  1518 _g_FRCNEW	=	0xf3f5
                         0000F3F6  1519 _g_SCNCNT	=	0xf3f6
                         0000F3F7  1520 _g_REPCNT	=	0xf3f7
                         0000F3F8  1521 _g_PUTPNT	=	0xf3f8
                         0000F3FA  1522 _g_GETPNT	=	0xf3fa
                         0000F3FC  1523 _g_CS120	=	0xf3fc
                         0000F401  1524 _g_CS240	=	0xf401
                         0000F406  1525 _g_LOW	=	0xf406
                         0000F408  1526 _g_HIGH	=	0xf408
                         0000F40A  1527 _g_HEADER	=	0xf40a
                         0000F40B  1528 _g_ASPCT1	=	0xf40b
                         0000F40D  1529 _g_ASPCT2	=	0xf40d
                         0000F959  1530 _g_QUETAB	=	0xf959
                         0000F971  1531 _g_QUEBAK	=	0xf971
                         0000F975  1532 _g_VOICAQ	=	0xf975
                         0000F9F5  1533 _g_VOICBQ	=	0xf9f5
                         0000FA75  1534 _g_VOICCQ	=	0xfa75
                         0000FAF5  1535 _g_RS2IQ	=	0xfaf5
                         0000FAF5  1536 _g_DPPAGE	=	0xfaf5
                         0000FAF6  1537 _g_ACPAGE	=	0xfaf6
                         0000FAF7  1538 _g_AVCSAV	=	0xfaf7
                         0000FAF8  1539 _g_EXBRSA	=	0xfaf8
                         0000FAF9  1540 _g_CHRCNT	=	0xfaf9
                         0000FAFA  1541 _g_ROMA	=	0xfafa
                         0000FAFC  1542 _g_MODE	=	0xfafc
                         0000FAFD  1543 _g_NORUSE	=	0xfafd
                         0000FAFE  1544 _g_XSAVE	=	0xfafe
                         0000FB00  1545 _g_YSAVE	=	0xfb00
                         0000FB03  1546 _g_RSTMP	=	0xfb03
                         0000FB03  1547 _g_TOCNT	=	0xfb03
                         0000FB04  1548 _g_RSFCB	=	0xfb04
                         0000FB06  1549 _g_RSIQLN	=	0xfb06
                         0000FB07  1550 _g_MEXBIh	=	0xfb07
                         0000FB0C  1551 _g_OLDSTT	=	0xfb0c
                         0000FB0C  1552 _g_OLDINT	=	0xfb0c
                         0000FB16  1553 _g_DEVNUM	=	0xfb16
                         0000FB17  1554 _g_DATCNT	=	0xfb17
                         0000FB1A  1555 _g_ERRORS	=	0xfb1a
                         0000FB1B  1556 _g_FLAGS	=	0xfb1b
                         0000FB1C  1557 _g_ESTBLS	=	0xfb1c
                         0000FB1D  1558 _g_COMMSK	=	0xfb1d
                         0000FB1E  1559 _g_LSTCOM	=	0xfb1e
                         0000FB1F  1560 _g_LSTMOD	=	0xfb1f
                         0000FB35  1561 _g_PRSCNT	=	0xfb35
                         0000FB36  1562 _g_SAVSP	=	0xfb36
                         0000FB38  1563 _g_VOICEN	=	0xfb38
                         0000FB39  1564 _g_SAVVOL	=	0xfb39
                         0000FB3B  1565 _g_MCLLEN	=	0xfb3b
                         0000FB3C  1566 _g_MCLPTR	=	0xfb3c
                         0000FB3E  1567 _g_QUEUEN	=	0xfb3e
                         0000FB3F  1568 _g_MUSICF	=	0xfb3f
                         0000FB40  1569 _g_PLYCNT	=	0xfb40
                         0000FB41  1570 _g_VCBA	=	0xfb41
                         0000FB66  1571 _g_VCBB	=	0xfb66
                         0000FB8B  1572 _g_VCBC	=	0xfb8b
                         0000FBB0  1573 _g_ENSTOP	=	0xfbb0
                         0000FBB1  1574 _g_BASROM	=	0xfbb1
                         0000FBB2  1575 _g_LINTTB	=	0xfbb2
                         0000FBCA  1576 _g_FSTPOS	=	0xfbca
                         0000FBCC  1577 _g_CODSAV	=	0xfbcc
                         0000FBCD  1578 _g_FNKSWI	=	0xfbcd
                         0000FBCE  1579 _g_FNKFLG	=	0xfbce
                         0000FBD8  1580 _g_ONGSBF	=	0xfbd8
                         0000FBD9  1581 _g_CLIKFL	=	0xfbd9
                         0000FBDA  1582 _g_OLDKEY	=	0xfbda
                         0000FBE5  1583 _g_NEWKEY	=	0xfbe5
                         0000FBF0  1584 _g_KEYBUF	=	0xfbf0
                         0000FC18  1585 _g_LINWRK	=	0xfc18
                         0000FC40  1586 _g_PATWRK	=	0xfc40
                         0000FC48  1587 _g_BOTTOM	=	0xfc48
                         0000FC4A  1588 _g_HIMEM	=	0xfc4a
                         0000FC4C  1589 _g_TRPTBL	=	0xfc4c
                         0000FC9A  1590 _g_RTYCNT	=	0xfc9a
                         0000FC9B  1591 _g_INTFLG	=	0xfc9b
                         0000FC9C  1592 _g_PADY	=	0xfc9c
                         0000FC9D  1593 _g_PADX	=	0xfc9d
                         0000FC9E  1594 _g_JIFFY	=	0xfc9e
                         0000FCA0  1595 _g_INTVAL	=	0xfca0
                         0000FCA2  1596 _g_INTCNT	=	0xfca2
                         0000FCA4  1597 _g_LOWLIM	=	0xfca4
                         0000FCA5  1598 _g_WINWID	=	0xfca5
                         0000FCA6  1599 _g_GRPHED	=	0xfca6
                         0000FCA7  1600 _g_ESCCNT	=	0xfca7
                         0000FCA8  1601 _g_INSFLG	=	0xfca8
                         0000FCA9  1602 _g_CSRSW	=	0xfca9
                         0000FCAA  1603 _g_CSTYLE	=	0xfcaa
                         0000FCAB  1604 _g_CAPST	=	0xfcab
                         0000FCAC  1605 _g_KANAST	=	0xfcac
                         0000FCAD  1606 _g_KANAMD	=	0xfcad
                         0000FCAE  1607 _g_FLBMEM	=	0xfcae
                         0000FCAF  1608 _g_SCRMOD	=	0xfcaf
                         0000FCB0  1609 _g_OLDSCR	=	0xfcb0
                         0000FCB1  1610 _g_CASPRV	=	0xfcb1
                         0000FCB2  1611 _g_BRDATR	=	0xfcb2
                         0000FCB3  1612 _g_GXPOS	=	0xfcb3
                         0000FCB5  1613 _g_GYPOS	=	0xfcb5
                         0000FCBB  1614 _g_DRWFLG	=	0xfcbb
                         0000FCBC  1615 _g_DRWSCL	=	0xfcbc
                         0000FCBD  1616 _g_DRWANG	=	0xfcbd
                         0000FCC1  1617 _g_MNROM	=	0xfcc1
                         0000FCC1  1618 _g_EXPTBL	=	0xfcc1
                         0000FCC5  1619 _g_SLTTBL	=	0xfcc5
                         0000FCC9  1620 _g_SLTATR	=	0xfcc9
                         0000FD09  1621 _g_SLTWRK	=	0xfd09
                         0000FD89  1622 _g_PROCNM	=	0xfd89
                         0000FFE7  1623 _g_RG08SAV	=	0xffe7
                         0000FFE8  1624 _g_RG09SAV	=	0xffe8
                         0000FFE9  1625 _g_RG10SAV	=	0xffe9
                         0000FFEA  1626 _g_RG11SAV	=	0xffea
                         0000FFEB  1627 _g_RG12SAV	=	0xffeb
                         0000FFEC  1628 _g_RG13SAV	=	0xffec
                         0000FFED  1629 _g_RG14SAV	=	0xffed
                         0000FFEE  1630 _g_RG15SAV	=	0xffee
                         0000FFEF  1631 _g_RG16SAV	=	0xffef
                         0000FFF0  1632 _g_RG17SAV	=	0xfff0
                         0000FFF1  1633 _g_RG18SAV	=	0xfff1
                         0000FFF2  1634 _g_RG19SAV	=	0xfff2
                         0000FFF3  1635 _g_RG20SAV	=	0xfff3
                         0000FFF4  1636 _g_RG21SAV	=	0xfff4
                         0000FFF5  1637 _g_RG22SAV	=	0xfff5
                         0000FFF6  1638 _g_RG23SAV	=	0xfff6
                         0000FFF7  1639 _g_MINROM	=	0xfff7
                         0000FFF8  1640 _g_SVFFF8	=	0xfff8
                         0000FFFA  1641 _g_RG25SAV	=	0xfffa
                         0000FFFB  1642 _g_RG26SAV	=	0xfffb
                         0000FFFC  1643 _g_RG27SAV	=	0xfffc
                         0000FFFD  1644 _g_SVFFFD	=	0xfffd
                         00000004  1645 _g_CGTABL	=	0x0004
                         00000006  1646 _g_VDP_DR	=	0x0006
                         00000007  1647 _g_VDP_DW	=	0x0007
                         0000002B  1648 _g_BASRVN	=	0x002b
                         0000002B  1649 _g_ROMVersion	=	0x002b
                         0000002D  1650 _g_MSXVER	=	0x002d
                         0000002E  1651 _g_MSXMID	=	0x002e
                         00000034  1652 _g_CHAR_16	=	0x0034
                         00000000  1653 _g_SUBRID	=	0x0000
                         00000002  1654 _g_STRSRC	=	0x0002
                         0000F30F  1655 _g_KANJTABLE	=	0xf30f
                         0000F323  1656 _g_DISKVE	=	0xf323
                         0000F325  1657 _g_BREAKV	=	0xf325
                         0000F341  1658 _g_RAMAD0	=	0xf341
                         0000F342  1659 _g_RAMAD1	=	0xf342
                         0000F343  1660 _g_RAMAD2	=	0xf343
                         0000F344  1661 _g_RAMAD3	=	0xf344
                         0000F348  1662 _g_MASTER	=	0xf348
                         0000F37D  1663 _g_BDOS	=	0xf37d
                                   1664 ;E:\Dropbox\FAUSTO\SVILUPPI\MSX\CODE\C\MSXgl\projects\soccerlgMSX2/soccerlg_s17_b3.c:132: void AssignGoalKickTargets() {
                                   1665 ;	---------------------------------
                                   1666 ; Function AssignGoalKickTargets
                                   1667 ; ---------------------------------
    000007FA                       1668 _AssignGoalKickTargets::
    000007FA DD E5            [15] 1669 	push	ix
    000007FC DD 21 00 00      [14] 1670 	ld	ix,#0
    00000800 DD 39            [15] 1671 	add	ix,sp
    00000802 21 F2 FF         [10] 1672 	ld	hl, #-14
    00000805 39               [11] 1673 	add	hl, sp
    00000806 F9               [ 6] 1674 	ld	sp, hl
                                   1675 ;E:\Dropbox\FAUSTO\SVILUPPI\MSX\CODE\C\MSXgl\projects\soccerlgMSX2/soccerlg_s17_b3.c:133: u8 team_to_kick = (RestartSideY < 256) ? TEAM_1 : TEAM_2;
    00000807 2Ar00r00         [16] 1676 	ld	hl, (_RestartSideY)
    0000080A 7C               [ 4] 1677 	ld	a, h
    0000080B D6 01            [ 7] 1678 	sub	a, #0x01
    0000080D 30 06            [12] 1679 	jr	NC, 00160$
    0000080F 01 00 00         [10] 1680 	ld	bc, #0x0000
    00000812 C3r18r08         [10] 1681 	jp	00161$
    00000815                       1682 00160$:
    00000815 01 01 00         [10] 1683 	ld	bc, #0x0001
    00000818                       1684 00161$:
                                   1685 ;E:\Dropbox\FAUSTO\SVILUPPI\MSX\CODE\C\MSXgl\projects\soccerlgMSX2/soccerlg_s17_b3.c:134: u8 gk = (team_to_kick == TEAM_1) ? 0 : 7;
    00000818 DD 71 F4         [19] 1686 	ld	-12 (ix), c
    0000081B 79               [ 4] 1687 	ld	a, c
    0000081C B7               [ 4] 1688 	or	a, a
    0000081D 20 06            [12] 1689 	jr	NZ, 00162$
    0000081F 01 00 00         [10] 1690 	ld	bc, #0x0000
    00000822 C3r28r08         [10] 1691 	jp	00163$
    00000825                       1692 00162$:
    00000825 01 07 00         [10] 1693 	ld	bc, #0x0007
    00000828                       1694 00163$:
    00000828 DD 71 F8         [19] 1695 	ld	-8 (ix), c
                                   1696 ;E:\Dropbox\FAUSTO\SVILUPPI\MSX\CODE\C\MSXgl\projects\soccerlgMSX2/soccerlg_s17_b3.c:135: i8 dir_y = (team_to_kick == TEAM_1) ? 1 : -1;
    0000082B DD 7E F4         [19] 1697 	ld	a, -12 (ix)
    0000082E B7               [ 4] 1698 	or	a, a
    0000082F 20 06            [12] 1699 	jr	NZ, 00164$
    00000831 01 01 00         [10] 1700 	ld	bc, #0x0001
    00000834 C3r3Ar08         [10] 1701 	jp	00165$
    00000837                       1702 00164$:
    00000837 01 FF FF         [10] 1703 	ld	bc, #0xffff
    0000083A                       1704 00165$:
    0000083A DD 71 F9         [19] 1705 	ld	-7 (ix), c
                                   1706 ;E:\Dropbox\FAUSTO\SVILUPPI\MSX\CODE\C\MSXgl\projects\soccerlgMSX2/soccerlg_s17_b3.c:137: u16 kick_y = (team_to_kick == TEAM_1) ? 48 : 464;
    0000083D DD 7E F4         [19] 1707 	ld	a, -12 (ix)
    00000840 B7               [ 4] 1708 	or	a, a
    00000841 20 06            [12] 1709 	jr	NZ, 00166$
    00000843 01 30 00         [10] 1710 	ld	bc, #0x0030
    00000846 C3r4Cr08         [10] 1711 	jp	00167$
    00000849                       1712 00166$:
    00000849 01 D0 01         [10] 1713 	ld	bc, #0x01d0
    0000084C                       1714 00167$:
    0000084C DD 71 FA         [19] 1715 	ld	-6 (ix), c
    0000084F DD 70 FB         [19] 1716 	ld	-5 (ix), b
                                   1717 ;E:\Dropbox\FAUSTO\SVILUPPI\MSX\CODE\C\MSXgl\projects\soccerlgMSX2/soccerlg_s17_b3.c:138: u16 gk_start_x = (RestartSideX < 128) ? 75 : 181; // Partenza del portiere
    00000852 3Ar00r00         [13] 1718 	ld	a, (_RestartSideX+0)
    00000855 D6 80            [ 7] 1719 	sub	a, #0x80
    00000857 3E 00            [ 7] 1720 	ld	a, #0x00
    00000859 17               [ 4] 1721 	rla
    0000085A B7               [ 4] 1722 	or	a, a
    0000085B 28 06            [12] 1723 	jr	Z, 00168$
    0000085D 11 4B 00         [10] 1724 	ld	de, #0x004b
    00000860 C3r66r08         [10] 1725 	jp	00169$
    00000863                       1726 00168$:
    00000863 11 B5 00         [10] 1727 	ld	de, #0x00b5
    00000866                       1728 00169$:
    00000866 DD 73 FC         [19] 1729 	ld	-4 (ix), e
    00000869 DD 72 FD         [19] 1730 	ld	-3 (ix), d
                                   1731 ;E:\Dropbox\FAUSTO\SVILUPPI\MSX\CODE\C\MSXgl\projects\soccerlgMSX2/soccerlg_s17_b3.c:139: u16 ball_x = (RestartSideX < 128) ? 95 : 161; // Palla spostata di 20 pixel verso lo specchio della porta
    0000086C B7               [ 4] 1732 	or	a, a
    0000086D 28 06            [12] 1733 	jr	Z, 00170$
    0000086F 11 5F 00         [10] 1734 	ld	de, #0x005f
    00000872 C3r78r08         [10] 1735 	jp	00171$
    00000875                       1736 00170$:
    00000875 11 A1 00         [10] 1737 	ld	de, #0x00a1
    00000878                       1738 00171$:
                                   1739 ;E:\Dropbox\FAUSTO\SVILUPPI\MSX\CODE\C\MSXgl\projects\soccerlgMSX2/soccerlg_s17_b3.c:141: if (RestartType == RESTART_GKSAVE) {
    00000878 3Ar00r00         [13] 1740 	ld	a, (_RestartType+0)
    0000087B D6 04            [ 7] 1741 	sub	a, #0x04
    0000087D 20 15            [12] 1742 	jr	NZ, 00102$
                                   1743 ;E:\Dropbox\FAUSTO\SVILUPPI\MSX\CODE\C\MSXgl\projects\soccerlgMSX2/soccerlg_s17_b3.c:142: gk_start_x = RestartSideX;
    0000087F 3Ar00r00         [13] 1744 	ld	a, (_RestartSideX+0)
    00000882 16 00            [ 7] 1745 	ld	d, #0x00
    00000884 DD 77 FC         [19] 1746 	ld	-4 (ix), a
    00000887 DD 72 FD         [19] 1747 	ld	-3 (ix), d
                                   1748 ;E:\Dropbox\FAUSTO\SVILUPPI\MSX\CODE\C\MSXgl\projects\soccerlgMSX2/soccerlg_s17_b3.c:143: kick_y = RestartSideY;
    0000088A 2Ar00r00         [16] 1749 	ld	hl, (_RestartSideY)
    0000088D DD 75 FA         [19] 1750 	ld	-6 (ix), l
    00000890 DD 74 FB         [19] 1751 	ld	-5 (ix), h
                                   1752 ;E:\Dropbox\FAUSTO\SVILUPPI\MSX\CODE\C\MSXgl\projects\soccerlgMSX2/soccerlg_s17_b3.c:144: ball_x = RestartSideX;
    00000893 5F               [ 4] 1753 	ld	e, a
    00000894                       1754 00102$:
                                   1755 ;E:\Dropbox\FAUSTO\SVILUPPI\MSX\CODE\C\MSXgl\projects\soccerlgMSX2/soccerlg_s17_b3.c:147: SwSprite[14].lx = ball_x;
    00000894 21r42r01         [10] 1756 	ld	hl, #_SwSprite + 322
    00000897 73               [ 7] 1757 	ld	(hl), e
                                   1758 ;E:\Dropbox\FAUSTO\SVILUPPI\MSX\CODE\C\MSXgl\projects\soccerlgMSX2/soccerlg_s17_b3.c:148: SwSprite[14].ly = kick_y;
    00000898 11r46r01         [10] 1759 	ld	de, #_SwSprite + 326
    0000089B 6B               [ 4] 1760 	ld	l, e
    0000089C 62               [ 4] 1761 	ld	h, d
    0000089D DD 7E FA         [19] 1762 	ld	a, -6 (ix)
    000008A0 77               [ 7] 1763 	ld	(hl), a
    000008A1 23               [ 6] 1764 	inc	hl
    000008A2 DD 7E FB         [19] 1765 	ld	a, -5 (ix)
    000008A5 77               [ 7] 1766 	ld	(hl), a
                                   1767 ;E:\Dropbox\FAUSTO\SVILUPPI\MSX\CODE\C\MSXgl\projects\soccerlgMSX2/soccerlg_s17_b3.c:152: SwSprite[14].frame = SPR_BALL_SIZE_1; // Dimensione 1 per proporzione realistica
                                   1768 ;E:\Dropbox\FAUSTO\SVILUPPI\MSX\CODE\C\MSXgl\projects\soccerlgMSX2/soccerlg_s17_b3.c:153: SwSprite[gk].frame = (team_to_kick == TEAM_1) ? SPR_GK_PLAYER_SOUTH_WITH_BALL : SPR_GK_PLAYER_NORTH_WITH_BALL;
    000008A6 DD 4E F8         [19] 1769 	ld	c, -8 (ix)
    000008A9 06 00            [ 7] 1770 	ld	b, #0x00
    000008AB 69               [ 4] 1771 	ld	l, c
    000008AC 60               [ 4] 1772 	ld	h, b
    000008AD 29               [11] 1773 	add	hl, hl
    000008AE 29               [11] 1774 	add	hl, hl
    000008AF 09               [11] 1775 	add	hl, bc
    000008B0 29               [11] 1776 	add	hl, hl
    000008B1 09               [11] 1777 	add	hl, bc
    000008B2 29               [11] 1778 	add	hl, hl
    000008B3 09               [11] 1779 	add	hl, bc
    000008B4 01r00r00         [10] 1780 	ld	bc,#_SwSprite
    000008B7 09               [11] 1781 	add	hl,bc
    000008B8 4D               [ 4] 1782 	ld	c, l
    000008B9 44               [ 4] 1783 	ld	b, h
                                   1784 ;E:\Dropbox\FAUSTO\SVILUPPI\MSX\CODE\C\MSXgl\projects\soccerlgMSX2/soccerlg_s17_b3.c:150: if (RestartType == RESTART_GKSAVE) {
    000008BA 3Ar00r00         [13] 1785 	ld	a, (_RestartType+0)
    000008BD D6 04            [ 7] 1786 	sub	a, #0x04
    000008BF 20 4B            [12] 1787 	jr	NZ, 00104$
                                   1788 ;E:\Dropbox\FAUSTO\SVILUPPI\MSX\CODE\C\MSXgl\projects\soccerlgMSX2/soccerlg_s17_b3.c:151: SwSprite[14].ly = RestartSideY + (dir_y * 4); // Palla visibile in mano
    000008C1 DD 7E F9         [19] 1789 	ld	a, -7 (ix)
    000008C4 6F               [ 4] 1790 	ld	l, a
                                   1791 ;	spillPairReg hl
                                   1792 ;	spillPairReg hl
    000008C5 07               [ 4] 1793 	rlca
    000008C6 9F               [ 4] 1794 	sbc	a, a
    000008C7 67               [ 4] 1795 	ld	h, a
    000008C8 29               [11] 1796 	add	hl, hl
    000008C9 29               [11] 1797 	add	hl, hl
    000008CA FD 2Ar00r00      [20] 1798 	ld	iy, (_RestartSideY)
    000008CE FD E5            [15] 1799 	push	iy
    000008D0 DD 7E F0         [19] 1800 	ld	a, -16 (ix)
    000008D3 FD E1            [14] 1801 	pop	iy
    000008D5 85               [ 4] 1802 	add	a, l
    000008D6 6F               [ 4] 1803 	ld	l, a
                                   1804 ;	spillPairReg hl
                                   1805 ;	spillPairReg hl
    000008D7 FD E5            [15] 1806 	push	iy
    000008D9 DD 7E F1         [19] 1807 	ld	a, -15 (ix)
    000008DC FD E1            [14] 1808 	pop	iy
    000008DE 8C               [ 4] 1809 	adc	a, h
    000008DF DD 75 FE         [19] 1810 	ld	-2 (ix), l
    000008E2 DD 77 FF         [19] 1811 	ld	-1 (ix), a
    000008E5 DD 7E FE         [19] 1812 	ld	a, -2 (ix)
    000008E8 12               [ 7] 1813 	ld	(de), a
    000008E9 13               [ 6] 1814 	inc	de
    000008EA DD 7E FF         [19] 1815 	ld	a, -1 (ix)
    000008ED 12               [ 7] 1816 	ld	(de), a
                                   1817 ;E:\Dropbox\FAUSTO\SVILUPPI\MSX\CODE\C\MSXgl\projects\soccerlgMSX2/soccerlg_s17_b3.c:152: SwSprite[14].frame = SPR_BALL_SIZE_1; // Dimensione 1 per proporzione realistica
    000008EE 21 60 00         [10] 1818 	ld	hl, #0x0060
    000008F1 22r51r01         [16] 1819 	ld	((_SwSprite + 337)), hl
                                   1820 ;E:\Dropbox\FAUSTO\SVILUPPI\MSX\CODE\C\MSXgl\projects\soccerlgMSX2/soccerlg_s17_b3.c:153: SwSprite[gk].frame = (team_to_kick == TEAM_1) ? SPR_GK_PLAYER_SOUTH_WITH_BALL : SPR_GK_PLAYER_NORTH_WITH_BALL;
    000008F4 2E 0F            [ 7] 1821 	ld	l, #0x0f
    000008F6 09               [11] 1822 	add	hl, bc
    000008F7 DD 7E F4         [19] 1823 	ld	a, -12 (ix)
    000008FA B7               [ 4] 1824 	or	a, a
    000008FB 20 06            [12] 1825 	jr	NZ, 00172$
    000008FD 11 F1 00         [10] 1826 	ld	de, #0x00f1
    00000900 C3r06r09         [10] 1827 	jp	00173$
    00000903                       1828 00172$:
    00000903 11 F2 00         [10] 1829 	ld	de, #0x00f2
    00000906                       1830 00173$:
    00000906 73               [ 7] 1831 	ld	(hl), e
    00000907 23               [ 6] 1832 	inc	hl
    00000908 72               [ 7] 1833 	ld	(hl), d
    00000909 C3r12r09         [10] 1834 	jp	00105$
    0000090C                       1835 00104$:
                                   1836 ;E:\Dropbox\FAUSTO\SVILUPPI\MSX\CODE\C\MSXgl\projects\soccerlgMSX2/soccerlg_s17_b3.c:155: SwSprite[14].frame = SPR_BALL_SIZE_1; 
    0000090C 21 60 00         [10] 1837 	ld	hl, #0x0060
    0000090F 22r51r01         [16] 1838 	ld	((_SwSprite + 337)), hl
    00000912                       1839 00105$:
                                   1840 ;E:\Dropbox\FAUSTO\SVILUPPI\MSX\CODE\C\MSXgl\projects\soccerlgMSX2/soccerlg_s17_b3.c:157: SwSprite[14].dx = SwSprite[14].dy = SwSprite[14].anim = SwSprite[14].count = 0;
    00000912 21 00 00         [10] 1841 	ld	hl, #0x0000
    00000915 22r57r01         [16] 1842 	ld	((_SwSprite + 343)), hl
    00000918 22r55r01         [16] 1843 	ld	((_SwSprite + 341)), hl
    0000091B 21r54r01         [10] 1844 	ld	hl, #(_SwSprite + 340)
    0000091E 36 00            [10] 1845 	ld	(hl), #0x00
    00000920 21r53r01         [10] 1846 	ld	hl, #(_SwSprite + 339)
    00000923 36 00            [10] 1847 	ld	(hl), #0x00
                                   1848 ;E:\Dropbox\FAUSTO\SVILUPPI\MSX\CODE\C\MSXgl\projects\soccerlgMSX2/soccerlg_s17_b3.c:160: SwSprite[gk].tx = gk_start_x; 
    00000925 21 0C 00         [10] 1849 	ld	hl, #0x000c
    00000928 09               [11] 1850 	add	hl, bc
    00000929 DD 7E FC         [19] 1851 	ld	a, -4 (ix)
    0000092C 77               [ 7] 1852 	ld	(hl), a
                                   1853 ;E:\Dropbox\FAUSTO\SVILUPPI\MSX\CODE\C\MSXgl\projects\soccerlgMSX2/soccerlg_s17_b3.c:161: SwSprite[gk].ty = kick_y - ((RestartType == RESTART_GKSAVE) ? 0 : (dir_y * 20));
    0000092D 21 0D 00         [10] 1854 	ld	hl, #0x000d
    00000930 09               [11] 1855 	add	hl, bc
    00000931 4D               [ 4] 1856 	ld	c, l
    00000932 44               [ 4] 1857 	ld	b, h
    00000933 3Ar00r00         [13] 1858 	ld	a, (_RestartType+0)
    00000936 D6 04            [ 7] 1859 	sub	a, #0x04
    00000938 20 06            [12] 1860 	jr	NZ, 00174$
    0000093A 11 00 00         [10] 1861 	ld	de, #0x0000
    0000093D C3r4Fr09         [10] 1862 	jp	00175$
    00000940                       1863 00174$:
    00000940 DD 7E F9         [19] 1864 	ld	a, -7 (ix)
    00000943 5F               [ 4] 1865 	ld	e, a
    00000944 07               [ 4] 1866 	rlca
    00000945 9F               [ 4] 1867 	sbc	a, a
    00000946 57               [ 4] 1868 	ld	d, a
    00000947 6B               [ 4] 1869 	ld	l, e
    00000948 62               [ 4] 1870 	ld	h, d
    00000949 29               [11] 1871 	add	hl, hl
    0000094A 29               [11] 1872 	add	hl, hl
    0000094B 19               [11] 1873 	add	hl, de
    0000094C 29               [11] 1874 	add	hl, hl
    0000094D 29               [11] 1875 	add	hl, hl
    0000094E EB               [ 4] 1876 	ex	de, hl
    0000094F                       1877 00175$:
    0000094F DD 6E FA         [19] 1878 	ld	l, -6 (ix)
                                   1879 ;	spillPairReg hl
                                   1880 ;	spillPairReg hl
    00000952 DD 66 FB         [19] 1881 	ld	h, -5 (ix)
                                   1882 ;	spillPairReg hl
                                   1883 ;	spillPairReg hl
    00000955 BF               [ 4] 1884 	cp	a, a
    00000956 ED 52            [15] 1885 	sbc	hl, de
    00000958 EB               [ 4] 1886 	ex	de, hl
    00000959 7B               [ 4] 1887 	ld	a, e
    0000095A 02               [ 7] 1888 	ld	(bc), a
    0000095B 03               [ 6] 1889 	inc	bc
    0000095C 7A               [ 4] 1890 	ld	a, d
    0000095D 02               [ 7] 1891 	ld	(bc), a
                                   1892 ;E:\Dropbox\FAUSTO\SVILUPPI\MSX\CODE\C\MSXgl\projects\soccerlgMSX2/soccerlg_s17_b3.c:163: u8 other_gk = (gk == 0) ? 7 : 0;
    0000095E DD 7E F8         [19] 1893 	ld	a, -8 (ix)
    00000961 B7               [ 4] 1894 	or	a, a
    00000962 20 06            [12] 1895 	jr	NZ, 00176$
    00000964 01 07 00         [10] 1896 	ld	bc, #0x0007
    00000967 C3r6Dr09         [10] 1897 	jp	00177$
    0000096A                       1898 00176$:
    0000096A 01 00 00         [10] 1899 	ld	bc, #0x0000
    0000096D                       1900 00177$:
                                   1901 ;E:\Dropbox\FAUSTO\SVILUPPI\MSX\CODE\C\MSXgl\projects\soccerlgMSX2/soccerlg_s17_b3.c:164: SwSprite[other_gk].tx = 128;
    0000096D 06 00            [ 7] 1902 	ld	b, #0x00
    0000096F 69               [ 4] 1903 	ld	l, c
    00000970 60               [ 4] 1904 	ld	h, b
    00000971 29               [11] 1905 	add	hl, hl
    00000972 29               [11] 1906 	add	hl, hl
    00000973 09               [11] 1907 	add	hl, bc
    00000974 29               [11] 1908 	add	hl, hl
    00000975 09               [11] 1909 	add	hl, bc
    00000976 29               [11] 1910 	add	hl, hl
    00000977 09               [11] 1911 	add	hl, bc
    00000978 EB               [ 4] 1912 	ex	de, hl
    00000979 21r00r00         [10] 1913 	ld	hl, #_SwSprite
    0000097C 19               [11] 1914 	add	hl, de
    0000097D EB               [ 4] 1915 	ex	de, hl
    0000097E 21 0C 00         [10] 1916 	ld	hl, #0x000c
    00000981 19               [11] 1917 	add	hl, de
    00000982 36 80            [10] 1918 	ld	(hl), #0x80
                                   1919 ;E:\Dropbox\FAUSTO\SVILUPPI\MSX\CODE\C\MSXgl\projects\soccerlgMSX2/soccerlg_s17_b3.c:165: SwSprite[other_gk].ty = (other_gk == 0) ? 32 : 444;
    00000984 21 0D 00         [10] 1920 	ld	hl, #0x000d
    00000987 19               [11] 1921 	add	hl, de
    00000988 79               [ 4] 1922 	ld	a, c
    00000989 B7               [ 4] 1923 	or	a, a
    0000098A 20 06            [12] 1924 	jr	NZ, 00178$
    0000098C 11 20 00         [10] 1925 	ld	de, #0x0020
    0000098F C3r95r09         [10] 1926 	jp	00179$
    00000992                       1927 00178$:
    00000992 11 BC 01         [10] 1928 	ld	de, #0x01bc
    00000995                       1929 00179$:
    00000995 73               [ 7] 1930 	ld	(hl), e
    00000996 23               [ 6] 1931 	inc	hl
    00000997 72               [ 7] 1932 	ld	(hl), d
                                   1933 ;E:\Dropbox\FAUSTO\SVILUPPI\MSX\CODE\C\MSXgl\projects\soccerlgMSX2/soccerlg_s17_b3.c:168: u8 start_t = (team_to_kick == TEAM_1) ? 1 : 8;
    00000998 DD 7E F4         [19] 1934 	ld	a, -12 (ix)
    0000099B B7               [ 4] 1935 	or	a, a
    0000099C 20 06            [12] 1936 	jr	NZ, 00180$
    0000099E 01 01 00         [10] 1937 	ld	bc, #0x0001
    000009A1 C3rA7r09         [10] 1938 	jp	00181$
    000009A4                       1939 00180$:
    000009A4 01 08 00         [10] 1940 	ld	bc, #0x0008
    000009A7                       1941 00181$:
                                   1942 ;E:\Dropbox\FAUSTO\SVILUPPI\MSX\CODE\C\MSXgl\projects\soccerlgMSX2/soccerlg_s17_b3.c:169: g_throw_rec_1 = start_t + 4; // Attaccante Sx (ruolo 5)
    000009A7 79               [ 4] 1943 	ld	a, c
    000009A8 C6 04            [ 7] 1944 	add	a, #0x04
    000009AA 32r00r00         [13] 1945 	ld	(_g_throw_rec_1+0), a
                                   1946 ;E:\Dropbox\FAUSTO\SVILUPPI\MSX\CODE\C\MSXgl\projects\soccerlgMSX2/soccerlg_s17_b3.c:170: g_throw_rec_2 = start_t + 5; // Attaccante Dx (ruolo 6)
    000009AD 79               [ 4] 1947 	ld	a, c
    000009AE C6 05            [ 7] 1948 	add	a, #0x05
    000009B0 32r00r00         [13] 1949 	ld	(_g_throw_rec_2+0), a
                                   1950 ;E:\Dropbox\FAUSTO\SVILUPPI\MSX\CODE\C\MSXgl\projects\soccerlgMSX2/soccerlg_s17_b3.c:171: g_selected_rec = 0;
    000009B3 21r00r00         [10] 1951 	ld	hl, #_g_selected_rec
    000009B6 36 00            [10] 1952 	ld	(hl), #0x00
                                   1953 ;E:\Dropbox\FAUSTO\SVILUPPI\MSX\CODE\C\MSXgl\projects\soccerlgMSX2/soccerlg_s17_b3.c:174: for(u8 i=1; i<14; i++) {
    000009B8 DD 7E F4         [19] 1954 	ld	a, -12 (ix)
    000009BB 3D               [ 4] 1955 	dec	a
    000009BC 3E 01            [ 7] 1956 	ld	a, #0x01
    000009BE 28 01            [12] 1957 	jr	Z, 00364$
    000009C0 AF               [ 4] 1958 	xor	a, a
    000009C1                       1959 00364$:
    000009C1 DD 77 F5         [19] 1960 	ld	-11 (ix), a
    000009C4 DD 36 FD 01      [19] 1961 	ld	-3 (ix), #0x01
    000009C8                       1962 00157$:
    000009C8 DD 7E FD         [19] 1963 	ld	a, -3 (ix)
    000009CB D6 0E            [ 7] 1964 	sub	a, #0x0e
    000009CD D2r79r0C         [10] 1965 	jp	NC, 00158$
                                   1966 ;E:\Dropbox\FAUSTO\SVILUPPI\MSX\CODE\C\MSXgl\projects\soccerlgMSX2/soccerlg_s17_b3.c:175: if (i == 7) continue;
    000009D0 DD 7E FD         [19] 1967 	ld	a, -3 (ix)
    000009D3 D6 07            [ 7] 1968 	sub	a, #0x07
    000009D5 CAr73r0C         [10] 1969 	jp	Z,00154$
                                   1970 ;E:\Dropbox\FAUSTO\SVILUPPI\MSX\CODE\C\MSXgl\projects\soccerlgMSX2/soccerlg_s17_b3.c:177: u8 team = (i < 7) ? TEAM_1 : TEAM_2;
    000009D8 DD 7E FD         [19] 1971 	ld	a, -3 (ix)
    000009DB D6 07            [ 7] 1972 	sub	a, #0x07
    000009DD 30 0A            [12] 1973 	jr	NC, 00182$
    000009DF AF               [ 4] 1974 	xor	a, a
    000009E0 DD 77 FE         [19] 1975 	ld	-2 (ix), a
    000009E3 DD 77 FF         [19] 1976 	ld	-1 (ix), a
    000009E6 C3rF1r09         [10] 1977 	jp	00183$
    000009E9                       1978 00182$:
    000009E9 DD 36 FE 01      [19] 1979 	ld	-2 (ix), #0x01
    000009ED DD 36 FF 00      [19] 1980 	ld	-1 (ix), #0
    000009F1                       1981 00183$:
    000009F1 DD 7E FE         [19] 1982 	ld	a, -2 (ix)
                                   1983 ;E:\Dropbox\FAUSTO\SVILUPPI\MSX\CODE\C\MSXgl\projects\soccerlgMSX2/soccerlg_s17_b3.c:178: u8 role = (team == TEAM_1) ? i : (i - 7);
    000009F4 DD 77 FC         [19] 1984 	ld	-4 (ix), a
    000009F7 B7               [ 4] 1985 	or	a, a
    000009F8 20 09            [12] 1986 	jr	NZ, 00184$
    000009FA DD 7E FD         [19] 1987 	ld	a, -3 (ix)
    000009FD DD 77 FF         [19] 1988 	ld	-1 (ix), a
    00000A00 C3r0Er0A         [10] 1989 	jp	00185$
    00000A03                       1990 00184$:
    00000A03 DD 7E FD         [19] 1991 	ld	a, -3 (ix)
    00000A06 DD 77 FF         [19] 1992 	ld	-1 (ix), a
    00000A09 C6 F9            [ 7] 1993 	add	a, #0xf9
    00000A0B DD 77 FF         [19] 1994 	ld	-1 (ix), a
    00000A0E                       1995 00185$:
    00000A0E DD 7E FF         [19] 1996 	ld	a, -1 (ix)
    00000A11 DD 77 FE         [19] 1997 	ld	-2 (ix), a
                                   1998 ;E:\Dropbox\FAUSTO\SVILUPPI\MSX\CODE\C\MSXgl\projects\soccerlgMSX2/soccerlg_s17_b3.c:179: u16 base_x = 128;
    00000A14 DD 36 F9 80      [19] 1999 	ld	-7 (ix), #0x80
    00000A18 DD 36 FA 00      [19] 2000 	ld	-6 (ix), #0
                                   2001 ;E:\Dropbox\FAUSTO\SVILUPPI\MSX\CODE\C\MSXgl\projects\soccerlgMSX2/soccerlg_s17_b3.c:181: if (role == 1) { base_x = 64; }
    00000A1C DD 7E FE         [19] 2002 	ld	a, -2 (ix)
    00000A1F 3D               [ 4] 2003 	dec	a
    00000A20 3E 01            [ 7] 2004 	ld	a, #0x01
    00000A22 28 01            [12] 2005 	jr	Z, 00367$
    00000A24 AF               [ 4] 2006 	xor	a, a
    00000A25                       2007 00367$:
    00000A25 DD 77 FF         [19] 2008 	ld	-1 (ix), a
    00000A28 B7               [ 4] 2009 	or	a, a
    00000A29 28 0B            [12] 2010 	jr	Z, 00123$
    00000A2B DD 36 F9 40      [19] 2011 	ld	-7 (ix), #0x40
    00000A2F DD 36 FA 00      [19] 2012 	ld	-6 (ix), #0
    00000A33 C3r8Dr0A         [10] 2013 	jp	00124$
    00000A36                       2014 00123$:
                                   2015 ;E:\Dropbox\FAUSTO\SVILUPPI\MSX\CODE\C\MSXgl\projects\soccerlgMSX2/soccerlg_s17_b3.c:182: else if (role == 2) { base_x = 192; }
    00000A36 DD 7E FE         [19] 2016 	ld	a, -2 (ix)
    00000A39 D6 02            [ 7] 2017 	sub	a, #0x02
    00000A3B 20 0B            [12] 2018 	jr	NZ, 00120$
    00000A3D DD 36 F9 C0      [19] 2019 	ld	-7 (ix), #0xc0
    00000A41 DD 36 FA 00      [19] 2020 	ld	-6 (ix), #0
    00000A45 C3r8Dr0A         [10] 2021 	jp	00124$
    00000A48                       2022 00120$:
                                   2023 ;E:\Dropbox\FAUSTO\SVILUPPI\MSX\CODE\C\MSXgl\projects\soccerlgMSX2/soccerlg_s17_b3.c:183: else if (role == 3) { base_x = 64; }
    00000A48 DD 7E FE         [19] 2024 	ld	a, -2 (ix)
    00000A4B D6 03            [ 7] 2025 	sub	a, #0x03
    00000A4D 20 0B            [12] 2026 	jr	NZ, 00117$
    00000A4F DD 36 F9 40      [19] 2027 	ld	-7 (ix), #0x40
    00000A53 DD 36 FA 00      [19] 2028 	ld	-6 (ix), #0
    00000A57 C3r8Dr0A         [10] 2029 	jp	00124$
    00000A5A                       2030 00117$:
                                   2031 ;E:\Dropbox\FAUSTO\SVILUPPI\MSX\CODE\C\MSXgl\projects\soccerlgMSX2/soccerlg_s17_b3.c:184: else if (role == 4) { base_x = 192; }
    00000A5A DD 7E FE         [19] 2032 	ld	a, -2 (ix)
    00000A5D D6 04            [ 7] 2033 	sub	a, #0x04
    00000A5F 20 0B            [12] 2034 	jr	NZ, 00114$
    00000A61 DD 36 F9 C0      [19] 2035 	ld	-7 (ix), #0xc0
    00000A65 DD 36 FA 00      [19] 2036 	ld	-6 (ix), #0
    00000A69 C3r8Dr0A         [10] 2037 	jp	00124$
    00000A6C                       2038 00114$:
                                   2039 ;E:\Dropbox\FAUSTO\SVILUPPI\MSX\CODE\C\MSXgl\projects\soccerlgMSX2/soccerlg_s17_b3.c:185: else if (role == 5) { base_x = 80; }
    00000A6C DD 7E FE         [19] 2040 	ld	a, -2 (ix)
    00000A6F D6 05            [ 7] 2041 	sub	a, #0x05
    00000A71 20 0B            [12] 2042 	jr	NZ, 00111$
    00000A73 DD 36 F9 50      [19] 2043 	ld	-7 (ix), #0x50
    00000A77 DD 36 FA 00      [19] 2044 	ld	-6 (ix), #0
    00000A7B C3r8Dr0A         [10] 2045 	jp	00124$
    00000A7E                       2046 00111$:
                                   2047 ;E:\Dropbox\FAUSTO\SVILUPPI\MSX\CODE\C\MSXgl\projects\soccerlgMSX2/soccerlg_s17_b3.c:186: else if (role == 6) { base_x = 176; }
    00000A7E DD 7E FE         [19] 2048 	ld	a, -2 (ix)
    00000A81 D6 06            [ 7] 2049 	sub	a, #0x06
    00000A83 20 08            [12] 2050 	jr	NZ, 00124$
    00000A85 DD 36 F9 B0      [19] 2051 	ld	-7 (ix), #0xb0
    00000A89 DD 36 FA 00      [19] 2052 	ld	-6 (ix), #0
    00000A8D                       2053 00124$:
                                   2054 ;E:\Dropbox\FAUSTO\SVILUPPI\MSX\CODE\C\MSXgl\projects\soccerlgMSX2/soccerlg_s17_b3.c:189: if (team == team_to_kick) {
    00000A8D DD 7E FC         [19] 2055 	ld	a, -4 (ix)
    00000A90 DD 96 F4         [19] 2056 	sub	a, -12 (ix)
    00000A93 20 3C            [12] 2057 	jr	NZ, 00142$
                                   2058 ;E:\Dropbox\FAUSTO\SVILUPPI\MSX\CODE\C\MSXgl\projects\soccerlgMSX2/soccerlg_s17_b3.c:190: if (role == 1 || role == 2) base_y = 60;
    00000A95 DD 7E FF         [19] 2059 	ld	a, -1 (ix)
    00000A98 B7               [ 4] 2060 	or	a, a
    00000A99 20 07            [12] 2061 	jr	NZ, 00129$
    00000A9B DD 7E FE         [19] 2062 	ld	a, -2 (ix)
    00000A9E D6 02            [ 7] 2063 	sub	a, #0x02
    00000AA0 20 0B            [12] 2064 	jr	NZ, 00130$
    00000AA2                       2065 00129$:
    00000AA2 DD 36 FE 3C      [19] 2066 	ld	-2 (ix), #0x3c
    00000AA6 DD 36 FF 00      [19] 2067 	ld	-1 (ix), #0
    00000AAA C3r0Ar0B         [10] 2068 	jp	00143$
    00000AAD                       2069 00130$:
                                   2070 ;E:\Dropbox\FAUSTO\SVILUPPI\MSX\CODE\C\MSXgl\projects\soccerlgMSX2/soccerlg_s17_b3.c:191: else if (role == 3 || role == 4) base_y = 110;
    00000AAD DD 7E FE         [19] 2071 	ld	a, -2 (ix)
    00000AB0 D6 03            [ 7] 2072 	sub	a, #0x03
    00000AB2 28 07            [12] 2073 	jr	Z, 00125$
    00000AB4 DD 7E FE         [19] 2074 	ld	a, -2 (ix)
    00000AB7 D6 04            [ 7] 2075 	sub	a, #0x04
    00000AB9 20 0B            [12] 2076 	jr	NZ, 00126$
    00000ABB                       2077 00125$:
    00000ABB DD 36 FE 6E      [19] 2078 	ld	-2 (ix), #0x6e
    00000ABF DD 36 FF 00      [19] 2079 	ld	-1 (ix), #0
    00000AC3 C3r0Ar0B         [10] 2080 	jp	00143$
    00000AC6                       2081 00126$:
                                   2082 ;E:\Dropbox\FAUSTO\SVILUPPI\MSX\CODE\C\MSXgl\projects\soccerlgMSX2/soccerlg_s17_b3.c:192: else base_y = 160; // Attaccanti visibili nello schermo per la selezione
    00000AC6 DD 36 FE A0      [19] 2083 	ld	-2 (ix), #0xa0
    00000ACA DD 36 FF 00      [19] 2084 	ld	-1 (ix), #0
    00000ACE C3r0Ar0B         [10] 2085 	jp	00143$
    00000AD1                       2086 00142$:
                                   2087 ;E:\Dropbox\FAUSTO\SVILUPPI\MSX\CODE\C\MSXgl\projects\soccerlgMSX2/soccerlg_s17_b3.c:194: if (role == 1 || role == 2) base_y = 240; 
    00000AD1 DD 7E FF         [19] 2088 	ld	a, -1 (ix)
    00000AD4 B7               [ 4] 2089 	or	a, a
    00000AD5 20 07            [12] 2090 	jr	NZ, 00137$
    00000AD7 DD 7E FE         [19] 2091 	ld	a, -2 (ix)
    00000ADA D6 02            [ 7] 2092 	sub	a, #0x02
    00000ADC 20 0B            [12] 2093 	jr	NZ, 00138$
    00000ADE                       2094 00137$:
    00000ADE DD 36 FE F0      [19] 2095 	ld	-2 (ix), #0xf0
    00000AE2 DD 36 FF 00      [19] 2096 	ld	-1 (ix), #0
    00000AE6 C3r0Ar0B         [10] 2097 	jp	00143$
    00000AE9                       2098 00138$:
                                   2099 ;E:\Dropbox\FAUSTO\SVILUPPI\MSX\CODE\C\MSXgl\projects\soccerlgMSX2/soccerlg_s17_b3.c:195: else if (role == 3 || role == 4) base_y = 180; 
    00000AE9 DD 7E FE         [19] 2100 	ld	a, -2 (ix)
    00000AEC D6 03            [ 7] 2101 	sub	a, #0x03
    00000AEE 28 07            [12] 2102 	jr	Z, 00133$
    00000AF0 DD 7E FE         [19] 2103 	ld	a, -2 (ix)
    00000AF3 D6 04            [ 7] 2104 	sub	a, #0x04
    00000AF5 20 0B            [12] 2105 	jr	NZ, 00134$
    00000AF7                       2106 00133$:
    00000AF7 DD 36 FE B4      [19] 2107 	ld	-2 (ix), #0xb4
    00000AFB DD 36 FF 00      [19] 2108 	ld	-1 (ix), #0
    00000AFF C3r0Ar0B         [10] 2109 	jp	00143$
    00000B02                       2110 00134$:
                                   2111 ;E:\Dropbox\FAUSTO\SVILUPPI\MSX\CODE\C\MSXgl\projects\soccerlgMSX2/soccerlg_s17_b3.c:196: else base_y = 120; 
    00000B02 DD 36 FE 78      [19] 2112 	ld	-2 (ix), #0x78
    00000B06 DD 36 FF 00      [19] 2113 	ld	-1 (ix), #0
    00000B0A                       2114 00143$:
                                   2115 ;E:\Dropbox\FAUSTO\SVILUPPI\MSX\CODE\C\MSXgl\projects\soccerlgMSX2/soccerlg_s17_b3.c:200: if (team_to_kick == TEAM_2) {
    00000B0A DD 7E F5         [19] 2116 	ld	a, -11 (ix)
    00000B0D B7               [ 4] 2117 	or	a, a
    00000B0E 28 0F            [12] 2118 	jr	Z, 00145$
                                   2119 ;E:\Dropbox\FAUSTO\SVILUPPI\MSX\CODE\C\MSXgl\projects\soccerlgMSX2/soccerlg_s17_b3.c:201: base_y = 512 - base_y;
    00000B10 AF               [ 4] 2120 	xor	a, a
    00000B11 DD 96 FE         [19] 2121 	sub	a, -2 (ix)
    00000B14 DD 77 FE         [19] 2122 	ld	-2 (ix), a
    00000B17 3E 02            [ 7] 2123 	ld	a, #0x02
    00000B19 DD 9E FF         [19] 2124 	sbc	a, -1 (ix)
    00000B1C DD 77 FF         [19] 2125 	ld	-1 (ix), a
    00000B1F                       2126 00145$:
                                   2127 ;E:\Dropbox\FAUSTO\SVILUPPI\MSX\CODE\C\MSXgl\projects\soccerlgMSX2/soccerlg_s17_b3.c:205: i8 rand_x = ((Frms + i * 11) % 40) - 20;
    00000B1F 3Ar00r00         [13] 2128 	ld	a, (_Frms+0)
    00000B22 DD 77 F2         [19] 2129 	ld	-14 (ix), a
    00000B25 DD 36 F3 00      [19] 2130 	ld	-13 (ix), #0x00
    00000B29 DD 7E FD         [19] 2131 	ld	a, -3 (ix)
    00000B2C DD 77 F7         [19] 2132 	ld	-9 (ix), a
    00000B2F DD 36 F8 00      [19] 2133 	ld	-8 (ix), #0x00
    00000B33 4F               [ 4] 2134 	ld	c, a
    00000B34 06 00            [ 7] 2135 	ld	b, #0x00
    00000B36 69               [ 4] 2136 	ld	l, c
    00000B37 60               [ 4] 2137 	ld	h, b
    00000B38 29               [11] 2138 	add	hl, hl
    00000B39 29               [11] 2139 	add	hl, hl
    00000B3A 09               [11] 2140 	add	hl, bc
    00000B3B 29               [11] 2141 	add	hl, hl
    00000B3C 09               [11] 2142 	add	hl, bc
    00000B3D DD 75 FB         [19] 2143 	ld	-5 (ix), l
    00000B40 DD 74 FC         [19] 2144 	ld	-4 (ix), h
    00000B43 DD 7E F2         [19] 2145 	ld	a, -14 (ix)
    00000B46 DD 86 FB         [19] 2146 	add	a, -5 (ix)
    00000B49 6F               [ 4] 2147 	ld	l, a
                                   2148 ;	spillPairReg hl
                                   2149 ;	spillPairReg hl
    00000B4A DD 7E F3         [19] 2150 	ld	a, -13 (ix)
    00000B4D DD 8E FC         [19] 2151 	adc	a, -4 (ix)
    00000B50 67               [ 4] 2152 	ld	h, a
                                   2153 ;	spillPairReg hl
                                   2154 ;	spillPairReg hl
    00000B51 11 28 00         [10] 2155 	ld	de, #0x0028
    00000B54 CDr00r00         [17] 2156 	call	__modsint
    00000B57 7B               [ 4] 2157 	ld	a, e
    00000B58 C6 EC            [ 7] 2158 	add	a, #0xec
    00000B5A DD 77 FC         [19] 2159 	ld	-4 (ix), a
                                   2160 ;E:\Dropbox\FAUSTO\SVILUPPI\MSX\CODE\C\MSXgl\projects\soccerlgMSX2/soccerlg_s17_b3.c:206: i8 rand_y = ((Frms + i * 17) % 40) - 20;
    00000B5D DD 4E F7         [19] 2161 	ld	c, -9 (ix)
    00000B60 DD 46 F8         [19] 2162 	ld	b, -8 (ix)
    00000B63 69               [ 4] 2163 	ld	l, c
    00000B64 60               [ 4] 2164 	ld	h, b
    00000B65 29               [11] 2165 	add	hl, hl
    00000B66 29               [11] 2166 	add	hl, hl
    00000B67 29               [11] 2167 	add	hl, hl
    00000B68 29               [11] 2168 	add	hl, hl
    00000B69 09               [11] 2169 	add	hl, bc
    00000B6A D1               [10] 2170 	pop	de
    00000B6B D5               [11] 2171 	push	de
    00000B6C 19               [11] 2172 	add	hl, de
    00000B6D 11 28 00         [10] 2173 	ld	de, #0x0028
    00000B70 CDr00r00         [17] 2174 	call	__modsint
    00000B73 7B               [ 4] 2175 	ld	a, e
    00000B74 C6 EC            [ 7] 2176 	add	a, #0xec
    00000B76 DD 77 F6         [19] 2177 	ld	-10 (ix), a
                                   2178 ;E:\Dropbox\FAUSTO\SVILUPPI\MSX\CODE\C\MSXgl\projects\soccerlgMSX2/soccerlg_s17_b3.c:208: i16 final_x = base_x + rand_x;
    00000B79 DD 7E FC         [19] 2179 	ld	a, -4 (ix)
    00000B7C DD 77 FB         [19] 2180 	ld	-5 (ix), a
    00000B7F 07               [ 4] 2181 	rlca
    00000B80 9F               [ 4] 2182 	sbc	a, a
    00000B81 DD 77 FC         [19] 2183 	ld	-4 (ix), a
    00000B84 DD 7E F9         [19] 2184 	ld	a, -7 (ix)
    00000B87 DD 77 F7         [19] 2185 	ld	-9 (ix), a
    00000B8A DD 7E FA         [19] 2186 	ld	a, -6 (ix)
    00000B8D DD 77 F8         [19] 2187 	ld	-8 (ix), a
    00000B90 DD 7E FB         [19] 2188 	ld	a, -5 (ix)
    00000B93 DD 77 F9         [19] 2189 	ld	-7 (ix), a
    00000B96 DD 7E FC         [19] 2190 	ld	a, -4 (ix)
    00000B99 DD 77 FA         [19] 2191 	ld	-6 (ix), a
    00000B9C DD 7E F9         [19] 2192 	ld	a, -7 (ix)
    00000B9F DD 86 F7         [19] 2193 	add	a, -9 (ix)
    00000BA2 DD 77 FB         [19] 2194 	ld	-5 (ix), a
    00000BA5 DD 7E FA         [19] 2195 	ld	a, -6 (ix)
    00000BA8 DD 8E F8         [19] 2196 	adc	a, -8 (ix)
    00000BAB DD 77 FC         [19] 2197 	ld	-4 (ix), a
                                   2198 ;E:\Dropbox\FAUSTO\SVILUPPI\MSX\CODE\C\MSXgl\projects\soccerlgMSX2/soccerlg_s17_b3.c:209: i16 final_y = base_y + rand_y;
    00000BAE DD 7E F6         [19] 2199 	ld	a, -10 (ix)
    00000BB1 DD 77 F9         [19] 2200 	ld	-7 (ix), a
    00000BB4 07               [ 4] 2201 	rlca
    00000BB5 9F               [ 4] 2202 	sbc	a, a
    00000BB6 DD 77 FA         [19] 2203 	ld	-6 (ix), a
    00000BB9 DD 7E FE         [19] 2204 	ld	a, -2 (ix)
    00000BBC DD 86 F9         [19] 2205 	add	a, -7 (ix)
    00000BBF DD 77 F7         [19] 2206 	ld	-9 (ix), a
    00000BC2 DD 7E FF         [19] 2207 	ld	a, -1 (ix)
    00000BC5 DD 8E FA         [19] 2208 	adc	a, -6 (ix)
    00000BC8 DD 77 F8         [19] 2209 	ld	-8 (ix), a
    00000BCB DD 7E F7         [19] 2210 	ld	a, -9 (ix)
    00000BCE DD 77 FE         [19] 2211 	ld	-2 (ix), a
    00000BD1 DD 7E F8         [19] 2212 	ld	a, -8 (ix)
    00000BD4 DD 77 FF         [19] 2213 	ld	-1 (ix), a
                                   2214 ;E:\Dropbox\FAUSTO\SVILUPPI\MSX\CODE\C\MSXgl\projects\soccerlgMSX2/soccerlg_s17_b3.c:211: if (final_x < 16) final_x = 16;
    00000BD7 DD 7E FB         [19] 2215 	ld	a, -5 (ix)
    00000BDA DD 77 F9         [19] 2216 	ld	-7 (ix), a
    00000BDD DD 7E FC         [19] 2217 	ld	a, -4 (ix)
    00000BE0 DD 77 FA         [19] 2218 	ld	-6 (ix), a
    00000BE3 DD 7E F9         [19] 2219 	ld	a, -7 (ix)
    00000BE6 D6 10            [ 7] 2220 	sub	a, #0x10
    00000BE8 DD 7E FA         [19] 2221 	ld	a, -6 (ix)
    00000BEB 17               [ 4] 2222 	rla
    00000BEC 3F               [ 4] 2223 	ccf
    00000BED 1F               [ 4] 2224 	rra
    00000BEE DE 80            [ 7] 2225 	sbc	a, #0x80
    00000BF0 30 08            [12] 2226 	jr	NC, 00147$
    00000BF2 DD 36 FB 10      [19] 2227 	ld	-5 (ix), #0x10
    00000BF6 DD 36 FC 00      [19] 2228 	ld	-4 (ix), #0
    00000BFA                       2229 00147$:
                                   2230 ;E:\Dropbox\FAUSTO\SVILUPPI\MSX\CODE\C\MSXgl\projects\soccerlgMSX2/soccerlg_s17_b3.c:212: if (final_x > 224) final_x = 224;
    00000BFA DD 4E FB         [19] 2231 	ld	c, -5 (ix)
    00000BFD DD 46 FC         [19] 2232 	ld	b, -4 (ix)
    00000C00 3E E0            [ 7] 2233 	ld	a, #0xe0
    00000C02 B9               [ 4] 2234 	cp	a, c
    00000C03 3E 00            [ 7] 2235 	ld	a, #0x00
    00000C05 98               [ 4] 2236 	sbc	a, b
    00000C06 E2r0Br0C         [10] 2237 	jp	PO, 00390$
    00000C09 EE 80            [ 7] 2238 	xor	a, #0x80
    00000C0B                       2239 00390$:
    00000C0B F2r16r0C         [10] 2240 	jp	P, 00149$
    00000C0E DD 36 FB E0      [19] 2241 	ld	-5 (ix), #0xe0
    00000C12 DD 36 FC 00      [19] 2242 	ld	-4 (ix), #0
    00000C16                       2243 00149$:
                                   2244 ;E:\Dropbox\FAUSTO\SVILUPPI\MSX\CODE\C\MSXgl\projects\soccerlgMSX2/soccerlg_s17_b3.c:213: if (final_y < 24) final_y = 24;
    00000C16 DD 7E FE         [19] 2245 	ld	a, -2 (ix)
    00000C19 DD 46 FF         [19] 2246 	ld	b, -1 (ix)
    00000C1C D6 18            [ 7] 2247 	sub	a, #0x18
    00000C1E 78               [ 4] 2248 	ld	a, b
    00000C1F 17               [ 4] 2249 	rla
    00000C20 3F               [ 4] 2250 	ccf
    00000C21 1F               [ 4] 2251 	rra
    00000C22 DE 80            [ 7] 2252 	sbc	a, #0x80
    00000C24 30 08            [12] 2253 	jr	NC, 00151$
    00000C26 DD 36 FE 18      [19] 2254 	ld	-2 (ix), #0x18
    00000C2A DD 36 FF 00      [19] 2255 	ld	-1 (ix), #0
    00000C2E                       2256 00151$:
                                   2257 ;E:\Dropbox\FAUSTO\SVILUPPI\MSX\CODE\C\MSXgl\projects\soccerlgMSX2/soccerlg_s17_b3.c:214: if (final_y > 488) final_y = 488;
    00000C2E DD 4E FE         [19] 2258 	ld	c, -2 (ix)
    00000C31 DD 46 FF         [19] 2259 	ld	b, -1 (ix)
    00000C34 3E E8            [ 7] 2260 	ld	a, #0xe8
    00000C36 B9               [ 4] 2261 	cp	a, c
    00000C37 3E 01            [ 7] 2262 	ld	a, #0x01
    00000C39 98               [ 4] 2263 	sbc	a, b
    00000C3A E2r3Fr0C         [10] 2264 	jp	PO, 00391$
    00000C3D EE 80            [ 7] 2265 	xor	a, #0x80
    00000C3F                       2266 00391$:
    00000C3F F2r4Ar0C         [10] 2267 	jp	P, 00153$
    00000C42 DD 36 FE E8      [19] 2268 	ld	-2 (ix), #0xe8
    00000C46 DD 36 FF 01      [19] 2269 	ld	-1 (ix), #0x01
    00000C4A                       2270 00153$:
                                   2271 ;E:\Dropbox\FAUSTO\SVILUPPI\MSX\CODE\C\MSXgl\projects\soccerlgMSX2/soccerlg_s17_b3.c:216: SwSprite[i].tx = (u8)final_x;
    00000C4A DD 4E FD         [19] 2272 	ld	c, -3 (ix)
    00000C4D 06 00            [ 7] 2273 	ld	b, #0x00
    00000C4F 69               [ 4] 2274 	ld	l, c
    00000C50 60               [ 4] 2275 	ld	h, b
    00000C51 29               [11] 2276 	add	hl, hl
    00000C52 29               [11] 2277 	add	hl, hl
    00000C53 09               [11] 2278 	add	hl, bc
    00000C54 29               [11] 2279 	add	hl, hl
    00000C55 09               [11] 2280 	add	hl, bc
    00000C56 29               [11] 2281 	add	hl, hl
    00000C57 09               [11] 2282 	add	hl, bc
    00000C58 EB               [ 4] 2283 	ex	de, hl
    00000C59 21r00r00         [10] 2284 	ld	hl, #_SwSprite
    00000C5C 19               [11] 2285 	add	hl, de
    00000C5D EB               [ 4] 2286 	ex	de, hl
    00000C5E 21 0C 00         [10] 2287 	ld	hl, #0x000c
    00000C61 19               [11] 2288 	add	hl, de
    00000C62 DD 7E FB         [19] 2289 	ld	a, -5 (ix)
    00000C65 77               [ 7] 2290 	ld	(hl), a
                                   2291 ;E:\Dropbox\FAUSTO\SVILUPPI\MSX\CODE\C\MSXgl\projects\soccerlgMSX2/soccerlg_s17_b3.c:217: SwSprite[i].ty = (u16)final_y;
    00000C66 21 0D 00         [10] 2292 	ld	hl, #0x000d
    00000C69 19               [11] 2293 	add	hl, de
    00000C6A DD 7E FE         [19] 2294 	ld	a, -2 (ix)
    00000C6D DD 4E FF         [19] 2295 	ld	c, -1 (ix)
    00000C70 77               [ 7] 2296 	ld	(hl), a
    00000C71 23               [ 6] 2297 	inc	hl
    00000C72 71               [ 7] 2298 	ld	(hl), c
    00000C73                       2299 00154$:
                                   2300 ;E:\Dropbox\FAUSTO\SVILUPPI\MSX\CODE\C\MSXgl\projects\soccerlgMSX2/soccerlg_s17_b3.c:174: for(u8 i=1; i<14; i++) {
    00000C73 DD 34 FD         [23] 2301 	inc	-3 (ix)
    00000C76 C3rC8r09         [10] 2302 	jp	00157$
    00000C79                       2303 00158$:
                                   2304 ;E:\Dropbox\FAUSTO\SVILUPPI\MSX\CODE\C\MSXgl\projects\soccerlgMSX2/soccerlg_s17_b3.c:219: }
    00000C79 DD F9            [10] 2305 	ld	sp, ix
    00000C7B DD E1            [14] 2306 	pop	ix
    00000C7D C9               [10] 2307 	ret
                                   2308 ;E:\Dropbox\FAUSTO\SVILUPPI\MSX\CODE\C\MSXgl\projects\soccerlgMSX2/soccerlg_s17_b3.c:221: void AssignCornerKickTargets() {
                                   2309 ;	---------------------------------
                                   2310 ; Function AssignCornerKickTargets
                                   2311 ; ---------------------------------
    00000C7E                       2312 _AssignCornerKickTargets::
    00000C7E DD E5            [15] 2313 	push	ix
    00000C80 DD 21 00 00      [14] 2314 	ld	ix,#0
    00000C84 DD 39            [15] 2315 	add	ix,sp
    00000C86 21 F0 FF         [10] 2316 	ld	hl, #-16
    00000C89 39               [11] 2317 	add	hl, sp
    00000C8A F9               [ 6] 2318 	ld	sp, hl
                                   2319 ;E:\Dropbox\FAUSTO\SVILUPPI\MSX\CODE\C\MSXgl\projects\soccerlgMSX2/soccerlg_s17_b3.c:222: u8 team_to_kick = (LastTouchTeam == TEAM_1) ? TEAM_2 : TEAM_1;
    00000C8B 3Ar00r00         [13] 2320 	ld	a, (_LastTouchTeam+0)
    00000C8E B7               [ 4] 2321 	or	a, a
    00000C8F 20 06            [12] 2322 	jr	NZ, 00129$
    00000C91 01 01 00         [10] 2323 	ld	bc, #0x0001
    00000C94 C3r9Ar0C         [10] 2324 	jp	00130$
    00000C97                       2325 00129$:
    00000C97 01 00 00         [10] 2326 	ld	bc, #0x0000
    00000C9A                       2327 00130$:
                                   2328 ;E:\Dropbox\FAUSTO\SVILUPPI\MSX\CODE\C\MSXgl\projects\soccerlgMSX2/soccerlg_s17_b3.c:223: if (LastTouchTeam == 0xFF) team_to_kick = TEAM_1;
    00000C9A 3Ar00r00         [13] 2329 	ld	a, (_LastTouchTeam+0)
    00000C9D 3C               [ 4] 2330 	inc	a
    00000C9E 20 01            [12] 2331 	jr	NZ, 00102$
    00000CA0 4F               [ 4] 2332 	ld	c,a
    00000CA1                       2333 00102$:
                                   2334 ;E:\Dropbox\FAUSTO\SVILUPPI\MSX\CODE\C\MSXgl\projects\soccerlgMSX2/soccerlg_s17_b3.c:225: u8 thrower = (team_to_kick == TEAM_1) ? 5 : 12; // Attaccante sx/dx
    00000CA1 79               [ 4] 2335 	ld	a, c
    00000CA2 B7               [ 4] 2336 	or	a, a
    00000CA3 20 06            [12] 2337 	jr	NZ, 00131$
    00000CA5 11 05 00         [10] 2338 	ld	de, #0x0005
    00000CA8 C3rAEr0C         [10] 2339 	jp	00132$
    00000CAB                       2340 00131$:
    00000CAB 11 0C 00         [10] 2341 	ld	de, #0x000c
    00000CAE                       2342 00132$:
    00000CAE DD 73 F0         [19] 2343 	ld	-16 (ix), e
                                   2344 ;E:\Dropbox\FAUSTO\SVILUPPI\MSX\CODE\C\MSXgl\projects\soccerlgMSX2/soccerlg_s17_b3.c:227: u16 corner_x = (RestartSideX < 128) ? 20 : 216; // Allontanato dal bordo laterale
    00000CB1 3Ar00r00         [13] 2345 	ld	a, (_RestartSideX+0)
    00000CB4 D6 80            [ 7] 2346 	sub	a, #0x80
    00000CB6 30 06            [12] 2347 	jr	NC, 00133$
    00000CB8 11 14 00         [10] 2348 	ld	de, #0x0014
    00000CBB C3rC1r0C         [10] 2349 	jp	00134$
    00000CBE                       2350 00133$:
    00000CBE 11 D8 00         [10] 2351 	ld	de, #0x00d8
    00000CC1                       2352 00134$:
                                   2353 ;E:\Dropbox\FAUSTO\SVILUPPI\MSX\CODE\C\MSXgl\projects\soccerlgMSX2/soccerlg_s17_b3.c:228: u16 corner_y = (RestartSideY < 256) ? 40 : 472; // Più all'interno del campo di 4px
    00000CC1 2Ar00r00         [16] 2354 	ld	hl, (_RestartSideY)
    00000CC4 7C               [ 4] 2355 	ld	a, h
    00000CC5 D6 01            [ 7] 2356 	sub	a, #0x01
    00000CC7 30 06            [12] 2357 	jr	NC, 00135$
    00000CC9 21 28 00         [10] 2358 	ld	hl, #0x0028
    00000CCC C3rD2r0C         [10] 2359 	jp	00136$
    00000CCF                       2360 00135$:
    00000CCF 21 D8 01         [10] 2361 	ld	hl, #0x01d8
    00000CD2                       2362 00136$:
    00000CD2 DD 75 FA         [19] 2363 	ld	-6 (ix), l
    00000CD5 DD 74 FB         [19] 2364 	ld	-5 (ix), h
                                   2365 ;E:\Dropbox\FAUSTO\SVILUPPI\MSX\CODE\C\MSXgl\projects\soccerlgMSX2/soccerlg_s17_b3.c:230: SwSprite[14].lx = corner_x;
    00000CD8 DD 73 FC         [19] 2366 	ld	-4 (ix), e
    00000CDB 21r42r01         [10] 2367 	ld	hl, #(_SwSprite + 322)
    00000CDE DD 7E FC         [19] 2368 	ld	a, -4 (ix)
    00000CE1 77               [ 7] 2369 	ld	(hl), a
                                   2370 ;E:\Dropbox\FAUSTO\SVILUPPI\MSX\CODE\C\MSXgl\projects\soccerlgMSX2/soccerlg_s17_b3.c:231: SwSprite[14].ly = corner_y;
    00000CE2 21r46r01         [10] 2371 	ld	hl, #(_SwSprite + 326)
    00000CE5 DD 7E FA         [19] 2372 	ld	a, -6 (ix)
    00000CE8 77               [ 7] 2373 	ld	(hl), a
    00000CE9 23               [ 6] 2374 	inc	hl
    00000CEA DD 7E FB         [19] 2375 	ld	a, -5 (ix)
    00000CED 77               [ 7] 2376 	ld	(hl), a
                                   2377 ;E:\Dropbox\FAUSTO\SVILUPPI\MSX\CODE\C\MSXgl\projects\soccerlgMSX2/soccerlg_s17_b3.c:232: SwSprite[14].frame = SPR_BALL_SIZE_1;
    00000CEE 21 60 00         [10] 2378 	ld	hl, #0x0060
    00000CF1 22r51r01         [16] 2379 	ld	((_SwSprite + 337)), hl
                                   2380 ;E:\Dropbox\FAUSTO\SVILUPPI\MSX\CODE\C\MSXgl\projects\soccerlgMSX2/soccerlg_s17_b3.c:233: SwSprite[14].dx = SwSprite[14].dy = SwSprite[14].anim = SwSprite[14].count = 0;
    00000CF4 6C               [ 4] 2381 	ld	l, h
    00000CF5 22r57r01         [16] 2382 	ld	((_SwSprite + 343)), hl
    00000CF8 22r55r01         [16] 2383 	ld	((_SwSprite + 341)), hl
    00000CFB 21r54r01         [10] 2384 	ld	hl, #(_SwSprite + 340)
    00000CFE 36 00            [10] 2385 	ld	(hl), #0x00
    00000D00 21r53r01         [10] 2386 	ld	hl, #(_SwSprite + 339)
    00000D03 36 00            [10] 2387 	ld	(hl), #0x00
                                   2388 ;E:\Dropbox\FAUSTO\SVILUPPI\MSX\CODE\C\MSXgl\projects\soccerlgMSX2/soccerlg_s17_b3.c:234: g_thrower_id = thrower;
    00000D05 DD 7E F0         [19] 2389 	ld	a, -16 (ix)
    00000D08 32r00r00         [13] 2390 	ld	(_g_thrower_id+0), a
                                   2391 ;E:\Dropbox\FAUSTO\SVILUPPI\MSX\CODE\C\MSXgl\projects\soccerlgMSX2/soccerlg_s17_b3.c:236: i8 dir_x = (corner_x < 128) ? 1 : -1;
    00000D0B 7B               [ 4] 2392 	ld	a, e
    00000D0C D6 80            [ 7] 2393 	sub	a, #0x80
    00000D0E 7A               [ 4] 2394 	ld	a, d
    00000D0F DE 00            [ 7] 2395 	sbc	a, #0x00
    00000D11 30 06            [12] 2396 	jr	NC, 00137$
    00000D13 11 01 00         [10] 2397 	ld	de, #0x0001
    00000D16 C3r1Cr0D         [10] 2398 	jp	00138$
    00000D19                       2399 00137$:
    00000D19 11 FF FF         [10] 2400 	ld	de, #0xffff
    00000D1C                       2401 00138$:
    00000D1C 43               [ 4] 2402 	ld	b, e
                                   2403 ;E:\Dropbox\FAUSTO\SVILUPPI\MSX\CODE\C\MSXgl\projects\soccerlgMSX2/soccerlg_s17_b3.c:237: i8 dir_y = (corner_y < 256) ? 1 : -1;
    00000D1D DD 7E FA         [19] 2404 	ld	a, -6 (ix)
    00000D20 DD 77 FD         [19] 2405 	ld	-3 (ix), a
    00000D23 DD 7E FB         [19] 2406 	ld	a, -5 (ix)
    00000D26 DD 77 FE         [19] 2407 	ld	-2 (ix), a
    00000D29 D6 01            [ 7] 2408 	sub	a, #0x01
    00000D2B 3E 00            [ 7] 2409 	ld	a, #0x00
    00000D2D 17               [ 4] 2410 	rla
    00000D2E DD 77 F1         [19] 2411 	ld	-15 (ix), a
    00000D31 B7               [ 4] 2412 	or	a, a
    00000D32 28 06            [12] 2413 	jr	Z, 00139$
    00000D34 11 01 00         [10] 2414 	ld	de, #0x0001
    00000D37 C3r3Dr0D         [10] 2415 	jp	00140$
    00000D3A                       2416 00139$:
    00000D3A 11 FF FF         [10] 2417 	ld	de, #0xffff
    00000D3D                       2418 00140$:
    00000D3D DD 73 FF         [19] 2419 	ld	-1 (ix), e
                                   2420 ;E:\Dropbox\FAUSTO\SVILUPPI\MSX\CODE\C\MSXgl\projects\soccerlgMSX2/soccerlg_s17_b3.c:238: SwSprite[thrower].tx = corner_x - (dir_x * 8);
    00000D40 DD 5E F0         [19] 2421 	ld	e, -16 (ix)
    00000D43 16 00            [ 7] 2422 	ld	d, #0x00
    00000D45 6B               [ 4] 2423 	ld	l, e
    00000D46 62               [ 4] 2424 	ld	h, d
    00000D47 29               [11] 2425 	add	hl, hl
    00000D48 29               [11] 2426 	add	hl, hl
    00000D49 19               [11] 2427 	add	hl, de
    00000D4A 29               [11] 2428 	add	hl, hl
    00000D4B 19               [11] 2429 	add	hl, de
    00000D4C 29               [11] 2430 	add	hl, hl
    00000D4D 19               [11] 2431 	add	hl, de
    00000D4E EB               [ 4] 2432 	ex	de, hl
    00000D4F 21r00r00         [10] 2433 	ld	hl, #_SwSprite
    00000D52 19               [11] 2434 	add	hl, de
    00000D53 EB               [ 4] 2435 	ex	de, hl
    00000D54 21 0C 00         [10] 2436 	ld	hl, #0x000c
    00000D57 19               [11] 2437 	add	hl, de
    00000D58 78               [ 4] 2438 	ld	a, b
    00000D59 87               [ 4] 2439 	add	a, a
    00000D5A 87               [ 4] 2440 	add	a, a
    00000D5B 87               [ 4] 2441 	add	a, a
    00000D5C 47               [ 4] 2442 	ld	b, a
    00000D5D DD 7E FC         [19] 2443 	ld	a, -4 (ix)
    00000D60 90               [ 4] 2444 	sub	a, b
    00000D61 77               [ 7] 2445 	ld	(hl), a
                                   2446 ;E:\Dropbox\FAUSTO\SVILUPPI\MSX\CODE\C\MSXgl\projects\soccerlgMSX2/soccerlg_s17_b3.c:239: SwSprite[thrower].ty = corner_y - (dir_y * 8);
    00000D62 21 0D 00         [10] 2447 	ld	hl, #0x000d
    00000D65 19               [11] 2448 	add	hl, de
    00000D66 DD 7E FF         [19] 2449 	ld	a, -1 (ix)
    00000D69 DD 77 F2         [19] 2450 	ld	-14 (ix), a
    00000D6C 07               [ 4] 2451 	rlca
    00000D6D 9F               [ 4] 2452 	sbc	a, a
    00000D6E DD 77 F3         [19] 2453 	ld	-13 (ix), a
    00000D71 DD 5E F2         [19] 2454 	ld	e, -14 (ix)
    00000D74 DD 56 F3         [19] 2455 	ld	d, -13 (ix)
    00000D77 EB               [ 4] 2456 	ex	de, hl
    00000D78 29               [11] 2457 	add	hl, hl
    00000D79 29               [11] 2458 	add	hl, hl
    00000D7A 29               [11] 2459 	add	hl, hl
    00000D7B EB               [ 4] 2460 	ex	de, hl
    00000D7C DD 7E FD         [19] 2461 	ld	a, -3 (ix)
    00000D7F 93               [ 4] 2462 	sub	a, e
    00000D80 5F               [ 4] 2463 	ld	e, a
    00000D81 DD 7E FE         [19] 2464 	ld	a, -2 (ix)
    00000D84 9A               [ 4] 2465 	sbc	a, d
    00000D85 73               [ 7] 2466 	ld	(hl), e
    00000D86 23               [ 6] 2467 	inc	hl
    00000D87 77               [ 7] 2468 	ld	(hl), a
                                   2469 ;E:\Dropbox\FAUSTO\SVILUPPI\MSX\CODE\C\MSXgl\projects\soccerlgMSX2/soccerlg_s17_b3.c:241: u8 start_t = (team_to_kick == TEAM_1) ? 1 : 8;
    00000D88 79               [ 4] 2470 	ld	a, c
    00000D89 B7               [ 4] 2471 	or	a, a
    00000D8A 20 06            [12] 2472 	jr	NZ, 00141$
    00000D8C 01 01 00         [10] 2473 	ld	bc, #0x0001
    00000D8F C3r95r0D         [10] 2474 	jp	00142$
    00000D92                       2475 00141$:
    00000D92 01 08 00         [10] 2476 	ld	bc, #0x0008
    00000D95                       2477 00142$:
                                   2478 ;E:\Dropbox\FAUSTO\SVILUPPI\MSX\CODE\C\MSXgl\projects\soccerlgMSX2/soccerlg_s17_b3.c:242: g_throw_rec_1 = start_t + 2; // Centro sx/dx
    00000D95 79               [ 4] 2479 	ld	a, c
    00000D96 C6 02            [ 7] 2480 	add	a, #0x02
    00000D98 32r00r00         [13] 2481 	ld	(_g_throw_rec_1+0), a
                                   2482 ;E:\Dropbox\FAUSTO\SVILUPPI\MSX\CODE\C\MSXgl\projects\soccerlgMSX2/soccerlg_s17_b3.c:243: g_throw_rec_2 = start_t + 3; // Centro dx/sx
    00000D9B 79               [ 4] 2483 	ld	a, c
    00000D9C C6 03            [ 7] 2484 	add	a, #0x03
    00000D9E 32r00r00         [13] 2485 	ld	(_g_throw_rec_2+0), a
                                   2486 ;E:\Dropbox\FAUSTO\SVILUPPI\MSX\CODE\C\MSXgl\projects\soccerlgMSX2/soccerlg_s17_b3.c:244: g_selected_rec = 0;
    00000DA1 21r00r00         [10] 2487 	ld	hl, #_g_selected_rec
    00000DA4 36 00            [10] 2488 	ld	(hl), #0x00
                                   2489 ;E:\Dropbox\FAUSTO\SVILUPPI\MSX\CODE\C\MSXgl\projects\soccerlgMSX2/soccerlg_s17_b3.c:246: u16 area_y = (corner_y < 256) ? 96 : 416; // Piazzi i ricevitori al limite dell'area
    00000DA6 DD 7E F1         [19] 2490 	ld	a, -15 (ix)
    00000DA9 B7               [ 4] 2491 	or	a, a
    00000DAA 28 06            [12] 2492 	jr	Z, 00143$
    00000DAC 01 60 00         [10] 2493 	ld	bc, #0x0060
    00000DAF C3rB5r0D         [10] 2494 	jp	00144$
    00000DB2                       2495 00143$:
    00000DB2 01 A0 01         [10] 2496 	ld	bc, #0x01a0
    00000DB5                       2497 00144$:
                                   2498 ;E:\Dropbox\FAUSTO\SVILUPPI\MSX\CODE\C\MSXgl\projects\soccerlgMSX2/soccerlg_s17_b3.c:247: SwSprite[g_throw_rec_1].tx = 108; SwSprite[g_throw_rec_1].ty = area_y;
    00000DB5 ED 5Br00r00      [20] 2499 	ld	de, (_g_throw_rec_1)
    00000DB9 16 00            [ 7] 2500 	ld	d, #0x00
    00000DBB 6B               [ 4] 2501 	ld	l, e
    00000DBC 62               [ 4] 2502 	ld	h, d
    00000DBD 29               [11] 2503 	add	hl, hl
    00000DBE 29               [11] 2504 	add	hl, hl
    00000DBF 19               [11] 2505 	add	hl, de
    00000DC0 29               [11] 2506 	add	hl, hl
    00000DC1 19               [11] 2507 	add	hl, de
    00000DC2 29               [11] 2508 	add	hl, hl
    00000DC3 19               [11] 2509 	add	hl, de
    00000DC4 11r00r00         [10] 2510 	ld	de, #_SwSprite
    00000DC7 19               [11] 2511 	add	hl, de
    00000DC8 11 0C 00         [10] 2512 	ld	de, #0x000c
    00000DCB 19               [11] 2513 	add	hl, de
    00000DCC 36 6C            [10] 2514 	ld	(hl), #0x6c
    00000DCE ED 5Br00r00      [20] 2515 	ld	de, (_g_throw_rec_1)
    00000DD2 16 00            [ 7] 2516 	ld	d, #0x00
    00000DD4 6B               [ 4] 2517 	ld	l, e
    00000DD5 62               [ 4] 2518 	ld	h, d
    00000DD6 29               [11] 2519 	add	hl, hl
    00000DD7 29               [11] 2520 	add	hl, hl
    00000DD8 19               [11] 2521 	add	hl, de
    00000DD9 29               [11] 2522 	add	hl, hl
    00000DDA 19               [11] 2523 	add	hl, de
    00000DDB 29               [11] 2524 	add	hl, hl
    00000DDC 19               [11] 2525 	add	hl, de
    00000DDD 11r00r00         [10] 2526 	ld	de, #_SwSprite
    00000DE0 19               [11] 2527 	add	hl, de
    00000DE1 11 0D 00         [10] 2528 	ld	de, #0x000d
    00000DE4 19               [11] 2529 	add	hl, de
    00000DE5 71               [ 7] 2530 	ld	(hl), c
    00000DE6 23               [ 6] 2531 	inc	hl
    00000DE7 70               [ 7] 2532 	ld	(hl), b
                                   2533 ;E:\Dropbox\FAUSTO\SVILUPPI\MSX\CODE\C\MSXgl\projects\soccerlgMSX2/soccerlg_s17_b3.c:248: SwSprite[g_throw_rec_2].tx = 148; SwSprite[g_throw_rec_2].ty = area_y + (dir_y * 16);
    00000DE8 ED 5Br00r00      [20] 2534 	ld	de, (_g_throw_rec_2)
    00000DEC 16 00            [ 7] 2535 	ld	d, #0x00
    00000DEE 6B               [ 4] 2536 	ld	l, e
    00000DEF 62               [ 4] 2537 	ld	h, d
    00000DF0 29               [11] 2538 	add	hl, hl
    00000DF1 29               [11] 2539 	add	hl, hl
    00000DF2 19               [11] 2540 	add	hl, de
    00000DF3 29               [11] 2541 	add	hl, hl
    00000DF4 19               [11] 2542 	add	hl, de
    00000DF5 29               [11] 2543 	add	hl, hl
    00000DF6 19               [11] 2544 	add	hl, de
    00000DF7 11r00r00         [10] 2545 	ld	de, #_SwSprite
    00000DFA 19               [11] 2546 	add	hl, de
    00000DFB 11 0C 00         [10] 2547 	ld	de, #0x000c
    00000DFE 19               [11] 2548 	add	hl, de
    00000DFF 36 94            [10] 2549 	ld	(hl), #0x94
    00000E01 ED 5Br00r00      [20] 2550 	ld	de, (_g_throw_rec_2)
    00000E05 16 00            [ 7] 2551 	ld	d, #0x00
    00000E07 6B               [ 4] 2552 	ld	l, e
    00000E08 62               [ 4] 2553 	ld	h, d
    00000E09 29               [11] 2554 	add	hl, hl
    00000E0A 29               [11] 2555 	add	hl, hl
    00000E0B 19               [11] 2556 	add	hl, de
    00000E0C 29               [11] 2557 	add	hl, hl
    00000E0D 19               [11] 2558 	add	hl, de
    00000E0E 29               [11] 2559 	add	hl, hl
    00000E0F 19               [11] 2560 	add	hl, de
    00000E10 11r00r00         [10] 2561 	ld	de, #_SwSprite
    00000E13 19               [11] 2562 	add	hl, de
    00000E14 11 0D 00         [10] 2563 	ld	de, #0x000d
    00000E17 19               [11] 2564 	add	hl, de
    00000E18 DD 5E F2         [19] 2565 	ld	e, -14 (ix)
    00000E1B DD 56 F3         [19] 2566 	ld	d, -13 (ix)
    00000E1E EB               [ 4] 2567 	ex	de, hl
    00000E1F 29               [11] 2568 	add	hl, hl
    00000E20 29               [11] 2569 	add	hl, hl
    00000E21 29               [11] 2570 	add	hl, hl
    00000E22 29               [11] 2571 	add	hl, hl
    00000E23 EB               [ 4] 2572 	ex	de, hl
    00000E24 DD 71 F4         [19] 2573 	ld	-12 (ix), c
    00000E27 DD 70 F5         [19] 2574 	ld	-11 (ix), b
    00000E2A 7B               [ 4] 2575 	ld	a, e
    00000E2B DD 86 F4         [19] 2576 	add	a, -12 (ix)
    00000E2E 4F               [ 4] 2577 	ld	c, a
    00000E2F 7A               [ 4] 2578 	ld	a, d
    00000E30 DD 8E F5         [19] 2579 	adc	a, -11 (ix)
    00000E33 71               [ 7] 2580 	ld	(hl), c
    00000E34 23               [ 6] 2581 	inc	hl
    00000E35 77               [ 7] 2582 	ld	(hl), a
                                   2583 ;E:\Dropbox\FAUSTO\SVILUPPI\MSX\CODE\C\MSXgl\projects\soccerlgMSX2/soccerlg_s17_b3.c:250: SwSprite[0].tx = 128; SwSprite[0].ty = 32;
    00000E36 21r0Cr00         [10] 2584 	ld	hl, #(_SwSprite + 12)
    00000E39 36 80            [10] 2585 	ld	(hl), #0x80
    00000E3B 21 20 00         [10] 2586 	ld	hl, #0x0020
    00000E3E 22r0Dr00         [16] 2587 	ld	((_SwSprite + 13)), hl
                                   2588 ;E:\Dropbox\FAUSTO\SVILUPPI\MSX\CODE\C\MSXgl\projects\soccerlgMSX2/soccerlg_s17_b3.c:251: SwSprite[7].tx = 128; SwSprite[7].ty = 444;
    00000E41 21rADr00         [10] 2589 	ld	hl, #(_SwSprite + 173)
    00000E44 36 80            [10] 2590 	ld	(hl), #0x80
    00000E46 21 BC 01         [10] 2591 	ld	hl, #0x01bc
    00000E49 22rAEr00         [16] 2592 	ld	((_SwSprite + 174)), hl
                                   2593 ;E:\Dropbox\FAUSTO\SVILUPPI\MSX\CODE\C\MSXgl\projects\soccerlgMSX2/soccerlg_s17_b3.c:253: for(u8 i=1; i<14; i++) {
    00000E4C DD 7E F2         [19] 2594 	ld	a, -14 (ix)
    00000E4F DD 77 F6         [19] 2595 	ld	-10 (ix), a
    00000E52 DD 7E F3         [19] 2596 	ld	a, -13 (ix)
    00000E55 DD 77 F7         [19] 2597 	ld	-9 (ix), a
    00000E58 06 05            [ 7] 2598 	ld	b, #0x05
    00000E5A                       2599 00272$:
    00000E5A DD CB F6 26      [23] 2600 	sla	-10 (ix)
    00000E5E DD CB F7 16      [23] 2601 	rl	-9 (ix)
    00000E62 10 F6            [13] 2602 	djnz	00272$
    00000E64 DD 36 FF 01      [19] 2603 	ld	-1 (ix), #0x01
    00000E68                       2604 00126$:
    00000E68 DD 7E FF         [19] 2605 	ld	a, -1 (ix)
    00000E6B D6 0E            [ 7] 2606 	sub	a, #0x0e
    00000E6D D2rFBr0F         [10] 2607 	jp	NC, 00127$
                                   2608 ;E:\Dropbox\FAUSTO\SVILUPPI\MSX\CODE\C\MSXgl\projects\soccerlgMSX2/soccerlg_s17_b3.c:254: if (i == 7 || i == thrower || i == g_throw_rec_1 || i == g_throw_rec_2) continue;
    00000E70 DD 7E FF         [19] 2609 	ld	a, -1 (ix)
    00000E73 D6 07            [ 7] 2610 	sub	a, #0x07
    00000E75 CArF5r0F         [10] 2611 	jp	Z,00123$
    00000E78 DD 7E F0         [19] 2612 	ld	a, -16 (ix)
    00000E7B DD 96 FF         [19] 2613 	sub	a, -1 (ix)
    00000E7E CArF5r0F         [10] 2614 	jp	Z,00123$
    00000E81 3Ar00r00         [13] 2615 	ld	a, (_g_throw_rec_1+0)
    00000E84 DD 96 FF         [19] 2616 	sub	a, -1 (ix)
    00000E87 CArF5r0F         [10] 2617 	jp	Z,00123$
    00000E8A 3Ar00r00         [13] 2618 	ld	a, (_g_throw_rec_2+0)
    00000E8D DD 96 FF         [19] 2619 	sub	a, -1 (ix)
    00000E90 CArF5r0F         [10] 2620 	jp	Z,00123$
                                   2621 ;E:\Dropbox\FAUSTO\SVILUPPI\MSX\CODE\C\MSXgl\projects\soccerlgMSX2/soccerlg_s17_b3.c:255: u8 team = (i < 7) ? TEAM_1 : TEAM_2;
    00000E93 DD 7E FF         [19] 2622 	ld	a, -1 (ix)
    00000E96 D6 07            [ 7] 2623 	sub	a, #0x07
    00000E98 30 0A            [12] 2624 	jr	NC, 00145$
    00000E9A AF               [ 4] 2625 	xor	a, a
    00000E9B DD 77 FD         [19] 2626 	ld	-3 (ix), a
    00000E9E DD 77 FE         [19] 2627 	ld	-2 (ix), a
    00000EA1 C3rACr0E         [10] 2628 	jp	00146$
    00000EA4                       2629 00145$:
    00000EA4 DD 36 FD 01      [19] 2630 	ld	-3 (ix), #0x01
    00000EA8 DD 36 FE 00      [19] 2631 	ld	-2 (ix), #0
    00000EAC                       2632 00146$:
                                   2633 ;E:\Dropbox\FAUSTO\SVILUPPI\MSX\CODE\C\MSXgl\projects\soccerlgMSX2/soccerlg_s17_b3.c:256: u8 role = (team == TEAM_1) ? i : (i - 7);
    00000EAC DD 7E FD         [19] 2634 	ld	a, -3 (ix)
    00000EAF B7               [ 4] 2635 	or	a, a
    00000EB0 20 06            [12] 2636 	jr	NZ, 00147$
    00000EB2 DD 4E FF         [19] 2637 	ld	c, -1 (ix)
    00000EB5 C3rBEr0E         [10] 2638 	jp	00148$
    00000EB8                       2639 00147$:
    00000EB8 DD 7E FF         [19] 2640 	ld	a, -1 (ix)
    00000EBB C6 F9            [ 7] 2641 	add	a, #0xf9
    00000EBD 4F               [ 4] 2642 	ld	c, a
    00000EBE                       2643 00148$:
                                   2644 ;E:\Dropbox\FAUSTO\SVILUPPI\MSX\CODE\C\MSXgl\projects\soccerlgMSX2/soccerlg_s17_b3.c:258: u16 base_x = 48 + (role * 24); // Distribuisce a ventaglio
    00000EBE 06 00            [ 7] 2645 	ld	b, #0x00
    00000EC0 69               [ 4] 2646 	ld	l, c
    00000EC1 60               [ 4] 2647 	ld	h, b
    00000EC2 29               [11] 2648 	add	hl, hl
    00000EC3 09               [11] 2649 	add	hl, bc
    00000EC4 29               [11] 2650 	add	hl, hl
    00000EC5 29               [11] 2651 	add	hl, hl
    00000EC6 29               [11] 2652 	add	hl, hl
    00000EC7 11 30 00         [10] 2653 	ld	de, #0x0030
    00000ECA 19               [11] 2654 	add	hl, de
    00000ECB DD 75 F8         [19] 2655 	ld	-8 (ix), l
    00000ECE DD 74 F9         [19] 2656 	ld	-7 (ix), h
                                   2657 ;E:\Dropbox\FAUSTO\SVILUPPI\MSX\CODE\C\MSXgl\projects\soccerlgMSX2/soccerlg_s17_b3.c:259: u16 base_y = area_y + (dir_y * 32) + (dir_y * (role * 8)); // Li tiene fuori dall'area
    00000ED1 DD 5E F6         [19] 2658 	ld	e, -10 (ix)
    00000ED4 DD 56 F7         [19] 2659 	ld	d, -9 (ix)
    00000ED7 DD 6E F4         [19] 2660 	ld	l, -12 (ix)
    00000EDA DD 66 F5         [19] 2661 	ld	h, -11 (ix)
    00000EDD 19               [11] 2662 	add	hl, de
    00000EDE 59               [ 4] 2663 	ld	e, c
    00000EDF 50               [ 4] 2664 	ld	d, b
    00000EE0 EB               [ 4] 2665 	ex	de, hl
    00000EE1 29               [11] 2666 	add	hl, hl
    00000EE2 29               [11] 2667 	add	hl, hl
    00000EE3 29               [11] 2668 	add	hl, hl
    00000EE4 EB               [ 4] 2669 	ex	de, hl
    00000EE5 E5               [11] 2670 	push	hl
    00000EE6 DD 6E F2         [19] 2671 	ld	l, -14 (ix)
                                   2672 ;	spillPairReg hl
                                   2673 ;	spillPairReg hl
    00000EE9 DD 66 F3         [19] 2674 	ld	h, -13 (ix)
                                   2675 ;	spillPairReg hl
                                   2676 ;	spillPairReg hl
    00000EEC CDr00r00         [17] 2677 	call	__mulint
    00000EEF E1               [10] 2678 	pop	hl
    00000EF0 19               [11] 2679 	add	hl, de
    00000EF1 DD 75 FA         [19] 2680 	ld	-6 (ix), l
    00000EF4 DD 74 FB         [19] 2681 	ld	-5 (ix), h
                                   2682 ;E:\Dropbox\FAUSTO\SVILUPPI\MSX\CODE\C\MSXgl\projects\soccerlgMSX2/soccerlg_s17_b3.c:260: i8 rand_x = ((Frms + i * 11) % 40) - 20;
    00000EF7 3Ar00r00         [13] 2683 	ld	a, (_Frms+0)
    00000EFA DD 77 FC         [19] 2684 	ld	-4 (ix), a
    00000EFD DD 36 FD 00      [19] 2685 	ld	-3 (ix), #0x00
    00000F01 DD 4E FF         [19] 2686 	ld	c, -1 (ix)
    00000F04 06 00            [ 7] 2687 	ld	b, #0x00
    00000F06 69               [ 4] 2688 	ld	l, c
    00000F07 60               [ 4] 2689 	ld	h, b
    00000F08 29               [11] 2690 	add	hl, hl
    00000F09 29               [11] 2691 	add	hl, hl
    00000F0A 09               [11] 2692 	add	hl, bc
    00000F0B 29               [11] 2693 	add	hl, hl
    00000F0C 09               [11] 2694 	add	hl, bc
    00000F0D DD 5E FC         [19] 2695 	ld	e, -4 (ix)
    00000F10 DD 56 FD         [19] 2696 	ld	d, -3 (ix)
    00000F13 19               [11] 2697 	add	hl, de
    00000F14 C5               [11] 2698 	push	bc
    00000F15 11 28 00         [10] 2699 	ld	de, #0x0028
    00000F18 CDr00r00         [17] 2700 	call	__modsint
    00000F1B C1               [10] 2701 	pop	bc
    00000F1C 7B               [ 4] 2702 	ld	a, e
    00000F1D C6 EC            [ 7] 2703 	add	a, #0xec
    00000F1F DD 77 FE         [19] 2704 	ld	-2 (ix), a
                                   2705 ;E:\Dropbox\FAUSTO\SVILUPPI\MSX\CODE\C\MSXgl\projects\soccerlgMSX2/soccerlg_s17_b3.c:261: i8 rand_y = ((Frms + i * 17) % 40) - 20;
    00000F22 69               [ 4] 2706 	ld	l, c
    00000F23 60               [ 4] 2707 	ld	h, b
    00000F24 29               [11] 2708 	add	hl, hl
    00000F25 29               [11] 2709 	add	hl, hl
    00000F26 29               [11] 2710 	add	hl, hl
    00000F27 29               [11] 2711 	add	hl, hl
    00000F28 09               [11] 2712 	add	hl, bc
    00000F29 DD 5E FC         [19] 2713 	ld	e, -4 (ix)
    00000F2C DD 56 FD         [19] 2714 	ld	d, -3 (ix)
    00000F2F 19               [11] 2715 	add	hl, de
    00000F30 11 28 00         [10] 2716 	ld	de, #0x0028
    00000F33 CDr00r00         [17] 2717 	call	__modsint
    00000F36 7B               [ 4] 2718 	ld	a, e
    00000F37 C6 EC            [ 7] 2719 	add	a, #0xec
    00000F39 5F               [ 4] 2720 	ld	e, a
                                   2721 ;E:\Dropbox\FAUSTO\SVILUPPI\MSX\CODE\C\MSXgl\projects\soccerlgMSX2/soccerlg_s17_b3.c:263: i16 final_x = base_x + rand_x;
    00000F3A DD 7E FE         [19] 2722 	ld	a, -2 (ix)
    00000F3D 6F               [ 4] 2723 	ld	l, a
                                   2724 ;	spillPairReg hl
                                   2725 ;	spillPairReg hl
    00000F3E 07               [ 4] 2726 	rlca
    00000F3F 9F               [ 4] 2727 	sbc	a, a
    00000F40 67               [ 4] 2728 	ld	h, a
                                   2729 ;	spillPairReg hl
                                   2730 ;	spillPairReg hl
    00000F41 DD 4E F8         [19] 2731 	ld	c, -8 (ix)
    00000F44 DD 46 F9         [19] 2732 	ld	b, -7 (ix)
    00000F47 09               [11] 2733 	add	hl, bc
    00000F48 4D               [ 4] 2734 	ld	c, l
    00000F49 44               [ 4] 2735 	ld	b, h
                                   2736 ;E:\Dropbox\FAUSTO\SVILUPPI\MSX\CODE\C\MSXgl\projects\soccerlgMSX2/soccerlg_s17_b3.c:264: i16 final_y = base_y + rand_y;
    00000F4A 7B               [ 4] 2737 	ld	a, e
    00000F4B 07               [ 4] 2738 	rlca
    00000F4C 9F               [ 4] 2739 	sbc	a, a
    00000F4D 57               [ 4] 2740 	ld	d, a
    00000F4E DD 6E FA         [19] 2741 	ld	l, -6 (ix)
                                   2742 ;	spillPairReg hl
                                   2743 ;	spillPairReg hl
    00000F51 DD 66 FB         [19] 2744 	ld	h, -5 (ix)
                                   2745 ;	spillPairReg hl
                                   2746 ;	spillPairReg hl
    00000F54 19               [11] 2747 	add	hl, de
    00000F55 EB               [ 4] 2748 	ex	de, hl
                                   2749 ;E:\Dropbox\FAUSTO\SVILUPPI\MSX\CODE\C\MSXgl\projects\soccerlgMSX2/soccerlg_s17_b3.c:265: if (final_x < 16) final_x = 16; if (final_x > 224) final_x = 224;
    00000F56 69               [ 4] 2750 	ld	l, c
                                   2751 ;	spillPairReg hl
                                   2752 ;	spillPairReg hl
    00000F57 60               [ 4] 2753 	ld	h, b
                                   2754 ;	spillPairReg hl
                                   2755 ;	spillPairReg hl
    00000F58 7D               [ 4] 2756 	ld	a, l
    00000F59 D6 10            [ 7] 2757 	sub	a, #0x10
    00000F5B 7C               [ 4] 2758 	ld	a, h
    00000F5C 17               [ 4] 2759 	rla
    00000F5D 3F               [ 4] 2760 	ccf
    00000F5E 1F               [ 4] 2761 	rra
    00000F5F DE 80            [ 7] 2762 	sbc	a, #0x80
    00000F61 30 03            [12] 2763 	jr	NC, 00109$
    00000F63 01 10 00         [10] 2764 	ld	bc, #0x0010
    00000F66                       2765 00109$:
    00000F66 69               [ 4] 2766 	ld	l, c
                                   2767 ;	spillPairReg hl
                                   2768 ;	spillPairReg hl
    00000F67 60               [ 4] 2769 	ld	h, b
                                   2770 ;	spillPairReg hl
                                   2771 ;	spillPairReg hl
    00000F68 3E E0            [ 7] 2772 	ld	a, #0xe0
    00000F6A BD               [ 4] 2773 	cp	a, l
    00000F6B 3E 00            [ 7] 2774 	ld	a, #0x00
    00000F6D 9C               [ 4] 2775 	sbc	a, h
    00000F6E E2r73r0F         [10] 2776 	jp	PO, 00277$
    00000F71 EE 80            [ 7] 2777 	xor	a, #0x80
    00000F73                       2778 00277$:
    00000F73 F2r79r0F         [10] 2779 	jp	P, 00111$
    00000F76 01 E0 00         [10] 2780 	ld	bc, #0x00e0
    00000F79                       2781 00111$:
                                   2782 ;E:\Dropbox\FAUSTO\SVILUPPI\MSX\CODE\C\MSXgl\projects\soccerlgMSX2/soccerlg_s17_b3.c:268: if (final_y < 80) final_y = 80; // Barriera invisibile per non farli entrare
    00000F79 6B               [ 4] 2783 	ld	l, e
                                   2784 ;	spillPairReg hl
                                   2785 ;	spillPairReg hl
    00000F7A 62               [ 4] 2786 	ld	h, d
                                   2787 ;	spillPairReg hl
                                   2788 ;	spillPairReg hl
                                   2789 ;E:\Dropbox\FAUSTO\SVILUPPI\MSX\CODE\C\MSXgl\projects\soccerlgMSX2/soccerlg_s17_b3.c:267: if (corner_y < 256) {
    00000F7B DD 7E F1         [19] 2790 	ld	a, -15 (ix)
    00000F7E B7               [ 4] 2791 	or	a, a
    00000F7F 28 23            [12] 2792 	jr	Z, 00121$
                                   2793 ;E:\Dropbox\FAUSTO\SVILUPPI\MSX\CODE\C\MSXgl\projects\soccerlgMSX2/soccerlg_s17_b3.c:268: if (final_y < 80) final_y = 80; // Barriera invisibile per non farli entrare
    00000F81 7D               [ 4] 2794 	ld	a, l
    00000F82 D6 50            [ 7] 2795 	sub	a, #0x50
    00000F84 7C               [ 4] 2796 	ld	a, h
    00000F85 17               [ 4] 2797 	rla
    00000F86 3F               [ 4] 2798 	ccf
    00000F87 1F               [ 4] 2799 	rra
    00000F88 DE 80            [ 7] 2800 	sbc	a, #0x80
    00000F8A 30 03            [12] 2801 	jr	NC, 00113$
    00000F8C 11 50 00         [10] 2802 	ld	de, #0x0050
    00000F8F                       2803 00113$:
                                   2804 ;E:\Dropbox\FAUSTO\SVILUPPI\MSX\CODE\C\MSXgl\projects\soccerlgMSX2/soccerlg_s17_b3.c:269: if (final_y > 256) final_y = 256;
    00000F8F 6B               [ 4] 2805 	ld	l, e
                                   2806 ;	spillPairReg hl
                                   2807 ;	spillPairReg hl
    00000F90 62               [ 4] 2808 	ld	h, d
                                   2809 ;	spillPairReg hl
                                   2810 ;	spillPairReg hl
    00000F91 AF               [ 4] 2811 	xor	a, a
    00000F92 BD               [ 4] 2812 	cp	a, l
    00000F93 3E 01            [ 7] 2813 	ld	a, #0x01
    00000F95 9C               [ 4] 2814 	sbc	a, h
    00000F96 E2r9Br0F         [10] 2815 	jp	PO, 00278$
    00000F99 EE 80            [ 7] 2816 	xor	a, #0x80
    00000F9B                       2817 00278$:
    00000F9B F2rBFr0F         [10] 2818 	jp	P, 00122$
    00000F9E 11 00 01         [10] 2819 	ld	de, #0x0100
    00000FA1 C3rBFr0F         [10] 2820 	jp	00122$
    00000FA4                       2821 00121$:
                                   2822 ;E:\Dropbox\FAUSTO\SVILUPPI\MSX\CODE\C\MSXgl\projects\soccerlgMSX2/soccerlg_s17_b3.c:271: if (final_y > 432) final_y = 432; // Barriera invisibile
    00000FA4 3E B0            [ 7] 2823 	ld	a, #0xb0
    00000FA6 BD               [ 4] 2824 	cp	a, l
    00000FA7 3E 01            [ 7] 2825 	ld	a, #0x01
    00000FA9 9C               [ 4] 2826 	sbc	a, h
    00000FAA E2rAFr0F         [10] 2827 	jp	PO, 00279$
    00000FAD EE 80            [ 7] 2828 	xor	a, #0x80
    00000FAF                       2829 00279$:
    00000FAF F2rB5r0F         [10] 2830 	jp	P, 00117$
    00000FB2 11 B0 01         [10] 2831 	ld	de, #0x01b0
    00000FB5                       2832 00117$:
                                   2833 ;E:\Dropbox\FAUSTO\SVILUPPI\MSX\CODE\C\MSXgl\projects\soccerlgMSX2/soccerlg_s17_b3.c:272: if (final_y < 256) final_y = 256;
                                   2834 ;	spillPairReg hl
                                   2835 ;	spillPairReg hl
                                   2836 ;	spillPairReg hl
                                   2837 ;	spillPairReg hl
    00000FB5 7A               [ 4] 2838 	ld	a, d
    00000FB6 EE 80            [ 7] 2839 	xor	a, #0x80
    00000FB8 D6 81            [ 7] 2840 	sub	a, #0x81
    00000FBA 30 03            [12] 2841 	jr	NC, 00122$
    00000FBC 11 00 01         [10] 2842 	ld	de, #0x0100
    00000FBF                       2843 00122$:
                                   2844 ;E:\Dropbox\FAUSTO\SVILUPPI\MSX\CODE\C\MSXgl\projects\soccerlgMSX2/soccerlg_s17_b3.c:274: SwSprite[i].tx = (u8)final_x; SwSprite[i].ty = (u16)final_y;
    00000FBF D5               [11] 2845 	push	de
    00000FC0 DD 5E FF         [19] 2846 	ld	e, -1 (ix)
    00000FC3 16 00            [ 7] 2847 	ld	d, #0x00
    00000FC5 6B               [ 4] 2848 	ld	l, e
    00000FC6 62               [ 4] 2849 	ld	h, d
    00000FC7 29               [11] 2850 	add	hl, hl
    00000FC8 29               [11] 2851 	add	hl, hl
    00000FC9 19               [11] 2852 	add	hl, de
    00000FCA 29               [11] 2853 	add	hl, hl
    00000FCB 19               [11] 2854 	add	hl, de
    00000FCC 29               [11] 2855 	add	hl, hl
    00000FCD 19               [11] 2856 	add	hl, de
    00000FCE D1               [10] 2857 	pop	de
    00000FCF 7D               [ 4] 2858 	ld	a, l
    00000FD0 C6r00            [ 7] 2859 	add	a, #<(_SwSprite)
    00000FD2 DD 77 FD         [19] 2860 	ld	-3 (ix), a
    00000FD5 7C               [ 4] 2861 	ld	a, h
    00000FD6 CEs00            [ 7] 2862 	adc	a, #>(_SwSprite)
    00000FD8 DD 77 FE         [19] 2863 	ld	-2 (ix), a
    00000FDB DD 7E FD         [19] 2864 	ld	a, -3 (ix)
    00000FDE C6 0C            [ 7] 2865 	add	a, #0x0c
    00000FE0 6F               [ 4] 2866 	ld	l, a
                                   2867 ;	spillPairReg hl
                                   2868 ;	spillPairReg hl
    00000FE1 DD 7E FE         [19] 2869 	ld	a, -2 (ix)
    00000FE4 CE 00            [ 7] 2870 	adc	a, #0x00
    00000FE6 67               [ 4] 2871 	ld	h, a
    00000FE7 71               [ 7] 2872 	ld	(hl), c
    00000FE8 DD 6E FD         [19] 2873 	ld	l, -3 (ix)
    00000FEB DD 66 FE         [19] 2874 	ld	h, -2 (ix)
    00000FEE 01 0D 00         [10] 2875 	ld	bc, #0x000d
    00000FF1 09               [11] 2876 	add	hl, bc
    00000FF2 73               [ 7] 2877 	ld	(hl), e
    00000FF3 23               [ 6] 2878 	inc	hl
    00000FF4 72               [ 7] 2879 	ld	(hl), d
    00000FF5                       2880 00123$:
                                   2881 ;E:\Dropbox\FAUSTO\SVILUPPI\MSX\CODE\C\MSXgl\projects\soccerlgMSX2/soccerlg_s17_b3.c:253: for(u8 i=1; i<14; i++) {
    00000FF5 DD 34 FF         [23] 2882 	inc	-1 (ix)
    00000FF8 C3r68r0E         [10] 2883 	jp	00126$
    00000FFB                       2884 00127$:
                                   2885 ;E:\Dropbox\FAUSTO\SVILUPPI\MSX\CODE\C\MSXgl\projects\soccerlgMSX2/soccerlg_s17_b3.c:276: }
    00000FFB DD F9            [10] 2886 	ld	sp, ix
    00000FFD DD E1            [14] 2887 	pop	ix
    00000FFF C9               [10] 2888 	ret
                                   2889 ;E:\Dropbox\FAUSTO\SVILUPPI\MSX\CODE\C\MSXgl\projects\soccerlgMSX2/soccerlg_s17_b3.c:278: void ExecuteThrowIn(u8 thrower, u8 receiver) {
                                   2890 ;	---------------------------------
                                   2891 ; Function ExecuteThrowIn
                                   2892 ; ---------------------------------
    00001000                       2893 _ExecuteThrowIn::
    00001000 DD E5            [15] 2894 	push	ix
    00001002 DD 21 00 00      [14] 2895 	ld	ix,#0
    00001006 DD 39            [15] 2896 	add	ix,sp
    00001008 F5               [11] 2897 	push	af
    00001009 4F               [ 4] 2898 	ld	c, a
    0000100A 45               [ 4] 2899 	ld	b, l
                                   2900 ;E:\Dropbox\FAUSTO\SVILUPPI\MSX\CODE\C\MSXgl\projects\soccerlgMSX2/soccerlg_s17_b3.c:279: g_pass_receiver = receiver;
    0000100B 21r00r00         [10] 2901 	ld	hl, #_g_pass_receiver
    0000100E 70               [ 7] 2902 	ld	(hl), b
                                   2903 ;E:\Dropbox\FAUSTO\SVILUPPI\MSX\CODE\C\MSXgl\projects\soccerlgMSX2/soccerlg_s17_b3.c:280: g_pass_start_x = SwSprite[thrower].lx;
    0000100F 59               [ 4] 2904 	ld	e, c
    00001010 16 00            [ 7] 2905 	ld	d, #0x00
    00001012 6B               [ 4] 2906 	ld	l, e
    00001013 62               [ 4] 2907 	ld	h, d
    00001014 29               [11] 2908 	add	hl, hl
    00001015 29               [11] 2909 	add	hl, hl
    00001016 19               [11] 2910 	add	hl, de
    00001017 29               [11] 2911 	add	hl, hl
    00001018 19               [11] 2912 	add	hl, de
    00001019 29               [11] 2913 	add	hl, hl
    0000101A 19               [11] 2914 	add	hl, de
    0000101B EB               [ 4] 2915 	ex	de, hl
    0000101C 21r00r00         [10] 2916 	ld	hl, #_SwSprite
    0000101F 19               [11] 2917 	add	hl, de
    00001020 EB               [ 4] 2918 	ex	de, hl
    00001021 1A               [ 7] 2919 	ld	a, (de)
    00001022 32r00r00         [13] 2920 	ld	(_g_pass_start_x+0), a
    00001025 AF               [ 4] 2921 	xor	a, a
    00001026 32r01r00         [13] 2922 	ld	(_g_pass_start_x+1), a
                                   2923 ;E:\Dropbox\FAUSTO\SVILUPPI\MSX\CODE\C\MSXgl\projects\soccerlgMSX2/soccerlg_s17_b3.c:281: g_pass_start_y = SwSprite[thrower].ly - 6; 
    00001029 21 04 00         [10] 2924 	ld	hl, #4
    0000102C 19               [11] 2925 	add	hl, de
    0000102D 5E               [ 7] 2926 	ld	e, (hl)
    0000102E 23               [ 6] 2927 	inc	hl
    0000102F 56               [ 7] 2928 	ld	d, (hl)
    00001030 7B               [ 4] 2929 	ld	a, e
    00001031 C6 FA            [ 7] 2930 	add	a, #0xfa
    00001033 6F               [ 4] 2931 	ld	l, a
                                   2932 ;	spillPairReg hl
                                   2933 ;	spillPairReg hl
    00001034 7A               [ 4] 2934 	ld	a, d
    00001035 CE FF            [ 7] 2935 	adc	a, #0xff
    00001037 67               [ 4] 2936 	ld	h, a
                                   2937 ;	spillPairReg hl
                                   2938 ;	spillPairReg hl
    00001038 22r00r00         [16] 2939 	ld	(_g_pass_start_y), hl
                                   2940 ;E:\Dropbox\FAUSTO\SVILUPPI\MSX\CODE\C\MSXgl\projects\soccerlgMSX2/soccerlg_s17_b3.c:282: g_pass_target_x = SwSprite[receiver].lx;
    0000103B 58               [ 4] 2941 	ld	e, b
    0000103C 16 00            [ 7] 2942 	ld	d, #0x00
    0000103E 6B               [ 4] 2943 	ld	l, e
    0000103F 62               [ 4] 2944 	ld	h, d
    00001040 29               [11] 2945 	add	hl, hl
    00001041 29               [11] 2946 	add	hl, hl
    00001042 19               [11] 2947 	add	hl, de
    00001043 29               [11] 2948 	add	hl, hl
    00001044 19               [11] 2949 	add	hl, de
    00001045 29               [11] 2950 	add	hl, hl
    00001046 19               [11] 2951 	add	hl, de
    00001047 EB               [ 4] 2952 	ex	de, hl
    00001048 21r00r00         [10] 2953 	ld	hl, #_SwSprite
    0000104B 19               [11] 2954 	add	hl, de
    0000104C EB               [ 4] 2955 	ex	de, hl
    0000104D 1A               [ 7] 2956 	ld	a, (de)
    0000104E 32r00r00         [13] 2957 	ld	(_g_pass_target_x+0), a
    00001051 AF               [ 4] 2958 	xor	a, a
    00001052 32r01r00         [13] 2959 	ld	(_g_pass_target_x+1), a
                                   2960 ;E:\Dropbox\FAUSTO\SVILUPPI\MSX\CODE\C\MSXgl\projects\soccerlgMSX2/soccerlg_s17_b3.c:283: g_pass_target_y = SwSprite[receiver].ly;
    00001055 21 04 00         [10] 2961 	ld	hl, #4
    00001058 19               [11] 2962 	add	hl, de
    00001059 7E               [ 7] 2963 	ld	a, (hl)
    0000105A 23               [ 6] 2964 	inc	hl
    0000105B 32r00r00         [13] 2965 	ld	(_g_pass_target_y+0), a
    0000105E 7E               [ 7] 2966 	ld	a, (hl)
    0000105F 32r01r00         [13] 2967 	ld	(_g_pass_target_y+1), a
                                   2968 ;E:\Dropbox\FAUSTO\SVILUPPI\MSX\CODE\C\MSXgl\projects\soccerlgMSX2/soccerlg_s17_b3.c:285: u16 r_dx = (g_pass_target_x > g_pass_start_x) ? (g_pass_target_x - g_pass_start_x) : (g_pass_start_x - g_pass_target_x);
    00001062 21r00r00         [10] 2969 	ld	hl, #_g_pass_start_x
    00001065 7E               [ 7] 2970 	ld	a, (hl)
    00001066 FD 21r00r00      [14] 2971 	ld	iy, #_g_pass_target_x
    0000106A FD 96 00         [19] 2972 	sub	a, 0 (iy)
    0000106D 23               [ 6] 2973 	inc	hl
    0000106E 7E               [ 7] 2974 	ld	a, (hl)
    0000106F FD 9E 01         [19] 2975 	sbc	a, 1 (iy)
    00001072 30 0D            [12] 2976 	jr	NC, 00107$
    00001074 ED 5Br00r00      [20] 2977 	ld	de, (_g_pass_start_x)
    00001078 2Ar00r00         [16] 2978 	ld	hl, (_g_pass_target_x)
    0000107B BF               [ 4] 2979 	cp	a, a
    0000107C ED 52            [15] 2980 	sbc	hl, de
    0000107E C3r8Br10         [10] 2981 	jp	00108$
    00001081                       2982 00107$:
    00001081 ED 5Br00r00      [20] 2983 	ld	de, (_g_pass_target_x)
    00001085 2Ar00r00         [16] 2984 	ld	hl, (_g_pass_start_x)
    00001088 BF               [ 4] 2985 	cp	a, a
    00001089 ED 52            [15] 2986 	sbc	hl, de
    0000108B                       2987 00108$:
    0000108B E3               [19] 2988 	ex	(sp), hl
                                   2989 ;E:\Dropbox\FAUSTO\SVILUPPI\MSX\CODE\C\MSXgl\projects\soccerlgMSX2/soccerlg_s17_b3.c:286: u16 r_dy = (g_pass_target_y > g_pass_start_y) ? (g_pass_target_y - g_pass_start_y) : (g_pass_start_y - g_pass_target_y);
    0000108C 21r00r00         [10] 2990 	ld	hl, #_g_pass_start_y
    0000108F 7E               [ 7] 2991 	ld	a, (hl)
    00001090 FD 21r00r00      [14] 2992 	ld	iy, #_g_pass_target_y
    00001094 FD 96 00         [19] 2993 	sub	a, 0 (iy)
    00001097 23               [ 6] 2994 	inc	hl
    00001098 7E               [ 7] 2995 	ld	a, (hl)
    00001099 FD 9E 01         [19] 2996 	sbc	a, 1 (iy)
    0000109C 30 11            [12] 2997 	jr	NC, 00109$
    0000109E 21r00r00         [10] 2998 	ld	hl, #_g_pass_start_y
    000010A1 3Ar00r00         [13] 2999 	ld	a, (_g_pass_target_y+0)
    000010A4 96               [ 7] 3000 	sub	a, (hl)
    000010A5 23               [ 6] 3001 	inc	hl
    000010A6 47               [ 4] 3002 	ld	b, a
    000010A7 3Ar01r00         [13] 3003 	ld	a, (_g_pass_target_y+1)
    000010AA 9E               [ 7] 3004 	sbc	a, (hl)
    000010AB 57               [ 4] 3005 	ld	d, a
    000010AC C3rBDr10         [10] 3006 	jp	00110$
    000010AF                       3007 00109$:
    000010AF 21r00r00         [10] 3008 	ld	hl, #_g_pass_target_y
    000010B2 3Ar00r00         [13] 3009 	ld	a, (_g_pass_start_y+0)
    000010B5 96               [ 7] 3010 	sub	a, (hl)
    000010B6 23               [ 6] 3011 	inc	hl
    000010B7 47               [ 4] 3012 	ld	b, a
    000010B8 3Ar01r00         [13] 3013 	ld	a, (_g_pass_start_y+1)
    000010BB 9E               [ 7] 3014 	sbc	a, (hl)
    000010BC 57               [ 4] 3015 	ld	d, a
    000010BD                       3016 00110$:
    000010BD 58               [ 4] 3017 	ld	e, b
                                   3018 ;E:\Dropbox\FAUSTO\SVILUPPI\MSX\CODE\C\MSXgl\projects\soccerlgMSX2/soccerlg_s17_b3.c:288: g_pass_max_frames = (r_dx + r_dy) / 4; 
    000010BE E1               [10] 3019 	pop	hl
    000010BF E5               [11] 3020 	push	hl
    000010C0 19               [11] 3021 	add	hl, de
    000010C1 CB 3C            [ 8] 3022 	srl	h
    000010C3 CB 1D            [ 8] 3023 	rr	l
    000010C5 CB 3C            [ 8] 3024 	srl	h
    000010C7 CB 1D            [ 8] 3025 	rr	l
    000010C9 FD 21r00r00      [14] 3026 	ld	iy, #_g_pass_max_frames
    000010CD FD 75 00         [19] 3027 	ld	0 (iy), l
                                   3028 ;E:\Dropbox\FAUSTO\SVILUPPI\MSX\CODE\C\MSXgl\projects\soccerlgMSX2/soccerlg_s17_b3.c:289: if (g_pass_max_frames < 10) g_pass_max_frames = 10;
    000010D0 3Ar00r00         [13] 3029 	ld	a, (_g_pass_max_frames+0)
    000010D3 D6 0A            [ 7] 3030 	sub	a, #0x0a
    000010D5 30 04            [12] 3031 	jr	NC, 00102$
    000010D7 FD 36 00 0A      [19] 3032 	ld	0 (iy), #0x0a
    000010DB                       3033 00102$:
                                   3034 ;E:\Dropbox\FAUSTO\SVILUPPI\MSX\CODE\C\MSXgl\projects\soccerlgMSX2/soccerlg_s17_b3.c:290: if (g_pass_max_frames > 40) g_pass_max_frames = 40;
    000010DB 3E 28            [ 7] 3035 	ld	a, #0x28
    000010DD FD 21r00r00      [14] 3036 	ld	iy, #_g_pass_max_frames
    000010E1 FD 96 00         [19] 3037 	sub	a, 0 (iy)
    000010E4 30 04            [12] 3038 	jr	NC, 00104$
    000010E6 FD 36 00 28      [19] 3039 	ld	0 (iy), #0x28
    000010EA                       3040 00104$:
                                   3041 ;E:\Dropbox\FAUSTO\SVILUPPI\MSX\CODE\C\MSXgl\projects\soccerlgMSX2/soccerlg_s17_b3.c:291: g_pass_max_height = 3; // Altezza ridotta per il fallo laterale
    000010EA 21r00r00         [10] 3042 	ld	hl, #_g_pass_max_height
    000010ED 36 03            [10] 3043 	ld	(hl), #0x03
                                   3044 ;E:\Dropbox\FAUSTO\SVILUPPI\MSX\CODE\C\MSXgl\projects\soccerlgMSX2/soccerlg_s17_b3.c:293: SwSprite[14].lx = g_pass_start_x;
    000010EF 3Ar00r00         [13] 3045 	ld	a, (_g_pass_start_x+0)
    000010F2 32r42r01         [13] 3046 	ld	(#(_SwSprite + 322)),a
                                   3047 ;E:\Dropbox\FAUSTO\SVILUPPI\MSX\CODE\C\MSXgl\projects\soccerlgMSX2/soccerlg_s17_b3.c:294: SwSprite[14].ly = g_pass_start_y;
    000010F5 21r46r01         [10] 3048 	ld	hl, #(_SwSprite + 326)
    000010F8 3Ar00r00         [13] 3049 	ld	a, (_g_pass_start_y+0)
    000010FB 77               [ 7] 3050 	ld	(hl), a
    000010FC 23               [ 6] 3051 	inc	hl
    000010FD 3Ar01r00         [13] 3052 	ld	a, (_g_pass_start_y+1)
    00001100 77               [ 7] 3053 	ld	(hl), a
                                   3054 ;E:\Dropbox\FAUSTO\SVILUPPI\MSX\CODE\C\MSXgl\projects\soccerlgMSX2/soccerlg_s17_b3.c:295: SwSprite[14].anim = 5; 
    00001101 21 05 00         [10] 3055 	ld	hl, #0x0005
    00001104 22r55r01         [16] 3056 	ld	((_SwSprite + 341)), hl
                                   3057 ;E:\Dropbox\FAUSTO\SVILUPPI\MSX\CODE\C\MSXgl\projects\soccerlgMSX2/soccerlg_s17_b3.c:296: SwSprite[14].count = 0; 
    00001107 6C               [ 4] 3058 	ld	l, h
    00001108 22r57r01         [16] 3059 	ld	((_SwSprite + 343)), hl
                                   3060 ;E:\Dropbox\FAUSTO\SVILUPPI\MSX\CODE\C\MSXgl\projects\soccerlgMSX2/soccerlg_s17_b3.c:297: CallFnc_VOID(SEG_EVENTS, EventBallKicked);
    0000110B C5               [11] 3061 	push	bc
    0000110C 11r00r00         [10] 3062 	ld	de, #_EventBallKicked
    0000110F 3E 08            [ 7] 3063 	ld	a, #0x08
    00001111 CDr00r00         [17] 3064 	call	_CallFnc_VOID
    00001114 C1               [10] 3065 	pop	bc
                                   3066 ;E:\Dropbox\FAUSTO\SVILUPPI\MSX\CODE\C\MSXgl\projects\soccerlgMSX2/soccerlg_s17_b3.c:298: LastTouchTeam = (thrower < 7) ? TEAM_1 : TEAM_2;
    00001115 79               [ 4] 3067 	ld	a, c
    00001116 D6 07            [ 7] 3068 	sub	a, #0x07
    00001118 30 04            [12] 3069 	jr	NC, 00111$
    0000111A AF               [ 4] 3070 	xor	a, a
    0000111B C3r20r11         [10] 3071 	jp	00112$
    0000111E                       3072 00111$:
    0000111E 3E 01            [ 7] 3073 	ld	a, #0x01
    00001120                       3074 00112$:
    00001120 32r00r00         [13] 3075 	ld	(_LastTouchTeam+0), a
                                   3076 ;E:\Dropbox\FAUSTO\SVILUPPI\MSX\CODE\C\MSXgl\projects\soccerlgMSX2/soccerlg_s17_b3.c:299: LastTouchPlayer = thrower;
    00001123 21r00r00         [10] 3077 	ld	hl, #_LastTouchPlayer
    00001126 71               [ 7] 3078 	ld	(hl), c
                                   3079 ;E:\Dropbox\FAUSTO\SVILUPPI\MSX\CODE\C\MSXgl\projects\soccerlgMSX2/soccerlg_s17_b3.c:300: }
    00001127 DD F9            [10] 3080 	ld	sp, ix
    00001129 DD E1            [14] 3081 	pop	ix
    0000112B C9               [10] 3082 	ret
                                   3083 ;E:\Dropbox\FAUSTO\SVILUPPI\MSX\CODE\C\MSXgl\projects\soccerlgMSX2/soccerlg_s17_b3.c:302: void ExecuteCornerKick(u8 thrower, u8 receiver) {
                                   3084 ;	---------------------------------
                                   3085 ; Function ExecuteCornerKick
                                   3086 ; ---------------------------------
    0000112C                       3087 _ExecuteCornerKick::
    0000112C DD E5            [15] 3088 	push	ix
    0000112E DD 21 00 00      [14] 3089 	ld	ix,#0
    00001132 DD 39            [15] 3090 	add	ix,sp
    00001134 F5               [11] 3091 	push	af
    00001135 4F               [ 4] 3092 	ld	c, a
    00001136 45               [ 4] 3093 	ld	b, l
                                   3094 ;E:\Dropbox\FAUSTO\SVILUPPI\MSX\CODE\C\MSXgl\projects\soccerlgMSX2/soccerlg_s17_b3.c:303: g_pass_receiver = receiver;
    00001137 21r00r00         [10] 3095 	ld	hl, #_g_pass_receiver
    0000113A 70               [ 7] 3096 	ld	(hl), b
                                   3097 ;E:\Dropbox\FAUSTO\SVILUPPI\MSX\CODE\C\MSXgl\projects\soccerlgMSX2/soccerlg_s17_b3.c:304: g_pass_start_x = SwSprite[thrower].lx;
    0000113B 59               [ 4] 3098 	ld	e, c
    0000113C 16 00            [ 7] 3099 	ld	d, #0x00
    0000113E 6B               [ 4] 3100 	ld	l, e
    0000113F 62               [ 4] 3101 	ld	h, d
    00001140 29               [11] 3102 	add	hl, hl
    00001141 29               [11] 3103 	add	hl, hl
    00001142 19               [11] 3104 	add	hl, de
    00001143 29               [11] 3105 	add	hl, hl
    00001144 19               [11] 3106 	add	hl, de
    00001145 29               [11] 3107 	add	hl, hl
    00001146 19               [11] 3108 	add	hl, de
    00001147 EB               [ 4] 3109 	ex	de, hl
    00001148 21r00r00         [10] 3110 	ld	hl, #_SwSprite
    0000114B 19               [11] 3111 	add	hl, de
    0000114C EB               [ 4] 3112 	ex	de, hl
    0000114D 1A               [ 7] 3113 	ld	a, (de)
    0000114E 32r00r00         [13] 3114 	ld	(_g_pass_start_x+0), a
    00001151 AF               [ 4] 3115 	xor	a, a
    00001152 32r01r00         [13] 3116 	ld	(_g_pass_start_x+1), a
                                   3117 ;E:\Dropbox\FAUSTO\SVILUPPI\MSX\CODE\C\MSXgl\projects\soccerlgMSX2/soccerlg_s17_b3.c:305: g_pass_start_y = SwSprite[thrower].ly; 
    00001155 21 04 00         [10] 3118 	ld	hl, #4
    00001158 19               [11] 3119 	add	hl, de
    00001159 7E               [ 7] 3120 	ld	a, (hl)
    0000115A 23               [ 6] 3121 	inc	hl
    0000115B 32r00r00         [13] 3122 	ld	(_g_pass_start_y+0), a
    0000115E 7E               [ 7] 3123 	ld	a, (hl)
    0000115F 32r01r00         [13] 3124 	ld	(_g_pass_start_y+1), a
                                   3125 ;E:\Dropbox\FAUSTO\SVILUPPI\MSX\CODE\C\MSXgl\projects\soccerlgMSX2/soccerlg_s17_b3.c:306: g_pass_target_x = SwSprite[receiver].lx;
    00001162 58               [ 4] 3126 	ld	e, b
    00001163 16 00            [ 7] 3127 	ld	d, #0x00
    00001165 6B               [ 4] 3128 	ld	l, e
    00001166 62               [ 4] 3129 	ld	h, d
    00001167 29               [11] 3130 	add	hl, hl
    00001168 29               [11] 3131 	add	hl, hl
    00001169 19               [11] 3132 	add	hl, de
    0000116A 29               [11] 3133 	add	hl, hl
    0000116B 19               [11] 3134 	add	hl, de
    0000116C 29               [11] 3135 	add	hl, hl
    0000116D 19               [11] 3136 	add	hl, de
    0000116E EB               [ 4] 3137 	ex	de, hl
    0000116F 21r00r00         [10] 3138 	ld	hl, #_SwSprite
    00001172 19               [11] 3139 	add	hl, de
    00001173 EB               [ 4] 3140 	ex	de, hl
    00001174 1A               [ 7] 3141 	ld	a, (de)
    00001175 32r00r00         [13] 3142 	ld	(_g_pass_target_x+0), a
    00001178 AF               [ 4] 3143 	xor	a, a
    00001179 32r01r00         [13] 3144 	ld	(_g_pass_target_x+1), a
                                   3145 ;E:\Dropbox\FAUSTO\SVILUPPI\MSX\CODE\C\MSXgl\projects\soccerlgMSX2/soccerlg_s17_b3.c:307: g_pass_target_y = SwSprite[receiver].ly;
    0000117C 21 04 00         [10] 3146 	ld	hl, #4
    0000117F 19               [11] 3147 	add	hl, de
    00001180 7E               [ 7] 3148 	ld	a, (hl)
    00001181 23               [ 6] 3149 	inc	hl
    00001182 32r00r00         [13] 3150 	ld	(_g_pass_target_y+0), a
    00001185 7E               [ 7] 3151 	ld	a, (hl)
    00001186 32r01r00         [13] 3152 	ld	(_g_pass_target_y+1), a
                                   3153 ;E:\Dropbox\FAUSTO\SVILUPPI\MSX\CODE\C\MSXgl\projects\soccerlgMSX2/soccerlg_s17_b3.c:309: u16 r_dx = (g_pass_target_x > g_pass_start_x) ? (g_pass_target_x - g_pass_start_x) : (g_pass_start_x - g_pass_target_x);
    00001189 21r00r00         [10] 3154 	ld	hl, #_g_pass_start_x
    0000118C 7E               [ 7] 3155 	ld	a, (hl)
    0000118D FD 21r00r00      [14] 3156 	ld	iy, #_g_pass_target_x
    00001191 FD 96 00         [19] 3157 	sub	a, 0 (iy)
    00001194 23               [ 6] 3158 	inc	hl
    00001195 7E               [ 7] 3159 	ld	a, (hl)
    00001196 FD 9E 01         [19] 3160 	sbc	a, 1 (iy)
    00001199 30 0D            [12] 3161 	jr	NC, 00107$
    0000119B ED 5Br00r00      [20] 3162 	ld	de, (_g_pass_start_x)
    0000119F 2Ar00r00         [16] 3163 	ld	hl, (_g_pass_target_x)
    000011A2 BF               [ 4] 3164 	cp	a, a
    000011A3 ED 52            [15] 3165 	sbc	hl, de
    000011A5 C3rB2r11         [10] 3166 	jp	00108$
    000011A8                       3167 00107$:
    000011A8 ED 5Br00r00      [20] 3168 	ld	de, (_g_pass_target_x)
    000011AC 2Ar00r00         [16] 3169 	ld	hl, (_g_pass_start_x)
    000011AF BF               [ 4] 3170 	cp	a, a
    000011B0 ED 52            [15] 3171 	sbc	hl, de
    000011B2                       3172 00108$:
    000011B2 E3               [19] 3173 	ex	(sp), hl
                                   3174 ;E:\Dropbox\FAUSTO\SVILUPPI\MSX\CODE\C\MSXgl\projects\soccerlgMSX2/soccerlg_s17_b3.c:310: u16 r_dy = (g_pass_target_y > g_pass_start_y) ? (g_pass_target_y - g_pass_start_y) : (g_pass_start_y - g_pass_target_y);
    000011B3 21r00r00         [10] 3175 	ld	hl, #_g_pass_start_y
    000011B6 7E               [ 7] 3176 	ld	a, (hl)
    000011B7 FD 21r00r00      [14] 3177 	ld	iy, #_g_pass_target_y
    000011BB FD 96 00         [19] 3178 	sub	a, 0 (iy)
    000011BE 23               [ 6] 3179 	inc	hl
    000011BF 7E               [ 7] 3180 	ld	a, (hl)
    000011C0 FD 9E 01         [19] 3181 	sbc	a, 1 (iy)
    000011C3 30 11            [12] 3182 	jr	NC, 00109$
    000011C5 21r00r00         [10] 3183 	ld	hl, #_g_pass_start_y
    000011C8 3Ar00r00         [13] 3184 	ld	a, (_g_pass_target_y+0)
    000011CB 96               [ 7] 3185 	sub	a, (hl)
    000011CC 23               [ 6] 3186 	inc	hl
    000011CD 47               [ 4] 3187 	ld	b, a
    000011CE 3Ar01r00         [13] 3188 	ld	a, (_g_pass_target_y+1)
    000011D1 9E               [ 7] 3189 	sbc	a, (hl)
    000011D2 57               [ 4] 3190 	ld	d, a
    000011D3 C3rE4r11         [10] 3191 	jp	00110$
    000011D6                       3192 00109$:
    000011D6 21r00r00         [10] 3193 	ld	hl, #_g_pass_target_y
    000011D9 3Ar00r00         [13] 3194 	ld	a, (_g_pass_start_y+0)
    000011DC 96               [ 7] 3195 	sub	a, (hl)
    000011DD 23               [ 6] 3196 	inc	hl
    000011DE 47               [ 4] 3197 	ld	b, a
    000011DF 3Ar01r00         [13] 3198 	ld	a, (_g_pass_start_y+1)
    000011E2 9E               [ 7] 3199 	sbc	a, (hl)
    000011E3 57               [ 4] 3200 	ld	d, a
    000011E4                       3201 00110$:
    000011E4 58               [ 4] 3202 	ld	e, b
                                   3203 ;E:\Dropbox\FAUSTO\SVILUPPI\MSX\CODE\C\MSXgl\projects\soccerlgMSX2/soccerlg_s17_b3.c:312: g_pass_max_frames = (r_dx + r_dy) / 3; 
    000011E5 E1               [10] 3204 	pop	hl
    000011E6 E5               [11] 3205 	push	hl
    000011E7 19               [11] 3206 	add	hl, de
    000011E8 C5               [11] 3207 	push	bc
    000011E9 11 03 00         [10] 3208 	ld	de, #0x0003
    000011EC CDr00r00         [17] 3209 	call	__divuint
    000011EF C1               [10] 3210 	pop	bc
    000011F0 FD 21r00r00      [14] 3211 	ld	iy, #_g_pass_max_frames
    000011F4 FD 73 00         [19] 3212 	ld	0 (iy), e
                                   3213 ;E:\Dropbox\FAUSTO\SVILUPPI\MSX\CODE\C\MSXgl\projects\soccerlgMSX2/soccerlg_s17_b3.c:313: if (g_pass_max_frames < 20) g_pass_max_frames = 20;
    000011F7 3Ar00r00         [13] 3214 	ld	a, (_g_pass_max_frames+0)
    000011FA D6 14            [ 7] 3215 	sub	a, #0x14
    000011FC 30 04            [12] 3216 	jr	NC, 00102$
    000011FE FD 36 00 14      [19] 3217 	ld	0 (iy), #0x14
    00001202                       3218 00102$:
                                   3219 ;E:\Dropbox\FAUSTO\SVILUPPI\MSX\CODE\C\MSXgl\projects\soccerlgMSX2/soccerlg_s17_b3.c:314: if (g_pass_max_frames > 60) g_pass_max_frames = 60;
    00001202 3E 3C            [ 7] 3220 	ld	a, #0x3c
    00001204 FD 21r00r00      [14] 3221 	ld	iy, #_g_pass_max_frames
    00001208 FD 96 00         [19] 3222 	sub	a, 0 (iy)
    0000120B 30 04            [12] 3223 	jr	NC, 00104$
    0000120D FD 36 00 3C      [19] 3224 	ld	0 (iy), #0x3c
    00001211                       3225 00104$:
                                   3226 ;E:\Dropbox\FAUSTO\SVILUPPI\MSX\CODE\C\MSXgl\projects\soccerlgMSX2/soccerlg_s17_b3.c:315: g_pass_max_height = 7; // Cross alto e a spiovere
    00001211 21r00r00         [10] 3227 	ld	hl, #_g_pass_max_height
    00001214 36 07            [10] 3228 	ld	(hl), #0x07
                                   3229 ;E:\Dropbox\FAUSTO\SVILUPPI\MSX\CODE\C\MSXgl\projects\soccerlgMSX2/soccerlg_s17_b3.c:317: SwSprite[14].lx = g_pass_start_x; SwSprite[14].ly = g_pass_start_y;
    00001216 3Ar00r00         [13] 3230 	ld	a, (_g_pass_start_x+0)
    00001219 32r42r01         [13] 3231 	ld	(#(_SwSprite + 322)),a
    0000121C 21r46r01         [10] 3232 	ld	hl, #(_SwSprite + 326)
    0000121F 3Ar00r00         [13] 3233 	ld	a, (_g_pass_start_y+0)
    00001222 77               [ 7] 3234 	ld	(hl), a
    00001223 23               [ 6] 3235 	inc	hl
    00001224 3Ar01r00         [13] 3236 	ld	a, (_g_pass_start_y+1)
    00001227 77               [ 7] 3237 	ld	(hl), a
                                   3238 ;E:\Dropbox\FAUSTO\SVILUPPI\MSX\CODE\C\MSXgl\projects\soccerlgMSX2/soccerlg_s17_b3.c:318: SwSprite[14].anim = 5; SwSprite[14].count = 0; 
    00001228 21 05 00         [10] 3239 	ld	hl, #0x0005
    0000122B 22r55r01         [16] 3240 	ld	((_SwSprite + 341)), hl
    0000122E 6C               [ 4] 3241 	ld	l, h
    0000122F 22r57r01         [16] 3242 	ld	((_SwSprite + 343)), hl
                                   3243 ;E:\Dropbox\FAUSTO\SVILUPPI\MSX\CODE\C\MSXgl\projects\soccerlgMSX2/soccerlg_s17_b3.c:319: CallFnc_VOID(SEG_EVENTS, EventBallKicked);
    00001232 C5               [11] 3244 	push	bc
    00001233 11r00r00         [10] 3245 	ld	de, #_EventBallKicked
    00001236 3E 08            [ 7] 3246 	ld	a, #0x08
    00001238 CDr00r00         [17] 3247 	call	_CallFnc_VOID
    0000123B C1               [10] 3248 	pop	bc
                                   3249 ;E:\Dropbox\FAUSTO\SVILUPPI\MSX\CODE\C\MSXgl\projects\soccerlgMSX2/soccerlg_s17_b3.c:320: LastTouchTeam = (thrower < 7) ? TEAM_1 : TEAM_2;
    0000123C 79               [ 4] 3250 	ld	a, c
    0000123D D6 07            [ 7] 3251 	sub	a, #0x07
    0000123F 30 04            [12] 3252 	jr	NC, 00111$
    00001241 AF               [ 4] 3253 	xor	a, a
    00001242 C3r47r12         [10] 3254 	jp	00112$
    00001245                       3255 00111$:
    00001245 3E 01            [ 7] 3256 	ld	a, #0x01
    00001247                       3257 00112$:
    00001247 32r00r00         [13] 3258 	ld	(_LastTouchTeam+0), a
                                   3259 ;E:\Dropbox\FAUSTO\SVILUPPI\MSX\CODE\C\MSXgl\projects\soccerlgMSX2/soccerlg_s17_b3.c:321: LastTouchPlayer = thrower;
    0000124A 21r00r00         [10] 3260 	ld	hl, #_LastTouchPlayer
    0000124D 71               [ 7] 3261 	ld	(hl), c
                                   3262 ;E:\Dropbox\FAUSTO\SVILUPPI\MSX\CODE\C\MSXgl\projects\soccerlgMSX2/soccerlg_s17_b3.c:322: }
    0000124E DD F9            [10] 3263 	ld	sp, ix
    00001250 DD E1            [14] 3264 	pop	ix
    00001252 C9               [10] 3265 	ret
                                   3266 ;E:\Dropbox\FAUSTO\SVILUPPI\MSX\CODE\C\MSXgl\projects\soccerlgMSX2/soccerlg_s17_b3.c:324: void AssignOffsideTargets() {
                                   3267 ;	---------------------------------
                                   3268 ; Function AssignOffsideTargets
                                   3269 ; ---------------------------------
    00001253                       3270 _AssignOffsideTargets::
    00001253 DD E5            [15] 3271 	push	ix
    00001255 DD 21 00 00      [14] 3272 	ld	ix,#0
    00001259 DD 39            [15] 3273 	add	ix,sp
    0000125B 21 EC FF         [10] 3274 	ld	hl, #-20
    0000125E 39               [11] 3275 	add	hl, sp
    0000125F F9               [ 6] 3276 	ld	sp, hl
                                   3277 ;E:\Dropbox\FAUSTO\SVILUPPI\MSX\CODE\C\MSXgl\projects\soccerlgMSX2/soccerlg_s17_b3.c:325: u8 team_to_kick = (LastTouchTeam == TEAM_1) ? TEAM_2 : TEAM_1;
    00001260 3Ar00r00         [13] 3278 	ld	a, (_LastTouchTeam+0)
    00001263 B7               [ 4] 3279 	or	a, a
    00001264 20 06            [12] 3280 	jr	NZ, 00138$
    00001266 01 01 00         [10] 3281 	ld	bc, #0x0001
    00001269 C3r6Fr12         [10] 3282 	jp	00139$
    0000126C                       3283 00138$:
    0000126C 01 00 00         [10] 3284 	ld	bc, #0x0000
    0000126F                       3285 00139$:
    0000126F DD 71 EC         [19] 3286 	ld	-20 (ix), c
                                   3287 ;E:\Dropbox\FAUSTO\SVILUPPI\MSX\CODE\C\MSXgl\projects\soccerlgMSX2/soccerlg_s17_b3.c:327: SwSprite[14].lx = RestartSideX;
    00001272 21r42r01         [10] 3288 	ld	hl, #(_SwSprite + 322)
    00001275 3Ar00r00         [13] 3289 	ld	a, (_RestartSideX+0)
    00001278 77               [ 7] 3290 	ld	(hl), a
                                   3291 ;E:\Dropbox\FAUSTO\SVILUPPI\MSX\CODE\C\MSXgl\projects\soccerlgMSX2/soccerlg_s17_b3.c:328: SwSprite[14].ly = RestartSideY;
    00001279 21r46r01         [10] 3292 	ld	hl, #(_SwSprite + 326)
    0000127C 3Ar00r00         [13] 3293 	ld	a, (_RestartSideY+0)
    0000127F 77               [ 7] 3294 	ld	(hl), a
    00001280 23               [ 6] 3295 	inc	hl
    00001281 3Ar01r00         [13] 3296 	ld	a, (_RestartSideY+1)
    00001284 77               [ 7] 3297 	ld	(hl), a
                                   3298 ;E:\Dropbox\FAUSTO\SVILUPPI\MSX\CODE\C\MSXgl\projects\soccerlgMSX2/soccerlg_s17_b3.c:329: SwSprite[14].frame = SPR_BALL_SIZE_1;
    00001285 21 60 00         [10] 3299 	ld	hl, #0x0060
    00001288 22r51r01         [16] 3300 	ld	((_SwSprite + 337)), hl
                                   3301 ;E:\Dropbox\FAUSTO\SVILUPPI\MSX\CODE\C\MSXgl\projects\soccerlgMSX2/soccerlg_s17_b3.c:330: SwSprite[14].dx = SwSprite[14].dy = SwSprite[14].anim = SwSprite[14].count = 0;
    0000128B 6C               [ 4] 3302 	ld	l, h
    0000128C 22r57r01         [16] 3303 	ld	((_SwSprite + 343)), hl
    0000128F 22r55r01         [16] 3304 	ld	((_SwSprite + 341)), hl
    00001292 21r54r01         [10] 3305 	ld	hl, #(_SwSprite + 340)
    00001295 36 00            [10] 3306 	ld	(hl), #0x00
    00001297 21r53r01         [10] 3307 	ld	hl, #(_SwSprite + 339)
    0000129A 36 00            [10] 3308 	ld	(hl), #0x00
                                   3309 ;E:\Dropbox\FAUSTO\SVILUPPI\MSX\CODE\C\MSXgl\projects\soccerlgMSX2/soccerlg_s17_b3.c:333: u8 start_t = (team_to_kick == TEAM_1) ? 1 : 8;
    0000129C DD 7E EC         [19] 3310 	ld	a, -20 (ix)
    0000129F B7               [ 4] 3311 	or	a, a
    000012A0 20 06            [12] 3312 	jr	NZ, 00140$
    000012A2 01 01 00         [10] 3313 	ld	bc, #0x0001
    000012A5 C3rABr12         [10] 3314 	jp	00141$
    000012A8                       3315 00140$:
    000012A8 01 08 00         [10] 3316 	ld	bc, #0x0008
    000012AB                       3317 00141$:
                                   3318 ;E:\Dropbox\FAUSTO\SVILUPPI\MSX\CODE\C\MSXgl\projects\soccerlgMSX2/soccerlg_s17_b3.c:334: u8 thrower = start_t;
    000012AB DD 71 F6         [19] 3319 	ld	-10 (ix), c
    000012AE DD 71 ED         [19] 3320 	ld	-19 (ix), c
                                   3321 ;E:\Dropbox\FAUSTO\SVILUPPI\MSX\CODE\C\MSXgl\projects\soccerlgMSX2/soccerlg_s17_b3.c:335: u16 min_dist = 0xFFFF;
    000012B1 DD 36 F7 FF      [19] 3322 	ld	-9 (ix), #0xff
    000012B5 DD 36 F8 FF      [19] 3323 	ld	-8 (ix), #0xff
                                   3324 ;E:\Dropbox\FAUSTO\SVILUPPI\MSX\CODE\C\MSXgl\projects\soccerlgMSX2/soccerlg_s17_b3.c:337: for (u8 i = start_t; i < start_t + 6; i++) {
    000012B9 DD 7E F6         [19] 3325 	ld	a, -10 (ix)
    000012BC DD 77 FF         [19] 3326 	ld	-1 (ix), a
    000012BF                       3327 00132$:
    000012BF DD 7E F6         [19] 3328 	ld	a, -10 (ix)
    000012C2 DD 77 FD         [19] 3329 	ld	-3 (ix), a
    000012C5 DD 36 FE 00      [19] 3330 	ld	-2 (ix), #0x00
    000012C9 6F               [ 4] 3331 	ld	l, a
    000012CA 26 00            [ 7] 3332 	ld	h, #0x00
    000012CC 11 06 00         [10] 3333 	ld	de, #0x0006
    000012CF 19               [11] 3334 	add	hl, de
    000012D0 DD 7E FF         [19] 3335 	ld	a, -1 (ix)
    000012D3 06 00            [ 7] 3336 	ld	b, #0x00
    000012D5 95               [ 4] 3337 	sub	a, l
    000012D6 78               [ 4] 3338 	ld	a, b
    000012D7 9C               [ 4] 3339 	sbc	a, h
    000012D8 E2rDDr12         [10] 3340 	jp	PO, 00318$
    000012DB EE 80            [ 7] 3341 	xor	a, #0x80
    000012DD                       3342 00318$:
    000012DD F2r94r13         [10] 3343 	jp	P, 00103$
                                   3344 ;E:\Dropbox\FAUSTO\SVILUPPI\MSX\CODE\C\MSXgl\projects\soccerlgMSX2/soccerlg_s17_b3.c:338: u16 dx = (SwSprite[i].lx > RestartSideX) ? (SwSprite[i].lx - RestartSideX) : (RestartSideX - SwSprite[i].lx);
    000012E0 DD 4E FF         [19] 3345 	ld	c, -1 (ix)
    000012E3 06 00            [ 7] 3346 	ld	b, #0x00
    000012E5 69               [ 4] 3347 	ld	l, c
    000012E6 60               [ 4] 3348 	ld	h, b
    000012E7 29               [11] 3349 	add	hl, hl
    000012E8 29               [11] 3350 	add	hl, hl
    000012E9 09               [11] 3351 	add	hl, bc
    000012EA 29               [11] 3352 	add	hl, hl
    000012EB 09               [11] 3353 	add	hl, bc
    000012EC 29               [11] 3354 	add	hl, hl
    000012ED 09               [11] 3355 	add	hl, bc
    000012EE 11r00r00         [10] 3356 	ld	de, #_SwSprite
    000012F1 19               [11] 3357 	add	hl, de
    000012F2 DD 75 FD         [19] 3358 	ld	-3 (ix), l
    000012F5 DD 74 FE         [19] 3359 	ld	-2 (ix), h
    000012F8 7E               [ 7] 3360 	ld	a, (hl)
    000012F9 DD 77 FC         [19] 3361 	ld	-4 (ix), a
    000012FC 4F               [ 4] 3362 	ld	c, a
    000012FD 06 00            [ 7] 3363 	ld	b, #0x00
    000012FF 3Ar00r00         [13] 3364 	ld	a, (_RestartSideX+0)
    00001302 5F               [ 4] 3365 	ld	e, a
    00001303 16 00            [ 7] 3366 	ld	d, #0x00
    00001305 3Ar00r00         [13] 3367 	ld	a, (#_RestartSideX)
    00001308 DD 96 FC         [19] 3368 	sub	a, -4 (ix)
    0000130B 30 08            [12] 3369 	jr	NC, 00142$
    0000130D 79               [ 4] 3370 	ld	a, c
    0000130E 93               [ 4] 3371 	sub	a, e
    0000130F 4F               [ 4] 3372 	ld	c, a
    00001310 78               [ 4] 3373 	ld	a, b
    00001311 9A               [ 4] 3374 	sbc	a, d
    00001312 C3r1Ar13         [10] 3375 	jp	00143$
    00001315                       3376 00142$:
    00001315 7B               [ 4] 3377 	ld	a, e
    00001316 91               [ 4] 3378 	sub	a, c
    00001317 4F               [ 4] 3379 	ld	c, a
    00001318 7A               [ 4] 3380 	ld	a, d
    00001319 98               [ 4] 3381 	sbc	a, b
    0000131A                       3382 00143$:
    0000131A DD 71 F9         [19] 3383 	ld	-7 (ix), c
    0000131D DD 77 FA         [19] 3384 	ld	-6 (ix), a
                                   3385 ;E:\Dropbox\FAUSTO\SVILUPPI\MSX\CODE\C\MSXgl\projects\soccerlgMSX2/soccerlg_s17_b3.c:339: u16 dy = (SwSprite[i].ly > RestartSideY) ? (SwSprite[i].ly - RestartSideY) : (RestartSideY - SwSprite[i].ly);
    00001320 DD 4E FD         [19] 3386 	ld	c, -3 (ix)
    00001323 DD 46 FE         [19] 3387 	ld	b, -2 (ix)
    00001326 21 04 00         [10] 3388 	ld	hl, #4
    00001329 09               [11] 3389 	add	hl, bc
    0000132A 7E               [ 7] 3390 	ld	a, (hl)
    0000132B DD 77 FB         [19] 3391 	ld	-5 (ix), a
    0000132E 23               [ 6] 3392 	inc	hl
    0000132F 7E               [ 7] 3393 	ld	a, (hl)
    00001330 DD 77 FC         [19] 3394 	ld	-4 (ix), a
    00001333 21r00r00         [10] 3395 	ld	hl, #_RestartSideY
    00001336 7E               [ 7] 3396 	ld	a, (hl)
    00001337 DD 96 FB         [19] 3397 	sub	a, -5 (ix)
    0000133A 23               [ 6] 3398 	inc	hl
    0000133B 7E               [ 7] 3399 	ld	a, (hl)
    0000133C DD 9E FC         [19] 3400 	sbc	a, -4 (ix)
    0000133F 30 15            [12] 3401 	jr	NC, 00144$
    00001341 21r00r00         [10] 3402 	ld	hl, #_RestartSideY
    00001344 DD 7E FB         [19] 3403 	ld	a, -5 (ix)
    00001347 96               [ 7] 3404 	sub	a, (hl)
    00001348 DD 77 FD         [19] 3405 	ld	-3 (ix), a
    0000134B DD 7E FC         [19] 3406 	ld	a, -4 (ix)
    0000134E 23               [ 6] 3407 	inc	hl
    0000134F 9E               [ 7] 3408 	sbc	a, (hl)
    00001350 DD 77 FE         [19] 3409 	ld	-2 (ix), a
    00001353 C3r68r13         [10] 3410 	jp	00145$
    00001356                       3411 00144$:
    00001356 3Ar00r00         [13] 3412 	ld	a, (_RestartSideY+0)
    00001359 DD 96 FB         [19] 3413 	sub	a, -5 (ix)
    0000135C DD 77 FD         [19] 3414 	ld	-3 (ix), a
    0000135F 3Ar01r00         [13] 3415 	ld	a, (_RestartSideY+1)
    00001362 DD 9E FC         [19] 3416 	sbc	a, -4 (ix)
    00001365 DD 77 FE         [19] 3417 	ld	-2 (ix), a
    00001368                       3418 00145$:
    00001368 DD 4E FD         [19] 3419 	ld	c, -3 (ix)
    0000136B DD 46 FE         [19] 3420 	ld	b, -2 (ix)
                                   3421 ;E:\Dropbox\FAUSTO\SVILUPPI\MSX\CODE\C\MSXgl\projects\soccerlgMSX2/soccerlg_s17_b3.c:340: if (dx + dy < min_dist) {
    0000136E DD 7E F9         [19] 3422 	ld	a, -7 (ix)
    00001371 81               [ 4] 3423 	add	a, c
    00001372 4F               [ 4] 3424 	ld	c, a
    00001373 DD 7E FA         [19] 3425 	ld	a, -6 (ix)
    00001376 88               [ 4] 3426 	adc	a, b
    00001377 47               [ 4] 3427 	ld	b, a
    00001378 79               [ 4] 3428 	ld	a, c
    00001379 DD 96 F7         [19] 3429 	sub	a, -9 (ix)
    0000137C 78               [ 4] 3430 	ld	a, b
    0000137D DD 9E F8         [19] 3431 	sbc	a, -8 (ix)
    00001380 30 0C            [12] 3432 	jr	NC, 00133$
                                   3433 ;E:\Dropbox\FAUSTO\SVILUPPI\MSX\CODE\C\MSXgl\projects\soccerlgMSX2/soccerlg_s17_b3.c:341: min_dist = dx + dy;
    00001382 DD 71 F7         [19] 3434 	ld	-9 (ix), c
    00001385 DD 70 F8         [19] 3435 	ld	-8 (ix), b
                                   3436 ;E:\Dropbox\FAUSTO\SVILUPPI\MSX\CODE\C\MSXgl\projects\soccerlgMSX2/soccerlg_s17_b3.c:342: thrower = i;
    00001388 DD 7E FF         [19] 3437 	ld	a, -1 (ix)
    0000138B DD 77 ED         [19] 3438 	ld	-19 (ix), a
    0000138E                       3439 00133$:
                                   3440 ;E:\Dropbox\FAUSTO\SVILUPPI\MSX\CODE\C\MSXgl\projects\soccerlgMSX2/soccerlg_s17_b3.c:337: for (u8 i = start_t; i < start_t + 6; i++) {
    0000138E DD 34 FF         [23] 3441 	inc	-1 (ix)
    00001391 C3rBFr12         [10] 3442 	jp	00132$
    00001394                       3443 00103$:
                                   3444 ;E:\Dropbox\FAUSTO\SVILUPPI\MSX\CODE\C\MSXgl\projects\soccerlgMSX2/soccerlg_s17_b3.c:345: g_thrower_id = thrower;
    00001394 DD 7E ED         [19] 3445 	ld	a, -19 (ix)
    00001397 32r00r00         [13] 3446 	ld	(_g_thrower_id+0), a
                                   3447 ;E:\Dropbox\FAUSTO\SVILUPPI\MSX\CODE\C\MSXgl\projects\soccerlgMSX2/soccerlg_s17_b3.c:348: i8 dir_y = (team_to_kick == TEAM_1) ? -1 : 1; 
    0000139A DD 7E EC         [19] 3448 	ld	a, -20 (ix)
    0000139D B7               [ 4] 3449 	or	a, a
    0000139E 20 06            [12] 3450 	jr	NZ, 00146$
    000013A0 01 FF FF         [10] 3451 	ld	bc, #0xffff
    000013A3 C3rA9r13         [10] 3452 	jp	00147$
    000013A6                       3453 00146$:
    000013A6 01 01 00         [10] 3454 	ld	bc, #0x0001
    000013A9                       3455 00147$:
                                   3456 ;E:\Dropbox\FAUSTO\SVILUPPI\MSX\CODE\C\MSXgl\projects\soccerlgMSX2/soccerlg_s17_b3.c:349: SwSprite[thrower].tx = RestartSideX;
    000013A9 DD 5E ED         [19] 3457 	ld	e, -19 (ix)
    000013AC 16 00            [ 7] 3458 	ld	d, #0x00
    000013AE 6B               [ 4] 3459 	ld	l, e
    000013AF 62               [ 4] 3460 	ld	h, d
    000013B0 29               [11] 3461 	add	hl, hl
    000013B1 29               [11] 3462 	add	hl, hl
    000013B2 19               [11] 3463 	add	hl, de
    000013B3 29               [11] 3464 	add	hl, hl
    000013B4 19               [11] 3465 	add	hl, de
    000013B5 29               [11] 3466 	add	hl, hl
    000013B6 19               [11] 3467 	add	hl, de
    000013B7 EB               [ 4] 3468 	ex	de, hl
    000013B8 21r00r00         [10] 3469 	ld	hl, #_SwSprite
    000013BB 19               [11] 3470 	add	hl, de
    000013BC EB               [ 4] 3471 	ex	de, hl
    000013BD 21 0C 00         [10] 3472 	ld	hl, #0x000c
    000013C0 19               [11] 3473 	add	hl, de
    000013C1 3Ar00r00         [13] 3474 	ld	a, (_RestartSideX+0)
    000013C4 77               [ 7] 3475 	ld	(hl), a
                                   3476 ;E:\Dropbox\FAUSTO\SVILUPPI\MSX\CODE\C\MSXgl\projects\soccerlgMSX2/soccerlg_s17_b3.c:350: SwSprite[thrower].ty = RestartSideY + (dir_y * 12);
    000013C5 21 0D 00         [10] 3477 	ld	hl, #0x000d
    000013C8 19               [11] 3478 	add	hl, de
    000013C9 EB               [ 4] 3479 	ex	de, hl
    000013CA 79               [ 4] 3480 	ld	a, c
    000013CB DD 77 FB         [19] 3481 	ld	-5 (ix), a
    000013CE 07               [ 4] 3482 	rlca
    000013CF 9F               [ 4] 3483 	sbc	a, a
    000013D0 DD 77 FC         [19] 3484 	ld	-4 (ix), a
    000013D3 DD 4E FB         [19] 3485 	ld	c, -5 (ix)
    000013D6 DD 46 FC         [19] 3486 	ld	b, -4 (ix)
    000013D9 69               [ 4] 3487 	ld	l, c
    000013DA 60               [ 4] 3488 	ld	h, b
    000013DB 29               [11] 3489 	add	hl, hl
    000013DC 09               [11] 3490 	add	hl, bc
    000013DD 29               [11] 3491 	add	hl, hl
    000013DE 29               [11] 3492 	add	hl, hl
    000013DF ED 4Br00r00      [20] 3493 	ld	bc, (_RestartSideY)
    000013E3 09               [11] 3494 	add	hl, bc
    000013E4 4D               [ 4] 3495 	ld	c, l
    000013E5 44               [ 4] 3496 	ld	b, h
    000013E6 79               [ 4] 3497 	ld	a, c
    000013E7 12               [ 7] 3498 	ld	(de), a
    000013E8 13               [ 6] 3499 	inc	de
    000013E9 78               [ 4] 3500 	ld	a, b
    000013EA 12               [ 7] 3501 	ld	(de), a
                                   3502 ;E:\Dropbox\FAUSTO\SVILUPPI\MSX\CODE\C\MSXgl\projects\soccerlgMSX2/soccerlg_s17_b3.c:352: g_throw_rec_1 = (thrower == start_t + 4) ? start_t + 3 : start_t + 4;
    000013EB DD 6E FD         [19] 3503 	ld	l, -3 (ix)
    000013EE DD 66 FE         [19] 3504 	ld	h, -2 (ix)
    000013F1 11 04 00         [10] 3505 	ld	de, #0x0004
    000013F4 19               [11] 3506 	add	hl, de
    000013F5 DD 4E ED         [19] 3507 	ld	c, -19 (ix)
    000013F8 06 00            [ 7] 3508 	ld	b, #0x00
    000013FA DD 5E F6         [19] 3509 	ld	e, -10 (ix)
    000013FD BF               [ 4] 3510 	cp	a, a
    000013FE ED 42            [15] 3511 	sbc	hl, bc
    00001400 20 07            [12] 3512 	jr	NZ, 00148$
    00001402 7B               [ 4] 3513 	ld	a, e
    00001403 3C               [ 4] 3514 	inc	a
    00001404 3C               [ 4] 3515 	inc	a
    00001405 3C               [ 4] 3516 	inc	a
    00001406 C3r0Er14         [10] 3517 	jp	00149$
    00001409                       3518 00148$:
    00001409 7B               [ 4] 3519 	ld	a, e
    0000140A 3C               [ 4] 3520 	inc	a
    0000140B 3C               [ 4] 3521 	inc	a
    0000140C 3C               [ 4] 3522 	inc	a
    0000140D 3C               [ 4] 3523 	inc	a
    0000140E                       3524 00149$:
    0000140E 32r00r00         [13] 3525 	ld	(_g_throw_rec_1+0), a
                                   3526 ;E:\Dropbox\FAUSTO\SVILUPPI\MSX\CODE\C\MSXgl\projects\soccerlgMSX2/soccerlg_s17_b3.c:353: g_throw_rec_2 = (thrower == start_t + 5) ? start_t + 2 : start_t + 5;
    00001411 DD 7E FD         [19] 3527 	ld	a, -3 (ix)
    00001414 C6 05            [ 7] 3528 	add	a, #0x05
    00001416 6F               [ 4] 3529 	ld	l, a
                                   3530 ;	spillPairReg hl
                                   3531 ;	spillPairReg hl
    00001417 DD 7E FE         [19] 3532 	ld	a, -2 (ix)
    0000141A CE 00            [ 7] 3533 	adc	a, #0x00
    0000141C 67               [ 4] 3534 	ld	h, a
                                   3535 ;	spillPairReg hl
                                   3536 ;	spillPairReg hl
    0000141D BF               [ 4] 3537 	cp	a, a
    0000141E ED 42            [15] 3538 	sbc	hl, bc
    00001420 20 06            [12] 3539 	jr	NZ, 00150$
    00001422 7B               [ 4] 3540 	ld	a, e
    00001423 3C               [ 4] 3541 	inc	a
    00001424 3C               [ 4] 3542 	inc	a
    00001425 C3r2Br14         [10] 3543 	jp	00151$
    00001428                       3544 00150$:
    00001428 7B               [ 4] 3545 	ld	a, e
    00001429 C6 05            [ 7] 3546 	add	a, #0x05
    0000142B                       3547 00151$:
    0000142B 32r00r00         [13] 3548 	ld	(_g_throw_rec_2+0), a
                                   3549 ;E:\Dropbox\FAUSTO\SVILUPPI\MSX\CODE\C\MSXgl\projects\soccerlgMSX2/soccerlg_s17_b3.c:354: g_selected_rec = 0;
    0000142E 21r00r00         [10] 3550 	ld	hl, #_g_selected_rec
    00001431 36 00            [10] 3551 	ld	(hl), #0x00
                                   3552 ;E:\Dropbox\FAUSTO\SVILUPPI\MSX\CODE\C\MSXgl\projects\soccerlgMSX2/soccerlg_s17_b3.c:356: SwSprite[0].tx = 128; SwSprite[0].ty = 32;
    00001433 21r0Cr00         [10] 3553 	ld	hl, #(_SwSprite + 12)
    00001436 36 80            [10] 3554 	ld	(hl), #0x80
    00001438 21 20 00         [10] 3555 	ld	hl, #0x0020
    0000143B 22r0Dr00         [16] 3556 	ld	((_SwSprite + 13)), hl
                                   3557 ;E:\Dropbox\FAUSTO\SVILUPPI\MSX\CODE\C\MSXgl\projects\soccerlgMSX2/soccerlg_s17_b3.c:357: SwSprite[7].tx = 128; SwSprite[7].ty = 444;
    0000143E 21rADr00         [10] 3558 	ld	hl, #(_SwSprite + 173)
    00001441 36 80            [10] 3559 	ld	(hl), #0x80
    00001443 21 BC 01         [10] 3560 	ld	hl, #0x01bc
    00001446 22rAEr00         [16] 3561 	ld	((_SwSprite + 174)), hl
                                   3562 ;E:\Dropbox\FAUSTO\SVILUPPI\MSX\CODE\C\MSXgl\projects\soccerlgMSX2/soccerlg_s17_b3.c:359: for(u8 i=1; i<14; i++) {
    00001449 DD 4E FB         [19] 3563 	ld	c, -5 (ix)
    0000144C DD 46 FC         [19] 3564 	ld	b, -4 (ix)
    0000144F 69               [ 4] 3565 	ld	l, c
    00001450 60               [ 4] 3566 	ld	h, b
    00001451 29               [11] 3567 	add	hl, hl
    00001452 09               [11] 3568 	add	hl, bc
    00001453 29               [11] 3569 	add	hl, hl
    00001454 29               [11] 3570 	add	hl, hl
    00001455 29               [11] 3571 	add	hl, hl
    00001456 29               [11] 3572 	add	hl, hl
    00001457 DD 75 EE         [19] 3573 	ld	-18 (ix), l
    0000145A DD 74 EF         [19] 3574 	ld	-17 (ix), h
    0000145D DD 36 FF 01      [19] 3575 	ld	-1 (ix), #0x01
    00001461                       3576 00135$:
    00001461 DD 7E FF         [19] 3577 	ld	a, -1 (ix)
    00001464 D6 0E            [ 7] 3578 	sub	a, #0x0e
    00001466 D2rBCr17         [10] 3579 	jp	NC, 00136$
                                   3580 ;E:\Dropbox\FAUSTO\SVILUPPI\MSX\CODE\C\MSXgl\projects\soccerlgMSX2/soccerlg_s17_b3.c:360: if (i == 7 || i == thrower) continue;
    00001469 DD 7E FF         [19] 3581 	ld	a, -1 (ix)
    0000146C D6 07            [ 7] 3582 	sub	a, #0x07
    0000146E CArB6r17         [10] 3583 	jp	Z,00129$
    00001471 DD 7E ED         [19] 3584 	ld	a, -19 (ix)
    00001474 DD 96 FF         [19] 3585 	sub	a, -1 (ix)
    00001477 CArB6r17         [10] 3586 	jp	Z,00129$
                                   3587 ;E:\Dropbox\FAUSTO\SVILUPPI\MSX\CODE\C\MSXgl\projects\soccerlgMSX2/soccerlg_s17_b3.c:361: u8 team = (i < 7) ? TEAM_1 : TEAM_2;
    0000147A DD 7E FF         [19] 3588 	ld	a, -1 (ix)
    0000147D D6 07            [ 7] 3589 	sub	a, #0x07
    0000147F 30 06            [12] 3590 	jr	NC, 00152$
    00001481 11 00 00         [10] 3591 	ld	de, #0x0000
    00001484 C3r8Ar14         [10] 3592 	jp	00153$
    00001487                       3593 00152$:
    00001487 11 01 00         [10] 3594 	ld	de, #0x0001
    0000148A                       3595 00153$:
                                   3596 ;E:\Dropbox\FAUSTO\SVILUPPI\MSX\CODE\C\MSXgl\projects\soccerlgMSX2/soccerlg_s17_b3.c:362: u8 role = (team == TEAM_1) ? i : (i - 7);
    0000148A DD 73 F0         [19] 3597 	ld	-16 (ix), e
    0000148D 7B               [ 4] 3598 	ld	a, e
    0000148E B7               [ 4] 3599 	or	a, a
    0000148F 20 06            [12] 3600 	jr	NZ, 00154$
    00001491 DD 7E FF         [19] 3601 	ld	a, -1 (ix)
    00001494 C3r9Cr14         [10] 3602 	jp	00155$
    00001497                       3603 00154$:
    00001497 DD 7E FF         [19] 3604 	ld	a, -1 (ix)
    0000149A C6 F9            [ 7] 3605 	add	a, #0xf9
    0000149C                       3606 00155$:
                                   3607 ;E:\Dropbox\FAUSTO\SVILUPPI\MSX\CODE\C\MSXgl\projects\soccerlgMSX2/soccerlg_s17_b3.c:364: u16 base_x = 48 + (role * 24);
    0000149C 4F               [ 4] 3608 	ld	c, a
    0000149D 06 00            [ 7] 3609 	ld	b, #0x00
    0000149F 69               [ 4] 3610 	ld	l, c
    000014A0 60               [ 4] 3611 	ld	h, b
    000014A1 29               [11] 3612 	add	hl, hl
    000014A2 09               [11] 3613 	add	hl, bc
    000014A3 29               [11] 3614 	add	hl, hl
    000014A4 29               [11] 3615 	add	hl, hl
    000014A5 29               [11] 3616 	add	hl, hl
    000014A6 01 30 00         [10] 3617 	ld	bc, #0x0030
    000014A9 09               [11] 3618 	add	hl, bc
    000014AA DD 75 F8         [19] 3619 	ld	-8 (ix), l
    000014AD DD 74 F9         [19] 3620 	ld	-7 (ix), h
                                   3621 ;E:\Dropbox\FAUSTO\SVILUPPI\MSX\CODE\C\MSXgl\projects\soccerlgMSX2/soccerlg_s17_b3.c:350: SwSprite[thrower].ty = RestartSideY + (dir_y * 12);
    000014B0 2Ar00r00         [16] 3622 	ld	hl, (_RestartSideY)
    000014B3 DD 75 F1         [19] 3623 	ld	-15 (ix), l
    000014B6 DD 74 F2         [19] 3624 	ld	-14 (ix), h
                                   3625 ;E:\Dropbox\FAUSTO\SVILUPPI\MSX\CODE\C\MSXgl\projects\soccerlgMSX2/soccerlg_s17_b3.c:367: if (team == team_to_kick) {
    000014B9 DD 7E F0         [19] 3626 	ld	a, -16 (ix)
    000014BC DD 96 EC         [19] 3627 	sub	a, -20 (ix)
    000014BF 3E 01            [ 7] 3628 	ld	a, #0x01
    000014C1 28 01            [12] 3629 	jr	Z, 00326$
    000014C3 AF               [ 4] 3630 	xor	a, a
    000014C4                       3631 00326$:
    000014C4 DD 77 F3         [19] 3632 	ld	-13 (ix), a
    000014C7 B7               [ 4] 3633 	or	a, a
    000014C8 28 3D            [12] 3634 	jr	Z, 00111$
                                   3635 ;E:\Dropbox\FAUSTO\SVILUPPI\MSX\CODE\C\MSXgl\projects\soccerlgMSX2/soccerlg_s17_b3.c:369: base_y = RestartSideY + ((team == TEAM_1) ? 32 : -32);
    000014CA DD 7E F0         [19] 3636 	ld	a, -16 (ix)
    000014CD B7               [ 4] 3637 	or	a, a
    000014CE 20 06            [12] 3638 	jr	NZ, 00156$
    000014D0 01 20 00         [10] 3639 	ld	bc, #0x0020
    000014D3 C3rD9r14         [10] 3640 	jp	00157$
    000014D6                       3641 00156$:
    000014D6 01 E0 FF         [10] 3642 	ld	bc, #0xffe0
    000014D9                       3643 00157$:
    000014D9 DD 6E F1         [19] 3644 	ld	l, -15 (ix)
    000014DC DD 66 F2         [19] 3645 	ld	h, -14 (ix)
    000014DF 09               [11] 3646 	add	hl, bc
    000014E0 4D               [ 4] 3647 	ld	c, l
    000014E1 44               [ 4] 3648 	ld	b, h
                                   3649 ;E:\Dropbox\FAUSTO\SVILUPPI\MSX\CODE\C\MSXgl\projects\soccerlgMSX2/soccerlg_s17_b3.c:370: if (i == g_throw_rec_1 || i == g_throw_rec_2) base_y = RestartSideY - (dir_y * 48);
    000014E2 DD 7E FF         [19] 3650 	ld	a, -1 (ix)
    000014E5 21r00r00         [10] 3651 	ld	hl, #_g_throw_rec_1
    000014E8 96               [ 7] 3652 	sub	a, (hl)
    000014E9 28 09            [12] 3653 	jr	Z, 00107$
    000014EB DD 7E FF         [19] 3654 	ld	a, -1 (ix)
    000014EE 21r00r00         [10] 3655 	ld	hl, #_g_throw_rec_2
    000014F1 96               [ 7] 3656 	sub	a, (hl)
    000014F2 20 3B            [12] 3657 	jr	NZ, 00112$
    000014F4                       3658 00107$:
    000014F4 DD 4E EE         [19] 3659 	ld	c, -18 (ix)
    000014F7 DD 46 EF         [19] 3660 	ld	b, -17 (ix)
    000014FA DD 7E F1         [19] 3661 	ld	a, -15 (ix)
    000014FD 91               [ 4] 3662 	sub	a, c
    000014FE 4F               [ 4] 3663 	ld	c, a
    000014FF DD 7E F2         [19] 3664 	ld	a, -14 (ix)
    00001502 98               [ 4] 3665 	sbc	a, b
    00001503 47               [ 4] 3666 	ld	b, a
    00001504 C3r2Fr15         [10] 3667 	jp	00112$
    00001507                       3668 00111$:
                                   3669 ;E:\Dropbox\FAUSTO\SVILUPPI\MSX\CODE\C\MSXgl\projects\soccerlgMSX2/soccerlg_s17_b3.c:373: base_y = RestartSideY + ((team == TEAM_1) ? -80 : 80);
    00001507 DD 7E F0         [19] 3670 	ld	a, -16 (ix)
    0000150A B7               [ 4] 3671 	or	a, a
    0000150B 20 0B            [12] 3672 	jr	NZ, 00158$
    0000150D DD 36 FD B0      [19] 3673 	ld	-3 (ix), #0xb0
    00001511 DD 36 FE FF      [19] 3674 	ld	-2 (ix), #0xff
    00001515 C3r20r15         [10] 3675 	jp	00159$
    00001518                       3676 00158$:
    00001518 DD 36 FD 50      [19] 3677 	ld	-3 (ix), #0x50
    0000151C DD 36 FE 00      [19] 3678 	ld	-2 (ix), #0
    00001520                       3679 00159$:
    00001520 DD 7E FD         [19] 3680 	ld	a, -3 (ix)
    00001523 DD 46 FE         [19] 3681 	ld	b, -2 (ix)
    00001526 DD 86 F1         [19] 3682 	add	a, -15 (ix)
    00001529 4F               [ 4] 3683 	ld	c, a
    0000152A 78               [ 4] 3684 	ld	a, b
    0000152B DD 8E F2         [19] 3685 	adc	a, -14 (ix)
    0000152E 47               [ 4] 3686 	ld	b, a
    0000152F                       3687 00112$:
                                   3688 ;E:\Dropbox\FAUSTO\SVILUPPI\MSX\CODE\C\MSXgl\projects\soccerlgMSX2/soccerlg_s17_b3.c:376: i8 rand_x = ((Frms + i * 11) % 40) - 20; i8 rand_y = ((Frms + i * 17) % 40) - 20;
    0000152F 3Ar00r00         [13] 3689 	ld	a, (_Frms+0)
    00001532 DD 77 FA         [19] 3690 	ld	-6 (ix), a
    00001535 DD 36 FB 00      [19] 3691 	ld	-5 (ix), #0x00
    00001539 DD 7E FF         [19] 3692 	ld	a, -1 (ix)
    0000153C DD 77 FC         [19] 3693 	ld	-4 (ix), a
    0000153F DD 36 FD 00      [19] 3694 	ld	-3 (ix), #0x00
    00001543 5F               [ 4] 3695 	ld	e, a
    00001544 16 00            [ 7] 3696 	ld	d, #0x00
    00001546 6B               [ 4] 3697 	ld	l, e
    00001547 62               [ 4] 3698 	ld	h, d
    00001548 29               [11] 3699 	add	hl, hl
    00001549 29               [11] 3700 	add	hl, hl
    0000154A 19               [11] 3701 	add	hl, de
    0000154B 29               [11] 3702 	add	hl, hl
    0000154C 19               [11] 3703 	add	hl, de
    0000154D DD 5E FA         [19] 3704 	ld	e, -6 (ix)
    00001550 DD 56 FB         [19] 3705 	ld	d, -5 (ix)
    00001553 19               [11] 3706 	add	hl, de
    00001554 C5               [11] 3707 	push	bc
    00001555 11 28 00         [10] 3708 	ld	de, #0x0028
    00001558 CDr00r00         [17] 3709 	call	__modsint
    0000155B C1               [10] 3710 	pop	bc
    0000155C 7B               [ 4] 3711 	ld	a, e
    0000155D C6 EC            [ 7] 3712 	add	a, #0xec
    0000155F DD 77 FE         [19] 3713 	ld	-2 (ix), a
    00001562 DD 5E FC         [19] 3714 	ld	e, -4 (ix)
    00001565 DD 56 FD         [19] 3715 	ld	d, -3 (ix)
    00001568 6B               [ 4] 3716 	ld	l, e
    00001569 62               [ 4] 3717 	ld	h, d
    0000156A 29               [11] 3718 	add	hl, hl
    0000156B 29               [11] 3719 	add	hl, hl
    0000156C 29               [11] 3720 	add	hl, hl
    0000156D 29               [11] 3721 	add	hl, hl
    0000156E 19               [11] 3722 	add	hl, de
    0000156F DD 5E FA         [19] 3723 	ld	e, -6 (ix)
    00001572 DD 56 FB         [19] 3724 	ld	d, -5 (ix)
    00001575 19               [11] 3725 	add	hl, de
    00001576 C5               [11] 3726 	push	bc
    00001577 11 28 00         [10] 3727 	ld	de, #0x0028
    0000157A CDr00r00         [17] 3728 	call	__modsint
    0000157D C1               [10] 3729 	pop	bc
    0000157E 7B               [ 4] 3730 	ld	a, e
    0000157F C6 EC            [ 7] 3731 	add	a, #0xec
    00001581 6F               [ 4] 3732 	ld	l, a
                                   3733 ;	spillPairReg hl
                                   3734 ;	spillPairReg hl
                                   3735 ;E:\Dropbox\FAUSTO\SVILUPPI\MSX\CODE\C\MSXgl\projects\soccerlgMSX2/soccerlg_s17_b3.c:377: i16 final_x = base_x + rand_x; i16 final_y = base_y + rand_y;
    00001582 DD 7E FE         [19] 3736 	ld	a, -2 (ix)
    00001585 5F               [ 4] 3737 	ld	e, a
    00001586 07               [ 4] 3738 	rlca
    00001587 9F               [ 4] 3739 	sbc	a, a
    00001588 57               [ 4] 3740 	ld	d, a
    00001589 DD 7E F8         [19] 3741 	ld	a, -8 (ix)
    0000158C DD 66 F9         [19] 3742 	ld	h, -7 (ix)
                                   3743 ;	spillPairReg hl
                                   3744 ;	spillPairReg hl
    0000158F 83               [ 4] 3745 	add	a, e
    00001590 5F               [ 4] 3746 	ld	e, a
    00001591 7C               [ 4] 3747 	ld	a, h
    00001592 8A               [ 4] 3748 	adc	a, d
    00001593 57               [ 4] 3749 	ld	d, a
    00001594 DD 73 F4         [19] 3750 	ld	-12 (ix), e
    00001597 DD 72 F5         [19] 3751 	ld	-11 (ix), d
    0000159A 7D               [ 4] 3752 	ld	a, l
    0000159B 07               [ 4] 3753 	rlca
    0000159C 9F               [ 4] 3754 	sbc	a, a
    0000159D 67               [ 4] 3755 	ld	h, a
                                   3756 ;	spillPairReg hl
                                   3757 ;	spillPairReg hl
    0000159E 09               [11] 3758 	add	hl, bc
    0000159F DD 75 F6         [19] 3759 	ld	-10 (ix), l
    000015A2 DD 74 F7         [19] 3760 	ld	-9 (ix), h
                                   3761 ;E:\Dropbox\FAUSTO\SVILUPPI\MSX\CODE\C\MSXgl\projects\soccerlgMSX2/soccerlg_s17_b3.c:379: u16 dx = (final_x > RestartSideX) ? (final_x - RestartSideX) : (RestartSideX - final_x);
    000015A5 3Ar00r00         [13] 3762 	ld	a, (_RestartSideX+0)
    000015A8 DD 77 FD         [19] 3763 	ld	-3 (ix), a
    000015AB DD 36 FE 00      [19] 3764 	ld	-2 (ix), #0x00
                                   3765 ;E:\Dropbox\FAUSTO\SVILUPPI\MSX\CODE\C\MSXgl\projects\soccerlgMSX2/soccerlg_s17_b3.c:338: u16 dx = (SwSprite[i].lx > RestartSideX) ? (SwSprite[i].lx - RestartSideX) : (RestartSideX - SwSprite[i].lx);
    000015AF 3Ar00r00         [13] 3766 	ld	a, (_RestartSideX+0)
    000015B2 DD 77 FB         [19] 3767 	ld	-5 (ix), a
    000015B5 DD 36 FC 00      [19] 3768 	ld	-4 (ix), #0x00
                                   3769 ;E:\Dropbox\FAUSTO\SVILUPPI\MSX\CODE\C\MSXgl\projects\soccerlgMSX2/soccerlg_s17_b3.c:379: u16 dx = (final_x > RestartSideX) ? (final_x - RestartSideX) : (RestartSideX - final_x);
    000015B9 DD 7E F4         [19] 3770 	ld	a, -12 (ix)
    000015BC DD 77 F8         [19] 3771 	ld	-8 (ix), a
    000015BF DD 7E F5         [19] 3772 	ld	a, -11 (ix)
    000015C2 DD 77 F9         [19] 3773 	ld	-7 (ix), a
    000015C5 DD 7E FD         [19] 3774 	ld	a, -3 (ix)
    000015C8 DD 96 F4         [19] 3775 	sub	a, -12 (ix)
    000015CB DD 7E FE         [19] 3776 	ld	a, -2 (ix)
    000015CE DD 9E F5         [19] 3777 	sbc	a, -11 (ix)
    000015D1 E2rD6r15         [10] 3778 	jp	PO, 00330$
    000015D4 EE 80            [ 7] 3779 	xor	a, #0x80
    000015D6                       3780 00330$:
    000015D6 F2rEEr15         [10] 3781 	jp	P, 00160$
    000015D9 DD 7E F8         [19] 3782 	ld	a, -8 (ix)
    000015DC DD 96 FB         [19] 3783 	sub	a, -5 (ix)
    000015DF DD 77 FD         [19] 3784 	ld	-3 (ix), a
    000015E2 DD 7E F9         [19] 3785 	ld	a, -7 (ix)
    000015E5 DD 9E FC         [19] 3786 	sbc	a, -4 (ix)
    000015E8 DD 77 FE         [19] 3787 	ld	-2 (ix), a
    000015EB C3r00r16         [10] 3788 	jp	00161$
    000015EE                       3789 00160$:
    000015EE DD 7E FB         [19] 3790 	ld	a, -5 (ix)
    000015F1 DD 96 F4         [19] 3791 	sub	a, -12 (ix)
    000015F4 DD 77 FD         [19] 3792 	ld	-3 (ix), a
    000015F7 DD 7E FC         [19] 3793 	ld	a, -4 (ix)
    000015FA DD 9E F5         [19] 3794 	sbc	a, -11 (ix)
    000015FD DD 77 FE         [19] 3795 	ld	-2 (ix), a
    00001600                       3796 00161$:
    00001600 DD 7E FD         [19] 3797 	ld	a, -3 (ix)
    00001603 DD 77 FA         [19] 3798 	ld	-6 (ix), a
    00001606 DD 7E FE         [19] 3799 	ld	a, -2 (ix)
    00001609 DD 77 FB         [19] 3800 	ld	-5 (ix), a
                                   3801 ;E:\Dropbox\FAUSTO\SVILUPPI\MSX\CODE\C\MSXgl\projects\soccerlgMSX2/soccerlg_s17_b3.c:380: u16 dy = (final_y > RestartSideY) ? (final_y - RestartSideY) : (RestartSideY - final_y);
    0000160C DD 4E F6         [19] 3802 	ld	c, -10 (ix)
    0000160F DD 46 F7         [19] 3803 	ld	b, -9 (ix)
    00001612 21r00r00         [10] 3804 	ld	hl, #_RestartSideY
    00001615 7E               [ 7] 3805 	ld	a, (hl)
    00001616 23               [ 6] 3806 	inc	hl
    00001617 91               [ 4] 3807 	sub	a, c
    00001618 7E               [ 7] 3808 	ld	a, (hl)
    00001619 98               [ 4] 3809 	sbc	a, b
    0000161A 3E 00            [ 7] 3810 	ld	a, #0x00
    0000161C 17               [ 4] 3811 	rla
    0000161D DD 77 FC         [19] 3812 	ld	-4 (ix), a
    00001620 B7               [ 4] 3813 	or	a, a
    00001621 28 11            [12] 3814 	jr	Z, 00162$
    00001623 21r00r00         [10] 3815 	ld	hl, #_RestartSideY
    00001626 79               [ 4] 3816 	ld	a, c
    00001627 96               [ 7] 3817 	sub	a, (hl)
    00001628 DD 77 FD         [19] 3818 	ld	-3 (ix), a
    0000162B 23               [ 6] 3819 	inc	hl
    0000162C 78               [ 4] 3820 	ld	a, b
    0000162D 9E               [ 7] 3821 	sbc	a, (hl)
    0000162E DD 77 FE         [19] 3822 	ld	-2 (ix), a
    00001631 C3r42r16         [10] 3823 	jp	00163$
    00001634                       3824 00162$:
    00001634 3Ar00r00         [13] 3825 	ld	a, (_RestartSideY+0)
    00001637 91               [ 4] 3826 	sub	a, c
    00001638 DD 77 FD         [19] 3827 	ld	-3 (ix), a
    0000163B 3Ar01r00         [13] 3828 	ld	a, (_RestartSideY+1)
    0000163E 98               [ 4] 3829 	sbc	a, b
    0000163F DD 77 FE         [19] 3830 	ld	-2 (ix), a
    00001642                       3831 00163$:
    00001642 DD 4E FD         [19] 3832 	ld	c, -3 (ix)
    00001645 DD 46 FE         [19] 3833 	ld	b, -2 (ix)
                                   3834 ;E:\Dropbox\FAUSTO\SVILUPPI\MSX\CODE\C\MSXgl\projects\soccerlgMSX2/soccerlg_s17_b3.c:381: if (dx + dy < 50) { 
    00001648 DD 6E FA         [19] 3835 	ld	l, -6 (ix)
    0000164B DD 66 FB         [19] 3836 	ld	h, -5 (ix)
    0000164E 09               [11] 3837 	add	hl, bc
    0000164F 11 32 00         [10] 3838 	ld	de, #0x0032
    00001652 BF               [ 4] 3839 	cp	a, a
    00001653 ED 52            [15] 3840 	sbc	hl, de
    00001655 D2rE0r16         [10] 3841 	jp	NC, 00120$
                                   3842 ;E:\Dropbox\FAUSTO\SVILUPPI\MSX\CODE\C\MSXgl\projects\soccerlgMSX2/soccerlg_s17_b3.c:383: if (team != team_to_kick) {
    00001658 DD 4E F3         [19] 3843 	ld	c, -13 (ix)
    0000165B CB 41            [ 8] 3844 	bit	0, c
    0000165D 20 46            [12] 3845 	jr	NZ, 00117$
                                   3846 ;E:\Dropbox\FAUSTO\SVILUPPI\MSX\CODE\C\MSXgl\projects\soccerlgMSX2/soccerlg_s17_b3.c:384: final_y = RestartSideY + ((team == TEAM_1) ? -50 : 50);
    0000165F DD 7E F0         [19] 3847 	ld	a, -16 (ix)
    00001662 B7               [ 4] 3848 	or	a, a
    00001663 20 0B            [12] 3849 	jr	NZ, 00164$
    00001665 DD 36 FD CE      [19] 3850 	ld	-3 (ix), #0xce
    00001669 DD 36 FE FF      [19] 3851 	ld	-2 (ix), #0xff
    0000166D C3r78r16         [10] 3852 	jp	00165$
    00001670                       3853 00164$:
    00001670 DD 36 FD 32      [19] 3854 	ld	-3 (ix), #0x32
    00001674 DD 36 FE 00      [19] 3855 	ld	-2 (ix), #0
    00001678                       3856 00165$:
    00001678 DD 7E FD         [19] 3857 	ld	a, -3 (ix)
    0000167B DD 77 FB         [19] 3858 	ld	-5 (ix), a
    0000167E DD 7E FE         [19] 3859 	ld	a, -2 (ix)
    00001681 DD 77 FC         [19] 3860 	ld	-4 (ix), a
    00001684 DD 7E FB         [19] 3861 	ld	a, -5 (ix)
    00001687 DD 86 F1         [19] 3862 	add	a, -15 (ix)
    0000168A DD 77 FD         [19] 3863 	ld	-3 (ix), a
    0000168D DD 7E FC         [19] 3864 	ld	a, -4 (ix)
    00001690 DD 8E F2         [19] 3865 	adc	a, -14 (ix)
    00001693 DD 77 FE         [19] 3866 	ld	-2 (ix), a
    00001696 DD 7E FD         [19] 3867 	ld	a, -3 (ix)
    00001699 DD 77 F6         [19] 3868 	ld	-10 (ix), a
    0000169C DD 7E FE         [19] 3869 	ld	a, -2 (ix)
    0000169F DD 77 F7         [19] 3870 	ld	-9 (ix), a
    000016A2 C3rE0r16         [10] 3871 	jp	00120$
    000016A5                       3872 00117$:
                                   3873 ;E:\Dropbox\FAUSTO\SVILUPPI\MSX\CODE\C\MSXgl\projects\soccerlgMSX2/soccerlg_s17_b3.c:386: if (final_y > RestartSideY) final_y = RestartSideY + 50 - dx; else final_y = RestartSideY - 50 + dx; 
    000016A5 DD 7E FC         [19] 3874 	ld	a, -4 (ix)
    000016A8 B7               [ 4] 3875 	or	a, a
    000016A9 28 1C            [12] 3876 	jr	Z, 00114$
    000016AB DD 6E F1         [19] 3877 	ld	l, -15 (ix)
    000016AE DD 66 F2         [19] 3878 	ld	h, -14 (ix)
    000016B1 11 32 00         [10] 3879 	ld	de, #0x0032
    000016B4 19               [11] 3880 	add	hl, de
    000016B5 7D               [ 4] 3881 	ld	a, l
    000016B6 DD 96 FA         [19] 3882 	sub	a, -6 (ix)
    000016B9 4F               [ 4] 3883 	ld	c, a
    000016BA 7C               [ 4] 3884 	ld	a, h
    000016BB DD 9E FB         [19] 3885 	sbc	a, -5 (ix)
    000016BE DD 71 F6         [19] 3886 	ld	-10 (ix), c
    000016C1 DD 77 F7         [19] 3887 	ld	-9 (ix), a
    000016C4 C3rE0r16         [10] 3888 	jp	00120$
    000016C7                       3889 00114$:
    000016C7 DD 7E F1         [19] 3890 	ld	a, -15 (ix)
    000016CA C6 CE            [ 7] 3891 	add	a, #0xce
    000016CC 4F               [ 4] 3892 	ld	c, a
    000016CD DD 7E F2         [19] 3893 	ld	a, -14 (ix)
    000016D0 CE FF            [ 7] 3894 	adc	a, #0xff
    000016D2 47               [ 4] 3895 	ld	b, a
    000016D3 DD 6E FA         [19] 3896 	ld	l, -6 (ix)
    000016D6 DD 66 FB         [19] 3897 	ld	h, -5 (ix)
    000016D9 09               [11] 3898 	add	hl, bc
    000016DA DD 75 F6         [19] 3899 	ld	-10 (ix), l
    000016DD DD 74 F7         [19] 3900 	ld	-9 (ix), h
    000016E0                       3901 00120$:
                                   3902 ;E:\Dropbox\FAUSTO\SVILUPPI\MSX\CODE\C\MSXgl\projects\soccerlgMSX2/soccerlg_s17_b3.c:389: if (final_x < 16) final_x = 16; if (final_x > 224) final_x = 224; if (final_y < 24) final_y = 24; if (final_y > 488) final_y = 488;
    000016E0 DD 7E F8         [19] 3903 	ld	a, -8 (ix)
    000016E3 D6 10            [ 7] 3904 	sub	a, #0x10
    000016E5 DD 7E F9         [19] 3905 	ld	a, -7 (ix)
    000016E8 17               [ 4] 3906 	rla
    000016E9 3F               [ 4] 3907 	ccf
    000016EA 1F               [ 4] 3908 	rra
    000016EB DE 80            [ 7] 3909 	sbc	a, #0x80
    000016ED 30 08            [12] 3910 	jr	NC, 00122$
    000016EF DD 36 F4 10      [19] 3911 	ld	-12 (ix), #0x10
    000016F3 DD 36 F5 00      [19] 3912 	ld	-11 (ix), #0
    000016F7                       3913 00122$:
    000016F7 DD 4E F4         [19] 3914 	ld	c, -12 (ix)
    000016FA DD 46 F5         [19] 3915 	ld	b, -11 (ix)
    000016FD 3E E0            [ 7] 3916 	ld	a, #0xe0
    000016FF B9               [ 4] 3917 	cp	a, c
    00001700 3E 00            [ 7] 3918 	ld	a, #0x00
    00001702 98               [ 4] 3919 	sbc	a, b
    00001703 E2r08r17         [10] 3920 	jp	PO, 00331$
    00001706 EE 80            [ 7] 3921 	xor	a, #0x80
    00001708                       3922 00331$:
    00001708 F2r13r17         [10] 3923 	jp	P, 00124$
    0000170B DD 36 F4 E0      [19] 3924 	ld	-12 (ix), #0xe0
    0000170F DD 36 F5 00      [19] 3925 	ld	-11 (ix), #0
    00001713                       3926 00124$:
    00001713 DD 7E F6         [19] 3927 	ld	a, -10 (ix)
    00001716 DD 46 F7         [19] 3928 	ld	b, -9 (ix)
    00001719 D6 18            [ 7] 3929 	sub	a, #0x18
    0000171B 78               [ 4] 3930 	ld	a, b
    0000171C 17               [ 4] 3931 	rla
    0000171D 3F               [ 4] 3932 	ccf
    0000171E 1F               [ 4] 3933 	rra
    0000171F DE 80            [ 7] 3934 	sbc	a, #0x80
    00001721 30 08            [12] 3935 	jr	NC, 00126$
    00001723 DD 36 F6 18      [19] 3936 	ld	-10 (ix), #0x18
    00001727 DD 36 F7 00      [19] 3937 	ld	-9 (ix), #0
    0000172B                       3938 00126$:
    0000172B DD 4E F6         [19] 3939 	ld	c, -10 (ix)
    0000172E DD 46 F7         [19] 3940 	ld	b, -9 (ix)
    00001731 3E E8            [ 7] 3941 	ld	a, #0xe8
    00001733 B9               [ 4] 3942 	cp	a, c
    00001734 3E 01            [ 7] 3943 	ld	a, #0x01
    00001736 98               [ 4] 3944 	sbc	a, b
    00001737 E2r3Cr17         [10] 3945 	jp	PO, 00332$
    0000173A EE 80            [ 7] 3946 	xor	a, #0x80
    0000173C                       3947 00332$:
    0000173C F2r47r17         [10] 3948 	jp	P, 00128$
    0000173F DD 36 F6 E8      [19] 3949 	ld	-10 (ix), #0xe8
    00001743 DD 36 F7 01      [19] 3950 	ld	-9 (ix), #0x01
    00001747                       3951 00128$:
                                   3952 ;E:\Dropbox\FAUSTO\SVILUPPI\MSX\CODE\C\MSXgl\projects\soccerlgMSX2/soccerlg_s17_b3.c:390: SwSprite[i].tx = (u8)final_x; SwSprite[i].ty = (u16)final_y;
    00001747 DD 4E FF         [19] 3953 	ld	c, -1 (ix)
    0000174A 06 00            [ 7] 3954 	ld	b, #0x00
    0000174C 69               [ 4] 3955 	ld	l, c
    0000174D 60               [ 4] 3956 	ld	h, b
    0000174E 29               [11] 3957 	add	hl, hl
    0000174F 29               [11] 3958 	add	hl, hl
    00001750 09               [11] 3959 	add	hl, bc
    00001751 29               [11] 3960 	add	hl, hl
    00001752 09               [11] 3961 	add	hl, bc
    00001753 29               [11] 3962 	add	hl, hl
    00001754 09               [11] 3963 	add	hl, bc
    00001755 DD 75 FD         [19] 3964 	ld	-3 (ix), l
    00001758 DD 74 FE         [19] 3965 	ld	-2 (ix), h
    0000175B DD 7E FD         [19] 3966 	ld	a, -3 (ix)
    0000175E C6r00            [ 7] 3967 	add	a, #<(_SwSprite)
    00001760 DD 77 FA         [19] 3968 	ld	-6 (ix), a
    00001763 DD 7E FE         [19] 3969 	ld	a, -2 (ix)
    00001766 CEs00            [ 7] 3970 	adc	a, #>(_SwSprite)
    00001768 DD 77 FB         [19] 3971 	ld	-5 (ix), a
    0000176B DD 7E FA         [19] 3972 	ld	a, -6 (ix)
    0000176E C6 0C            [ 7] 3973 	add	a, #0x0c
    00001770 DD 77 FC         [19] 3974 	ld	-4 (ix), a
    00001773 DD 7E FB         [19] 3975 	ld	a, -5 (ix)
    00001776 CE 00            [ 7] 3976 	adc	a, #0x00
    00001778 DD 77 FD         [19] 3977 	ld	-3 (ix), a
    0000177B DD 7E F4         [19] 3978 	ld	a, -12 (ix)
    0000177E DD 77 FE         [19] 3979 	ld	-2 (ix), a
    00001781 DD 6E FC         [19] 3980 	ld	l, -4 (ix)
    00001784 DD 66 FD         [19] 3981 	ld	h, -3 (ix)
    00001787 DD 7E FE         [19] 3982 	ld	a, -2 (ix)
    0000178A 77               [ 7] 3983 	ld	(hl), a
    0000178B DD 7E FA         [19] 3984 	ld	a, -6 (ix)
    0000178E C6 0D            [ 7] 3985 	add	a, #0x0d
    00001790 DD 77 FD         [19] 3986 	ld	-3 (ix), a
    00001793 DD 7E FB         [19] 3987 	ld	a, -5 (ix)
    00001796 CE 00            [ 7] 3988 	adc	a, #0x00
    00001798 DD 77 FE         [19] 3989 	ld	-2 (ix), a
    0000179B DD 7E F6         [19] 3990 	ld	a, -10 (ix)
    0000179E DD 77 FB         [19] 3991 	ld	-5 (ix), a
    000017A1 DD 7E F7         [19] 3992 	ld	a, -9 (ix)
    000017A4 DD 77 FC         [19] 3993 	ld	-4 (ix), a
    000017A7 DD 6E FD         [19] 3994 	ld	l, -3 (ix)
    000017AA DD 66 FE         [19] 3995 	ld	h, -2 (ix)
    000017AD DD 7E FB         [19] 3996 	ld	a, -5 (ix)
    000017B0 77               [ 7] 3997 	ld	(hl), a
    000017B1 23               [ 6] 3998 	inc	hl
    000017B2 DD 7E FC         [19] 3999 	ld	a, -4 (ix)
    000017B5 77               [ 7] 4000 	ld	(hl), a
    000017B6                       4001 00129$:
                                   4002 ;E:\Dropbox\FAUSTO\SVILUPPI\MSX\CODE\C\MSXgl\projects\soccerlgMSX2/soccerlg_s17_b3.c:359: for(u8 i=1; i<14; i++) {
    000017B6 DD 34 FF         [23] 4003 	inc	-1 (ix)
    000017B9 C3r61r14         [10] 4004 	jp	00135$
    000017BC                       4005 00136$:
                                   4006 ;E:\Dropbox\FAUSTO\SVILUPPI\MSX\CODE\C\MSXgl\projects\soccerlgMSX2/soccerlg_s17_b3.c:392: }
    000017BC DD F9            [10] 4007 	ld	sp, ix
    000017BE DD E1            [14] 4008 	pop	ix
    000017C0 C9               [10] 4009 	ret
                                   4010 	.area _SEG17
                                   4011 	.area _INITIALIZER
                                   4012 	.area _CABS (ABS)
