                                      1 ;--------------------------------------------------------
                                      2 ; File Created by SDCC : free open source ANSI-C Compiler
                                      3 ; Version 4.2.0 #13081 (MINGW64)
                                      4 ;--------------------------------------------------------
                                      5 	.module soccerlg_s11_b3
                                      6 	.optsdcc -mz80
                                      7 	
                                      8 ;--------------------------------------------------------
                                      9 ; Public variables in this module
                                     10 ;--------------------------------------------------------
                                     11 	.globl _EventBallKicked
                                     12 	.globl _CallFnc_VOID
                                     13 	.globl _g_SLTSL
                                     14 	.globl _g_GRPACY
                                     15 	.globl _g_GRPACX
                                     16 	.globl _g_LOGOPR
                                     17 	.globl _g_CMASK
                                     18 	.globl _g_CLOC
                                     19 	.globl _g_FNKSTR
                                     20 	.globl _g_ATRBYT
                                     21 	.globl _g_BDRCLR
                                     22 	.globl _g_BAKCLR
                                     23 	.globl _g_FORCLR
                                     24 	.globl _g_CSRX
                                     25 	.globl _g_CSRY
                                     26 	.globl _g_CLIKSW
                                     27 	.globl _g_MLTPAT
                                     28 	.globl _g_MLTATR
                                     29 	.globl _g_MLTCGP
                                     30 	.globl _g_MLTCOL
                                     31 	.globl _g_MLTNAM
                                     32 	.globl _g_GRPPAT
                                     33 	.globl _g_GRPATR
                                     34 	.globl _g_GRPCGP
                                     35 	.globl _g_GRPCOL
                                     36 	.globl _g_GRPNAM
                                     37 	.globl _g_T32PAT
                                     38 	.globl _g_T32ATR
                                     39 	.globl _g_T32CGP
                                     40 	.globl _g_T32COL
                                     41 	.globl _g_T32NAM
                                     42 	.globl _g_TXTPAT
                                     43 	.globl _g_TXTATR
                                     44 	.globl _g_TXTCGP
                                     45 	.globl _g_TXTCOL
                                     46 	.globl _g_TXTNAM
                                     47 	.globl _g_CLMLST
                                     48 	.globl _g_CRTCNT
                                     49 	.globl _g_LINLEN
                                     50 	.globl _g_LINL32
                                     51 	.globl _g_LINL40
                                     52 	.globl _g_BDOS
                                     53 	.globl _g_MASTER
                                     54 	.globl _g_RAMAD3
                                     55 	.globl _g_RAMAD2
                                     56 	.globl _g_RAMAD1
                                     57 	.globl _g_RAMAD0
                                     58 	.globl _g_BREAKV
                                     59 	.globl _g_DISKVE
                                     60 	.globl _g_KANJTABLE
                                     61 	.globl _g_STRSRC
                                     62 	.globl _g_SUBRID
                                     63 	.globl _g_CHAR_16
                                     64 	.globl _g_MSXMID
                                     65 	.globl _g_MSXVER
                                     66 	.globl _g_ROMVersion
                                     67 	.globl _g_BASRVN
                                     68 	.globl _g_VDP_DW
                                     69 	.globl _g_VDP_DR
                                     70 	.globl _g_CGTABL
                                     71 	.globl _g_SVFFFD
                                     72 	.globl _g_RG27SAV
                                     73 	.globl _g_RG26SAV
                                     74 	.globl _g_RG25SAV
                                     75 	.globl _g_SVFFF8
                                     76 	.globl _g_MINROM
                                     77 	.globl _g_RG23SAV
                                     78 	.globl _g_RG22SAV
                                     79 	.globl _g_RG21SAV
                                     80 	.globl _g_RG20SAV
                                     81 	.globl _g_RG19SAV
                                     82 	.globl _g_RG18SAV
                                     83 	.globl _g_RG17SAV
                                     84 	.globl _g_RG16SAV
                                     85 	.globl _g_RG15SAV
                                     86 	.globl _g_RG14SAV
                                     87 	.globl _g_RG13SAV
                                     88 	.globl _g_RG12SAV
                                     89 	.globl _g_RG11SAV
                                     90 	.globl _g_RG10SAV
                                     91 	.globl _g_RG09SAV
                                     92 	.globl _g_RG08SAV
                                     93 	.globl _g_PROCNM
                                     94 	.globl _g_SLTWRK
                                     95 	.globl _g_SLTATR
                                     96 	.globl _g_SLTTBL
                                     97 	.globl _g_EXPTBL
                                     98 	.globl _g_MNROM
                                     99 	.globl _g_DRWANG
                                    100 	.globl _g_DRWSCL
                                    101 	.globl _g_DRWFLG
                                    102 	.globl _g_GYPOS
                                    103 	.globl _g_GXPOS
                                    104 	.globl _g_BRDATR
                                    105 	.globl _g_CASPRV
                                    106 	.globl _g_OLDSCR
                                    107 	.globl _g_SCRMOD
                                    108 	.globl _g_FLBMEM
                                    109 	.globl _g_KANAMD
                                    110 	.globl _g_KANAST
                                    111 	.globl _g_CAPST
                                    112 	.globl _g_CSTYLE
                                    113 	.globl _g_CSRSW
                                    114 	.globl _g_INSFLG
                                    115 	.globl _g_ESCCNT
                                    116 	.globl _g_GRPHED
                                    117 	.globl _g_WINWID
                                    118 	.globl _g_LOWLIM
                                    119 	.globl _g_INTCNT
                                    120 	.globl _g_INTVAL
                                    121 	.globl _g_JIFFY
                                    122 	.globl _g_PADX
                                    123 	.globl _g_PADY
                                    124 	.globl _g_INTFLG
                                    125 	.globl _g_RTYCNT
                                    126 	.globl _g_TRPTBL
                                    127 	.globl _g_HIMEM
                                    128 	.globl _g_BOTTOM
                                    129 	.globl _g_PATWRK
                                    130 	.globl _g_LINWRK
                                    131 	.globl _g_KEYBUF
                                    132 	.globl _g_NEWKEY
                                    133 	.globl _g_OLDKEY
                                    134 	.globl _g_CLIKFL
                                    135 	.globl _g_ONGSBF
                                    136 	.globl _g_FNKFLG
                                    137 	.globl _g_FNKSWI
                                    138 	.globl _g_CODSAV
                                    139 	.globl _g_FSTPOS
                                    140 	.globl _g_LINTTB
                                    141 	.globl _g_BASROM
                                    142 	.globl _g_ENSTOP
                                    143 	.globl _g_VCBC
                                    144 	.globl _g_VCBB
                                    145 	.globl _g_VCBA
                                    146 	.globl _g_PLYCNT
                                    147 	.globl _g_MUSICF
                                    148 	.globl _g_QUEUEN
                                    149 	.globl _g_MCLPTR
                                    150 	.globl _g_MCLLEN
                                    151 	.globl _g_SAVVOL
                                    152 	.globl _g_VOICEN
                                    153 	.globl _g_SAVSP
                                    154 	.globl _g_PRSCNT
                                    155 	.globl _g_LSTMOD
                                    156 	.globl _g_LSTCOM
                                    157 	.globl _g_COMMSK
                                    158 	.globl _g_ESTBLS
                                    159 	.globl _g_FLAGS
                                    160 	.globl _g_ERRORS
                                    161 	.globl _g_DATCNT
                                    162 	.globl _g_DEVNUM
                                    163 	.globl _g_OLDINT
                                    164 	.globl _g_OLDSTT
                                    165 	.globl _g_MEXBIh
                                    166 	.globl _g_RSIQLN
                                    167 	.globl _g_RSFCB
                                    168 	.globl _g_TOCNT
                                    169 	.globl _g_RSTMP
                                    170 	.globl _g_YSAVE
                                    171 	.globl _g_XSAVE
                                    172 	.globl _g_NORUSE
                                    173 	.globl _g_MODE
                                    174 	.globl _g_ROMA
                                    175 	.globl _g_CHRCNT
                                    176 	.globl _g_EXBRSA
                                    177 	.globl _g_AVCSAV
                                    178 	.globl _g_ACPAGE
                                    179 	.globl _g_DPPAGE
                                    180 	.globl _g_RS2IQ
                                    181 	.globl _g_VOICCQ
                                    182 	.globl _g_VOICBQ
                                    183 	.globl _g_VOICAQ
                                    184 	.globl _g_QUEBAK
                                    185 	.globl _g_QUETAB
                                    186 	.globl _g_ASPCT2
                                    187 	.globl _g_ASPCT1
                                    188 	.globl _g_HEADER
                                    189 	.globl _g_HIGH
                                    190 	.globl _g_LOW
                                    191 	.globl _g_CS240
                                    192 	.globl _g_CS120
                                    193 	.globl _g_GETPNT
                                    194 	.globl _g_PUTPNT
                                    195 	.globl _g_REPCNT
                                    196 	.globl _g_SCNCNT
                                    197 	.globl _g_FRCNEW
                                    198 	.globl _g_QUEUES
                                    199 	.globl _g_MINUPD
                                    200 	.globl _g_MAXUPD
                                    201 	.globl _g_TRGFLG
                                    202 	.globl _g_STATFL
                                    203 	.globl _g_RG7SAV
                                    204 	.globl _g_RG6SAV
                                    205 	.globl _g_RG5SAV
                                    206 	.globl _g_RG4SAV
                                    207 	.globl _g_RG3SAV
                                    208 	.globl _g_RG2SAV
                                    209 	.globl _g_RG1SAV
                                    210 	.globl _g_RG0SAV
                                    211 	.globl _g_CNSDFG
                                    212 	.globl _g_USRTAB
                                    213 	.globl _g_CLPRIM
                                    214 	.globl _g_WRPRIM
                                    215 	.globl _g_RDPRIM
                                    216 	.globl _AssignKickOffTargets
                                    217 	.globl _AssignThrowInTargets
                                    218 	.globl _AssignGoalKickTargets
                                    219 	.globl _AssignCornerKickTargets
                                    220 	.globl _ExecuteThrowIn
                                    221 	.globl _ExecuteCornerKick
                                    222 	.globl _GetPlayerAnimFrame
                                    223 	.globl _GetPlayerIdleFrame
                                    224 ;--------------------------------------------------------
                                    225 ; special function registers
                                    226 ;--------------------------------------------------------
                         000000A8   227 _g_PortPrimarySlot	=	0x00a8
                         000000A9   228 _g_PortReadKeyboard	=	0x00a9
                         000000AA   229 _g_PortAccessKeyboard	=	0x00aa
                         000000AB   230 _g_PortControl	=	0x00ab
                         00000098   231 _g_VDP_DataPort	=	0x0098
                         00000099   232 _g_VDP_RegPort	=	0x0099
                         00000099   233 _g_VDP_AddrPort	=	0x0099
                         00000099   234 _g_VDP_StatPort	=	0x0099
                         0000009A   235 _g_VDP_PalPort	=	0x009a
                         0000009B   236 _g_VDP_IRegPort	=	0x009b
                         000000A0   237 _g_PSG_RegPort	=	0x00a0
                         000000A1   238 _g_PSG_DataPort	=	0x00a1
                         000000A2   239 _g_PSG_StatPort	=	0x00a2
                         00000010   240 _g_PSG_Ext_RegPort	=	0x0010
                         00000011   241 _g_PSG_Ext_DataPort	=	0x0011
                         00000012   242 _g_PSG_Ext_StatPort	=	0x0012
                         0000007C   243 _g_MSXMusic_IndexPort	=	0x007c
                         0000007D   244 _g_MSXMusic_DataPort	=	0x007d
                         000000C0   245 _g_MSXAudio_IndexPort	=	0x00c0
                         000000C1   246 _g_MSXAudio_DataPort	=	0x00c1
                         000000C2   247 _g_MSXAudio_IndexPort2	=	0x00c2
                         000000C3   248 _g_MSXAudio_DataPort2	=	0x00c3
                         000000B4   249 _g_RTC_AddrPort	=	0x00b4
                         000000B5   250 _g_RTC_DataPort	=	0x00b5
                                    251 ;--------------------------------------------------------
                                    252 ; ram data
                                    253 ;--------------------------------------------------------
                                    254 	.area _DATA
                         0000F3AE   255 _g_LINL40	=	0xf3ae
                         0000F3AF   256 _g_LINL32	=	0xf3af
                         0000F3B0   257 _g_LINLEN	=	0xf3b0
                         0000F3B1   258 _g_CRTCNT	=	0xf3b1
                         0000F3B2   259 _g_CLMLST	=	0xf3b2
                         0000F3B3   260 _g_TXTNAM	=	0xf3b3
                         0000F3B5   261 _g_TXTCOL	=	0xf3b5
                         0000F3B7   262 _g_TXTCGP	=	0xf3b7
                         0000F3B9   263 _g_TXTATR	=	0xf3b9
                         0000F3BB   264 _g_TXTPAT	=	0xf3bb
                         0000F3BD   265 _g_T32NAM	=	0xf3bd
                         0000F3BF   266 _g_T32COL	=	0xf3bf
                         0000F3C1   267 _g_T32CGP	=	0xf3c1
                         0000F3C3   268 _g_T32ATR	=	0xf3c3
                         0000F3C5   269 _g_T32PAT	=	0xf3c5
                         0000F3C7   270 _g_GRPNAM	=	0xf3c7
                         0000F3C9   271 _g_GRPCOL	=	0xf3c9
                         0000F3CB   272 _g_GRPCGP	=	0xf3cb
                         0000F3CD   273 _g_GRPATR	=	0xf3cd
                         0000F3CF   274 _g_GRPPAT	=	0xf3cf
                         0000F3D1   275 _g_MLTNAM	=	0xf3d1
                         0000F3D3   276 _g_MLTCOL	=	0xf3d3
                         0000F3D5   277 _g_MLTCGP	=	0xf3d5
                         0000F3D7   278 _g_MLTATR	=	0xf3d7
                         0000F3D9   279 _g_MLTPAT	=	0xf3d9
                         0000F3DB   280 _g_CLIKSW	=	0xf3db
                         0000F3DC   281 _g_CSRY	=	0xf3dc
                         0000F3DD   282 _g_CSRX	=	0xf3dd
                         0000F3E9   283 _g_FORCLR	=	0xf3e9
                         0000F3EA   284 _g_BAKCLR	=	0xf3ea
                         0000F3EB   285 _g_BDRCLR	=	0xf3eb
                         0000F3F2   286 _g_ATRBYT	=	0xf3f2
                         0000F87F   287 _g_FNKSTR	=	0xf87f
                         0000F92A   288 _g_CLOC	=	0xf92a
                         0000F92C   289 _g_CMASK	=	0xf92c
                         0000FB02   290 _g_LOGOPR	=	0xfb02
                         0000FCB7   291 _g_GRPACX	=	0xfcb7
                         0000FCB9   292 _g_GRPACY	=	0xfcb9
                         0000FFFF   293 _g_SLTSL	=	0xffff
                                    294 ;--------------------------------------------------------
                                    295 ; ram data
                                    296 ;--------------------------------------------------------
                                    297 	.area _INITIALIZED
                                    298 ;--------------------------------------------------------
                                    299 ; absolute external ram data
                                    300 ;--------------------------------------------------------
                                    301 	.area _DABS (ABS)
                                    302 ;--------------------------------------------------------
                                    303 ; global & static initialisations
                                    304 ;--------------------------------------------------------
                                    305 	.area _HOME
                                    306 	.area _GSINIT
                                    307 	.area _GSFINAL
                                    308 	.area _GSINIT
                                    309 ;--------------------------------------------------------
                                    310 ; Home
                                    311 ;--------------------------------------------------------
                                    312 	.area _HOME
                                    313 	.area _HOME
                                    314 ;--------------------------------------------------------
                                    315 ; code
                                    316 ;--------------------------------------------------------
                                    317 	.area _SEG11
                                    318 ;E:\Dropbox\FAUSTO\SVILUPPI\MSX\CODE\C\MSXgl\projects\soccerlgMSX2/soccerlg_s11_b3.c:10: void AssignKickOffTargets() {
                                    319 ;	---------------------------------
                                    320 ; Function AssignKickOffTargets
                                    321 ; ---------------------------------
    00000000                        322 _AssignKickOffTargets::
                                    323 ;E:\Dropbox\FAUSTO\SVILUPPI\MSX\CODE\C\MSXgl\projects\soccerlgMSX2/soccerlg_s11_b3.c:11: SwSprite[0].tx = 120; SwSprite[0].ty = 32;   
    00000000 21r0Cr00         [10]  324 	ld	hl, #(_SwSprite + 12)
    00000003 36 78            [10]  325 	ld	(hl), #0x78
    00000005 21 20 00         [10]  326 	ld	hl, #0x0020
    00000008 22r0Dr00         [16]  327 	ld	((_SwSprite + 13)), hl
                                    328 ;E:\Dropbox\FAUSTO\SVILUPPI\MSX\CODE\C\MSXgl\projects\soccerlgMSX2/soccerlg_s11_b3.c:12: SwSprite[1].tx = 64;  SwSprite[1].ty = 96;   
    0000000B 21r23r00         [10]  329 	ld	hl, #(_SwSprite + 35)
    0000000E 36 40            [10]  330 	ld	(hl), #0x40
    00000010 21 60 00         [10]  331 	ld	hl, #0x0060
    00000013 22r24r00         [16]  332 	ld	((_SwSprite + 36)), hl
                                    333 ;E:\Dropbox\FAUSTO\SVILUPPI\MSX\CODE\C\MSXgl\projects\soccerlgMSX2/soccerlg_s11_b3.c:13: SwSprite[2].tx = 176; SwSprite[2].ty = 96;   
    00000016 21r3Ar00         [10]  334 	ld	hl, #(_SwSprite + 58)
    00000019 36 B0            [10]  335 	ld	(hl), #0xb0
    0000001B 21 60 00         [10]  336 	ld	hl, #0x0060
    0000001E 22r3Br00         [16]  337 	ld	((_SwSprite + 59)), hl
                                    338 ;E:\Dropbox\FAUSTO\SVILUPPI\MSX\CODE\C\MSXgl\projects\soccerlgMSX2/soccerlg_s11_b3.c:14: SwSprite[5].tx = 40;  SwSprite[5].ty = 160;  
    00000021 21r7Fr00         [10]  339 	ld	hl, #(_SwSprite + 127)
    00000024 36 28            [10]  340 	ld	(hl), #0x28
    00000026 21 A0 00         [10]  341 	ld	hl, #0x00a0
    00000029 22r80r00         [16]  342 	ld	((_SwSprite + 128)), hl
                                    343 ;E:\Dropbox\FAUSTO\SVILUPPI\MSX\CODE\C\MSXgl\projects\soccerlgMSX2/soccerlg_s11_b3.c:15: SwSprite[6].tx = 200; SwSprite[6].ty = 160;  
    0000002C 21r96r00         [10]  344 	ld	hl, #(_SwSprite + 150)
    0000002F 36 C8            [10]  345 	ld	(hl), #0xc8
    00000031 21 A0 00         [10]  346 	ld	hl, #0x00a0
    00000034 22r97r00         [16]  347 	ld	((_SwSprite + 151)), hl
                                    348 ;E:\Dropbox\FAUSTO\SVILUPPI\MSX\CODE\C\MSXgl\projects\soccerlgMSX2/soccerlg_s11_b3.c:17: SwSprite[7].tx = 120; SwSprite[7].ty = 444;  
    00000037 21rADr00         [10]  349 	ld	hl, #(_SwSprite + 173)
    0000003A 36 78            [10]  350 	ld	(hl), #0x78
    0000003C 21 BC 01         [10]  351 	ld	hl, #0x01bc
    0000003F 22rAEr00         [16]  352 	ld	((_SwSprite + 174)), hl
                                    353 ;E:\Dropbox\FAUSTO\SVILUPPI\MSX\CODE\C\MSXgl\projects\soccerlgMSX2/soccerlg_s11_b3.c:18: SwSprite[8].tx = 64;  SwSprite[8].ty = 416;  
    00000042 21rC4r00         [10]  354 	ld	hl, #(_SwSprite + 196)
    00000045 36 40            [10]  355 	ld	(hl), #0x40
    00000047 21 A0 01         [10]  356 	ld	hl, #0x01a0
    0000004A 22rC5r00         [16]  357 	ld	((_SwSprite + 197)), hl
                                    358 ;E:\Dropbox\FAUSTO\SVILUPPI\MSX\CODE\C\MSXgl\projects\soccerlgMSX2/soccerlg_s11_b3.c:19: SwSprite[9].tx = 176; SwSprite[9].ty = 416;  
    0000004D 21rDBr00         [10]  359 	ld	hl, #(_SwSprite + 219)
    00000050 36 B0            [10]  360 	ld	(hl), #0xb0
    00000052 21 A0 01         [10]  361 	ld	hl, #0x01a0
    00000055 22rDCr00         [16]  362 	ld	((_SwSprite + 220)), hl
                                    363 ;E:\Dropbox\FAUSTO\SVILUPPI\MSX\CODE\C\MSXgl\projects\soccerlgMSX2/soccerlg_s11_b3.c:20: SwSprite[12].tx= 40;  SwSprite[12].ty= 312;  
    00000058 21r20r01         [10]  364 	ld	hl, #(_SwSprite + 288)
    0000005B 36 28            [10]  365 	ld	(hl), #0x28
    0000005D 21 38 01         [10]  366 	ld	hl, #0x0138
    00000060 22r21r01         [16]  367 	ld	((_SwSprite + 289)), hl
                                    368 ;E:\Dropbox\FAUSTO\SVILUPPI\MSX\CODE\C\MSXgl\projects\soccerlgMSX2/soccerlg_s11_b3.c:21: SwSprite[13].tx= 200; SwSprite[13].ty= 312;  
    00000063 21r37r01         [10]  369 	ld	hl, #(_SwSprite + 311)
    00000066 36 C8            [10]  370 	ld	(hl), #0xc8
    00000068 21 38 01         [10]  371 	ld	hl, #0x0138
    0000006B 22r38r01         [16]  372 	ld	((_SwSprite + 312)), hl
                                    373 ;E:\Dropbox\FAUSTO\SVILUPPI\MSX\CODE\C\MSXgl\projects\soccerlgMSX2/soccerlg_s11_b3.c:24: SwSprite[3].tx = 112; SwSprite[3].ty = 236;
    0000006E 01r51r00         [10]  374 	ld	bc, #_SwSprite + 81
                                    375 ;E:\Dropbox\FAUSTO\SVILUPPI\MSX\CODE\C\MSXgl\projects\soccerlgMSX2/soccerlg_s11_b3.c:25: SwSprite[4].tx = 128; SwSprite[4].ty = 236;
    00000071 11r68r00         [10]  376 	ld	de, #_SwSprite + 104
                                    377 ;E:\Dropbox\FAUSTO\SVILUPPI\MSX\CODE\C\MSXgl\projects\soccerlgMSX2/soccerlg_s11_b3.c:26: SwSprite[10].tx= 100; SwSprite[10].ty= 296;
                                    378 ;E:\Dropbox\FAUSTO\SVILUPPI\MSX\CODE\C\MSXgl\projects\soccerlgMSX2/soccerlg_s11_b3.c:27: SwSprite[11].tx= 140; SwSprite[11].ty= 296;
                                    379 ;E:\Dropbox\FAUSTO\SVILUPPI\MSX\CODE\C\MSXgl\projects\soccerlgMSX2/soccerlg_s11_b3.c:23: if (KickOffTeam == TEAM_1) {
    00000074 3Ar00r00         [13]  380 	ld	a, (_KickOffTeam+0)
    00000077 B7               [ 4]  381 	or	a, a
    00000078 20 26            [12]  382 	jr	NZ, 00102$
                                    383 ;E:\Dropbox\FAUSTO\SVILUPPI\MSX\CODE\C\MSXgl\projects\soccerlgMSX2/soccerlg_s11_b3.c:24: SwSprite[3].tx = 112; SwSprite[3].ty = 236;
    0000007A 3E 70            [ 7]  384 	ld	a, #0x70
    0000007C 02               [ 7]  385 	ld	(bc), a
    0000007D 21 EC 00         [10]  386 	ld	hl, #0x00ec
    00000080 22r52r00         [16]  387 	ld	((_SwSprite + 82)), hl
                                    388 ;E:\Dropbox\FAUSTO\SVILUPPI\MSX\CODE\C\MSXgl\projects\soccerlgMSX2/soccerlg_s11_b3.c:25: SwSprite[4].tx = 128; SwSprite[4].ty = 236;
    00000083 3E 80            [ 7]  389 	ld	a, #0x80
    00000085 12               [ 7]  390 	ld	(de), a
    00000086 22r69r00         [16]  391 	ld	((_SwSprite + 105)), hl
                                    392 ;E:\Dropbox\FAUSTO\SVILUPPI\MSX\CODE\C\MSXgl\projects\soccerlgMSX2/soccerlg_s11_b3.c:26: SwSprite[10].tx= 100; SwSprite[10].ty= 296;
    00000089 21rF2r00         [10]  393 	ld	hl, #(_SwSprite + 242)
    0000008C 36 64            [10]  394 	ld	(hl), #0x64
    0000008E 21 28 01         [10]  395 	ld	hl, #0x0128
    00000091 22rF3r00         [16]  396 	ld	((_SwSprite + 243)), hl
                                    397 ;E:\Dropbox\FAUSTO\SVILUPPI\MSX\CODE\C\MSXgl\projects\soccerlgMSX2/soccerlg_s11_b3.c:27: SwSprite[11].tx= 140; SwSprite[11].ty= 296;
    00000094 21r09r01         [10]  398 	ld	hl, #(_SwSprite + 265)
    00000097 36 8C            [10]  399 	ld	(hl), #0x8c
    00000099 21 28 01         [10]  400 	ld	hl, #0x0128
    0000009C 22r0Ar01         [16]  401 	ld	((_SwSprite + 266)), hl
    0000009F C9               [10]  402 	ret
    000000A0                        403 00102$:
                                    404 ;E:\Dropbox\FAUSTO\SVILUPPI\MSX\CODE\C\MSXgl\projects\soccerlgMSX2/soccerlg_s11_b3.c:30: SwSprite[3].tx = 100; SwSprite[3].ty = 200;
    000000A0 3E 64            [ 7]  405 	ld	a, #0x64
    000000A2 02               [ 7]  406 	ld	(bc), a
    000000A3 21 C8 00         [10]  407 	ld	hl, #0x00c8
    000000A6 22r52r00         [16]  408 	ld	((_SwSprite + 82)), hl
                                    409 ;E:\Dropbox\FAUSTO\SVILUPPI\MSX\CODE\C\MSXgl\projects\soccerlgMSX2/soccerlg_s11_b3.c:31: SwSprite[4].tx = 140; SwSprite[4].ty = 200;
    000000A9 3E 8C            [ 7]  410 	ld	a, #0x8c
    000000AB 12               [ 7]  411 	ld	(de), a
    000000AC 22r69r00         [16]  412 	ld	((_SwSprite + 105)), hl
                                    413 ;E:\Dropbox\FAUSTO\SVILUPPI\MSX\CODE\C\MSXgl\projects\soccerlgMSX2/soccerlg_s11_b3.c:32: SwSprite[10].tx= 112; SwSprite[10].ty= 254;
    000000AF 21rF2r00         [10]  414 	ld	hl, #(_SwSprite + 242)
    000000B2 36 70            [10]  415 	ld	(hl), #0x70
    000000B4 21 FE 00         [10]  416 	ld	hl, #0x00fe
    000000B7 22rF3r00         [16]  417 	ld	((_SwSprite + 243)), hl
                                    418 ;E:\Dropbox\FAUSTO\SVILUPPI\MSX\CODE\C\MSXgl\projects\soccerlgMSX2/soccerlg_s11_b3.c:33: SwSprite[11].tx= 128; SwSprite[11].ty= 254;
    000000BA 21r09r01         [10]  419 	ld	hl, #(_SwSprite + 265)
    000000BD 36 80            [10]  420 	ld	(hl), #0x80
    000000BF 21 FE 00         [10]  421 	ld	hl, #0x00fe
    000000C2 22r0Ar01         [16]  422 	ld	((_SwSprite + 266)), hl
                                    423 ;E:\Dropbox\FAUSTO\SVILUPPI\MSX\CODE\C\MSXgl\projects\soccerlgMSX2/soccerlg_s11_b3.c:35: }
    000000C5 C9               [10]  424 	ret
                         0000F380   425 _g_RDPRIM	=	0xf380
                         0000F385   426 _g_WRPRIM	=	0xf385
                         0000F38C   427 _g_CLPRIM	=	0xf38c
                         0000F39A   428 _g_USRTAB	=	0xf39a
                         0000F3DE   429 _g_CNSDFG	=	0xf3de
                         0000F3DF   430 _g_RG0SAV	=	0xf3df
                         0000F3E0   431 _g_RG1SAV	=	0xf3e0
                         0000F3E1   432 _g_RG2SAV	=	0xf3e1
                         0000F3E2   433 _g_RG3SAV	=	0xf3e2
                         0000F3E3   434 _g_RG4SAV	=	0xf3e3
                         0000F3E4   435 _g_RG5SAV	=	0xf3e4
                         0000F3E5   436 _g_RG6SAV	=	0xf3e5
                         0000F3E6   437 _g_RG7SAV	=	0xf3e6
                         0000F3E7   438 _g_STATFL	=	0xf3e7
                         0000F3E8   439 _g_TRGFLG	=	0xf3e8
                         0000F3EC   440 _g_MAXUPD	=	0xf3ec
                         0000F3EF   441 _g_MINUPD	=	0xf3ef
                         0000F3F3   442 _g_QUEUES	=	0xf3f3
                         0000F3F5   443 _g_FRCNEW	=	0xf3f5
                         0000F3F6   444 _g_SCNCNT	=	0xf3f6
                         0000F3F7   445 _g_REPCNT	=	0xf3f7
                         0000F3F8   446 _g_PUTPNT	=	0xf3f8
                         0000F3FA   447 _g_GETPNT	=	0xf3fa
                         0000F3FC   448 _g_CS120	=	0xf3fc
                         0000F401   449 _g_CS240	=	0xf401
                         0000F406   450 _g_LOW	=	0xf406
                         0000F408   451 _g_HIGH	=	0xf408
                         0000F40A   452 _g_HEADER	=	0xf40a
                         0000F40B   453 _g_ASPCT1	=	0xf40b
                         0000F40D   454 _g_ASPCT2	=	0xf40d
                         0000F959   455 _g_QUETAB	=	0xf959
                         0000F971   456 _g_QUEBAK	=	0xf971
                         0000F975   457 _g_VOICAQ	=	0xf975
                         0000F9F5   458 _g_VOICBQ	=	0xf9f5
                         0000FA75   459 _g_VOICCQ	=	0xfa75
                         0000FAF5   460 _g_RS2IQ	=	0xfaf5
                         0000FAF5   461 _g_DPPAGE	=	0xfaf5
                         0000FAF6   462 _g_ACPAGE	=	0xfaf6
                         0000FAF7   463 _g_AVCSAV	=	0xfaf7
                         0000FAF8   464 _g_EXBRSA	=	0xfaf8
                         0000FAF9   465 _g_CHRCNT	=	0xfaf9
                         0000FAFA   466 _g_ROMA	=	0xfafa
                         0000FAFC   467 _g_MODE	=	0xfafc
                         0000FAFD   468 _g_NORUSE	=	0xfafd
                         0000FAFE   469 _g_XSAVE	=	0xfafe
                         0000FB00   470 _g_YSAVE	=	0xfb00
                         0000FB03   471 _g_RSTMP	=	0xfb03
                         0000FB03   472 _g_TOCNT	=	0xfb03
                         0000FB04   473 _g_RSFCB	=	0xfb04
                         0000FB06   474 _g_RSIQLN	=	0xfb06
                         0000FB07   475 _g_MEXBIh	=	0xfb07
                         0000FB0C   476 _g_OLDSTT	=	0xfb0c
                         0000FB0C   477 _g_OLDINT	=	0xfb0c
                         0000FB16   478 _g_DEVNUM	=	0xfb16
                         0000FB17   479 _g_DATCNT	=	0xfb17
                         0000FB1A   480 _g_ERRORS	=	0xfb1a
                         0000FB1B   481 _g_FLAGS	=	0xfb1b
                         0000FB1C   482 _g_ESTBLS	=	0xfb1c
                         0000FB1D   483 _g_COMMSK	=	0xfb1d
                         0000FB1E   484 _g_LSTCOM	=	0xfb1e
                         0000FB1F   485 _g_LSTMOD	=	0xfb1f
                         0000FB35   486 _g_PRSCNT	=	0xfb35
                         0000FB36   487 _g_SAVSP	=	0xfb36
                         0000FB38   488 _g_VOICEN	=	0xfb38
                         0000FB39   489 _g_SAVVOL	=	0xfb39
                         0000FB3B   490 _g_MCLLEN	=	0xfb3b
                         0000FB3C   491 _g_MCLPTR	=	0xfb3c
                         0000FB3E   492 _g_QUEUEN	=	0xfb3e
                         0000FB3F   493 _g_MUSICF	=	0xfb3f
                         0000FB40   494 _g_PLYCNT	=	0xfb40
                         0000FB41   495 _g_VCBA	=	0xfb41
                         0000FB66   496 _g_VCBB	=	0xfb66
                         0000FB8B   497 _g_VCBC	=	0xfb8b
                         0000FBB0   498 _g_ENSTOP	=	0xfbb0
                         0000FBB1   499 _g_BASROM	=	0xfbb1
                         0000FBB2   500 _g_LINTTB	=	0xfbb2
                         0000FBCA   501 _g_FSTPOS	=	0xfbca
                         0000FBCC   502 _g_CODSAV	=	0xfbcc
                         0000FBCD   503 _g_FNKSWI	=	0xfbcd
                         0000FBCE   504 _g_FNKFLG	=	0xfbce
                         0000FBD8   505 _g_ONGSBF	=	0xfbd8
                         0000FBD9   506 _g_CLIKFL	=	0xfbd9
                         0000FBDA   507 _g_OLDKEY	=	0xfbda
                         0000FBE5   508 _g_NEWKEY	=	0xfbe5
                         0000FBF0   509 _g_KEYBUF	=	0xfbf0
                         0000FC18   510 _g_LINWRK	=	0xfc18
                         0000FC40   511 _g_PATWRK	=	0xfc40
                         0000FC48   512 _g_BOTTOM	=	0xfc48
                         0000FC4A   513 _g_HIMEM	=	0xfc4a
                         0000FC4C   514 _g_TRPTBL	=	0xfc4c
                         0000FC9A   515 _g_RTYCNT	=	0xfc9a
                         0000FC9B   516 _g_INTFLG	=	0xfc9b
                         0000FC9C   517 _g_PADY	=	0xfc9c
                         0000FC9D   518 _g_PADX	=	0xfc9d
                         0000FC9E   519 _g_JIFFY	=	0xfc9e
                         0000FCA0   520 _g_INTVAL	=	0xfca0
                         0000FCA2   521 _g_INTCNT	=	0xfca2
                         0000FCA4   522 _g_LOWLIM	=	0xfca4
                         0000FCA5   523 _g_WINWID	=	0xfca5
                         0000FCA6   524 _g_GRPHED	=	0xfca6
                         0000FCA7   525 _g_ESCCNT	=	0xfca7
                         0000FCA8   526 _g_INSFLG	=	0xfca8
                         0000FCA9   527 _g_CSRSW	=	0xfca9
                         0000FCAA   528 _g_CSTYLE	=	0xfcaa
                         0000FCAB   529 _g_CAPST	=	0xfcab
                         0000FCAC   530 _g_KANAST	=	0xfcac
                         0000FCAD   531 _g_KANAMD	=	0xfcad
                         0000FCAE   532 _g_FLBMEM	=	0xfcae
                         0000FCAF   533 _g_SCRMOD	=	0xfcaf
                         0000FCB0   534 _g_OLDSCR	=	0xfcb0
                         0000FCB1   535 _g_CASPRV	=	0xfcb1
                         0000FCB2   536 _g_BRDATR	=	0xfcb2
                         0000FCB3   537 _g_GXPOS	=	0xfcb3
                         0000FCB5   538 _g_GYPOS	=	0xfcb5
                         0000FCBB   539 _g_DRWFLG	=	0xfcbb
                         0000FCBC   540 _g_DRWSCL	=	0xfcbc
                         0000FCBD   541 _g_DRWANG	=	0xfcbd
                         0000FCC1   542 _g_MNROM	=	0xfcc1
                         0000FCC1   543 _g_EXPTBL	=	0xfcc1
                         0000FCC5   544 _g_SLTTBL	=	0xfcc5
                         0000FCC9   545 _g_SLTATR	=	0xfcc9
                         0000FD09   546 _g_SLTWRK	=	0xfd09
                         0000FD89   547 _g_PROCNM	=	0xfd89
                         0000FFE7   548 _g_RG08SAV	=	0xffe7
                         0000FFE8   549 _g_RG09SAV	=	0xffe8
                         0000FFE9   550 _g_RG10SAV	=	0xffe9
                         0000FFEA   551 _g_RG11SAV	=	0xffea
                         0000FFEB   552 _g_RG12SAV	=	0xffeb
                         0000FFEC   553 _g_RG13SAV	=	0xffec
                         0000FFED   554 _g_RG14SAV	=	0xffed
                         0000FFEE   555 _g_RG15SAV	=	0xffee
                         0000FFEF   556 _g_RG16SAV	=	0xffef
                         0000FFF0   557 _g_RG17SAV	=	0xfff0
                         0000FFF1   558 _g_RG18SAV	=	0xfff1
                         0000FFF2   559 _g_RG19SAV	=	0xfff2
                         0000FFF3   560 _g_RG20SAV	=	0xfff3
                         0000FFF4   561 _g_RG21SAV	=	0xfff4
                         0000FFF5   562 _g_RG22SAV	=	0xfff5
                         0000FFF6   563 _g_RG23SAV	=	0xfff6
                         0000FFF7   564 _g_MINROM	=	0xfff7
                         0000FFF8   565 _g_SVFFF8	=	0xfff8
                         0000FFFA   566 _g_RG25SAV	=	0xfffa
                         0000FFFB   567 _g_RG26SAV	=	0xfffb
                         0000FFFC   568 _g_RG27SAV	=	0xfffc
                         0000FFFD   569 _g_SVFFFD	=	0xfffd
                         00000004   570 _g_CGTABL	=	0x0004
                         00000006   571 _g_VDP_DR	=	0x0006
                         00000007   572 _g_VDP_DW	=	0x0007
                         0000002B   573 _g_BASRVN	=	0x002b
                         0000002B   574 _g_ROMVersion	=	0x002b
                         0000002D   575 _g_MSXVER	=	0x002d
                         0000002E   576 _g_MSXMID	=	0x002e
                         00000034   577 _g_CHAR_16	=	0x0034
                         00000000   578 _g_SUBRID	=	0x0000
                         00000002   579 _g_STRSRC	=	0x0002
                         0000F30F   580 _g_KANJTABLE	=	0xf30f
                         0000F323   581 _g_DISKVE	=	0xf323
                         0000F325   582 _g_BREAKV	=	0xf325
                         0000F341   583 _g_RAMAD0	=	0xf341
                         0000F342   584 _g_RAMAD1	=	0xf342
                         0000F343   585 _g_RAMAD2	=	0xf343
                         0000F344   586 _g_RAMAD3	=	0xf344
                         0000F348   587 _g_MASTER	=	0xf348
                         0000F37D   588 _g_BDOS	=	0xf37d
                                    589 ;E:\Dropbox\FAUSTO\SVILUPPI\MSX\CODE\C\MSXgl\projects\soccerlgMSX2/soccerlg_s11_b3.c:37: void AssignThrowInTargets() {
                                    590 ;	---------------------------------
                                    591 ; Function AssignThrowInTargets
                                    592 ; ---------------------------------
    000000C6                        593 _AssignThrowInTargets::
    000000C6 DD E5            [15]  594 	push	ix
    000000C8 DD 21 00 00      [14]  595 	ld	ix,#0
    000000CC DD 39            [15]  596 	add	ix,sp
    000000CE 21 EB FF         [10]  597 	ld	hl, #-21
    000000D1 39               [11]  598 	add	hl, sp
    000000D2 F9               [ 6]  599 	ld	sp, hl
                                    600 ;E:\Dropbox\FAUSTO\SVILUPPI\MSX\CODE\C\MSXgl\projects\soccerlgMSX2/soccerlg_s11_b3.c:38: u8 team_to_throw = (LastTouchTeam == TEAM_1) ? TEAM_2 : TEAM_1;
    000000D3 3Ar00r00         [13]  601 	ld	a, (_LastTouchTeam+0)
    000000D6 B7               [ 4]  602 	or	a, a
    000000D7 20 06            [12]  603 	jr	NZ, 00183$
    000000D9 01 01 00         [10]  604 	ld	bc, #0x0001
    000000DC C3rE2r00         [10]  605 	jp	00184$
    000000DF                        606 00183$:
    000000DF 01 00 00         [10]  607 	ld	bc, #0x0000
    000000E2                        608 00184$:
    000000E2 DD 71 F3         [19]  609 	ld	-13 (ix), c
                                    610 ;E:\Dropbox\FAUSTO\SVILUPPI\MSX\CODE\C\MSXgl\projects\soccerlgMSX2/soccerlg_s11_b3.c:39: if (LastTouchTeam == 0xFF) team_to_throw = TEAM_1;
    000000E5 3Ar00r00         [13]  611 	ld	a, (_LastTouchTeam+0)
    000000E8 3C               [ 4]  612 	inc	a
    000000E9 20 04            [12]  613 	jr	NZ, 00102$
    000000EB DD 36 F3 00      [19]  614 	ld	-13 (ix), #0x00
    000000EF                        615 00102$:
                                    616 ;E:\Dropbox\FAUSTO\SVILUPPI\MSX\CODE\C\MSXgl\projects\soccerlgMSX2/soccerlg_s11_b3.c:42: if (RestartSideY < 48) RestartSideY = 48;
    000000EF 2Ar00r00         [16]  617 	ld	hl, (_RestartSideY)
    000000F2 11 30 00         [10]  618 	ld	de, #0x0030
    000000F5 BF               [ 4]  619 	cp	a, a
    000000F6 ED 52            [15]  620 	sbc	hl, de
    000000F8 30 06            [12]  621 	jr	NC, 00104$
    000000FA 21 30 00         [10]  622 	ld	hl, #0x0030
    000000FD 22r00r00         [16]  623 	ld	(_RestartSideY), hl
    00000100                        624 00104$:
                                    625 ;E:\Dropbox\FAUSTO\SVILUPPI\MSX\CODE\C\MSXgl\projects\soccerlgMSX2/soccerlg_s11_b3.c:43: if (RestartSideY > 464) RestartSideY = 464;
    00000100 2Ar00r00         [16]  626 	ld	hl, (_RestartSideY)
    00000103 3E D0            [ 7]  627 	ld	a, #0xd0
    00000105 BD               [ 4]  628 	cp	a, l
    00000106 3E 01            [ 7]  629 	ld	a, #0x01
    00000108 9C               [ 4]  630 	sbc	a, h
    00000109 30 06            [12]  631 	jr	NC, 00106$
    0000010B 21 D0 01         [10]  632 	ld	hl, #0x01d0
    0000010E 22r00r00         [16]  633 	ld	(_RestartSideY), hl
    00000111                        634 00106$:
                                    635 ;E:\Dropbox\FAUSTO\SVILUPPI\MSX\CODE\C\MSXgl\projects\soccerlgMSX2/soccerlg_s11_b3.c:46: u8 start_t = (team_to_throw == TEAM_1) ? 1 : 8;
    00000111 DD 7E F3         [19]  636 	ld	a, -13 (ix)
    00000114 B7               [ 4]  637 	or	a, a
    00000115 20 06            [12]  638 	jr	NZ, 00185$
    00000117 01 01 00         [10]  639 	ld	bc, #0x0001
    0000011A C3r20r01         [10]  640 	jp	00186$
    0000011D                        641 00185$:
    0000011D 01 08 00         [10]  642 	ld	bc, #0x0008
    00000120                        643 00186$:
                                    644 ;E:\Dropbox\FAUSTO\SVILUPPI\MSX\CODE\C\MSXgl\projects\soccerlgMSX2/soccerlg_s11_b3.c:47: u8 end_t = start_t + 6;
    00000120 DD 71 FF         [19]  645 	ld	-1 (ix), c
    00000123 79               [ 4]  646 	ld	a, c
    00000124 DD 77 FD         [19]  647 	ld	-3 (ix), a
    00000127 C6 06            [ 7]  648 	add	a, #0x06
    00000129 DD 77 F4         [19]  649 	ld	-12 (ix), a
                                    650 ;E:\Dropbox\FAUSTO\SVILUPPI\MSX\CODE\C\MSXgl\projects\soccerlgMSX2/soccerlg_s11_b3.c:48: u8 thrower = start_t;
    0000012C DD 7E FF         [19]  651 	ld	a, -1 (ix)
    0000012F DD 77 EF         [19]  652 	ld	-17 (ix), a
                                    653 ;E:\Dropbox\FAUSTO\SVILUPPI\MSX\CODE\C\MSXgl\projects\soccerlgMSX2/soccerlg_s11_b3.c:49: u16 min_dist = 0xFFFF;
    00000132 DD 36 F5 FF      [19]  654 	ld	-11 (ix), #0xff
    00000136 DD 36 F6 FF      [19]  655 	ld	-10 (ix), #0xff
                                    656 ;E:\Dropbox\FAUSTO\SVILUPPI\MSX\CODE\C\MSXgl\projects\soccerlgMSX2/soccerlg_s11_b3.c:51: for (u8 i = start_t; i < end_t; i++) {
    0000013A DD 7E FF         [19]  657 	ld	a, -1 (ix)
    0000013D DD 77 FE         [19]  658 	ld	-2 (ix), a
    00000140                        659 00169$:
    00000140 DD 7E FE         [19]  660 	ld	a, -2 (ix)
    00000143 DD 96 F4         [19]  661 	sub	a, -12 (ix)
    00000146 D2rFCr01         [10]  662 	jp	NC, 00109$
                                    663 ;E:\Dropbox\FAUSTO\SVILUPPI\MSX\CODE\C\MSXgl\projects\soccerlgMSX2/soccerlg_s11_b3.c:52: u16 dx = (SwSprite[i].lx > RestartSideX) ? (SwSprite[i].lx - RestartSideX) : (RestartSideX - SwSprite[i].lx);
    00000149 DD 4E FE         [19]  664 	ld	c, -2 (ix)
    0000014C 06 00            [ 7]  665 	ld	b, #0x00
    0000014E 69               [ 4]  666 	ld	l, c
    0000014F 60               [ 4]  667 	ld	h, b
    00000150 29               [11]  668 	add	hl, hl
    00000151 29               [11]  669 	add	hl, hl
    00000152 09               [11]  670 	add	hl, bc
    00000153 29               [11]  671 	add	hl, hl
    00000154 09               [11]  672 	add	hl, bc
    00000155 29               [11]  673 	add	hl, hl
    00000156 09               [11]  674 	add	hl, bc
    00000157 11r00r00         [10]  675 	ld	de, #_SwSprite
    0000015A 19               [11]  676 	add	hl, de
    0000015B DD 75 FB         [19]  677 	ld	-5 (ix), l
    0000015E DD 74 FC         [19]  678 	ld	-4 (ix), h
    00000161 7E               [ 7]  679 	ld	a, (hl)
    00000162 DD 77 FA         [19]  680 	ld	-6 (ix), a
    00000165 4F               [ 4]  681 	ld	c, a
    00000166 06 00            [ 7]  682 	ld	b, #0x00
    00000168 3Ar00r00         [13]  683 	ld	a, (_RestartSideX+0)
    0000016B 5F               [ 4]  684 	ld	e, a
    0000016C 16 00            [ 7]  685 	ld	d, #0x00
    0000016E 3Ar00r00         [13]  686 	ld	a, (#_RestartSideX)
    00000171 DD 96 FA         [19]  687 	sub	a, -6 (ix)
    00000174 30 08            [12]  688 	jr	NC, 00187$
    00000176 79               [ 4]  689 	ld	a, c
    00000177 93               [ 4]  690 	sub	a, e
    00000178 4F               [ 4]  691 	ld	c, a
    00000179 78               [ 4]  692 	ld	a, b
    0000017A 9A               [ 4]  693 	sbc	a, d
    0000017B C3r83r01         [10]  694 	jp	00188$
    0000017E                        695 00187$:
    0000017E 7B               [ 4]  696 	ld	a, e
    0000017F 91               [ 4]  697 	sub	a, c
    00000180 4F               [ 4]  698 	ld	c, a
    00000181 7A               [ 4]  699 	ld	a, d
    00000182 98               [ 4]  700 	sbc	a, b
    00000183                        701 00188$:
    00000183 DD 71 F7         [19]  702 	ld	-9 (ix), c
    00000186 DD 77 F8         [19]  703 	ld	-8 (ix), a
                                    704 ;E:\Dropbox\FAUSTO\SVILUPPI\MSX\CODE\C\MSXgl\projects\soccerlgMSX2/soccerlg_s11_b3.c:53: u16 dy = (SwSprite[i].ly > RestartSideY) ? (SwSprite[i].ly - RestartSideY) : (RestartSideY - SwSprite[i].ly);
    00000189 DD 4E FB         [19]  705 	ld	c, -5 (ix)
    0000018C DD 46 FC         [19]  706 	ld	b, -4 (ix)
    0000018F 21 04 00         [10]  707 	ld	hl, #4
    00000192 09               [11]  708 	add	hl, bc
    00000193 7E               [ 7]  709 	ld	a, (hl)
    00000194 DD 77 F9         [19]  710 	ld	-7 (ix), a
    00000197 23               [ 6]  711 	inc	hl
    00000198 7E               [ 7]  712 	ld	a, (hl)
    00000199 DD 77 FA         [19]  713 	ld	-6 (ix), a
    0000019C 21r00r00         [10]  714 	ld	hl, #_RestartSideY
    0000019F 7E               [ 7]  715 	ld	a, (hl)
    000001A0 DD 96 F9         [19]  716 	sub	a, -7 (ix)
    000001A3 23               [ 6]  717 	inc	hl
    000001A4 7E               [ 7]  718 	ld	a, (hl)
    000001A5 DD 9E FA         [19]  719 	sbc	a, -6 (ix)
    000001A8 30 15            [12]  720 	jr	NC, 00189$
    000001AA 21r00r00         [10]  721 	ld	hl, #_RestartSideY
    000001AD DD 7E F9         [19]  722 	ld	a, -7 (ix)
    000001B0 96               [ 7]  723 	sub	a, (hl)
    000001B1 DD 77 FB         [19]  724 	ld	-5 (ix), a
    000001B4 DD 7E FA         [19]  725 	ld	a, -6 (ix)
    000001B7 23               [ 6]  726 	inc	hl
    000001B8 9E               [ 7]  727 	sbc	a, (hl)
    000001B9 DD 77 FC         [19]  728 	ld	-4 (ix), a
    000001BC C3rD1r01         [10]  729 	jp	00190$
    000001BF                        730 00189$:
    000001BF 3Ar00r00         [13]  731 	ld	a, (_RestartSideY+0)
    000001C2 DD 96 F9         [19]  732 	sub	a, -7 (ix)
    000001C5 DD 77 FB         [19]  733 	ld	-5 (ix), a
    000001C8 3Ar01r00         [13]  734 	ld	a, (_RestartSideY+1)
    000001CB DD 9E FA         [19]  735 	sbc	a, -6 (ix)
    000001CE DD 77 FC         [19]  736 	ld	-4 (ix), a
    000001D1                        737 00190$:
    000001D1 DD 7E FB         [19]  738 	ld	a, -5 (ix)
    000001D4 DD 46 FC         [19]  739 	ld	b, -4 (ix)
                                    740 ;E:\Dropbox\FAUSTO\SVILUPPI\MSX\CODE\C\MSXgl\projects\soccerlgMSX2/soccerlg_s11_b3.c:54: if (dx + dy < min_dist) {
    000001D7 DD 86 F7         [19]  741 	add	a, -9 (ix)
    000001DA 4F               [ 4]  742 	ld	c, a
    000001DB 78               [ 4]  743 	ld	a, b
    000001DC DD 8E F8         [19]  744 	adc	a, -8 (ix)
    000001DF 47               [ 4]  745 	ld	b, a
    000001E0 79               [ 4]  746 	ld	a, c
    000001E1 DD 96 F5         [19]  747 	sub	a, -11 (ix)
    000001E4 78               [ 4]  748 	ld	a, b
    000001E5 DD 9E F6         [19]  749 	sbc	a, -10 (ix)
    000001E8 30 0C            [12]  750 	jr	NC, 00170$
                                    751 ;E:\Dropbox\FAUSTO\SVILUPPI\MSX\CODE\C\MSXgl\projects\soccerlgMSX2/soccerlg_s11_b3.c:55: min_dist = dx + dy;
    000001EA DD 71 F5         [19]  752 	ld	-11 (ix), c
    000001ED DD 70 F6         [19]  753 	ld	-10 (ix), b
                                    754 ;E:\Dropbox\FAUSTO\SVILUPPI\MSX\CODE\C\MSXgl\projects\soccerlgMSX2/soccerlg_s11_b3.c:56: thrower = i;
    000001F0 DD 7E FE         [19]  755 	ld	a, -2 (ix)
    000001F3 DD 77 EF         [19]  756 	ld	-17 (ix), a
    000001F6                        757 00170$:
                                    758 ;E:\Dropbox\FAUSTO\SVILUPPI\MSX\CODE\C\MSXgl\projects\soccerlgMSX2/soccerlg_s11_b3.c:51: for (u8 i = start_t; i < end_t; i++) {
    000001F6 DD 34 FE         [23]  759 	inc	-2 (ix)
    000001F9 C3r40r01         [10]  760 	jp	00169$
    000001FC                        761 00109$:
                                    762 ;E:\Dropbox\FAUSTO\SVILUPPI\MSX\CODE\C\MSXgl\projects\soccerlgMSX2/soccerlg_s11_b3.c:61: u8 rec1 = (thrower == start_t) ? start_t + 1 : start_t;
    000001FC DD 7E EF         [19]  763 	ld	a, -17 (ix)
    000001FF DD 96 FF         [19]  764 	sub	a, -1 (ix)
    00000202 3E 01            [ 7]  765 	ld	a, #0x01
    00000204 28 01            [12]  766 	jr	Z, 00539$
    00000206 AF               [ 4]  767 	xor	a, a
    00000207                        768 00539$:
    00000207 DD 77 FE         [19]  769 	ld	-2 (ix), a
    0000020A B7               [ 4]  770 	or	a, a
    0000020B 28 07            [12]  771 	jr	Z, 00191$
    0000020D DD 7E FD         [19]  772 	ld	a, -3 (ix)
    00000210 3C               [ 4]  773 	inc	a
    00000211 C3r17r02         [10]  774 	jp	00192$
    00000214                        775 00191$:
    00000214 DD 7E FF         [19]  776 	ld	a, -1 (ix)
    00000217                        777 00192$:
    00000217 DD 77 F0         [19]  778 	ld	-16 (ix), a
                                    779 ;E:\Dropbox\FAUSTO\SVILUPPI\MSX\CODE\C\MSXgl\projects\soccerlgMSX2/soccerlg_s11_b3.c:62: u8 rec2 = (thrower == start_t) ? start_t + 2 : ((thrower == start_t + 1) ? start_t + 2 : start_t + 1);
    0000021A DD 7E FE         [19]  780 	ld	a, -2 (ix)
    0000021D B7               [ 4]  781 	or	a, a
    0000021E 28 08            [12]  782 	jr	Z, 00193$
    00000220 DD 7E FD         [19]  783 	ld	a, -3 (ix)
    00000223 3C               [ 4]  784 	inc	a
    00000224 3C               [ 4]  785 	inc	a
    00000225 C3r68r02         [10]  786 	jp	00194$
    00000228                        787 00193$:
    00000228 DD 7E FF         [19]  788 	ld	a, -1 (ix)
    0000022B DD 77 FB         [19]  789 	ld	-5 (ix), a
    0000022E DD 36 FC 00      [19]  790 	ld	-4 (ix), #0x00
    00000232 DD 7E FB         [19]  791 	ld	a, -5 (ix)
    00000235 C6 01            [ 7]  792 	add	a, #0x01
    00000237 DD 77 F9         [19]  793 	ld	-7 (ix), a
    0000023A DD 7E FC         [19]  794 	ld	a, -4 (ix)
    0000023D CE 00            [ 7]  795 	adc	a, #0x00
    0000023F DD 77 FA         [19]  796 	ld	-6 (ix), a
    00000242 DD 7E EF         [19]  797 	ld	a, -17 (ix)
    00000245 DD 77 FB         [19]  798 	ld	-5 (ix), a
    00000248 DD 36 FC 00      [19]  799 	ld	-4 (ix), #0x00
    0000024C DD 7E F9         [19]  800 	ld	a, -7 (ix)
    0000024F DD 96 FB         [19]  801 	sub	a, -5 (ix)
    00000252 20 10            [12]  802 	jr	NZ, 00195$
    00000254 DD 7E FA         [19]  803 	ld	a, -6 (ix)
    00000257 DD 96 FC         [19]  804 	sub	a, -4 (ix)
    0000025A 20 08            [12]  805 	jr	NZ, 00195$
    0000025C DD 7E FD         [19]  806 	ld	a, -3 (ix)
    0000025F 3C               [ 4]  807 	inc	a
    00000260 3C               [ 4]  808 	inc	a
    00000261 C3r68r02         [10]  809 	jp	00196$
    00000264                        810 00195$:
    00000264 DD 7E FD         [19]  811 	ld	a, -3 (ix)
    00000267 3C               [ 4]  812 	inc	a
    00000268                        813 00196$:
    00000268                        814 00194$:
    00000268 DD 77 F1         [19]  815 	ld	-15 (ix), a
                                    816 ;E:\Dropbox\FAUSTO\SVILUPPI\MSX\CODE\C\MSXgl\projects\soccerlgMSX2/soccerlg_s11_b3.c:63: u16 min1 = 0xFFFF, min2 = 0xFFFF;
    0000026B DD 36 F5 FF      [19]  817 	ld	-11 (ix), #0xff
    0000026F DD 36 F6 FF      [19]  818 	ld	-10 (ix), #0xff
    00000273 DD 36 F7 FF      [19]  819 	ld	-9 (ix), #0xff
    00000277 DD 36 F8 FF      [19]  820 	ld	-8 (ix), #0xff
                                    821 ;E:\Dropbox\FAUSTO\SVILUPPI\MSX\CODE\C\MSXgl\projects\soccerlgMSX2/soccerlg_s11_b3.c:65: for (u8 i = start_t; i < end_t; i++) {
    0000027B                        822 00172$:
    0000027B DD 7E FF         [19]  823 	ld	a, -1 (ix)
    0000027E DD 96 F4         [19]  824 	sub	a, -12 (ix)
    00000281 D2r6Br03         [10]  825 	jp	NC, 00118$
                                    826 ;E:\Dropbox\FAUSTO\SVILUPPI\MSX\CODE\C\MSXgl\projects\soccerlgMSX2/soccerlg_s11_b3.c:66: if (i == thrower) continue;
    00000284 DD 7E EF         [19]  827 	ld	a, -17 (ix)
    00000287 DD 96 FF         [19]  828 	sub	a, -1 (ix)
    0000028A CAr65r03         [10]  829 	jp	Z,00117$
                                    830 ;E:\Dropbox\FAUSTO\SVILUPPI\MSX\CODE\C\MSXgl\projects\soccerlgMSX2/soccerlg_s11_b3.c:67: u16 dx = (SwSprite[i].lx > RestartSideX) ? (SwSprite[i].lx - RestartSideX) : (RestartSideX - SwSprite[i].lx);
    0000028D DD 4E FF         [19]  831 	ld	c, -1 (ix)
    00000290 06 00            [ 7]  832 	ld	b, #0x00
    00000292 69               [ 4]  833 	ld	l, c
    00000293 60               [ 4]  834 	ld	h, b
    00000294 29               [11]  835 	add	hl, hl
    00000295 29               [11]  836 	add	hl, hl
    00000296 09               [11]  837 	add	hl, bc
    00000297 29               [11]  838 	add	hl, hl
    00000298 09               [11]  839 	add	hl, bc
    00000299 29               [11]  840 	add	hl, hl
    0000029A 09               [11]  841 	add	hl, bc
    0000029B 11r00r00         [10]  842 	ld	de, #_SwSprite
    0000029E 19               [11]  843 	add	hl, de
    0000029F DD 75 FD         [19]  844 	ld	-3 (ix), l
    000002A2 DD 74 FE         [19]  845 	ld	-2 (ix), h
    000002A5 7E               [ 7]  846 	ld	a, (hl)
    000002A6 DD 77 FC         [19]  847 	ld	-4 (ix), a
                                    848 ;E:\Dropbox\FAUSTO\SVILUPPI\MSX\CODE\C\MSXgl\projects\soccerlgMSX2/soccerlg_s11_b3.c:52: u16 dx = (SwSprite[i].lx > RestartSideX) ? (SwSprite[i].lx - RestartSideX) : (RestartSideX - SwSprite[i].lx);
    000002A9 3Ar00r00         [13]  849 	ld	a, (_RestartSideX+0)
    000002AC 4F               [ 4]  850 	ld	c, a
    000002AD 06 00            [ 7]  851 	ld	b, #0x00
                                    852 ;E:\Dropbox\FAUSTO\SVILUPPI\MSX\CODE\C\MSXgl\projects\soccerlgMSX2/soccerlg_s11_b3.c:67: u16 dx = (SwSprite[i].lx > RestartSideX) ? (SwSprite[i].lx - RestartSideX) : (RestartSideX - SwSprite[i].lx);
    000002AF DD 5E FC         [19]  853 	ld	e, -4 (ix)
    000002B2 16 00            [ 7]  854 	ld	d, #0x00
    000002B4 3Ar00r00         [13]  855 	ld	a, (#_RestartSideX)
    000002B7 DD 96 FC         [19]  856 	sub	a, -4 (ix)
    000002BA 30 08            [12]  857 	jr	NC, 00197$
    000002BC 7B               [ 4]  858 	ld	a, e
    000002BD 91               [ 4]  859 	sub	a, c
    000002BE 4F               [ 4]  860 	ld	c, a
    000002BF 7A               [ 4]  861 	ld	a, d
    000002C0 98               [ 4]  862 	sbc	a, b
    000002C1 C3rC9r02         [10]  863 	jp	00198$
    000002C4                        864 00197$:
    000002C4 79               [ 4]  865 	ld	a, c
    000002C5 93               [ 4]  866 	sub	a, e
    000002C6 4F               [ 4]  867 	ld	c, a
    000002C7 78               [ 4]  868 	ld	a, b
    000002C8 9A               [ 4]  869 	sbc	a, d
    000002C9                        870 00198$:
    000002C9 DD 71 F9         [19]  871 	ld	-7 (ix), c
    000002CC DD 77 FA         [19]  872 	ld	-6 (ix), a
                                    873 ;E:\Dropbox\FAUSTO\SVILUPPI\MSX\CODE\C\MSXgl\projects\soccerlgMSX2/soccerlg_s11_b3.c:68: u16 dy = (SwSprite[i].ly > RestartSideY) ? (SwSprite[i].ly - RestartSideY) : (RestartSideY - SwSprite[i].ly);
    000002CF DD 4E FD         [19]  874 	ld	c, -3 (ix)
    000002D2 DD 46 FE         [19]  875 	ld	b, -2 (ix)
    000002D5 21 04 00         [10]  876 	ld	hl, #4
    000002D8 09               [11]  877 	add	hl, bc
    000002D9 7E               [ 7]  878 	ld	a, (hl)
    000002DA DD 77 FB         [19]  879 	ld	-5 (ix), a
    000002DD 23               [ 6]  880 	inc	hl
    000002DE 7E               [ 7]  881 	ld	a, (hl)
    000002DF DD 77 FC         [19]  882 	ld	-4 (ix), a
    000002E2 21r00r00         [10]  883 	ld	hl, #_RestartSideY
    000002E5 7E               [ 7]  884 	ld	a, (hl)
    000002E6 DD 96 FB         [19]  885 	sub	a, -5 (ix)
    000002E9 23               [ 6]  886 	inc	hl
    000002EA 7E               [ 7]  887 	ld	a, (hl)
    000002EB DD 9E FC         [19]  888 	sbc	a, -4 (ix)
    000002EE 30 15            [12]  889 	jr	NC, 00199$
    000002F0 21r00r00         [10]  890 	ld	hl, #_RestartSideY
    000002F3 DD 7E FB         [19]  891 	ld	a, -5 (ix)
    000002F6 96               [ 7]  892 	sub	a, (hl)
    000002F7 DD 77 FD         [19]  893 	ld	-3 (ix), a
    000002FA DD 7E FC         [19]  894 	ld	a, -4 (ix)
    000002FD 23               [ 6]  895 	inc	hl
    000002FE 9E               [ 7]  896 	sbc	a, (hl)
    000002FF DD 77 FE         [19]  897 	ld	-2 (ix), a
    00000302 C3r17r03         [10]  898 	jp	00200$
    00000305                        899 00199$:
    00000305 3Ar00r00         [13]  900 	ld	a, (_RestartSideY+0)
    00000308 DD 96 FB         [19]  901 	sub	a, -5 (ix)
    0000030B DD 77 FD         [19]  902 	ld	-3 (ix), a
    0000030E 3Ar01r00         [13]  903 	ld	a, (_RestartSideY+1)
    00000311 DD 9E FC         [19]  904 	sbc	a, -4 (ix)
    00000314 DD 77 FE         [19]  905 	ld	-2 (ix), a
    00000317                        906 00200$:
    00000317 DD 4E FD         [19]  907 	ld	c, -3 (ix)
    0000031A DD 46 FE         [19]  908 	ld	b, -2 (ix)
                                    909 ;E:\Dropbox\FAUSTO\SVILUPPI\MSX\CODE\C\MSXgl\projects\soccerlgMSX2/soccerlg_s11_b3.c:69: if (dx + dy < min1) {
    0000031D DD 6E F9         [19]  910 	ld	l, -7 (ix)
    00000320 DD 66 FA         [19]  911 	ld	h, -6 (ix)
    00000323 09               [11]  912 	add	hl, bc
    00000324 7D               [ 4]  913 	ld	a, l
    00000325 DD 96 F5         [19]  914 	sub	a, -11 (ix)
    00000328 7C               [ 4]  915 	ld	a, h
    00000329 DD 9E F6         [19]  916 	sbc	a, -10 (ix)
    0000032C 30 21            [12]  917 	jr	NC, 00115$
                                    918 ;E:\Dropbox\FAUSTO\SVILUPPI\MSX\CODE\C\MSXgl\projects\soccerlgMSX2/soccerlg_s11_b3.c:70: min2 = min1; rec2 = rec1;
    0000032E DD 7E F5         [19]  919 	ld	a, -11 (ix)
    00000331 DD 77 F7         [19]  920 	ld	-9 (ix), a
    00000334 DD 7E F6         [19]  921 	ld	a, -10 (ix)
    00000337 DD 77 F8         [19]  922 	ld	-8 (ix), a
    0000033A DD 7E F0         [19]  923 	ld	a, -16 (ix)
    0000033D DD 77 F1         [19]  924 	ld	-15 (ix), a
                                    925 ;E:\Dropbox\FAUSTO\SVILUPPI\MSX\CODE\C\MSXgl\projects\soccerlgMSX2/soccerlg_s11_b3.c:71: min1 = dx + dy; rec1 = i;
    00000340 DD 75 F5         [19]  926 	ld	-11 (ix), l
    00000343 DD 74 F6         [19]  927 	ld	-10 (ix), h
    00000346 DD 7E FF         [19]  928 	ld	a, -1 (ix)
    00000349 DD 77 F0         [19]  929 	ld	-16 (ix), a
    0000034C C3r65r03         [10]  930 	jp	00117$
    0000034F                        931 00115$:
                                    932 ;E:\Dropbox\FAUSTO\SVILUPPI\MSX\CODE\C\MSXgl\projects\soccerlgMSX2/soccerlg_s11_b3.c:72: } else if (dx + dy < min2) {
    0000034F 7D               [ 4]  933 	ld	a, l
    00000350 DD 96 F7         [19]  934 	sub	a, -9 (ix)
    00000353 7C               [ 4]  935 	ld	a, h
    00000354 DD 9E F8         [19]  936 	sbc	a, -8 (ix)
    00000357 30 0C            [12]  937 	jr	NC, 00117$
                                    938 ;E:\Dropbox\FAUSTO\SVILUPPI\MSX\CODE\C\MSXgl\projects\soccerlgMSX2/soccerlg_s11_b3.c:73: min2 = dx + dy; rec2 = i;
    00000359 DD 75 F7         [19]  939 	ld	-9 (ix), l
    0000035C DD 74 F8         [19]  940 	ld	-8 (ix), h
    0000035F DD 7E FF         [19]  941 	ld	a, -1 (ix)
    00000362 DD 77 F1         [19]  942 	ld	-15 (ix), a
    00000365                        943 00117$:
                                    944 ;E:\Dropbox\FAUSTO\SVILUPPI\MSX\CODE\C\MSXgl\projects\soccerlgMSX2/soccerlg_s11_b3.c:65: for (u8 i = start_t; i < end_t; i++) {
    00000365 DD 34 FF         [23]  945 	inc	-1 (ix)
    00000368 C3r7Br02         [10]  946 	jp	00172$
    0000036B                        947 00118$:
                                    948 ;E:\Dropbox\FAUSTO\SVILUPPI\MSX\CODE\C\MSXgl\projects\soccerlgMSX2/soccerlg_s11_b3.c:78: u8 def_t = (team_to_throw == TEAM_1) ? 8 : 1;
    0000036B DD 7E F3         [19]  949 	ld	a, -13 (ix)
    0000036E B7               [ 4]  950 	or	a, a
    0000036F 20 06            [12]  951 	jr	NZ, 00201$
    00000371 01 08 00         [10]  952 	ld	bc, #0x0008
    00000374 C3r7Ar03         [10]  953 	jp	00202$
    00000377                        954 00201$:
    00000377 01 01 00         [10]  955 	ld	bc, #0x0001
    0000037A                        956 00202$:
                                    957 ;E:\Dropbox\FAUSTO\SVILUPPI\MSX\CODE\C\MSXgl\projects\soccerlgMSX2/soccerlg_s11_b3.c:79: u8 def_end = def_t + 6;
    0000037A DD 71 FF         [19]  958 	ld	-1 (ix), c
    0000037D 79               [ 4]  959 	ld	a, c
    0000037E DD 77 FE         [19]  960 	ld	-2 (ix), a
    00000381 C6 06            [ 7]  961 	add	a, #0x06
    00000383 DD 77 F7         [19]  962 	ld	-9 (ix), a
                                    963 ;E:\Dropbox\FAUSTO\SVILUPPI\MSX\CODE\C\MSXgl\projects\soccerlgMSX2/soccerlg_s11_b3.c:80: u8 def1 = def_t, def2 = def_t + 1;
    00000386 DD 7E FF         [19]  964 	ld	a, -1 (ix)
    00000389 DD 77 F2         [19]  965 	ld	-14 (ix), a
    0000038C DD 7E FE         [19]  966 	ld	a, -2 (ix)
    0000038F 3C               [ 4]  967 	inc	a
    00000390 DD 77 F3         [19]  968 	ld	-13 (ix), a
                                    969 ;E:\Dropbox\FAUSTO\SVILUPPI\MSX\CODE\C\MSXgl\projects\soccerlgMSX2/soccerlg_s11_b3.c:81: min1 = 0xFFFF; min2 = 0xFFFF;
    00000393 DD 36 F8 FF      [19]  970 	ld	-8 (ix), #0xff
    00000397 DD 36 F9 FF      [19]  971 	ld	-7 (ix), #0xff
    0000039B DD 36 FA FF      [19]  972 	ld	-6 (ix), #0xff
    0000039F DD 36 FB FF      [19]  973 	ld	-5 (ix), #0xff
                                    974 ;E:\Dropbox\FAUSTO\SVILUPPI\MSX\CODE\C\MSXgl\projects\soccerlgMSX2/soccerlg_s11_b3.c:83: for (u8 i = def_t; i < def_end; i++) {
    000003A3 DD 7E FF         [19]  975 	ld	a, -1 (ix)
    000003A6 DD 77 FD         [19]  976 	ld	-3 (ix), a
    000003A9                        977 00174$:
                                    978 ;E:\Dropbox\FAUSTO\SVILUPPI\MSX\CODE\C\MSXgl\projects\soccerlgMSX2/soccerlg_s11_b3.c:52: u16 dx = (SwSprite[i].lx > RestartSideX) ? (SwSprite[i].lx - RestartSideX) : (RestartSideX - SwSprite[i].lx);
    000003A9 3Ar00r00         [13]  979 	ld	a, (_RestartSideX+0)
    000003AC DD 77 FE         [19]  980 	ld	-2 (ix), a
    000003AF DD 36 FF 00      [19]  981 	ld	-1 (ix), #0x00
                                    982 ;E:\Dropbox\FAUSTO\SVILUPPI\MSX\CODE\C\MSXgl\projects\soccerlgMSX2/soccerlg_s11_b3.c:83: for (u8 i = def_t; i < def_end; i++) {
    000003B3 DD 7E FD         [19]  983 	ld	a, -3 (ix)
    000003B6 DD 96 F7         [19]  984 	sub	a, -9 (ix)
    000003B9 D2r7Dr04         [10]  985 	jp	NC, 00124$
                                    986 ;E:\Dropbox\FAUSTO\SVILUPPI\MSX\CODE\C\MSXgl\projects\soccerlgMSX2/soccerlg_s11_b3.c:84: u16 dx = (SwSprite[i].lx > RestartSideX) ? (SwSprite[i].lx - RestartSideX) : (RestartSideX - SwSprite[i].lx);
    000003BC DD 4E FD         [19]  987 	ld	c, -3 (ix)
    000003BF 06 00            [ 7]  988 	ld	b, #0x00
    000003C1 69               [ 4]  989 	ld	l, c
    000003C2 60               [ 4]  990 	ld	h, b
    000003C3 29               [11]  991 	add	hl, hl
    000003C4 29               [11]  992 	add	hl, hl
    000003C5 09               [11]  993 	add	hl, bc
    000003C6 29               [11]  994 	add	hl, hl
    000003C7 09               [11]  995 	add	hl, bc
    000003C8 29               [11]  996 	add	hl, hl
    000003C9 09               [11]  997 	add	hl, bc
    000003CA EB               [ 4]  998 	ex	de, hl
    000003CB 21r00r00         [10]  999 	ld	hl, #_SwSprite
    000003CE 19               [11] 1000 	add	hl, de
    000003CF EB               [ 4] 1001 	ex	de, hl
    000003D0 1A               [ 7] 1002 	ld	a, (de)
    000003D1 DD 77 FC         [19] 1003 	ld	-4 (ix), a
    000003D4 4F               [ 4] 1004 	ld	c, a
    000003D5 06 00            [ 7] 1005 	ld	b, #0x00
    000003D7 3Ar00r00         [13] 1006 	ld	a, (#_RestartSideX)
    000003DA DD 96 FC         [19] 1007 	sub	a, -4 (ix)
    000003DD 30 0C            [12] 1008 	jr	NC, 00203$
    000003DF 79               [ 4] 1009 	ld	a, c
    000003E0 DD 96 FE         [19] 1010 	sub	a, -2 (ix)
    000003E3 4F               [ 4] 1011 	ld	c, a
    000003E4 78               [ 4] 1012 	ld	a, b
    000003E5 DD 9E FF         [19] 1013 	sbc	a, -1 (ix)
    000003E8 C3rF4r03         [10] 1014 	jp	00204$
    000003EB                       1015 00203$:
    000003EB DD 7E FE         [19] 1016 	ld	a, -2 (ix)
    000003EE 91               [ 4] 1017 	sub	a, c
    000003EF 4F               [ 4] 1018 	ld	c, a
    000003F0 DD 7E FF         [19] 1019 	ld	a, -1 (ix)
    000003F3 98               [ 4] 1020 	sbc	a, b
    000003F4                       1021 00204$:
    000003F4 47               [ 4] 1022 	ld	b, a
                                   1023 ;E:\Dropbox\FAUSTO\SVILUPPI\MSX\CODE\C\MSXgl\projects\soccerlgMSX2/soccerlg_s11_b3.c:85: u16 dy = (SwSprite[i].ly > RestartSideY) ? (SwSprite[i].ly - RestartSideY) : (RestartSideY - SwSprite[i].ly);
    000003F5 21 04 00         [10] 1024 	ld	hl, #4
    000003F8 19               [11] 1025 	add	hl, de
    000003F9 5E               [ 7] 1026 	ld	e, (hl)
    000003FA 23               [ 6] 1027 	inc	hl
    000003FB 56               [ 7] 1028 	ld	d, (hl)
    000003FC 21r00r00         [10] 1029 	ld	hl, #_RestartSideY
    000003FF 7E               [ 7] 1030 	ld	a, (hl)
    00000400 23               [ 6] 1031 	inc	hl
    00000401 93               [ 4] 1032 	sub	a, e
    00000402 7E               [ 7] 1033 	ld	a, (hl)
    00000403 9A               [ 4] 1034 	sbc	a, d
    00000404 30 0D            [12] 1035 	jr	NC, 00205$
    00000406 21r00r00         [10] 1036 	ld	hl, #_RestartSideY
    00000409 7B               [ 4] 1037 	ld	a, e
    0000040A 96               [ 7] 1038 	sub	a, (hl)
    0000040B 23               [ 6] 1039 	inc	hl
    0000040C 5F               [ 4] 1040 	ld	e, a
    0000040D 7A               [ 4] 1041 	ld	a, d
    0000040E 9E               [ 7] 1042 	sbc	a, (hl)
    0000040F 57               [ 4] 1043 	ld	d, a
    00000410 C3r1Ar04         [10] 1044 	jp	00206$
    00000413                       1045 00205$:
    00000413 2Ar00r00         [16] 1046 	ld	hl, (_RestartSideY)
    00000416 BF               [ 4] 1047 	cp	a, a
    00000417 ED 52            [15] 1048 	sbc	hl, de
    00000419 EB               [ 4] 1049 	ex	de, hl
    0000041A                       1050 00206$:
    0000041A EB               [ 4] 1051 	ex	de, hl
                                   1052 ;E:\Dropbox\FAUSTO\SVILUPPI\MSX\CODE\C\MSXgl\projects\soccerlgMSX2/soccerlg_s11_b3.c:86: if (dx + dy < min1) {
    0000041B 09               [11] 1053 	add	hl, bc
    0000041C DD 75 FE         [19] 1054 	ld	-2 (ix), l
    0000041F DD 74 FF         [19] 1055 	ld	-1 (ix), h
    00000422 DD 7E FE         [19] 1056 	ld	a, -2 (ix)
    00000425 DD 96 F8         [19] 1057 	sub	a, -8 (ix)
    00000428 DD 7E FF         [19] 1058 	ld	a, -1 (ix)
    0000042B DD 9E F9         [19] 1059 	sbc	a, -7 (ix)
    0000042E 30 27            [12] 1060 	jr	NC, 00122$
                                   1061 ;E:\Dropbox\FAUSTO\SVILUPPI\MSX\CODE\C\MSXgl\projects\soccerlgMSX2/soccerlg_s11_b3.c:87: min2 = min1; def2 = def1;
    00000430 DD 7E F8         [19] 1062 	ld	a, -8 (ix)
    00000433 DD 77 FA         [19] 1063 	ld	-6 (ix), a
    00000436 DD 7E F9         [19] 1064 	ld	a, -7 (ix)
    00000439 DD 77 FB         [19] 1065 	ld	-5 (ix), a
    0000043C DD 7E F2         [19] 1066 	ld	a, -14 (ix)
    0000043F DD 77 F3         [19] 1067 	ld	-13 (ix), a
                                   1068 ;E:\Dropbox\FAUSTO\SVILUPPI\MSX\CODE\C\MSXgl\projects\soccerlgMSX2/soccerlg_s11_b3.c:88: min1 = dx + dy; def1 = i;
    00000442 DD 7E FE         [19] 1069 	ld	a, -2 (ix)
    00000445 DD 4E FF         [19] 1070 	ld	c, -1 (ix)
    00000448 DD 77 F8         [19] 1071 	ld	-8 (ix), a
    0000044B DD 71 F9         [19] 1072 	ld	-7 (ix), c
    0000044E DD 7E FD         [19] 1073 	ld	a, -3 (ix)
    00000451 DD 77 F2         [19] 1074 	ld	-14 (ix), a
    00000454 C3r77r04         [10] 1075 	jp	00175$
    00000457                       1076 00122$:
                                   1077 ;E:\Dropbox\FAUSTO\SVILUPPI\MSX\CODE\C\MSXgl\projects\soccerlgMSX2/soccerlg_s11_b3.c:89: } else if (dx + dy < min2) {
    00000457 DD 7E FE         [19] 1078 	ld	a, -2 (ix)
    0000045A DD 96 FA         [19] 1079 	sub	a, -6 (ix)
    0000045D DD 7E FF         [19] 1080 	ld	a, -1 (ix)
    00000460 DD 9E FB         [19] 1081 	sbc	a, -5 (ix)
    00000463 30 12            [12] 1082 	jr	NC, 00175$
                                   1083 ;E:\Dropbox\FAUSTO\SVILUPPI\MSX\CODE\C\MSXgl\projects\soccerlgMSX2/soccerlg_s11_b3.c:90: min2 = dx + dy; def2 = i;
    00000465 DD 7E FE         [19] 1084 	ld	a, -2 (ix)
    00000468 DD 4E FF         [19] 1085 	ld	c, -1 (ix)
    0000046B DD 77 FA         [19] 1086 	ld	-6 (ix), a
    0000046E DD 71 FB         [19] 1087 	ld	-5 (ix), c
    00000471 DD 7E FD         [19] 1088 	ld	a, -3 (ix)
    00000474 DD 77 F3         [19] 1089 	ld	-13 (ix), a
    00000477                       1090 00175$:
                                   1091 ;E:\Dropbox\FAUSTO\SVILUPPI\MSX\CODE\C\MSXgl\projects\soccerlgMSX2/soccerlg_s11_b3.c:83: for (u8 i = def_t; i < def_end; i++) {
    00000477 DD 34 FD         [23] 1092 	inc	-3 (ix)
    0000047A C3rA9r03         [10] 1093 	jp	00174$
    0000047D                       1094 00124$:
                                   1095 ;E:\Dropbox\FAUSTO\SVILUPPI\MSX\CODE\C\MSXgl\projects\soccerlgMSX2/soccerlg_s11_b3.c:95: u16 thrower_y = RestartSideY - 8;
    0000047D 2Ar00r00         [16] 1096 	ld	hl, (_RestartSideY)
    00000480 7D               [ 4] 1097 	ld	a, l
    00000481 C6 F8            [ 7] 1098 	add	a, #0xf8
    00000483 4F               [ 4] 1099 	ld	c, a
    00000484 7C               [ 4] 1100 	ld	a, h
    00000485 CE FF            [ 7] 1101 	adc	a, #0xff
    00000487 DD 71 F4         [19] 1102 	ld	-12 (ix), c
    0000048A DD 77 F5         [19] 1103 	ld	-11 (ix), a
                                   1104 ;E:\Dropbox\FAUSTO\SVILUPPI\MSX\CODE\C\MSXgl\projects\soccerlgMSX2/soccerlg_s11_b3.c:96: i8 dir_x = (RestartSideX < 128) ? 1 : -1;
    0000048D 3Ar00r00         [13] 1105 	ld	a, (_RestartSideX+0)
    00000490 D6 80            [ 7] 1106 	sub	a, #0x80
    00000492 30 06            [12] 1107 	jr	NC, 00207$
    00000494 01 01 00         [10] 1108 	ld	bc, #0x0001
    00000497 C3r9Dr04         [10] 1109 	jp	00208$
    0000049A                       1110 00207$:
    0000049A 01 FF FF         [10] 1111 	ld	bc, #0xffff
    0000049D                       1112 00208$:
                                   1113 ;E:\Dropbox\FAUSTO\SVILUPPI\MSX\CODE\C\MSXgl\projects\soccerlgMSX2/soccerlg_s11_b3.c:97: u16 thrower_x = RestartSideX - (dir_x * 8); // Arretra di 8 pixel fuori dal campo
    0000049D DD 71 F6         [19] 1114 	ld	-10 (ix), c
    000004A0 79               [ 4] 1115 	ld	a, c
    000004A1 6F               [ 4] 1116 	ld	l, a
                                   1117 ;	spillPairReg hl
                                   1118 ;	spillPairReg hl
    000004A2 07               [ 4] 1119 	rlca
    000004A3 9F               [ 4] 1120 	sbc	a, a
    000004A4 67               [ 4] 1121 	ld	h, a
    000004A5 29               [11] 1122 	add	hl, hl
    000004A6 29               [11] 1123 	add	hl, hl
    000004A7 29               [11] 1124 	add	hl, hl
    000004A8 DD 7E FE         [19] 1125 	ld	a, -2 (ix)
    000004AB 95               [ 4] 1126 	sub	a, l
    000004AC 4F               [ 4] 1127 	ld	c, a
    000004AD DD 7E FF         [19] 1128 	ld	a, -1 (ix)
    000004B0 9C               [ 4] 1129 	sbc	a, h
    000004B1 DD 71 F7         [19] 1130 	ld	-9 (ix), c
    000004B4 DD 77 F8         [19] 1131 	ld	-8 (ix), a
                                   1132 ;E:\Dropbox\FAUSTO\SVILUPPI\MSX\CODE\C\MSXgl\projects\soccerlgMSX2/soccerlg_s11_b3.c:99: SwSprite[14].lx = thrower_x;
    000004B7 DD 7E F7         [19] 1133 	ld	a, -9 (ix)
    000004BA 32r42r01         [13] 1134 	ld	(#(_SwSprite + 322)),a
                                   1135 ;E:\Dropbox\FAUSTO\SVILUPPI\MSX\CODE\C\MSXgl\projects\soccerlgMSX2/soccerlg_s11_b3.c:100: SwSprite[14].ly = thrower_y - 6; // Palla sopra la testa del battitore
    000004BD DD 7E F4         [19] 1136 	ld	a, -12 (ix)
    000004C0 DD 4E F5         [19] 1137 	ld	c, -11 (ix)
    000004C3 C6 FA            [ 7] 1138 	add	a, #0xfa
    000004C5 5F               [ 4] 1139 	ld	e, a
    000004C6 79               [ 4] 1140 	ld	a, c
    000004C7 CE FF            [ 7] 1141 	adc	a, #0xff
    000004C9 57               [ 4] 1142 	ld	d, a
    000004CA ED 53r46r01      [20] 1143 	ld	((_SwSprite + 326)), de
                                   1144 ;E:\Dropbox\FAUSTO\SVILUPPI\MSX\CODE\C\MSXgl\projects\soccerlgMSX2/soccerlg_s11_b3.c:101: SwSprite[14].frame = SPR_BALL_SIZE_2; 
    000004CE 21 61 00         [10] 1145 	ld	hl, #0x0061
    000004D1 22r51r01         [16] 1146 	ld	((_SwSprite + 337)), hl
                                   1147 ;E:\Dropbox\FAUSTO\SVILUPPI\MSX\CODE\C\MSXgl\projects\soccerlgMSX2/soccerlg_s11_b3.c:102: SwSprite[14].dx = SwSprite[14].dy = SwSprite[14].anim = SwSprite[14].count = 0;
    000004D4 6C               [ 4] 1148 	ld	l, h
    000004D5 22r57r01         [16] 1149 	ld	((_SwSprite + 343)), hl
    000004D8 22r55r01         [16] 1150 	ld	((_SwSprite + 341)), hl
    000004DB 21r54r01         [10] 1151 	ld	hl, #(_SwSprite + 340)
    000004DE 36 00            [10] 1152 	ld	(hl), #0x00
    000004E0 21r53r01         [10] 1153 	ld	hl, #(_SwSprite + 339)
    000004E3 36 00            [10] 1154 	ld	(hl), #0x00
                                   1155 ;E:\Dropbox\FAUSTO\SVILUPPI\MSX\CODE\C\MSXgl\projects\soccerlgMSX2/soccerlg_s11_b3.c:103: g_thrower_id = thrower;
    000004E5 DD 7E EF         [19] 1156 	ld	a, -17 (ix)
    000004E8 32r00r00         [13] 1157 	ld	(_g_thrower_id+0), a
                                   1158 ;E:\Dropbox\FAUSTO\SVILUPPI\MSX\CODE\C\MSXgl\projects\soccerlgMSX2/soccerlg_s11_b3.c:105: g_throw_rec_1 = rec1;
    000004EB DD 7E F0         [19] 1159 	ld	a, -16 (ix)
    000004EE 32r00r00         [13] 1160 	ld	(_g_throw_rec_1+0), a
                                   1161 ;E:\Dropbox\FAUSTO\SVILUPPI\MSX\CODE\C\MSXgl\projects\soccerlgMSX2/soccerlg_s11_b3.c:106: g_throw_rec_2 = rec2;
    000004F1 DD 7E F1         [19] 1162 	ld	a, -15 (ix)
    000004F4 32r00r00         [13] 1163 	ld	(_g_throw_rec_2+0), a
                                   1164 ;E:\Dropbox\FAUSTO\SVILUPPI\MSX\CODE\C\MSXgl\projects\soccerlgMSX2/soccerlg_s11_b3.c:107: g_selected_rec = 0;
    000004F7 21r00r00         [10] 1165 	ld	hl, #_g_selected_rec
    000004FA 36 00            [10] 1166 	ld	(hl), #0x00
                                   1167 ;E:\Dropbox\FAUSTO\SVILUPPI\MSX\CODE\C\MSXgl\projects\soccerlgMSX2/soccerlg_s11_b3.c:110: SwSprite[0].tx = 128; SwSprite[0].ty = 32;
    000004FC 21r0Cr00         [10] 1168 	ld	hl, #(_SwSprite + 12)
    000004FF 36 80            [10] 1169 	ld	(hl), #0x80
    00000501 21 20 00         [10] 1170 	ld	hl, #0x0020
    00000504 22r0Dr00         [16] 1171 	ld	((_SwSprite + 13)), hl
                                   1172 ;E:\Dropbox\FAUSTO\SVILUPPI\MSX\CODE\C\MSXgl\projects\soccerlgMSX2/soccerlg_s11_b3.c:111: SwSprite[7].tx = 128; SwSprite[7].ty = 444;
    00000507 21rADr00         [10] 1173 	ld	hl, #(_SwSprite + 173)
    0000050A 36 80            [10] 1174 	ld	(hl), #0x80
    0000050C 21 BC 01         [10] 1175 	ld	hl, #0x01bc
    0000050F 22rAEr00         [16] 1176 	ld	((_SwSprite + 174)), hl
                                   1177 ;E:\Dropbox\FAUSTO\SVILUPPI\MSX\CODE\C\MSXgl\projects\soccerlgMSX2/soccerlg_s11_b3.c:114: for(u8 i=1; i<14; i++) {
    00000512 DD 36 FF 01      [19] 1178 	ld	-1 (ix), #0x01
    00000516                       1179 00177$:
    00000516 DD 7E FF         [19] 1180 	ld	a, -1 (ix)
    00000519 D6 0E            [ 7] 1181 	sub	a, #0x0e
    0000051B D2r00r07         [10] 1182 	jp	NC, 00158$
                                   1183 ;E:\Dropbox\FAUSTO\SVILUPPI\MSX\CODE\C\MSXgl\projects\soccerlgMSX2/soccerlg_s11_b3.c:115: if (i == 7 || i == thrower || i == rec1 || i == rec2 || i == def1 || i == def2) continue;
    0000051E DD 7E FF         [19] 1184 	ld	a, -1 (ix)
    00000521 D6 07            [ 7] 1185 	sub	a, #0x07
    00000523 CArFAr06         [10] 1186 	jp	Z,00157$
    00000526 DD 7E EF         [19] 1187 	ld	a, -17 (ix)
    00000529 DD 96 FF         [19] 1188 	sub	a, -1 (ix)
    0000052C CArFAr06         [10] 1189 	jp	Z,00157$
    0000052F DD 7E F0         [19] 1190 	ld	a, -16 (ix)
    00000532 DD 96 FF         [19] 1191 	sub	a, -1 (ix)
    00000535 CArFAr06         [10] 1192 	jp	Z,00157$
    00000538 DD 7E F1         [19] 1193 	ld	a, -15 (ix)
    0000053B DD 96 FF         [19] 1194 	sub	a, -1 (ix)
    0000053E CArFAr06         [10] 1195 	jp	Z,00157$
    00000541 DD 7E F2         [19] 1196 	ld	a, -14 (ix)
    00000544 DD 96 FF         [19] 1197 	sub	a, -1 (ix)
    00000547 CArFAr06         [10] 1198 	jp	Z,00157$
    0000054A DD 7E F3         [19] 1199 	ld	a, -13 (ix)
    0000054D DD 96 FF         [19] 1200 	sub	a, -1 (ix)
    00000550 CArFAr06         [10] 1201 	jp	Z,00157$
                                   1202 ;E:\Dropbox\FAUSTO\SVILUPPI\MSX\CODE\C\MSXgl\projects\soccerlgMSX2/soccerlg_s11_b3.c:117: u8 team = (i < 7) ? TEAM_1 : TEAM_2;
    00000553 DD 7E FF         [19] 1203 	ld	a, -1 (ix)
    00000556 D6 07            [ 7] 1204 	sub	a, #0x07
    00000558 30 06            [12] 1205 	jr	NC, 00209$
    0000055A 11 00 00         [10] 1206 	ld	de, #0x0000
    0000055D C3r63r05         [10] 1207 	jp	00210$
    00000560                       1208 00209$:
    00000560 11 01 00         [10] 1209 	ld	de, #0x0001
    00000563                       1210 00210$:
    00000563 4B               [ 4] 1211 	ld	c, e
                                   1212 ;E:\Dropbox\FAUSTO\SVILUPPI\MSX\CODE\C\MSXgl\projects\soccerlgMSX2/soccerlg_s11_b3.c:118: u8 role = (team == TEAM_1) ? i : (i - 7);
    00000564 79               [ 4] 1213 	ld	a, c
    00000565 B7               [ 4] 1214 	or	a, a
    00000566 20 06            [12] 1215 	jr	NZ, 00211$
    00000568 DD 7E FF         [19] 1216 	ld	a, -1 (ix)
    0000056B C3r73r05         [10] 1217 	jp	00212$
    0000056E                       1218 00211$:
    0000056E DD 7E FF         [19] 1219 	ld	a, -1 (ix)
    00000571 C6 F9            [ 7] 1220 	add	a, #0xf9
    00000573                       1221 00212$:
                                   1222 ;E:\Dropbox\FAUSTO\SVILUPPI\MSX\CODE\C\MSXgl\projects\soccerlgMSX2/soccerlg_s11_b3.c:119: u16 base_x = 128;
    00000573 DD 36 F9 80      [19] 1223 	ld	-7 (ix), #0x80
    00000577 DD 36 FA 00      [19] 1224 	ld	-6 (ix), #0x00
                                   1225 ;E:\Dropbox\FAUSTO\SVILUPPI\MSX\CODE\C\MSXgl\projects\soccerlgMSX2/soccerlg_s11_b3.c:120: u16 base_y = 256;
    0000057B DD 36 FB 00      [19] 1226 	ld	-5 (ix), #0x00
    0000057F DD 36 FC 01      [19] 1227 	ld	-4 (ix), #0x01
                                   1228 ;E:\Dropbox\FAUSTO\SVILUPPI\MSX\CODE\C\MSXgl\projects\soccerlgMSX2/soccerlg_s11_b3.c:122: if (role == 1) { base_x = 64;  base_y = (team == TEAM_1) ? 120 : 392; }
    00000583 FE 01            [ 7] 1229 	cp	a, #0x01
    00000585 20 1E            [12] 1230 	jr	NZ, 00147$
    00000587 DD 36 F9 40      [19] 1231 	ld	-7 (ix), #0x40
    0000058B DD 36 FA 00      [19] 1232 	ld	-6 (ix), #0
    0000058F 79               [ 4] 1233 	ld	a, c
    00000590 B7               [ 4] 1234 	or	a, a
    00000591 20 06            [12] 1235 	jr	NZ, 00213$
    00000593 11 78 00         [10] 1236 	ld	de, #0x0078
    00000596 C3r9Cr05         [10] 1237 	jp	00214$
    00000599                       1238 00213$:
    00000599 11 88 01         [10] 1239 	ld	de, #0x0188
    0000059C                       1240 00214$:
    0000059C DD 73 FB         [19] 1241 	ld	-5 (ix), e
    0000059F DD 72 FC         [19] 1242 	ld	-4 (ix), d
    000005A2 C3r5Cr06         [10] 1243 	jp	00148$
    000005A5                       1244 00147$:
                                   1245 ;E:\Dropbox\FAUSTO\SVILUPPI\MSX\CODE\C\MSXgl\projects\soccerlgMSX2/soccerlg_s11_b3.c:123: else if (role == 2) { base_x = 192; base_y = (team == TEAM_1) ? 120 : 392; }
    000005A5 FE 02            [ 7] 1246 	cp	a, #0x02
    000005A7 20 2E            [12] 1247 	jr	NZ, 00144$
    000005A9 DD 36 F9 C0      [19] 1248 	ld	-7 (ix), #0xc0
    000005AD DD 36 FA 00      [19] 1249 	ld	-6 (ix), #0
    000005B1 79               [ 4] 1250 	ld	a, c
    000005B2 B7               [ 4] 1251 	or	a, a
    000005B3 20 0B            [12] 1252 	jr	NZ, 00215$
    000005B5 DD 36 FD 78      [19] 1253 	ld	-3 (ix), #0x78
    000005B9 DD 36 FE 00      [19] 1254 	ld	-2 (ix), #0
    000005BD C3rC8r05         [10] 1255 	jp	00216$
    000005C0                       1256 00215$:
    000005C0 DD 36 FD 88      [19] 1257 	ld	-3 (ix), #0x88
    000005C4 DD 36 FE 01      [19] 1258 	ld	-2 (ix), #0x01
    000005C8                       1259 00216$:
    000005C8 DD 7E FD         [19] 1260 	ld	a, -3 (ix)
    000005CB DD 77 FB         [19] 1261 	ld	-5 (ix), a
    000005CE DD 7E FE         [19] 1262 	ld	a, -2 (ix)
    000005D1 DD 77 FC         [19] 1263 	ld	-4 (ix), a
    000005D4 C3r5Cr06         [10] 1264 	jp	00148$
    000005D7                       1265 00144$:
                                   1266 ;E:\Dropbox\FAUSTO\SVILUPPI\MSX\CODE\C\MSXgl\projects\soccerlgMSX2/soccerlg_s11_b3.c:124: else if (role == 3) { base_x = 64;  base_y = (team == TEAM_1) ? 200 : 312; }
    000005D7 FE 03            [ 7] 1267 	cp	a, #0x03
    000005D9 20 1E            [12] 1268 	jr	NZ, 00141$
    000005DB DD 36 F9 40      [19] 1269 	ld	-7 (ix), #0x40
    000005DF DD 36 FA 00      [19] 1270 	ld	-6 (ix), #0
    000005E3 79               [ 4] 1271 	ld	a, c
    000005E4 B7               [ 4] 1272 	or	a, a
    000005E5 20 06            [12] 1273 	jr	NZ, 00217$
    000005E7 01 C8 00         [10] 1274 	ld	bc, #0x00c8
    000005EA C3rF0r05         [10] 1275 	jp	00218$
    000005ED                       1276 00217$:
    000005ED 01 38 01         [10] 1277 	ld	bc, #0x0138
    000005F0                       1278 00218$:
    000005F0 DD 71 FB         [19] 1279 	ld	-5 (ix), c
    000005F3 DD 70 FC         [19] 1280 	ld	-4 (ix), b
    000005F6 C3r5Cr06         [10] 1281 	jp	00148$
    000005F9                       1282 00141$:
                                   1283 ;E:\Dropbox\FAUSTO\SVILUPPI\MSX\CODE\C\MSXgl\projects\soccerlgMSX2/soccerlg_s11_b3.c:125: else if (role == 4) { base_x = 192; base_y = (team == TEAM_1) ? 200 : 312; }
    000005F9 FE 04            [ 7] 1284 	cp	a, #0x04
    000005FB 20 1E            [12] 1285 	jr	NZ, 00138$
    000005FD DD 36 F9 C0      [19] 1286 	ld	-7 (ix), #0xc0
    00000601 DD 36 FA 00      [19] 1287 	ld	-6 (ix), #0
    00000605 79               [ 4] 1288 	ld	a, c
    00000606 B7               [ 4] 1289 	or	a, a
    00000607 20 06            [12] 1290 	jr	NZ, 00219$
    00000609 01 C8 00         [10] 1291 	ld	bc, #0x00c8
    0000060C C3r12r06         [10] 1292 	jp	00220$
    0000060F                       1293 00219$:
    0000060F 01 38 01         [10] 1294 	ld	bc, #0x0138
    00000612                       1295 00220$:
    00000612 DD 71 FB         [19] 1296 	ld	-5 (ix), c
    00000615 DD 70 FC         [19] 1297 	ld	-4 (ix), b
    00000618 C3r5Cr06         [10] 1298 	jp	00148$
    0000061B                       1299 00138$:
                                   1300 ;E:\Dropbox\FAUSTO\SVILUPPI\MSX\CODE\C\MSXgl\projects\soccerlgMSX2/soccerlg_s11_b3.c:126: else if (role == 5) { base_x = 80;  base_y = (team == TEAM_1) ? 280 : 232; }
    0000061B FE 05            [ 7] 1301 	cp	a, #0x05
    0000061D 20 1E            [12] 1302 	jr	NZ, 00135$
    0000061F DD 36 F9 50      [19] 1303 	ld	-7 (ix), #0x50
    00000623 DD 36 FA 00      [19] 1304 	ld	-6 (ix), #0
    00000627 79               [ 4] 1305 	ld	a, c
    00000628 B7               [ 4] 1306 	or	a, a
    00000629 20 06            [12] 1307 	jr	NZ, 00221$
    0000062B 01 18 01         [10] 1308 	ld	bc, #0x0118
    0000062E C3r34r06         [10] 1309 	jp	00222$
    00000631                       1310 00221$:
    00000631 01 E8 00         [10] 1311 	ld	bc, #0x00e8
    00000634                       1312 00222$:
    00000634 DD 71 FB         [19] 1313 	ld	-5 (ix), c
    00000637 DD 70 FC         [19] 1314 	ld	-4 (ix), b
    0000063A C3r5Cr06         [10] 1315 	jp	00148$
    0000063D                       1316 00135$:
                                   1317 ;E:\Dropbox\FAUSTO\SVILUPPI\MSX\CODE\C\MSXgl\projects\soccerlgMSX2/soccerlg_s11_b3.c:127: else if (role == 6) { base_x = 176; base_y = (team == TEAM_1) ? 280 : 232; }
    0000063D D6 06            [ 7] 1318 	sub	a, #0x06
    0000063F 20 1B            [12] 1319 	jr	NZ, 00148$
    00000641 DD 36 F9 B0      [19] 1320 	ld	-7 (ix), #0xb0
    00000645 DD 36 FA 00      [19] 1321 	ld	-6 (ix), #0
    00000649 79               [ 4] 1322 	ld	a, c
    0000064A B7               [ 4] 1323 	or	a, a
    0000064B 20 06            [12] 1324 	jr	NZ, 00223$
    0000064D 01 18 01         [10] 1325 	ld	bc, #0x0118
    00000650 C3r56r06         [10] 1326 	jp	00224$
    00000653                       1327 00223$:
    00000653 01 E8 00         [10] 1328 	ld	bc, #0x00e8
    00000656                       1329 00224$:
    00000656 DD 71 FB         [19] 1330 	ld	-5 (ix), c
    00000659 DD 70 FC         [19] 1331 	ld	-4 (ix), b
    0000065C                       1332 00148$:
                                   1333 ;E:\Dropbox\FAUSTO\SVILUPPI\MSX\CODE\C\MSXgl\projects\soccerlgMSX2/soccerlg_s11_b3.c:130: i16 ball_offset_y = (i16)RestartSideY - 256;
    0000065C 2Ar00r00         [16] 1334 	ld	hl, (_RestartSideY)
    0000065F 4D               [ 4] 1335 	ld	c, l
    00000660 7C               [ 4] 1336 	ld	a,h
    00000661 3D               [ 4] 1337 	dec	a
    00000662 47               [ 4] 1338 	ld	b, a
                                   1339 ;E:\Dropbox\FAUSTO\SVILUPPI\MSX\CODE\C\MSXgl\projects\soccerlgMSX2/soccerlg_s11_b3.c:131: SwSprite[i].tx = base_x;
    00000663 DD 5E FF         [19] 1340 	ld	e, -1 (ix)
    00000666 16 00            [ 7] 1341 	ld	d, #0x00
    00000668 6B               [ 4] 1342 	ld	l, e
    00000669 62               [ 4] 1343 	ld	h, d
    0000066A 29               [11] 1344 	add	hl, hl
    0000066B 29               [11] 1345 	add	hl, hl
    0000066C 19               [11] 1346 	add	hl, de
    0000066D 29               [11] 1347 	add	hl, hl
    0000066E 19               [11] 1348 	add	hl, de
    0000066F 29               [11] 1349 	add	hl, hl
    00000670 19               [11] 1350 	add	hl, de
    00000671 EB               [ 4] 1351 	ex	de, hl
    00000672 21r00r00         [10] 1352 	ld	hl, #_SwSprite
    00000675 19               [11] 1353 	add	hl, de
    00000676 EB               [ 4] 1354 	ex	de, hl
    00000677 21 0C 00         [10] 1355 	ld	hl, #0x000c
    0000067A 19               [11] 1356 	add	hl, de
    0000067B DD 75 FD         [19] 1357 	ld	-3 (ix), l
    0000067E DD 74 FE         [19] 1358 	ld	-2 (ix), h
    00000681 DD 7E F9         [19] 1359 	ld	a, -7 (ix)
    00000684 DD 6E FD         [19] 1360 	ld	l, -3 (ix)
    00000687 DD 66 FE         [19] 1361 	ld	h, -2 (ix)
    0000068A 77               [ 7] 1362 	ld	(hl), a
                                   1363 ;E:\Dropbox\FAUSTO\SVILUPPI\MSX\CODE\C\MSXgl\projects\soccerlgMSX2/soccerlg_s11_b3.c:132: SwSprite[i].ty = base_y + (ball_offset_y / 2);
    0000068B 21 0D 00         [10] 1364 	ld	hl, #0x000d
    0000068E 19               [11] 1365 	add	hl, de
    0000068F EB               [ 4] 1366 	ex	de, hl
    00000690 69               [ 4] 1367 	ld	l, c
                                   1368 ;	spillPairReg hl
                                   1369 ;	spillPairReg hl
    00000691 60               [ 4] 1370 	ld	h, b
                                   1371 ;	spillPairReg hl
                                   1372 ;	spillPairReg hl
    00000692 CB 78            [ 8] 1373 	bit	7, b
    00000694 28 03            [12] 1374 	jr	Z, 00225$
    00000696 69               [ 4] 1375 	ld	l, c
                                   1376 ;	spillPairReg hl
                                   1377 ;	spillPairReg hl
    00000697 60               [ 4] 1378 	ld	h, b
                                   1379 ;	spillPairReg hl
                                   1380 ;	spillPairReg hl
    00000698 23               [ 6] 1381 	inc	hl
    00000699                       1382 00225$:
    00000699 CB 2C            [ 8] 1383 	sra	h
    0000069B CB 1D            [ 8] 1384 	rr	l
    0000069D DD 4E FB         [19] 1385 	ld	c, -5 (ix)
    000006A0 DD 46 FC         [19] 1386 	ld	b, -4 (ix)
    000006A3 09               [11] 1387 	add	hl, bc
    000006A4 4D               [ 4] 1388 	ld	c, l
    000006A5 44               [ 4] 1389 	ld	b, h
    000006A6 6B               [ 4] 1390 	ld	l, e
    000006A7 62               [ 4] 1391 	ld	h, d
    000006A8 71               [ 7] 1392 	ld	(hl), c
    000006A9 23               [ 6] 1393 	inc	hl
    000006AA 70               [ 7] 1394 	ld	(hl), b
                                   1395 ;E:\Dropbox\FAUSTO\SVILUPPI\MSX\CODE\C\MSXgl\projects\soccerlgMSX2/soccerlg_s11_b3.c:134: if (SwSprite[i].tx < 16) SwSprite[i].tx = 16;
    000006AB DD 6E FD         [19] 1396 	ld	l, -3 (ix)
    000006AE DD 66 FE         [19] 1397 	ld	h, -2 (ix)
    000006B1 7E               [ 7] 1398 	ld	a, (hl)
    000006B2 D6 10            [ 7] 1399 	sub	a, #0x10
    000006B4 30 08            [12] 1400 	jr	NC, 00150$
    000006B6 DD 6E FD         [19] 1401 	ld	l, -3 (ix)
    000006B9 DD 66 FE         [19] 1402 	ld	h, -2 (ix)
    000006BC 36 10            [10] 1403 	ld	(hl), #0x10
    000006BE                       1404 00150$:
                                   1405 ;E:\Dropbox\FAUSTO\SVILUPPI\MSX\CODE\C\MSXgl\projects\soccerlgMSX2/soccerlg_s11_b3.c:135: if (SwSprite[i].tx > 240) SwSprite[i].tx = 240;
    000006BE DD 6E FD         [19] 1406 	ld	l, -3 (ix)
    000006C1 DD 66 FE         [19] 1407 	ld	h, -2 (ix)
    000006C4 4E               [ 7] 1408 	ld	c, (hl)
    000006C5 3E F0            [ 7] 1409 	ld	a, #0xf0
    000006C7 91               [ 4] 1410 	sub	a, c
    000006C8 30 08            [12] 1411 	jr	NC, 00152$
    000006CA DD 6E FD         [19] 1412 	ld	l, -3 (ix)
    000006CD DD 66 FE         [19] 1413 	ld	h, -2 (ix)
    000006D0 36 F0            [10] 1414 	ld	(hl), #0xf0
    000006D2                       1415 00152$:
                                   1416 ;E:\Dropbox\FAUSTO\SVILUPPI\MSX\CODE\C\MSXgl\projects\soccerlgMSX2/soccerlg_s11_b3.c:136: if (SwSprite[i].ty < 48) SwSprite[i].ty = 48;
    000006D2 6B               [ 4] 1417 	ld	l, e
    000006D3 62               [ 4] 1418 	ld	h, d
    000006D4 4E               [ 7] 1419 	ld	c, (hl)
    000006D5 23               [ 6] 1420 	inc	hl
    000006D6 46               [ 7] 1421 	ld	b, (hl)
    000006D7 79               [ 4] 1422 	ld	a, c
    000006D8 D6 30            [ 7] 1423 	sub	a, #0x30
    000006DA 78               [ 4] 1424 	ld	a, b
    000006DB DE 00            [ 7] 1425 	sbc	a, #0x00
    000006DD 30 07            [12] 1426 	jr	NC, 00154$
    000006DF 6B               [ 4] 1427 	ld	l, e
    000006E0 62               [ 4] 1428 	ld	h, d
    000006E1 36 30            [10] 1429 	ld	(hl), #0x30
    000006E3 23               [ 6] 1430 	inc	hl
    000006E4 36 00            [10] 1431 	ld	(hl), #0x00
    000006E6                       1432 00154$:
                                   1433 ;E:\Dropbox\FAUSTO\SVILUPPI\MSX\CODE\C\MSXgl\projects\soccerlgMSX2/soccerlg_s11_b3.c:137: if (SwSprite[i].ty > 464) SwSprite[i].ty = 464;
    000006E6 6B               [ 4] 1434 	ld	l, e
    000006E7 62               [ 4] 1435 	ld	h, d
    000006E8 4E               [ 7] 1436 	ld	c, (hl)
    000006E9 23               [ 6] 1437 	inc	hl
    000006EA 46               [ 7] 1438 	ld	b, (hl)
    000006EB 3E D0            [ 7] 1439 	ld	a, #0xd0
    000006ED B9               [ 4] 1440 	cp	a, c
    000006EE 3E 01            [ 7] 1441 	ld	a, #0x01
    000006F0 98               [ 4] 1442 	sbc	a, b
    000006F1 30 07            [12] 1443 	jr	NC, 00157$
    000006F3 3E D0            [ 7] 1444 	ld	a, #0xd0
    000006F5 12               [ 7] 1445 	ld	(de), a
    000006F6 13               [ 6] 1446 	inc	de
    000006F7 3E 01            [ 7] 1447 	ld	a, #0x01
    000006F9 12               [ 7] 1448 	ld	(de), a
    000006FA                       1449 00157$:
                                   1450 ;E:\Dropbox\FAUSTO\SVILUPPI\MSX\CODE\C\MSXgl\projects\soccerlgMSX2/soccerlg_s11_b3.c:114: for(u8 i=1; i<14; i++) {
    000006FA DD 34 FF         [23] 1451 	inc	-1 (ix)
    000006FD C3r16r05         [10] 1452 	jp	00177$
    00000700                       1453 00158$:
                                   1454 ;E:\Dropbox\FAUSTO\SVILUPPI\MSX\CODE\C\MSXgl\projects\soccerlgMSX2/soccerlg_s11_b3.c:140: SwSprite[thrower].tx = thrower_x;
    00000700 DD 4E EF         [19] 1455 	ld	c, -17 (ix)
    00000703 06 00            [ 7] 1456 	ld	b, #0x00
    00000705 69               [ 4] 1457 	ld	l, c
    00000706 60               [ 4] 1458 	ld	h, b
    00000707 29               [11] 1459 	add	hl, hl
    00000708 29               [11] 1460 	add	hl, hl
    00000709 09               [11] 1461 	add	hl, bc
    0000070A 29               [11] 1462 	add	hl, hl
    0000070B 09               [11] 1463 	add	hl, bc
    0000070C 29               [11] 1464 	add	hl, hl
    0000070D 09               [11] 1465 	add	hl, bc
    0000070E EB               [ 4] 1466 	ex	de, hl
    0000070F 21r00r00         [10] 1467 	ld	hl, #_SwSprite
    00000712 19               [11] 1468 	add	hl, de
    00000713 EB               [ 4] 1469 	ex	de, hl
    00000714 21 0C 00         [10] 1470 	ld	hl, #0x000c
    00000717 19               [11] 1471 	add	hl, de
    00000718 DD 7E F7         [19] 1472 	ld	a, -9 (ix)
    0000071B 77               [ 7] 1473 	ld	(hl), a
                                   1474 ;E:\Dropbox\FAUSTO\SVILUPPI\MSX\CODE\C\MSXgl\projects\soccerlgMSX2/soccerlg_s11_b3.c:141: SwSprite[thrower].ty = thrower_y;
    0000071C 21 0D 00         [10] 1475 	ld	hl, #0x000d
    0000071F 19               [11] 1476 	add	hl, de
    00000720 DD 7E F4         [19] 1477 	ld	a, -12 (ix)
    00000723 77               [ 7] 1478 	ld	(hl), a
    00000724 23               [ 6] 1479 	inc	hl
    00000725 DD 7E F5         [19] 1480 	ld	a, -11 (ix)
    00000728 77               [ 7] 1481 	ld	(hl), a
                                   1482 ;E:\Dropbox\FAUSTO\SVILUPPI\MSX\CODE\C\MSXgl\projects\soccerlgMSX2/soccerlg_s11_b3.c:144: SwSprite[rec1].tx = RestartSideX + dir_x * 50; SwSprite[rec1].ty = RestartSideY - 48;
    00000729 DD 4E F0         [19] 1483 	ld	c, -16 (ix)
    0000072C 06 00            [ 7] 1484 	ld	b, #0x00
    0000072E 69               [ 4] 1485 	ld	l, c
    0000072F 60               [ 4] 1486 	ld	h, b
    00000730 29               [11] 1487 	add	hl, hl
    00000731 29               [11] 1488 	add	hl, hl
    00000732 09               [11] 1489 	add	hl, bc
    00000733 29               [11] 1490 	add	hl, hl
    00000734 09               [11] 1491 	add	hl, bc
    00000735 29               [11] 1492 	add	hl, hl
    00000736 09               [11] 1493 	add	hl, bc
    00000737 EB               [ 4] 1494 	ex	de, hl
    00000738 21r00r00         [10] 1495 	ld	hl, #_SwSprite
    0000073B 19               [11] 1496 	add	hl, de
    0000073C 4D               [ 4] 1497 	ld	c, l
    0000073D 44               [ 4] 1498 	ld	b, h
    0000073E 21 0C 00         [10] 1499 	ld	hl, #0x000c
    00000741 09               [11] 1500 	add	hl, bc
    00000742 EB               [ 4] 1501 	ex	de, hl
    00000743 D5               [11] 1502 	push	de
    00000744 DD 6E F6         [19] 1503 	ld	l, -10 (ix)
                                   1504 ;	spillPairReg hl
                                   1505 ;	spillPairReg hl
    00000747 5D               [ 4] 1506 	ld	e, l
    00000748 29               [11] 1507 	add	hl, hl
    00000749 19               [11] 1508 	add	hl, de
    0000074A 29               [11] 1509 	add	hl, hl
    0000074B 29               [11] 1510 	add	hl, hl
    0000074C 29               [11] 1511 	add	hl, hl
    0000074D 19               [11] 1512 	add	hl, de
    0000074E 29               [11] 1513 	add	hl, hl
    0000074F D1               [10] 1514 	pop	de
    00000750 3Ar00r00         [13] 1515 	ld	a, (_RestartSideX+0)
    00000753 85               [ 4] 1516 	add	a, l
    00000754 12               [ 7] 1517 	ld	(de), a
    00000755 21 0D 00         [10] 1518 	ld	hl, #0x000d
    00000758 09               [11] 1519 	add	hl, bc
    00000759 ED 4Br00r00      [20] 1520 	ld	bc, (_RestartSideY)
    0000075D 79               [ 4] 1521 	ld	a, c
    0000075E C6 D0            [ 7] 1522 	add	a, #0xd0
    00000760 4F               [ 4] 1523 	ld	c, a
    00000761 78               [ 4] 1524 	ld	a, b
    00000762 CE FF            [ 7] 1525 	adc	a, #0xff
    00000764 47               [ 4] 1526 	ld	b, a
    00000765 71               [ 7] 1527 	ld	(hl), c
    00000766 23               [ 6] 1528 	inc	hl
    00000767 70               [ 7] 1529 	ld	(hl), b
                                   1530 ;E:\Dropbox\FAUSTO\SVILUPPI\MSX\CODE\C\MSXgl\projects\soccerlgMSX2/soccerlg_s11_b3.c:145: SwSprite[rec2].tx = RestartSideX + dir_x * 70; SwSprite[rec2].ty = RestartSideY + 32;
    00000768 DD 4E F1         [19] 1531 	ld	c, -15 (ix)
    0000076B 06 00            [ 7] 1532 	ld	b, #0x00
    0000076D 69               [ 4] 1533 	ld	l, c
    0000076E 60               [ 4] 1534 	ld	h, b
    0000076F 29               [11] 1535 	add	hl, hl
    00000770 29               [11] 1536 	add	hl, hl
    00000771 09               [11] 1537 	add	hl, bc
    00000772 29               [11] 1538 	add	hl, hl
    00000773 09               [11] 1539 	add	hl, bc
    00000774 29               [11] 1540 	add	hl, hl
    00000775 09               [11] 1541 	add	hl, bc
    00000776 EB               [ 4] 1542 	ex	de, hl
    00000777 21r00r00         [10] 1543 	ld	hl, #_SwSprite
    0000077A 19               [11] 1544 	add	hl, de
    0000077B 4D               [ 4] 1545 	ld	c, l
    0000077C 44               [ 4] 1546 	ld	b, h
    0000077D 21 0C 00         [10] 1547 	ld	hl, #0x000c
    00000780 09               [11] 1548 	add	hl, bc
    00000781 EB               [ 4] 1549 	ex	de, hl
    00000782 D5               [11] 1550 	push	de
    00000783 DD 6E F6         [19] 1551 	ld	l, -10 (ix)
                                   1552 ;	spillPairReg hl
                                   1553 ;	spillPairReg hl
    00000786 5D               [ 4] 1554 	ld	e, l
    00000787 29               [11] 1555 	add	hl, hl
    00000788 29               [11] 1556 	add	hl, hl
    00000789 29               [11] 1557 	add	hl, hl
    0000078A 29               [11] 1558 	add	hl, hl
    0000078B 19               [11] 1559 	add	hl, de
    0000078C 29               [11] 1560 	add	hl, hl
    0000078D 19               [11] 1561 	add	hl, de
    0000078E 29               [11] 1562 	add	hl, hl
    0000078F D1               [10] 1563 	pop	de
    00000790 3Ar00r00         [13] 1564 	ld	a, (_RestartSideX+0)
    00000793 85               [ 4] 1565 	add	a, l
    00000794 12               [ 7] 1566 	ld	(de), a
    00000795 21 0D 00         [10] 1567 	ld	hl, #0x000d
    00000798 09               [11] 1568 	add	hl, bc
    00000799 ED 4Br00r00      [20] 1569 	ld	bc, (_RestartSideY)
    0000079D 79               [ 4] 1570 	ld	a, c
    0000079E C6 20            [ 7] 1571 	add	a, #0x20
    000007A0 4F               [ 4] 1572 	ld	c, a
    000007A1 30 01            [12] 1573 	jr	NC, 00561$
    000007A3 04               [ 4] 1574 	inc	b
    000007A4                       1575 00561$:
    000007A4 71               [ 7] 1576 	ld	(hl), c
    000007A5 23               [ 6] 1577 	inc	hl
    000007A6 70               [ 7] 1578 	ld	(hl), b
                                   1579 ;E:\Dropbox\FAUSTO\SVILUPPI\MSX\CODE\C\MSXgl\projects\soccerlgMSX2/soccerlg_s11_b3.c:146: SwSprite[def1].tx = RestartSideX + dir_x * 40; SwSprite[def1].ty = RestartSideY - 24;
    000007A7 DD 4E F2         [19] 1580 	ld	c, -14 (ix)
    000007AA 06 00            [ 7] 1581 	ld	b, #0x00
    000007AC 69               [ 4] 1582 	ld	l, c
    000007AD 60               [ 4] 1583 	ld	h, b
    000007AE 29               [11] 1584 	add	hl, hl
    000007AF 29               [11] 1585 	add	hl, hl
    000007B0 09               [11] 1586 	add	hl, bc
    000007B1 29               [11] 1587 	add	hl, hl
    000007B2 09               [11] 1588 	add	hl, bc
    000007B3 29               [11] 1589 	add	hl, hl
    000007B4 09               [11] 1590 	add	hl, bc
    000007B5 EB               [ 4] 1591 	ex	de, hl
    000007B6 21r00r00         [10] 1592 	ld	hl, #_SwSprite
    000007B9 19               [11] 1593 	add	hl, de
    000007BA 4D               [ 4] 1594 	ld	c, l
    000007BB 44               [ 4] 1595 	ld	b, h
    000007BC 21 0C 00         [10] 1596 	ld	hl, #0x000c
    000007BF 09               [11] 1597 	add	hl, bc
    000007C0 EB               [ 4] 1598 	ex	de, hl
    000007C1 D5               [11] 1599 	push	de
    000007C2 DD 6E F6         [19] 1600 	ld	l, -10 (ix)
                                   1601 ;	spillPairReg hl
                                   1602 ;	spillPairReg hl
    000007C5 5D               [ 4] 1603 	ld	e, l
    000007C6 29               [11] 1604 	add	hl, hl
    000007C7 29               [11] 1605 	add	hl, hl
    000007C8 19               [11] 1606 	add	hl, de
    000007C9 29               [11] 1607 	add	hl, hl
    000007CA 29               [11] 1608 	add	hl, hl
    000007CB 29               [11] 1609 	add	hl, hl
    000007CC D1               [10] 1610 	pop	de
    000007CD 3Ar00r00         [13] 1611 	ld	a, (_RestartSideX+0)
    000007D0 85               [ 4] 1612 	add	a, l
    000007D1 12               [ 7] 1613 	ld	(de), a
    000007D2 21 0D 00         [10] 1614 	ld	hl, #0x000d
    000007D5 09               [11] 1615 	add	hl, bc
    000007D6 ED 4Br00r00      [20] 1616 	ld	bc, (_RestartSideY)
    000007DA 79               [ 4] 1617 	ld	a, c
    000007DB C6 E8            [ 7] 1618 	add	a, #0xe8
    000007DD 4F               [ 4] 1619 	ld	c, a
    000007DE 78               [ 4] 1620 	ld	a, b
    000007DF CE FF            [ 7] 1621 	adc	a, #0xff
    000007E1 47               [ 4] 1622 	ld	b, a
    000007E2 71               [ 7] 1623 	ld	(hl), c
    000007E3 23               [ 6] 1624 	inc	hl
    000007E4 70               [ 7] 1625 	ld	(hl), b
                                   1626 ;E:\Dropbox\FAUSTO\SVILUPPI\MSX\CODE\C\MSXgl\projects\soccerlgMSX2/soccerlg_s11_b3.c:147: SwSprite[def2].tx = RestartSideX + dir_x * 60; SwSprite[def2].ty = RestartSideY + 48;
    000007E5 DD 4E F3         [19] 1627 	ld	c, -13 (ix)
    000007E8 06 00            [ 7] 1628 	ld	b, #0x00
    000007EA 69               [ 4] 1629 	ld	l, c
    000007EB 60               [ 4] 1630 	ld	h, b
    000007EC 29               [11] 1631 	add	hl, hl
    000007ED 29               [11] 1632 	add	hl, hl
    000007EE 09               [11] 1633 	add	hl, bc
    000007EF 29               [11] 1634 	add	hl, hl
    000007F0 09               [11] 1635 	add	hl, bc
    000007F1 29               [11] 1636 	add	hl, hl
    000007F2 09               [11] 1637 	add	hl, bc
    000007F3 EB               [ 4] 1638 	ex	de, hl
    000007F4 21r00r00         [10] 1639 	ld	hl, #_SwSprite
    000007F7 19               [11] 1640 	add	hl, de
    000007F8 4D               [ 4] 1641 	ld	c, l
    000007F9 44               [ 4] 1642 	ld	b, h
    000007FA 21 0C 00         [10] 1643 	ld	hl, #0x000c
    000007FD 09               [11] 1644 	add	hl, bc
    000007FE EB               [ 4] 1645 	ex	de, hl
    000007FF D5               [11] 1646 	push	de
    00000800 DD 6E F6         [19] 1647 	ld	l, -10 (ix)
                                   1648 ;	spillPairReg hl
                                   1649 ;	spillPairReg hl
    00000803 5D               [ 4] 1650 	ld	e, l
    00000804 29               [11] 1651 	add	hl, hl
    00000805 19               [11] 1652 	add	hl, de
    00000806 29               [11] 1653 	add	hl, hl
    00000807 19               [11] 1654 	add	hl, de
    00000808 29               [11] 1655 	add	hl, hl
    00000809 19               [11] 1656 	add	hl, de
    0000080A 29               [11] 1657 	add	hl, hl
    0000080B 29               [11] 1658 	add	hl, hl
    0000080C D1               [10] 1659 	pop	de
    0000080D 3Ar00r00         [13] 1660 	ld	a, (_RestartSideX+0)
    00000810 85               [ 4] 1661 	add	a, l
    00000811 12               [ 7] 1662 	ld	(de), a
    00000812 21 0D 00         [10] 1663 	ld	hl, #0x000d
    00000815 09               [11] 1664 	add	hl, bc
    00000816 ED 4Br00r00      [20] 1665 	ld	bc, (_RestartSideY)
    0000081A 79               [ 4] 1666 	ld	a, c
    0000081B C6 30            [ 7] 1667 	add	a, #0x30
    0000081D 4F               [ 4] 1668 	ld	c, a
    0000081E 30 01            [12] 1669 	jr	NC, 00562$
    00000820 04               [ 4] 1670 	inc	b
    00000821                       1671 00562$:
    00000821 71               [ 7] 1672 	ld	(hl), c
    00000822 23               [ 6] 1673 	inc	hl
    00000823 70               [ 7] 1674 	ld	(hl), b
                                   1675 ;E:\Dropbox\FAUSTO\SVILUPPI\MSX\CODE\C\MSXgl\projects\soccerlgMSX2/soccerlg_s11_b3.c:149: u8 players_to_check[4] = {rec1, rec2, def1, def2};
    00000824 DD 7E F0         [19] 1676 	ld	a, -16 (ix)
    00000827 DD 77 EB         [19] 1677 	ld	-21 (ix), a
    0000082A DD 7E F1         [19] 1678 	ld	a, -15 (ix)
    0000082D DD 77 EC         [19] 1679 	ld	-20 (ix), a
    00000830 DD 7E F2         [19] 1680 	ld	a, -14 (ix)
    00000833 DD 77 ED         [19] 1681 	ld	-19 (ix), a
    00000836 DD 7E F3         [19] 1682 	ld	a, -13 (ix)
    00000839 DD 77 EE         [19] 1683 	ld	-18 (ix), a
                                   1684 ;E:\Dropbox\FAUSTO\SVILUPPI\MSX\CODE\C\MSXgl\projects\soccerlgMSX2/soccerlg_s11_b3.c:150: for(u8 p=0; p<4; p++) {
    0000083C DD 36 FF 00      [19] 1685 	ld	-1 (ix), #0x00
    00000840                       1686 00179$:
    00000840 DD 7E FF         [19] 1687 	ld	a, -1 (ix)
    00000843 D6 04            [ 7] 1688 	sub	a, #0x04
    00000845 30 74            [12] 1689 	jr	NC, 00181$
                                   1690 ;E:\Dropbox\FAUSTO\SVILUPPI\MSX\CODE\C\MSXgl\projects\soccerlgMSX2/soccerlg_s11_b3.c:151: u8 idx = players_to_check[p];
    00000847 DD 5E FF         [19] 1691 	ld	e, -1 (ix)
    0000084A 16 00            [ 7] 1692 	ld	d, #0x00
    0000084C 21 00 00         [10] 1693 	ld	hl, #0
    0000084F 39               [11] 1694 	add	hl, sp
    00000850 19               [11] 1695 	add	hl, de
    00000851 4E               [ 7] 1696 	ld	c, (hl)
                                   1697 ;E:\Dropbox\FAUSTO\SVILUPPI\MSX\CODE\C\MSXgl\projects\soccerlgMSX2/soccerlg_s11_b3.c:152: if (SwSprite[idx].tx < 16) SwSprite[idx].tx = 16;
    00000852 06 00            [ 7] 1698 	ld	b, #0x00
    00000854 69               [ 4] 1699 	ld	l, c
    00000855 60               [ 4] 1700 	ld	h, b
    00000856 29               [11] 1701 	add	hl, hl
    00000857 29               [11] 1702 	add	hl, hl
    00000858 09               [11] 1703 	add	hl, bc
    00000859 29               [11] 1704 	add	hl, hl
    0000085A 09               [11] 1705 	add	hl, bc
    0000085B 29               [11] 1706 	add	hl, hl
    0000085C 09               [11] 1707 	add	hl, bc
    0000085D EB               [ 4] 1708 	ex	de, hl
    0000085E 21r00r00         [10] 1709 	ld	hl, #_SwSprite
    00000861 19               [11] 1710 	add	hl, de
    00000862 EB               [ 4] 1711 	ex	de, hl
    00000863 21 0C 00         [10] 1712 	ld	hl, #0x000c
    00000866 19               [11] 1713 	add	hl, de
    00000867 DD 75 FD         [19] 1714 	ld	-3 (ix), l
    0000086A DD 74 FE         [19] 1715 	ld	-2 (ix), h
    0000086D 7E               [ 7] 1716 	ld	a, (hl)
    0000086E D6 10            [ 7] 1717 	sub	a, #0x10
    00000870 30 08            [12] 1718 	jr	NC, 00160$
    00000872 DD 6E FD         [19] 1719 	ld	l, -3 (ix)
    00000875 DD 66 FE         [19] 1720 	ld	h, -2 (ix)
    00000878 36 10            [10] 1721 	ld	(hl), #0x10
    0000087A                       1722 00160$:
                                   1723 ;E:\Dropbox\FAUSTO\SVILUPPI\MSX\CODE\C\MSXgl\projects\soccerlgMSX2/soccerlg_s11_b3.c:153: if (SwSprite[idx].tx > 240) SwSprite[idx].tx = 240;
    0000087A DD 6E FD         [19] 1724 	ld	l, -3 (ix)
    0000087D DD 66 FE         [19] 1725 	ld	h, -2 (ix)
    00000880 4E               [ 7] 1726 	ld	c, (hl)
    00000881 3E F0            [ 7] 1727 	ld	a, #0xf0
    00000883 91               [ 4] 1728 	sub	a, c
    00000884 30 08            [12] 1729 	jr	NC, 00162$
    00000886 DD 6E FD         [19] 1730 	ld	l, -3 (ix)
    00000889 DD 66 FE         [19] 1731 	ld	h, -2 (ix)
    0000088C 36 F0            [10] 1732 	ld	(hl), #0xf0
    0000088E                       1733 00162$:
                                   1734 ;E:\Dropbox\FAUSTO\SVILUPPI\MSX\CODE\C\MSXgl\projects\soccerlgMSX2/soccerlg_s11_b3.c:154: if (SwSprite[idx].ty < 24) SwSprite[idx].ty = 24;
    0000088E 21 0D 00         [10] 1735 	ld	hl, #0x000d
    00000891 19               [11] 1736 	add	hl, de
    00000892 4E               [ 7] 1737 	ld	c, (hl)
    00000893 23               [ 6] 1738 	inc	hl
    00000894 46               [ 7] 1739 	ld	b, (hl)
    00000895 2B               [ 6] 1740 	dec	hl
    00000896 79               [ 4] 1741 	ld	a, c
    00000897 D6 18            [ 7] 1742 	sub	a, #0x18
    00000899 78               [ 4] 1743 	ld	a, b
    0000089A DE 00            [ 7] 1744 	sbc	a, #0x00
    0000089C 30 06            [12] 1745 	jr	NC, 00164$
    0000089E 36 18            [10] 1746 	ld	(hl), #0x18
    000008A0 23               [ 6] 1747 	inc	hl
    000008A1 36 00            [10] 1748 	ld	(hl), #0x00
    000008A3 2B               [ 6] 1749 	dec	hl
    000008A4                       1750 00164$:
                                   1751 ;E:\Dropbox\FAUSTO\SVILUPPI\MSX\CODE\C\MSXgl\projects\soccerlgMSX2/soccerlg_s11_b3.c:155: if (SwSprite[idx].ty > 488) SwSprite[idx].ty = 488;
    000008A4 4E               [ 7] 1752 	ld	c, (hl)
    000008A5 23               [ 6] 1753 	inc	hl
    000008A6 46               [ 7] 1754 	ld	b, (hl)
    000008A7 2B               [ 6] 1755 	dec	hl
    000008A8 3E E8            [ 7] 1756 	ld	a, #0xe8
    000008AA B9               [ 4] 1757 	cp	a, c
    000008AB 3E 01            [ 7] 1758 	ld	a, #0x01
    000008AD 98               [ 4] 1759 	sbc	a, b
    000008AE 30 05            [12] 1760 	jr	NC, 00180$
    000008B0 36 E8            [10] 1761 	ld	(hl), #0xe8
    000008B2 23               [ 6] 1762 	inc	hl
    000008B3 36 01            [10] 1763 	ld	(hl), #0x01
    000008B5                       1764 00180$:
                                   1765 ;E:\Dropbox\FAUSTO\SVILUPPI\MSX\CODE\C\MSXgl\projects\soccerlgMSX2/soccerlg_s11_b3.c:150: for(u8 p=0; p<4; p++) {
    000008B5 DD 34 FF         [23] 1766 	inc	-1 (ix)
    000008B8 C3r40r08         [10] 1767 	jp	00179$
    000008BB                       1768 00181$:
                                   1769 ;E:\Dropbox\FAUSTO\SVILUPPI\MSX\CODE\C\MSXgl\projects\soccerlgMSX2/soccerlg_s11_b3.c:157: }
    000008BB DD F9            [10] 1770 	ld	sp, ix
    000008BD DD E1            [14] 1771 	pop	ix
    000008BF C9               [10] 1772 	ret
                                   1773 ;E:\Dropbox\FAUSTO\SVILUPPI\MSX\CODE\C\MSXgl\projects\soccerlgMSX2/soccerlg_s11_b3.c:159: void AssignGoalKickTargets() {
                                   1774 ;	---------------------------------
                                   1775 ; Function AssignGoalKickTargets
                                   1776 ; ---------------------------------
    000008C0                       1777 _AssignGoalKickTargets::
    000008C0 DD E5            [15] 1778 	push	ix
    000008C2 DD 21 00 00      [14] 1779 	ld	ix,#0
    000008C6 DD 39            [15] 1780 	add	ix,sp
    000008C8 21 F2 FF         [10] 1781 	ld	hl, #-14
    000008CB 39               [11] 1782 	add	hl, sp
    000008CC F9               [ 6] 1783 	ld	sp, hl
                                   1784 ;E:\Dropbox\FAUSTO\SVILUPPI\MSX\CODE\C\MSXgl\projects\soccerlgMSX2/soccerlg_s11_b3.c:160: u8 team_to_kick = (RestartSideY < 256) ? TEAM_1 : TEAM_2;
    000008CD 2Ar00r00         [16] 1785 	ld	hl, (_RestartSideY)
    000008D0 7C               [ 4] 1786 	ld	a, h
    000008D1 D6 01            [ 7] 1787 	sub	a, #0x01
    000008D3 30 06            [12] 1788 	jr	NC, 00160$
    000008D5 01 00 00         [10] 1789 	ld	bc, #0x0000
    000008D8 C3rDEr08         [10] 1790 	jp	00161$
    000008DB                       1791 00160$:
    000008DB 01 01 00         [10] 1792 	ld	bc, #0x0001
    000008DE                       1793 00161$:
                                   1794 ;E:\Dropbox\FAUSTO\SVILUPPI\MSX\CODE\C\MSXgl\projects\soccerlgMSX2/soccerlg_s11_b3.c:161: u8 gk = (team_to_kick == TEAM_1) ? 0 : 7;
    000008DE DD 71 F4         [19] 1795 	ld	-12 (ix), c
    000008E1 79               [ 4] 1796 	ld	a, c
    000008E2 B7               [ 4] 1797 	or	a, a
    000008E3 20 06            [12] 1798 	jr	NZ, 00162$
    000008E5 01 00 00         [10] 1799 	ld	bc, #0x0000
    000008E8 C3rEEr08         [10] 1800 	jp	00163$
    000008EB                       1801 00162$:
    000008EB 01 07 00         [10] 1802 	ld	bc, #0x0007
    000008EE                       1803 00163$:
    000008EE DD 71 F8         [19] 1804 	ld	-8 (ix), c
                                   1805 ;E:\Dropbox\FAUSTO\SVILUPPI\MSX\CODE\C\MSXgl\projects\soccerlgMSX2/soccerlg_s11_b3.c:162: i8 dir_y = (team_to_kick == TEAM_1) ? 1 : -1;
    000008F1 DD 7E F4         [19] 1806 	ld	a, -12 (ix)
    000008F4 B7               [ 4] 1807 	or	a, a
    000008F5 20 06            [12] 1808 	jr	NZ, 00164$
    000008F7 01 01 00         [10] 1809 	ld	bc, #0x0001
    000008FA C3r00r09         [10] 1810 	jp	00165$
    000008FD                       1811 00164$:
    000008FD 01 FF FF         [10] 1812 	ld	bc, #0xffff
    00000900                       1813 00165$:
    00000900 DD 71 F9         [19] 1814 	ld	-7 (ix), c
                                   1815 ;E:\Dropbox\FAUSTO\SVILUPPI\MSX\CODE\C\MSXgl\projects\soccerlgMSX2/soccerlg_s11_b3.c:164: u16 kick_y = (team_to_kick == TEAM_1) ? 48 : 464;
    00000903 DD 7E F4         [19] 1816 	ld	a, -12 (ix)
    00000906 B7               [ 4] 1817 	or	a, a
    00000907 20 06            [12] 1818 	jr	NZ, 00166$
    00000909 01 30 00         [10] 1819 	ld	bc, #0x0030
    0000090C C3r12r09         [10] 1820 	jp	00167$
    0000090F                       1821 00166$:
    0000090F 01 D0 01         [10] 1822 	ld	bc, #0x01d0
    00000912                       1823 00167$:
    00000912 DD 71 FA         [19] 1824 	ld	-6 (ix), c
    00000915 DD 70 FB         [19] 1825 	ld	-5 (ix), b
                                   1826 ;E:\Dropbox\FAUSTO\SVILUPPI\MSX\CODE\C\MSXgl\projects\soccerlgMSX2/soccerlg_s11_b3.c:165: u16 gk_start_x = (RestartSideX < 128) ? 75 : 181; // Partenza del portiere
    00000918 3Ar00r00         [13] 1827 	ld	a, (_RestartSideX+0)
    0000091B D6 80            [ 7] 1828 	sub	a, #0x80
    0000091D 3E 00            [ 7] 1829 	ld	a, #0x00
    0000091F 17               [ 4] 1830 	rla
    00000920 B7               [ 4] 1831 	or	a, a
    00000921 28 06            [12] 1832 	jr	Z, 00168$
    00000923 11 4B 00         [10] 1833 	ld	de, #0x004b
    00000926 C3r2Cr09         [10] 1834 	jp	00169$
    00000929                       1835 00168$:
    00000929 11 B5 00         [10] 1836 	ld	de, #0x00b5
    0000092C                       1837 00169$:
    0000092C DD 73 FC         [19] 1838 	ld	-4 (ix), e
    0000092F DD 72 FD         [19] 1839 	ld	-3 (ix), d
                                   1840 ;E:\Dropbox\FAUSTO\SVILUPPI\MSX\CODE\C\MSXgl\projects\soccerlgMSX2/soccerlg_s11_b3.c:166: u16 ball_x = (RestartSideX < 128) ? 95 : 161; // Palla spostata di 20 pixel verso lo specchio della porta
    00000932 B7               [ 4] 1841 	or	a, a
    00000933 28 06            [12] 1842 	jr	Z, 00170$
    00000935 11 5F 00         [10] 1843 	ld	de, #0x005f
    00000938 C3r3Er09         [10] 1844 	jp	00171$
    0000093B                       1845 00170$:
    0000093B 11 A1 00         [10] 1846 	ld	de, #0x00a1
    0000093E                       1847 00171$:
                                   1848 ;E:\Dropbox\FAUSTO\SVILUPPI\MSX\CODE\C\MSXgl\projects\soccerlgMSX2/soccerlg_s11_b3.c:168: if (RestartType == RESTART_GKSAVE) {
    0000093E 3Ar00r00         [13] 1849 	ld	a, (_RestartType+0)
    00000941 D6 04            [ 7] 1850 	sub	a, #0x04
    00000943 20 15            [12] 1851 	jr	NZ, 00102$
                                   1852 ;E:\Dropbox\FAUSTO\SVILUPPI\MSX\CODE\C\MSXgl\projects\soccerlgMSX2/soccerlg_s11_b3.c:169: gk_start_x = RestartSideX;
    00000945 3Ar00r00         [13] 1853 	ld	a, (_RestartSideX+0)
    00000948 16 00            [ 7] 1854 	ld	d, #0x00
    0000094A DD 77 FC         [19] 1855 	ld	-4 (ix), a
    0000094D DD 72 FD         [19] 1856 	ld	-3 (ix), d
                                   1857 ;E:\Dropbox\FAUSTO\SVILUPPI\MSX\CODE\C\MSXgl\projects\soccerlgMSX2/soccerlg_s11_b3.c:170: kick_y = RestartSideY;
    00000950 2Ar00r00         [16] 1858 	ld	hl, (_RestartSideY)
    00000953 DD 75 FA         [19] 1859 	ld	-6 (ix), l
    00000956 DD 74 FB         [19] 1860 	ld	-5 (ix), h
                                   1861 ;E:\Dropbox\FAUSTO\SVILUPPI\MSX\CODE\C\MSXgl\projects\soccerlgMSX2/soccerlg_s11_b3.c:171: ball_x = RestartSideX;
    00000959 5F               [ 4] 1862 	ld	e, a
    0000095A                       1863 00102$:
                                   1864 ;E:\Dropbox\FAUSTO\SVILUPPI\MSX\CODE\C\MSXgl\projects\soccerlgMSX2/soccerlg_s11_b3.c:174: SwSprite[14].lx = ball_x;
    0000095A 21r42r01         [10] 1865 	ld	hl, #_SwSprite + 322
    0000095D 73               [ 7] 1866 	ld	(hl), e
                                   1867 ;E:\Dropbox\FAUSTO\SVILUPPI\MSX\CODE\C\MSXgl\projects\soccerlgMSX2/soccerlg_s11_b3.c:175: SwSprite[14].ly = kick_y;
    0000095E 11r46r01         [10] 1868 	ld	de, #_SwSprite + 326
    00000961 6B               [ 4] 1869 	ld	l, e
    00000962 62               [ 4] 1870 	ld	h, d
    00000963 DD 7E FA         [19] 1871 	ld	a, -6 (ix)
    00000966 77               [ 7] 1872 	ld	(hl), a
    00000967 23               [ 6] 1873 	inc	hl
    00000968 DD 7E FB         [19] 1874 	ld	a, -5 (ix)
    0000096B 77               [ 7] 1875 	ld	(hl), a
                                   1876 ;E:\Dropbox\FAUSTO\SVILUPPI\MSX\CODE\C\MSXgl\projects\soccerlgMSX2/soccerlg_s11_b3.c:179: SwSprite[14].frame = SPR_BALL_SIZE_1; // Dimensione 1 per proporzione realistica
                                   1877 ;E:\Dropbox\FAUSTO\SVILUPPI\MSX\CODE\C\MSXgl\projects\soccerlgMSX2/soccerlg_s11_b3.c:180: SwSprite[gk].frame = (team_to_kick == TEAM_1) ? SPR_GK_PLAYER_SOUTH_WITH_BALL : SPR_GK_PLAYER_NORTH_WITH_BALL;
    0000096C DD 4E F8         [19] 1878 	ld	c, -8 (ix)
    0000096F 06 00            [ 7] 1879 	ld	b, #0x00
    00000971 69               [ 4] 1880 	ld	l, c
    00000972 60               [ 4] 1881 	ld	h, b
    00000973 29               [11] 1882 	add	hl, hl
    00000974 29               [11] 1883 	add	hl, hl
    00000975 09               [11] 1884 	add	hl, bc
    00000976 29               [11] 1885 	add	hl, hl
    00000977 09               [11] 1886 	add	hl, bc
    00000978 29               [11] 1887 	add	hl, hl
    00000979 09               [11] 1888 	add	hl, bc
    0000097A 01r00r00         [10] 1889 	ld	bc,#_SwSprite
    0000097D 09               [11] 1890 	add	hl,bc
    0000097E 4D               [ 4] 1891 	ld	c, l
    0000097F 44               [ 4] 1892 	ld	b, h
                                   1893 ;E:\Dropbox\FAUSTO\SVILUPPI\MSX\CODE\C\MSXgl\projects\soccerlgMSX2/soccerlg_s11_b3.c:177: if (RestartType == RESTART_GKSAVE) {
    00000980 3Ar00r00         [13] 1894 	ld	a, (_RestartType+0)
    00000983 D6 04            [ 7] 1895 	sub	a, #0x04
    00000985 20 4B            [12] 1896 	jr	NZ, 00104$
                                   1897 ;E:\Dropbox\FAUSTO\SVILUPPI\MSX\CODE\C\MSXgl\projects\soccerlgMSX2/soccerlg_s11_b3.c:178: SwSprite[14].ly = RestartSideY + (dir_y * 4); // Palla visibile in mano
    00000987 DD 7E F9         [19] 1898 	ld	a, -7 (ix)
    0000098A 6F               [ 4] 1899 	ld	l, a
                                   1900 ;	spillPairReg hl
                                   1901 ;	spillPairReg hl
    0000098B 07               [ 4] 1902 	rlca
    0000098C 9F               [ 4] 1903 	sbc	a, a
    0000098D 67               [ 4] 1904 	ld	h, a
    0000098E 29               [11] 1905 	add	hl, hl
    0000098F 29               [11] 1906 	add	hl, hl
    00000990 FD 2Ar00r00      [20] 1907 	ld	iy, (_RestartSideY)
    00000994 FD E5            [15] 1908 	push	iy
    00000996 DD 7E F0         [19] 1909 	ld	a, -16 (ix)
    00000999 FD E1            [14] 1910 	pop	iy
    0000099B 85               [ 4] 1911 	add	a, l
    0000099C 6F               [ 4] 1912 	ld	l, a
                                   1913 ;	spillPairReg hl
                                   1914 ;	spillPairReg hl
    0000099D FD E5            [15] 1915 	push	iy
    0000099F DD 7E F1         [19] 1916 	ld	a, -15 (ix)
    000009A2 FD E1            [14] 1917 	pop	iy
    000009A4 8C               [ 4] 1918 	adc	a, h
    000009A5 DD 75 FE         [19] 1919 	ld	-2 (ix), l
    000009A8 DD 77 FF         [19] 1920 	ld	-1 (ix), a
    000009AB DD 7E FE         [19] 1921 	ld	a, -2 (ix)
    000009AE 12               [ 7] 1922 	ld	(de), a
    000009AF 13               [ 6] 1923 	inc	de
    000009B0 DD 7E FF         [19] 1924 	ld	a, -1 (ix)
    000009B3 12               [ 7] 1925 	ld	(de), a
                                   1926 ;E:\Dropbox\FAUSTO\SVILUPPI\MSX\CODE\C\MSXgl\projects\soccerlgMSX2/soccerlg_s11_b3.c:179: SwSprite[14].frame = SPR_BALL_SIZE_1; // Dimensione 1 per proporzione realistica
    000009B4 21 60 00         [10] 1927 	ld	hl, #0x0060
    000009B7 22r51r01         [16] 1928 	ld	((_SwSprite + 337)), hl
                                   1929 ;E:\Dropbox\FAUSTO\SVILUPPI\MSX\CODE\C\MSXgl\projects\soccerlgMSX2/soccerlg_s11_b3.c:180: SwSprite[gk].frame = (team_to_kick == TEAM_1) ? SPR_GK_PLAYER_SOUTH_WITH_BALL : SPR_GK_PLAYER_NORTH_WITH_BALL;
    000009BA 2E 0F            [ 7] 1930 	ld	l, #0x0f
    000009BC 09               [11] 1931 	add	hl, bc
    000009BD DD 7E F4         [19] 1932 	ld	a, -12 (ix)
    000009C0 B7               [ 4] 1933 	or	a, a
    000009C1 20 06            [12] 1934 	jr	NZ, 00172$
    000009C3 11 F0 00         [10] 1935 	ld	de, #0x00f0
    000009C6 C3rCCr09         [10] 1936 	jp	00173$
    000009C9                       1937 00172$:
    000009C9 11 F1 00         [10] 1938 	ld	de, #0x00f1
    000009CC                       1939 00173$:
    000009CC 73               [ 7] 1940 	ld	(hl), e
    000009CD 23               [ 6] 1941 	inc	hl
    000009CE 72               [ 7] 1942 	ld	(hl), d
    000009CF C3rD8r09         [10] 1943 	jp	00105$
    000009D2                       1944 00104$:
                                   1945 ;E:\Dropbox\FAUSTO\SVILUPPI\MSX\CODE\C\MSXgl\projects\soccerlgMSX2/soccerlg_s11_b3.c:182: SwSprite[14].frame = SPR_BALL_SIZE_1; 
    000009D2 21 60 00         [10] 1946 	ld	hl, #0x0060
    000009D5 22r51r01         [16] 1947 	ld	((_SwSprite + 337)), hl
    000009D8                       1948 00105$:
                                   1949 ;E:\Dropbox\FAUSTO\SVILUPPI\MSX\CODE\C\MSXgl\projects\soccerlgMSX2/soccerlg_s11_b3.c:184: SwSprite[14].dx = SwSprite[14].dy = SwSprite[14].anim = SwSprite[14].count = 0;
    000009D8 21 00 00         [10] 1950 	ld	hl, #0x0000
    000009DB 22r57r01         [16] 1951 	ld	((_SwSprite + 343)), hl
    000009DE 22r55r01         [16] 1952 	ld	((_SwSprite + 341)), hl
    000009E1 21r54r01         [10] 1953 	ld	hl, #(_SwSprite + 340)
    000009E4 36 00            [10] 1954 	ld	(hl), #0x00
    000009E6 21r53r01         [10] 1955 	ld	hl, #(_SwSprite + 339)
    000009E9 36 00            [10] 1956 	ld	(hl), #0x00
                                   1957 ;E:\Dropbox\FAUSTO\SVILUPPI\MSX\CODE\C\MSXgl\projects\soccerlgMSX2/soccerlg_s11_b3.c:187: SwSprite[gk].tx = gk_start_x; 
    000009EB 21 0C 00         [10] 1958 	ld	hl, #0x000c
    000009EE 09               [11] 1959 	add	hl, bc
    000009EF DD 7E FC         [19] 1960 	ld	a, -4 (ix)
    000009F2 77               [ 7] 1961 	ld	(hl), a
                                   1962 ;E:\Dropbox\FAUSTO\SVILUPPI\MSX\CODE\C\MSXgl\projects\soccerlgMSX2/soccerlg_s11_b3.c:188: SwSprite[gk].ty = kick_y - ((RestartType == RESTART_GKSAVE) ? 0 : (dir_y * 20));
    000009F3 21 0D 00         [10] 1963 	ld	hl, #0x000d
    000009F6 09               [11] 1964 	add	hl, bc
    000009F7 4D               [ 4] 1965 	ld	c, l
    000009F8 44               [ 4] 1966 	ld	b, h
    000009F9 3Ar00r00         [13] 1967 	ld	a, (_RestartType+0)
    000009FC D6 04            [ 7] 1968 	sub	a, #0x04
    000009FE 20 06            [12] 1969 	jr	NZ, 00174$
    00000A00 11 00 00         [10] 1970 	ld	de, #0x0000
    00000A03 C3r15r0A         [10] 1971 	jp	00175$
    00000A06                       1972 00174$:
    00000A06 DD 7E F9         [19] 1973 	ld	a, -7 (ix)
    00000A09 5F               [ 4] 1974 	ld	e, a
    00000A0A 07               [ 4] 1975 	rlca
    00000A0B 9F               [ 4] 1976 	sbc	a, a
    00000A0C 57               [ 4] 1977 	ld	d, a
    00000A0D 6B               [ 4] 1978 	ld	l, e
    00000A0E 62               [ 4] 1979 	ld	h, d
    00000A0F 29               [11] 1980 	add	hl, hl
    00000A10 29               [11] 1981 	add	hl, hl
    00000A11 19               [11] 1982 	add	hl, de
    00000A12 29               [11] 1983 	add	hl, hl
    00000A13 29               [11] 1984 	add	hl, hl
    00000A14 EB               [ 4] 1985 	ex	de, hl
    00000A15                       1986 00175$:
    00000A15 DD 6E FA         [19] 1987 	ld	l, -6 (ix)
                                   1988 ;	spillPairReg hl
                                   1989 ;	spillPairReg hl
    00000A18 DD 66 FB         [19] 1990 	ld	h, -5 (ix)
                                   1991 ;	spillPairReg hl
                                   1992 ;	spillPairReg hl
    00000A1B BF               [ 4] 1993 	cp	a, a
    00000A1C ED 52            [15] 1994 	sbc	hl, de
    00000A1E EB               [ 4] 1995 	ex	de, hl
    00000A1F 7B               [ 4] 1996 	ld	a, e
    00000A20 02               [ 7] 1997 	ld	(bc), a
    00000A21 03               [ 6] 1998 	inc	bc
    00000A22 7A               [ 4] 1999 	ld	a, d
    00000A23 02               [ 7] 2000 	ld	(bc), a
                                   2001 ;E:\Dropbox\FAUSTO\SVILUPPI\MSX\CODE\C\MSXgl\projects\soccerlgMSX2/soccerlg_s11_b3.c:190: u8 other_gk = (gk == 0) ? 7 : 0;
    00000A24 DD 7E F8         [19] 2002 	ld	a, -8 (ix)
    00000A27 B7               [ 4] 2003 	or	a, a
    00000A28 20 06            [12] 2004 	jr	NZ, 00176$
    00000A2A 01 07 00         [10] 2005 	ld	bc, #0x0007
    00000A2D C3r33r0A         [10] 2006 	jp	00177$
    00000A30                       2007 00176$:
    00000A30 01 00 00         [10] 2008 	ld	bc, #0x0000
    00000A33                       2009 00177$:
                                   2010 ;E:\Dropbox\FAUSTO\SVILUPPI\MSX\CODE\C\MSXgl\projects\soccerlgMSX2/soccerlg_s11_b3.c:191: SwSprite[other_gk].tx = 128;
    00000A33 06 00            [ 7] 2011 	ld	b, #0x00
    00000A35 69               [ 4] 2012 	ld	l, c
    00000A36 60               [ 4] 2013 	ld	h, b
    00000A37 29               [11] 2014 	add	hl, hl
    00000A38 29               [11] 2015 	add	hl, hl
    00000A39 09               [11] 2016 	add	hl, bc
    00000A3A 29               [11] 2017 	add	hl, hl
    00000A3B 09               [11] 2018 	add	hl, bc
    00000A3C 29               [11] 2019 	add	hl, hl
    00000A3D 09               [11] 2020 	add	hl, bc
    00000A3E EB               [ 4] 2021 	ex	de, hl
    00000A3F 21r00r00         [10] 2022 	ld	hl, #_SwSprite
    00000A42 19               [11] 2023 	add	hl, de
    00000A43 EB               [ 4] 2024 	ex	de, hl
    00000A44 21 0C 00         [10] 2025 	ld	hl, #0x000c
    00000A47 19               [11] 2026 	add	hl, de
    00000A48 36 80            [10] 2027 	ld	(hl), #0x80
                                   2028 ;E:\Dropbox\FAUSTO\SVILUPPI\MSX\CODE\C\MSXgl\projects\soccerlgMSX2/soccerlg_s11_b3.c:192: SwSprite[other_gk].ty = (other_gk == 0) ? 32 : 444;
    00000A4A 21 0D 00         [10] 2029 	ld	hl, #0x000d
    00000A4D 19               [11] 2030 	add	hl, de
    00000A4E 79               [ 4] 2031 	ld	a, c
    00000A4F B7               [ 4] 2032 	or	a, a
    00000A50 20 06            [12] 2033 	jr	NZ, 00178$
    00000A52 11 20 00         [10] 2034 	ld	de, #0x0020
    00000A55 C3r5Br0A         [10] 2035 	jp	00179$
    00000A58                       2036 00178$:
    00000A58 11 BC 01         [10] 2037 	ld	de, #0x01bc
    00000A5B                       2038 00179$:
    00000A5B 73               [ 7] 2039 	ld	(hl), e
    00000A5C 23               [ 6] 2040 	inc	hl
    00000A5D 72               [ 7] 2041 	ld	(hl), d
                                   2042 ;E:\Dropbox\FAUSTO\SVILUPPI\MSX\CODE\C\MSXgl\projects\soccerlgMSX2/soccerlg_s11_b3.c:195: u8 start_t = (team_to_kick == TEAM_1) ? 1 : 8;
    00000A5E DD 7E F4         [19] 2043 	ld	a, -12 (ix)
    00000A61 B7               [ 4] 2044 	or	a, a
    00000A62 20 06            [12] 2045 	jr	NZ, 00180$
    00000A64 01 01 00         [10] 2046 	ld	bc, #0x0001
    00000A67 C3r6Dr0A         [10] 2047 	jp	00181$
    00000A6A                       2048 00180$:
    00000A6A 01 08 00         [10] 2049 	ld	bc, #0x0008
    00000A6D                       2050 00181$:
                                   2051 ;E:\Dropbox\FAUSTO\SVILUPPI\MSX\CODE\C\MSXgl\projects\soccerlgMSX2/soccerlg_s11_b3.c:196: g_throw_rec_1 = start_t + 4; // Attaccante Sx (ruolo 5)
    00000A6D 79               [ 4] 2052 	ld	a, c
    00000A6E C6 04            [ 7] 2053 	add	a, #0x04
    00000A70 32r00r00         [13] 2054 	ld	(_g_throw_rec_1+0), a
                                   2055 ;E:\Dropbox\FAUSTO\SVILUPPI\MSX\CODE\C\MSXgl\projects\soccerlgMSX2/soccerlg_s11_b3.c:197: g_throw_rec_2 = start_t + 5; // Attaccante Dx (ruolo 6)
    00000A73 79               [ 4] 2056 	ld	a, c
    00000A74 C6 05            [ 7] 2057 	add	a, #0x05
    00000A76 32r00r00         [13] 2058 	ld	(_g_throw_rec_2+0), a
                                   2059 ;E:\Dropbox\FAUSTO\SVILUPPI\MSX\CODE\C\MSXgl\projects\soccerlgMSX2/soccerlg_s11_b3.c:198: g_selected_rec = 0;
    00000A79 21r00r00         [10] 2060 	ld	hl, #_g_selected_rec
    00000A7C 36 00            [10] 2061 	ld	(hl), #0x00
                                   2062 ;E:\Dropbox\FAUSTO\SVILUPPI\MSX\CODE\C\MSXgl\projects\soccerlgMSX2/soccerlg_s11_b3.c:201: for(u8 i=1; i<14; i++) {
    00000A7E DD 7E F4         [19] 2063 	ld	a, -12 (ix)
    00000A81 3D               [ 4] 2064 	dec	a
    00000A82 3E 01            [ 7] 2065 	ld	a, #0x01
    00000A84 28 01            [12] 2066 	jr	Z, 00364$
    00000A86 AF               [ 4] 2067 	xor	a, a
    00000A87                       2068 00364$:
    00000A87 DD 77 F5         [19] 2069 	ld	-11 (ix), a
    00000A8A DD 36 FD 01      [19] 2070 	ld	-3 (ix), #0x01
    00000A8E                       2071 00157$:
    00000A8E DD 7E FD         [19] 2072 	ld	a, -3 (ix)
    00000A91 D6 0E            [ 7] 2073 	sub	a, #0x0e
    00000A93 D2r3Fr0D         [10] 2074 	jp	NC, 00158$
                                   2075 ;E:\Dropbox\FAUSTO\SVILUPPI\MSX\CODE\C\MSXgl\projects\soccerlgMSX2/soccerlg_s11_b3.c:202: if (i == 7) continue;
    00000A96 DD 7E FD         [19] 2076 	ld	a, -3 (ix)
    00000A99 D6 07            [ 7] 2077 	sub	a, #0x07
    00000A9B CAr39r0D         [10] 2078 	jp	Z,00154$
                                   2079 ;E:\Dropbox\FAUSTO\SVILUPPI\MSX\CODE\C\MSXgl\projects\soccerlgMSX2/soccerlg_s11_b3.c:204: u8 team = (i < 7) ? TEAM_1 : TEAM_2;
    00000A9E DD 7E FD         [19] 2080 	ld	a, -3 (ix)
    00000AA1 D6 07            [ 7] 2081 	sub	a, #0x07
    00000AA3 30 0A            [12] 2082 	jr	NC, 00182$
    00000AA5 AF               [ 4] 2083 	xor	a, a
    00000AA6 DD 77 FE         [19] 2084 	ld	-2 (ix), a
    00000AA9 DD 77 FF         [19] 2085 	ld	-1 (ix), a
    00000AAC C3rB7r0A         [10] 2086 	jp	00183$
    00000AAF                       2087 00182$:
    00000AAF DD 36 FE 01      [19] 2088 	ld	-2 (ix), #0x01
    00000AB3 DD 36 FF 00      [19] 2089 	ld	-1 (ix), #0
    00000AB7                       2090 00183$:
    00000AB7 DD 7E FE         [19] 2091 	ld	a, -2 (ix)
                                   2092 ;E:\Dropbox\FAUSTO\SVILUPPI\MSX\CODE\C\MSXgl\projects\soccerlgMSX2/soccerlg_s11_b3.c:205: u8 role = (team == TEAM_1) ? i : (i - 7);
    00000ABA DD 77 FC         [19] 2093 	ld	-4 (ix), a
    00000ABD B7               [ 4] 2094 	or	a, a
    00000ABE 20 09            [12] 2095 	jr	NZ, 00184$
    00000AC0 DD 7E FD         [19] 2096 	ld	a, -3 (ix)
    00000AC3 DD 77 FF         [19] 2097 	ld	-1 (ix), a
    00000AC6 C3rD4r0A         [10] 2098 	jp	00185$
    00000AC9                       2099 00184$:
    00000AC9 DD 7E FD         [19] 2100 	ld	a, -3 (ix)
    00000ACC DD 77 FF         [19] 2101 	ld	-1 (ix), a
    00000ACF C6 F9            [ 7] 2102 	add	a, #0xf9
    00000AD1 DD 77 FF         [19] 2103 	ld	-1 (ix), a
    00000AD4                       2104 00185$:
    00000AD4 DD 7E FF         [19] 2105 	ld	a, -1 (ix)
    00000AD7 DD 77 FE         [19] 2106 	ld	-2 (ix), a
                                   2107 ;E:\Dropbox\FAUSTO\SVILUPPI\MSX\CODE\C\MSXgl\projects\soccerlgMSX2/soccerlg_s11_b3.c:206: u16 base_x = 128;
    00000ADA DD 36 F9 80      [19] 2108 	ld	-7 (ix), #0x80
    00000ADE DD 36 FA 00      [19] 2109 	ld	-6 (ix), #0
                                   2110 ;E:\Dropbox\FAUSTO\SVILUPPI\MSX\CODE\C\MSXgl\projects\soccerlgMSX2/soccerlg_s11_b3.c:208: if (role == 1) { base_x = 64; }
    00000AE2 DD 7E FE         [19] 2111 	ld	a, -2 (ix)
    00000AE5 3D               [ 4] 2112 	dec	a
    00000AE6 3E 01            [ 7] 2113 	ld	a, #0x01
    00000AE8 28 01            [12] 2114 	jr	Z, 00367$
    00000AEA AF               [ 4] 2115 	xor	a, a
    00000AEB                       2116 00367$:
    00000AEB DD 77 FF         [19] 2117 	ld	-1 (ix), a
    00000AEE B7               [ 4] 2118 	or	a, a
    00000AEF 28 0B            [12] 2119 	jr	Z, 00123$
    00000AF1 DD 36 F9 40      [19] 2120 	ld	-7 (ix), #0x40
    00000AF5 DD 36 FA 00      [19] 2121 	ld	-6 (ix), #0
    00000AF9 C3r53r0B         [10] 2122 	jp	00124$
    00000AFC                       2123 00123$:
                                   2124 ;E:\Dropbox\FAUSTO\SVILUPPI\MSX\CODE\C\MSXgl\projects\soccerlgMSX2/soccerlg_s11_b3.c:209: else if (role == 2) { base_x = 192; }
    00000AFC DD 7E FE         [19] 2125 	ld	a, -2 (ix)
    00000AFF D6 02            [ 7] 2126 	sub	a, #0x02
    00000B01 20 0B            [12] 2127 	jr	NZ, 00120$
    00000B03 DD 36 F9 C0      [19] 2128 	ld	-7 (ix), #0xc0
    00000B07 DD 36 FA 00      [19] 2129 	ld	-6 (ix), #0
    00000B0B C3r53r0B         [10] 2130 	jp	00124$
    00000B0E                       2131 00120$:
                                   2132 ;E:\Dropbox\FAUSTO\SVILUPPI\MSX\CODE\C\MSXgl\projects\soccerlgMSX2/soccerlg_s11_b3.c:210: else if (role == 3) { base_x = 64; }
    00000B0E DD 7E FE         [19] 2133 	ld	a, -2 (ix)
    00000B11 D6 03            [ 7] 2134 	sub	a, #0x03
    00000B13 20 0B            [12] 2135 	jr	NZ, 00117$
    00000B15 DD 36 F9 40      [19] 2136 	ld	-7 (ix), #0x40
    00000B19 DD 36 FA 00      [19] 2137 	ld	-6 (ix), #0
    00000B1D C3r53r0B         [10] 2138 	jp	00124$
    00000B20                       2139 00117$:
                                   2140 ;E:\Dropbox\FAUSTO\SVILUPPI\MSX\CODE\C\MSXgl\projects\soccerlgMSX2/soccerlg_s11_b3.c:211: else if (role == 4) { base_x = 192; }
    00000B20 DD 7E FE         [19] 2141 	ld	a, -2 (ix)
    00000B23 D6 04            [ 7] 2142 	sub	a, #0x04
    00000B25 20 0B            [12] 2143 	jr	NZ, 00114$
    00000B27 DD 36 F9 C0      [19] 2144 	ld	-7 (ix), #0xc0
    00000B2B DD 36 FA 00      [19] 2145 	ld	-6 (ix), #0
    00000B2F C3r53r0B         [10] 2146 	jp	00124$
    00000B32                       2147 00114$:
                                   2148 ;E:\Dropbox\FAUSTO\SVILUPPI\MSX\CODE\C\MSXgl\projects\soccerlgMSX2/soccerlg_s11_b3.c:212: else if (role == 5) { base_x = 80; }
    00000B32 DD 7E FE         [19] 2149 	ld	a, -2 (ix)
    00000B35 D6 05            [ 7] 2150 	sub	a, #0x05
    00000B37 20 0B            [12] 2151 	jr	NZ, 00111$
    00000B39 DD 36 F9 50      [19] 2152 	ld	-7 (ix), #0x50
    00000B3D DD 36 FA 00      [19] 2153 	ld	-6 (ix), #0
    00000B41 C3r53r0B         [10] 2154 	jp	00124$
    00000B44                       2155 00111$:
                                   2156 ;E:\Dropbox\FAUSTO\SVILUPPI\MSX\CODE\C\MSXgl\projects\soccerlgMSX2/soccerlg_s11_b3.c:213: else if (role == 6) { base_x = 176; }
    00000B44 DD 7E FE         [19] 2157 	ld	a, -2 (ix)
    00000B47 D6 06            [ 7] 2158 	sub	a, #0x06
    00000B49 20 08            [12] 2159 	jr	NZ, 00124$
    00000B4B DD 36 F9 B0      [19] 2160 	ld	-7 (ix), #0xb0
    00000B4F DD 36 FA 00      [19] 2161 	ld	-6 (ix), #0
    00000B53                       2162 00124$:
                                   2163 ;E:\Dropbox\FAUSTO\SVILUPPI\MSX\CODE\C\MSXgl\projects\soccerlgMSX2/soccerlg_s11_b3.c:216: if (team == team_to_kick) {
    00000B53 DD 7E FC         [19] 2164 	ld	a, -4 (ix)
    00000B56 DD 96 F4         [19] 2165 	sub	a, -12 (ix)
    00000B59 20 3C            [12] 2166 	jr	NZ, 00142$
                                   2167 ;E:\Dropbox\FAUSTO\SVILUPPI\MSX\CODE\C\MSXgl\projects\soccerlgMSX2/soccerlg_s11_b3.c:217: if (role == 1 || role == 2) base_y = 60;
    00000B5B DD 7E FF         [19] 2168 	ld	a, -1 (ix)
    00000B5E B7               [ 4] 2169 	or	a, a
    00000B5F 20 07            [12] 2170 	jr	NZ, 00129$
    00000B61 DD 7E FE         [19] 2171 	ld	a, -2 (ix)
    00000B64 D6 02            [ 7] 2172 	sub	a, #0x02
    00000B66 20 0B            [12] 2173 	jr	NZ, 00130$
    00000B68                       2174 00129$:
    00000B68 DD 36 FE 3C      [19] 2175 	ld	-2 (ix), #0x3c
    00000B6C DD 36 FF 00      [19] 2176 	ld	-1 (ix), #0
    00000B70 C3rD0r0B         [10] 2177 	jp	00143$
    00000B73                       2178 00130$:
                                   2179 ;E:\Dropbox\FAUSTO\SVILUPPI\MSX\CODE\C\MSXgl\projects\soccerlgMSX2/soccerlg_s11_b3.c:218: else if (role == 3 || role == 4) base_y = 110;
    00000B73 DD 7E FE         [19] 2180 	ld	a, -2 (ix)
    00000B76 D6 03            [ 7] 2181 	sub	a, #0x03
    00000B78 28 07            [12] 2182 	jr	Z, 00125$
    00000B7A DD 7E FE         [19] 2183 	ld	a, -2 (ix)
    00000B7D D6 04            [ 7] 2184 	sub	a, #0x04
    00000B7F 20 0B            [12] 2185 	jr	NZ, 00126$
    00000B81                       2186 00125$:
    00000B81 DD 36 FE 6E      [19] 2187 	ld	-2 (ix), #0x6e
    00000B85 DD 36 FF 00      [19] 2188 	ld	-1 (ix), #0
    00000B89 C3rD0r0B         [10] 2189 	jp	00143$
    00000B8C                       2190 00126$:
                                   2191 ;E:\Dropbox\FAUSTO\SVILUPPI\MSX\CODE\C\MSXgl\projects\soccerlgMSX2/soccerlg_s11_b3.c:219: else base_y = 160; // Attaccanti visibili nello schermo per la selezione
    00000B8C DD 36 FE A0      [19] 2192 	ld	-2 (ix), #0xa0
    00000B90 DD 36 FF 00      [19] 2193 	ld	-1 (ix), #0
    00000B94 C3rD0r0B         [10] 2194 	jp	00143$
    00000B97                       2195 00142$:
                                   2196 ;E:\Dropbox\FAUSTO\SVILUPPI\MSX\CODE\C\MSXgl\projects\soccerlgMSX2/soccerlg_s11_b3.c:221: if (role == 1 || role == 2) base_y = 240; 
    00000B97 DD 7E FF         [19] 2197 	ld	a, -1 (ix)
    00000B9A B7               [ 4] 2198 	or	a, a
    00000B9B 20 07            [12] 2199 	jr	NZ, 00137$
    00000B9D DD 7E FE         [19] 2200 	ld	a, -2 (ix)
    00000BA0 D6 02            [ 7] 2201 	sub	a, #0x02
    00000BA2 20 0B            [12] 2202 	jr	NZ, 00138$
    00000BA4                       2203 00137$:
    00000BA4 DD 36 FE F0      [19] 2204 	ld	-2 (ix), #0xf0
    00000BA8 DD 36 FF 00      [19] 2205 	ld	-1 (ix), #0
    00000BAC C3rD0r0B         [10] 2206 	jp	00143$
    00000BAF                       2207 00138$:
                                   2208 ;E:\Dropbox\FAUSTO\SVILUPPI\MSX\CODE\C\MSXgl\projects\soccerlgMSX2/soccerlg_s11_b3.c:222: else if (role == 3 || role == 4) base_y = 180; 
    00000BAF DD 7E FE         [19] 2209 	ld	a, -2 (ix)
    00000BB2 D6 03            [ 7] 2210 	sub	a, #0x03
    00000BB4 28 07            [12] 2211 	jr	Z, 00133$
    00000BB6 DD 7E FE         [19] 2212 	ld	a, -2 (ix)
    00000BB9 D6 04            [ 7] 2213 	sub	a, #0x04
    00000BBB 20 0B            [12] 2214 	jr	NZ, 00134$
    00000BBD                       2215 00133$:
    00000BBD DD 36 FE B4      [19] 2216 	ld	-2 (ix), #0xb4
    00000BC1 DD 36 FF 00      [19] 2217 	ld	-1 (ix), #0
    00000BC5 C3rD0r0B         [10] 2218 	jp	00143$
    00000BC8                       2219 00134$:
                                   2220 ;E:\Dropbox\FAUSTO\SVILUPPI\MSX\CODE\C\MSXgl\projects\soccerlgMSX2/soccerlg_s11_b3.c:223: else base_y = 120; 
    00000BC8 DD 36 FE 78      [19] 2221 	ld	-2 (ix), #0x78
    00000BCC DD 36 FF 00      [19] 2222 	ld	-1 (ix), #0
    00000BD0                       2223 00143$:
                                   2224 ;E:\Dropbox\FAUSTO\SVILUPPI\MSX\CODE\C\MSXgl\projects\soccerlgMSX2/soccerlg_s11_b3.c:227: if (team_to_kick == TEAM_2) {
    00000BD0 DD 7E F5         [19] 2225 	ld	a, -11 (ix)
    00000BD3 B7               [ 4] 2226 	or	a, a
    00000BD4 28 0F            [12] 2227 	jr	Z, 00145$
                                   2228 ;E:\Dropbox\FAUSTO\SVILUPPI\MSX\CODE\C\MSXgl\projects\soccerlgMSX2/soccerlg_s11_b3.c:228: base_y = 512 - base_y;
    00000BD6 AF               [ 4] 2229 	xor	a, a
    00000BD7 DD 96 FE         [19] 2230 	sub	a, -2 (ix)
    00000BDA DD 77 FE         [19] 2231 	ld	-2 (ix), a
    00000BDD 3E 02            [ 7] 2232 	ld	a, #0x02
    00000BDF DD 9E FF         [19] 2233 	sbc	a, -1 (ix)
    00000BE2 DD 77 FF         [19] 2234 	ld	-1 (ix), a
    00000BE5                       2235 00145$:
                                   2236 ;E:\Dropbox\FAUSTO\SVILUPPI\MSX\CODE\C\MSXgl\projects\soccerlgMSX2/soccerlg_s11_b3.c:232: i8 rand_x = ((Frms + i * 11) % 40) - 20;
    00000BE5 3Ar00r00         [13] 2237 	ld	a, (_Frms+0)
    00000BE8 DD 77 F2         [19] 2238 	ld	-14 (ix), a
    00000BEB DD 36 F3 00      [19] 2239 	ld	-13 (ix), #0x00
    00000BEF DD 7E FD         [19] 2240 	ld	a, -3 (ix)
    00000BF2 DD 77 F7         [19] 2241 	ld	-9 (ix), a
    00000BF5 DD 36 F8 00      [19] 2242 	ld	-8 (ix), #0x00
    00000BF9 4F               [ 4] 2243 	ld	c, a
    00000BFA 06 00            [ 7] 2244 	ld	b, #0x00
    00000BFC 69               [ 4] 2245 	ld	l, c
    00000BFD 60               [ 4] 2246 	ld	h, b
    00000BFE 29               [11] 2247 	add	hl, hl
    00000BFF 29               [11] 2248 	add	hl, hl
    00000C00 09               [11] 2249 	add	hl, bc
    00000C01 29               [11] 2250 	add	hl, hl
    00000C02 09               [11] 2251 	add	hl, bc
    00000C03 DD 75 FB         [19] 2252 	ld	-5 (ix), l
    00000C06 DD 74 FC         [19] 2253 	ld	-4 (ix), h
    00000C09 DD 7E F2         [19] 2254 	ld	a, -14 (ix)
    00000C0C DD 86 FB         [19] 2255 	add	a, -5 (ix)
    00000C0F 6F               [ 4] 2256 	ld	l, a
                                   2257 ;	spillPairReg hl
                                   2258 ;	spillPairReg hl
    00000C10 DD 7E F3         [19] 2259 	ld	a, -13 (ix)
    00000C13 DD 8E FC         [19] 2260 	adc	a, -4 (ix)
    00000C16 67               [ 4] 2261 	ld	h, a
                                   2262 ;	spillPairReg hl
                                   2263 ;	spillPairReg hl
    00000C17 11 28 00         [10] 2264 	ld	de, #0x0028
    00000C1A CDr00r00         [17] 2265 	call	__modsint
    00000C1D 7B               [ 4] 2266 	ld	a, e
    00000C1E C6 EC            [ 7] 2267 	add	a, #0xec
    00000C20 DD 77 FC         [19] 2268 	ld	-4 (ix), a
                                   2269 ;E:\Dropbox\FAUSTO\SVILUPPI\MSX\CODE\C\MSXgl\projects\soccerlgMSX2/soccerlg_s11_b3.c:233: i8 rand_y = ((Frms + i * 17) % 40) - 20;
    00000C23 DD 4E F7         [19] 2270 	ld	c, -9 (ix)
    00000C26 DD 46 F8         [19] 2271 	ld	b, -8 (ix)
    00000C29 69               [ 4] 2272 	ld	l, c
    00000C2A 60               [ 4] 2273 	ld	h, b
    00000C2B 29               [11] 2274 	add	hl, hl
    00000C2C 29               [11] 2275 	add	hl, hl
    00000C2D 29               [11] 2276 	add	hl, hl
    00000C2E 29               [11] 2277 	add	hl, hl
    00000C2F 09               [11] 2278 	add	hl, bc
    00000C30 D1               [10] 2279 	pop	de
    00000C31 D5               [11] 2280 	push	de
    00000C32 19               [11] 2281 	add	hl, de
    00000C33 11 28 00         [10] 2282 	ld	de, #0x0028
    00000C36 CDr00r00         [17] 2283 	call	__modsint
    00000C39 7B               [ 4] 2284 	ld	a, e
    00000C3A C6 EC            [ 7] 2285 	add	a, #0xec
    00000C3C DD 77 F6         [19] 2286 	ld	-10 (ix), a
                                   2287 ;E:\Dropbox\FAUSTO\SVILUPPI\MSX\CODE\C\MSXgl\projects\soccerlgMSX2/soccerlg_s11_b3.c:235: i16 final_x = base_x + rand_x;
    00000C3F DD 7E FC         [19] 2288 	ld	a, -4 (ix)
    00000C42 DD 77 FB         [19] 2289 	ld	-5 (ix), a
    00000C45 07               [ 4] 2290 	rlca
    00000C46 9F               [ 4] 2291 	sbc	a, a
    00000C47 DD 77 FC         [19] 2292 	ld	-4 (ix), a
    00000C4A DD 7E F9         [19] 2293 	ld	a, -7 (ix)
    00000C4D DD 77 F7         [19] 2294 	ld	-9 (ix), a
    00000C50 DD 7E FA         [19] 2295 	ld	a, -6 (ix)
    00000C53 DD 77 F8         [19] 2296 	ld	-8 (ix), a
    00000C56 DD 7E FB         [19] 2297 	ld	a, -5 (ix)
    00000C59 DD 77 F9         [19] 2298 	ld	-7 (ix), a
    00000C5C DD 7E FC         [19] 2299 	ld	a, -4 (ix)
    00000C5F DD 77 FA         [19] 2300 	ld	-6 (ix), a
    00000C62 DD 7E F9         [19] 2301 	ld	a, -7 (ix)
    00000C65 DD 86 F7         [19] 2302 	add	a, -9 (ix)
    00000C68 DD 77 FB         [19] 2303 	ld	-5 (ix), a
    00000C6B DD 7E FA         [19] 2304 	ld	a, -6 (ix)
    00000C6E DD 8E F8         [19] 2305 	adc	a, -8 (ix)
    00000C71 DD 77 FC         [19] 2306 	ld	-4 (ix), a
                                   2307 ;E:\Dropbox\FAUSTO\SVILUPPI\MSX\CODE\C\MSXgl\projects\soccerlgMSX2/soccerlg_s11_b3.c:236: i16 final_y = base_y + rand_y;
    00000C74 DD 7E F6         [19] 2308 	ld	a, -10 (ix)
    00000C77 DD 77 F9         [19] 2309 	ld	-7 (ix), a
    00000C7A 07               [ 4] 2310 	rlca
    00000C7B 9F               [ 4] 2311 	sbc	a, a
    00000C7C DD 77 FA         [19] 2312 	ld	-6 (ix), a
    00000C7F DD 7E FE         [19] 2313 	ld	a, -2 (ix)
    00000C82 DD 86 F9         [19] 2314 	add	a, -7 (ix)
    00000C85 DD 77 F7         [19] 2315 	ld	-9 (ix), a
    00000C88 DD 7E FF         [19] 2316 	ld	a, -1 (ix)
    00000C8B DD 8E FA         [19] 2317 	adc	a, -6 (ix)
    00000C8E DD 77 F8         [19] 2318 	ld	-8 (ix), a
    00000C91 DD 7E F7         [19] 2319 	ld	a, -9 (ix)
    00000C94 DD 77 FE         [19] 2320 	ld	-2 (ix), a
    00000C97 DD 7E F8         [19] 2321 	ld	a, -8 (ix)
    00000C9A DD 77 FF         [19] 2322 	ld	-1 (ix), a
                                   2323 ;E:\Dropbox\FAUSTO\SVILUPPI\MSX\CODE\C\MSXgl\projects\soccerlgMSX2/soccerlg_s11_b3.c:238: if (final_x < 16) final_x = 16;
    00000C9D DD 7E FB         [19] 2324 	ld	a, -5 (ix)
    00000CA0 DD 77 F9         [19] 2325 	ld	-7 (ix), a
    00000CA3 DD 7E FC         [19] 2326 	ld	a, -4 (ix)
    00000CA6 DD 77 FA         [19] 2327 	ld	-6 (ix), a
    00000CA9 DD 7E F9         [19] 2328 	ld	a, -7 (ix)
    00000CAC D6 10            [ 7] 2329 	sub	a, #0x10
    00000CAE DD 7E FA         [19] 2330 	ld	a, -6 (ix)
    00000CB1 17               [ 4] 2331 	rla
    00000CB2 3F               [ 4] 2332 	ccf
    00000CB3 1F               [ 4] 2333 	rra
    00000CB4 DE 80            [ 7] 2334 	sbc	a, #0x80
    00000CB6 30 08            [12] 2335 	jr	NC, 00147$
    00000CB8 DD 36 FB 10      [19] 2336 	ld	-5 (ix), #0x10
    00000CBC DD 36 FC 00      [19] 2337 	ld	-4 (ix), #0
    00000CC0                       2338 00147$:
                                   2339 ;E:\Dropbox\FAUSTO\SVILUPPI\MSX\CODE\C\MSXgl\projects\soccerlgMSX2/soccerlg_s11_b3.c:239: if (final_x > 240) final_x = 240;
    00000CC0 DD 4E FB         [19] 2340 	ld	c, -5 (ix)
    00000CC3 DD 46 FC         [19] 2341 	ld	b, -4 (ix)
    00000CC6 3E F0            [ 7] 2342 	ld	a, #0xf0
    00000CC8 B9               [ 4] 2343 	cp	a, c
    00000CC9 3E 00            [ 7] 2344 	ld	a, #0x00
    00000CCB 98               [ 4] 2345 	sbc	a, b
    00000CCC E2rD1r0C         [10] 2346 	jp	PO, 00390$
    00000CCF EE 80            [ 7] 2347 	xor	a, #0x80
    00000CD1                       2348 00390$:
    00000CD1 F2rDCr0C         [10] 2349 	jp	P, 00149$
    00000CD4 DD 36 FB F0      [19] 2350 	ld	-5 (ix), #0xf0
    00000CD8 DD 36 FC 00      [19] 2351 	ld	-4 (ix), #0
    00000CDC                       2352 00149$:
                                   2353 ;E:\Dropbox\FAUSTO\SVILUPPI\MSX\CODE\C\MSXgl\projects\soccerlgMSX2/soccerlg_s11_b3.c:240: if (final_y < 24) final_y = 24;
    00000CDC DD 7E FE         [19] 2354 	ld	a, -2 (ix)
    00000CDF DD 46 FF         [19] 2355 	ld	b, -1 (ix)
    00000CE2 D6 18            [ 7] 2356 	sub	a, #0x18
    00000CE4 78               [ 4] 2357 	ld	a, b
    00000CE5 17               [ 4] 2358 	rla
    00000CE6 3F               [ 4] 2359 	ccf
    00000CE7 1F               [ 4] 2360 	rra
    00000CE8 DE 80            [ 7] 2361 	sbc	a, #0x80
    00000CEA 30 08            [12] 2362 	jr	NC, 00151$
    00000CEC DD 36 FE 18      [19] 2363 	ld	-2 (ix), #0x18
    00000CF0 DD 36 FF 00      [19] 2364 	ld	-1 (ix), #0
    00000CF4                       2365 00151$:
                                   2366 ;E:\Dropbox\FAUSTO\SVILUPPI\MSX\CODE\C\MSXgl\projects\soccerlgMSX2/soccerlg_s11_b3.c:241: if (final_y > 488) final_y = 488;
    00000CF4 DD 4E FE         [19] 2367 	ld	c, -2 (ix)
    00000CF7 DD 46 FF         [19] 2368 	ld	b, -1 (ix)
    00000CFA 3E E8            [ 7] 2369 	ld	a, #0xe8
    00000CFC B9               [ 4] 2370 	cp	a, c
    00000CFD 3E 01            [ 7] 2371 	ld	a, #0x01
    00000CFF 98               [ 4] 2372 	sbc	a, b
    00000D00 E2r05r0D         [10] 2373 	jp	PO, 00391$
    00000D03 EE 80            [ 7] 2374 	xor	a, #0x80
    00000D05                       2375 00391$:
    00000D05 F2r10r0D         [10] 2376 	jp	P, 00153$
    00000D08 DD 36 FE E8      [19] 2377 	ld	-2 (ix), #0xe8
    00000D0C DD 36 FF 01      [19] 2378 	ld	-1 (ix), #0x01
    00000D10                       2379 00153$:
                                   2380 ;E:\Dropbox\FAUSTO\SVILUPPI\MSX\CODE\C\MSXgl\projects\soccerlgMSX2/soccerlg_s11_b3.c:243: SwSprite[i].tx = (u8)final_x;
    00000D10 DD 4E FD         [19] 2381 	ld	c, -3 (ix)
    00000D13 06 00            [ 7] 2382 	ld	b, #0x00
    00000D15 69               [ 4] 2383 	ld	l, c
    00000D16 60               [ 4] 2384 	ld	h, b
    00000D17 29               [11] 2385 	add	hl, hl
    00000D18 29               [11] 2386 	add	hl, hl
    00000D19 09               [11] 2387 	add	hl, bc
    00000D1A 29               [11] 2388 	add	hl, hl
    00000D1B 09               [11] 2389 	add	hl, bc
    00000D1C 29               [11] 2390 	add	hl, hl
    00000D1D 09               [11] 2391 	add	hl, bc
    00000D1E EB               [ 4] 2392 	ex	de, hl
    00000D1F 21r00r00         [10] 2393 	ld	hl, #_SwSprite
    00000D22 19               [11] 2394 	add	hl, de
    00000D23 EB               [ 4] 2395 	ex	de, hl
    00000D24 21 0C 00         [10] 2396 	ld	hl, #0x000c
    00000D27 19               [11] 2397 	add	hl, de
    00000D28 DD 7E FB         [19] 2398 	ld	a, -5 (ix)
    00000D2B 77               [ 7] 2399 	ld	(hl), a
                                   2400 ;E:\Dropbox\FAUSTO\SVILUPPI\MSX\CODE\C\MSXgl\projects\soccerlgMSX2/soccerlg_s11_b3.c:244: SwSprite[i].ty = (u16)final_y;
    00000D2C 21 0D 00         [10] 2401 	ld	hl, #0x000d
    00000D2F 19               [11] 2402 	add	hl, de
    00000D30 DD 7E FE         [19] 2403 	ld	a, -2 (ix)
    00000D33 DD 4E FF         [19] 2404 	ld	c, -1 (ix)
    00000D36 77               [ 7] 2405 	ld	(hl), a
    00000D37 23               [ 6] 2406 	inc	hl
    00000D38 71               [ 7] 2407 	ld	(hl), c
    00000D39                       2408 00154$:
                                   2409 ;E:\Dropbox\FAUSTO\SVILUPPI\MSX\CODE\C\MSXgl\projects\soccerlgMSX2/soccerlg_s11_b3.c:201: for(u8 i=1; i<14; i++) {
    00000D39 DD 34 FD         [23] 2410 	inc	-3 (ix)
    00000D3C C3r8Er0A         [10] 2411 	jp	00157$
    00000D3F                       2412 00158$:
                                   2413 ;E:\Dropbox\FAUSTO\SVILUPPI\MSX\CODE\C\MSXgl\projects\soccerlgMSX2/soccerlg_s11_b3.c:246: }
    00000D3F DD F9            [10] 2414 	ld	sp, ix
    00000D41 DD E1            [14] 2415 	pop	ix
    00000D43 C9               [10] 2416 	ret
                                   2417 ;E:\Dropbox\FAUSTO\SVILUPPI\MSX\CODE\C\MSXgl\projects\soccerlgMSX2/soccerlg_s11_b3.c:248: void AssignCornerKickTargets() {
                                   2418 ;	---------------------------------
                                   2419 ; Function AssignCornerKickTargets
                                   2420 ; ---------------------------------
    00000D44                       2421 _AssignCornerKickTargets::
    00000D44 DD E5            [15] 2422 	push	ix
    00000D46 DD 21 00 00      [14] 2423 	ld	ix,#0
    00000D4A DD 39            [15] 2424 	add	ix,sp
    00000D4C 21 F0 FF         [10] 2425 	ld	hl, #-16
    00000D4F 39               [11] 2426 	add	hl, sp
    00000D50 F9               [ 6] 2427 	ld	sp, hl
                                   2428 ;E:\Dropbox\FAUSTO\SVILUPPI\MSX\CODE\C\MSXgl\projects\soccerlgMSX2/soccerlg_s11_b3.c:249: u8 team_to_kick = (LastTouchTeam == TEAM_1) ? TEAM_2 : TEAM_1;
    00000D51 3Ar00r00         [13] 2429 	ld	a, (_LastTouchTeam+0)
    00000D54 B7               [ 4] 2430 	or	a, a
    00000D55 20 06            [12] 2431 	jr	NZ, 00129$
    00000D57 01 01 00         [10] 2432 	ld	bc, #0x0001
    00000D5A C3r60r0D         [10] 2433 	jp	00130$
    00000D5D                       2434 00129$:
    00000D5D 01 00 00         [10] 2435 	ld	bc, #0x0000
    00000D60                       2436 00130$:
                                   2437 ;E:\Dropbox\FAUSTO\SVILUPPI\MSX\CODE\C\MSXgl\projects\soccerlgMSX2/soccerlg_s11_b3.c:250: if (LastTouchTeam == 0xFF) team_to_kick = TEAM_1;
    00000D60 3Ar00r00         [13] 2438 	ld	a, (_LastTouchTeam+0)
    00000D63 3C               [ 4] 2439 	inc	a
    00000D64 20 01            [12] 2440 	jr	NZ, 00102$
    00000D66 4F               [ 4] 2441 	ld	c,a
    00000D67                       2442 00102$:
                                   2443 ;E:\Dropbox\FAUSTO\SVILUPPI\MSX\CODE\C\MSXgl\projects\soccerlgMSX2/soccerlg_s11_b3.c:252: u8 thrower = (team_to_kick == TEAM_1) ? 5 : 12; // Attaccante sx/dx
    00000D67 79               [ 4] 2444 	ld	a, c
    00000D68 B7               [ 4] 2445 	or	a, a
    00000D69 20 06            [12] 2446 	jr	NZ, 00131$
    00000D6B 11 05 00         [10] 2447 	ld	de, #0x0005
    00000D6E C3r74r0D         [10] 2448 	jp	00132$
    00000D71                       2449 00131$:
    00000D71 11 0C 00         [10] 2450 	ld	de, #0x000c
    00000D74                       2451 00132$:
    00000D74 DD 73 F0         [19] 2452 	ld	-16 (ix), e
                                   2453 ;E:\Dropbox\FAUSTO\SVILUPPI\MSX\CODE\C\MSXgl\projects\soccerlgMSX2/soccerlg_s11_b3.c:254: u16 corner_x = (RestartSideX < 128) ? 20 : 216; // Allontanato dal bordo laterale
    00000D77 3Ar00r00         [13] 2454 	ld	a, (_RestartSideX+0)
    00000D7A D6 80            [ 7] 2455 	sub	a, #0x80
    00000D7C 30 06            [12] 2456 	jr	NC, 00133$
    00000D7E 11 14 00         [10] 2457 	ld	de, #0x0014
    00000D81 C3r87r0D         [10] 2458 	jp	00134$
    00000D84                       2459 00133$:
    00000D84 11 D8 00         [10] 2460 	ld	de, #0x00d8
    00000D87                       2461 00134$:
                                   2462 ;E:\Dropbox\FAUSTO\SVILUPPI\MSX\CODE\C\MSXgl\projects\soccerlgMSX2/soccerlg_s11_b3.c:255: u16 corner_y = (RestartSideY < 256) ? 40 : 472; // Più all'interno del campo di 4px
    00000D87 2Ar00r00         [16] 2463 	ld	hl, (_RestartSideY)
    00000D8A 7C               [ 4] 2464 	ld	a, h
    00000D8B D6 01            [ 7] 2465 	sub	a, #0x01
    00000D8D 30 06            [12] 2466 	jr	NC, 00135$
    00000D8F 21 28 00         [10] 2467 	ld	hl, #0x0028
    00000D92 C3r98r0D         [10] 2468 	jp	00136$
    00000D95                       2469 00135$:
    00000D95 21 D8 01         [10] 2470 	ld	hl, #0x01d8
    00000D98                       2471 00136$:
    00000D98 DD 75 FA         [19] 2472 	ld	-6 (ix), l
    00000D9B DD 74 FB         [19] 2473 	ld	-5 (ix), h
                                   2474 ;E:\Dropbox\FAUSTO\SVILUPPI\MSX\CODE\C\MSXgl\projects\soccerlgMSX2/soccerlg_s11_b3.c:257: SwSprite[14].lx = corner_x;
    00000D9E DD 73 FC         [19] 2475 	ld	-4 (ix), e
    00000DA1 21r42r01         [10] 2476 	ld	hl, #(_SwSprite + 322)
    00000DA4 DD 7E FC         [19] 2477 	ld	a, -4 (ix)
    00000DA7 77               [ 7] 2478 	ld	(hl), a
                                   2479 ;E:\Dropbox\FAUSTO\SVILUPPI\MSX\CODE\C\MSXgl\projects\soccerlgMSX2/soccerlg_s11_b3.c:258: SwSprite[14].ly = corner_y;
    00000DA8 21r46r01         [10] 2480 	ld	hl, #(_SwSprite + 326)
    00000DAB DD 7E FA         [19] 2481 	ld	a, -6 (ix)
    00000DAE 77               [ 7] 2482 	ld	(hl), a
    00000DAF 23               [ 6] 2483 	inc	hl
    00000DB0 DD 7E FB         [19] 2484 	ld	a, -5 (ix)
    00000DB3 77               [ 7] 2485 	ld	(hl), a
                                   2486 ;E:\Dropbox\FAUSTO\SVILUPPI\MSX\CODE\C\MSXgl\projects\soccerlgMSX2/soccerlg_s11_b3.c:259: SwSprite[14].frame = SPR_BALL_SIZE_1;
    00000DB4 21 60 00         [10] 2487 	ld	hl, #0x0060
    00000DB7 22r51r01         [16] 2488 	ld	((_SwSprite + 337)), hl
                                   2489 ;E:\Dropbox\FAUSTO\SVILUPPI\MSX\CODE\C\MSXgl\projects\soccerlgMSX2/soccerlg_s11_b3.c:260: SwSprite[14].dx = SwSprite[14].dy = SwSprite[14].anim = SwSprite[14].count = 0;
    00000DBA 6C               [ 4] 2490 	ld	l, h
    00000DBB 22r57r01         [16] 2491 	ld	((_SwSprite + 343)), hl
    00000DBE 22r55r01         [16] 2492 	ld	((_SwSprite + 341)), hl
    00000DC1 21r54r01         [10] 2493 	ld	hl, #(_SwSprite + 340)
    00000DC4 36 00            [10] 2494 	ld	(hl), #0x00
    00000DC6 21r53r01         [10] 2495 	ld	hl, #(_SwSprite + 339)
    00000DC9 36 00            [10] 2496 	ld	(hl), #0x00
                                   2497 ;E:\Dropbox\FAUSTO\SVILUPPI\MSX\CODE\C\MSXgl\projects\soccerlgMSX2/soccerlg_s11_b3.c:261: g_thrower_id = thrower;
    00000DCB DD 7E F0         [19] 2498 	ld	a, -16 (ix)
    00000DCE 32r00r00         [13] 2499 	ld	(_g_thrower_id+0), a
                                   2500 ;E:\Dropbox\FAUSTO\SVILUPPI\MSX\CODE\C\MSXgl\projects\soccerlgMSX2/soccerlg_s11_b3.c:263: i8 dir_x = (corner_x < 128) ? 1 : -1;
    00000DD1 7B               [ 4] 2501 	ld	a, e
    00000DD2 D6 80            [ 7] 2502 	sub	a, #0x80
    00000DD4 7A               [ 4] 2503 	ld	a, d
    00000DD5 DE 00            [ 7] 2504 	sbc	a, #0x00
    00000DD7 30 06            [12] 2505 	jr	NC, 00137$
    00000DD9 11 01 00         [10] 2506 	ld	de, #0x0001
    00000DDC C3rE2r0D         [10] 2507 	jp	00138$
    00000DDF                       2508 00137$:
    00000DDF 11 FF FF         [10] 2509 	ld	de, #0xffff
    00000DE2                       2510 00138$:
    00000DE2 43               [ 4] 2511 	ld	b, e
                                   2512 ;E:\Dropbox\FAUSTO\SVILUPPI\MSX\CODE\C\MSXgl\projects\soccerlgMSX2/soccerlg_s11_b3.c:264: i8 dir_y = (corner_y < 256) ? 1 : -1;
    00000DE3 DD 7E FA         [19] 2513 	ld	a, -6 (ix)
    00000DE6 DD 77 FD         [19] 2514 	ld	-3 (ix), a
    00000DE9 DD 7E FB         [19] 2515 	ld	a, -5 (ix)
    00000DEC DD 77 FE         [19] 2516 	ld	-2 (ix), a
    00000DEF D6 01            [ 7] 2517 	sub	a, #0x01
    00000DF1 3E 00            [ 7] 2518 	ld	a, #0x00
    00000DF3 17               [ 4] 2519 	rla
    00000DF4 DD 77 F1         [19] 2520 	ld	-15 (ix), a
    00000DF7 B7               [ 4] 2521 	or	a, a
    00000DF8 28 06            [12] 2522 	jr	Z, 00139$
    00000DFA 11 01 00         [10] 2523 	ld	de, #0x0001
    00000DFD C3r03r0E         [10] 2524 	jp	00140$
    00000E00                       2525 00139$:
    00000E00 11 FF FF         [10] 2526 	ld	de, #0xffff
    00000E03                       2527 00140$:
    00000E03 DD 73 FF         [19] 2528 	ld	-1 (ix), e
                                   2529 ;E:\Dropbox\FAUSTO\SVILUPPI\MSX\CODE\C\MSXgl\projects\soccerlgMSX2/soccerlg_s11_b3.c:265: SwSprite[thrower].tx = corner_x - (dir_x * 8);
    00000E06 DD 5E F0         [19] 2530 	ld	e, -16 (ix)
    00000E09 16 00            [ 7] 2531 	ld	d, #0x00
    00000E0B 6B               [ 4] 2532 	ld	l, e
    00000E0C 62               [ 4] 2533 	ld	h, d
    00000E0D 29               [11] 2534 	add	hl, hl
    00000E0E 29               [11] 2535 	add	hl, hl
    00000E0F 19               [11] 2536 	add	hl, de
    00000E10 29               [11] 2537 	add	hl, hl
    00000E11 19               [11] 2538 	add	hl, de
    00000E12 29               [11] 2539 	add	hl, hl
    00000E13 19               [11] 2540 	add	hl, de
    00000E14 EB               [ 4] 2541 	ex	de, hl
    00000E15 21r00r00         [10] 2542 	ld	hl, #_SwSprite
    00000E18 19               [11] 2543 	add	hl, de
    00000E19 EB               [ 4] 2544 	ex	de, hl
    00000E1A 21 0C 00         [10] 2545 	ld	hl, #0x000c
    00000E1D 19               [11] 2546 	add	hl, de
    00000E1E 78               [ 4] 2547 	ld	a, b
    00000E1F 87               [ 4] 2548 	add	a, a
    00000E20 87               [ 4] 2549 	add	a, a
    00000E21 87               [ 4] 2550 	add	a, a
    00000E22 47               [ 4] 2551 	ld	b, a
    00000E23 DD 7E FC         [19] 2552 	ld	a, -4 (ix)
    00000E26 90               [ 4] 2553 	sub	a, b
    00000E27 77               [ 7] 2554 	ld	(hl), a
                                   2555 ;E:\Dropbox\FAUSTO\SVILUPPI\MSX\CODE\C\MSXgl\projects\soccerlgMSX2/soccerlg_s11_b3.c:266: SwSprite[thrower].ty = corner_y - (dir_y * 8);
    00000E28 21 0D 00         [10] 2556 	ld	hl, #0x000d
    00000E2B 19               [11] 2557 	add	hl, de
    00000E2C DD 7E FF         [19] 2558 	ld	a, -1 (ix)
    00000E2F DD 77 F2         [19] 2559 	ld	-14 (ix), a
    00000E32 07               [ 4] 2560 	rlca
    00000E33 9F               [ 4] 2561 	sbc	a, a
    00000E34 DD 77 F3         [19] 2562 	ld	-13 (ix), a
    00000E37 DD 5E F2         [19] 2563 	ld	e, -14 (ix)
    00000E3A DD 56 F3         [19] 2564 	ld	d, -13 (ix)
    00000E3D EB               [ 4] 2565 	ex	de, hl
    00000E3E 29               [11] 2566 	add	hl, hl
    00000E3F 29               [11] 2567 	add	hl, hl
    00000E40 29               [11] 2568 	add	hl, hl
    00000E41 EB               [ 4] 2569 	ex	de, hl
    00000E42 DD 7E FD         [19] 2570 	ld	a, -3 (ix)
    00000E45 93               [ 4] 2571 	sub	a, e
    00000E46 5F               [ 4] 2572 	ld	e, a
    00000E47 DD 7E FE         [19] 2573 	ld	a, -2 (ix)
    00000E4A 9A               [ 4] 2574 	sbc	a, d
    00000E4B 73               [ 7] 2575 	ld	(hl), e
    00000E4C 23               [ 6] 2576 	inc	hl
    00000E4D 77               [ 7] 2577 	ld	(hl), a
                                   2578 ;E:\Dropbox\FAUSTO\SVILUPPI\MSX\CODE\C\MSXgl\projects\soccerlgMSX2/soccerlg_s11_b3.c:268: u8 start_t = (team_to_kick == TEAM_1) ? 1 : 8;
    00000E4E 79               [ 4] 2579 	ld	a, c
    00000E4F B7               [ 4] 2580 	or	a, a
    00000E50 20 06            [12] 2581 	jr	NZ, 00141$
    00000E52 01 01 00         [10] 2582 	ld	bc, #0x0001
    00000E55 C3r5Br0E         [10] 2583 	jp	00142$
    00000E58                       2584 00141$:
    00000E58 01 08 00         [10] 2585 	ld	bc, #0x0008
    00000E5B                       2586 00142$:
                                   2587 ;E:\Dropbox\FAUSTO\SVILUPPI\MSX\CODE\C\MSXgl\projects\soccerlgMSX2/soccerlg_s11_b3.c:269: g_throw_rec_1 = start_t + 2; // Centro sx/dx
    00000E5B 79               [ 4] 2588 	ld	a, c
    00000E5C C6 02            [ 7] 2589 	add	a, #0x02
    00000E5E 32r00r00         [13] 2590 	ld	(_g_throw_rec_1+0), a
                                   2591 ;E:\Dropbox\FAUSTO\SVILUPPI\MSX\CODE\C\MSXgl\projects\soccerlgMSX2/soccerlg_s11_b3.c:270: g_throw_rec_2 = start_t + 3; // Centro dx/sx
    00000E61 79               [ 4] 2592 	ld	a, c
    00000E62 C6 03            [ 7] 2593 	add	a, #0x03
    00000E64 32r00r00         [13] 2594 	ld	(_g_throw_rec_2+0), a
                                   2595 ;E:\Dropbox\FAUSTO\SVILUPPI\MSX\CODE\C\MSXgl\projects\soccerlgMSX2/soccerlg_s11_b3.c:271: g_selected_rec = 0;
    00000E67 21r00r00         [10] 2596 	ld	hl, #_g_selected_rec
    00000E6A 36 00            [10] 2597 	ld	(hl), #0x00
                                   2598 ;E:\Dropbox\FAUSTO\SVILUPPI\MSX\CODE\C\MSXgl\projects\soccerlgMSX2/soccerlg_s11_b3.c:273: u16 area_y = (corner_y < 256) ? 96 : 416; // Piazzi i ricevitori al limite dell'area
    00000E6C DD 7E F1         [19] 2599 	ld	a, -15 (ix)
    00000E6F B7               [ 4] 2600 	or	a, a
    00000E70 28 06            [12] 2601 	jr	Z, 00143$
    00000E72 01 60 00         [10] 2602 	ld	bc, #0x0060
    00000E75 C3r7Br0E         [10] 2603 	jp	00144$
    00000E78                       2604 00143$:
    00000E78 01 A0 01         [10] 2605 	ld	bc, #0x01a0
    00000E7B                       2606 00144$:
                                   2607 ;E:\Dropbox\FAUSTO\SVILUPPI\MSX\CODE\C\MSXgl\projects\soccerlgMSX2/soccerlg_s11_b3.c:274: SwSprite[g_throw_rec_1].tx = 108; SwSprite[g_throw_rec_1].ty = area_y;
    00000E7B ED 5Br00r00      [20] 2608 	ld	de, (_g_throw_rec_1)
    00000E7F 16 00            [ 7] 2609 	ld	d, #0x00
    00000E81 6B               [ 4] 2610 	ld	l, e
    00000E82 62               [ 4] 2611 	ld	h, d
    00000E83 29               [11] 2612 	add	hl, hl
    00000E84 29               [11] 2613 	add	hl, hl
    00000E85 19               [11] 2614 	add	hl, de
    00000E86 29               [11] 2615 	add	hl, hl
    00000E87 19               [11] 2616 	add	hl, de
    00000E88 29               [11] 2617 	add	hl, hl
    00000E89 19               [11] 2618 	add	hl, de
    00000E8A 11r00r00         [10] 2619 	ld	de, #_SwSprite
    00000E8D 19               [11] 2620 	add	hl, de
    00000E8E 11 0C 00         [10] 2621 	ld	de, #0x000c
    00000E91 19               [11] 2622 	add	hl, de
    00000E92 36 6C            [10] 2623 	ld	(hl), #0x6c
    00000E94 ED 5Br00r00      [20] 2624 	ld	de, (_g_throw_rec_1)
    00000E98 16 00            [ 7] 2625 	ld	d, #0x00
    00000E9A 6B               [ 4] 2626 	ld	l, e
    00000E9B 62               [ 4] 2627 	ld	h, d
    00000E9C 29               [11] 2628 	add	hl, hl
    00000E9D 29               [11] 2629 	add	hl, hl
    00000E9E 19               [11] 2630 	add	hl, de
    00000E9F 29               [11] 2631 	add	hl, hl
    00000EA0 19               [11] 2632 	add	hl, de
    00000EA1 29               [11] 2633 	add	hl, hl
    00000EA2 19               [11] 2634 	add	hl, de
    00000EA3 11r00r00         [10] 2635 	ld	de, #_SwSprite
    00000EA6 19               [11] 2636 	add	hl, de
    00000EA7 11 0D 00         [10] 2637 	ld	de, #0x000d
    00000EAA 19               [11] 2638 	add	hl, de
    00000EAB 71               [ 7] 2639 	ld	(hl), c
    00000EAC 23               [ 6] 2640 	inc	hl
    00000EAD 70               [ 7] 2641 	ld	(hl), b
                                   2642 ;E:\Dropbox\FAUSTO\SVILUPPI\MSX\CODE\C\MSXgl\projects\soccerlgMSX2/soccerlg_s11_b3.c:275: SwSprite[g_throw_rec_2].tx = 148; SwSprite[g_throw_rec_2].ty = area_y + (dir_y * 16);
    00000EAE ED 5Br00r00      [20] 2643 	ld	de, (_g_throw_rec_2)
    00000EB2 16 00            [ 7] 2644 	ld	d, #0x00
    00000EB4 6B               [ 4] 2645 	ld	l, e
    00000EB5 62               [ 4] 2646 	ld	h, d
    00000EB6 29               [11] 2647 	add	hl, hl
    00000EB7 29               [11] 2648 	add	hl, hl
    00000EB8 19               [11] 2649 	add	hl, de
    00000EB9 29               [11] 2650 	add	hl, hl
    00000EBA 19               [11] 2651 	add	hl, de
    00000EBB 29               [11] 2652 	add	hl, hl
    00000EBC 19               [11] 2653 	add	hl, de
    00000EBD 11r00r00         [10] 2654 	ld	de, #_SwSprite
    00000EC0 19               [11] 2655 	add	hl, de
    00000EC1 11 0C 00         [10] 2656 	ld	de, #0x000c
    00000EC4 19               [11] 2657 	add	hl, de
    00000EC5 36 94            [10] 2658 	ld	(hl), #0x94
    00000EC7 ED 5Br00r00      [20] 2659 	ld	de, (_g_throw_rec_2)
    00000ECB 16 00            [ 7] 2660 	ld	d, #0x00
    00000ECD 6B               [ 4] 2661 	ld	l, e
    00000ECE 62               [ 4] 2662 	ld	h, d
    00000ECF 29               [11] 2663 	add	hl, hl
    00000ED0 29               [11] 2664 	add	hl, hl
    00000ED1 19               [11] 2665 	add	hl, de
    00000ED2 29               [11] 2666 	add	hl, hl
    00000ED3 19               [11] 2667 	add	hl, de
    00000ED4 29               [11] 2668 	add	hl, hl
    00000ED5 19               [11] 2669 	add	hl, de
    00000ED6 11r00r00         [10] 2670 	ld	de, #_SwSprite
    00000ED9 19               [11] 2671 	add	hl, de
    00000EDA 11 0D 00         [10] 2672 	ld	de, #0x000d
    00000EDD 19               [11] 2673 	add	hl, de
    00000EDE DD 5E F2         [19] 2674 	ld	e, -14 (ix)
    00000EE1 DD 56 F3         [19] 2675 	ld	d, -13 (ix)
    00000EE4 EB               [ 4] 2676 	ex	de, hl
    00000EE5 29               [11] 2677 	add	hl, hl
    00000EE6 29               [11] 2678 	add	hl, hl
    00000EE7 29               [11] 2679 	add	hl, hl
    00000EE8 29               [11] 2680 	add	hl, hl
    00000EE9 EB               [ 4] 2681 	ex	de, hl
    00000EEA DD 71 F4         [19] 2682 	ld	-12 (ix), c
    00000EED DD 70 F5         [19] 2683 	ld	-11 (ix), b
    00000EF0 7B               [ 4] 2684 	ld	a, e
    00000EF1 DD 86 F4         [19] 2685 	add	a, -12 (ix)
    00000EF4 4F               [ 4] 2686 	ld	c, a
    00000EF5 7A               [ 4] 2687 	ld	a, d
    00000EF6 DD 8E F5         [19] 2688 	adc	a, -11 (ix)
    00000EF9 71               [ 7] 2689 	ld	(hl), c
    00000EFA 23               [ 6] 2690 	inc	hl
    00000EFB 77               [ 7] 2691 	ld	(hl), a
                                   2692 ;E:\Dropbox\FAUSTO\SVILUPPI\MSX\CODE\C\MSXgl\projects\soccerlgMSX2/soccerlg_s11_b3.c:277: SwSprite[0].tx = 128; SwSprite[0].ty = 32;
    00000EFC 21r0Cr00         [10] 2693 	ld	hl, #(_SwSprite + 12)
    00000EFF 36 80            [10] 2694 	ld	(hl), #0x80
    00000F01 21 20 00         [10] 2695 	ld	hl, #0x0020
    00000F04 22r0Dr00         [16] 2696 	ld	((_SwSprite + 13)), hl
                                   2697 ;E:\Dropbox\FAUSTO\SVILUPPI\MSX\CODE\C\MSXgl\projects\soccerlgMSX2/soccerlg_s11_b3.c:278: SwSprite[7].tx = 128; SwSprite[7].ty = 444;
    00000F07 21rADr00         [10] 2698 	ld	hl, #(_SwSprite + 173)
    00000F0A 36 80            [10] 2699 	ld	(hl), #0x80
    00000F0C 21 BC 01         [10] 2700 	ld	hl, #0x01bc
    00000F0F 22rAEr00         [16] 2701 	ld	((_SwSprite + 174)), hl
                                   2702 ;E:\Dropbox\FAUSTO\SVILUPPI\MSX\CODE\C\MSXgl\projects\soccerlgMSX2/soccerlg_s11_b3.c:280: for(u8 i=1; i<14; i++) {
    00000F12 DD 7E F2         [19] 2703 	ld	a, -14 (ix)
    00000F15 DD 77 F6         [19] 2704 	ld	-10 (ix), a
    00000F18 DD 7E F3         [19] 2705 	ld	a, -13 (ix)
    00000F1B DD 77 F7         [19] 2706 	ld	-9 (ix), a
    00000F1E 06 05            [ 7] 2707 	ld	b, #0x05
    00000F20                       2708 00272$:
    00000F20 DD CB F6 26      [23] 2709 	sla	-10 (ix)
    00000F24 DD CB F7 16      [23] 2710 	rl	-9 (ix)
    00000F28 10 F6            [13] 2711 	djnz	00272$
    00000F2A DD 36 FF 01      [19] 2712 	ld	-1 (ix), #0x01
    00000F2E                       2713 00126$:
    00000F2E DD 7E FF         [19] 2714 	ld	a, -1 (ix)
    00000F31 D6 0E            [ 7] 2715 	sub	a, #0x0e
    00000F33 D2rC1r10         [10] 2716 	jp	NC, 00127$
                                   2717 ;E:\Dropbox\FAUSTO\SVILUPPI\MSX\CODE\C\MSXgl\projects\soccerlgMSX2/soccerlg_s11_b3.c:281: if (i == 7 || i == thrower || i == g_throw_rec_1 || i == g_throw_rec_2) continue;
    00000F36 DD 7E FF         [19] 2718 	ld	a, -1 (ix)
    00000F39 D6 07            [ 7] 2719 	sub	a, #0x07
    00000F3B CArBBr10         [10] 2720 	jp	Z,00123$
    00000F3E DD 7E F0         [19] 2721 	ld	a, -16 (ix)
    00000F41 DD 96 FF         [19] 2722 	sub	a, -1 (ix)
    00000F44 CArBBr10         [10] 2723 	jp	Z,00123$
    00000F47 3Ar00r00         [13] 2724 	ld	a, (_g_throw_rec_1+0)
    00000F4A DD 96 FF         [19] 2725 	sub	a, -1 (ix)
    00000F4D CArBBr10         [10] 2726 	jp	Z,00123$
    00000F50 3Ar00r00         [13] 2727 	ld	a, (_g_throw_rec_2+0)
    00000F53 DD 96 FF         [19] 2728 	sub	a, -1 (ix)
    00000F56 CArBBr10         [10] 2729 	jp	Z,00123$
                                   2730 ;E:\Dropbox\FAUSTO\SVILUPPI\MSX\CODE\C\MSXgl\projects\soccerlgMSX2/soccerlg_s11_b3.c:282: u8 team = (i < 7) ? TEAM_1 : TEAM_2;
    00000F59 DD 7E FF         [19] 2731 	ld	a, -1 (ix)
    00000F5C D6 07            [ 7] 2732 	sub	a, #0x07
    00000F5E 30 0A            [12] 2733 	jr	NC, 00145$
    00000F60 AF               [ 4] 2734 	xor	a, a
    00000F61 DD 77 FD         [19] 2735 	ld	-3 (ix), a
    00000F64 DD 77 FE         [19] 2736 	ld	-2 (ix), a
    00000F67 C3r72r0F         [10] 2737 	jp	00146$
    00000F6A                       2738 00145$:
    00000F6A DD 36 FD 01      [19] 2739 	ld	-3 (ix), #0x01
    00000F6E DD 36 FE 00      [19] 2740 	ld	-2 (ix), #0
    00000F72                       2741 00146$:
                                   2742 ;E:\Dropbox\FAUSTO\SVILUPPI\MSX\CODE\C\MSXgl\projects\soccerlgMSX2/soccerlg_s11_b3.c:283: u8 role = (team == TEAM_1) ? i : (i - 7);
    00000F72 DD 7E FD         [19] 2743 	ld	a, -3 (ix)
    00000F75 B7               [ 4] 2744 	or	a, a
    00000F76 20 06            [12] 2745 	jr	NZ, 00147$
    00000F78 DD 4E FF         [19] 2746 	ld	c, -1 (ix)
    00000F7B C3r84r0F         [10] 2747 	jp	00148$
    00000F7E                       2748 00147$:
    00000F7E DD 7E FF         [19] 2749 	ld	a, -1 (ix)
    00000F81 C6 F9            [ 7] 2750 	add	a, #0xf9
    00000F83 4F               [ 4] 2751 	ld	c, a
    00000F84                       2752 00148$:
                                   2753 ;E:\Dropbox\FAUSTO\SVILUPPI\MSX\CODE\C\MSXgl\projects\soccerlgMSX2/soccerlg_s11_b3.c:285: u16 base_x = 48 + (role * 24); // Distribuisce a ventaglio
    00000F84 06 00            [ 7] 2754 	ld	b, #0x00
    00000F86 69               [ 4] 2755 	ld	l, c
    00000F87 60               [ 4] 2756 	ld	h, b
    00000F88 29               [11] 2757 	add	hl, hl
    00000F89 09               [11] 2758 	add	hl, bc
    00000F8A 29               [11] 2759 	add	hl, hl
    00000F8B 29               [11] 2760 	add	hl, hl
    00000F8C 29               [11] 2761 	add	hl, hl
    00000F8D 11 30 00         [10] 2762 	ld	de, #0x0030
    00000F90 19               [11] 2763 	add	hl, de
    00000F91 DD 75 F8         [19] 2764 	ld	-8 (ix), l
    00000F94 DD 74 F9         [19] 2765 	ld	-7 (ix), h
                                   2766 ;E:\Dropbox\FAUSTO\SVILUPPI\MSX\CODE\C\MSXgl\projects\soccerlgMSX2/soccerlg_s11_b3.c:286: u16 base_y = area_y + (dir_y * 32) + (dir_y * (role * 8)); // Li tiene fuori dall'area
    00000F97 DD 5E F6         [19] 2767 	ld	e, -10 (ix)
    00000F9A DD 56 F7         [19] 2768 	ld	d, -9 (ix)
    00000F9D DD 6E F4         [19] 2769 	ld	l, -12 (ix)
    00000FA0 DD 66 F5         [19] 2770 	ld	h, -11 (ix)
    00000FA3 19               [11] 2771 	add	hl, de
    00000FA4 59               [ 4] 2772 	ld	e, c
    00000FA5 50               [ 4] 2773 	ld	d, b
    00000FA6 EB               [ 4] 2774 	ex	de, hl
    00000FA7 29               [11] 2775 	add	hl, hl
    00000FA8 29               [11] 2776 	add	hl, hl
    00000FA9 29               [11] 2777 	add	hl, hl
    00000FAA EB               [ 4] 2778 	ex	de, hl
    00000FAB E5               [11] 2779 	push	hl
    00000FAC DD 6E F2         [19] 2780 	ld	l, -14 (ix)
                                   2781 ;	spillPairReg hl
                                   2782 ;	spillPairReg hl
    00000FAF DD 66 F3         [19] 2783 	ld	h, -13 (ix)
                                   2784 ;	spillPairReg hl
                                   2785 ;	spillPairReg hl
    00000FB2 CDr00r00         [17] 2786 	call	__mulint
    00000FB5 E1               [10] 2787 	pop	hl
    00000FB6 19               [11] 2788 	add	hl, de
    00000FB7 DD 75 FA         [19] 2789 	ld	-6 (ix), l
    00000FBA DD 74 FB         [19] 2790 	ld	-5 (ix), h
                                   2791 ;E:\Dropbox\FAUSTO\SVILUPPI\MSX\CODE\C\MSXgl\projects\soccerlgMSX2/soccerlg_s11_b3.c:287: i8 rand_x = ((Frms + i * 11) % 40) - 20;
    00000FBD 3Ar00r00         [13] 2792 	ld	a, (_Frms+0)
    00000FC0 DD 77 FC         [19] 2793 	ld	-4 (ix), a
    00000FC3 DD 36 FD 00      [19] 2794 	ld	-3 (ix), #0x00
    00000FC7 DD 4E FF         [19] 2795 	ld	c, -1 (ix)
    00000FCA 06 00            [ 7] 2796 	ld	b, #0x00
    00000FCC 69               [ 4] 2797 	ld	l, c
    00000FCD 60               [ 4] 2798 	ld	h, b
    00000FCE 29               [11] 2799 	add	hl, hl
    00000FCF 29               [11] 2800 	add	hl, hl
    00000FD0 09               [11] 2801 	add	hl, bc
    00000FD1 29               [11] 2802 	add	hl, hl
    00000FD2 09               [11] 2803 	add	hl, bc
    00000FD3 DD 5E FC         [19] 2804 	ld	e, -4 (ix)
    00000FD6 DD 56 FD         [19] 2805 	ld	d, -3 (ix)
    00000FD9 19               [11] 2806 	add	hl, de
    00000FDA C5               [11] 2807 	push	bc
    00000FDB 11 28 00         [10] 2808 	ld	de, #0x0028
    00000FDE CDr00r00         [17] 2809 	call	__modsint
    00000FE1 C1               [10] 2810 	pop	bc
    00000FE2 7B               [ 4] 2811 	ld	a, e
    00000FE3 C6 EC            [ 7] 2812 	add	a, #0xec
    00000FE5 DD 77 FE         [19] 2813 	ld	-2 (ix), a
                                   2814 ;E:\Dropbox\FAUSTO\SVILUPPI\MSX\CODE\C\MSXgl\projects\soccerlgMSX2/soccerlg_s11_b3.c:288: i8 rand_y = ((Frms + i * 17) % 40) - 20;
    00000FE8 69               [ 4] 2815 	ld	l, c
    00000FE9 60               [ 4] 2816 	ld	h, b
    00000FEA 29               [11] 2817 	add	hl, hl
    00000FEB 29               [11] 2818 	add	hl, hl
    00000FEC 29               [11] 2819 	add	hl, hl
    00000FED 29               [11] 2820 	add	hl, hl
    00000FEE 09               [11] 2821 	add	hl, bc
    00000FEF DD 5E FC         [19] 2822 	ld	e, -4 (ix)
    00000FF2 DD 56 FD         [19] 2823 	ld	d, -3 (ix)
    00000FF5 19               [11] 2824 	add	hl, de
    00000FF6 11 28 00         [10] 2825 	ld	de, #0x0028
    00000FF9 CDr00r00         [17] 2826 	call	__modsint
    00000FFC 7B               [ 4] 2827 	ld	a, e
    00000FFD C6 EC            [ 7] 2828 	add	a, #0xec
    00000FFF 5F               [ 4] 2829 	ld	e, a
                                   2830 ;E:\Dropbox\FAUSTO\SVILUPPI\MSX\CODE\C\MSXgl\projects\soccerlgMSX2/soccerlg_s11_b3.c:290: i16 final_x = base_x + rand_x;
    00001000 DD 7E FE         [19] 2831 	ld	a, -2 (ix)
    00001003 6F               [ 4] 2832 	ld	l, a
                                   2833 ;	spillPairReg hl
                                   2834 ;	spillPairReg hl
    00001004 07               [ 4] 2835 	rlca
    00001005 9F               [ 4] 2836 	sbc	a, a
    00001006 67               [ 4] 2837 	ld	h, a
                                   2838 ;	spillPairReg hl
                                   2839 ;	spillPairReg hl
    00001007 DD 4E F8         [19] 2840 	ld	c, -8 (ix)
    0000100A DD 46 F9         [19] 2841 	ld	b, -7 (ix)
    0000100D 09               [11] 2842 	add	hl, bc
    0000100E 4D               [ 4] 2843 	ld	c, l
    0000100F 44               [ 4] 2844 	ld	b, h
                                   2845 ;E:\Dropbox\FAUSTO\SVILUPPI\MSX\CODE\C\MSXgl\projects\soccerlgMSX2/soccerlg_s11_b3.c:291: i16 final_y = base_y + rand_y;
    00001010 7B               [ 4] 2846 	ld	a, e
    00001011 07               [ 4] 2847 	rlca
    00001012 9F               [ 4] 2848 	sbc	a, a
    00001013 57               [ 4] 2849 	ld	d, a
    00001014 DD 6E FA         [19] 2850 	ld	l, -6 (ix)
                                   2851 ;	spillPairReg hl
                                   2852 ;	spillPairReg hl
    00001017 DD 66 FB         [19] 2853 	ld	h, -5 (ix)
                                   2854 ;	spillPairReg hl
                                   2855 ;	spillPairReg hl
    0000101A 19               [11] 2856 	add	hl, de
    0000101B EB               [ 4] 2857 	ex	de, hl
                                   2858 ;E:\Dropbox\FAUSTO\SVILUPPI\MSX\CODE\C\MSXgl\projects\soccerlgMSX2/soccerlg_s11_b3.c:292: if (final_x < 16) final_x = 16; if (final_x > 240) final_x = 240;
    0000101C 69               [ 4] 2859 	ld	l, c
                                   2860 ;	spillPairReg hl
                                   2861 ;	spillPairReg hl
    0000101D 60               [ 4] 2862 	ld	h, b
                                   2863 ;	spillPairReg hl
                                   2864 ;	spillPairReg hl
    0000101E 7D               [ 4] 2865 	ld	a, l
    0000101F D6 10            [ 7] 2866 	sub	a, #0x10
    00001021 7C               [ 4] 2867 	ld	a, h
    00001022 17               [ 4] 2868 	rla
    00001023 3F               [ 4] 2869 	ccf
    00001024 1F               [ 4] 2870 	rra
    00001025 DE 80            [ 7] 2871 	sbc	a, #0x80
    00001027 30 03            [12] 2872 	jr	NC, 00109$
    00001029 01 10 00         [10] 2873 	ld	bc, #0x0010
    0000102C                       2874 00109$:
    0000102C 69               [ 4] 2875 	ld	l, c
                                   2876 ;	spillPairReg hl
                                   2877 ;	spillPairReg hl
    0000102D 60               [ 4] 2878 	ld	h, b
                                   2879 ;	spillPairReg hl
                                   2880 ;	spillPairReg hl
    0000102E 3E F0            [ 7] 2881 	ld	a, #0xf0
    00001030 BD               [ 4] 2882 	cp	a, l
    00001031 3E 00            [ 7] 2883 	ld	a, #0x00
    00001033 9C               [ 4] 2884 	sbc	a, h
    00001034 E2r39r10         [10] 2885 	jp	PO, 00277$
    00001037 EE 80            [ 7] 2886 	xor	a, #0x80
    00001039                       2887 00277$:
    00001039 F2r3Fr10         [10] 2888 	jp	P, 00111$
    0000103C 01 F0 00         [10] 2889 	ld	bc, #0x00f0
    0000103F                       2890 00111$:
                                   2891 ;E:\Dropbox\FAUSTO\SVILUPPI\MSX\CODE\C\MSXgl\projects\soccerlgMSX2/soccerlg_s11_b3.c:295: if (final_y < 80) final_y = 80; // Barriera invisibile per non farli entrare
    0000103F 6B               [ 4] 2892 	ld	l, e
                                   2893 ;	spillPairReg hl
                                   2894 ;	spillPairReg hl
    00001040 62               [ 4] 2895 	ld	h, d
                                   2896 ;	spillPairReg hl
                                   2897 ;	spillPairReg hl
                                   2898 ;E:\Dropbox\FAUSTO\SVILUPPI\MSX\CODE\C\MSXgl\projects\soccerlgMSX2/soccerlg_s11_b3.c:294: if (corner_y < 256) {
    00001041 DD 7E F1         [19] 2899 	ld	a, -15 (ix)
    00001044 B7               [ 4] 2900 	or	a, a
    00001045 28 23            [12] 2901 	jr	Z, 00121$
                                   2902 ;E:\Dropbox\FAUSTO\SVILUPPI\MSX\CODE\C\MSXgl\projects\soccerlgMSX2/soccerlg_s11_b3.c:295: if (final_y < 80) final_y = 80; // Barriera invisibile per non farli entrare
    00001047 7D               [ 4] 2903 	ld	a, l
    00001048 D6 50            [ 7] 2904 	sub	a, #0x50
    0000104A 7C               [ 4] 2905 	ld	a, h
    0000104B 17               [ 4] 2906 	rla
    0000104C 3F               [ 4] 2907 	ccf
    0000104D 1F               [ 4] 2908 	rra
    0000104E DE 80            [ 7] 2909 	sbc	a, #0x80
    00001050 30 03            [12] 2910 	jr	NC, 00113$
    00001052 11 50 00         [10] 2911 	ld	de, #0x0050
    00001055                       2912 00113$:
                                   2913 ;E:\Dropbox\FAUSTO\SVILUPPI\MSX\CODE\C\MSXgl\projects\soccerlgMSX2/soccerlg_s11_b3.c:296: if (final_y > 256) final_y = 256;
    00001055 6B               [ 4] 2914 	ld	l, e
                                   2915 ;	spillPairReg hl
                                   2916 ;	spillPairReg hl
    00001056 62               [ 4] 2917 	ld	h, d
                                   2918 ;	spillPairReg hl
                                   2919 ;	spillPairReg hl
    00001057 AF               [ 4] 2920 	xor	a, a
    00001058 BD               [ 4] 2921 	cp	a, l
    00001059 3E 01            [ 7] 2922 	ld	a, #0x01
    0000105B 9C               [ 4] 2923 	sbc	a, h
    0000105C E2r61r10         [10] 2924 	jp	PO, 00278$
    0000105F EE 80            [ 7] 2925 	xor	a, #0x80
    00001061                       2926 00278$:
    00001061 F2r85r10         [10] 2927 	jp	P, 00122$
    00001064 11 00 01         [10] 2928 	ld	de, #0x0100
    00001067 C3r85r10         [10] 2929 	jp	00122$
    0000106A                       2930 00121$:
                                   2931 ;E:\Dropbox\FAUSTO\SVILUPPI\MSX\CODE\C\MSXgl\projects\soccerlgMSX2/soccerlg_s11_b3.c:298: if (final_y > 432) final_y = 432; // Barriera invisibile
    0000106A 3E B0            [ 7] 2932 	ld	a, #0xb0
    0000106C BD               [ 4] 2933 	cp	a, l
    0000106D 3E 01            [ 7] 2934 	ld	a, #0x01
    0000106F 9C               [ 4] 2935 	sbc	a, h
    00001070 E2r75r10         [10] 2936 	jp	PO, 00279$
    00001073 EE 80            [ 7] 2937 	xor	a, #0x80
    00001075                       2938 00279$:
    00001075 F2r7Br10         [10] 2939 	jp	P, 00117$
    00001078 11 B0 01         [10] 2940 	ld	de, #0x01b0
    0000107B                       2941 00117$:
                                   2942 ;E:\Dropbox\FAUSTO\SVILUPPI\MSX\CODE\C\MSXgl\projects\soccerlgMSX2/soccerlg_s11_b3.c:299: if (final_y < 256) final_y = 256;
                                   2943 ;	spillPairReg hl
                                   2944 ;	spillPairReg hl
                                   2945 ;	spillPairReg hl
                                   2946 ;	spillPairReg hl
    0000107B 7A               [ 4] 2947 	ld	a, d
    0000107C EE 80            [ 7] 2948 	xor	a, #0x80
    0000107E D6 81            [ 7] 2949 	sub	a, #0x81
    00001080 30 03            [12] 2950 	jr	NC, 00122$
    00001082 11 00 01         [10] 2951 	ld	de, #0x0100
    00001085                       2952 00122$:
                                   2953 ;E:\Dropbox\FAUSTO\SVILUPPI\MSX\CODE\C\MSXgl\projects\soccerlgMSX2/soccerlg_s11_b3.c:301: SwSprite[i].tx = (u8)final_x; SwSprite[i].ty = (u16)final_y;
    00001085 D5               [11] 2954 	push	de
    00001086 DD 5E FF         [19] 2955 	ld	e, -1 (ix)
    00001089 16 00            [ 7] 2956 	ld	d, #0x00
    0000108B 6B               [ 4] 2957 	ld	l, e
    0000108C 62               [ 4] 2958 	ld	h, d
    0000108D 29               [11] 2959 	add	hl, hl
    0000108E 29               [11] 2960 	add	hl, hl
    0000108F 19               [11] 2961 	add	hl, de
    00001090 29               [11] 2962 	add	hl, hl
    00001091 19               [11] 2963 	add	hl, de
    00001092 29               [11] 2964 	add	hl, hl
    00001093 19               [11] 2965 	add	hl, de
    00001094 D1               [10] 2966 	pop	de
    00001095 7D               [ 4] 2967 	ld	a, l
    00001096 C6r00            [ 7] 2968 	add	a, #<(_SwSprite)
    00001098 DD 77 FD         [19] 2969 	ld	-3 (ix), a
    0000109B 7C               [ 4] 2970 	ld	a, h
    0000109C CEs00            [ 7] 2971 	adc	a, #>(_SwSprite)
    0000109E DD 77 FE         [19] 2972 	ld	-2 (ix), a
    000010A1 DD 7E FD         [19] 2973 	ld	a, -3 (ix)
    000010A4 C6 0C            [ 7] 2974 	add	a, #0x0c
    000010A6 6F               [ 4] 2975 	ld	l, a
                                   2976 ;	spillPairReg hl
                                   2977 ;	spillPairReg hl
    000010A7 DD 7E FE         [19] 2978 	ld	a, -2 (ix)
    000010AA CE 00            [ 7] 2979 	adc	a, #0x00
    000010AC 67               [ 4] 2980 	ld	h, a
    000010AD 71               [ 7] 2981 	ld	(hl), c
    000010AE DD 6E FD         [19] 2982 	ld	l, -3 (ix)
    000010B1 DD 66 FE         [19] 2983 	ld	h, -2 (ix)
    000010B4 01 0D 00         [10] 2984 	ld	bc, #0x000d
    000010B7 09               [11] 2985 	add	hl, bc
    000010B8 73               [ 7] 2986 	ld	(hl), e
    000010B9 23               [ 6] 2987 	inc	hl
    000010BA 72               [ 7] 2988 	ld	(hl), d
    000010BB                       2989 00123$:
                                   2990 ;E:\Dropbox\FAUSTO\SVILUPPI\MSX\CODE\C\MSXgl\projects\soccerlgMSX2/soccerlg_s11_b3.c:280: for(u8 i=1; i<14; i++) {
    000010BB DD 34 FF         [23] 2991 	inc	-1 (ix)
    000010BE C3r2Er0F         [10] 2992 	jp	00126$
    000010C1                       2993 00127$:
                                   2994 ;E:\Dropbox\FAUSTO\SVILUPPI\MSX\CODE\C\MSXgl\projects\soccerlgMSX2/soccerlg_s11_b3.c:303: }
    000010C1 DD F9            [10] 2995 	ld	sp, ix
    000010C3 DD E1            [14] 2996 	pop	ix
    000010C5 C9               [10] 2997 	ret
                                   2998 ;E:\Dropbox\FAUSTO\SVILUPPI\MSX\CODE\C\MSXgl\projects\soccerlgMSX2/soccerlg_s11_b3.c:305: void ExecuteThrowIn(u8 thrower, u8 receiver) {
                                   2999 ;	---------------------------------
                                   3000 ; Function ExecuteThrowIn
                                   3001 ; ---------------------------------
    000010C6                       3002 _ExecuteThrowIn::
    000010C6 DD E5            [15] 3003 	push	ix
    000010C8 DD 21 00 00      [14] 3004 	ld	ix,#0
    000010CC DD 39            [15] 3005 	add	ix,sp
    000010CE F5               [11] 3006 	push	af
    000010CF 4F               [ 4] 3007 	ld	c, a
    000010D0 45               [ 4] 3008 	ld	b, l
                                   3009 ;E:\Dropbox\FAUSTO\SVILUPPI\MSX\CODE\C\MSXgl\projects\soccerlgMSX2/soccerlg_s11_b3.c:306: g_pass_receiver = receiver;
    000010D1 21r00r00         [10] 3010 	ld	hl, #_g_pass_receiver
    000010D4 70               [ 7] 3011 	ld	(hl), b
                                   3012 ;E:\Dropbox\FAUSTO\SVILUPPI\MSX\CODE\C\MSXgl\projects\soccerlgMSX2/soccerlg_s11_b3.c:307: g_pass_start_x = SwSprite[thrower].lx;
    000010D5 59               [ 4] 3013 	ld	e, c
    000010D6 16 00            [ 7] 3014 	ld	d, #0x00
    000010D8 6B               [ 4] 3015 	ld	l, e
    000010D9 62               [ 4] 3016 	ld	h, d
    000010DA 29               [11] 3017 	add	hl, hl
    000010DB 29               [11] 3018 	add	hl, hl
    000010DC 19               [11] 3019 	add	hl, de
    000010DD 29               [11] 3020 	add	hl, hl
    000010DE 19               [11] 3021 	add	hl, de
    000010DF 29               [11] 3022 	add	hl, hl
    000010E0 19               [11] 3023 	add	hl, de
    000010E1 EB               [ 4] 3024 	ex	de, hl
    000010E2 21r00r00         [10] 3025 	ld	hl, #_SwSprite
    000010E5 19               [11] 3026 	add	hl, de
    000010E6 EB               [ 4] 3027 	ex	de, hl
    000010E7 1A               [ 7] 3028 	ld	a, (de)
    000010E8 32r00r00         [13] 3029 	ld	(_g_pass_start_x+0), a
    000010EB AF               [ 4] 3030 	xor	a, a
    000010EC 32r01r00         [13] 3031 	ld	(_g_pass_start_x+1), a
                                   3032 ;E:\Dropbox\FAUSTO\SVILUPPI\MSX\CODE\C\MSXgl\projects\soccerlgMSX2/soccerlg_s11_b3.c:308: g_pass_start_y = SwSprite[thrower].ly - 6; 
    000010EF 21 04 00         [10] 3033 	ld	hl, #4
    000010F2 19               [11] 3034 	add	hl, de
    000010F3 5E               [ 7] 3035 	ld	e, (hl)
    000010F4 23               [ 6] 3036 	inc	hl
    000010F5 56               [ 7] 3037 	ld	d, (hl)
    000010F6 7B               [ 4] 3038 	ld	a, e
    000010F7 C6 FA            [ 7] 3039 	add	a, #0xfa
    000010F9 6F               [ 4] 3040 	ld	l, a
                                   3041 ;	spillPairReg hl
                                   3042 ;	spillPairReg hl
    000010FA 7A               [ 4] 3043 	ld	a, d
    000010FB CE FF            [ 7] 3044 	adc	a, #0xff
    000010FD 67               [ 4] 3045 	ld	h, a
                                   3046 ;	spillPairReg hl
                                   3047 ;	spillPairReg hl
    000010FE 22r00r00         [16] 3048 	ld	(_g_pass_start_y), hl
                                   3049 ;E:\Dropbox\FAUSTO\SVILUPPI\MSX\CODE\C\MSXgl\projects\soccerlgMSX2/soccerlg_s11_b3.c:309: g_pass_target_x = SwSprite[receiver].lx;
    00001101 58               [ 4] 3050 	ld	e, b
    00001102 16 00            [ 7] 3051 	ld	d, #0x00
    00001104 6B               [ 4] 3052 	ld	l, e
    00001105 62               [ 4] 3053 	ld	h, d
    00001106 29               [11] 3054 	add	hl, hl
    00001107 29               [11] 3055 	add	hl, hl
    00001108 19               [11] 3056 	add	hl, de
    00001109 29               [11] 3057 	add	hl, hl
    0000110A 19               [11] 3058 	add	hl, de
    0000110B 29               [11] 3059 	add	hl, hl
    0000110C 19               [11] 3060 	add	hl, de
    0000110D EB               [ 4] 3061 	ex	de, hl
    0000110E 21r00r00         [10] 3062 	ld	hl, #_SwSprite
    00001111 19               [11] 3063 	add	hl, de
    00001112 EB               [ 4] 3064 	ex	de, hl
    00001113 1A               [ 7] 3065 	ld	a, (de)
    00001114 32r00r00         [13] 3066 	ld	(_g_pass_target_x+0), a
    00001117 AF               [ 4] 3067 	xor	a, a
    00001118 32r01r00         [13] 3068 	ld	(_g_pass_target_x+1), a
                                   3069 ;E:\Dropbox\FAUSTO\SVILUPPI\MSX\CODE\C\MSXgl\projects\soccerlgMSX2/soccerlg_s11_b3.c:310: g_pass_target_y = SwSprite[receiver].ly;
    0000111B 21 04 00         [10] 3070 	ld	hl, #4
    0000111E 19               [11] 3071 	add	hl, de
    0000111F 7E               [ 7] 3072 	ld	a, (hl)
    00001120 23               [ 6] 3073 	inc	hl
    00001121 32r00r00         [13] 3074 	ld	(_g_pass_target_y+0), a
    00001124 7E               [ 7] 3075 	ld	a, (hl)
    00001125 32r01r00         [13] 3076 	ld	(_g_pass_target_y+1), a
                                   3077 ;E:\Dropbox\FAUSTO\SVILUPPI\MSX\CODE\C\MSXgl\projects\soccerlgMSX2/soccerlg_s11_b3.c:312: u16 r_dx = (g_pass_target_x > g_pass_start_x) ? (g_pass_target_x - g_pass_start_x) : (g_pass_start_x - g_pass_target_x);
    00001128 21r00r00         [10] 3078 	ld	hl, #_g_pass_start_x
    0000112B 7E               [ 7] 3079 	ld	a, (hl)
    0000112C FD 21r00r00      [14] 3080 	ld	iy, #_g_pass_target_x
    00001130 FD 96 00         [19] 3081 	sub	a, 0 (iy)
    00001133 23               [ 6] 3082 	inc	hl
    00001134 7E               [ 7] 3083 	ld	a, (hl)
    00001135 FD 9E 01         [19] 3084 	sbc	a, 1 (iy)
    00001138 30 0D            [12] 3085 	jr	NC, 00107$
    0000113A ED 5Br00r00      [20] 3086 	ld	de, (_g_pass_start_x)
    0000113E 2Ar00r00         [16] 3087 	ld	hl, (_g_pass_target_x)
    00001141 BF               [ 4] 3088 	cp	a, a
    00001142 ED 52            [15] 3089 	sbc	hl, de
    00001144 C3r51r11         [10] 3090 	jp	00108$
    00001147                       3091 00107$:
    00001147 ED 5Br00r00      [20] 3092 	ld	de, (_g_pass_target_x)
    0000114B 2Ar00r00         [16] 3093 	ld	hl, (_g_pass_start_x)
    0000114E BF               [ 4] 3094 	cp	a, a
    0000114F ED 52            [15] 3095 	sbc	hl, de
    00001151                       3096 00108$:
    00001151 E3               [19] 3097 	ex	(sp), hl
                                   3098 ;E:\Dropbox\FAUSTO\SVILUPPI\MSX\CODE\C\MSXgl\projects\soccerlgMSX2/soccerlg_s11_b3.c:313: u16 r_dy = (g_pass_target_y > g_pass_start_y) ? (g_pass_target_y - g_pass_start_y) : (g_pass_start_y - g_pass_target_y);
    00001152 21r00r00         [10] 3099 	ld	hl, #_g_pass_start_y
    00001155 7E               [ 7] 3100 	ld	a, (hl)
    00001156 FD 21r00r00      [14] 3101 	ld	iy, #_g_pass_target_y
    0000115A FD 96 00         [19] 3102 	sub	a, 0 (iy)
    0000115D 23               [ 6] 3103 	inc	hl
    0000115E 7E               [ 7] 3104 	ld	a, (hl)
    0000115F FD 9E 01         [19] 3105 	sbc	a, 1 (iy)
    00001162 30 11            [12] 3106 	jr	NC, 00109$
    00001164 21r00r00         [10] 3107 	ld	hl, #_g_pass_start_y
    00001167 3Ar00r00         [13] 3108 	ld	a, (_g_pass_target_y+0)
    0000116A 96               [ 7] 3109 	sub	a, (hl)
    0000116B 23               [ 6] 3110 	inc	hl
    0000116C 47               [ 4] 3111 	ld	b, a
    0000116D 3Ar01r00         [13] 3112 	ld	a, (_g_pass_target_y+1)
    00001170 9E               [ 7] 3113 	sbc	a, (hl)
    00001171 57               [ 4] 3114 	ld	d, a
    00001172 C3r83r11         [10] 3115 	jp	00110$
    00001175                       3116 00109$:
    00001175 21r00r00         [10] 3117 	ld	hl, #_g_pass_target_y
    00001178 3Ar00r00         [13] 3118 	ld	a, (_g_pass_start_y+0)
    0000117B 96               [ 7] 3119 	sub	a, (hl)
    0000117C 23               [ 6] 3120 	inc	hl
    0000117D 47               [ 4] 3121 	ld	b, a
    0000117E 3Ar01r00         [13] 3122 	ld	a, (_g_pass_start_y+1)
    00001181 9E               [ 7] 3123 	sbc	a, (hl)
    00001182 57               [ 4] 3124 	ld	d, a
    00001183                       3125 00110$:
    00001183 58               [ 4] 3126 	ld	e, b
                                   3127 ;E:\Dropbox\FAUSTO\SVILUPPI\MSX\CODE\C\MSXgl\projects\soccerlgMSX2/soccerlg_s11_b3.c:315: g_pass_max_frames = (r_dx + r_dy) / 4; 
    00001184 E1               [10] 3128 	pop	hl
    00001185 E5               [11] 3129 	push	hl
    00001186 19               [11] 3130 	add	hl, de
    00001187 CB 3C            [ 8] 3131 	srl	h
    00001189 CB 1D            [ 8] 3132 	rr	l
    0000118B CB 3C            [ 8] 3133 	srl	h
    0000118D CB 1D            [ 8] 3134 	rr	l
    0000118F FD 21r00r00      [14] 3135 	ld	iy, #_g_pass_max_frames
    00001193 FD 75 00         [19] 3136 	ld	0 (iy), l
                                   3137 ;E:\Dropbox\FAUSTO\SVILUPPI\MSX\CODE\C\MSXgl\projects\soccerlgMSX2/soccerlg_s11_b3.c:316: if (g_pass_max_frames < 10) g_pass_max_frames = 10;
    00001196 3Ar00r00         [13] 3138 	ld	a, (_g_pass_max_frames+0)
    00001199 D6 0A            [ 7] 3139 	sub	a, #0x0a
    0000119B 30 04            [12] 3140 	jr	NC, 00102$
    0000119D FD 36 00 0A      [19] 3141 	ld	0 (iy), #0x0a
    000011A1                       3142 00102$:
                                   3143 ;E:\Dropbox\FAUSTO\SVILUPPI\MSX\CODE\C\MSXgl\projects\soccerlgMSX2/soccerlg_s11_b3.c:317: if (g_pass_max_frames > 40) g_pass_max_frames = 40;
    000011A1 3E 28            [ 7] 3144 	ld	a, #0x28
    000011A3 FD 21r00r00      [14] 3145 	ld	iy, #_g_pass_max_frames
    000011A7 FD 96 00         [19] 3146 	sub	a, 0 (iy)
    000011AA 30 04            [12] 3147 	jr	NC, 00104$
    000011AC FD 36 00 28      [19] 3148 	ld	0 (iy), #0x28
    000011B0                       3149 00104$:
                                   3150 ;E:\Dropbox\FAUSTO\SVILUPPI\MSX\CODE\C\MSXgl\projects\soccerlgMSX2/soccerlg_s11_b3.c:318: g_pass_max_height = 3; // Altezza ridotta per il fallo laterale
    000011B0 21r00r00         [10] 3151 	ld	hl, #_g_pass_max_height
    000011B3 36 03            [10] 3152 	ld	(hl), #0x03
                                   3153 ;E:\Dropbox\FAUSTO\SVILUPPI\MSX\CODE\C\MSXgl\projects\soccerlgMSX2/soccerlg_s11_b3.c:320: SwSprite[14].lx = g_pass_start_x;
    000011B5 3Ar00r00         [13] 3154 	ld	a, (_g_pass_start_x+0)
    000011B8 32r42r01         [13] 3155 	ld	(#(_SwSprite + 322)),a
                                   3156 ;E:\Dropbox\FAUSTO\SVILUPPI\MSX\CODE\C\MSXgl\projects\soccerlgMSX2/soccerlg_s11_b3.c:321: SwSprite[14].ly = g_pass_start_y;
    000011BB 21r46r01         [10] 3157 	ld	hl, #(_SwSprite + 326)
    000011BE 3Ar00r00         [13] 3158 	ld	a, (_g_pass_start_y+0)
    000011C1 77               [ 7] 3159 	ld	(hl), a
    000011C2 23               [ 6] 3160 	inc	hl
    000011C3 3Ar01r00         [13] 3161 	ld	a, (_g_pass_start_y+1)
    000011C6 77               [ 7] 3162 	ld	(hl), a
                                   3163 ;E:\Dropbox\FAUSTO\SVILUPPI\MSX\CODE\C\MSXgl\projects\soccerlgMSX2/soccerlg_s11_b3.c:322: SwSprite[14].anim = 5; 
    000011C7 21 05 00         [10] 3164 	ld	hl, #0x0005
    000011CA 22r55r01         [16] 3165 	ld	((_SwSprite + 341)), hl
                                   3166 ;E:\Dropbox\FAUSTO\SVILUPPI\MSX\CODE\C\MSXgl\projects\soccerlgMSX2/soccerlg_s11_b3.c:323: SwSprite[14].count = 0; 
    000011CD 6C               [ 4] 3167 	ld	l, h
    000011CE 22r57r01         [16] 3168 	ld	((_SwSprite + 343)), hl
                                   3169 ;E:\Dropbox\FAUSTO\SVILUPPI\MSX\CODE\C\MSXgl\projects\soccerlgMSX2/soccerlg_s11_b3.c:324: CallFnc_VOID(SEG_EVENTS, EventBallKicked);
    000011D1 C5               [11] 3170 	push	bc
    000011D2 11r00r00         [10] 3171 	ld	de, #_EventBallKicked
    000011D5 3E 08            [ 7] 3172 	ld	a, #0x08
    000011D7 CDr00r00         [17] 3173 	call	_CallFnc_VOID
    000011DA C1               [10] 3174 	pop	bc
                                   3175 ;E:\Dropbox\FAUSTO\SVILUPPI\MSX\CODE\C\MSXgl\projects\soccerlgMSX2/soccerlg_s11_b3.c:325: LastTouchTeam = (thrower < 7) ? TEAM_1 : TEAM_2;
    000011DB 79               [ 4] 3176 	ld	a, c
    000011DC D6 07            [ 7] 3177 	sub	a, #0x07
    000011DE 30 04            [12] 3178 	jr	NC, 00111$
    000011E0 AF               [ 4] 3179 	xor	a, a
    000011E1 C3rE6r11         [10] 3180 	jp	00112$
    000011E4                       3181 00111$:
    000011E4 3E 01            [ 7] 3182 	ld	a, #0x01
    000011E6                       3183 00112$:
    000011E6 32r00r00         [13] 3184 	ld	(_LastTouchTeam+0), a
                                   3185 ;E:\Dropbox\FAUSTO\SVILUPPI\MSX\CODE\C\MSXgl\projects\soccerlgMSX2/soccerlg_s11_b3.c:326: LastTouchPlayer = thrower;
    000011E9 21r00r00         [10] 3186 	ld	hl, #_LastTouchPlayer
    000011EC 71               [ 7] 3187 	ld	(hl), c
                                   3188 ;E:\Dropbox\FAUSTO\SVILUPPI\MSX\CODE\C\MSXgl\projects\soccerlgMSX2/soccerlg_s11_b3.c:327: }
    000011ED DD F9            [10] 3189 	ld	sp, ix
    000011EF DD E1            [14] 3190 	pop	ix
    000011F1 C9               [10] 3191 	ret
                                   3192 ;E:\Dropbox\FAUSTO\SVILUPPI\MSX\CODE\C\MSXgl\projects\soccerlgMSX2/soccerlg_s11_b3.c:329: void ExecuteCornerKick(u8 thrower, u8 receiver) {
                                   3193 ;	---------------------------------
                                   3194 ; Function ExecuteCornerKick
                                   3195 ; ---------------------------------
    000011F2                       3196 _ExecuteCornerKick::
    000011F2 DD E5            [15] 3197 	push	ix
    000011F4 DD 21 00 00      [14] 3198 	ld	ix,#0
    000011F8 DD 39            [15] 3199 	add	ix,sp
    000011FA F5               [11] 3200 	push	af
    000011FB 4F               [ 4] 3201 	ld	c, a
    000011FC 45               [ 4] 3202 	ld	b, l
                                   3203 ;E:\Dropbox\FAUSTO\SVILUPPI\MSX\CODE\C\MSXgl\projects\soccerlgMSX2/soccerlg_s11_b3.c:330: g_pass_receiver = receiver;
    000011FD 21r00r00         [10] 3204 	ld	hl, #_g_pass_receiver
    00001200 70               [ 7] 3205 	ld	(hl), b
                                   3206 ;E:\Dropbox\FAUSTO\SVILUPPI\MSX\CODE\C\MSXgl\projects\soccerlgMSX2/soccerlg_s11_b3.c:331: g_pass_start_x = SwSprite[thrower].lx;
    00001201 59               [ 4] 3207 	ld	e, c
    00001202 16 00            [ 7] 3208 	ld	d, #0x00
    00001204 6B               [ 4] 3209 	ld	l, e
    00001205 62               [ 4] 3210 	ld	h, d
    00001206 29               [11] 3211 	add	hl, hl
    00001207 29               [11] 3212 	add	hl, hl
    00001208 19               [11] 3213 	add	hl, de
    00001209 29               [11] 3214 	add	hl, hl
    0000120A 19               [11] 3215 	add	hl, de
    0000120B 29               [11] 3216 	add	hl, hl
    0000120C 19               [11] 3217 	add	hl, de
    0000120D EB               [ 4] 3218 	ex	de, hl
    0000120E 21r00r00         [10] 3219 	ld	hl, #_SwSprite
    00001211 19               [11] 3220 	add	hl, de
    00001212 EB               [ 4] 3221 	ex	de, hl
    00001213 1A               [ 7] 3222 	ld	a, (de)
    00001214 32r00r00         [13] 3223 	ld	(_g_pass_start_x+0), a
    00001217 AF               [ 4] 3224 	xor	a, a
    00001218 32r01r00         [13] 3225 	ld	(_g_pass_start_x+1), a
                                   3226 ;E:\Dropbox\FAUSTO\SVILUPPI\MSX\CODE\C\MSXgl\projects\soccerlgMSX2/soccerlg_s11_b3.c:332: g_pass_start_y = SwSprite[thrower].ly; 
    0000121B 21 04 00         [10] 3227 	ld	hl, #4
    0000121E 19               [11] 3228 	add	hl, de
    0000121F 7E               [ 7] 3229 	ld	a, (hl)
    00001220 23               [ 6] 3230 	inc	hl
    00001221 32r00r00         [13] 3231 	ld	(_g_pass_start_y+0), a
    00001224 7E               [ 7] 3232 	ld	a, (hl)
    00001225 32r01r00         [13] 3233 	ld	(_g_pass_start_y+1), a
                                   3234 ;E:\Dropbox\FAUSTO\SVILUPPI\MSX\CODE\C\MSXgl\projects\soccerlgMSX2/soccerlg_s11_b3.c:333: g_pass_target_x = SwSprite[receiver].lx;
    00001228 58               [ 4] 3235 	ld	e, b
    00001229 16 00            [ 7] 3236 	ld	d, #0x00
    0000122B 6B               [ 4] 3237 	ld	l, e
    0000122C 62               [ 4] 3238 	ld	h, d
    0000122D 29               [11] 3239 	add	hl, hl
    0000122E 29               [11] 3240 	add	hl, hl
    0000122F 19               [11] 3241 	add	hl, de
    00001230 29               [11] 3242 	add	hl, hl
    00001231 19               [11] 3243 	add	hl, de
    00001232 29               [11] 3244 	add	hl, hl
    00001233 19               [11] 3245 	add	hl, de
    00001234 EB               [ 4] 3246 	ex	de, hl
    00001235 21r00r00         [10] 3247 	ld	hl, #_SwSprite
    00001238 19               [11] 3248 	add	hl, de
    00001239 EB               [ 4] 3249 	ex	de, hl
    0000123A 1A               [ 7] 3250 	ld	a, (de)
    0000123B 32r00r00         [13] 3251 	ld	(_g_pass_target_x+0), a
    0000123E AF               [ 4] 3252 	xor	a, a
    0000123F 32r01r00         [13] 3253 	ld	(_g_pass_target_x+1), a
                                   3254 ;E:\Dropbox\FAUSTO\SVILUPPI\MSX\CODE\C\MSXgl\projects\soccerlgMSX2/soccerlg_s11_b3.c:334: g_pass_target_y = SwSprite[receiver].ly;
    00001242 21 04 00         [10] 3255 	ld	hl, #4
    00001245 19               [11] 3256 	add	hl, de
    00001246 7E               [ 7] 3257 	ld	a, (hl)
    00001247 23               [ 6] 3258 	inc	hl
    00001248 32r00r00         [13] 3259 	ld	(_g_pass_target_y+0), a
    0000124B 7E               [ 7] 3260 	ld	a, (hl)
    0000124C 32r01r00         [13] 3261 	ld	(_g_pass_target_y+1), a
                                   3262 ;E:\Dropbox\FAUSTO\SVILUPPI\MSX\CODE\C\MSXgl\projects\soccerlgMSX2/soccerlg_s11_b3.c:336: u16 r_dx = (g_pass_target_x > g_pass_start_x) ? (g_pass_target_x - g_pass_start_x) : (g_pass_start_x - g_pass_target_x);
    0000124F 21r00r00         [10] 3263 	ld	hl, #_g_pass_start_x
    00001252 7E               [ 7] 3264 	ld	a, (hl)
    00001253 FD 21r00r00      [14] 3265 	ld	iy, #_g_pass_target_x
    00001257 FD 96 00         [19] 3266 	sub	a, 0 (iy)
    0000125A 23               [ 6] 3267 	inc	hl
    0000125B 7E               [ 7] 3268 	ld	a, (hl)
    0000125C FD 9E 01         [19] 3269 	sbc	a, 1 (iy)
    0000125F 30 0D            [12] 3270 	jr	NC, 00107$
    00001261 ED 5Br00r00      [20] 3271 	ld	de, (_g_pass_start_x)
    00001265 2Ar00r00         [16] 3272 	ld	hl, (_g_pass_target_x)
    00001268 BF               [ 4] 3273 	cp	a, a
    00001269 ED 52            [15] 3274 	sbc	hl, de
    0000126B C3r78r12         [10] 3275 	jp	00108$
    0000126E                       3276 00107$:
    0000126E ED 5Br00r00      [20] 3277 	ld	de, (_g_pass_target_x)
    00001272 2Ar00r00         [16] 3278 	ld	hl, (_g_pass_start_x)
    00001275 BF               [ 4] 3279 	cp	a, a
    00001276 ED 52            [15] 3280 	sbc	hl, de
    00001278                       3281 00108$:
    00001278 E3               [19] 3282 	ex	(sp), hl
                                   3283 ;E:\Dropbox\FAUSTO\SVILUPPI\MSX\CODE\C\MSXgl\projects\soccerlgMSX2/soccerlg_s11_b3.c:337: u16 r_dy = (g_pass_target_y > g_pass_start_y) ? (g_pass_target_y - g_pass_start_y) : (g_pass_start_y - g_pass_target_y);
    00001279 21r00r00         [10] 3284 	ld	hl, #_g_pass_start_y
    0000127C 7E               [ 7] 3285 	ld	a, (hl)
    0000127D FD 21r00r00      [14] 3286 	ld	iy, #_g_pass_target_y
    00001281 FD 96 00         [19] 3287 	sub	a, 0 (iy)
    00001284 23               [ 6] 3288 	inc	hl
    00001285 7E               [ 7] 3289 	ld	a, (hl)
    00001286 FD 9E 01         [19] 3290 	sbc	a, 1 (iy)
    00001289 30 11            [12] 3291 	jr	NC, 00109$
    0000128B 21r00r00         [10] 3292 	ld	hl, #_g_pass_start_y
    0000128E 3Ar00r00         [13] 3293 	ld	a, (_g_pass_target_y+0)
    00001291 96               [ 7] 3294 	sub	a, (hl)
    00001292 23               [ 6] 3295 	inc	hl
    00001293 47               [ 4] 3296 	ld	b, a
    00001294 3Ar01r00         [13] 3297 	ld	a, (_g_pass_target_y+1)
    00001297 9E               [ 7] 3298 	sbc	a, (hl)
    00001298 57               [ 4] 3299 	ld	d, a
    00001299 C3rAAr12         [10] 3300 	jp	00110$
    0000129C                       3301 00109$:
    0000129C 21r00r00         [10] 3302 	ld	hl, #_g_pass_target_y
    0000129F 3Ar00r00         [13] 3303 	ld	a, (_g_pass_start_y+0)
    000012A2 96               [ 7] 3304 	sub	a, (hl)
    000012A3 23               [ 6] 3305 	inc	hl
    000012A4 47               [ 4] 3306 	ld	b, a
    000012A5 3Ar01r00         [13] 3307 	ld	a, (_g_pass_start_y+1)
    000012A8 9E               [ 7] 3308 	sbc	a, (hl)
    000012A9 57               [ 4] 3309 	ld	d, a
    000012AA                       3310 00110$:
    000012AA 58               [ 4] 3311 	ld	e, b
                                   3312 ;E:\Dropbox\FAUSTO\SVILUPPI\MSX\CODE\C\MSXgl\projects\soccerlgMSX2/soccerlg_s11_b3.c:339: g_pass_max_frames = (r_dx + r_dy) / 3; 
    000012AB E1               [10] 3313 	pop	hl
    000012AC E5               [11] 3314 	push	hl
    000012AD 19               [11] 3315 	add	hl, de
    000012AE C5               [11] 3316 	push	bc
    000012AF 11 03 00         [10] 3317 	ld	de, #0x0003
    000012B2 CDr00r00         [17] 3318 	call	__divuint
    000012B5 C1               [10] 3319 	pop	bc
    000012B6 FD 21r00r00      [14] 3320 	ld	iy, #_g_pass_max_frames
    000012BA FD 73 00         [19] 3321 	ld	0 (iy), e
                                   3322 ;E:\Dropbox\FAUSTO\SVILUPPI\MSX\CODE\C\MSXgl\projects\soccerlgMSX2/soccerlg_s11_b3.c:340: if (g_pass_max_frames < 20) g_pass_max_frames = 20;
    000012BD 3Ar00r00         [13] 3323 	ld	a, (_g_pass_max_frames+0)
    000012C0 D6 14            [ 7] 3324 	sub	a, #0x14
    000012C2 30 04            [12] 3325 	jr	NC, 00102$
    000012C4 FD 36 00 14      [19] 3326 	ld	0 (iy), #0x14
    000012C8                       3327 00102$:
                                   3328 ;E:\Dropbox\FAUSTO\SVILUPPI\MSX\CODE\C\MSXgl\projects\soccerlgMSX2/soccerlg_s11_b3.c:341: if (g_pass_max_frames > 60) g_pass_max_frames = 60;
    000012C8 3E 3C            [ 7] 3329 	ld	a, #0x3c
    000012CA FD 21r00r00      [14] 3330 	ld	iy, #_g_pass_max_frames
    000012CE FD 96 00         [19] 3331 	sub	a, 0 (iy)
    000012D1 30 04            [12] 3332 	jr	NC, 00104$
    000012D3 FD 36 00 3C      [19] 3333 	ld	0 (iy), #0x3c
    000012D7                       3334 00104$:
                                   3335 ;E:\Dropbox\FAUSTO\SVILUPPI\MSX\CODE\C\MSXgl\projects\soccerlgMSX2/soccerlg_s11_b3.c:342: g_pass_max_height = 7; // Cross alto e a spiovere
    000012D7 21r00r00         [10] 3336 	ld	hl, #_g_pass_max_height
    000012DA 36 07            [10] 3337 	ld	(hl), #0x07
                                   3338 ;E:\Dropbox\FAUSTO\SVILUPPI\MSX\CODE\C\MSXgl\projects\soccerlgMSX2/soccerlg_s11_b3.c:344: SwSprite[14].lx = g_pass_start_x; SwSprite[14].ly = g_pass_start_y;
    000012DC 3Ar00r00         [13] 3339 	ld	a, (_g_pass_start_x+0)
    000012DF 32r42r01         [13] 3340 	ld	(#(_SwSprite + 322)),a
    000012E2 21r46r01         [10] 3341 	ld	hl, #(_SwSprite + 326)
    000012E5 3Ar00r00         [13] 3342 	ld	a, (_g_pass_start_y+0)
    000012E8 77               [ 7] 3343 	ld	(hl), a
    000012E9 23               [ 6] 3344 	inc	hl
    000012EA 3Ar01r00         [13] 3345 	ld	a, (_g_pass_start_y+1)
    000012ED 77               [ 7] 3346 	ld	(hl), a
                                   3347 ;E:\Dropbox\FAUSTO\SVILUPPI\MSX\CODE\C\MSXgl\projects\soccerlgMSX2/soccerlg_s11_b3.c:345: SwSprite[14].anim = 5; SwSprite[14].count = 0; 
    000012EE 21 05 00         [10] 3348 	ld	hl, #0x0005
    000012F1 22r55r01         [16] 3349 	ld	((_SwSprite + 341)), hl
    000012F4 6C               [ 4] 3350 	ld	l, h
    000012F5 22r57r01         [16] 3351 	ld	((_SwSprite + 343)), hl
                                   3352 ;E:\Dropbox\FAUSTO\SVILUPPI\MSX\CODE\C\MSXgl\projects\soccerlgMSX2/soccerlg_s11_b3.c:346: CallFnc_VOID(SEG_EVENTS, EventBallKicked);
    000012F8 C5               [11] 3353 	push	bc
    000012F9 11r00r00         [10] 3354 	ld	de, #_EventBallKicked
    000012FC 3E 08            [ 7] 3355 	ld	a, #0x08
    000012FE CDr00r00         [17] 3356 	call	_CallFnc_VOID
    00001301 C1               [10] 3357 	pop	bc
                                   3358 ;E:\Dropbox\FAUSTO\SVILUPPI\MSX\CODE\C\MSXgl\projects\soccerlgMSX2/soccerlg_s11_b3.c:347: LastTouchTeam = (thrower < 7) ? TEAM_1 : TEAM_2;
    00001302 79               [ 4] 3359 	ld	a, c
    00001303 D6 07            [ 7] 3360 	sub	a, #0x07
    00001305 30 04            [12] 3361 	jr	NC, 00111$
    00001307 AF               [ 4] 3362 	xor	a, a
    00001308 C3r0Dr13         [10] 3363 	jp	00112$
    0000130B                       3364 00111$:
    0000130B 3E 01            [ 7] 3365 	ld	a, #0x01
    0000130D                       3366 00112$:
    0000130D 32r00r00         [13] 3367 	ld	(_LastTouchTeam+0), a
                                   3368 ;E:\Dropbox\FAUSTO\SVILUPPI\MSX\CODE\C\MSXgl\projects\soccerlgMSX2/soccerlg_s11_b3.c:348: LastTouchPlayer = thrower;
    00001310 21r00r00         [10] 3369 	ld	hl, #_LastTouchPlayer
    00001313 71               [ 7] 3370 	ld	(hl), c
                                   3371 ;E:\Dropbox\FAUSTO\SVILUPPI\MSX\CODE\C\MSXgl\projects\soccerlgMSX2/soccerlg_s11_b3.c:349: }
    00001314 DD F9            [10] 3372 	ld	sp, ix
    00001316 DD E1            [14] 3373 	pop	ix
    00001318 C9               [10] 3374 	ret
                                   3375 ;E:\Dropbox\FAUSTO\SVILUPPI\MSX\CODE\C\MSXgl\projects\soccerlgMSX2/soccerlg_s11_b3.c:351: u16 GetPlayerAnimFrame(u8 i, i8 dx, i8 dy, u8 step) 
                                   3376 ;	---------------------------------
                                   3377 ; Function GetPlayerAnimFrame
                                   3378 ; ---------------------------------
    00001319                       3379 _GetPlayerAnimFrame::
    00001319 DD E5            [15] 3380 	push	ix
    0000131B DD 21 00 00      [14] 3381 	ld	ix,#0
    0000131F DD 39            [15] 3382 	add	ix,sp
    00001321 F5               [11] 3383 	push	af
    00001322 F5               [11] 3384 	push	af
    00001323 DD 77 FF         [19] 3385 	ld	-1 (ix), a
    00001326 4D               [ 4] 3386 	ld	c, l
                                   3387 ;E:\Dropbox\FAUSTO\SVILUPPI\MSX\CODE\C\MSXgl\projects\soccerlgMSX2/soccerlg_s11_b3.c:353: bool is_gk = (i == 0 || i == 7);
    00001327 DD 7E FF         [19] 3388 	ld	a, -1 (ix)
    0000132A B7               [ 4] 3389 	or	a, a
    0000132B 28 0B            [12] 3390 	jr	Z, 00224$
    0000132D DD 7E FF         [19] 3391 	ld	a, -1 (ix)
    00001330 D6 07            [ 7] 3392 	sub	a, #0x07
    00001332 28 04            [12] 3393 	jr	Z, 00224$
    00001334 AF               [ 4] 3394 	xor	a, a
    00001335 C3r3Ar13         [10] 3395 	jp	00225$
    00001338                       3396 00224$:
    00001338 3E 01            [ 7] 3397 	ld	a, #0x01
    0000133A                       3398 00225$:
    0000133A DD 77 FC         [19] 3399 	ld	-4 (ix), a
                                   3400 ;E:\Dropbox\FAUSTO\SVILUPPI\MSX\CODE\C\MSXgl\projects\soccerlgMSX2/soccerlg_s11_b3.c:354: if (i == 26) { // Arbitro
    0000133D DD 7E FF         [19] 3401 	ld	a, -1 (ix)
    00001340 D6 1A            [ 7] 3402 	sub	a, #0x1a
    00001342 C2rA8r14         [10] 3403 	jp	NZ,00126$
                                   3404 ;E:\Dropbox\FAUSTO\SVILUPPI\MSX\CODE\C\MSXgl\projects\soccerlgMSX2/soccerlg_s11_b3.c:355: if (dy < 0 && dx == 0) return (step==0) ? SPR_REFEREE_PLAYER_NORTH_DIRECTION_1 : (step==1) ? SPR_REFEREE_PLAYER_NORTH_DIRECTION_2 : SPR_REFEREE_PLAYER_NORTH_DIRECTION_3;
    00001345 DD 7E 04         [19] 3405 	ld	a, 4 (ix)
    00001348 07               [ 4] 3406 	rlca
    00001349 E6 01            [ 7] 3407 	and	a,#0x01
    0000134B DD 77 FE         [19] 3408 	ld	-2 (ix), a
    0000134E B7               [ 4] 3409 	or	a, a
    0000134F 28 22            [12] 3410 	jr	Z, 00102$
    00001351 79               [ 4] 3411 	ld	a, c
    00001352 B7               [ 4] 3412 	or	a, a
    00001353 20 1E            [12] 3413 	jr	NZ, 00102$
    00001355 DD 7E 05         [19] 3414 	ld	a, 5 (ix)
    00001358 B7               [ 4] 3415 	or	a, a
    00001359 20 06            [12] 3416 	jr	NZ, 00226$
    0000135B 11 13 01         [10] 3417 	ld	de, #0x0113
    0000135E C3rD4r19         [10] 3418 	jp	00221$
    00001361                       3419 00226$:
    00001361 DD 7E 05         [19] 3420 	ld	a, 5 (ix)
    00001364 3D               [ 4] 3421 	dec	a
    00001365 20 06            [12] 3422 	jr	NZ, 00228$
    00001367 11 14 01         [10] 3423 	ld	de, #0x0114
    0000136A C3rD4r19         [10] 3424 	jp	00221$
    0000136D                       3425 00228$:
    0000136D 11 15 01         [10] 3426 	ld	de, #0x0115
    00001370 C3rD4r19         [10] 3427 	jp	00221$
    00001373                       3428 00102$:
                                   3429 ;E:\Dropbox\FAUSTO\SVILUPPI\MSX\CODE\C\MSXgl\projects\soccerlgMSX2/soccerlg_s11_b3.c:356: if (dy > 0 && dx == 0) return (step==0) ? SPR_REFEREE_PLAYER_SOUTH_DIRECTION_1 : (step==1) ? SPR_REFEREE_PLAYER_SOUTH_DIRECTION_2 : SPR_REFEREE_PLAYER_SOUTH_DIRECTION_3;
    00001373 AF               [ 4] 3430 	xor	a, a
    00001374 DD 96 04         [19] 3431 	sub	a, 4 (ix)
    00001377 E2r7Cr13         [10] 3432 	jp	PO, 01174$
    0000137A EE 80            [ 7] 3433 	xor	a, #0x80
    0000137C                       3434 01174$:
    0000137C 07               [ 4] 3435 	rlca
    0000137D E6 01            [ 7] 3436 	and	a,#0x01
    0000137F 5F               [ 4] 3437 	ld	e, a
    00001380 B7               [ 4] 3438 	or	a, a
    00001381 28 22            [12] 3439 	jr	Z, 00105$
    00001383 79               [ 4] 3440 	ld	a, c
    00001384 B7               [ 4] 3441 	or	a, a
    00001385 20 1E            [12] 3442 	jr	NZ, 00105$
    00001387 DD 7E 05         [19] 3443 	ld	a, 5 (ix)
    0000138A B7               [ 4] 3444 	or	a, a
    0000138B 20 06            [12] 3445 	jr	NZ, 00230$
    0000138D 11 00 01         [10] 3446 	ld	de, #0x0100
    00001390 C3rD4r19         [10] 3447 	jp	00221$
    00001393                       3448 00230$:
    00001393 DD 7E 05         [19] 3449 	ld	a, 5 (ix)
    00001396 3D               [ 4] 3450 	dec	a
    00001397 20 06            [12] 3451 	jr	NZ, 00232$
    00001399 11 01 01         [10] 3452 	ld	de, #0x0101
    0000139C C3rD4r19         [10] 3453 	jp	00221$
    0000139F                       3454 00232$:
    0000139F 11 02 01         [10] 3455 	ld	de, #0x0102
    000013A2 C3rD4r19         [10] 3456 	jp	00221$
    000013A5                       3457 00105$:
                                   3458 ;E:\Dropbox\FAUSTO\SVILUPPI\MSX\CODE\C\MSXgl\projects\soccerlgMSX2/soccerlg_s11_b3.c:357: if (dy == 0 && dx > 0) return (step==0) ? SPR_REFEREE_PLAYER_EAST_DIRECTION_1 : (step==1) ? SPR_REFEREE_PLAYER_EAST_DIRECTION_2 : SPR_REFEREE_PLAYER_EAST_DIRECTION_3;
    000013A5 DD 7E 04         [19] 3459 	ld	a, 4 (ix)
    000013A8 B7               [ 4] 3460 	or	a,a
    000013A9 20 27            [12] 3461 	jr	NZ, 00108$
    000013AB 91               [ 4] 3462 	sub	a, c
    000013AC E2rB1r13         [10] 3463 	jp	PO, 01177$
    000013AF EE 80            [ 7] 3464 	xor	a, #0x80
    000013B1                       3465 01177$:
    000013B1 F2rD2r13         [10] 3466 	jp	P, 00108$
    000013B4 DD 7E 05         [19] 3467 	ld	a, 5 (ix)
    000013B7 B7               [ 4] 3468 	or	a, a
    000013B8 20 06            [12] 3469 	jr	NZ, 00234$
    000013BA 11 1D 01         [10] 3470 	ld	de, #0x011d
    000013BD C3rD4r19         [10] 3471 	jp	00221$
    000013C0                       3472 00234$:
    000013C0 DD 7E 05         [19] 3473 	ld	a, 5 (ix)
    000013C3 3D               [ 4] 3474 	dec	a
    000013C4 20 06            [12] 3475 	jr	NZ, 00236$
    000013C6 11 1C 01         [10] 3476 	ld	de, #0x011c
    000013C9 C3rD4r19         [10] 3477 	jp	00221$
    000013CC                       3478 00236$:
    000013CC 11 1B 01         [10] 3479 	ld	de, #0x011b
    000013CF C3rD4r19         [10] 3480 	jp	00221$
    000013D2                       3481 00108$:
                                   3482 ;E:\Dropbox\FAUSTO\SVILUPPI\MSX\CODE\C\MSXgl\projects\soccerlgMSX2/soccerlg_s11_b3.c:358: if (dy == 0 && dx < 0) return (step==0) ? SPR_REFEREE_PLAYER_WEST_DIRECTION_1 : (step==1) ? SPR_REFEREE_PLAYER_WEST_DIRECTION_2 : SPR_REFEREE_PLAYER_WEST_DIRECTION_3;
    000013D2 DD 7E 04         [19] 3483 	ld	a, 4 (ix)
    000013D5 B7               [ 4] 3484 	or	a, a
    000013D6 20 22            [12] 3485 	jr	NZ, 00111$
    000013D8 CB 79            [ 8] 3486 	bit	7, c
    000013DA 28 1E            [12] 3487 	jr	Z, 00111$
    000013DC DD 7E 05         [19] 3488 	ld	a, 5 (ix)
    000013DF B7               [ 4] 3489 	or	a, a
    000013E0 20 06            [12] 3490 	jr	NZ, 00238$
    000013E2 11 18 01         [10] 3491 	ld	de, #0x0118
    000013E5 C3rD4r19         [10] 3492 	jp	00221$
    000013E8                       3493 00238$:
    000013E8 DD 7E 05         [19] 3494 	ld	a, 5 (ix)
    000013EB 3D               [ 4] 3495 	dec	a
    000013EC 20 06            [12] 3496 	jr	NZ, 00240$
    000013EE 11 19 01         [10] 3497 	ld	de, #0x0119
    000013F1 C3rD4r19         [10] 3498 	jp	00221$
    000013F4                       3499 00240$:
    000013F4 11 1A 01         [10] 3500 	ld	de, #0x011a
    000013F7 C3rD4r19         [10] 3501 	jp	00221$
    000013FA                       3502 00111$:
                                   3503 ;E:\Dropbox\FAUSTO\SVILUPPI\MSX\CODE\C\MSXgl\projects\soccerlgMSX2/soccerlg_s11_b3.c:359: if (dy < 0 && dx > 0) return (step==0) ? SPR_REFEREE_PLAYER_NORTH_EAST_DIRECTION_1 : (step==1) ? SPR_REFEREE_PLAYER_NORTH_EAST_DIRECTION_2 : SPR_REFEREE_PLAYER_NORTH_EAST_DIRECTION_3;
    000013FA DD 7E FE         [19] 3504 	ld	a, -2 (ix)
    000013FD B7               [ 4] 3505 	or	a, a
    000013FE 28 28            [12] 3506 	jr	Z, 00114$
    00001400 AF               [ 4] 3507 	xor	a, a
    00001401 91               [ 4] 3508 	sub	a, c
    00001402 E2r07r14         [10] 3509 	jp	PO, 01182$
    00001405 EE 80            [ 7] 3510 	xor	a, #0x80
    00001407                       3511 01182$:
    00001407 F2r28r14         [10] 3512 	jp	P, 00114$
    0000140A DD 7E 05         [19] 3513 	ld	a, 5 (ix)
    0000140D B7               [ 4] 3514 	or	a, a
    0000140E 20 06            [12] 3515 	jr	NZ, 00242$
    00001410 11 0F 01         [10] 3516 	ld	de, #0x010f
    00001413 C3rD4r19         [10] 3517 	jp	00221$
    00001416                       3518 00242$:
    00001416 DD 7E 05         [19] 3519 	ld	a, 5 (ix)
    00001419 3D               [ 4] 3520 	dec	a
    0000141A 20 06            [12] 3521 	jr	NZ, 00244$
    0000141C 11 0E 01         [10] 3522 	ld	de, #0x010e
    0000141F C3rD4r19         [10] 3523 	jp	00221$
    00001422                       3524 00244$:
    00001422 11 0D 01         [10] 3525 	ld	de, #0x010d
    00001425 C3rD4r19         [10] 3526 	jp	00221$
    00001428                       3527 00114$:
                                   3528 ;E:\Dropbox\FAUSTO\SVILUPPI\MSX\CODE\C\MSXgl\projects\soccerlgMSX2/soccerlg_s11_b3.c:360: if (dy < 0 && dx < 0) return (step==0) ? SPR_REFEREE_PLAYER_NORTH_WEST_DIRECTION_1 : (step==1) ? SPR_REFEREE_PLAYER_NORTH_WEST_DIRECTION_2 : SPR_REFEREE_PLAYER_NORTH_WEST_DIRECTION_3;
    00001428 DD 7E FE         [19] 3529 	ld	a, -2 (ix)
    0000142B B7               [ 4] 3530 	or	a, a
    0000142C 28 22            [12] 3531 	jr	Z, 00117$
    0000142E CB 79            [ 8] 3532 	bit	7, c
    00001430 28 1E            [12] 3533 	jr	Z, 00117$
    00001432 DD 7E 05         [19] 3534 	ld	a, 5 (ix)
    00001435 B7               [ 4] 3535 	or	a, a
    00001436 20 06            [12] 3536 	jr	NZ, 00246$
    00001438 11 10 01         [10] 3537 	ld	de, #0x0110
    0000143B C3rD4r19         [10] 3538 	jp	00221$
    0000143E                       3539 00246$:
    0000143E DD 7E 05         [19] 3540 	ld	a, 5 (ix)
    00001441 3D               [ 4] 3541 	dec	a
    00001442 20 06            [12] 3542 	jr	NZ, 00248$
    00001444 11 11 01         [10] 3543 	ld	de, #0x0111
    00001447 C3rD4r19         [10] 3544 	jp	00221$
    0000144A                       3545 00248$:
    0000144A 11 12 01         [10] 3546 	ld	de, #0x0112
    0000144D C3rD4r19         [10] 3547 	jp	00221$
    00001450                       3548 00117$:
                                   3549 ;E:\Dropbox\FAUSTO\SVILUPPI\MSX\CODE\C\MSXgl\projects\soccerlgMSX2/soccerlg_s11_b3.c:361: if (dy > 0 && dx > 0) return (step==0) ? SPR_REFEREE_PLAYER_SOUTH_EAST_DIRECTION_1 : (step==1) ? SPR_REFEREE_PLAYER_SOUTH_EAST_DIRECTION_2 : SPR_REFEREE_PLAYER_SOUTH_EAST_DIRECTION_3;
    00001450 7B               [ 4] 3550 	ld	a, e
    00001451 B7               [ 4] 3551 	or	a, a
    00001452 28 28            [12] 3552 	jr	Z, 00120$
    00001454 AF               [ 4] 3553 	xor	a, a
    00001455 91               [ 4] 3554 	sub	a, c
    00001456 E2r5Br14         [10] 3555 	jp	PO, 01187$
    00001459 EE 80            [ 7] 3556 	xor	a, #0x80
    0000145B                       3557 01187$:
    0000145B F2r7Cr14         [10] 3558 	jp	P, 00120$
    0000145E DD 7E 05         [19] 3559 	ld	a, 5 (ix)
    00001461 B7               [ 4] 3560 	or	a, a
    00001462 20 06            [12] 3561 	jr	NZ, 00250$
    00001464 11 0C 01         [10] 3562 	ld	de, #0x010c
    00001467 C3rD4r19         [10] 3563 	jp	00221$
    0000146A                       3564 00250$:
    0000146A DD 7E 05         [19] 3565 	ld	a, 5 (ix)
    0000146D 3D               [ 4] 3566 	dec	a
    0000146E 20 06            [12] 3567 	jr	NZ, 00252$
    00001470 11 0B 01         [10] 3568 	ld	de, #0x010b
    00001473 C3rD4r19         [10] 3569 	jp	00221$
    00001476                       3570 00252$:
    00001476 11 0A 01         [10] 3571 	ld	de, #0x010a
    00001479 C3rD4r19         [10] 3572 	jp	00221$
    0000147C                       3573 00120$:
                                   3574 ;E:\Dropbox\FAUSTO\SVILUPPI\MSX\CODE\C\MSXgl\projects\soccerlgMSX2/soccerlg_s11_b3.c:362: if (dy > 0 && dx < 0) return (step==0) ? SPR_REFEREE_PLAYER_SOUTH_WEST_DIRECTION_1 : (step==1) ? SPR_REFEREE_PLAYER_SOUTH_WEST_DIRECTION_2 : SPR_REFEREE_PLAYER_SOUTH_WEST_DIRECTION_3;
    0000147C 7B               [ 4] 3575 	ld	a, e
    0000147D B7               [ 4] 3576 	or	a, a
    0000147E 28 22            [12] 3577 	jr	Z, 00123$
    00001480 CB 79            [ 8] 3578 	bit	7, c
    00001482 28 1E            [12] 3579 	jr	Z, 00123$
    00001484 DD 7E 05         [19] 3580 	ld	a, 5 (ix)
    00001487 B7               [ 4] 3581 	or	a, a
    00001488 20 06            [12] 3582 	jr	NZ, 00254$
    0000148A 11 07 01         [10] 3583 	ld	de, #0x0107
    0000148D C3rD4r19         [10] 3584 	jp	00221$
    00001490                       3585 00254$:
    00001490 DD 7E 05         [19] 3586 	ld	a, 5 (ix)
    00001493 3D               [ 4] 3587 	dec	a
    00001494 20 06            [12] 3588 	jr	NZ, 00256$
    00001496 11 08 01         [10] 3589 	ld	de, #0x0108
    00001499 C3rD4r19         [10] 3590 	jp	00221$
    0000149C                       3591 00256$:
    0000149C 11 09 01         [10] 3592 	ld	de, #0x0109
    0000149F C3rD4r19         [10] 3593 	jp	00221$
    000014A2                       3594 00123$:
                                   3595 ;E:\Dropbox\FAUSTO\SVILUPPI\MSX\CODE\C\MSXgl\projects\soccerlgMSX2/soccerlg_s11_b3.c:363: return SPR_REFEREE_PLAYER_FACE_TO_SOUTH;
    000014A2 11 06 01         [10] 3596 	ld	de, #0x0106
    000014A5 C3rD4r19         [10] 3597 	jp	00221$
    000014A8                       3598 00126$:
                                   3599 ;E:\Dropbox\FAUSTO\SVILUPPI\MSX\CODE\C\MSXgl\projects\soccerlgMSX2/soccerlg_s11_b3.c:365: u8 team = (i < 7) ? 1 : 2;
    000014A8 DD 7E FF         [19] 3600 	ld	a, -1 (ix)
    000014AB D6 07            [ 7] 3601 	sub	a, #0x07
    000014AD 30 06            [12] 3602 	jr	NC, 00258$
    000014AF 11 01 00         [10] 3603 	ld	de, #0x0001
    000014B2 C3rB8r14         [10] 3604 	jp	00259$
    000014B5                       3605 00258$:
    000014B5 11 02 00         [10] 3606 	ld	de, #0x0002
    000014B8                       3607 00259$:
    000014B8 DD 73 FD         [19] 3608 	ld	-3 (ix), e
                                   3609 ;E:\Dropbox\FAUSTO\SVILUPPI\MSX\CODE\C\MSXgl\projects\soccerlgMSX2/soccerlg_s11_b3.c:366: bool is_celebrating = (RestartType == RESTART_GOAL && ((team == 1 && KickOffTeam == TEAM_2) || (team == 2 && KickOffTeam == TEAM_1)));
    000014BB 3Ar00r00         [13] 3610 	ld	a, (_RestartType+0)
    000014BE D6 05            [ 7] 3611 	sub	a, #0x05
    000014C0 20 19            [12] 3612 	jr	NZ, 00260$
    000014C2 DD 7E FD         [19] 3613 	ld	a, -3 (ix)
    000014C5 3D               [ 4] 3614 	dec	a
    000014C6 20 06            [12] 3615 	jr	NZ, 00268$
    000014C8 3Ar00r00         [13] 3616 	ld	a, (_KickOffTeam+0)
    000014CB 3D               [ 4] 3617 	dec	a
    000014CC 28 11            [12] 3618 	jr	Z, 00261$
    000014CE                       3619 00268$:
    000014CE DD 7E FD         [19] 3620 	ld	a, -3 (ix)
    000014D1 D6 02            [ 7] 3621 	sub	a, #0x02
    000014D3 20 06            [12] 3622 	jr	NZ, 00260$
    000014D5 3Ar00r00         [13] 3623 	ld	a, (_KickOffTeam+0)
    000014D8 B7               [ 4] 3624 	or	a, a
    000014D9 28 04            [12] 3625 	jr	Z, 00261$
    000014DB                       3626 00260$:
    000014DB AF               [ 4] 3627 	xor	a, a
    000014DC C3rE1r14         [10] 3628 	jp	00262$
    000014DF                       3629 00261$:
    000014DF 3E 01            [ 7] 3630 	ld	a, #0x01
    000014E1                       3631 00262$:
    000014E1 DD 77 FE         [19] 3632 	ld	-2 (ix), a
                                   3633 ;E:\Dropbox\FAUSTO\SVILUPPI\MSX\CODE\C\MSXgl\projects\soccerlgMSX2/soccerlg_s11_b3.c:368: if (is_gk) {
    000014E4 DD 7E FC         [19] 3634 	ld	a, -4 (ix)
    000014E7 B7               [ 4] 3635 	or	a, a
    000014E8 CAr4Er16         [10] 3636 	jp	Z, 00219$
                                   3637 ;E:\Dropbox\FAUSTO\SVILUPPI\MSX\CODE\C\MSXgl\projects\soccerlgMSX2/soccerlg_s11_b3.c:369: if (dy < 0 && dx == 0) return (step==0) ? SPR_GK_PLAYER_NORTH_DIRECTION_1 : (step==1) ? SPR_GK_PLAYER_NORTH_DIRECTION_2 : SPR_GK_PLAYER_NORTH_DIRECTION_3;
    000014EB DD 7E 04         [19] 3638 	ld	a, 4 (ix)
    000014EE 07               [ 4] 3639 	rlca
    000014EF E6 01            [ 7] 3640 	and	a,#0x01
    000014F1 DD 77 FE         [19] 3641 	ld	-2 (ix), a
    000014F4 B7               [ 4] 3642 	or	a, a
    000014F5 28 22            [12] 3643 	jr	Z, 00128$
    000014F7 79               [ 4] 3644 	ld	a, c
    000014F8 B7               [ 4] 3645 	or	a, a
    000014F9 20 1E            [12] 3646 	jr	NZ, 00128$
    000014FB DD 7E 05         [19] 3647 	ld	a, 5 (ix)
    000014FE B7               [ 4] 3648 	or	a, a
    000014FF 20 06            [12] 3649 	jr	NZ, 00272$
    00001501 11 E3 00         [10] 3650 	ld	de, #0x00e3
    00001504 C3rD4r19         [10] 3651 	jp	00221$
    00001507                       3652 00272$:
    00001507 DD 7E 05         [19] 3653 	ld	a, 5 (ix)
    0000150A 3D               [ 4] 3654 	dec	a
    0000150B 20 06            [12] 3655 	jr	NZ, 00274$
    0000150D 11 E4 00         [10] 3656 	ld	de, #0x00e4
    00001510 C3rD4r19         [10] 3657 	jp	00221$
    00001513                       3658 00274$:
    00001513 11 E5 00         [10] 3659 	ld	de, #0x00e5
    00001516 C3rD4r19         [10] 3660 	jp	00221$
    00001519                       3661 00128$:
                                   3662 ;E:\Dropbox\FAUSTO\SVILUPPI\MSX\CODE\C\MSXgl\projects\soccerlgMSX2/soccerlg_s11_b3.c:370: if (dy > 0 && dx == 0) return (step==0) ? SPR_GK_PLAYER_SOUTH_DIRECTION_1 : (step==1) ? SPR_GK_PLAYER_SOUTH_DIRECTION_2 : SPR_GK_PLAYER_SOUTH_DIRECTION_3;
    00001519 AF               [ 4] 3663 	xor	a, a
    0000151A DD 96 04         [19] 3664 	sub	a, 4 (ix)
    0000151D E2r22r15         [10] 3665 	jp	PO, 01201$
    00001520 EE 80            [ 7] 3666 	xor	a, #0x80
    00001522                       3667 01201$:
    00001522 07               [ 4] 3668 	rlca
    00001523 E6 01            [ 7] 3669 	and	a,#0x01
    00001525 47               [ 4] 3670 	ld	b, a
    00001526 B7               [ 4] 3671 	or	a, a
    00001527 28 22            [12] 3672 	jr	Z, 00131$
    00001529 79               [ 4] 3673 	ld	a, c
    0000152A B7               [ 4] 3674 	or	a, a
    0000152B 20 1E            [12] 3675 	jr	NZ, 00131$
    0000152D DD 7E 05         [19] 3676 	ld	a, 5 (ix)
    00001530 B7               [ 4] 3677 	or	a, a
    00001531 20 06            [12] 3678 	jr	NZ, 00276$
    00001533 11 D0 00         [10] 3679 	ld	de, #0x00d0
    00001536 C3rD4r19         [10] 3680 	jp	00221$
    00001539                       3681 00276$:
    00001539 DD 7E 05         [19] 3682 	ld	a, 5 (ix)
    0000153C 3D               [ 4] 3683 	dec	a
    0000153D 20 06            [12] 3684 	jr	NZ, 00278$
    0000153F 11 D1 00         [10] 3685 	ld	de, #0x00d1
    00001542 C3rD4r19         [10] 3686 	jp	00221$
    00001545                       3687 00278$:
    00001545 11 D2 00         [10] 3688 	ld	de, #0x00d2
    00001548 C3rD4r19         [10] 3689 	jp	00221$
    0000154B                       3690 00131$:
                                   3691 ;E:\Dropbox\FAUSTO\SVILUPPI\MSX\CODE\C\MSXgl\projects\soccerlgMSX2/soccerlg_s11_b3.c:371: if (dy == 0 && dx > 0) return (step==0) ? SPR_GK_PLAYER_EAST_DIRECTION_1 : (step==1) ? SPR_GK_PLAYER_EAST_DIRECTION_2 : SPR_GK_PLAYER_EAST_DIRECTION_3;
    0000154B DD 7E 04         [19] 3692 	ld	a, 4 (ix)
    0000154E B7               [ 4] 3693 	or	a,a
    0000154F 20 27            [12] 3694 	jr	NZ, 00134$
    00001551 91               [ 4] 3695 	sub	a, c
    00001552 E2r57r15         [10] 3696 	jp	PO, 01204$
    00001555 EE 80            [ 7] 3697 	xor	a, #0x80
    00001557                       3698 01204$:
    00001557 F2r78r15         [10] 3699 	jp	P, 00134$
    0000155A DD 7E 05         [19] 3700 	ld	a, 5 (ix)
    0000155D B7               [ 4] 3701 	or	a, a
    0000155E 20 06            [12] 3702 	jr	NZ, 00280$
    00001560 11 ED 00         [10] 3703 	ld	de, #0x00ed
    00001563 C3rD4r19         [10] 3704 	jp	00221$
    00001566                       3705 00280$:
    00001566 DD 7E 05         [19] 3706 	ld	a, 5 (ix)
    00001569 3D               [ 4] 3707 	dec	a
    0000156A 20 06            [12] 3708 	jr	NZ, 00282$
    0000156C 11 EC 00         [10] 3709 	ld	de, #0x00ec
    0000156F C3rD4r19         [10] 3710 	jp	00221$
    00001572                       3711 00282$:
    00001572 11 EB 00         [10] 3712 	ld	de, #0x00eb
    00001575 C3rD4r19         [10] 3713 	jp	00221$
    00001578                       3714 00134$:
                                   3715 ;E:\Dropbox\FAUSTO\SVILUPPI\MSX\CODE\C\MSXgl\projects\soccerlgMSX2/soccerlg_s11_b3.c:372: if (dy == 0 && dx < 0) return (step==0) ? SPR_GK_PLAYER_WEST_DIRECTION_1 : (step==1) ? SPR_GK_PLAYER_WEST_DIRECTION_2 : SPR_GK_PLAYER_WEST_DIRECTION_3;
    00001578 DD 7E 04         [19] 3716 	ld	a, 4 (ix)
    0000157B B7               [ 4] 3717 	or	a, a
    0000157C 20 22            [12] 3718 	jr	NZ, 00137$
    0000157E CB 79            [ 8] 3719 	bit	7, c
    00001580 28 1E            [12] 3720 	jr	Z, 00137$
    00001582 DD 7E 05         [19] 3721 	ld	a, 5 (ix)
    00001585 B7               [ 4] 3722 	or	a, a
    00001586 20 06            [12] 3723 	jr	NZ, 00284$
    00001588 11 E8 00         [10] 3724 	ld	de, #0x00e8
    0000158B C3rD4r19         [10] 3725 	jp	00221$
    0000158E                       3726 00284$:
    0000158E DD 7E 05         [19] 3727 	ld	a, 5 (ix)
    00001591 3D               [ 4] 3728 	dec	a
    00001592 20 06            [12] 3729 	jr	NZ, 00286$
    00001594 11 E9 00         [10] 3730 	ld	de, #0x00e9
    00001597 C3rD4r19         [10] 3731 	jp	00221$
    0000159A                       3732 00286$:
    0000159A 11 EA 00         [10] 3733 	ld	de, #0x00ea
    0000159D C3rD4r19         [10] 3734 	jp	00221$
    000015A0                       3735 00137$:
                                   3736 ;E:\Dropbox\FAUSTO\SVILUPPI\MSX\CODE\C\MSXgl\projects\soccerlgMSX2/soccerlg_s11_b3.c:373: if (dy < 0 && dx > 0) return (step==0) ? SPR_GK_PLAYER_NORTH_EAST_DIRECTION_1 : (step==1) ? SPR_GK_PLAYER_NORTH_EAST_DIRECTION_2 : SPR_GK_PLAYER_NORTH_EAST_DIRECTION_3;
    000015A0 DD 7E FE         [19] 3737 	ld	a, -2 (ix)
    000015A3 B7               [ 4] 3738 	or	a, a
    000015A4 28 28            [12] 3739 	jr	Z, 00140$
    000015A6 AF               [ 4] 3740 	xor	a, a
    000015A7 91               [ 4] 3741 	sub	a, c
    000015A8 E2rADr15         [10] 3742 	jp	PO, 01209$
    000015AB EE 80            [ 7] 3743 	xor	a, #0x80
    000015AD                       3744 01209$:
    000015AD F2rCEr15         [10] 3745 	jp	P, 00140$
    000015B0 DD 7E 05         [19] 3746 	ld	a, 5 (ix)
    000015B3 B7               [ 4] 3747 	or	a, a
    000015B4 20 06            [12] 3748 	jr	NZ, 00288$
    000015B6 11 DF 00         [10] 3749 	ld	de, #0x00df
    000015B9 C3rD4r19         [10] 3750 	jp	00221$
    000015BC                       3751 00288$:
    000015BC DD 7E 05         [19] 3752 	ld	a, 5 (ix)
    000015BF 3D               [ 4] 3753 	dec	a
    000015C0 20 06            [12] 3754 	jr	NZ, 00290$
    000015C2 11 DE 00         [10] 3755 	ld	de, #0x00de
    000015C5 C3rD4r19         [10] 3756 	jp	00221$
    000015C8                       3757 00290$:
    000015C8 11 DD 00         [10] 3758 	ld	de, #0x00dd
    000015CB C3rD4r19         [10] 3759 	jp	00221$
    000015CE                       3760 00140$:
                                   3761 ;E:\Dropbox\FAUSTO\SVILUPPI\MSX\CODE\C\MSXgl\projects\soccerlgMSX2/soccerlg_s11_b3.c:374: if (dy < 0 && dx < 0) return (step==0) ? SPR_GK_PLAYER_NORTH_WEST_DIRECTION_1 : (step==1) ? SPR_GK_PLAYER_NORTH_WEST_DIRECTION_2 : SPR_GK_PLAYER_NORTH_WEST_DIRECTION_3;
    000015CE DD 7E FE         [19] 3762 	ld	a, -2 (ix)
    000015D1 B7               [ 4] 3763 	or	a, a
    000015D2 28 22            [12] 3764 	jr	Z, 00143$
    000015D4 CB 79            [ 8] 3765 	bit	7, c
    000015D6 28 1E            [12] 3766 	jr	Z, 00143$
    000015D8 DD 7E 05         [19] 3767 	ld	a, 5 (ix)
    000015DB B7               [ 4] 3768 	or	a, a
    000015DC 20 06            [12] 3769 	jr	NZ, 00292$
    000015DE 11 E0 00         [10] 3770 	ld	de, #0x00e0
    000015E1 C3rD4r19         [10] 3771 	jp	00221$
    000015E4                       3772 00292$:
    000015E4 DD 7E 05         [19] 3773 	ld	a, 5 (ix)
    000015E7 3D               [ 4] 3774 	dec	a
    000015E8 20 06            [12] 3775 	jr	NZ, 00294$
    000015EA 11 E1 00         [10] 3776 	ld	de, #0x00e1
    000015ED C3rD4r19         [10] 3777 	jp	00221$
    000015F0                       3778 00294$:
    000015F0 11 E2 00         [10] 3779 	ld	de, #0x00e2
    000015F3 C3rD4r19         [10] 3780 	jp	00221$
    000015F6                       3781 00143$:
                                   3782 ;E:\Dropbox\FAUSTO\SVILUPPI\MSX\CODE\C\MSXgl\projects\soccerlgMSX2/soccerlg_s11_b3.c:375: if (dy > 0 && dx > 0) return (step==0) ? SPR_GK_PLAYER_SOUTH_EAST_DIRECTION_1 : (step==1) ? SPR_GK_PLAYER_SOUTH_EAST_DIRECTION_2 : SPR_GK_PLAYER_SOUTH_EAST_DIRECTION_3;
    000015F6 78               [ 4] 3783 	ld	a, b
    000015F7 B7               [ 4] 3784 	or	a, a
    000015F8 28 28            [12] 3785 	jr	Z, 00146$
    000015FA AF               [ 4] 3786 	xor	a, a
    000015FB 91               [ 4] 3787 	sub	a, c
    000015FC E2r01r16         [10] 3788 	jp	PO, 01214$
    000015FF EE 80            [ 7] 3789 	xor	a, #0x80
    00001601                       3790 01214$:
    00001601 F2r22r16         [10] 3791 	jp	P, 00146$
    00001604 DD 7E 05         [19] 3792 	ld	a, 5 (ix)
    00001607 B7               [ 4] 3793 	or	a, a
    00001608 20 06            [12] 3794 	jr	NZ, 00296$
    0000160A 11 DC 00         [10] 3795 	ld	de, #0x00dc
    0000160D C3rD4r19         [10] 3796 	jp	00221$
    00001610                       3797 00296$:
    00001610 DD 7E 05         [19] 3798 	ld	a, 5 (ix)
    00001613 3D               [ 4] 3799 	dec	a
    00001614 20 06            [12] 3800 	jr	NZ, 00298$
    00001616 11 DB 00         [10] 3801 	ld	de, #0x00db
    00001619 C3rD4r19         [10] 3802 	jp	00221$
    0000161C                       3803 00298$:
    0000161C 11 DA 00         [10] 3804 	ld	de, #0x00da
    0000161F C3rD4r19         [10] 3805 	jp	00221$
    00001622                       3806 00146$:
                                   3807 ;E:\Dropbox\FAUSTO\SVILUPPI\MSX\CODE\C\MSXgl\projects\soccerlgMSX2/soccerlg_s11_b3.c:376: if (dy > 0 && dx < 0) return (step==0) ? SPR_GK_PLAYER_SOUTH_WEST_DIRECTION_1 : (step==1) ? SPR_GK_PLAYER_SOUTH_WEST_DIRECTION_2 : SPR_GK_PLAYER_SOUTH_WEST_DIRECTION_3;
    00001622 78               [ 4] 3808 	ld	a, b
    00001623 B7               [ 4] 3809 	or	a, a
    00001624 28 22            [12] 3810 	jr	Z, 00149$
    00001626 CB 79            [ 8] 3811 	bit	7, c
    00001628 28 1E            [12] 3812 	jr	Z, 00149$
    0000162A DD 7E 05         [19] 3813 	ld	a, 5 (ix)
    0000162D B7               [ 4] 3814 	or	a, a
    0000162E 20 06            [12] 3815 	jr	NZ, 00300$
    00001630 11 D7 00         [10] 3816 	ld	de, #0x00d7
    00001633 C3rD4r19         [10] 3817 	jp	00221$
    00001636                       3818 00300$:
    00001636 DD 7E 05         [19] 3819 	ld	a, 5 (ix)
    00001639 3D               [ 4] 3820 	dec	a
    0000163A 20 06            [12] 3821 	jr	NZ, 00302$
    0000163C 11 D8 00         [10] 3822 	ld	de, #0x00d8
    0000163F C3rD4r19         [10] 3823 	jp	00221$
    00001642                       3824 00302$:
    00001642 11 D9 00         [10] 3825 	ld	de, #0x00d9
    00001645 C3rD4r19         [10] 3826 	jp	00221$
    00001648                       3827 00149$:
                                   3828 ;E:\Dropbox\FAUSTO\SVILUPPI\MSX\CODE\C\MSXgl\projects\soccerlgMSX2/soccerlg_s11_b3.c:377: return SPR_GK_PLAYER_FACE_TO_SOUTH;
    00001648 11 D5 00         [10] 3829 	ld	de, #0x00d5
    0000164B C3rD4r19         [10] 3830 	jp	00221$
    0000164E                       3831 00219$:
                                   3832 ;E:\Dropbox\FAUSTO\SVILUPPI\MSX\CODE\C\MSXgl\projects\soccerlgMSX2/soccerlg_s11_b3.c:379: else if (team == 1) {
    0000164E DD 7E FD         [19] 3833 	ld	a, -3 (ix)
    00001651 3D               [ 4] 3834 	dec	a
    00001652 C2r14r18         [10] 3835 	jp	NZ,00216$
                                   3836 ;E:\Dropbox\FAUSTO\SVILUPPI\MSX\CODE\C\MSXgl\projects\soccerlgMSX2/soccerlg_s11_b3.c:380: if (is_celebrating && dy < 0 && dx == 0) return (step==0) ? SPR_T1_PLAYER_HAPPY_TO_NORTH_1 : (step==1) ? SPR_T1_PLAYER_HAPPY_TO_NORTH_2 : SPR_T1_PLAYER_HAPPY_TO_NORTH_3;
    00001655 DD 7E FE         [19] 3837 	ld	a, -2 (ix)
    00001658 B7               [ 4] 3838 	or	a, a
    00001659 28 28            [12] 3839 	jr	Z, 00152$
    0000165B DD CB 04 7E      [20] 3840 	bit	7, 4 (ix)
    0000165F 28 22            [12] 3841 	jr	Z, 00152$
    00001661 79               [ 4] 3842 	ld	a, c
    00001662 B7               [ 4] 3843 	or	a, a
    00001663 20 1E            [12] 3844 	jr	NZ, 00152$
    00001665 DD 7E 05         [19] 3845 	ld	a, 5 (ix)
    00001668 B7               [ 4] 3846 	or	a, a
    00001669 20 06            [12] 3847 	jr	NZ, 00304$
    0000166B 11 5C 00         [10] 3848 	ld	de, #0x005c
    0000166E C3rD4r19         [10] 3849 	jp	00221$
    00001671                       3850 00304$:
    00001671 DD 7E 05         [19] 3851 	ld	a, 5 (ix)
    00001674 3D               [ 4] 3852 	dec	a
    00001675 20 06            [12] 3853 	jr	NZ, 00306$
    00001677 11 5D 00         [10] 3854 	ld	de, #0x005d
    0000167A C3rD4r19         [10] 3855 	jp	00221$
    0000167D                       3856 00306$:
    0000167D 11 5E 00         [10] 3857 	ld	de, #0x005e
    00001680 C3rD4r19         [10] 3858 	jp	00221$
    00001683                       3859 00152$:
                                   3860 ;E:\Dropbox\FAUSTO\SVILUPPI\MSX\CODE\C\MSXgl\projects\soccerlgMSX2/soccerlg_s11_b3.c:381: if (is_celebrating && dy > 0 && dx == 0) return (step==0) ? SPR_T1_PLAYER_HAPPY_TO_SOUTH_1 : (step==1) ? SPR_T1_PLAYER_HAPPY_TO_SOUTH_2 : SPR_T1_PLAYER_HAPPY_TO_SOUTH_3;
    00001683 DD 7E FE         [19] 3861 	ld	a, -2 (ix)
    00001686 B7               [ 4] 3862 	or	a, a
    00001687 28 2E            [12] 3863 	jr	Z, 00156$
    00001689 AF               [ 4] 3864 	xor	a, a
    0000168A DD 96 04         [19] 3865 	sub	a, 4 (ix)
    0000168D E2r92r16         [10] 3866 	jp	PO, 01223$
    00001690 EE 80            [ 7] 3867 	xor	a, #0x80
    00001692                       3868 01223$:
    00001692 F2rB7r16         [10] 3869 	jp	P, 00156$
    00001695 79               [ 4] 3870 	ld	a, c
    00001696 B7               [ 4] 3871 	or	a, a
    00001697 20 1E            [12] 3872 	jr	NZ, 00156$
    00001699 DD 7E 05         [19] 3873 	ld	a, 5 (ix)
    0000169C B7               [ 4] 3874 	or	a, a
    0000169D 20 06            [12] 3875 	jr	NZ, 00308$
    0000169F 11 3C 00         [10] 3876 	ld	de, #0x003c
    000016A2 C3rD4r19         [10] 3877 	jp	00221$
    000016A5                       3878 00308$:
    000016A5 DD 7E 05         [19] 3879 	ld	a, 5 (ix)
    000016A8 3D               [ 4] 3880 	dec	a
    000016A9 20 06            [12] 3881 	jr	NZ, 00310$
    000016AB 11 3D 00         [10] 3882 	ld	de, #0x003d
    000016AE C3rD4r19         [10] 3883 	jp	00221$
    000016B1                       3884 00310$:
    000016B1 11 3E 00         [10] 3885 	ld	de, #0x003e
    000016B4 C3rD4r19         [10] 3886 	jp	00221$
    000016B7                       3887 00156$:
                                   3888 ;E:\Dropbox\FAUSTO\SVILUPPI\MSX\CODE\C\MSXgl\projects\soccerlgMSX2/soccerlg_s11_b3.c:383: if (dy < 0 && dx == 0) return (step==0) ? SPR_T1_PLAYER_NORTH_DIRECTION_1 : (step==1) ? SPR_T1_PLAYER_NORTH_DIRECTION_2 : SPR_T1_PLAYER_NORTH_DIRECTION_3;
    000016B7 DD 7E 04         [19] 3889 	ld	a, 4 (ix)
    000016BA 07               [ 4] 3890 	rlca
    000016BB E6 01            [ 7] 3891 	and	a,#0x01
    000016BD 47               [ 4] 3892 	ld	b, a
    000016BE B7               [ 4] 3893 	or	a, a
    000016BF 28 22            [12] 3894 	jr	Z, 00160$
    000016C1 79               [ 4] 3895 	ld	a, c
    000016C2 B7               [ 4] 3896 	or	a, a
    000016C3 20 1E            [12] 3897 	jr	NZ, 00160$
    000016C5 DD 7E 05         [19] 3898 	ld	a, 5 (ix)
    000016C8 B7               [ 4] 3899 	or	a, a
    000016C9 20 06            [12] 3900 	jr	NZ, 00312$
    000016CB 11 13 00         [10] 3901 	ld	de, #0x0013
    000016CE C3rD4r19         [10] 3902 	jp	00221$
    000016D1                       3903 00312$:
    000016D1 DD 7E 05         [19] 3904 	ld	a, 5 (ix)
    000016D4 3D               [ 4] 3905 	dec	a
    000016D5 20 06            [12] 3906 	jr	NZ, 00314$
    000016D7 11 14 00         [10] 3907 	ld	de, #0x0014
    000016DA C3rD4r19         [10] 3908 	jp	00221$
    000016DD                       3909 00314$:
    000016DD 11 15 00         [10] 3910 	ld	de, #0x0015
    000016E0 C3rD4r19         [10] 3911 	jp	00221$
    000016E3                       3912 00160$:
                                   3913 ;E:\Dropbox\FAUSTO\SVILUPPI\MSX\CODE\C\MSXgl\projects\soccerlgMSX2/soccerlg_s11_b3.c:384: if (dy > 0 && dx == 0) return (step==0) ? SPR_T1_PLAYER_SOUTH_DIRECTION_1 : (step==1) ? SPR_T1_PLAYER_SOUTH_DIRECTION_2 : SPR_T1_PLAYER_SOUTH_DIRECTION_3;
    000016E3 AF               [ 4] 3914 	xor	a, a
    000016E4 DD 96 04         [19] 3915 	sub	a, 4 (ix)
    000016E7 E2rECr16         [10] 3916 	jp	PO, 01228$
    000016EA EE 80            [ 7] 3917 	xor	a, #0x80
    000016EC                       3918 01228$:
    000016EC 07               [ 4] 3919 	rlca
    000016ED E6 01            [ 7] 3920 	and	a,#0x01
    000016EF 5F               [ 4] 3921 	ld	e, a
    000016F0 B7               [ 4] 3922 	or	a, a
    000016F1 28 22            [12] 3923 	jr	Z, 00163$
    000016F3 79               [ 4] 3924 	ld	a, c
    000016F4 B7               [ 4] 3925 	or	a, a
    000016F5 20 1E            [12] 3926 	jr	NZ, 00163$
    000016F7 DD 7E 05         [19] 3927 	ld	a, 5 (ix)
    000016FA B7               [ 4] 3928 	or	a, a
    000016FB 20 06            [12] 3929 	jr	NZ, 00316$
    000016FD 11 00 00         [10] 3930 	ld	de, #0x0000
    00001700 C3rD4r19         [10] 3931 	jp	00221$
    00001703                       3932 00316$:
    00001703 DD 7E 05         [19] 3933 	ld	a, 5 (ix)
    00001706 3D               [ 4] 3934 	dec	a
    00001707 20 06            [12] 3935 	jr	NZ, 00318$
    00001709 11 01 00         [10] 3936 	ld	de, #0x0001
    0000170C C3rD4r19         [10] 3937 	jp	00221$
    0000170F                       3938 00318$:
    0000170F 11 02 00         [10] 3939 	ld	de, #0x0002
    00001712 C3rD4r19         [10] 3940 	jp	00221$
    00001715                       3941 00163$:
                                   3942 ;E:\Dropbox\FAUSTO\SVILUPPI\MSX\CODE\C\MSXgl\projects\soccerlgMSX2/soccerlg_s11_b3.c:385: if (dy == 0 && dx > 0) return (step==0) ? SPR_T1_PLAYER_EAST_DIRECTION_1 : (step==1) ? SPR_T1_PLAYER_EAST_DIRECTION_2 : SPR_T1_PLAYER_EAST_DIRECTION_3;
    00001715 DD 7E 04         [19] 3943 	ld	a, 4 (ix)
    00001718 B7               [ 4] 3944 	or	a,a
    00001719 20 27            [12] 3945 	jr	NZ, 00166$
    0000171B 91               [ 4] 3946 	sub	a, c
    0000171C E2r21r17         [10] 3947 	jp	PO, 01231$
    0000171F EE 80            [ 7] 3948 	xor	a, #0x80
    00001721                       3949 01231$:
    00001721 F2r42r17         [10] 3950 	jp	P, 00166$
    00001724 DD 7E 05         [19] 3951 	ld	a, 5 (ix)
    00001727 B7               [ 4] 3952 	or	a, a
    00001728 20 06            [12] 3953 	jr	NZ, 00320$
    0000172A 11 1D 00         [10] 3954 	ld	de, #0x001d
    0000172D C3rD4r19         [10] 3955 	jp	00221$
    00001730                       3956 00320$:
    00001730 DD 7E 05         [19] 3957 	ld	a, 5 (ix)
    00001733 3D               [ 4] 3958 	dec	a
    00001734 20 06            [12] 3959 	jr	NZ, 00322$
    00001736 11 1C 00         [10] 3960 	ld	de, #0x001c
    00001739 C3rD4r19         [10] 3961 	jp	00221$
    0000173C                       3962 00322$:
    0000173C 11 1B 00         [10] 3963 	ld	de, #0x001b
    0000173F C3rD4r19         [10] 3964 	jp	00221$
    00001742                       3965 00166$:
                                   3966 ;E:\Dropbox\FAUSTO\SVILUPPI\MSX\CODE\C\MSXgl\projects\soccerlgMSX2/soccerlg_s11_b3.c:386: if (dy == 0 && dx < 0) return (step==0) ? SPR_T1_PLAYER_WEST_DIRECTION_1 : (step==1) ? SPR_T1_PLAYER_WEST_DIRECTION_2 : SPR_T1_PLAYER_WEST_DIRECTION_3;
    00001742 DD 7E 04         [19] 3967 	ld	a, 4 (ix)
    00001745 B7               [ 4] 3968 	or	a, a
    00001746 20 22            [12] 3969 	jr	NZ, 00169$
    00001748 CB 79            [ 8] 3970 	bit	7, c
    0000174A 28 1E            [12] 3971 	jr	Z, 00169$
    0000174C DD 7E 05         [19] 3972 	ld	a, 5 (ix)
    0000174F B7               [ 4] 3973 	or	a, a
    00001750 20 06            [12] 3974 	jr	NZ, 00324$
    00001752 11 18 00         [10] 3975 	ld	de, #0x0018
    00001755 C3rD4r19         [10] 3976 	jp	00221$
    00001758                       3977 00324$:
    00001758 DD 7E 05         [19] 3978 	ld	a, 5 (ix)
    0000175B 3D               [ 4] 3979 	dec	a
    0000175C 20 06            [12] 3980 	jr	NZ, 00326$
    0000175E 11 19 00         [10] 3981 	ld	de, #0x0019
    00001761 C3rD4r19         [10] 3982 	jp	00221$
    00001764                       3983 00326$:
    00001764 11 1A 00         [10] 3984 	ld	de, #0x001a
    00001767 C3rD4r19         [10] 3985 	jp	00221$
    0000176A                       3986 00169$:
                                   3987 ;E:\Dropbox\FAUSTO\SVILUPPI\MSX\CODE\C\MSXgl\projects\soccerlgMSX2/soccerlg_s11_b3.c:387: if (dy < 0 && dx > 0) return (step==0) ? SPR_T1_PLAYER_NORTH_EAST_DIRECTION_1 : (step==1) ? SPR_T1_PLAYER_NORTH_EAST_DIRECTION_2 : SPR_T1_PLAYER_NORTH_EAST_DIRECTION_3;
    0000176A 78               [ 4] 3988 	ld	a, b
    0000176B B7               [ 4] 3989 	or	a, a
    0000176C 28 28            [12] 3990 	jr	Z, 00172$
    0000176E AF               [ 4] 3991 	xor	a, a
    0000176F 91               [ 4] 3992 	sub	a, c
    00001770 E2r75r17         [10] 3993 	jp	PO, 01236$
    00001773 EE 80            [ 7] 3994 	xor	a, #0x80
    00001775                       3995 01236$:
    00001775 F2r96r17         [10] 3996 	jp	P, 00172$
    00001778 DD 7E 05         [19] 3997 	ld	a, 5 (ix)
    0000177B B7               [ 4] 3998 	or	a, a
    0000177C 20 06            [12] 3999 	jr	NZ, 00328$
    0000177E 11 0F 00         [10] 4000 	ld	de, #0x000f
    00001781 C3rD4r19         [10] 4001 	jp	00221$
    00001784                       4002 00328$:
    00001784 DD 7E 05         [19] 4003 	ld	a, 5 (ix)
    00001787 3D               [ 4] 4004 	dec	a
    00001788 20 06            [12] 4005 	jr	NZ, 00330$
    0000178A 11 0E 00         [10] 4006 	ld	de, #0x000e
    0000178D C3rD4r19         [10] 4007 	jp	00221$
    00001790                       4008 00330$:
    00001790 11 0D 00         [10] 4009 	ld	de, #0x000d
    00001793 C3rD4r19         [10] 4010 	jp	00221$
    00001796                       4011 00172$:
                                   4012 ;E:\Dropbox\FAUSTO\SVILUPPI\MSX\CODE\C\MSXgl\projects\soccerlgMSX2/soccerlg_s11_b3.c:388: if (dy < 0 && dx < 0) return (step==0) ? SPR_T1_PLAYER_NORTH_WEST_DIRECTION_1 : (step==1) ? SPR_T1_PLAYER_NORTH_WEST_DIRECTION_2 : SPR_T1_PLAYER_NORTH_WEST_DIRECTION_3;
    00001796 78               [ 4] 4013 	ld	a, b
    00001797 B7               [ 4] 4014 	or	a, a
    00001798 28 22            [12] 4015 	jr	Z, 00175$
    0000179A CB 79            [ 8] 4016 	bit	7, c
    0000179C 28 1E            [12] 4017 	jr	Z, 00175$
    0000179E DD 7E 05         [19] 4018 	ld	a, 5 (ix)
    000017A1 B7               [ 4] 4019 	or	a, a
    000017A2 20 06            [12] 4020 	jr	NZ, 00332$
    000017A4 11 10 00         [10] 4021 	ld	de, #0x0010
    000017A7 C3rD4r19         [10] 4022 	jp	00221$
    000017AA                       4023 00332$:
    000017AA DD 7E 05         [19] 4024 	ld	a, 5 (ix)
    000017AD 3D               [ 4] 4025 	dec	a
    000017AE 20 06            [12] 4026 	jr	NZ, 00334$
    000017B0 11 11 00         [10] 4027 	ld	de, #0x0011
    000017B3 C3rD4r19         [10] 4028 	jp	00221$
    000017B6                       4029 00334$:
    000017B6 11 12 00         [10] 4030 	ld	de, #0x0012
    000017B9 C3rD4r19         [10] 4031 	jp	00221$
    000017BC                       4032 00175$:
                                   4033 ;E:\Dropbox\FAUSTO\SVILUPPI\MSX\CODE\C\MSXgl\projects\soccerlgMSX2/soccerlg_s11_b3.c:389: if (dy > 0 && dx > 0) return (step==0) ? SPR_T1_PLAYER_SOUTH_EAST_DIRECTION_1 : (step==1) ? SPR_T1_PLAYER_SOUTH_EAST_DIRECTION_2 : SPR_T1_PLAYER_SOUTH_EAST_DIRECTION_3;
    000017BC 7B               [ 4] 4034 	ld	a, e
    000017BD B7               [ 4] 4035 	or	a, a
    000017BE 28 28            [12] 4036 	jr	Z, 00178$
    000017C0 AF               [ 4] 4037 	xor	a, a
    000017C1 91               [ 4] 4038 	sub	a, c
    000017C2 E2rC7r17         [10] 4039 	jp	PO, 01241$
    000017C5 EE 80            [ 7] 4040 	xor	a, #0x80
    000017C7                       4041 01241$:
    000017C7 F2rE8r17         [10] 4042 	jp	P, 00178$
    000017CA DD 7E 05         [19] 4043 	ld	a, 5 (ix)
    000017CD B7               [ 4] 4044 	or	a, a
    000017CE 20 06            [12] 4045 	jr	NZ, 00336$
    000017D0 11 0A 00         [10] 4046 	ld	de, #0x000a
    000017D3 C3rD4r19         [10] 4047 	jp	00221$
    000017D6                       4048 00336$:
    000017D6 DD 7E 05         [19] 4049 	ld	a, 5 (ix)
    000017D9 3D               [ 4] 4050 	dec	a
    000017DA 20 06            [12] 4051 	jr	NZ, 00338$
    000017DC 11 0B 00         [10] 4052 	ld	de, #0x000b
    000017DF C3rD4r19         [10] 4053 	jp	00221$
    000017E2                       4054 00338$:
    000017E2 11 0C 00         [10] 4055 	ld	de, #0x000c
    000017E5 C3rD4r19         [10] 4056 	jp	00221$
    000017E8                       4057 00178$:
                                   4058 ;E:\Dropbox\FAUSTO\SVILUPPI\MSX\CODE\C\MSXgl\projects\soccerlgMSX2/soccerlg_s11_b3.c:390: if (dy > 0 && dx < 0) return (step==0) ? SPR_T1_PLAYER_SOUTH_WEST_DIRECTION_1 : (step==1) ? SPR_T1_PLAYER_SOUTH_WEST_DIRECTION_2 : SPR_T1_PLAYER_SOUTH_WEST_DIRECTION_3;
    000017E8 7B               [ 4] 4059 	ld	a, e
    000017E9 B7               [ 4] 4060 	or	a, a
    000017EA 28 22            [12] 4061 	jr	Z, 00181$
    000017EC CB 79            [ 8] 4062 	bit	7, c
    000017EE 28 1E            [12] 4063 	jr	Z, 00181$
    000017F0 DD 7E 05         [19] 4064 	ld	a, 5 (ix)
    000017F3 B7               [ 4] 4065 	or	a, a
    000017F4 20 06            [12] 4066 	jr	NZ, 00340$
    000017F6 11 09 00         [10] 4067 	ld	de, #0x0009
    000017F9 C3rD4r19         [10] 4068 	jp	00221$
    000017FC                       4069 00340$:
    000017FC DD 7E 05         [19] 4070 	ld	a, 5 (ix)
    000017FF 3D               [ 4] 4071 	dec	a
    00001800 20 06            [12] 4072 	jr	NZ, 00342$
    00001802 11 08 00         [10] 4073 	ld	de, #0x0008
    00001805 C3rD4r19         [10] 4074 	jp	00221$
    00001808                       4075 00342$:
    00001808 11 07 00         [10] 4076 	ld	de, #0x0007
    0000180B C3rD4r19         [10] 4077 	jp	00221$
    0000180E                       4078 00181$:
                                   4079 ;E:\Dropbox\FAUSTO\SVILUPPI\MSX\CODE\C\MSXgl\projects\soccerlgMSX2/soccerlg_s11_b3.c:391: return SPR_T1_PLAYER_FACE_TO_SOUTH;
    0000180E 11 01 00         [10] 4080 	ld	de, #0x0001
    00001811 C3rD4r19         [10] 4081 	jp	00221$
    00001814                       4082 00216$:
                                   4083 ;E:\Dropbox\FAUSTO\SVILUPPI\MSX\CODE\C\MSXgl\projects\soccerlgMSX2/soccerlg_s11_b3.c:394: if (is_celebrating && dy < 0 && dx == 0) return (step==0) ? SPR_T2_PLAYER_HAPPY_TO_NORTH_1 : (step==1) ? SPR_T2_PLAYER_HAPPY_TO_NORTH_2 : SPR_T2_PLAYER_HAPPY_TO_NORTH_3;
    00001814 DD 7E FE         [19] 4084 	ld	a, -2 (ix)
    00001817 B7               [ 4] 4085 	or	a, a
    00001818 28 28            [12] 4086 	jr	Z, 00184$
    0000181A DD CB 04 7E      [20] 4087 	bit	7, 4 (ix)
    0000181E 28 22            [12] 4088 	jr	Z, 00184$
    00001820 79               [ 4] 4089 	ld	a, c
    00001821 B7               [ 4] 4090 	or	a, a
    00001822 20 1E            [12] 4091 	jr	NZ, 00184$
    00001824 DD 7E 05         [19] 4092 	ld	a, 5 (ix)
    00001827 B7               [ 4] 4093 	or	a, a
    00001828 20 06            [12] 4094 	jr	NZ, 00344$
    0000182A 11 CC 00         [10] 4095 	ld	de, #0x00cc
    0000182D C3rD4r19         [10] 4096 	jp	00221$
    00001830                       4097 00344$:
    00001830 DD 7E 05         [19] 4098 	ld	a, 5 (ix)
    00001833 3D               [ 4] 4099 	dec	a
    00001834 20 06            [12] 4100 	jr	NZ, 00346$
    00001836 11 CD 00         [10] 4101 	ld	de, #0x00cd
    00001839 C3rD4r19         [10] 4102 	jp	00221$
    0000183C                       4103 00346$:
    0000183C 11 CE 00         [10] 4104 	ld	de, #0x00ce
    0000183F C3rD4r19         [10] 4105 	jp	00221$
    00001842                       4106 00184$:
                                   4107 ;E:\Dropbox\FAUSTO\SVILUPPI\MSX\CODE\C\MSXgl\projects\soccerlgMSX2/soccerlg_s11_b3.c:395: if (is_celebrating && dy > 0 && dx == 0) return (step==0) ? SPR_T2_PLAYER_HAPPY_TO_SOUTH_1 : (step==1) ? SPR_T2_PLAYER_HAPPY_TO_SOUTH_2 : SPR_T2_PLAYER_HAPPY_TO_SOUTH_3;
    00001842 DD 7E FE         [19] 4108 	ld	a, -2 (ix)
    00001845 B7               [ 4] 4109 	or	a, a
    00001846 28 2E            [12] 4110 	jr	Z, 00188$
    00001848 AF               [ 4] 4111 	xor	a, a
    00001849 DD 96 04         [19] 4112 	sub	a, 4 (ix)
    0000184C E2r51r18         [10] 4113 	jp	PO, 01248$
    0000184F EE 80            [ 7] 4114 	xor	a, #0x80
    00001851                       4115 01248$:
    00001851 F2r76r18         [10] 4116 	jp	P, 00188$
    00001854 79               [ 4] 4117 	ld	a, c
    00001855 B7               [ 4] 4118 	or	a, a
    00001856 20 1E            [12] 4119 	jr	NZ, 00188$
    00001858 DD 7E 05         [19] 4120 	ld	a, 5 (ix)
    0000185B B7               [ 4] 4121 	or	a, a
    0000185C 20 06            [12] 4122 	jr	NZ, 00348$
    0000185E 11 9C 00         [10] 4123 	ld	de, #0x009c
    00001861 C3rD4r19         [10] 4124 	jp	00221$
    00001864                       4125 00348$:
    00001864 DD 7E 05         [19] 4126 	ld	a, 5 (ix)
    00001867 3D               [ 4] 4127 	dec	a
    00001868 20 06            [12] 4128 	jr	NZ, 00350$
    0000186A 11 9D 00         [10] 4129 	ld	de, #0x009d
    0000186D C3rD4r19         [10] 4130 	jp	00221$
    00001870                       4131 00350$:
    00001870 11 9E 00         [10] 4132 	ld	de, #0x009e
    00001873 C3rD4r19         [10] 4133 	jp	00221$
    00001876                       4134 00188$:
                                   4135 ;E:\Dropbox\FAUSTO\SVILUPPI\MSX\CODE\C\MSXgl\projects\soccerlgMSX2/soccerlg_s11_b3.c:397: if (dy < 0 && dx == 0) return (step==0) ? SPR_T2_PLAYER_NORTH_DIRECTION_1 : (step==1) ? SPR_T2_PLAYER_NORTH_DIRECTION_2 : SPR_T2_PLAYER_NORTH_DIRECTION_3;
    00001876 DD 7E 04         [19] 4136 	ld	a, 4 (ix)
    00001879 07               [ 4] 4137 	rlca
    0000187A E6 01            [ 7] 4138 	and	a,#0x01
    0000187C 47               [ 4] 4139 	ld	b, a
    0000187D B7               [ 4] 4140 	or	a, a
    0000187E 28 22            [12] 4141 	jr	Z, 00192$
    00001880 79               [ 4] 4142 	ld	a, c
    00001881 B7               [ 4] 4143 	or	a, a
    00001882 20 1E            [12] 4144 	jr	NZ, 00192$
    00001884 DD 7E 05         [19] 4145 	ld	a, 5 (ix)
    00001887 B7               [ 4] 4146 	or	a, a
    00001888 20 06            [12] 4147 	jr	NZ, 00352$
    0000188A 11 83 00         [10] 4148 	ld	de, #0x0083
    0000188D C3rD4r19         [10] 4149 	jp	00221$
    00001890                       4150 00352$:
    00001890 DD 7E 05         [19] 4151 	ld	a, 5 (ix)
    00001893 3D               [ 4] 4152 	dec	a
    00001894 20 06            [12] 4153 	jr	NZ, 00354$
    00001896 11 84 00         [10] 4154 	ld	de, #0x0084
    00001899 C3rD4r19         [10] 4155 	jp	00221$
    0000189C                       4156 00354$:
    0000189C 11 85 00         [10] 4157 	ld	de, #0x0085
    0000189F C3rD4r19         [10] 4158 	jp	00221$
    000018A2                       4159 00192$:
                                   4160 ;E:\Dropbox\FAUSTO\SVILUPPI\MSX\CODE\C\MSXgl\projects\soccerlgMSX2/soccerlg_s11_b3.c:398: if (dy > 0 && dx == 0) return (step==0) ? SPR_T2_PLAYER_SOUTH_DIRECTION_1 : (step==1) ? SPR_T2_PLAYER_SOUTH_DIRECTION_2 : SPR_T2_PLAYER_SOUTH_DIRECTION_3;
    000018A2 AF               [ 4] 4161 	xor	a, a
    000018A3 DD 96 04         [19] 4162 	sub	a, 4 (ix)
    000018A6 E2rABr18         [10] 4163 	jp	PO, 01253$
    000018A9 EE 80            [ 7] 4164 	xor	a, #0x80
    000018AB                       4165 01253$:
    000018AB 07               [ 4] 4166 	rlca
    000018AC E6 01            [ 7] 4167 	and	a,#0x01
    000018AE 5F               [ 4] 4168 	ld	e, a
    000018AF B7               [ 4] 4169 	or	a, a
    000018B0 28 22            [12] 4170 	jr	Z, 00195$
    000018B2 79               [ 4] 4171 	ld	a, c
    000018B3 B7               [ 4] 4172 	or	a, a
    000018B4 20 1E            [12] 4173 	jr	NZ, 00195$
    000018B6 DD 7E 05         [19] 4174 	ld	a, 5 (ix)
    000018B9 B7               [ 4] 4175 	or	a, a
    000018BA 20 06            [12] 4176 	jr	NZ, 00356$
    000018BC 11 70 00         [10] 4177 	ld	de, #0x0070
    000018BF C3rD4r19         [10] 4178 	jp	00221$
    000018C2                       4179 00356$:
    000018C2 DD 7E 05         [19] 4180 	ld	a, 5 (ix)
    000018C5 3D               [ 4] 4181 	dec	a
    000018C6 20 06            [12] 4182 	jr	NZ, 00358$
    000018C8 11 71 00         [10] 4183 	ld	de, #0x0071
    000018CB C3rD4r19         [10] 4184 	jp	00221$
    000018CE                       4185 00358$:
    000018CE 11 72 00         [10] 4186 	ld	de, #0x0072
    000018D1 C3rD4r19         [10] 4187 	jp	00221$
    000018D4                       4188 00195$:
                                   4189 ;E:\Dropbox\FAUSTO\SVILUPPI\MSX\CODE\C\MSXgl\projects\soccerlgMSX2/soccerlg_s11_b3.c:399: if (dy == 0 && dx > 0) return (step==0) ? SPR_T2_PLAYER_EAST_DIRECTION_1 : (step==1) ? SPR_T2_PLAYER_EAST_DIRECTION_2 : SPR_T2_PLAYER_EAST_DIRECTION_3;
    000018D4 DD 7E 04         [19] 4190 	ld	a, 4 (ix)
    000018D7 B7               [ 4] 4191 	or	a,a
    000018D8 20 27            [12] 4192 	jr	NZ, 00198$
    000018DA 91               [ 4] 4193 	sub	a, c
    000018DB E2rE0r18         [10] 4194 	jp	PO, 01256$
    000018DE EE 80            [ 7] 4195 	xor	a, #0x80
    000018E0                       4196 01256$:
    000018E0 F2r01r19         [10] 4197 	jp	P, 00198$
    000018E3 DD 7E 05         [19] 4198 	ld	a, 5 (ix)
    000018E6 B7               [ 4] 4199 	or	a, a
    000018E7 20 06            [12] 4200 	jr	NZ, 00360$
    000018E9 11 8D 00         [10] 4201 	ld	de, #0x008d
    000018EC C3rD4r19         [10] 4202 	jp	00221$
    000018EF                       4203 00360$:
    000018EF DD 7E 05         [19] 4204 	ld	a, 5 (ix)
    000018F2 3D               [ 4] 4205 	dec	a
    000018F3 20 06            [12] 4206 	jr	NZ, 00362$
    000018F5 11 8C 00         [10] 4207 	ld	de, #0x008c
    000018F8 C3rD4r19         [10] 4208 	jp	00221$
    000018FB                       4209 00362$:
    000018FB 11 8B 00         [10] 4210 	ld	de, #0x008b
    000018FE C3rD4r19         [10] 4211 	jp	00221$
    00001901                       4212 00198$:
                                   4213 ;E:\Dropbox\FAUSTO\SVILUPPI\MSX\CODE\C\MSXgl\projects\soccerlgMSX2/soccerlg_s11_b3.c:400: if (dy == 0 && dx < 0) return (step==0) ? SPR_T2_PLAYER_WEST_DIRECTION_1 : (step==1) ? SPR_T2_PLAYER_WEST_DIRECTION_2 : SPR_T2_PLAYER_WEST_DIRECTION_3;
    00001901 DD 7E 04         [19] 4214 	ld	a, 4 (ix)
    00001904 B7               [ 4] 4215 	or	a, a
    00001905 20 22            [12] 4216 	jr	NZ, 00201$
    00001907 CB 79            [ 8] 4217 	bit	7, c
    00001909 28 1E            [12] 4218 	jr	Z, 00201$
    0000190B DD 7E 05         [19] 4219 	ld	a, 5 (ix)
    0000190E B7               [ 4] 4220 	or	a, a
    0000190F 20 06            [12] 4221 	jr	NZ, 00364$
    00001911 11 88 00         [10] 4222 	ld	de, #0x0088
    00001914 C3rD4r19         [10] 4223 	jp	00221$
    00001917                       4224 00364$:
    00001917 DD 7E 05         [19] 4225 	ld	a, 5 (ix)
    0000191A 3D               [ 4] 4226 	dec	a
    0000191B 20 06            [12] 4227 	jr	NZ, 00366$
    0000191D 11 89 00         [10] 4228 	ld	de, #0x0089
    00001920 C3rD4r19         [10] 4229 	jp	00221$
    00001923                       4230 00366$:
    00001923 11 8A 00         [10] 4231 	ld	de, #0x008a
    00001926 C3rD4r19         [10] 4232 	jp	00221$
    00001929                       4233 00201$:
                                   4234 ;E:\Dropbox\FAUSTO\SVILUPPI\MSX\CODE\C\MSXgl\projects\soccerlgMSX2/soccerlg_s11_b3.c:401: if (dy < 0 && dx > 0) return (step==0) ? SPR_T2_PLAYER_NORTH_EAST_DIRECTION_1 : (step==1) ? SPR_T2_PLAYER_NORTH_EAST_DIRECTION_2 : SPR_T2_PLAYER_NORTH_EAST_DIRECTION_3;
    00001929 78               [ 4] 4235 	ld	a, b
    0000192A B7               [ 4] 4236 	or	a, a
    0000192B 28 28            [12] 4237 	jr	Z, 00204$
    0000192D AF               [ 4] 4238 	xor	a, a
    0000192E 91               [ 4] 4239 	sub	a, c
    0000192F E2r34r19         [10] 4240 	jp	PO, 01261$
    00001932 EE 80            [ 7] 4241 	xor	a, #0x80
    00001934                       4242 01261$:
    00001934 F2r55r19         [10] 4243 	jp	P, 00204$
    00001937 DD 7E 05         [19] 4244 	ld	a, 5 (ix)
    0000193A B7               [ 4] 4245 	or	a, a
    0000193B 20 06            [12] 4246 	jr	NZ, 00368$
    0000193D 11 7F 00         [10] 4247 	ld	de, #0x007f
    00001940 C3rD4r19         [10] 4248 	jp	00221$
    00001943                       4249 00368$:
    00001943 DD 7E 05         [19] 4250 	ld	a, 5 (ix)
    00001946 3D               [ 4] 4251 	dec	a
    00001947 20 06            [12] 4252 	jr	NZ, 00370$
    00001949 11 7E 00         [10] 4253 	ld	de, #0x007e
    0000194C C3rD4r19         [10] 4254 	jp	00221$
    0000194F                       4255 00370$:
    0000194F 11 7D 00         [10] 4256 	ld	de, #0x007d
    00001952 C3rD4r19         [10] 4257 	jp	00221$
    00001955                       4258 00204$:
                                   4259 ;E:\Dropbox\FAUSTO\SVILUPPI\MSX\CODE\C\MSXgl\projects\soccerlgMSX2/soccerlg_s11_b3.c:402: if (dy < 0 && dx < 0) return (step==0) ? SPR_T2_PLAYER_NORTH_WEST_DIRECTION_1 : (step==1) ? SPR_T2_PLAYER_NORTH_WEST_DIRECTION_2 : SPR_T2_PLAYER_NORTH_WEST_DIRECTION_3;
    00001955 78               [ 4] 4260 	ld	a, b
    00001956 B7               [ 4] 4261 	or	a, a
    00001957 28 22            [12] 4262 	jr	Z, 00207$
    00001959 CB 79            [ 8] 4263 	bit	7, c
    0000195B 28 1E            [12] 4264 	jr	Z, 00207$
    0000195D DD 7E 05         [19] 4265 	ld	a, 5 (ix)
    00001960 B7               [ 4] 4266 	or	a, a
    00001961 20 06            [12] 4267 	jr	NZ, 00372$
    00001963 11 80 00         [10] 4268 	ld	de, #0x0080
    00001966 C3rD4r19         [10] 4269 	jp	00221$
    00001969                       4270 00372$:
    00001969 DD 7E 05         [19] 4271 	ld	a, 5 (ix)
    0000196C 3D               [ 4] 4272 	dec	a
    0000196D 20 06            [12] 4273 	jr	NZ, 00374$
    0000196F 11 81 00         [10] 4274 	ld	de, #0x0081
    00001972 C3rD4r19         [10] 4275 	jp	00221$
    00001975                       4276 00374$:
    00001975 11 82 00         [10] 4277 	ld	de, #0x0082
    00001978 C3rD4r19         [10] 4278 	jp	00221$
    0000197B                       4279 00207$:
                                   4280 ;E:\Dropbox\FAUSTO\SVILUPPI\MSX\CODE\C\MSXgl\projects\soccerlgMSX2/soccerlg_s11_b3.c:403: if (dy > 0 && dx > 0) return (step==0) ? SPR_T2_PLAYER_SOUTH_EAST_DIRECTION_1 : (step==1) ? SPR_T2_PLAYER_SOUTH_EAST_DIRECTION_2 : SPR_T2_PLAYER_SOUTH_EAST_DIRECTION_3;
    0000197B 7B               [ 4] 4281 	ld	a, e
    0000197C B7               [ 4] 4282 	or	a, a
    0000197D 28 2A            [12] 4283 	jr	Z, 00210$
    0000197F AF               [ 4] 4284 	xor	a, a
    00001980 91               [ 4] 4285 	sub	a, c
    00001981 E2r86r19         [10] 4286 	jp	PO, 01266$
    00001984 EE 80            [ 7] 4287 	xor	a, #0x80
    00001986                       4288 01266$:
    00001986 F2rA9r19         [10] 4289 	jp	P, 00210$
    00001989 DD 7E 05         [19] 4290 	ld	a, 5 (ix)
    0000198C B7               [ 4] 4291 	or	a, a
    0000198D 20 06            [12] 4292 	jr	NZ, 00376$
    0000198F 01 7C 00         [10] 4293 	ld	bc, #0x007c
    00001992 C3rA4r19         [10] 4294 	jp	00377$
    00001995                       4295 00376$:
    00001995 DD 7E 05         [19] 4296 	ld	a, 5 (ix)
    00001998 3D               [ 4] 4297 	dec	a
    00001999 20 06            [12] 4298 	jr	NZ, 00378$
    0000199B 01 7B 00         [10] 4299 	ld	bc, #0x007b
    0000199E C3rA4r19         [10] 4300 	jp	00379$
    000019A1                       4301 00378$:
    000019A1 01 7A 00         [10] 4302 	ld	bc, #0x007a
    000019A4                       4303 00379$:
    000019A4                       4304 00377$:
    000019A4 59               [ 4] 4305 	ld	e, c
    000019A5 50               [ 4] 4306 	ld	d, b
    000019A6 C3rD4r19         [10] 4307 	jp	00221$
    000019A9                       4308 00210$:
                                   4309 ;E:\Dropbox\FAUSTO\SVILUPPI\MSX\CODE\C\MSXgl\projects\soccerlgMSX2/soccerlg_s11_b3.c:404: if (dy > 0 && dx < 0) return (step==0) ? SPR_T2_PLAYER_SOUTH_WEST_DIRECTION_1 : (step==1) ? SPR_T2_PLAYER_SOUTH_WEST_DIRECTION_2 : SPR_T2_PLAYER_SOUTH_WEST_DIRECTION_3;
    000019A9 7B               [ 4] 4310 	ld	a, e
    000019AA B7               [ 4] 4311 	or	a, a
    000019AB 28 24            [12] 4312 	jr	Z, 00213$
    000019AD CB 79            [ 8] 4313 	bit	7, c
    000019AF 28 20            [12] 4314 	jr	Z, 00213$
    000019B1 DD 7E 05         [19] 4315 	ld	a, 5 (ix)
    000019B4 B7               [ 4] 4316 	or	a, a
    000019B5 20 06            [12] 4317 	jr	NZ, 00380$
    000019B7 01 77 00         [10] 4318 	ld	bc, #0x0077
    000019BA C3rCCr19         [10] 4319 	jp	00381$
    000019BD                       4320 00380$:
    000019BD DD 7E 05         [19] 4321 	ld	a, 5 (ix)
    000019C0 3D               [ 4] 4322 	dec	a
    000019C1 20 06            [12] 4323 	jr	NZ, 00382$
    000019C3 01 78 00         [10] 4324 	ld	bc, #0x0078
    000019C6 C3rCCr19         [10] 4325 	jp	00383$
    000019C9                       4326 00382$:
    000019C9 01 79 00         [10] 4327 	ld	bc, #0x0079
    000019CC                       4328 00383$:
    000019CC                       4329 00381$:
    000019CC 59               [ 4] 4330 	ld	e, c
    000019CD 50               [ 4] 4331 	ld	d, b
    000019CE C3rD4r19         [10] 4332 	jp	00221$
    000019D1                       4333 00213$:
                                   4334 ;E:\Dropbox\FAUSTO\SVILUPPI\MSX\CODE\C\MSXgl\projects\soccerlgMSX2/soccerlg_s11_b3.c:405: return SPR_T2_PLAYER_FACE_TO_NORTH;
    000019D1 11 83 00         [10] 4335 	ld	de, #0x0083
    000019D4                       4336 00221$:
                                   4337 ;E:\Dropbox\FAUSTO\SVILUPPI\MSX\CODE\C\MSXgl\projects\soccerlgMSX2/soccerlg_s11_b3.c:407: }
    000019D4 DD F9            [10] 4338 	ld	sp, ix
    000019D6 DD E1            [14] 4339 	pop	ix
    000019D8 E1               [10] 4340 	pop	hl
    000019D9 F1               [10] 4341 	pop	af
    000019DA E9               [ 4] 4342 	jp	(hl)
                                   4343 ;E:\Dropbox\FAUSTO\SVILUPPI\MSX\CODE\C\MSXgl\projects\soccerlgMSX2/soccerlg_s11_b3.c:409: u16 GetPlayerIdleFrame(u8 i, i8 dx, i8 dy) 
                                   4344 ;	---------------------------------
                                   4345 ; Function GetPlayerIdleFrame
                                   4346 ; ---------------------------------
    000019DB                       4347 _GetPlayerIdleFrame::
    000019DB DD E5            [15] 4348 	push	ix
    000019DD DD 21 00 00      [14] 4349 	ld	ix,#0
    000019E1 DD 39            [15] 4350 	add	ix,sp
                                   4351 ;E:\Dropbox\FAUSTO\SVILUPPI\MSX\CODE\C\MSXgl\projects\soccerlgMSX2/soccerlg_s11_b3.c:411: bool is_gk = (i == 0 || i == 7);
    000019E3 4F               [ 4] 4352 	ld	c,a
    000019E4 B7               [ 4] 4353 	or	a,a
    000019E5 28 06            [12] 4354 	jr	Z, 00208$
    000019E7 D6 07            [ 7] 4355 	sub	a, #0x07
    000019E9 1E 00            [ 7] 4356 	ld	e, #0x00
    000019EB 20 02            [12] 4357 	jr	NZ, 00209$
    000019ED                       4358 00208$:
    000019ED 1E 01            [ 7] 4359 	ld	e, #0x01
    000019EF                       4360 00209$:
                                   4361 ;E:\Dropbox\FAUSTO\SVILUPPI\MSX\CODE\C\MSXgl\projects\soccerlgMSX2/soccerlg_s11_b3.c:413: if (dy < 0 && dx == 0) return SPR_REFEREE_PLAYER_FACE_TO_NORTH;
    000019EF DD 7E 04         [19] 4362 	ld	a, 4 (ix)
    000019F2 07               [ 4] 4363 	rlca
    000019F3 E6 01            [ 7] 4364 	and	a,#0x01
    000019F5 57               [ 4] 4365 	ld	d, a
                                   4366 ;E:\Dropbox\FAUSTO\SVILUPPI\MSX\CODE\C\MSXgl\projects\soccerlgMSX2/soccerlg_s11_b3.c:412: if (i == 26) { // Arbitro
    000019F6 79               [ 4] 4367 	ld	a, c
                                   4368 ;E:\Dropbox\FAUSTO\SVILUPPI\MSX\CODE\C\MSXgl\projects\soccerlgMSX2/soccerlg_s11_b3.c:413: if (dy < 0 && dx == 0) return SPR_REFEREE_PLAYER_FACE_TO_NORTH;
    000019F7 D6 1A            [ 7] 4369 	sub	a,#0x1a
    000019F9 C2r92r1A         [10] 4370 	jp	NZ,00126$
    000019FC B2               [ 4] 4371 	or	a,d
    000019FD 28 0A            [12] 4372 	jr	Z, 00102$
    000019FF 7D               [ 4] 4373 	ld	a, l
    00001A00 B7               [ 4] 4374 	or	a, a
    00001A01 20 06            [12] 4375 	jr	NZ, 00102$
    00001A03 11 05 01         [10] 4376 	ld	de, #0x0105
    00001A06 C3r6Br1C         [10] 4377 	jp	00205$
    00001A09                       4378 00102$:
                                   4379 ;E:\Dropbox\FAUSTO\SVILUPPI\MSX\CODE\C\MSXgl\projects\soccerlgMSX2/soccerlg_s11_b3.c:414: if (dy > 0 && dx == 0) return SPR_REFEREE_PLAYER_FACE_TO_SOUTH;
    00001A09 AF               [ 4] 4380 	xor	a, a
    00001A0A DD 96 04         [19] 4381 	sub	a, 4 (ix)
    00001A0D E2r12r1A         [10] 4382 	jp	PO, 00565$
    00001A10 EE 80            [ 7] 4383 	xor	a, #0x80
    00001A12                       4384 00565$:
    00001A12 07               [ 4] 4385 	rlca
    00001A13 E6 01            [ 7] 4386 	and	a,#0x01
    00001A15 4F               [ 4] 4387 	ld	c, a
    00001A16 B7               [ 4] 4388 	or	a, a
    00001A17 28 0A            [12] 4389 	jr	Z, 00105$
    00001A19 7D               [ 4] 4390 	ld	a, l
    00001A1A B7               [ 4] 4391 	or	a, a
    00001A1B 20 06            [12] 4392 	jr	NZ, 00105$
    00001A1D 11 06 01         [10] 4393 	ld	de, #0x0106
    00001A20 C3r6Br1C         [10] 4394 	jp	00205$
    00001A23                       4395 00105$:
                                   4396 ;E:\Dropbox\FAUSTO\SVILUPPI\MSX\CODE\C\MSXgl\projects\soccerlgMSX2/soccerlg_s11_b3.c:415: if (dy == 0 && dx > 0) return SPR_REFEREE_PLAYER_FACE_TO_EAST;
    00001A23 DD 7E 04         [19] 4397 	ld	a, 4 (ix)
    00001A26 B7               [ 4] 4398 	or	a,a
    00001A27 20 0F            [12] 4399 	jr	NZ, 00108$
    00001A29 95               [ 4] 4400 	sub	a, l
    00001A2A E2r2Fr1A         [10] 4401 	jp	PO, 00566$
    00001A2D EE 80            [ 7] 4402 	xor	a, #0x80
    00001A2F                       4403 00566$:
    00001A2F F2r38r1A         [10] 4404 	jp	P, 00108$
    00001A32 11 1A 01         [10] 4405 	ld	de, #0x011a
    00001A35 C3r6Br1C         [10] 4406 	jp	00205$
    00001A38                       4407 00108$:
                                   4408 ;E:\Dropbox\FAUSTO\SVILUPPI\MSX\CODE\C\MSXgl\projects\soccerlgMSX2/soccerlg_s11_b3.c:416: if (dy == 0 && dx < 0) return SPR_REFEREE_PLAYER_FACE_TO_WEST;
    00001A38 DD 7E 04         [19] 4409 	ld	a, 4 (ix)
    00001A3B B7               [ 4] 4410 	or	a, a
    00001A3C 20 0A            [12] 4411 	jr	NZ, 00111$
    00001A3E CB 7D            [ 8] 4412 	bit	7, l
    00001A40 28 06            [12] 4413 	jr	Z, 00111$
    00001A42 11 1B 01         [10] 4414 	ld	de, #0x011b
    00001A45 C3r6Br1C         [10] 4415 	jp	00205$
    00001A48                       4416 00111$:
                                   4417 ;E:\Dropbox\FAUSTO\SVILUPPI\MSX\CODE\C\MSXgl\projects\soccerlgMSX2/soccerlg_s11_b3.c:417: if (dy < 0 && dx > 0) return SPR_REFEREE_PLAYER_FACE_TO_NORTH_EAST;
    00001A48 7A               [ 4] 4418 	ld	a, d
    00001A49 B7               [ 4] 4419 	or	a, a
    00001A4A 28 10            [12] 4420 	jr	Z, 00114$
    00001A4C AF               [ 4] 4421 	xor	a, a
    00001A4D 95               [ 4] 4422 	sub	a, l
    00001A4E E2r53r1A         [10] 4423 	jp	PO, 00567$
    00001A51 EE 80            [ 7] 4424 	xor	a, #0x80
    00001A53                       4425 00567$:
    00001A53 F2r5Cr1A         [10] 4426 	jp	P, 00114$
    00001A56 11 10 01         [10] 4427 	ld	de, #0x0110
    00001A59 C3r6Br1C         [10] 4428 	jp	00205$
    00001A5C                       4429 00114$:
                                   4430 ;E:\Dropbox\FAUSTO\SVILUPPI\MSX\CODE\C\MSXgl\projects\soccerlgMSX2/soccerlg_s11_b3.c:418: if (dy < 0 && dx < 0) return SPR_REFEREE_PLAYER_FACE_TO_NORTH_WEST;
    00001A5C 7A               [ 4] 4431 	ld	a, d
    00001A5D B7               [ 4] 4432 	or	a, a
    00001A5E 28 0A            [12] 4433 	jr	Z, 00117$
    00001A60 CB 7D            [ 8] 4434 	bit	7, l
    00001A62 28 06            [12] 4435 	jr	Z, 00117$
    00001A64 11 0F 01         [10] 4436 	ld	de, #0x010f
    00001A67 C3r6Br1C         [10] 4437 	jp	00205$
    00001A6A                       4438 00117$:
                                   4439 ;E:\Dropbox\FAUSTO\SVILUPPI\MSX\CODE\C\MSXgl\projects\soccerlgMSX2/soccerlg_s11_b3.c:419: if (dy > 0 && dx > 0) return SPR_REFEREE_PLAYER_FACE_TO_SOUTH_EAST;
    00001A6A 79               [ 4] 4440 	ld	a, c
    00001A6B B7               [ 4] 4441 	or	a, a
    00001A6C 28 10            [12] 4442 	jr	Z, 00120$
    00001A6E AF               [ 4] 4443 	xor	a, a
    00001A6F 95               [ 4] 4444 	sub	a, l
    00001A70 E2r75r1A         [10] 4445 	jp	PO, 00568$
    00001A73 EE 80            [ 7] 4446 	xor	a, #0x80
    00001A75                       4447 00568$:
    00001A75 F2r7Er1A         [10] 4448 	jp	P, 00120$
    00001A78 11 09 01         [10] 4449 	ld	de, #0x0109
    00001A7B C3r6Br1C         [10] 4450 	jp	00205$
    00001A7E                       4451 00120$:
                                   4452 ;E:\Dropbox\FAUSTO\SVILUPPI\MSX\CODE\C\MSXgl\projects\soccerlgMSX2/soccerlg_s11_b3.c:420: if (dy > 0 && dx < 0) return SPR_REFEREE_PLAYER_FACE_TO_SOUTH_WEST;
    00001A7E 79               [ 4] 4453 	ld	a, c
    00001A7F B7               [ 4] 4454 	or	a, a
    00001A80 28 0A            [12] 4455 	jr	Z, 00123$
    00001A82 CB 7D            [ 8] 4456 	bit	7, l
    00001A84 28 06            [12] 4457 	jr	Z, 00123$
    00001A86 11 08 01         [10] 4458 	ld	de, #0x0108
    00001A89 C3r6Br1C         [10] 4459 	jp	00205$
    00001A8C                       4460 00123$:
                                   4461 ;E:\Dropbox\FAUSTO\SVILUPPI\MSX\CODE\C\MSXgl\projects\soccerlgMSX2/soccerlg_s11_b3.c:421: return SPR_REFEREE_PLAYER_FACE_TO_SOUTH;
    00001A8C 11 06 01         [10] 4462 	ld	de, #0x0106
    00001A8F C3r6Br1C         [10] 4463 	jp	00205$
    00001A92                       4464 00126$:
                                   4465 ;E:\Dropbox\FAUSTO\SVILUPPI\MSX\CODE\C\MSXgl\projects\soccerlgMSX2/soccerlg_s11_b3.c:423: u8 team = (i < 7) ? 1 : 2;
    00001A92 79               [ 4] 4466 	ld	a, c
    00001A93 D6 07            [ 7] 4467 	sub	a, #0x07
    00001A95 30 06            [12] 4468 	jr	NC, 00210$
    00001A97 01 01 00         [10] 4469 	ld	bc, #0x0001
    00001A9A C3rA0r1A         [10] 4470 	jp	00211$
    00001A9D                       4471 00210$:
    00001A9D 01 02 00         [10] 4472 	ld	bc, #0x0002
    00001AA0                       4473 00211$:
                                   4474 ;E:\Dropbox\FAUSTO\SVILUPPI\MSX\CODE\C\MSXgl\projects\soccerlgMSX2/soccerlg_s11_b3.c:425: if (is_gk) {
    00001AA0 7B               [ 4] 4475 	ld	a, e
    00001AA1 B7               [ 4] 4476 	or	a, a
    00001AA2 CAr3Cr1B         [10] 4477 	jp	Z, 00203$
                                   4478 ;E:\Dropbox\FAUSTO\SVILUPPI\MSX\CODE\C\MSXgl\projects\soccerlgMSX2/soccerlg_s11_b3.c:426: if (dy < 0 && dx == 0) return SPR_GK_PLAYER_FACE_TO_NORTH;
    00001AA5 7A               [ 4] 4479 	ld	a, d
    00001AA6 B7               [ 4] 4480 	or	a, a
    00001AA7 28 0A            [12] 4481 	jr	Z, 00128$
    00001AA9 7D               [ 4] 4482 	ld	a, l
    00001AAA B7               [ 4] 4483 	or	a, a
    00001AAB 20 06            [12] 4484 	jr	NZ, 00128$
    00001AAD 11 D6 00         [10] 4485 	ld	de, #0x00d6
    00001AB0 C3r6Br1C         [10] 4486 	jp	00205$
    00001AB3                       4487 00128$:
                                   4488 ;E:\Dropbox\FAUSTO\SVILUPPI\MSX\CODE\C\MSXgl\projects\soccerlgMSX2/soccerlg_s11_b3.c:427: if (dy > 0 && dx == 0) return SPR_GK_PLAYER_FACE_TO_SOUTH;
    00001AB3 AF               [ 4] 4489 	xor	a, a
    00001AB4 DD 96 04         [19] 4490 	sub	a, 4 (ix)
    00001AB7 E2rBCr1A         [10] 4491 	jp	PO, 00569$
    00001ABA EE 80            [ 7] 4492 	xor	a, #0x80
    00001ABC                       4493 00569$:
    00001ABC 07               [ 4] 4494 	rlca
    00001ABD E6 01            [ 7] 4495 	and	a,#0x01
    00001ABF 4F               [ 4] 4496 	ld	c, a
    00001AC0 B7               [ 4] 4497 	or	a, a
    00001AC1 28 0A            [12] 4498 	jr	Z, 00131$
    00001AC3 7D               [ 4] 4499 	ld	a, l
    00001AC4 B7               [ 4] 4500 	or	a, a
    00001AC5 20 06            [12] 4501 	jr	NZ, 00131$
    00001AC7 11 D5 00         [10] 4502 	ld	de, #0x00d5
    00001ACA C3r6Br1C         [10] 4503 	jp	00205$
    00001ACD                       4504 00131$:
                                   4505 ;E:\Dropbox\FAUSTO\SVILUPPI\MSX\CODE\C\MSXgl\projects\soccerlgMSX2/soccerlg_s11_b3.c:428: if (dy == 0 && dx > 0) return SPR_GK_PLAYER_FACE_TO_EAST;
    00001ACD DD 7E 04         [19] 4506 	ld	a, 4 (ix)
    00001AD0 B7               [ 4] 4507 	or	a,a
    00001AD1 20 0F            [12] 4508 	jr	NZ, 00134$
    00001AD3 95               [ 4] 4509 	sub	a, l
    00001AD4 E2rD9r1A         [10] 4510 	jp	PO, 00570$
    00001AD7 EE 80            [ 7] 4511 	xor	a, #0x80
    00001AD9                       4512 00570$:
    00001AD9 F2rE2r1A         [10] 4513 	jp	P, 00134$
    00001ADC 11 EA 00         [10] 4514 	ld	de, #0x00ea
    00001ADF C3r6Br1C         [10] 4515 	jp	00205$
    00001AE2                       4516 00134$:
                                   4517 ;E:\Dropbox\FAUSTO\SVILUPPI\MSX\CODE\C\MSXgl\projects\soccerlgMSX2/soccerlg_s11_b3.c:429: if (dy == 0 && dx < 0) return SPR_GK_PLAYER_FACE_TO_WEST;
    00001AE2 DD 7E 04         [19] 4518 	ld	a, 4 (ix)
    00001AE5 B7               [ 4] 4519 	or	a, a
    00001AE6 20 0A            [12] 4520 	jr	NZ, 00137$
    00001AE8 CB 7D            [ 8] 4521 	bit	7, l
    00001AEA 28 06            [12] 4522 	jr	Z, 00137$
    00001AEC 11 EB 00         [10] 4523 	ld	de, #0x00eb
    00001AEF C3r6Br1C         [10] 4524 	jp	00205$
    00001AF2                       4525 00137$:
                                   4526 ;E:\Dropbox\FAUSTO\SVILUPPI\MSX\CODE\C\MSXgl\projects\soccerlgMSX2/soccerlg_s11_b3.c:430: if (dy < 0 && dx > 0) return SPR_GK_PLAYER_FACE_TO_NORTH_EAST;
    00001AF2 7A               [ 4] 4527 	ld	a, d
    00001AF3 B7               [ 4] 4528 	or	a, a
    00001AF4 28 10            [12] 4529 	jr	Z, 00140$
    00001AF6 AF               [ 4] 4530 	xor	a, a
    00001AF7 95               [ 4] 4531 	sub	a, l
    00001AF8 E2rFDr1A         [10] 4532 	jp	PO, 00571$
    00001AFB EE 80            [ 7] 4533 	xor	a, #0x80
    00001AFD                       4534 00571$:
    00001AFD F2r06r1B         [10] 4535 	jp	P, 00140$
    00001B00 11 DF 00         [10] 4536 	ld	de, #0x00df
    00001B03 C3r6Br1C         [10] 4537 	jp	00205$
    00001B06                       4538 00140$:
                                   4539 ;E:\Dropbox\FAUSTO\SVILUPPI\MSX\CODE\C\MSXgl\projects\soccerlgMSX2/soccerlg_s11_b3.c:431: if (dy < 0 && dx < 0) return SPR_GK_PLAYER_FACE_TO_NORTH_WEST;
    00001B06 7A               [ 4] 4540 	ld	a, d
    00001B07 B7               [ 4] 4541 	or	a, a
    00001B08 28 0A            [12] 4542 	jr	Z, 00143$
    00001B0A CB 7D            [ 8] 4543 	bit	7, l
    00001B0C 28 06            [12] 4544 	jr	Z, 00143$
    00001B0E 11 E0 00         [10] 4545 	ld	de, #0x00e0
    00001B11 C3r6Br1C         [10] 4546 	jp	00205$
    00001B14                       4547 00143$:
                                   4548 ;E:\Dropbox\FAUSTO\SVILUPPI\MSX\CODE\C\MSXgl\projects\soccerlgMSX2/soccerlg_s11_b3.c:432: if (dy > 0 && dx > 0) return SPR_GK_PLAYER_FACE_TO_SOUTH_EAST;
    00001B14 79               [ 4] 4549 	ld	a, c
    00001B15 B7               [ 4] 4550 	or	a, a
    00001B16 28 10            [12] 4551 	jr	Z, 00146$
    00001B18 AF               [ 4] 4552 	xor	a, a
    00001B19 95               [ 4] 4553 	sub	a, l
    00001B1A E2r1Fr1B         [10] 4554 	jp	PO, 00572$
    00001B1D EE 80            [ 7] 4555 	xor	a, #0x80
    00001B1F                       4556 00572$:
    00001B1F F2r28r1B         [10] 4557 	jp	P, 00146$
    00001B22 11 EB 00         [10] 4558 	ld	de, #0x00eb
    00001B25 C3r6Br1C         [10] 4559 	jp	00205$
    00001B28                       4560 00146$:
                                   4561 ;E:\Dropbox\FAUSTO\SVILUPPI\MSX\CODE\C\MSXgl\projects\soccerlgMSX2/soccerlg_s11_b3.c:433: if (dy > 0 && dx < 0) return SPR_GK_PLAYER_FACE_TO_SOUTH_WEST;
    00001B28 79               [ 4] 4562 	ld	a, c
    00001B29 B7               [ 4] 4563 	or	a, a
    00001B2A 28 0A            [12] 4564 	jr	Z, 00149$
    00001B2C CB 7D            [ 8] 4565 	bit	7, l
    00001B2E 28 06            [12] 4566 	jr	Z, 00149$
    00001B30 11 EA 00         [10] 4567 	ld	de, #0x00ea
    00001B33 C3r6Br1C         [10] 4568 	jp	00205$
    00001B36                       4569 00149$:
                                   4570 ;E:\Dropbox\FAUSTO\SVILUPPI\MSX\CODE\C\MSXgl\projects\soccerlgMSX2/soccerlg_s11_b3.c:434: return SPR_GK_PLAYER_FACE_TO_SOUTH;
    00001B36 11 D5 00         [10] 4571 	ld	de, #0x00d5
    00001B39 C3r6Br1C         [10] 4572 	jp	00205$
    00001B3C                       4573 00203$:
                                   4574 ;E:\Dropbox\FAUSTO\SVILUPPI\MSX\CODE\C\MSXgl\projects\soccerlgMSX2/soccerlg_s11_b3.c:436: else if (team == 1) {
    00001B3C 0D               [ 4] 4575 	dec	c
    00001B3D C2rD7r1B         [10] 4576 	jp	NZ,00200$
                                   4577 ;E:\Dropbox\FAUSTO\SVILUPPI\MSX\CODE\C\MSXgl\projects\soccerlgMSX2/soccerlg_s11_b3.c:437: if (dy < 0 && dx == 0) return SPR_T1_PLAYER_FACE_TO_NORTH;
    00001B40 7A               [ 4] 4578 	ld	a, d
    00001B41 B7               [ 4] 4579 	or	a, a
    00001B42 28 0A            [12] 4580 	jr	Z, 00152$
    00001B44 7D               [ 4] 4581 	ld	a, l
    00001B45 B7               [ 4] 4582 	or	a, a
    00001B46 20 06            [12] 4583 	jr	NZ, 00152$
    00001B48 11 14 00         [10] 4584 	ld	de, #0x0014
    00001B4B C3r6Br1C         [10] 4585 	jp	00205$
    00001B4E                       4586 00152$:
                                   4587 ;E:\Dropbox\FAUSTO\SVILUPPI\MSX\CODE\C\MSXgl\projects\soccerlgMSX2/soccerlg_s11_b3.c:438: if (dy > 0 && dx == 0) return SPR_T1_PLAYER_FACE_TO_SOUTH;
    00001B4E AF               [ 4] 4588 	xor	a, a
    00001B4F DD 96 04         [19] 4589 	sub	a, 4 (ix)
    00001B52 E2r57r1B         [10] 4590 	jp	PO, 00575$
    00001B55 EE 80            [ 7] 4591 	xor	a, #0x80
    00001B57                       4592 00575$:
    00001B57 07               [ 4] 4593 	rlca
    00001B58 E6 01            [ 7] 4594 	and	a,#0x01
    00001B5A 4F               [ 4] 4595 	ld	c, a
    00001B5B B7               [ 4] 4596 	or	a, a
    00001B5C 28 0A            [12] 4597 	jr	Z, 00155$
    00001B5E 7D               [ 4] 4598 	ld	a, l
    00001B5F B7               [ 4] 4599 	or	a, a
    00001B60 20 06            [12] 4600 	jr	NZ, 00155$
    00001B62 11 01 00         [10] 4601 	ld	de, #0x0001
    00001B65 C3r6Br1C         [10] 4602 	jp	00205$
    00001B68                       4603 00155$:
                                   4604 ;E:\Dropbox\FAUSTO\SVILUPPI\MSX\CODE\C\MSXgl\projects\soccerlgMSX2/soccerlg_s11_b3.c:439: if (dy == 0 && dx > 0) return SPR_T1_PLAYER_FACE_TO_EAST;
    00001B68 DD 7E 04         [19] 4605 	ld	a, 4 (ix)
    00001B6B B7               [ 4] 4606 	or	a,a
    00001B6C 20 0F            [12] 4607 	jr	NZ, 00158$
    00001B6E 95               [ 4] 4608 	sub	a, l
    00001B6F E2r74r1B         [10] 4609 	jp	PO, 00576$
    00001B72 EE 80            [ 7] 4610 	xor	a, #0x80
    00001B74                       4611 00576$:
    00001B74 F2r7Dr1B         [10] 4612 	jp	P, 00158$
    00001B77 11 1A 00         [10] 4613 	ld	de, #0x001a
    00001B7A C3r6Br1C         [10] 4614 	jp	00205$
    00001B7D                       4615 00158$:
                                   4616 ;E:\Dropbox\FAUSTO\SVILUPPI\MSX\CODE\C\MSXgl\projects\soccerlgMSX2/soccerlg_s11_b3.c:440: if (dy == 0 && dx < 0) return SPR_T1_PLAYER_FACE_TO_WEST;
    00001B7D DD 7E 04         [19] 4617 	ld	a, 4 (ix)
    00001B80 B7               [ 4] 4618 	or	a, a
    00001B81 20 0A            [12] 4619 	jr	NZ, 00161$
    00001B83 CB 7D            [ 8] 4620 	bit	7, l
    00001B85 28 06            [12] 4621 	jr	Z, 00161$
    00001B87 11 1B 00         [10] 4622 	ld	de, #0x001b
    00001B8A C3r6Br1C         [10] 4623 	jp	00205$
    00001B8D                       4624 00161$:
                                   4625 ;E:\Dropbox\FAUSTO\SVILUPPI\MSX\CODE\C\MSXgl\projects\soccerlgMSX2/soccerlg_s11_b3.c:441: if (dy < 0 && dx > 0) return SPR_T1_PLAYER_FACE_TO_NORTH_EAST;
    00001B8D 7A               [ 4] 4626 	ld	a, d
    00001B8E B7               [ 4] 4627 	or	a, a
    00001B8F 28 10            [12] 4628 	jr	Z, 00164$
    00001B91 AF               [ 4] 4629 	xor	a, a
    00001B92 95               [ 4] 4630 	sub	a, l
    00001B93 E2r98r1B         [10] 4631 	jp	PO, 00577$
    00001B96 EE 80            [ 7] 4632 	xor	a, #0x80
    00001B98                       4633 00577$:
    00001B98 F2rA1r1B         [10] 4634 	jp	P, 00164$
    00001B9B 11 0F 00         [10] 4635 	ld	de, #0x000f
    00001B9E C3r6Br1C         [10] 4636 	jp	00205$
    00001BA1                       4637 00164$:
                                   4638 ;E:\Dropbox\FAUSTO\SVILUPPI\MSX\CODE\C\MSXgl\projects\soccerlgMSX2/soccerlg_s11_b3.c:442: if (dy < 0 && dx < 0) return SPR_T1_PLAYER_FACE_TO_NORTH_WEST;
    00001BA1 7A               [ 4] 4639 	ld	a, d
    00001BA2 B7               [ 4] 4640 	or	a, a
    00001BA3 28 0A            [12] 4641 	jr	Z, 00167$
    00001BA5 CB 7D            [ 8] 4642 	bit	7, l
    00001BA7 28 06            [12] 4643 	jr	Z, 00167$
    00001BA9 11 10 00         [10] 4644 	ld	de, #0x0010
    00001BAC C3r6Br1C         [10] 4645 	jp	00205$
    00001BAF                       4646 00167$:
                                   4647 ;E:\Dropbox\FAUSTO\SVILUPPI\MSX\CODE\C\MSXgl\projects\soccerlgMSX2/soccerlg_s11_b3.c:443: if (dy > 0 && dx > 0) return SPR_T1_PLAYER_FACE_TO_SOUTH_EAST;
    00001BAF 79               [ 4] 4648 	ld	a, c
    00001BB0 B7               [ 4] 4649 	or	a, a
    00001BB1 28 10            [12] 4650 	jr	Z, 00170$
    00001BB3 AF               [ 4] 4651 	xor	a, a
    00001BB4 95               [ 4] 4652 	sub	a, l
    00001BB5 E2rBAr1B         [10] 4653 	jp	PO, 00578$
    00001BB8 EE 80            [ 7] 4654 	xor	a, #0x80
    00001BBA                       4655 00578$:
    00001BBA F2rC3r1B         [10] 4656 	jp	P, 00170$
    00001BBD 11 1B 00         [10] 4657 	ld	de, #0x001b
    00001BC0 C3r6Br1C         [10] 4658 	jp	00205$
    00001BC3                       4659 00170$:
                                   4660 ;E:\Dropbox\FAUSTO\SVILUPPI\MSX\CODE\C\MSXgl\projects\soccerlgMSX2/soccerlg_s11_b3.c:444: if (dy > 0 && dx < 0) return SPR_T1_PLAYER_FACE_TO_SOUTH_WEST;
    00001BC3 79               [ 4] 4661 	ld	a, c
    00001BC4 B7               [ 4] 4662 	or	a, a
    00001BC5 28 0A            [12] 4663 	jr	Z, 00173$
    00001BC7 CB 7D            [ 8] 4664 	bit	7, l
    00001BC9 28 06            [12] 4665 	jr	Z, 00173$
    00001BCB 11 1A 00         [10] 4666 	ld	de, #0x001a
    00001BCE C3r6Br1C         [10] 4667 	jp	00205$
    00001BD1                       4668 00173$:
                                   4669 ;E:\Dropbox\FAUSTO\SVILUPPI\MSX\CODE\C\MSXgl\projects\soccerlgMSX2/soccerlg_s11_b3.c:445: return SPR_T1_PLAYER_FACE_TO_SOUTH;
    00001BD1 11 01 00         [10] 4670 	ld	de, #0x0001
    00001BD4 C3r6Br1C         [10] 4671 	jp	00205$
    00001BD7                       4672 00200$:
                                   4673 ;E:\Dropbox\FAUSTO\SVILUPPI\MSX\CODE\C\MSXgl\projects\soccerlgMSX2/soccerlg_s11_b3.c:448: if (dy < 0 && dx == 0) return SPR_T2_PLAYER_FACE_TO_NORTH;
    00001BD7 7A               [ 4] 4674 	ld	a, d
    00001BD8 B7               [ 4] 4675 	or	a, a
    00001BD9 28 0A            [12] 4676 	jr	Z, 00176$
    00001BDB 7D               [ 4] 4677 	ld	a, l
    00001BDC B7               [ 4] 4678 	or	a, a
    00001BDD 20 06            [12] 4679 	jr	NZ, 00176$
    00001BDF 11 83 00         [10] 4680 	ld	de, #0x0083
    00001BE2 C3r6Br1C         [10] 4681 	jp	00205$
    00001BE5                       4682 00176$:
                                   4683 ;E:\Dropbox\FAUSTO\SVILUPPI\MSX\CODE\C\MSXgl\projects\soccerlgMSX2/soccerlg_s11_b3.c:449: if (dy > 0 && dx == 0) return SPR_T2_PLAYER_FACE_TO_SOUTH;
    00001BE5 AF               [ 4] 4684 	xor	a, a
    00001BE6 DD 96 04         [19] 4685 	sub	a, 4 (ix)
    00001BE9 E2rEEr1B         [10] 4686 	jp	PO, 00579$
    00001BEC EE 80            [ 7] 4687 	xor	a, #0x80
    00001BEE                       4688 00579$:
    00001BEE 07               [ 4] 4689 	rlca
    00001BEF E6 01            [ 7] 4690 	and	a,#0x01
    00001BF1 4F               [ 4] 4691 	ld	c, a
    00001BF2 B7               [ 4] 4692 	or	a, a
    00001BF3 28 0A            [12] 4693 	jr	Z, 00179$
    00001BF5 7D               [ 4] 4694 	ld	a, l
    00001BF6 B7               [ 4] 4695 	or	a, a
    00001BF7 20 06            [12] 4696 	jr	NZ, 00179$
    00001BF9 11 70 00         [10] 4697 	ld	de, #0x0070
    00001BFC C3r6Br1C         [10] 4698 	jp	00205$
    00001BFF                       4699 00179$:
                                   4700 ;E:\Dropbox\FAUSTO\SVILUPPI\MSX\CODE\C\MSXgl\projects\soccerlgMSX2/soccerlg_s11_b3.c:450: if (dy == 0 && dx > 0) return SPR_T2_PLAYER_FACE_TO_EAST;
    00001BFF DD 7E 04         [19] 4701 	ld	a, 4 (ix)
    00001C02 B7               [ 4] 4702 	or	a,a
    00001C03 20 0F            [12] 4703 	jr	NZ, 00182$
    00001C05 95               [ 4] 4704 	sub	a, l
    00001C06 E2r0Br1C         [10] 4705 	jp	PO, 00580$
    00001C09 EE 80            [ 7] 4706 	xor	a, #0x80
    00001C0B                       4707 00580$:
    00001C0B F2r14r1C         [10] 4708 	jp	P, 00182$
    00001C0E 11 8B 00         [10] 4709 	ld	de, #0x008b
    00001C11 C3r6Br1C         [10] 4710 	jp	00205$
    00001C14                       4711 00182$:
                                   4712 ;E:\Dropbox\FAUSTO\SVILUPPI\MSX\CODE\C\MSXgl\projects\soccerlgMSX2/soccerlg_s11_b3.c:451: if (dy == 0 && dx < 0) return SPR_T2_PLAYER_FACE_TO_WEST;
    00001C14 DD 7E 04         [19] 4713 	ld	a, 4 (ix)
    00001C17 B7               [ 4] 4714 	or	a, a
    00001C18 20 0A            [12] 4715 	jr	NZ, 00185$
    00001C1A CB 7D            [ 8] 4716 	bit	7, l
    00001C1C 28 06            [12] 4717 	jr	Z, 00185$
    00001C1E 11 8A 00         [10] 4718 	ld	de, #0x008a
    00001C21 C3r6Br1C         [10] 4719 	jp	00205$
    00001C24                       4720 00185$:
                                   4721 ;E:\Dropbox\FAUSTO\SVILUPPI\MSX\CODE\C\MSXgl\projects\soccerlgMSX2/soccerlg_s11_b3.c:452: if (dy < 0 && dx > 0) return SPR_T2_PLAYER_FACE_TO_NORTH_EAST;
    00001C24 7A               [ 4] 4722 	ld	a, d
    00001C25 B7               [ 4] 4723 	or	a, a
    00001C26 28 10            [12] 4724 	jr	Z, 00188$
    00001C28 AF               [ 4] 4725 	xor	a, a
    00001C29 95               [ 4] 4726 	sub	a, l
    00001C2A E2r2Fr1C         [10] 4727 	jp	PO, 00581$
    00001C2D EE 80            [ 7] 4728 	xor	a, #0x80
    00001C2F                       4729 00581$:
    00001C2F F2r38r1C         [10] 4730 	jp	P, 00188$
    00001C32 11 7F 00         [10] 4731 	ld	de, #0x007f
    00001C35 C3r6Br1C         [10] 4732 	jp	00205$
    00001C38                       4733 00188$:
                                   4734 ;E:\Dropbox\FAUSTO\SVILUPPI\MSX\CODE\C\MSXgl\projects\soccerlgMSX2/soccerlg_s11_b3.c:453: if (dy < 0 && dx < 0) return SPR_T2_PLAYER_FACE_TO_NORTH_WEST;
    00001C38 7A               [ 4] 4735 	ld	a, d
    00001C39 B7               [ 4] 4736 	or	a, a
    00001C3A 28 0A            [12] 4737 	jr	Z, 00191$
    00001C3C CB 7D            [ 8] 4738 	bit	7, l
    00001C3E 28 06            [12] 4739 	jr	Z, 00191$
    00001C40 11 80 00         [10] 4740 	ld	de, #0x0080
    00001C43 C3r6Br1C         [10] 4741 	jp	00205$
    00001C46                       4742 00191$:
                                   4743 ;E:\Dropbox\FAUSTO\SVILUPPI\MSX\CODE\C\MSXgl\projects\soccerlgMSX2/soccerlg_s11_b3.c:454: if (dy > 0 && dx > 0) return SPR_T2_PLAYER_FACE_TO_SOUTH_EAST;
    00001C46 79               [ 4] 4744 	ld	a, c
    00001C47 B7               [ 4] 4745 	or	a, a
    00001C48 28 10            [12] 4746 	jr	Z, 00194$
    00001C4A AF               [ 4] 4747 	xor	a, a
    00001C4B 95               [ 4] 4748 	sub	a, l
    00001C4C E2r51r1C         [10] 4749 	jp	PO, 00582$
    00001C4F EE 80            [ 7] 4750 	xor	a, #0x80
    00001C51                       4751 00582$:
    00001C51 F2r5Ar1C         [10] 4752 	jp	P, 00194$
    00001C54 11 8B 00         [10] 4753 	ld	de, #0x008b
    00001C57 C3r6Br1C         [10] 4754 	jp	00205$
    00001C5A                       4755 00194$:
                                   4756 ;E:\Dropbox\FAUSTO\SVILUPPI\MSX\CODE\C\MSXgl\projects\soccerlgMSX2/soccerlg_s11_b3.c:455: if (dy > 0 && dx < 0) return SPR_T2_PLAYER_FACE_TO_SOUTH_WEST;
    00001C5A 79               [ 4] 4757 	ld	a, c
    00001C5B B7               [ 4] 4758 	or	a, a
    00001C5C 28 0A            [12] 4759 	jr	Z, 00197$
    00001C5E CB 7D            [ 8] 4760 	bit	7, l
    00001C60 28 06            [12] 4761 	jr	Z, 00197$
    00001C62 11 8A 00         [10] 4762 	ld	de, #0x008a
    00001C65 C3r6Br1C         [10] 4763 	jp	00205$
    00001C68                       4764 00197$:
                                   4765 ;E:\Dropbox\FAUSTO\SVILUPPI\MSX\CODE\C\MSXgl\projects\soccerlgMSX2/soccerlg_s11_b3.c:456: return SPR_T2_PLAYER_FACE_TO_NORTH;
    00001C68 11 83 00         [10] 4766 	ld	de, #0x0083
    00001C6B                       4767 00205$:
                                   4768 ;E:\Dropbox\FAUSTO\SVILUPPI\MSX\CODE\C\MSXgl\projects\soccerlgMSX2/soccerlg_s11_b3.c:458: }
    00001C6B DD E1            [14] 4769 	pop	ix
    00001C6D E1               [10] 4770 	pop	hl
    00001C6E 33               [ 6] 4771 	inc	sp
    00001C6F E9               [ 4] 4772 	jp	(hl)
                                   4773 	.area _SEG11
                                   4774 	.area _INITIALIZER
                                   4775 	.area _CABS (ABS)
