                                      1 ;--------------------------------------------------------
                                      2 ; File Created by SDCC : free open source ANSI-C Compiler
                                      3 ; Version 4.2.0 #13081 (MINGW64)
                                      4 ;--------------------------------------------------------
                                      5 	.module soccerlg_s5_b3
                                      6 	.optsdcc -mz80
                                      7 	
                                      8 ;--------------------------------------------------------
                                      9 ; Public variables in this module
                                     10 ;--------------------------------------------------------
                                     11 	.globl _CallSpriteFrame_B3
                                     12 	.globl _VPD_CommandSetupR32
                                     13 	.globl _g_SLTSL
                                     14 	.globl _g_GRPACY
                                     15 	.globl _g_GRPACX
                                     16 	.globl _g_LOGOPR
                                     17 	.globl _g_CMASK
                                     18 	.globl _g_CLOC
                                     19 	.globl _g_FNKSTR
                                     20 	.globl _g_ATRBYT
                                     21 	.globl _g_BDRCLR
                                     22 	.globl _g_BAKCLR
                                     23 	.globl _g_FORCLR
                                     24 	.globl _g_CSRX
                                     25 	.globl _g_CSRY
                                     26 	.globl _g_CLIKSW
                                     27 	.globl _g_MLTPAT
                                     28 	.globl _g_MLTATR
                                     29 	.globl _g_MLTCGP
                                     30 	.globl _g_MLTCOL
                                     31 	.globl _g_MLTNAM
                                     32 	.globl _g_GRPPAT
                                     33 	.globl _g_GRPATR
                                     34 	.globl _g_GRPCGP
                                     35 	.globl _g_GRPCOL
                                     36 	.globl _g_GRPNAM
                                     37 	.globl _g_T32PAT
                                     38 	.globl _g_T32ATR
                                     39 	.globl _g_T32CGP
                                     40 	.globl _g_T32COL
                                     41 	.globl _g_T32NAM
                                     42 	.globl _g_TXTPAT
                                     43 	.globl _g_TXTATR
                                     44 	.globl _g_TXTCGP
                                     45 	.globl _g_TXTCOL
                                     46 	.globl _g_TXTNAM
                                     47 	.globl _g_CLMLST
                                     48 	.globl _g_CRTCNT
                                     49 	.globl _g_LINLEN
                                     50 	.globl _g_LINL32
                                     51 	.globl _g_LINL40
                                     52 	.globl _g_BDOS
                                     53 	.globl _g_MASTER
                                     54 	.globl _g_RAMAD3
                                     55 	.globl _g_RAMAD2
                                     56 	.globl _g_RAMAD1
                                     57 	.globl _g_RAMAD0
                                     58 	.globl _g_BREAKV
                                     59 	.globl _g_DISKVE
                                     60 	.globl _g_KANJTABLE
                                     61 	.globl _g_STRSRC
                                     62 	.globl _g_SUBRID
                                     63 	.globl _g_CHAR_16
                                     64 	.globl _g_MSXMID
                                     65 	.globl _g_MSXVER
                                     66 	.globl _g_ROMVersion
                                     67 	.globl _g_BASRVN
                                     68 	.globl _g_VDP_DW
                                     69 	.globl _g_VDP_DR
                                     70 	.globl _g_CGTABL
                                     71 	.globl _g_SVFFFD
                                     72 	.globl _g_RG27SAV
                                     73 	.globl _g_RG26SAV
                                     74 	.globl _g_RG25SAV
                                     75 	.globl _g_SVFFF8
                                     76 	.globl _g_MINROM
                                     77 	.globl _g_RG23SAV
                                     78 	.globl _g_RG22SAV
                                     79 	.globl _g_RG21SAV
                                     80 	.globl _g_RG20SAV
                                     81 	.globl _g_RG19SAV
                                     82 	.globl _g_RG18SAV
                                     83 	.globl _g_RG17SAV
                                     84 	.globl _g_RG16SAV
                                     85 	.globl _g_RG15SAV
                                     86 	.globl _g_RG14SAV
                                     87 	.globl _g_RG13SAV
                                     88 	.globl _g_RG12SAV
                                     89 	.globl _g_RG11SAV
                                     90 	.globl _g_RG10SAV
                                     91 	.globl _g_RG09SAV
                                     92 	.globl _g_RG08SAV
                                     93 	.globl _g_PROCNM
                                     94 	.globl _g_SLTWRK
                                     95 	.globl _g_SLTATR
                                     96 	.globl _g_SLTTBL
                                     97 	.globl _g_EXPTBL
                                     98 	.globl _g_MNROM
                                     99 	.globl _g_DRWANG
                                    100 	.globl _g_DRWSCL
                                    101 	.globl _g_DRWFLG
                                    102 	.globl _g_GYPOS
                                    103 	.globl _g_GXPOS
                                    104 	.globl _g_BRDATR
                                    105 	.globl _g_CASPRV
                                    106 	.globl _g_OLDSCR
                                    107 	.globl _g_SCRMOD
                                    108 	.globl _g_FLBMEM
                                    109 	.globl _g_KANAMD
                                    110 	.globl _g_KANAST
                                    111 	.globl _g_CAPST
                                    112 	.globl _g_CSTYLE
                                    113 	.globl _g_CSRSW
                                    114 	.globl _g_INSFLG
                                    115 	.globl _g_ESCCNT
                                    116 	.globl _g_GRPHED
                                    117 	.globl _g_WINWID
                                    118 	.globl _g_LOWLIM
                                    119 	.globl _g_INTCNT
                                    120 	.globl _g_INTVAL
                                    121 	.globl _g_JIFFY
                                    122 	.globl _g_PADX
                                    123 	.globl _g_PADY
                                    124 	.globl _g_INTFLG
                                    125 	.globl _g_RTYCNT
                                    126 	.globl _g_TRPTBL
                                    127 	.globl _g_HIMEM
                                    128 	.globl _g_BOTTOM
                                    129 	.globl _g_PATWRK
                                    130 	.globl _g_LINWRK
                                    131 	.globl _g_KEYBUF
                                    132 	.globl _g_NEWKEY
                                    133 	.globl _g_OLDKEY
                                    134 	.globl _g_CLIKFL
                                    135 	.globl _g_ONGSBF
                                    136 	.globl _g_FNKFLG
                                    137 	.globl _g_FNKSWI
                                    138 	.globl _g_CODSAV
                                    139 	.globl _g_FSTPOS
                                    140 	.globl _g_LINTTB
                                    141 	.globl _g_BASROM
                                    142 	.globl _g_ENSTOP
                                    143 	.globl _g_VCBC
                                    144 	.globl _g_VCBB
                                    145 	.globl _g_VCBA
                                    146 	.globl _g_PLYCNT
                                    147 	.globl _g_MUSICF
                                    148 	.globl _g_QUEUEN
                                    149 	.globl _g_MCLPTR
                                    150 	.globl _g_MCLLEN
                                    151 	.globl _g_SAVVOL
                                    152 	.globl _g_VOICEN
                                    153 	.globl _g_SAVSP
                                    154 	.globl _g_PRSCNT
                                    155 	.globl _g_LSTMOD
                                    156 	.globl _g_LSTCOM
                                    157 	.globl _g_COMMSK
                                    158 	.globl _g_ESTBLS
                                    159 	.globl _g_FLAGS
                                    160 	.globl _g_ERRORS
                                    161 	.globl _g_DATCNT
                                    162 	.globl _g_DEVNUM
                                    163 	.globl _g_OLDINT
                                    164 	.globl _g_OLDSTT
                                    165 	.globl _g_MEXBIh
                                    166 	.globl _g_RSIQLN
                                    167 	.globl _g_RSFCB
                                    168 	.globl _g_TOCNT
                                    169 	.globl _g_RSTMP
                                    170 	.globl _g_YSAVE
                                    171 	.globl _g_XSAVE
                                    172 	.globl _g_NORUSE
                                    173 	.globl _g_MODE
                                    174 	.globl _g_ROMA
                                    175 	.globl _g_CHRCNT
                                    176 	.globl _g_EXBRSA
                                    177 	.globl _g_AVCSAV
                                    178 	.globl _g_ACPAGE
                                    179 	.globl _g_DPPAGE
                                    180 	.globl _g_RS2IQ
                                    181 	.globl _g_VOICCQ
                                    182 	.globl _g_VOICBQ
                                    183 	.globl _g_VOICAQ
                                    184 	.globl _g_QUEBAK
                                    185 	.globl _g_QUETAB
                                    186 	.globl _g_ASPCT2
                                    187 	.globl _g_ASPCT1
                                    188 	.globl _g_HEADER
                                    189 	.globl _g_HIGH
                                    190 	.globl _g_LOW
                                    191 	.globl _g_CS240
                                    192 	.globl _g_CS120
                                    193 	.globl _g_GETPNT
                                    194 	.globl _g_PUTPNT
                                    195 	.globl _g_REPCNT
                                    196 	.globl _g_SCNCNT
                                    197 	.globl _g_FRCNEW
                                    198 	.globl _g_QUEUES
                                    199 	.globl _g_MINUPD
                                    200 	.globl _g_MAXUPD
                                    201 	.globl _g_TRGFLG
                                    202 	.globl _g_STATFL
                                    203 	.globl _g_RG7SAV
                                    204 	.globl _g_RG6SAV
                                    205 	.globl _g_RG5SAV
                                    206 	.globl _g_RG4SAV
                                    207 	.globl _g_RG3SAV
                                    208 	.globl _g_RG2SAV
                                    209 	.globl _g_RG1SAV
                                    210 	.globl _g_RG0SAV
                                    211 	.globl _g_CNSDFG
                                    212 	.globl _g_USRTAB
                                    213 	.globl _g_CLPRIM
                                    214 	.globl _g_WRPRIM
                                    215 	.globl _g_RDPRIM
                                    216 	.globl _InitScrollPages
                                    217 	.globl _ScrollInsertRowDown
                                    218 	.globl _ScrollInsertRowUp
                                    219 	.globl _UpdatePhase1
                                    220 	.globl _UpdatePhase2
                                    221 	.globl _UpdatePhase3
                                    222 ;--------------------------------------------------------
                                    223 ; special function registers
                                    224 ;--------------------------------------------------------
                         000000A8   225 _g_PortPrimarySlot	=	0x00a8
                         000000A9   226 _g_PortReadKeyboard	=	0x00a9
                         000000AA   227 _g_PortAccessKeyboard	=	0x00aa
                         000000AB   228 _g_PortControl	=	0x00ab
                         00000098   229 _g_VDP_DataPort	=	0x0098
                         00000099   230 _g_VDP_RegPort	=	0x0099
                         00000099   231 _g_VDP_AddrPort	=	0x0099
                         00000099   232 _g_VDP_StatPort	=	0x0099
                         0000009A   233 _g_VDP_PalPort	=	0x009a
                         0000009B   234 _g_VDP_IRegPort	=	0x009b
                         000000A0   235 _g_PSG_RegPort	=	0x00a0
                         000000A1   236 _g_PSG_DataPort	=	0x00a1
                         000000A2   237 _g_PSG_StatPort	=	0x00a2
                         00000010   238 _g_PSG_Ext_RegPort	=	0x0010
                         00000011   239 _g_PSG_Ext_DataPort	=	0x0011
                         00000012   240 _g_PSG_Ext_StatPort	=	0x0012
                         0000007C   241 _g_MSXMusic_IndexPort	=	0x007c
                         0000007D   242 _g_MSXMusic_DataPort	=	0x007d
                         000000C0   243 _g_MSXAudio_IndexPort	=	0x00c0
                         000000C1   244 _g_MSXAudio_DataPort	=	0x00c1
                         000000C2   245 _g_MSXAudio_IndexPort2	=	0x00c2
                         000000C3   246 _g_MSXAudio_DataPort2	=	0x00c3
                         000000B4   247 _g_RTC_AddrPort	=	0x00b4
                         000000B5   248 _g_RTC_DataPort	=	0x00b5
                                    249 ;--------------------------------------------------------
                                    250 ; ram data
                                    251 ;--------------------------------------------------------
                                    252 	.area _DATA
                         0000F3AE   253 _g_LINL40	=	0xf3ae
                         0000F3AF   254 _g_LINL32	=	0xf3af
                         0000F3B0   255 _g_LINLEN	=	0xf3b0
                         0000F3B1   256 _g_CRTCNT	=	0xf3b1
                         0000F3B2   257 _g_CLMLST	=	0xf3b2
                         0000F3B3   258 _g_TXTNAM	=	0xf3b3
                         0000F3B5   259 _g_TXTCOL	=	0xf3b5
                         0000F3B7   260 _g_TXTCGP	=	0xf3b7
                         0000F3B9   261 _g_TXTATR	=	0xf3b9
                         0000F3BB   262 _g_TXTPAT	=	0xf3bb
                         0000F3BD   263 _g_T32NAM	=	0xf3bd
                         0000F3BF   264 _g_T32COL	=	0xf3bf
                         0000F3C1   265 _g_T32CGP	=	0xf3c1
                         0000F3C3   266 _g_T32ATR	=	0xf3c3
                         0000F3C5   267 _g_T32PAT	=	0xf3c5
                         0000F3C7   268 _g_GRPNAM	=	0xf3c7
                         0000F3C9   269 _g_GRPCOL	=	0xf3c9
                         0000F3CB   270 _g_GRPCGP	=	0xf3cb
                         0000F3CD   271 _g_GRPATR	=	0xf3cd
                         0000F3CF   272 _g_GRPPAT	=	0xf3cf
                         0000F3D1   273 _g_MLTNAM	=	0xf3d1
                         0000F3D3   274 _g_MLTCOL	=	0xf3d3
                         0000F3D5   275 _g_MLTCGP	=	0xf3d5
                         0000F3D7   276 _g_MLTATR	=	0xf3d7
                         0000F3D9   277 _g_MLTPAT	=	0xf3d9
                         0000F3DB   278 _g_CLIKSW	=	0xf3db
                         0000F3DC   279 _g_CSRY	=	0xf3dc
                         0000F3DD   280 _g_CSRX	=	0xf3dd
                         0000F3E9   281 _g_FORCLR	=	0xf3e9
                         0000F3EA   282 _g_BAKCLR	=	0xf3ea
                         0000F3EB   283 _g_BDRCLR	=	0xf3eb
                         0000F3F2   284 _g_ATRBYT	=	0xf3f2
                         0000F87F   285 _g_FNKSTR	=	0xf87f
                         0000F92A   286 _g_CLOC	=	0xf92a
                         0000F92C   287 _g_CMASK	=	0xf92c
                         0000FB02   288 _g_LOGOPR	=	0xfb02
                         0000FCB7   289 _g_GRPACX	=	0xfcb7
                         0000FCB9   290 _g_GRPACY	=	0xfcb9
                         0000FFFF   291 _g_SLTSL	=	0xffff
                                    292 ;--------------------------------------------------------
                                    293 ; ram data
                                    294 ;--------------------------------------------------------
                                    295 	.area _INITIALIZED
                                    296 ;--------------------------------------------------------
                                    297 ; absolute external ram data
                                    298 ;--------------------------------------------------------
                                    299 	.area _DABS (ABS)
                                    300 ;--------------------------------------------------------
                                    301 ; global & static initialisations
                                    302 ;--------------------------------------------------------
                                    303 	.area _HOME
                                    304 	.area _GSINIT
                                    305 	.area _GSFINAL
                                    306 	.area _GSINIT
                                    307 ;--------------------------------------------------------
                                    308 ; Home
                                    309 ;--------------------------------------------------------
                                    310 	.area _HOME
                                    311 	.area _HOME
                                    312 ;--------------------------------------------------------
                                    313 ; code
                                    314 ;--------------------------------------------------------
                                    315 	.area _SEG5
                                    316 ;E:\Dropbox\FAUSTO\SVILUPPI\MSX\CODE\C\MSXgl\projects\soccerlgMSX2/soccerlg_s5_b3.c:24: static void RebuildPage(u8 page, u16 scroll_y)
                                    317 ;	---------------------------------
                                    318 ; Function RebuildPage
                                    319 ; ---------------------------------
    00000000                        320 _RebuildPage:
    00000000 DD E5            [15]  321 	push	ix
    00000002 DD 21 00 00      [14]  322 	ld	ix,#0
    00000006 DD 39            [15]  323 	add	ix,sp
    00000008 21 F5 FF         [10]  324 	ld	hl, #-11
    0000000B 39               [11]  325 	add	hl, sp
    0000000C F9               [ 6]  326 	ld	sp, hl
    0000000D 4F               [ 4]  327 	ld	c, a
    0000000E DD 73 FC         [19]  328 	ld	-4 (ix), e
    00000011 DD 72 FD         [19]  329 	ld	-3 (ix), d
                                    330 ;E:\Dropbox\FAUSTO\SVILUPPI\MSX\CODE\C\MSXgl\projects\soccerlgMSX2/soccerlg_s5_b3.c:26: u16 dst_y = (u16)page * 256u + HUD_LINES;
    00000014 51               [ 4]  331 	ld	d, c
    00000015 1E 00            [ 7]  332 	ld	e, #0x00
    00000017 21 08 00         [10]  333 	ld	hl, #0x0008
    0000001A 19               [11]  334 	add	hl, de
    0000001B DD 75 F9         [19]  335 	ld	-7 (ix), l
    0000001E DD 74 FA         [19]  336 	ld	-6 (ix), h
                                    337 ;E:\Dropbox\FAUSTO\SVILUPPI\MSX\CODE\C\MSXgl\projects\soccerlgMSX2/soccerlg_s5_b3.c:27: const u8* pField = &FieldMap[scroll_y];
    00000021 11rC7r01         [10]  338 	ld	de, #_FieldMap+0
    00000024 DD 6E FC         [19]  339 	ld	l, -4 (ix)
    00000027 DD 66 FD         [19]  340 	ld	h, -3 (ix)
    0000002A 19               [11]  341 	add	hl, de
    0000002B EB               [ 4]  342 	ex	de, hl
                                    343 ;E:\Dropbox\FAUSTO\SVILUPPI\MSX\CODE\C\MSXgl\projects\soccerlgMSX2/soccerlg_s5_b3.c:28: u8 remaining = (u8)(SCREEN_LINES - HUD_LINES);
    0000002C DD 36 FE B8      [19]  344 	ld	-2 (ix), #0xb8
                                    345 ;E:\Dropbox\FAUSTO\SVILUPPI\MSX\CODE\C\MSXgl\projects\soccerlgMSX2/soccerlg_s5_b3.c:30: while (remaining > 0)
    00000030                        346 00114$:
    00000030 DD 7E FE         [19]  347 	ld	a, -2 (ix)
    00000033 B7               [ 4]  348 	or	a, a
    00000034 CArAAr01         [10]  349 	jp	Z, 00116$
                                    350 ;E:\Dropbox\FAUSTO\SVILUPPI\MSX\CODE\C\MSXgl\projects\soccerlgMSX2/soccerlg_s5_b3.c:32: u8 src = pField[0];
    00000037 1A               [ 7]  351 	ld	a, (de)
    00000038 DD 77 FB         [19]  352 	ld	-5 (ix), a
                                    353 ;E:\Dropbox\FAUSTO\SVILUPPI\MSX\CODE\C\MSXgl\projects\soccerlgMSX2/soccerlg_s5_b3.c:34: while (step < remaining && pField[step] == (u8)(src + step))
    0000003B DD 36 FF 01      [19]  354 	ld	-1 (ix), #0x01
    0000003F                        355 00102$:
    0000003F DD 7E FF         [19]  356 	ld	a, -1 (ix)
    00000042 DD 96 FE         [19]  357 	sub	a, -2 (ix)
    00000045 30 23            [12]  358 	jr	NC, 00132$
    00000047 7B               [ 4]  359 	ld	a, e
    00000048 DD 86 FF         [19]  360 	add	a, -1 (ix)
    0000004B DD 77 F7         [19]  361 	ld	-9 (ix), a
    0000004E 7A               [ 4]  362 	ld	a, d
    0000004F CE 00            [ 7]  363 	adc	a, #0x00
    00000051 DD 77 F8         [19]  364 	ld	-8 (ix), a
    00000054 DD 6E F7         [19]  365 	ld	l, -9 (ix)
    00000057 DD 66 F8         [19]  366 	ld	h, -8 (ix)
    0000005A 46               [ 7]  367 	ld	b, (hl)
    0000005B DD 7E FB         [19]  368 	ld	a, -5 (ix)
    0000005E DD 86 FF         [19]  369 	add	a, -1 (ix)
    00000061 90               [ 4]  370 	sub	a, b
    00000062 20 06            [12]  371 	jr	NZ, 00132$
                                    372 ;E:\Dropbox\FAUSTO\SVILUPPI\MSX\CODE\C\MSXgl\projects\soccerlgMSX2/soccerlg_s5_b3.c:35: step++;
    00000064 DD 34 FF         [23]  373 	inc	-1 (ix)
    00000067 C3r3Fr00         [10]  374 	jp	00102$
    0000006A                        375 00132$:
    0000006A DD 46 FF         [19]  376 	ld	b, -1 (ix)
                                    377 ;E:\Dropbox\FAUSTO\SVILUPPI\MSX\CODE\C\MSXgl\projects\soccerlgMSX2/soccerlg_s5_b3.c:37: if (step > 1) {
    0000006D 3E 01            [ 7]  378 	ld	a, #0x01
    0000006F DD 96 FF         [19]  379 	sub	a, -1 (ix)
    00000072 30 54            [12]  380 	jr	NC, 00129$
                                    381 ;E:\Dropbox\FAUSTO\SVILUPPI\MSX\CODE\C\MSXgl\projects\soccerlgMSX2/soccerlg_s5_b3.c:38: VDP_CommandYMMM(768u + src, 0, dst_y, step, 0);
    00000074 DD 7E FF         [19]  382 	ld	a, -1 (ix)
    00000077 DD 77 F7         [19]  383 	ld	-9 (ix), a
    0000007A DD 36 F8 00      [19]  384 	ld	-8 (ix), #0x00
    0000007E DD 6E FB         [19]  385 	ld	l, -5 (ix)
                                    386 ;	spillPairReg hl
                                    387 ;	spillPairReg hl
                                    388 ;	spillPairReg hl
                                    389 ;	spillPairReg hl
    00000081 AF               [ 4]  390 	xor	a, a
    00000082 C6 03            [ 7]  391 	add	a, #0x03
    00000084 DD 75 F5         [19]  392 	ld	-11 (ix), l
    00000087 DD 77 F6         [19]  393 	ld	-10 (ix), a
                                    394 ;E:/Dropbox/FAUSTO/SVILUPPI/MSX/CODE/C/MSXgl/engine/src/vdp_inl.h:65: g_VDP_Command.SY = sy;
    0000008A 21r02r00         [10]  395 	ld	hl, #(_g_VDP_Command + 2)
    0000008D DD 7E F5         [19]  396 	ld	a, -11 (ix)
    00000090 77               [ 7]  397 	ld	(hl), a
    00000091 23               [ 6]  398 	inc	hl
    00000092 DD 7E F6         [19]  399 	ld	a, -10 (ix)
    00000095 77               [ 7]  400 	ld	(hl), a
                                    401 ;E:/Dropbox/FAUSTO/SVILUPPI/MSX/CODE/C/MSXgl/engine/src/vdp_inl.h:66: g_VDP_Command.DX = dx;
    00000096 21 00 00         [10]  402 	ld	hl, #0x0000
    00000099 22r04r00         [16]  403 	ld	((_g_VDP_Command + 4)), hl
                                    404 ;E:/Dropbox/FAUSTO/SVILUPPI/MSX/CODE/C/MSXgl/engine/src/vdp_inl.h:67: g_VDP_Command.DY = dy;
    0000009C 21r06r00         [10]  405 	ld	hl, #(_g_VDP_Command + 6)
    0000009F DD 7E F9         [19]  406 	ld	a, -7 (ix)
    000000A2 77               [ 7]  407 	ld	(hl), a
    000000A3 23               [ 6]  408 	inc	hl
    000000A4 DD 7E FA         [19]  409 	ld	a, -6 (ix)
    000000A7 77               [ 7]  410 	ld	(hl), a
                                    411 ;E:/Dropbox/FAUSTO/SVILUPPI/MSX/CODE/C/MSXgl/engine/src/vdp_inl.h:68: g_VDP_Command.NY = ny;
    000000A8 21r0Ar00         [10]  412 	ld	hl, #(_g_VDP_Command + 10)
    000000AB DD 7E F7         [19]  413 	ld	a, -9 (ix)
    000000AE 77               [ 7]  414 	ld	(hl), a
    000000AF 23               [ 6]  415 	inc	hl
    000000B0 DD 7E F8         [19]  416 	ld	a, -8 (ix)
    000000B3 77               [ 7]  417 	ld	(hl), a
                                    418 ;E:/Dropbox/FAUSTO/SVILUPPI/MSX/CODE/C/MSXgl/engine/src/vdp_inl.h:69: g_VDP_Command.ARG = dir; 
    000000B4 21r0Dr00         [10]  419 	ld	hl, #(_g_VDP_Command + 13)
    000000B7 36 00            [10]  420 	ld	(hl), #0x00
                                    421 ;E:/Dropbox/FAUSTO/SVILUPPI/MSX/CODE/C/MSXgl/engine/src/vdp_inl.h:70: g_VDP_Command.CMD = VDP_CMD_YMMM;
    000000B9 21r0Er00         [10]  422 	ld	hl, #(_g_VDP_Command + 14)
    000000BC 36 E0            [10]  423 	ld	(hl), #0xe0
                                    424 ;E:/Dropbox/FAUSTO/SVILUPPI/MSX/CODE/C/MSXgl/engine/src/vdp_inl.h:71: VPD_CommandSetupR32();
    000000BE C5               [11]  425 	push	bc
    000000BF D5               [11]  426 	push	de
    000000C0 CDr00r00         [17]  427 	call	_VPD_CommandSetupR32
    000000C3 D1               [10]  428 	pop	de
    000000C4 C1               [10]  429 	pop	bc
                                    430 ;E:\Dropbox\FAUSTO\SVILUPPI\MSX\CODE\C\MSXgl\projects\soccerlgMSX2/soccerlg_s5_b3.c:38: VDP_CommandYMMM(768u + src, 0, dst_y, step, 0);
    000000C5 C3r7Cr01         [10]  431 	jp	00113$
                                    432 ;E:\Dropbox\FAUSTO\SVILUPPI\MSX\CODE\C\MSXgl\projects\soccerlgMSX2/soccerlg_s5_b3.c:40: while (step < remaining && pField[step] == src)
    000000C8                        433 00129$:
    000000C8                        434 00106$:
    000000C8 DD 7E FF         [19]  435 	ld	a, -1 (ix)
    000000CB DD 96 FE         [19]  436 	sub	a, -2 (ix)
    000000CE 30 12            [12]  437 	jr	NC, 00133$
    000000D0 DD 6E FF         [19]  438 	ld	l, -1 (ix)
    000000D3 26 00            [ 7]  439 	ld	h, #0x00
    000000D5 19               [11]  440 	add	hl, de
    000000D6 DD 7E FB         [19]  441 	ld	a,-5 (ix)
    000000D9 96               [ 7]  442 	sub	a,(hl)
    000000DA 20 06            [12]  443 	jr	NZ, 00133$
                                    444 ;E:\Dropbox\FAUSTO\SVILUPPI\MSX\CODE\C\MSXgl\projects\soccerlgMSX2/soccerlg_s5_b3.c:41: step++;
    000000DC DD 34 FF         [23]  445 	inc	-1 (ix)
    000000DF C3rC8r00         [10]  446 	jp	00106$
    000000E2                        447 00133$:
    000000E2 DD 46 FF         [19]  448 	ld	b, -1 (ix)
                                    449 ;E:\Dropbox\FAUSTO\SVILUPPI\MSX\CODE\C\MSXgl\projects\soccerlgMSX2/soccerlg_s5_b3.c:42: VDP_CommandYMMM(768u + src, 0, dst_y, 1, 0);
    000000E5 DD 6E FB         [19]  450 	ld	l, -5 (ix)
                                    451 ;	spillPairReg hl
                                    452 ;	spillPairReg hl
                                    453 ;	spillPairReg hl
                                    454 ;	spillPairReg hl
    000000E8 AF               [ 4]  455 	xor	a, a
    000000E9 C6 03            [ 7]  456 	add	a, #0x03
    000000EB DD 75 F7         [19]  457 	ld	-9 (ix), l
    000000EE DD 77 F8         [19]  458 	ld	-8 (ix), a
                                    459 ;E:/Dropbox/FAUSTO/SVILUPPI/MSX/CODE/C/MSXgl/engine/src/vdp_inl.h:65: g_VDP_Command.SY = sy;
    000000F1 21r02r00         [10]  460 	ld	hl, #(_g_VDP_Command + 2)
    000000F4 DD 7E F7         [19]  461 	ld	a, -9 (ix)
    000000F7 77               [ 7]  462 	ld	(hl), a
    000000F8 23               [ 6]  463 	inc	hl
    000000F9 DD 7E F8         [19]  464 	ld	a, -8 (ix)
    000000FC 77               [ 7]  465 	ld	(hl), a
                                    466 ;E:/Dropbox/FAUSTO/SVILUPPI/MSX/CODE/C/MSXgl/engine/src/vdp_inl.h:66: g_VDP_Command.DX = dx;
    000000FD 21 00 00         [10]  467 	ld	hl, #0x0000
    00000100 22r04r00         [16]  468 	ld	((_g_VDP_Command + 4)), hl
                                    469 ;E:/Dropbox/FAUSTO/SVILUPPI/MSX/CODE/C/MSXgl/engine/src/vdp_inl.h:67: g_VDP_Command.DY = dy;
    00000103 21r06r00         [10]  470 	ld	hl, #(_g_VDP_Command + 6)
    00000106 DD 7E F9         [19]  471 	ld	a, -7 (ix)
    00000109 77               [ 7]  472 	ld	(hl), a
    0000010A 23               [ 6]  473 	inc	hl
    0000010B DD 7E FA         [19]  474 	ld	a, -6 (ix)
    0000010E 77               [ 7]  475 	ld	(hl), a
                                    476 ;E:/Dropbox/FAUSTO/SVILUPPI/MSX/CODE/C/MSXgl/engine/src/vdp_inl.h:68: g_VDP_Command.NY = ny;
    0000010F 21 01 00         [10]  477 	ld	hl, #0x0001
    00000112 22r0Ar00         [16]  478 	ld	((_g_VDP_Command + 10)), hl
                                    479 ;E:/Dropbox/FAUSTO/SVILUPPI/MSX/CODE/C/MSXgl/engine/src/vdp_inl.h:69: g_VDP_Command.ARG = dir; 
    00000115 21r0Dr00         [10]  480 	ld	hl, #(_g_VDP_Command + 13)
    00000118 36 00            [10]  481 	ld	(hl), #0x00
                                    482 ;E:/Dropbox/FAUSTO/SVILUPPI/MSX/CODE/C/MSXgl/engine/src/vdp_inl.h:70: g_VDP_Command.CMD = VDP_CMD_YMMM;
    0000011A 21r0Er00         [10]  483 	ld	hl, #(_g_VDP_Command + 14)
    0000011D 36 E0            [10]  484 	ld	(hl), #0xe0
                                    485 ;E:/Dropbox/FAUSTO/SVILUPPI/MSX/CODE/C/MSXgl/engine/src/vdp_inl.h:71: VPD_CommandSetupR32();
    0000011F C5               [11]  486 	push	bc
    00000120 D5               [11]  487 	push	de
    00000121 CDr00r00         [17]  488 	call	_VPD_CommandSetupR32
    00000124 D1               [10]  489 	pop	de
    00000125 C1               [10]  490 	pop	bc
                                    491 ;E:\Dropbox\FAUSTO\SVILUPPI\MSX\CODE\C\MSXgl\projects\soccerlgMSX2/soccerlg_s5_b3.c:43: if (step > 1)
    00000126 3E 01            [ 7]  492 	ld	a, #0x01
    00000128 DD 96 FF         [19]  493 	sub	a, -1 (ix)
    0000012B 30 4F            [12]  494 	jr	NC, 00113$
                                    495 ;E:\Dropbox\FAUSTO\SVILUPPI\MSX\CODE\C\MSXgl\projects\soccerlgMSX2/soccerlg_s5_b3.c:44: VDP_CommandYMMM(dst_y, 0, dst_y + 1, step - 1, 0);
    0000012D DD 6E FF         [19]  496 	ld	l, -1 (ix)
                                    497 ;	spillPairReg hl
                                    498 ;	spillPairReg hl
    00000130 26 00            [ 7]  499 	ld	h, #0x00
                                    500 ;	spillPairReg hl
                                    501 ;	spillPairReg hl
    00000132 2B               [ 6]  502 	dec	hl
    00000133 E3               [19]  503 	ex	(sp), hl
    00000134 DD 6E F9         [19]  504 	ld	l, -7 (ix)
                                    505 ;	spillPairReg hl
                                    506 ;	spillPairReg hl
    00000137 DD 66 FA         [19]  507 	ld	h, -6 (ix)
                                    508 ;	spillPairReg hl
                                    509 ;	spillPairReg hl
    0000013A 23               [ 6]  510 	inc	hl
    0000013B DD 75 F7         [19]  511 	ld	-9 (ix), l
    0000013E DD 74 F8         [19]  512 	ld	-8 (ix), h
                                    513 ;E:/Dropbox/FAUSTO/SVILUPPI/MSX/CODE/C/MSXgl/engine/src/vdp_inl.h:65: g_VDP_Command.SY = sy;
    00000141 21r02r00         [10]  514 	ld	hl, #(_g_VDP_Command + 2)
    00000144 DD 7E F9         [19]  515 	ld	a, -7 (ix)
    00000147 77               [ 7]  516 	ld	(hl), a
    00000148 23               [ 6]  517 	inc	hl
    00000149 DD 7E FA         [19]  518 	ld	a, -6 (ix)
    0000014C 77               [ 7]  519 	ld	(hl), a
                                    520 ;E:/Dropbox/FAUSTO/SVILUPPI/MSX/CODE/C/MSXgl/engine/src/vdp_inl.h:66: g_VDP_Command.DX = dx;
    0000014D 21 00 00         [10]  521 	ld	hl, #0x0000
    00000150 22r04r00         [16]  522 	ld	((_g_VDP_Command + 4)), hl
                                    523 ;E:/Dropbox/FAUSTO/SVILUPPI/MSX/CODE/C/MSXgl/engine/src/vdp_inl.h:67: g_VDP_Command.DY = dy;
    00000153 21r06r00         [10]  524 	ld	hl, #(_g_VDP_Command + 6)
    00000156 DD 7E F7         [19]  525 	ld	a, -9 (ix)
    00000159 77               [ 7]  526 	ld	(hl), a
    0000015A 23               [ 6]  527 	inc	hl
    0000015B DD 7E F8         [19]  528 	ld	a, -8 (ix)
    0000015E 77               [ 7]  529 	ld	(hl), a
                                    530 ;E:/Dropbox/FAUSTO/SVILUPPI/MSX/CODE/C/MSXgl/engine/src/vdp_inl.h:68: g_VDP_Command.NY = ny;
    0000015F 21r0Ar00         [10]  531 	ld	hl, #(_g_VDP_Command + 10)
    00000162 DD 7E F5         [19]  532 	ld	a, -11 (ix)
    00000165 77               [ 7]  533 	ld	(hl), a
    00000166 23               [ 6]  534 	inc	hl
    00000167 DD 7E F6         [19]  535 	ld	a, -10 (ix)
    0000016A 77               [ 7]  536 	ld	(hl), a
                                    537 ;E:/Dropbox/FAUSTO/SVILUPPI/MSX/CODE/C/MSXgl/engine/src/vdp_inl.h:69: g_VDP_Command.ARG = dir; 
    0000016B 21r0Dr00         [10]  538 	ld	hl, #(_g_VDP_Command + 13)
    0000016E 36 00            [10]  539 	ld	(hl), #0x00
                                    540 ;E:/Dropbox/FAUSTO/SVILUPPI/MSX/CODE/C/MSXgl/engine/src/vdp_inl.h:70: g_VDP_Command.CMD = VDP_CMD_YMMM;
    00000170 21r0Er00         [10]  541 	ld	hl, #(_g_VDP_Command + 14)
    00000173 36 E0            [10]  542 	ld	(hl), #0xe0
                                    543 ;E:/Dropbox/FAUSTO/SVILUPPI/MSX/CODE/C/MSXgl/engine/src/vdp_inl.h:71: VPD_CommandSetupR32();
    00000175 C5               [11]  544 	push	bc
    00000176 D5               [11]  545 	push	de
    00000177 CDr00r00         [17]  546 	call	_VPD_CommandSetupR32
    0000017A D1               [10]  547 	pop	de
    0000017B C1               [10]  548 	pop	bc
                                    549 ;E:\Dropbox\FAUSTO\SVILUPPI\MSX\CODE\C\MSXgl\projects\soccerlgMSX2/soccerlg_s5_b3.c:44: VDP_CommandYMMM(dst_y, 0, dst_y + 1, step - 1, 0);
    0000017C                        550 00113$:
                                    551 ;E:\Dropbox\FAUSTO\SVILUPPI\MSX\CODE\C\MSXgl\projects\soccerlgMSX2/soccerlg_s5_b3.c:46: pField += step;
    0000017C 7B               [ 4]  552 	ld	a, e
    0000017D 80               [ 4]  553 	add	a, b
    0000017E 5F               [ 4]  554 	ld	e, a
    0000017F 30 01            [12]  555 	jr	NC, 00178$
    00000181 14               [ 4]  556 	inc	d
    00000182                        557 00178$:
                                    558 ;E:\Dropbox\FAUSTO\SVILUPPI\MSX\CODE\C\MSXgl\projects\soccerlgMSX2/soccerlg_s5_b3.c:47: dst_y += step;
    00000182 68               [ 4]  559 	ld	l, b
                                    560 ;	spillPairReg hl
                                    561 ;	spillPairReg hl
    00000183 26 00            [ 7]  562 	ld	h, #0x00
                                    563 ;	spillPairReg hl
                                    564 ;	spillPairReg hl
    00000185 DD 7E F9         [19]  565 	ld	a, -7 (ix)
    00000188 DD 77 F6         [19]  566 	ld	-10 (ix), a
    0000018B DD 7E FA         [19]  567 	ld	a, -6 (ix)
    0000018E DD 77 F7         [19]  568 	ld	-9 (ix), a
    00000191 7D               [ 4]  569 	ld	a, l
    00000192 DD 86 F6         [19]  570 	add	a, -10 (ix)
    00000195 6F               [ 4]  571 	ld	l, a
                                    572 ;	spillPairReg hl
                                    573 ;	spillPairReg hl
    00000196 7C               [ 4]  574 	ld	a, h
    00000197 DD 8E F7         [19]  575 	adc	a, -9 (ix)
    0000019A DD 75 F9         [19]  576 	ld	-7 (ix), l
    0000019D DD 77 FA         [19]  577 	ld	-6 (ix), a
                                    578 ;E:\Dropbox\FAUSTO\SVILUPPI\MSX\CODE\C\MSXgl\projects\soccerlgMSX2/soccerlg_s5_b3.c:48: remaining -= step;
    000001A0 DD 7E FE         [19]  579 	ld	a, -2 (ix)
    000001A3 90               [ 4]  580 	sub	a, b
    000001A4 DD 77 FE         [19]  581 	ld	-2 (ix), a
    000001A7 C3r30r00         [10]  582 	jp	00114$
    000001AA                        583 00116$:
                                    584 ;E:\Dropbox\FAUSTO\SVILUPPI\MSX\CODE\C\MSXgl\projects\soccerlgMSX2/soccerlg_s5_b3.c:50: g_R23[page]         = 0;
    000001AA 21r00r00         [10]  585 	ld	hl, #_g_R23
    000001AD 06 00            [ 7]  586 	ld	b, #0x00
    000001AF 09               [11]  587 	add	hl, bc
                                    588 ;E:\Dropbox\FAUSTO\SVILUPPI\MSX\CODE\C\MSXgl\projects\soccerlgMSX2/soccerlg_s5_b3.c:51: g_PageScrollY[page] = scroll_y;
    000001B0 36 00            [10]  589 	ld	(hl), #0x00
    000001B2 66               [ 7]  590 	ld	h, (hl)
                                    591 ;	spillPairReg hl
                                    592 ;	spillPairReg hl
    000001B3 69               [ 4]  593 	ld	l, c
    000001B4 29               [11]  594 	add	hl, hl
    000001B5 11r00r00         [10]  595 	ld	de, #_g_PageScrollY
    000001B8 19               [11]  596 	add	hl, de
    000001B9 DD 7E FC         [19]  597 	ld	a, -4 (ix)
    000001BC 77               [ 7]  598 	ld	(hl), a
    000001BD 23               [ 6]  599 	inc	hl
    000001BE DD 7E FD         [19]  600 	ld	a, -3 (ix)
    000001C1 77               [ 7]  601 	ld	(hl), a
                                    602 ;E:\Dropbox\FAUSTO\SVILUPPI\MSX\CODE\C\MSXgl\projects\soccerlgMSX2/soccerlg_s5_b3.c:52: }
    000001C2 DD F9            [10]  603 	ld	sp, ix
    000001C4 DD E1            [14]  604 	pop	ix
    000001C6 C9               [10]  605 	ret
                         0000F380   606 _g_RDPRIM	=	0xf380
                         0000F385   607 _g_WRPRIM	=	0xf385
                         0000F38C   608 _g_CLPRIM	=	0xf38c
                         0000F39A   609 _g_USRTAB	=	0xf39a
                         0000F3DE   610 _g_CNSDFG	=	0xf3de
                         0000F3DF   611 _g_RG0SAV	=	0xf3df
                         0000F3E0   612 _g_RG1SAV	=	0xf3e0
                         0000F3E1   613 _g_RG2SAV	=	0xf3e1
                         0000F3E2   614 _g_RG3SAV	=	0xf3e2
                         0000F3E3   615 _g_RG4SAV	=	0xf3e3
                         0000F3E4   616 _g_RG5SAV	=	0xf3e4
                         0000F3E5   617 _g_RG6SAV	=	0xf3e5
                         0000F3E6   618 _g_RG7SAV	=	0xf3e6
                         0000F3E7   619 _g_STATFL	=	0xf3e7
                         0000F3E8   620 _g_TRGFLG	=	0xf3e8
                         0000F3EC   621 _g_MAXUPD	=	0xf3ec
                         0000F3EF   622 _g_MINUPD	=	0xf3ef
                         0000F3F3   623 _g_QUEUES	=	0xf3f3
                         0000F3F5   624 _g_FRCNEW	=	0xf3f5
                         0000F3F6   625 _g_SCNCNT	=	0xf3f6
                         0000F3F7   626 _g_REPCNT	=	0xf3f7
                         0000F3F8   627 _g_PUTPNT	=	0xf3f8
                         0000F3FA   628 _g_GETPNT	=	0xf3fa
                         0000F3FC   629 _g_CS120	=	0xf3fc
                         0000F401   630 _g_CS240	=	0xf401
                         0000F406   631 _g_LOW	=	0xf406
                         0000F408   632 _g_HIGH	=	0xf408
                         0000F40A   633 _g_HEADER	=	0xf40a
                         0000F40B   634 _g_ASPCT1	=	0xf40b
                         0000F40D   635 _g_ASPCT2	=	0xf40d
                         0000F959   636 _g_QUETAB	=	0xf959
                         0000F971   637 _g_QUEBAK	=	0xf971
                         0000F975   638 _g_VOICAQ	=	0xf975
                         0000F9F5   639 _g_VOICBQ	=	0xf9f5
                         0000FA75   640 _g_VOICCQ	=	0xfa75
                         0000FAF5   641 _g_RS2IQ	=	0xfaf5
                         0000FAF5   642 _g_DPPAGE	=	0xfaf5
                         0000FAF6   643 _g_ACPAGE	=	0xfaf6
                         0000FAF7   644 _g_AVCSAV	=	0xfaf7
                         0000FAF8   645 _g_EXBRSA	=	0xfaf8
                         0000FAF9   646 _g_CHRCNT	=	0xfaf9
                         0000FAFA   647 _g_ROMA	=	0xfafa
                         0000FAFC   648 _g_MODE	=	0xfafc
                         0000FAFD   649 _g_NORUSE	=	0xfafd
                         0000FAFE   650 _g_XSAVE	=	0xfafe
                         0000FB00   651 _g_YSAVE	=	0xfb00
                         0000FB03   652 _g_RSTMP	=	0xfb03
                         0000FB03   653 _g_TOCNT	=	0xfb03
                         0000FB04   654 _g_RSFCB	=	0xfb04
                         0000FB06   655 _g_RSIQLN	=	0xfb06
                         0000FB07   656 _g_MEXBIh	=	0xfb07
                         0000FB0C   657 _g_OLDSTT	=	0xfb0c
                         0000FB0C   658 _g_OLDINT	=	0xfb0c
                         0000FB16   659 _g_DEVNUM	=	0xfb16
                         0000FB17   660 _g_DATCNT	=	0xfb17
                         0000FB1A   661 _g_ERRORS	=	0xfb1a
                         0000FB1B   662 _g_FLAGS	=	0xfb1b
                         0000FB1C   663 _g_ESTBLS	=	0xfb1c
                         0000FB1D   664 _g_COMMSK	=	0xfb1d
                         0000FB1E   665 _g_LSTCOM	=	0xfb1e
                         0000FB1F   666 _g_LSTMOD	=	0xfb1f
                         0000FB35   667 _g_PRSCNT	=	0xfb35
                         0000FB36   668 _g_SAVSP	=	0xfb36
                         0000FB38   669 _g_VOICEN	=	0xfb38
                         0000FB39   670 _g_SAVVOL	=	0xfb39
                         0000FB3B   671 _g_MCLLEN	=	0xfb3b
                         0000FB3C   672 _g_MCLPTR	=	0xfb3c
                         0000FB3E   673 _g_QUEUEN	=	0xfb3e
                         0000FB3F   674 _g_MUSICF	=	0xfb3f
                         0000FB40   675 _g_PLYCNT	=	0xfb40
                         0000FB41   676 _g_VCBA	=	0xfb41
                         0000FB66   677 _g_VCBB	=	0xfb66
                         0000FB8B   678 _g_VCBC	=	0xfb8b
                         0000FBB0   679 _g_ENSTOP	=	0xfbb0
                         0000FBB1   680 _g_BASROM	=	0xfbb1
                         0000FBB2   681 _g_LINTTB	=	0xfbb2
                         0000FBCA   682 _g_FSTPOS	=	0xfbca
                         0000FBCC   683 _g_CODSAV	=	0xfbcc
                         0000FBCD   684 _g_FNKSWI	=	0xfbcd
                         0000FBCE   685 _g_FNKFLG	=	0xfbce
                         0000FBD8   686 _g_ONGSBF	=	0xfbd8
                         0000FBD9   687 _g_CLIKFL	=	0xfbd9
                         0000FBDA   688 _g_OLDKEY	=	0xfbda
                         0000FBE5   689 _g_NEWKEY	=	0xfbe5
                         0000FBF0   690 _g_KEYBUF	=	0xfbf0
                         0000FC18   691 _g_LINWRK	=	0xfc18
                         0000FC40   692 _g_PATWRK	=	0xfc40
                         0000FC48   693 _g_BOTTOM	=	0xfc48
                         0000FC4A   694 _g_HIMEM	=	0xfc4a
                         0000FC4C   695 _g_TRPTBL	=	0xfc4c
                         0000FC9A   696 _g_RTYCNT	=	0xfc9a
                         0000FC9B   697 _g_INTFLG	=	0xfc9b
                         0000FC9C   698 _g_PADY	=	0xfc9c
                         0000FC9D   699 _g_PADX	=	0xfc9d
                         0000FC9E   700 _g_JIFFY	=	0xfc9e
                         0000FCA0   701 _g_INTVAL	=	0xfca0
                         0000FCA2   702 _g_INTCNT	=	0xfca2
                         0000FCA4   703 _g_LOWLIM	=	0xfca4
                         0000FCA5   704 _g_WINWID	=	0xfca5
                         0000FCA6   705 _g_GRPHED	=	0xfca6
                         0000FCA7   706 _g_ESCCNT	=	0xfca7
                         0000FCA8   707 _g_INSFLG	=	0xfca8
                         0000FCA9   708 _g_CSRSW	=	0xfca9
                         0000FCAA   709 _g_CSTYLE	=	0xfcaa
                         0000FCAB   710 _g_CAPST	=	0xfcab
                         0000FCAC   711 _g_KANAST	=	0xfcac
                         0000FCAD   712 _g_KANAMD	=	0xfcad
                         0000FCAE   713 _g_FLBMEM	=	0xfcae
                         0000FCAF   714 _g_SCRMOD	=	0xfcaf
                         0000FCB0   715 _g_OLDSCR	=	0xfcb0
                         0000FCB1   716 _g_CASPRV	=	0xfcb1
                         0000FCB2   717 _g_BRDATR	=	0xfcb2
                         0000FCB3   718 _g_GXPOS	=	0xfcb3
                         0000FCB5   719 _g_GYPOS	=	0xfcb5
                         0000FCBB   720 _g_DRWFLG	=	0xfcbb
                         0000FCBC   721 _g_DRWSCL	=	0xfcbc
                         0000FCBD   722 _g_DRWANG	=	0xfcbd
                         0000FCC1   723 _g_MNROM	=	0xfcc1
                         0000FCC1   724 _g_EXPTBL	=	0xfcc1
                         0000FCC5   725 _g_SLTTBL	=	0xfcc5
                         0000FCC9   726 _g_SLTATR	=	0xfcc9
                         0000FD09   727 _g_SLTWRK	=	0xfd09
                         0000FD89   728 _g_PROCNM	=	0xfd89
                         0000FFE7   729 _g_RG08SAV	=	0xffe7
                         0000FFE8   730 _g_RG09SAV	=	0xffe8
                         0000FFE9   731 _g_RG10SAV	=	0xffe9
                         0000FFEA   732 _g_RG11SAV	=	0xffea
                         0000FFEB   733 _g_RG12SAV	=	0xffeb
                         0000FFEC   734 _g_RG13SAV	=	0xffec
                         0000FFED   735 _g_RG14SAV	=	0xffed
                         0000FFEE   736 _g_RG15SAV	=	0xffee
                         0000FFEF   737 _g_RG16SAV	=	0xffef
                         0000FFF0   738 _g_RG17SAV	=	0xfff0
                         0000FFF1   739 _g_RG18SAV	=	0xfff1
                         0000FFF2   740 _g_RG19SAV	=	0xfff2
                         0000FFF3   741 _g_RG20SAV	=	0xfff3
                         0000FFF4   742 _g_RG21SAV	=	0xfff4
                         0000FFF5   743 _g_RG22SAV	=	0xfff5
                         0000FFF6   744 _g_RG23SAV	=	0xfff6
                         0000FFF7   745 _g_MINROM	=	0xfff7
                         0000FFF8   746 _g_SVFFF8	=	0xfff8
                         0000FFFA   747 _g_RG25SAV	=	0xfffa
                         0000FFFB   748 _g_RG26SAV	=	0xfffb
                         0000FFFC   749 _g_RG27SAV	=	0xfffc
                         0000FFFD   750 _g_SVFFFD	=	0xfffd
                         00000004   751 _g_CGTABL	=	0x0004
                         00000006   752 _g_VDP_DR	=	0x0006
                         00000007   753 _g_VDP_DW	=	0x0007
                         0000002B   754 _g_BASRVN	=	0x002b
                         0000002B   755 _g_ROMVersion	=	0x002b
                         0000002D   756 _g_MSXVER	=	0x002d
                         0000002E   757 _g_MSXMID	=	0x002e
                         00000034   758 _g_CHAR_16	=	0x0034
                         00000000   759 _g_SUBRID	=	0x0000
                         00000002   760 _g_STRSRC	=	0x0002
                         0000F30F   761 _g_KANJTABLE	=	0xf30f
                         0000F323   762 _g_DISKVE	=	0xf323
                         0000F325   763 _g_BREAKV	=	0xf325
                         0000F341   764 _g_RAMAD0	=	0xf341
                         0000F342   765 _g_RAMAD1	=	0xf342
                         0000F343   766 _g_RAMAD2	=	0xf343
                         0000F344   767 _g_RAMAD3	=	0xf344
                         0000F348   768 _g_MASTER	=	0xf348
                         0000F37D   769 _g_BDOS	=	0xf37d
    000001C7                        770 _FieldMap:
    000001C7 00                     771 	.db #0x00	; 0
    000001C8 01                     772 	.db #0x01	; 1
    000001C9 02                     773 	.db #0x02	; 2
    000001CA 03                     774 	.db #0x03	; 3
    000001CB 04                     775 	.db #0x04	; 4
    000001CC 05                     776 	.db #0x05	; 5
    000001CD 06                     777 	.db #0x06	; 6
    000001CE 07                     778 	.db #0x07	; 7
    000001CF 08                     779 	.db #0x08	; 8
    000001D0 09                     780 	.db #0x09	; 9
    000001D1 0A                     781 	.db #0x0a	; 10
    000001D2 0B                     782 	.db #0x0b	; 11
    000001D3 0C                     783 	.db #0x0c	; 12
    000001D4 0D                     784 	.db #0x0d	; 13
    000001D5 0E                     785 	.db #0x0e	; 14
    000001D6 0F                     786 	.db #0x0f	; 15
    000001D7 10                     787 	.db #0x10	; 16
    000001D8 11                     788 	.db #0x11	; 17
    000001D9 12                     789 	.db #0x12	; 18
    000001DA 13                     790 	.db #0x13	; 19
    000001DB 14                     791 	.db #0x14	; 20
    000001DC 15                     792 	.db #0x15	; 21
    000001DD 16                     793 	.db #0x16	; 22
    000001DE 17                     794 	.db #0x17	; 23
    000001DF 18                     795 	.db #0x18	; 24
    000001E0 19                     796 	.db #0x19	; 25
    000001E1 1A                     797 	.db #0x1a	; 26
    000001E2 1B                     798 	.db #0x1b	; 27
    000001E3 1C                     799 	.db #0x1c	; 28
    000001E4 1D                     800 	.db #0x1d	; 29
    000001E5 1E                     801 	.db #0x1e	; 30
    000001E6 1F                     802 	.db #0x1f	; 31
    000001E7 20                     803 	.db #0x20	; 32
    000001E8 21                     804 	.db #0x21	; 33
    000001E9 22                     805 	.db #0x22	; 34
    000001EA 23                     806 	.db #0x23	; 35
    000001EB 24                     807 	.db #0x24	; 36
    000001EC 25                     808 	.db #0x25	; 37
    000001ED 26                     809 	.db #0x26	; 38
    000001EE 27                     810 	.db #0x27	; 39
    000001EF 28                     811 	.db #0x28	; 40
    000001F0 29                     812 	.db #0x29	; 41
    000001F1 2A                     813 	.db #0x2a	; 42
    000001F2 2B                     814 	.db #0x2b	; 43
    000001F3 2C                     815 	.db #0x2c	; 44
    000001F4 2D                     816 	.db #0x2d	; 45
    000001F5 2E                     817 	.db #0x2e	; 46
    000001F6 2F                     818 	.db #0x2f	; 47
    000001F7 30                     819 	.db #0x30	; 48	'0'
    000001F8 31                     820 	.db #0x31	; 49	'1'
    000001F9 32                     821 	.db #0x32	; 50	'2'
    000001FA 33                     822 	.db #0x33	; 51	'3'
    000001FB 34                     823 	.db #0x34	; 52	'4'
    000001FC 35                     824 	.db #0x35	; 53	'5'
    000001FD 36                     825 	.db #0x36	; 54	'6'
    000001FE 37                     826 	.db #0x37	; 55	'7'
    000001FF 38                     827 	.db #0x38	; 56	'8'
    00000200 39                     828 	.db #0x39	; 57	'9'
    00000201 3A                     829 	.db #0x3a	; 58
    00000202 3B                     830 	.db #0x3b	; 59
    00000203 3B                     831 	.db #0x3b	; 59
    00000204 3B                     832 	.db #0x3b	; 59
    00000205 3B                     833 	.db #0x3b	; 59
    00000206 3B                     834 	.db #0x3b	; 59
    00000207 3B                     835 	.db #0x3b	; 59
    00000208 3B                     836 	.db #0x3b	; 59
    00000209 3B                     837 	.db #0x3b	; 59
    0000020A 3B                     838 	.db #0x3b	; 59
    0000020B 3B                     839 	.db #0x3b	; 59
    0000020C 3B                     840 	.db #0x3b	; 59
    0000020D 3B                     841 	.db #0x3b	; 59
    0000020E 3B                     842 	.db #0x3b	; 59
    0000020F 3B                     843 	.db #0x3b	; 59
    00000210 3C                     844 	.db #0x3c	; 60
    00000211 3D                     845 	.db #0x3d	; 61
    00000212 3E                     846 	.db #0x3e	; 62
    00000213 3F                     847 	.db #0x3f	; 63
    00000214 40                     848 	.db #0x40	; 64
    00000215 41                     849 	.db #0x41	; 65	'A'
    00000216 42                     850 	.db #0x42	; 66	'B'
    00000217 43                     851 	.db #0x43	; 67	'C'
    00000218 44                     852 	.db #0x44	; 68	'D'
    00000219 45                     853 	.db #0x45	; 69	'E'
    0000021A 46                     854 	.db #0x46	; 70	'F'
    0000021B 47                     855 	.db #0x47	; 71	'G'
    0000021C 48                     856 	.db #0x48	; 72	'H'
    0000021D 49                     857 	.db #0x49	; 73	'I'
    0000021E 4A                     858 	.db #0x4a	; 74	'J'
    0000021F 4B                     859 	.db #0x4b	; 75	'K'
    00000220 4C                     860 	.db #0x4c	; 76	'L'
    00000221 4D                     861 	.db #0x4d	; 77	'M'
    00000222 4E                     862 	.db #0x4e	; 78	'N'
    00000223 4F                     863 	.db #0x4f	; 79	'O'
    00000224 50                     864 	.db #0x50	; 80	'P'
    00000225 51                     865 	.db #0x51	; 81	'Q'
    00000226 52                     866 	.db #0x52	; 82	'R'
    00000227 53                     867 	.db #0x53	; 83	'S'
    00000228 54                     868 	.db #0x54	; 84	'T'
    00000229 55                     869 	.db #0x55	; 85	'U'
    0000022A 56                     870 	.db #0x56	; 86	'V'
    0000022B 57                     871 	.db #0x57	; 87	'W'
    0000022C 58                     872 	.db #0x58	; 88	'X'
    0000022D 58                     873 	.db #0x58	; 88	'X'
    0000022E 58                     874 	.db #0x58	; 88	'X'
    0000022F 58                     875 	.db #0x58	; 88	'X'
    00000230 58                     876 	.db #0x58	; 88	'X'
    00000231 58                     877 	.db #0x58	; 88	'X'
    00000232 58                     878 	.db #0x58	; 88	'X'
    00000233 58                     879 	.db #0x58	; 88	'X'
    00000234 58                     880 	.db #0x58	; 88	'X'
    00000235 58                     881 	.db #0x58	; 88	'X'
    00000236 58                     882 	.db #0x58	; 88	'X'
    00000237 58                     883 	.db #0x58	; 88	'X'
    00000238 58                     884 	.db #0x58	; 88	'X'
    00000239 58                     885 	.db #0x58	; 88	'X'
    0000023A 58                     886 	.db #0x58	; 88	'X'
    0000023B 58                     887 	.db #0x58	; 88	'X'
    0000023C 58                     888 	.db #0x58	; 88	'X'
    0000023D 58                     889 	.db #0x58	; 88	'X'
    0000023E 58                     890 	.db #0x58	; 88	'X'
    0000023F 58                     891 	.db #0x58	; 88	'X'
    00000240 58                     892 	.db #0x58	; 88	'X'
    00000241 58                     893 	.db #0x58	; 88	'X'
    00000242 58                     894 	.db #0x58	; 88	'X'
    00000243 58                     895 	.db #0x58	; 88	'X'
    00000244 58                     896 	.db #0x58	; 88	'X'
    00000245 58                     897 	.db #0x58	; 88	'X'
    00000246 58                     898 	.db #0x58	; 88	'X'
    00000247 58                     899 	.db #0x58	; 88	'X'
    00000248 58                     900 	.db #0x58	; 88	'X'
    00000249 58                     901 	.db #0x58	; 88	'X'
    0000024A 58                     902 	.db #0x58	; 88	'X'
    0000024B 58                     903 	.db #0x58	; 88	'X'
    0000024C 58                     904 	.db #0x58	; 88	'X'
    0000024D 58                     905 	.db #0x58	; 88	'X'
    0000024E 58                     906 	.db #0x58	; 88	'X'
    0000024F 58                     907 	.db #0x58	; 88	'X'
    00000250 58                     908 	.db #0x58	; 88	'X'
    00000251 58                     909 	.db #0x58	; 88	'X'
    00000252 58                     910 	.db #0x58	; 88	'X'
    00000253 58                     911 	.db #0x58	; 88	'X'
    00000254 58                     912 	.db #0x58	; 88	'X'
    00000255 58                     913 	.db #0x58	; 88	'X'
    00000256 58                     914 	.db #0x58	; 88	'X'
    00000257 58                     915 	.db #0x58	; 88	'X'
    00000258 58                     916 	.db #0x58	; 88	'X'
    00000259 58                     917 	.db #0x58	; 88	'X'
    0000025A 58                     918 	.db #0x58	; 88	'X'
    0000025B 58                     919 	.db #0x58	; 88	'X'
    0000025C 58                     920 	.db #0x58	; 88	'X'
    0000025D 58                     921 	.db #0x58	; 88	'X'
    0000025E 58                     922 	.db #0x58	; 88	'X'
    0000025F 58                     923 	.db #0x58	; 88	'X'
    00000260 58                     924 	.db #0x58	; 88	'X'
    00000261 58                     925 	.db #0x58	; 88	'X'
    00000262 58                     926 	.db #0x58	; 88	'X'
    00000263 58                     927 	.db #0x58	; 88	'X'
    00000264 58                     928 	.db #0x58	; 88	'X'
    00000265 58                     929 	.db #0x58	; 88	'X'
    00000266 58                     930 	.db #0x58	; 88	'X'
    00000267 58                     931 	.db #0x58	; 88	'X'
    00000268 58                     932 	.db #0x58	; 88	'X'
    00000269 58                     933 	.db #0x58	; 88	'X'
    0000026A 58                     934 	.db #0x58	; 88	'X'
    0000026B 58                     935 	.db #0x58	; 88	'X'
    0000026C 58                     936 	.db #0x58	; 88	'X'
    0000026D 58                     937 	.db #0x58	; 88	'X'
    0000026E 58                     938 	.db #0x58	; 88	'X'
    0000026F 58                     939 	.db #0x58	; 88	'X'
    00000270 58                     940 	.db #0x58	; 88	'X'
    00000271 58                     941 	.db #0x58	; 88	'X'
    00000272 58                     942 	.db #0x58	; 88	'X'
    00000273 58                     943 	.db #0x58	; 88	'X'
    00000274 58                     944 	.db #0x58	; 88	'X'
    00000275 58                     945 	.db #0x58	; 88	'X'
    00000276 58                     946 	.db #0x58	; 88	'X'
    00000277 58                     947 	.db #0x58	; 88	'X'
    00000278 58                     948 	.db #0x58	; 88	'X'
    00000279 58                     949 	.db #0x58	; 88	'X'
    0000027A 58                     950 	.db #0x58	; 88	'X'
    0000027B 58                     951 	.db #0x58	; 88	'X'
    0000027C 58                     952 	.db #0x58	; 88	'X'
    0000027D 58                     953 	.db #0x58	; 88	'X'
    0000027E 58                     954 	.db #0x58	; 88	'X'
    0000027F 58                     955 	.db #0x58	; 88	'X'
    00000280 58                     956 	.db #0x58	; 88	'X'
    00000281 58                     957 	.db #0x58	; 88	'X'
    00000282 58                     958 	.db #0x58	; 88	'X'
    00000283 58                     959 	.db #0x58	; 88	'X'
    00000284 58                     960 	.db #0x58	; 88	'X'
    00000285 58                     961 	.db #0x58	; 88	'X'
    00000286 58                     962 	.db #0x58	; 88	'X'
    00000287 58                     963 	.db #0x58	; 88	'X'
    00000288 58                     964 	.db #0x58	; 88	'X'
    00000289 58                     965 	.db #0x58	; 88	'X'
    0000028A 58                     966 	.db #0x58	; 88	'X'
    0000028B 58                     967 	.db #0x58	; 88	'X'
    0000028C 58                     968 	.db #0x58	; 88	'X'
    0000028D 58                     969 	.db #0x58	; 88	'X'
    0000028E 58                     970 	.db #0x58	; 88	'X'
    0000028F 58                     971 	.db #0x58	; 88	'X'
    00000290 58                     972 	.db #0x58	; 88	'X'
    00000291 58                     973 	.db #0x58	; 88	'X'
    00000292 58                     974 	.db #0x58	; 88	'X'
    00000293 58                     975 	.db #0x58	; 88	'X'
    00000294 58                     976 	.db #0x58	; 88	'X'
    00000295 58                     977 	.db #0x58	; 88	'X'
    00000296 58                     978 	.db #0x58	; 88	'X'
    00000297 58                     979 	.db #0x58	; 88	'X'
    00000298 58                     980 	.db #0x58	; 88	'X'
    00000299 58                     981 	.db #0x58	; 88	'X'
    0000029A 58                     982 	.db #0x58	; 88	'X'
    0000029B 58                     983 	.db #0x58	; 88	'X'
    0000029C 59                     984 	.db #0x59	; 89	'Y'
    0000029D 5A                     985 	.db #0x5a	; 90	'Z'
    0000029E 5B                     986 	.db #0x5b	; 91
    0000029F 5C                     987 	.db #0x5c	; 92
    000002A0 5D                     988 	.db #0x5d	; 93
    000002A1 5E                     989 	.db #0x5e	; 94
    000002A2 5F                     990 	.db #0x5f	; 95
    000002A3 60                     991 	.db #0x60	; 96
    000002A4 61                     992 	.db #0x61	; 97	'a'
    000002A5 62                     993 	.db #0x62	; 98	'b'
    000002A6 63                     994 	.db #0x63	; 99	'c'
    000002A7 64                     995 	.db #0x64	; 100	'd'
    000002A8 65                     996 	.db #0x65	; 101	'e'
    000002A9 66                     997 	.db #0x66	; 102	'f'
    000002AA 67                     998 	.db #0x67	; 103	'g'
    000002AB 68                     999 	.db #0x68	; 104	'h'
    000002AC 69                    1000 	.db #0x69	; 105	'i'
    000002AD 6A                    1001 	.db #0x6a	; 106	'j'
    000002AE 6B                    1002 	.db #0x6b	; 107	'k'
    000002AF 6C                    1003 	.db #0x6c	; 108	'l'
    000002B0 6D                    1004 	.db #0x6d	; 109	'm'
    000002B1 6E                    1005 	.db #0x6e	; 110	'n'
    000002B2 6F                    1006 	.db #0x6f	; 111	'o'
    000002B3 70                    1007 	.db #0x70	; 112	'p'
    000002B4 71                    1008 	.db #0x71	; 113	'q'
    000002B5 72                    1009 	.db #0x72	; 114	'r'
    000002B6 73                    1010 	.db #0x73	; 115	's'
    000002B7 74                    1011 	.db #0x74	; 116	't'
    000002B8 75                    1012 	.db #0x75	; 117	'u'
    000002B9 76                    1013 	.db #0x76	; 118	'v'
    000002BA 77                    1014 	.db #0x77	; 119	'w'
    000002BB 78                    1015 	.db #0x78	; 120	'x'
    000002BC 79                    1016 	.db #0x79	; 121	'y'
    000002BD 7A                    1017 	.db #0x7a	; 122	'z'
    000002BE 7B                    1018 	.db #0x7b	; 123
    000002BF 7C                    1019 	.db #0x7c	; 124
    000002C0 7D                    1020 	.db #0x7d	; 125
    000002C1 7E                    1021 	.db #0x7e	; 126
    000002C2 7F                    1022 	.db #0x7f	; 127
    000002C3 80                    1023 	.db #0x80	; 128
    000002C4 81                    1024 	.db #0x81	; 129
    000002C5 82                    1025 	.db #0x82	; 130
    000002C6 83                    1026 	.db #0x83	; 131
    000002C7 84                    1027 	.db #0x84	; 132
    000002C8 85                    1028 	.db #0x85	; 133
    000002C9 86                    1029 	.db #0x86	; 134
    000002CA 87                    1030 	.db #0x87	; 135
    000002CB 88                    1031 	.db #0x88	; 136
    000002CC 89                    1032 	.db #0x89	; 137
    000002CD 8A                    1033 	.db #0x8a	; 138
    000002CE 8B                    1034 	.db #0x8b	; 139
    000002CF 8C                    1035 	.db #0x8c	; 140
    000002D0 8D                    1036 	.db #0x8d	; 141
    000002D1 8E                    1037 	.db #0x8e	; 142
    000002D2 8F                    1038 	.db #0x8f	; 143
    000002D3 90                    1039 	.db #0x90	; 144
    000002D4 91                    1040 	.db #0x91	; 145
    000002D5 92                    1041 	.db #0x92	; 146
    000002D6 93                    1042 	.db #0x93	; 147
    000002D7 94                    1043 	.db #0x94	; 148
    000002D8 95                    1044 	.db #0x95	; 149
    000002D9 96                    1045 	.db #0x96	; 150
    000002DA 97                    1046 	.db #0x97	; 151
    000002DB 98                    1047 	.db #0x98	; 152
    000002DC 98                    1048 	.db #0x98	; 152
    000002DD 98                    1049 	.db #0x98	; 152
    000002DE 98                    1050 	.db #0x98	; 152
    000002DF 98                    1051 	.db #0x98	; 152
    000002E0 98                    1052 	.db #0x98	; 152
    000002E1 98                    1053 	.db #0x98	; 152
    000002E2 98                    1054 	.db #0x98	; 152
    000002E3 98                    1055 	.db #0x98	; 152
    000002E4 98                    1056 	.db #0x98	; 152
    000002E5 98                    1057 	.db #0x98	; 152
    000002E6 98                    1058 	.db #0x98	; 152
    000002E7 98                    1059 	.db #0x98	; 152
    000002E8 98                    1060 	.db #0x98	; 152
    000002E9 98                    1061 	.db #0x98	; 152
    000002EA 98                    1062 	.db #0x98	; 152
    000002EB 98                    1063 	.db #0x98	; 152
    000002EC 98                    1064 	.db #0x98	; 152
    000002ED 98                    1065 	.db #0x98	; 152
    000002EE 98                    1066 	.db #0x98	; 152
    000002EF 98                    1067 	.db #0x98	; 152
    000002F0 98                    1068 	.db #0x98	; 152
    000002F1 98                    1069 	.db #0x98	; 152
    000002F2 98                    1070 	.db #0x98	; 152
    000002F3 98                    1071 	.db #0x98	; 152
    000002F4 98                    1072 	.db #0x98	; 152
    000002F5 98                    1073 	.db #0x98	; 152
    000002F6 98                    1074 	.db #0x98	; 152
    000002F7 98                    1075 	.db #0x98	; 152
    000002F8 98                    1076 	.db #0x98	; 152
    000002F9 98                    1077 	.db #0x98	; 152
    000002FA 98                    1078 	.db #0x98	; 152
    000002FB 98                    1079 	.db #0x98	; 152
    000002FC 98                    1080 	.db #0x98	; 152
    000002FD 98                    1081 	.db #0x98	; 152
    000002FE 98                    1082 	.db #0x98	; 152
    000002FF 98                    1083 	.db #0x98	; 152
    00000300 98                    1084 	.db #0x98	; 152
    00000301 98                    1085 	.db #0x98	; 152
    00000302 98                    1086 	.db #0x98	; 152
    00000303 98                    1087 	.db #0x98	; 152
    00000304 98                    1088 	.db #0x98	; 152
    00000305 98                    1089 	.db #0x98	; 152
    00000306 98                    1090 	.db #0x98	; 152
    00000307 98                    1091 	.db #0x98	; 152
    00000308 98                    1092 	.db #0x98	; 152
    00000309 98                    1093 	.db #0x98	; 152
    0000030A 98                    1094 	.db #0x98	; 152
    0000030B 98                    1095 	.db #0x98	; 152
    0000030C 98                    1096 	.db #0x98	; 152
    0000030D 98                    1097 	.db #0x98	; 152
    0000030E 98                    1098 	.db #0x98	; 152
    0000030F 98                    1099 	.db #0x98	; 152
    00000310 98                    1100 	.db #0x98	; 152
    00000311 98                    1101 	.db #0x98	; 152
    00000312 98                    1102 	.db #0x98	; 152
    00000313 98                    1103 	.db #0x98	; 152
    00000314 98                    1104 	.db #0x98	; 152
    00000315 98                    1105 	.db #0x98	; 152
    00000316 98                    1106 	.db #0x98	; 152
    00000317 98                    1107 	.db #0x98	; 152
    00000318 98                    1108 	.db #0x98	; 152
    00000319 98                    1109 	.db #0x98	; 152
    0000031A 98                    1110 	.db #0x98	; 152
    0000031B 98                    1111 	.db #0x98	; 152
    0000031C 98                    1112 	.db #0x98	; 152
    0000031D 98                    1113 	.db #0x98	; 152
    0000031E 98                    1114 	.db #0x98	; 152
    0000031F 98                    1115 	.db #0x98	; 152
    00000320 98                    1116 	.db #0x98	; 152
    00000321 98                    1117 	.db #0x98	; 152
    00000322 98                    1118 	.db #0x98	; 152
    00000323 98                    1119 	.db #0x98	; 152
    00000324 98                    1120 	.db #0x98	; 152
    00000325 98                    1121 	.db #0x98	; 152
    00000326 98                    1122 	.db #0x98	; 152
    00000327 98                    1123 	.db #0x98	; 152
    00000328 98                    1124 	.db #0x98	; 152
    00000329 98                    1125 	.db #0x98	; 152
    0000032A 98                    1126 	.db #0x98	; 152
    0000032B 98                    1127 	.db #0x98	; 152
    0000032C 98                    1128 	.db #0x98	; 152
    0000032D 98                    1129 	.db #0x98	; 152
    0000032E 98                    1130 	.db #0x98	; 152
    0000032F 98                    1131 	.db #0x98	; 152
    00000330 98                    1132 	.db #0x98	; 152
    00000331 98                    1133 	.db #0x98	; 152
    00000332 98                    1134 	.db #0x98	; 152
    00000333 98                    1135 	.db #0x98	; 152
    00000334 98                    1136 	.db #0x98	; 152
    00000335 98                    1137 	.db #0x98	; 152
    00000336 98                    1138 	.db #0x98	; 152
    00000337 98                    1139 	.db #0x98	; 152
    00000338 98                    1140 	.db #0x98	; 152
    00000339 98                    1141 	.db #0x98	; 152
    0000033A 98                    1142 	.db #0x98	; 152
    0000033B 98                    1143 	.db #0x98	; 152
    0000033C 98                    1144 	.db #0x98	; 152
    0000033D 98                    1145 	.db #0x98	; 152
    0000033E 98                    1146 	.db #0x98	; 152
    0000033F 98                    1147 	.db #0x98	; 152
    00000340 98                    1148 	.db #0x98	; 152
    00000341 98                    1149 	.db #0x98	; 152
    00000342 98                    1150 	.db #0x98	; 152
    00000343 98                    1151 	.db #0x98	; 152
    00000344 98                    1152 	.db #0x98	; 152
    00000345 98                    1153 	.db #0x98	; 152
    00000346 98                    1154 	.db #0x98	; 152
    00000347 98                    1155 	.db #0x98	; 152
    00000348 98                    1156 	.db #0x98	; 152
    00000349 98                    1157 	.db #0x98	; 152
    0000034A 98                    1158 	.db #0x98	; 152
    0000034B 99                    1159 	.db #0x99	; 153
    0000034C 9A                    1160 	.db #0x9a	; 154
    0000034D 9B                    1161 	.db #0x9b	; 155
    0000034E 9C                    1162 	.db #0x9c	; 156
    0000034F 9D                    1163 	.db #0x9d	; 157
    00000350 9E                    1164 	.db #0x9e	; 158
    00000351 9F                    1165 	.db #0x9f	; 159
    00000352 A0                    1166 	.db #0xa0	; 160
    00000353 A1                    1167 	.db #0xa1	; 161
    00000354 A2                    1168 	.db #0xa2	; 162
    00000355 A3                    1169 	.db #0xa3	; 163
    00000356 A4                    1170 	.db #0xa4	; 164
    00000357 A5                    1171 	.db #0xa5	; 165
    00000358 A6                    1172 	.db #0xa6	; 166
    00000359 A7                    1173 	.db #0xa7	; 167
    0000035A A8                    1174 	.db #0xa8	; 168
    0000035B A9                    1175 	.db #0xa9	; 169
    0000035C AA                    1176 	.db #0xaa	; 170
    0000035D AB                    1177 	.db #0xab	; 171
    0000035E AC                    1178 	.db #0xac	; 172
    0000035F AD                    1179 	.db #0xad	; 173
    00000360 AE                    1180 	.db #0xae	; 174
    00000361 AF                    1181 	.db #0xaf	; 175
    00000362 B0                    1182 	.db #0xb0	; 176
    00000363 B1                    1183 	.db #0xb1	; 177
    00000364 B2                    1184 	.db #0xb2	; 178
    00000365 B3                    1185 	.db #0xb3	; 179
    00000366 B4                    1186 	.db #0xb4	; 180
    00000367 B5                    1187 	.db #0xb5	; 181
    00000368 B5                    1188 	.db #0xb5	; 181
    00000369 B5                    1189 	.db #0xb5	; 181
    0000036A B5                    1190 	.db #0xb5	; 181
    0000036B B5                    1191 	.db #0xb5	; 181
    0000036C B5                    1192 	.db #0xb5	; 181
    0000036D B5                    1193 	.db #0xb5	; 181
    0000036E B5                    1194 	.db #0xb5	; 181
    0000036F B5                    1195 	.db #0xb5	; 181
    00000370 B5                    1196 	.db #0xb5	; 181
    00000371 B5                    1197 	.db #0xb5	; 181
    00000372 B5                    1198 	.db #0xb5	; 181
    00000373 B5                    1199 	.db #0xb5	; 181
    00000374 B5                    1200 	.db #0xb5	; 181
    00000375 B6                    1201 	.db #0xb6	; 182
    00000376 B7                    1202 	.db #0xb7	; 183
    00000377 B8                    1203 	.db #0xb8	; 184
    00000378 B9                    1204 	.db #0xb9	; 185
    00000379 BA                    1205 	.db #0xba	; 186
    0000037A BB                    1206 	.db #0xbb	; 187
    0000037B BC                    1207 	.db #0xbc	; 188
    0000037C BD                    1208 	.db #0xbd	; 189
    0000037D BE                    1209 	.db #0xbe	; 190
    0000037E BF                    1210 	.db #0xbf	; 191
    0000037F C0                    1211 	.db #0xc0	; 192
    00000380 C1                    1212 	.db #0xc1	; 193
    00000381 C2                    1213 	.db #0xc2	; 194
    00000382 C3                    1214 	.db #0xc3	; 195
    00000383 C4                    1215 	.db #0xc4	; 196
    00000384 C5                    1216 	.db #0xc5	; 197
    00000385 C6                    1217 	.db #0xc6	; 198
    00000386 C7                    1218 	.db #0xc7	; 199
    00000387 C8                    1219 	.db #0xc8	; 200
    00000388 C9                    1220 	.db #0xc9	; 201
    00000389 CA                    1221 	.db #0xca	; 202
    0000038A CB                    1222 	.db #0xcb	; 203
    0000038B CC                    1223 	.db #0xcc	; 204
    0000038C CD                    1224 	.db #0xcd	; 205
    0000038D CE                    1225 	.db #0xce	; 206
    0000038E CF                    1226 	.db #0xcf	; 207
    0000038F D0                    1227 	.db #0xd0	; 208
    00000390 D1                    1228 	.db #0xd1	; 209
    00000391 D2                    1229 	.db #0xd2	; 210
    00000392 D3                    1230 	.db #0xd3	; 211
    00000393 D4                    1231 	.db #0xd4	; 212
    00000394 D5                    1232 	.db #0xd5	; 213
    00000395 D6                    1233 	.db #0xd6	; 214
    00000396 D7                    1234 	.db #0xd7	; 215
    00000397 D8                    1235 	.db #0xd8	; 216
    00000398 D9                    1236 	.db #0xd9	; 217
    00000399 DA                    1237 	.db #0xda	; 218
    0000039A DB                    1238 	.db #0xdb	; 219
    0000039B DC                    1239 	.db #0xdc	; 220
    0000039C DD                    1240 	.db #0xdd	; 221
    0000039D DE                    1241 	.db #0xde	; 222
    0000039E DF                    1242 	.db #0xdf	; 223
    0000039F E0                    1243 	.db #0xe0	; 224
    000003A0 E1                    1244 	.db #0xe1	; 225
    000003A1 E2                    1245 	.db #0xe2	; 226
    000003A2 E3                    1246 	.db #0xe3	; 227
    000003A3 E4                    1247 	.db #0xe4	; 228
    000003A4 E5                    1248 	.db #0xe5	; 229
    000003A5 E6                    1249 	.db #0xe6	; 230
    000003A6 E7                    1250 	.db #0xe7	; 231
    000003A7 E8                    1251 	.db #0xe8	; 232
    000003A8 E9                    1252 	.db #0xe9	; 233
    000003A9 EA                    1253 	.db #0xea	; 234
    000003AA EB                    1254 	.db #0xeb	; 235
    000003AB EC                    1255 	.db #0xec	; 236
    000003AC ED                    1256 	.db #0xed	; 237
    000003AD EE                    1257 	.db #0xee	; 238
    000003AE EF                    1258 	.db #0xef	; 239
    000003AF F0                    1259 	.db #0xf0	; 240
    000003B0 F1                    1260 	.db #0xf1	; 241
    000003B1 F2                    1261 	.db #0xf2	; 242
    000003B2 F3                    1262 	.db #0xf3	; 243
    000003B3 F4                    1263 	.db #0xf4	; 244
    000003B4 F5                    1264 	.db #0xf5	; 245
    000003B5 F6                    1265 	.db #0xf6	; 246
    000003B6 F7                    1266 	.db #0xf7	; 247
    000003B7 F8                    1267 	.db #0xf8	; 248
    000003B8 F9                    1268 	.db #0xf9	; 249
    000003B9 FA                    1269 	.db #0xfa	; 250
    000003BA FB                    1270 	.db #0xfb	; 251
    000003BB FC                    1271 	.db #0xfc	; 252
    000003BC FD                    1272 	.db #0xfd	; 253
    000003BD FE                    1273 	.db #0xfe	; 254
    000003BE FF                    1274 	.db #0xff	; 255
                                   1275 ;E:\Dropbox\FAUSTO\SVILUPPI\MSX\CODE\C\MSXgl\projects\soccerlgMSX2/soccerlg_s5_b3.c:55: static void RebuildPageUp(u8 page, u16 scroll_y)
                                   1276 ;	---------------------------------
                                   1277 ; Function RebuildPageUp
                                   1278 ; ---------------------------------
    000003BF                       1279 _RebuildPageUp:
    000003BF DD E5            [15] 1280 	push	ix
    000003C1 DD 21 00 00      [14] 1281 	ld	ix,#0
    000003C5 DD 39            [15] 1282 	add	ix,sp
    000003C7 21 F3 FF         [10] 1283 	ld	hl, #-13
    000003CA 39               [11] 1284 	add	hl, sp
    000003CB F9               [ 6] 1285 	ld	sp, hl
    000003CC DD 77 FB         [19] 1286 	ld	-5 (ix), a
    000003CF DD 73 F9         [19] 1287 	ld	-7 (ix), e
    000003D2 DD 72 FA         [19] 1288 	ld	-6 (ix), d
                                   1289 ;E:\Dropbox\FAUSTO\SVILUPPI\MSX\CODE\C\MSXgl\projects\soccerlgMSX2/soccerlg_s5_b3.c:57: u16 dst_y        = (u16)page * 256u + HUD_LINES;
    000003D5 DD 7E FB         [19] 1290 	ld	a, -5 (ix)
    000003D8 DD 77 FE         [19] 1291 	ld	-2 (ix), a
    000003DB DD 36 FF 00      [19] 1292 	ld	-1 (ix), #0x00
    000003DF DD 7E FE         [19] 1293 	ld	a, -2 (ix)
    000003E2 DD 77 FD         [19] 1294 	ld	-3 (ix), a
    000003E5 DD 36 FC 00      [19] 1295 	ld	-4 (ix), #0x00
    000003E9 AF               [ 4] 1296 	xor	a, a
    000003EA C6 08            [ 7] 1297 	add	a, #0x08
    000003EC DD 77 FE         [19] 1298 	ld	-2 (ix), a
    000003EF DD 7E FD         [19] 1299 	ld	a, -3 (ix)
    000003F2 CE 00            [ 7] 1300 	adc	a, #0x00
    000003F4 DD 77 FF         [19] 1301 	ld	-1 (ix), a
    000003F7 DD 7E FE         [19] 1302 	ld	a, -2 (ix)
    000003FA DD 77 F3         [19] 1303 	ld	-13 (ix), a
    000003FD DD 7E FF         [19] 1304 	ld	a, -1 (ix)
    00000400 DD 77 F4         [19] 1305 	ld	-12 (ix), a
                                   1306 ;E:\Dropbox\FAUSTO\SVILUPPI\MSX\CODE\C\MSXgl\projects\soccerlgMSX2/soccerlg_s5_b3.c:58: u8  vtop         = (scroll_y >= VTOP_MAX) ? VTOP_MAX : (u8)scroll_y;
    00000403 DD 7E F9         [19] 1307 	ld	a, -7 (ix)
    00000406 D6 31            [ 7] 1308 	sub	a, #0x31
    00000408 DD 7E FA         [19] 1309 	ld	a, -6 (ix)
    0000040B DE 00            [ 7] 1310 	sbc	a, #0x00
    0000040D 38 05            [12] 1311 	jr	C, 00122$
    0000040F 3E 31            [ 7] 1312 	ld	a, #0x31
    00000411 C3r17r04         [10] 1313 	jp	00123$
    00000414                       1314 00122$:
    00000414 DD 7E F9         [19] 1315 	ld	a, -7 (ix)
    00000417                       1316 00123$:
    00000417 DD 77 F5         [19] 1317 	ld	-11 (ix), a
                                   1318 ;E:\Dropbox\FAUSTO\SVILUPPI\MSX\CODE\C\MSXgl\projects\soccerlgMSX2/soccerlg_s5_b3.c:59: const u8* pField = &FieldMap[scroll_y - vtop];
    0000041A 01rC7r01         [10] 1319 	ld	bc, #_FieldMap+0
    0000041D DD 5E F5         [19] 1320 	ld	e, -11 (ix)
    00000420 16 00            [ 7] 1321 	ld	d, #0x00
    00000422 DD 6E F9         [19] 1322 	ld	l, -7 (ix)
                                   1323 ;	spillPairReg hl
                                   1324 ;	spillPairReg hl
    00000425 DD 66 FA         [19] 1325 	ld	h, -6 (ix)
                                   1326 ;	spillPairReg hl
                                   1327 ;	spillPairReg hl
    00000428 BF               [ 4] 1328 	cp	a, a
    00000429 ED 52            [15] 1329 	sbc	hl, de
    0000042B 09               [11] 1330 	add	hl, bc
    0000042C DD 75 FC         [19] 1331 	ld	-4 (ix), l
    0000042F DD 74 FD         [19] 1332 	ld	-3 (ix), h
                                   1333 ;E:\Dropbox\FAUSTO\SVILUPPI\MSX\CODE\C\MSXgl\projects\soccerlgMSX2/soccerlg_s5_b3.c:60: u8  remaining    = vtop + SCREEN_LINES - HUD_LINES;
    00000432 DD 7E F5         [19] 1334 	ld	a, -11 (ix)
    00000435 C6 B8            [ 7] 1335 	add	a, #0xb8
    00000437 DD 77 FE         [19] 1336 	ld	-2 (ix), a
                                   1337 ;E:\Dropbox\FAUSTO\SVILUPPI\MSX\CODE\C\MSXgl\projects\soccerlgMSX2/soccerlg_s5_b3.c:62: while (remaining > 0)
    0000043A                       1338 00114$:
    0000043A DD 7E FE         [19] 1339 	ld	a, -2 (ix)
    0000043D B7               [ 4] 1340 	or	a, a
    0000043E CAr75r05         [10] 1341 	jp	Z, 00116$
                                   1342 ;E:\Dropbox\FAUSTO\SVILUPPI\MSX\CODE\C\MSXgl\projects\soccerlgMSX2/soccerlg_s5_b3.c:64: u8 src = pField[0];
    00000441 DD 6E FC         [19] 1343 	ld	l, -4 (ix)
    00000444 DD 66 FD         [19] 1344 	ld	h, -3 (ix)
    00000447 7E               [ 7] 1345 	ld	a, (hl)
    00000448 DD 77 F6         [19] 1346 	ld	-10 (ix), a
                                   1347 ;E:\Dropbox\FAUSTO\SVILUPPI\MSX\CODE\C\MSXgl\projects\soccerlgMSX2/soccerlg_s5_b3.c:66: while (step < remaining && pField[step] == (u8)(src + step))
    0000044B DD 36 FF 01      [19] 1348 	ld	-1 (ix), #0x01
    0000044F                       1349 00102$:
    0000044F DD 7E FF         [19] 1350 	ld	a, -1 (ix)
    00000452 DD 96 FE         [19] 1351 	sub	a, -2 (ix)
    00000455 30 27            [12] 1352 	jr	NC, 00135$
    00000457 DD 7E FC         [19] 1353 	ld	a, -4 (ix)
    0000045A DD 86 FF         [19] 1354 	add	a, -1 (ix)
    0000045D DD 77 F7         [19] 1355 	ld	-9 (ix), a
    00000460 DD 7E FD         [19] 1356 	ld	a, -3 (ix)
    00000463 CE 00            [ 7] 1357 	adc	a, #0x00
    00000465 DD 77 F8         [19] 1358 	ld	-8 (ix), a
    00000468 DD 6E F7         [19] 1359 	ld	l, -9 (ix)
    0000046B DD 66 F8         [19] 1360 	ld	h, -8 (ix)
    0000046E 4E               [ 7] 1361 	ld	c, (hl)
    0000046F DD 7E F6         [19] 1362 	ld	a, -10 (ix)
    00000472 DD 86 FF         [19] 1363 	add	a, -1 (ix)
    00000475 91               [ 4] 1364 	sub	a, c
    00000476 20 06            [12] 1365 	jr	NZ, 00135$
                                   1366 ;E:\Dropbox\FAUSTO\SVILUPPI\MSX\CODE\C\MSXgl\projects\soccerlgMSX2/soccerlg_s5_b3.c:67: step++;
    00000478 DD 34 FF         [23] 1367 	inc	-1 (ix)
    0000047B C3r4Fr04         [10] 1368 	jp	00102$
    0000047E                       1369 00135$:
    0000047E DD 4E FF         [19] 1370 	ld	c, -1 (ix)
                                   1371 ;E:\Dropbox\FAUSTO\SVILUPPI\MSX\CODE\C\MSXgl\projects\soccerlgMSX2/soccerlg_s5_b3.c:69: if (step > 1) {
    00000481 3E 01            [ 7] 1372 	ld	a, #0x01
    00000483 DD 96 FF         [19] 1373 	sub	a, -1 (ix)
    00000486 30 39            [12] 1374 	jr	NC, 00132$
                                   1375 ;E:\Dropbox\FAUSTO\SVILUPPI\MSX\CODE\C\MSXgl\projects\soccerlgMSX2/soccerlg_s5_b3.c:70: VDP_CommandYMMM(768u + src, 0, dst_y, step, 0);
    00000488 DD 5E FF         [19] 1376 	ld	e, -1 (ix)
    0000048B 16 00            [ 7] 1377 	ld	d, #0x00
                                   1378 ;	spillPairReg hl
                                   1379 ;	spillPairReg hl
                                   1380 ;	spillPairReg hl
                                   1381 ;	spillPairReg hl
    0000048D DD 46 F6         [19] 1382 	ld	b, -10 (ix)
    00000490 AF               [ 4] 1383 	xor	a, a
    00000491 C6 03            [ 7] 1384 	add	a, #0x03
                                   1385 ;E:/Dropbox/FAUSTO/SVILUPPI/MSX/CODE/C/MSXgl/engine/src/vdp_inl.h:65: g_VDP_Command.SY = sy;
    00000493 21r02r00         [10] 1386 	ld	hl, #_g_VDP_Command + 2
    00000496 70               [ 7] 1387 	ld	(hl), b
    00000497 23               [ 6] 1388 	inc	hl
    00000498 77               [ 7] 1389 	ld	(hl), a
                                   1390 ;E:/Dropbox/FAUSTO/SVILUPPI/MSX/CODE/C/MSXgl/engine/src/vdp_inl.h:66: g_VDP_Command.DX = dx;
    00000499 21 00 00         [10] 1391 	ld	hl, #0x0000
    0000049C 22r04r00         [16] 1392 	ld	((_g_VDP_Command + 4)), hl
                                   1393 ;E:/Dropbox/FAUSTO/SVILUPPI/MSX/CODE/C/MSXgl/engine/src/vdp_inl.h:67: g_VDP_Command.DY = dy;
    0000049F 21r06r00         [10] 1394 	ld	hl, #(_g_VDP_Command + 6)
    000004A2 DD 7E F3         [19] 1395 	ld	a, -13 (ix)
    000004A5 77               [ 7] 1396 	ld	(hl), a
    000004A6 23               [ 6] 1397 	inc	hl
    000004A7 DD 7E F4         [19] 1398 	ld	a, -12 (ix)
    000004AA 77               [ 7] 1399 	ld	(hl), a
                                   1400 ;E:/Dropbox/FAUSTO/SVILUPPI/MSX/CODE/C/MSXgl/engine/src/vdp_inl.h:68: g_VDP_Command.NY = ny;
    000004AB ED 53r0Ar00      [20] 1401 	ld	((_g_VDP_Command + 10)), de
                                   1402 ;E:/Dropbox/FAUSTO/SVILUPPI/MSX/CODE/C/MSXgl/engine/src/vdp_inl.h:69: g_VDP_Command.ARG = dir; 
    000004AF 21r0Dr00         [10] 1403 	ld	hl, #(_g_VDP_Command + 13)
    000004B2 36 00            [10] 1404 	ld	(hl), #0x00
                                   1405 ;E:/Dropbox/FAUSTO/SVILUPPI/MSX/CODE/C/MSXgl/engine/src/vdp_inl.h:70: g_VDP_Command.CMD = VDP_CMD_YMMM;
    000004B4 21r0Er00         [10] 1406 	ld	hl, #(_g_VDP_Command + 14)
    000004B7 36 E0            [10] 1407 	ld	(hl), #0xe0
                                   1408 ;E:/Dropbox/FAUSTO/SVILUPPI/MSX/CODE/C/MSXgl/engine/src/vdp_inl.h:71: VPD_CommandSetupR32();
    000004B9 C5               [11] 1409 	push	bc
    000004BA CDr00r00         [17] 1410 	call	_VPD_CommandSetupR32
    000004BD C1               [10] 1411 	pop	bc
                                   1412 ;E:\Dropbox\FAUSTO\SVILUPPI\MSX\CODE\C\MSXgl\projects\soccerlgMSX2/soccerlg_s5_b3.c:70: VDP_CommandYMMM(768u + src, 0, dst_y, step, 0);
    000004BE C3r58r05         [10] 1413 	jp	00113$
                                   1414 ;E:\Dropbox\FAUSTO\SVILUPPI\MSX\CODE\C\MSXgl\projects\soccerlgMSX2/soccerlg_s5_b3.c:72: while (step < remaining && pField[step] == src)
    000004C1                       1415 00132$:
    000004C1 DD 5E FF         [19] 1416 	ld	e, -1 (ix)
    000004C4                       1417 00106$:
    000004C4 7B               [ 4] 1418 	ld	a, e
    000004C5 DD 96 FE         [19] 1419 	sub	a, -2 (ix)
    000004C8 30 13            [12] 1420 	jr	NC, 00136$
    000004CA DD 6E FC         [19] 1421 	ld	l, -4 (ix)
    000004CD DD 66 FD         [19] 1422 	ld	h, -3 (ix)
    000004D0 16 00            [ 7] 1423 	ld	d, #0x00
    000004D2 19               [11] 1424 	add	hl, de
    000004D3 DD 7E F6         [19] 1425 	ld	a,-10 (ix)
    000004D6 96               [ 7] 1426 	sub	a,(hl)
    000004D7 20 04            [12] 1427 	jr	NZ, 00136$
                                   1428 ;E:\Dropbox\FAUSTO\SVILUPPI\MSX\CODE\C\MSXgl\projects\soccerlgMSX2/soccerlg_s5_b3.c:73: step++;
    000004D9 1C               [ 4] 1429 	inc	e
    000004DA C3rC4r04         [10] 1430 	jp	00106$
    000004DD                       1431 00136$:
    000004DD 4B               [ 4] 1432 	ld	c, e
                                   1433 ;E:\Dropbox\FAUSTO\SVILUPPI\MSX\CODE\C\MSXgl\projects\soccerlgMSX2/soccerlg_s5_b3.c:74: VDP_CommandYMMM(768u + src, 0, dst_y, 1, 0);
    000004DE DD 6E F6         [19] 1434 	ld	l, -10 (ix)
                                   1435 ;	spillPairReg hl
                                   1436 ;	spillPairReg hl
                                   1437 ;	spillPairReg hl
                                   1438 ;	spillPairReg hl
    000004E1 AF               [ 4] 1439 	xor	a, a
    000004E2 C6 03            [ 7] 1440 	add	a, #0x03
    000004E4 67               [ 4] 1441 	ld	h, a
                                   1442 ;	spillPairReg hl
                                   1443 ;	spillPairReg hl
    000004E5 45               [ 4] 1444 	ld	b, l
    000004E6 54               [ 4] 1445 	ld	d, h
                                   1446 ;E:/Dropbox/FAUSTO/SVILUPPI/MSX/CODE/C/MSXgl/engine/src/vdp_inl.h:65: g_VDP_Command.SY = sy;
    000004E7 21r02r00         [10] 1447 	ld	hl, #(_g_VDP_Command + 2)
    000004EA 70               [ 7] 1448 	ld	(hl), b
    000004EB 23               [ 6] 1449 	inc	hl
    000004EC 72               [ 7] 1450 	ld	(hl), d
                                   1451 ;E:/Dropbox/FAUSTO/SVILUPPI/MSX/CODE/C/MSXgl/engine/src/vdp_inl.h:66: g_VDP_Command.DX = dx;
    000004ED 21 00 00         [10] 1452 	ld	hl, #0x0000
    000004F0 22r04r00         [16] 1453 	ld	((_g_VDP_Command + 4)), hl
                                   1454 ;E:/Dropbox/FAUSTO/SVILUPPI/MSX/CODE/C/MSXgl/engine/src/vdp_inl.h:67: g_VDP_Command.DY = dy;
    000004F3 21r06r00         [10] 1455 	ld	hl, #(_g_VDP_Command + 6)
    000004F6 DD 7E F3         [19] 1456 	ld	a, -13 (ix)
    000004F9 77               [ 7] 1457 	ld	(hl), a
    000004FA 23               [ 6] 1458 	inc	hl
    000004FB DD 7E F4         [19] 1459 	ld	a, -12 (ix)
    000004FE 77               [ 7] 1460 	ld	(hl), a
                                   1461 ;E:/Dropbox/FAUSTO/SVILUPPI/MSX/CODE/C/MSXgl/engine/src/vdp_inl.h:68: g_VDP_Command.NY = ny;
    000004FF 21 01 00         [10] 1462 	ld	hl, #0x0001
    00000502 22r0Ar00         [16] 1463 	ld	((_g_VDP_Command + 10)), hl
                                   1464 ;E:/Dropbox/FAUSTO/SVILUPPI/MSX/CODE/C/MSXgl/engine/src/vdp_inl.h:69: g_VDP_Command.ARG = dir; 
    00000505 21r0Dr00         [10] 1465 	ld	hl, #(_g_VDP_Command + 13)
    00000508 36 00            [10] 1466 	ld	(hl), #0x00
                                   1467 ;E:/Dropbox/FAUSTO/SVILUPPI/MSX/CODE/C/MSXgl/engine/src/vdp_inl.h:70: g_VDP_Command.CMD = VDP_CMD_YMMM;
    0000050A 21r0Er00         [10] 1468 	ld	hl, #(_g_VDP_Command + 14)
    0000050D 36 E0            [10] 1469 	ld	(hl), #0xe0
                                   1470 ;E:/Dropbox/FAUSTO/SVILUPPI/MSX/CODE/C/MSXgl/engine/src/vdp_inl.h:71: VPD_CommandSetupR32();
    0000050F C5               [11] 1471 	push	bc
    00000510 D5               [11] 1472 	push	de
    00000511 CDr00r00         [17] 1473 	call	_VPD_CommandSetupR32
    00000514 D1               [10] 1474 	pop	de
    00000515 C1               [10] 1475 	pop	bc
                                   1476 ;E:\Dropbox\FAUSTO\SVILUPPI\MSX\CODE\C\MSXgl\projects\soccerlgMSX2/soccerlg_s5_b3.c:75: if (step > 1)
    00000516 3E 01            [ 7] 1477 	ld	a, #0x01
    00000518 93               [ 4] 1478 	sub	a, e
    00000519 30 3D            [12] 1479 	jr	NC, 00113$
                                   1480 ;E:\Dropbox\FAUSTO\SVILUPPI\MSX\CODE\C\MSXgl\projects\soccerlgMSX2/soccerlg_s5_b3.c:76: VDP_CommandYMMM(dst_y, 0, dst_y + 1, step - 1, 0);
    0000051B 16 00            [ 7] 1481 	ld	d, #0x00
    0000051D 1B               [ 6] 1482 	dec	de
    0000051E DD 73 F7         [19] 1483 	ld	-9 (ix), e
    00000521 DD 72 F8         [19] 1484 	ld	-8 (ix), d
    00000524 D1               [10] 1485 	pop	de
    00000525 D5               [11] 1486 	push	de
    00000526 13               [ 6] 1487 	inc	de
                                   1488 ;E:/Dropbox/FAUSTO/SVILUPPI/MSX/CODE/C/MSXgl/engine/src/vdp_inl.h:65: g_VDP_Command.SY = sy;
    00000527 21r02r00         [10] 1489 	ld	hl, #(_g_VDP_Command + 2)
    0000052A DD 7E F3         [19] 1490 	ld	a, -13 (ix)
    0000052D 77               [ 7] 1491 	ld	(hl), a
    0000052E 23               [ 6] 1492 	inc	hl
    0000052F DD 7E F4         [19] 1493 	ld	a, -12 (ix)
    00000532 77               [ 7] 1494 	ld	(hl), a
                                   1495 ;E:/Dropbox/FAUSTO/SVILUPPI/MSX/CODE/C/MSXgl/engine/src/vdp_inl.h:66: g_VDP_Command.DX = dx;
    00000533 21 00 00         [10] 1496 	ld	hl, #0x0000
    00000536 22r04r00         [16] 1497 	ld	((_g_VDP_Command + 4)), hl
                                   1498 ;E:/Dropbox/FAUSTO/SVILUPPI/MSX/CODE/C/MSXgl/engine/src/vdp_inl.h:67: g_VDP_Command.DY = dy;
    00000539 ED 53r06r00      [20] 1499 	ld	((_g_VDP_Command + 6)), de
                                   1500 ;E:/Dropbox/FAUSTO/SVILUPPI/MSX/CODE/C/MSXgl/engine/src/vdp_inl.h:68: g_VDP_Command.NY = ny;
    0000053D 21r0Ar00         [10] 1501 	ld	hl, #(_g_VDP_Command + 10)
    00000540 DD 7E F7         [19] 1502 	ld	a, -9 (ix)
    00000543 77               [ 7] 1503 	ld	(hl), a
    00000544 23               [ 6] 1504 	inc	hl
    00000545 DD 7E F8         [19] 1505 	ld	a, -8 (ix)
    00000548 77               [ 7] 1506 	ld	(hl), a
                                   1507 ;E:/Dropbox/FAUSTO/SVILUPPI/MSX/CODE/C/MSXgl/engine/src/vdp_inl.h:69: g_VDP_Command.ARG = dir; 
    00000549 21r0Dr00         [10] 1508 	ld	hl, #(_g_VDP_Command + 13)
    0000054C 36 00            [10] 1509 	ld	(hl), #0x00
                                   1510 ;E:/Dropbox/FAUSTO/SVILUPPI/MSX/CODE/C/MSXgl/engine/src/vdp_inl.h:70: g_VDP_Command.CMD = VDP_CMD_YMMM;
    0000054E 21r0Er00         [10] 1511 	ld	hl, #(_g_VDP_Command + 14)
    00000551 36 E0            [10] 1512 	ld	(hl), #0xe0
                                   1513 ;E:/Dropbox/FAUSTO/SVILUPPI/MSX/CODE/C/MSXgl/engine/src/vdp_inl.h:71: VPD_CommandSetupR32();
    00000553 C5               [11] 1514 	push	bc
    00000554 CDr00r00         [17] 1515 	call	_VPD_CommandSetupR32
    00000557 C1               [10] 1516 	pop	bc
                                   1517 ;E:\Dropbox\FAUSTO\SVILUPPI\MSX\CODE\C\MSXgl\projects\soccerlgMSX2/soccerlg_s5_b3.c:76: VDP_CommandYMMM(dst_y, 0, dst_y + 1, step - 1, 0);
    00000558                       1518 00113$:
                                   1519 ;E:\Dropbox\FAUSTO\SVILUPPI\MSX\CODE\C\MSXgl\projects\soccerlgMSX2/soccerlg_s5_b3.c:78: pField += step;
    00000558 DD 7E FC         [19] 1520 	ld	a, -4 (ix)
    0000055B 81               [ 4] 1521 	add	a, c
    0000055C DD 77 FC         [19] 1522 	ld	-4 (ix), a
    0000055F 30 03            [12] 1523 	jr	NC, 00185$
    00000561 DD 34 FD         [23] 1524 	inc	-3 (ix)
    00000564                       1525 00185$:
                                   1526 ;E:\Dropbox\FAUSTO\SVILUPPI\MSX\CODE\C\MSXgl\projects\soccerlgMSX2/soccerlg_s5_b3.c:79: dst_y += step;
    00000564 59               [ 4] 1527 	ld	e, c
    00000565 16 00            [ 7] 1528 	ld	d, #0x00
    00000567 E1               [10] 1529 	pop	hl
    00000568 E5               [11] 1530 	push	hl
    00000569 19               [11] 1531 	add	hl, de
    0000056A E3               [19] 1532 	ex	(sp), hl
                                   1533 ;E:\Dropbox\FAUSTO\SVILUPPI\MSX\CODE\C\MSXgl\projects\soccerlgMSX2/soccerlg_s5_b3.c:80: remaining -= step;
    0000056B DD 7E FE         [19] 1534 	ld	a, -2 (ix)
    0000056E 91               [ 4] 1535 	sub	a, c
    0000056F DD 77 FE         [19] 1536 	ld	-2 (ix), a
    00000572 C3r3Ar04         [10] 1537 	jp	00114$
    00000575                       1538 00116$:
                                   1539 ;E:\Dropbox\FAUSTO\SVILUPPI\MSX\CODE\C\MSXgl\projects\soccerlgMSX2/soccerlg_s5_b3.c:82: g_R23[page]         = vtop;
    00000575 01r00r00         [10] 1540 	ld	bc, #_g_R23+0
    00000578 DD 6E FB         [19] 1541 	ld	l, -5 (ix)
    0000057B 26 00            [ 7] 1542 	ld	h, #0x00
    0000057D 09               [11] 1543 	add	hl, bc
    0000057E DD 7E F5         [19] 1544 	ld	a, -11 (ix)
    00000581 77               [ 7] 1545 	ld	(hl), a
                                   1546 ;E:\Dropbox\FAUSTO\SVILUPPI\MSX\CODE\C\MSXgl\projects\soccerlgMSX2/soccerlg_s5_b3.c:83: g_PageScrollY[page] = scroll_y;
    00000582 DD 6E FB         [19] 1547 	ld	l, -5 (ix)
                                   1548 ;	spillPairReg hl
                                   1549 ;	spillPairReg hl
    00000585 26 00            [ 7] 1550 	ld	h, #0x00
                                   1551 ;	spillPairReg hl
                                   1552 ;	spillPairReg hl
    00000587 29               [11] 1553 	add	hl, hl
    00000588 11r00r00         [10] 1554 	ld	de, #_g_PageScrollY
    0000058B 19               [11] 1555 	add	hl, de
    0000058C DD 7E F9         [19] 1556 	ld	a, -7 (ix)
    0000058F 77               [ 7] 1557 	ld	(hl), a
    00000590 23               [ 6] 1558 	inc	hl
    00000591 DD 7E FA         [19] 1559 	ld	a, -6 (ix)
    00000594 77               [ 7] 1560 	ld	(hl), a
                                   1561 ;E:\Dropbox\FAUSTO\SVILUPPI\MSX\CODE\C\MSXgl\projects\soccerlgMSX2/soccerlg_s5_b3.c:84: }
    00000595 DD F9            [10] 1562 	ld	sp, ix
    00000597 DD E1            [14] 1563 	pop	ix
    00000599 C9               [10] 1564 	ret
                                   1565 ;E:\Dropbox\FAUSTO\SVILUPPI\MSX\CODE\C\MSXgl\projects\soccerlgMSX2/soccerlg_s5_b3.c:90: void InitScrollPages(void)
                                   1566 ;	---------------------------------
                                   1567 ; Function InitScrollPages
                                   1568 ; ---------------------------------
    0000059A                       1569 _InitScrollPages::
                                   1570 ;E:\Dropbox\FAUSTO\SVILUPPI\MSX\CODE\C\MSXgl\projects\soccerlgMSX2/soccerlg_s5_b3.c:92: RebuildPage(0, 0);
    0000059A 11 00 00         [10] 1571 	ld	de, #0x0000
    0000059D AF               [ 4] 1572 	xor	a, a
    0000059E CDr00r00         [17] 1573 	call	_RebuildPage
                                   1574 ;E:\Dropbox\FAUSTO\SVILUPPI\MSX\CODE\C\MSXgl\projects\soccerlgMSX2/soccerlg_s5_b3.c:93: RebuildPage(1, 0);
    000005A1 11 00 00         [10] 1575 	ld	de, #0x0000
    000005A4 3E 01            [ 7] 1576 	ld	a, #0x01
    000005A6 CDr00r00         [17] 1577 	call	_RebuildPage
                                   1578 ;E:\Dropbox\FAUSTO\SVILUPPI\MSX\CODE\C\MSXgl\projects\soccerlgMSX2/soccerlg_s5_b3.c:94: RebuildPage(2, 0);
    000005A9 11 00 00         [10] 1579 	ld	de, #0x0000
    000005AC 3E 02            [ 7] 1580 	ld	a, #0x02
                                   1581 ;E:\Dropbox\FAUSTO\SVILUPPI\MSX\CODE\C\MSXgl\projects\soccerlgMSX2/soccerlg_s5_b3.c:95: }
    000005AE C3r00r00         [10] 1582 	jp	_RebuildPage
                                   1583 ;E:\Dropbox\FAUSTO\SVILUPPI\MSX\CODE\C\MSXgl\projects\soccerlgMSX2/soccerlg_s5_b3.c:103: void ScrollInsertRowDown(u8 write_page)
                                   1584 ;	---------------------------------
                                   1585 ; Function ScrollInsertRowDown
                                   1586 ; ---------------------------------
    000005B1                       1587 _ScrollInsertRowDown::
    000005B1 DD E5            [15] 1588 	push	ix
    000005B3 DD 21 00 00      [14] 1589 	ld	ix,#0
    000005B7 DD 39            [15] 1590 	add	ix,sp
    000005B9 21 FA FF         [10] 1591 	ld	hl, #-6
    000005BC 39               [11] 1592 	add	hl, sp
    000005BD F9               [ 6] 1593 	ld	sp, hl
    000005BE DD 77 FF         [19] 1594 	ld	-1 (ix), a
                                   1595 ;E:\Dropbox\FAUSTO\SVILUPPI\MSX\CODE\C\MSXgl\projects\soccerlgMSX2/soccerlg_s5_b3.c:108: if (g_PageScrollY[write_page] + (SCREEN_LINES - HUD_LINES) >= FIELD_ROWS) return;
    000005C1 01r00r00         [10] 1596 	ld	bc, #_g_PageScrollY+0
    000005C4 DD 6E FF         [19] 1597 	ld	l, -1 (ix)
                                   1598 ;	spillPairReg hl
                                   1599 ;	spillPairReg hl
    000005C7 26 00            [ 7] 1600 	ld	h, #0x00
                                   1601 ;	spillPairReg hl
                                   1602 ;	spillPairReg hl
    000005C9 29               [11] 1603 	add	hl, hl
    000005CA 09               [11] 1604 	add	hl, bc
    000005CB 5D               [ 4] 1605 	ld	e, l
    000005CC 54               [ 4] 1606 	ld	d, h
    000005CD 4E               [ 7] 1607 	ld	c, (hl)
    000005CE 23               [ 6] 1608 	inc	hl
    000005CF 46               [ 7] 1609 	ld	b, (hl)
    000005D0 21 B8 00         [10] 1610 	ld	hl, #0x00b8
    000005D3 09               [11] 1611 	add	hl, bc
    000005D4 E3               [19] 1612 	ex	(sp), hl
    000005D5 DD 7E FA         [19] 1613 	ld	a, -6 (ix)
    000005D8 D6 F8            [ 7] 1614 	sub	a, #0xf8
    000005DA DD 7E FB         [19] 1615 	ld	a, -5 (ix)
    000005DD DE 01            [ 7] 1616 	sbc	a, #0x01
    000005DF D2r6Dr06         [10] 1617 	jp	NC,00106$
                                   1618 ;E:\Dropbox\FAUSTO\SVILUPPI\MSX\CODE\C\MSXgl\projects\soccerlgMSX2/soccerlg_s5_b3.c:110: if (g_R23[write_page] >= VTOP_MAX)
    000005E2 3Er00            [ 7] 1619 	ld	a, #<(_g_R23)
    000005E4 DD 86 FF         [19] 1620 	add	a, -1 (ix)
    000005E7 DD 77 FC         [19] 1621 	ld	-4 (ix), a
    000005EA 3Es00            [ 7] 1622 	ld	a, #>(_g_R23)
    000005EC CE 00            [ 7] 1623 	adc	a, #0x00
    000005EE DD 77 FD         [19] 1624 	ld	-3 (ix), a
    000005F1 DD 6E FC         [19] 1625 	ld	l, -4 (ix)
    000005F4 DD 66 FD         [19] 1626 	ld	h, -3 (ix)
    000005F7 7E               [ 7] 1627 	ld	a, (hl)
    000005F8 DD 77 FE         [19] 1628 	ld	-2 (ix), a
    000005FB D6 31            [ 7] 1629 	sub	a, #0x31
    000005FD 38 0C            [12] 1630 	jr	C, 00104$
                                   1631 ;E:\Dropbox\FAUSTO\SVILUPPI\MSX\CODE\C\MSXgl\projects\soccerlgMSX2/soccerlg_s5_b3.c:112: RebuildPage(write_page, g_PageScrollY[write_page] + 1);
    000005FF 03               [ 6] 1632 	inc	bc
    00000600 59               [ 4] 1633 	ld	e, c
    00000601 50               [ 4] 1634 	ld	d, b
    00000602 DD 7E FF         [19] 1635 	ld	a, -1 (ix)
    00000605 CDr00r00         [17] 1636 	call	_RebuildPage
                                   1637 ;E:\Dropbox\FAUSTO\SVILUPPI\MSX\CODE\C\MSXgl\projects\soccerlgMSX2/soccerlg_s5_b3.c:113: return;
    00000608 C3r6Dr06         [10] 1638 	jp	00106$
    0000060B                       1639 00104$:
                                   1640 ;E:\Dropbox\FAUSTO\SVILUPPI\MSX\CODE\C\MSXgl\projects\soccerlgMSX2/soccerlg_s5_b3.c:116: logical_row = g_PageScrollY[write_page] + (SCREEN_LINES - HUD_LINES);
    0000060B C1               [10] 1641 	pop	bc
    0000060C C5               [11] 1642 	push	bc
                                   1643 ;E:\Dropbox\FAUSTO\SVILUPPI\MSX\CODE\C\MSXgl\projects\soccerlgMSX2/soccerlg_s5_b3.c:117: src   = FieldMap[logical_row];
    0000060D 21rC7r01         [10] 1644 	ld	hl, #_FieldMap
    00000610 09               [11] 1645 	add	hl, bc
    00000611 6E               [ 7] 1646 	ld	l, (hl)
                                   1647 ;	spillPairReg hl
                                   1648 ;E:\Dropbox\FAUSTO\SVILUPPI\MSX\CODE\C\MSXgl\projects\soccerlgMSX2/soccerlg_s5_b3.c:118: dst_y = g_R23[write_page] + (u8)SCREEN_LINES;
    00000612 DD 7E FE         [19] 1649 	ld	a, -2 (ix)
    00000615 C6 C0            [ 7] 1650 	add	a, #0xc0
                                   1651 ;E:\Dropbox\FAUSTO\SVILUPPI\MSX\CODE\C\MSXgl\projects\soccerlgMSX2/soccerlg_s5_b3.c:120: VDP_CommandYMMM(768u + src, 0, (u16)write_page * 256u + dst_y, 1, 0);
    00000617 DD 46 FF         [19] 1652 	ld	b, -1 (ix)
    0000061A 0E 00            [ 7] 1653 	ld	c, #0x00
    0000061C 61               [ 4] 1654 	ld	h, c
                                   1655 ;	spillPairReg hl
                                   1656 ;	spillPairReg hl
    0000061D 81               [ 4] 1657 	add	a, c
    0000061E 4F               [ 4] 1658 	ld	c, a
    0000061F 7C               [ 4] 1659 	ld	a, h
    00000620 88               [ 4] 1660 	adc	a, b
    00000621 47               [ 4] 1661 	ld	b, a
                                   1662 ;	spillPairReg hl
                                   1663 ;	spillPairReg hl
    00000622 AF               [ 4] 1664 	xor	a, a
    00000623 C6 03            [ 7] 1665 	add	a, #0x03
    00000625 DD 75 FA         [19] 1666 	ld	-6 (ix), l
    00000628 DD 77 FB         [19] 1667 	ld	-5 (ix), a
                                   1668 ;E:/Dropbox/FAUSTO/SVILUPPI/MSX/CODE/C/MSXgl/engine/src/vdp_inl.h:65: g_VDP_Command.SY = sy;
    0000062B 21r02r00         [10] 1669 	ld	hl, #(_g_VDP_Command + 2)
    0000062E DD 7E FA         [19] 1670 	ld	a, -6 (ix)
    00000631 77               [ 7] 1671 	ld	(hl), a
    00000632 23               [ 6] 1672 	inc	hl
    00000633 DD 7E FB         [19] 1673 	ld	a, -5 (ix)
    00000636 77               [ 7] 1674 	ld	(hl), a
                                   1675 ;E:/Dropbox/FAUSTO/SVILUPPI/MSX/CODE/C/MSXgl/engine/src/vdp_inl.h:66: g_VDP_Command.DX = dx;
    00000637 21 00 00         [10] 1676 	ld	hl, #0x0000
    0000063A 22r04r00         [16] 1677 	ld	((_g_VDP_Command + 4)), hl
                                   1678 ;E:/Dropbox/FAUSTO/SVILUPPI/MSX/CODE/C/MSXgl/engine/src/vdp_inl.h:67: g_VDP_Command.DY = dy;
    0000063D ED 43r06r00      [20] 1679 	ld	((_g_VDP_Command + 6)), bc
                                   1680 ;E:/Dropbox/FAUSTO/SVILUPPI/MSX/CODE/C/MSXgl/engine/src/vdp_inl.h:68: g_VDP_Command.NY = ny;
    00000641 2E 01            [ 7] 1681 	ld	l, #0x01
    00000643 22r0Ar00         [16] 1682 	ld	((_g_VDP_Command + 10)), hl
                                   1683 ;E:/Dropbox/FAUSTO/SVILUPPI/MSX/CODE/C/MSXgl/engine/src/vdp_inl.h:69: g_VDP_Command.ARG = dir; 
    00000646 21r0Dr00         [10] 1684 	ld	hl, #(_g_VDP_Command + 13)
    00000649 36 00            [10] 1685 	ld	(hl), #0x00
                                   1686 ;E:/Dropbox/FAUSTO/SVILUPPI/MSX/CODE/C/MSXgl/engine/src/vdp_inl.h:70: g_VDP_Command.CMD = VDP_CMD_YMMM;
    0000064B 21r0Er00         [10] 1687 	ld	hl, #(_g_VDP_Command + 14)
    0000064E 36 E0            [10] 1688 	ld	(hl), #0xe0
                                   1689 ;E:/Dropbox/FAUSTO/SVILUPPI/MSX/CODE/C/MSXgl/engine/src/vdp_inl.h:71: VPD_CommandSetupR32();
    00000650 D5               [11] 1690 	push	de
    00000651 CDr00r00         [17] 1691 	call	_VPD_CommandSetupR32
    00000654 D1               [10] 1692 	pop	de
                                   1693 ;E:\Dropbox\FAUSTO\SVILUPPI\MSX\CODE\C\MSXgl\projects\soccerlgMSX2/soccerlg_s5_b3.c:122: g_R23[write_page]++;
    00000655 DD 6E FC         [19] 1694 	ld	l, -4 (ix)
    00000658 DD 66 FD         [19] 1695 	ld	h, -3 (ix)
    0000065B 7E               [ 7] 1696 	ld	a, (hl)
    0000065C 3C               [ 4] 1697 	inc	a
    0000065D C1               [10] 1698 	pop	bc
    0000065E E1               [10] 1699 	pop	hl
    0000065F E5               [11] 1700 	push	hl
    00000660 C5               [11] 1701 	push	bc
    00000661 77               [ 7] 1702 	ld	(hl), a
                                   1703 ;E:\Dropbox\FAUSTO\SVILUPPI\MSX\CODE\C\MSXgl\projects\soccerlgMSX2/soccerlg_s5_b3.c:123: g_PageScrollY[write_page]++;
    00000662 6B               [ 4] 1704 	ld	l, e
    00000663 62               [ 4] 1705 	ld	h, d
    00000664 4E               [ 7] 1706 	ld	c, (hl)
    00000665 23               [ 6] 1707 	inc	hl
    00000666 46               [ 7] 1708 	ld	b, (hl)
    00000667 03               [ 6] 1709 	inc	bc
    00000668 79               [ 4] 1710 	ld	a, c
    00000669 12               [ 7] 1711 	ld	(de), a
    0000066A 13               [ 6] 1712 	inc	de
    0000066B 78               [ 4] 1713 	ld	a, b
    0000066C 12               [ 7] 1714 	ld	(de), a
    0000066D                       1715 00106$:
                                   1716 ;E:\Dropbox\FAUSTO\SVILUPPI\MSX\CODE\C\MSXgl\projects\soccerlgMSX2/soccerlg_s5_b3.c:124: }
    0000066D DD F9            [10] 1717 	ld	sp, ix
    0000066F DD E1            [14] 1718 	pop	ix
    00000671 C9               [10] 1719 	ret
                                   1720 ;E:\Dropbox\FAUSTO\SVILUPPI\MSX\CODE\C\MSXgl\projects\soccerlgMSX2/soccerlg_s5_b3.c:128: void ScrollInsertRowUp(u8 write_page)
                                   1721 ;	---------------------------------
                                   1722 ; Function ScrollInsertRowUp
                                   1723 ; ---------------------------------
    00000672                       1724 _ScrollInsertRowUp::
    00000672 DD E5            [15] 1725 	push	ix
    00000674 DD 21 00 00      [14] 1726 	ld	ix,#0
    00000678 DD 39            [15] 1727 	add	ix,sp
    0000067A F5               [11] 1728 	push	af
    0000067B DD 77 FF         [19] 1729 	ld	-1 (ix), a
                                   1730 ;E:\Dropbox\FAUSTO\SVILUPPI\MSX\CODE\C\MSXgl\projects\soccerlgMSX2/soccerlg_s5_b3.c:131: if (g_PageScrollY[write_page] == 0) return;
    0000067E 01r00r00         [10] 1731 	ld	bc, #_g_PageScrollY+0
    00000681 DD 6E FF         [19] 1732 	ld	l, -1 (ix)
                                   1733 ;	spillPairReg hl
                                   1734 ;	spillPairReg hl
    00000684 26 00            [ 7] 1735 	ld	h, #0x00
                                   1736 ;	spillPairReg hl
                                   1737 ;	spillPairReg hl
    00000686 29               [11] 1738 	add	hl, hl
    00000687 09               [11] 1739 	add	hl, bc
    00000688 5D               [ 4] 1740 	ld	e, l
    00000689 54               [ 4] 1741 	ld	d, h
    0000068A 4E               [ 7] 1742 	ld	c, (hl)
    0000068B 23               [ 6] 1743 	inc	hl
    0000068C 46               [ 7] 1744 	ld	b, (hl)
    0000068D 78               [ 4] 1745 	ld	a, b
    0000068E B1               [ 4] 1746 	or	a, c
    0000068F 28 63            [12] 1747 	jr	Z, 00106$
                                   1748 ;E:\Dropbox\FAUSTO\SVILUPPI\MSX\CODE\C\MSXgl\projects\soccerlgMSX2/soccerlg_s5_b3.c:133: if (g_R23[write_page] == 0)
    00000691 3Er00            [ 7] 1749 	ld	a, #<(_g_R23)
    00000693 DD 86 FF         [19] 1750 	add	a, -1 (ix)
    00000696 6F               [ 4] 1751 	ld	l, a
                                   1752 ;	spillPairReg hl
                                   1753 ;	spillPairReg hl
    00000697 3Es00            [ 7] 1754 	ld	a, #>(_g_R23)
    00000699 CE 00            [ 7] 1755 	adc	a, #0x00
    0000069B 67               [ 4] 1756 	ld	h, a
                                   1757 ;	spillPairReg hl
                                   1758 ;	spillPairReg hl
    0000069C 7E               [ 7] 1759 	ld	a, (hl)
    0000069D B7               [ 4] 1760 	or	a, a
    0000069E 20 0C            [12] 1761 	jr	NZ, 00104$
                                   1762 ;E:\Dropbox\FAUSTO\SVILUPPI\MSX\CODE\C\MSXgl\projects\soccerlgMSX2/soccerlg_s5_b3.c:135: RebuildPageUp(write_page, g_PageScrollY[write_page] - 1);
    000006A0 0B               [ 6] 1763 	dec	bc
    000006A1 59               [ 4] 1764 	ld	e, c
    000006A2 50               [ 4] 1765 	ld	d, b
    000006A3 DD 7E FF         [19] 1766 	ld	a, -1 (ix)
    000006A6 CDrBFr03         [17] 1767 	call	_RebuildPageUp
                                   1768 ;E:\Dropbox\FAUSTO\SVILUPPI\MSX\CODE\C\MSXgl\projects\soccerlgMSX2/soccerlg_s5_b3.c:136: return;
    000006A9 C3rF4r06         [10] 1769 	jp	00106$
    000006AC                       1770 00104$:
                                   1771 ;E:\Dropbox\FAUSTO\SVILUPPI\MSX\CODE\C\MSXgl\projects\soccerlgMSX2/soccerlg_s5_b3.c:139: g_R23[write_page]--;
    000006AC 3D               [ 4] 1772 	dec	a
    000006AD DD 77 FE         [19] 1773 	ld	-2 (ix), a
    000006B0 77               [ 7] 1774 	ld	(hl), a
                                   1775 ;E:\Dropbox\FAUSTO\SVILUPPI\MSX\CODE\C\MSXgl\projects\soccerlgMSX2/soccerlg_s5_b3.c:140: g_PageScrollY[write_page]--;
    000006B1 6B               [ 4] 1776 	ld	l, e
    000006B2 62               [ 4] 1777 	ld	h, d
    000006B3 4E               [ 7] 1778 	ld	c, (hl)
    000006B4 23               [ 6] 1779 	inc	hl
    000006B5 46               [ 7] 1780 	ld	b, (hl)
    000006B6 0B               [ 6] 1781 	dec	bc
    000006B7 79               [ 4] 1782 	ld	a, c
    000006B8 12               [ 7] 1783 	ld	(de), a
    000006B9 13               [ 6] 1784 	inc	de
    000006BA 78               [ 4] 1785 	ld	a, b
    000006BB 12               [ 7] 1786 	ld	(de), a
                                   1787 ;E:\Dropbox\FAUSTO\SVILUPPI\MSX\CODE\C\MSXgl\projects\soccerlgMSX2/soccerlg_s5_b3.c:142: src   = FieldMap[g_PageScrollY[write_page]];
    000006BC 21rC7r01         [10] 1788 	ld	hl, #_FieldMap
    000006BF 09               [11] 1789 	add	hl, bc
    000006C0 4E               [ 7] 1790 	ld	c, (hl)
                                   1791 ;E:\Dropbox\FAUSTO\SVILUPPI\MSX\CODE\C\MSXgl\projects\soccerlgMSX2/soccerlg_s5_b3.c:143: dst_y = g_R23[write_page] + HUD_LINES;
    000006C1 DD 7E FE         [19] 1792 	ld	a, -2 (ix)
    000006C4 C6 08            [ 7] 1793 	add	a, #0x08
                                   1794 ;E:\Dropbox\FAUSTO\SVILUPPI\MSX\CODE\C\MSXgl\projects\soccerlgMSX2/soccerlg_s5_b3.c:144: VDP_CommandYMMM(768u + src, 0, (u16)write_page * 256u + dst_y, 1, 0);
    000006C6 DD 56 FF         [19] 1795 	ld	d, -1 (ix)
    000006C9 1E 00            [ 7] 1796 	ld	e, #0x00
    000006CB 6F               [ 4] 1797 	ld	l, a
                                   1798 ;	spillPairReg hl
                                   1799 ;	spillPairReg hl
    000006CC 26 00            [ 7] 1800 	ld	h, #0x00
                                   1801 ;	spillPairReg hl
                                   1802 ;	spillPairReg hl
    000006CE 19               [11] 1803 	add	hl, de
    000006CF EB               [ 4] 1804 	ex	de, hl
    000006D0 AF               [ 4] 1805 	xor	a, a
    000006D1 C6 03            [ 7] 1806 	add	a, #0x03
    000006D3 47               [ 4] 1807 	ld	b, a
                                   1808 ;E:/Dropbox/FAUSTO/SVILUPPI/MSX/CODE/C/MSXgl/engine/src/vdp_inl.h:65: g_VDP_Command.SY = sy;
    000006D4 ED 43r02r00      [20] 1809 	ld	((_g_VDP_Command + 2)), bc
                                   1810 ;E:/Dropbox/FAUSTO/SVILUPPI/MSX/CODE/C/MSXgl/engine/src/vdp_inl.h:66: g_VDP_Command.DX = dx;
    000006D8 21 00 00         [10] 1811 	ld	hl, #0x0000
    000006DB 22r04r00         [16] 1812 	ld	((_g_VDP_Command + 4)), hl
                                   1813 ;E:/Dropbox/FAUSTO/SVILUPPI/MSX/CODE/C/MSXgl/engine/src/vdp_inl.h:67: g_VDP_Command.DY = dy;
    000006DE ED 53r06r00      [20] 1814 	ld	((_g_VDP_Command + 6)), de
                                   1815 ;E:/Dropbox/FAUSTO/SVILUPPI/MSX/CODE/C/MSXgl/engine/src/vdp_inl.h:68: g_VDP_Command.NY = ny;
    000006E2 2E 01            [ 7] 1816 	ld	l, #0x01
    000006E4 22r0Ar00         [16] 1817 	ld	((_g_VDP_Command + 10)), hl
                                   1818 ;E:/Dropbox/FAUSTO/SVILUPPI/MSX/CODE/C/MSXgl/engine/src/vdp_inl.h:69: g_VDP_Command.ARG = dir; 
    000006E7 21r0Dr00         [10] 1819 	ld	hl, #(_g_VDP_Command + 13)
    000006EA 36 00            [10] 1820 	ld	(hl), #0x00
                                   1821 ;E:/Dropbox/FAUSTO/SVILUPPI/MSX/CODE/C/MSXgl/engine/src/vdp_inl.h:70: g_VDP_Command.CMD = VDP_CMD_YMMM;
    000006EC 21r0Er00         [10] 1822 	ld	hl, #(_g_VDP_Command + 14)
    000006EF 36 E0            [10] 1823 	ld	(hl), #0xe0
                                   1824 ;E:/Dropbox/FAUSTO/SVILUPPI/MSX/CODE/C/MSXgl/engine/src/vdp_inl.h:71: VPD_CommandSetupR32();
    000006F1 CDr00r00         [17] 1825 	call	_VPD_CommandSetupR32
                                   1826 ;E:\Dropbox\FAUSTO\SVILUPPI\MSX\CODE\C\MSXgl\projects\soccerlgMSX2/soccerlg_s5_b3.c:144: VDP_CommandYMMM(768u + src, 0, (u16)write_page * 256u + dst_y, 1, 0);
    000006F4                       1827 00106$:
                                   1828 ;E:\Dropbox\FAUSTO\SVILUPPI\MSX\CODE\C\MSXgl\projects\soccerlgMSX2/soccerlg_s5_b3.c:145: }
    000006F4 DD F9            [10] 1829 	ld	sp, ix
    000006F6 DD E1            [14] 1830 	pop	ix
    000006F8 C9               [10] 1831 	ret
                                   1832 ;E:\Dropbox\FAUSTO\SVILUPPI\MSX\CODE\C\MSXgl\projects\soccerlgMSX2/soccerlg_s5_b3.c:152: static void EraseSprite16(u8 x, u16 dst_y, u16 absolute_logical_y)
                                   1833 ;	---------------------------------
                                   1834 ; Function EraseSprite16
                                   1835 ; ---------------------------------
    000006F9                       1836 _EraseSprite16:
    000006F9 DD E5            [15] 1837 	push	ix
    000006FB DD 21 00 00      [14] 1838 	ld	ix,#0
    000006FF DD 39            [15] 1839 	add	ix,sp
    00000701 F5               [11] 1840 	push	af
    00000702 F5               [11] 1841 	push	af
    00000703 4F               [ 4] 1842 	ld	c, a
    00000704 DD 73 FE         [19] 1843 	ld	-2 (ix), e
    00000707 DD 72 FF         [19] 1844 	ld	-1 (ix), d
                                   1845 ;E:\Dropbox\FAUSTO\SVILUPPI\MSX\CODE\C\MSXgl\projects\soccerlgMSX2/soccerlg_s5_b3.c:155: if (absolute_logical_y > max_y) absolute_logical_y = max_y;
    0000070A 3E E8            [ 7] 1846 	ld	a, #0xe8
    0000070C DD BE 04         [19] 1847 	cp	a, 4 (ix)
    0000070F 3E 01            [ 7] 1848 	ld	a, #0x01
    00000711 DD 9E 05         [19] 1849 	sbc	a, 5 (ix)
    00000714 30 08            [12] 1850 	jr	NC, 00102$
    00000716 DD 36 04 E8      [19] 1851 	ld	4 (ix), #0xe8
    0000071A DD 36 05 01      [19] 1852 	ld	5 (ix), #0x01
    0000071E                       1853 00102$:
                                   1854 ;E:\Dropbox\FAUSTO\SVILUPPI\MSX\CODE\C\MSXgl\projects\soccerlgMSX2/soccerlg_s5_b3.c:157: u8 src = FieldMap[absolute_logical_y];
    0000071E 11rC7r01         [10] 1855 	ld	de, #_FieldMap+0
    00000721 DD 6E 04         [19] 1856 	ld	l, 4 (ix)
    00000724 DD 66 05         [19] 1857 	ld	h, 5 (ix)
    00000727 19               [11] 1858 	add	hl, de
    00000728 5E               [ 7] 1859 	ld	e, (hl)
                                   1860 ;E:\Dropbox\FAUSTO\SVILUPPI\MSX\CODE\C\MSXgl\projects\soccerlgMSX2/soccerlg_s5_b3.c:159: VDP_CommandHMMM(x, 768u + src, x, dst_y, 16, 16);
    00000729 06 00            [ 7] 1861 	ld	b, #0x00
    0000072B 33               [ 6] 1862 	inc	sp
    0000072C 33               [ 6] 1863 	inc	sp
    0000072D C5               [11] 1864 	push	bc
    0000072E 16 00            [ 7] 1865 	ld	d, #0x00
    00000730 21 00 03         [10] 1866 	ld	hl, #0x0300
    00000733 19               [11] 1867 	add	hl, de
    00000734 EB               [ 4] 1868 	ex	de, hl
                                   1869 ;E:/Dropbox/FAUSTO/SVILUPPI/MSX/CODE/C/MSXgl/engine/src/vdp_inl.h:105: g_VDP_Command.SX = sx;
    00000735 ED 43r00r00      [20] 1870 	ld	(_g_VDP_Command), bc
                                   1871 ;E:/Dropbox/FAUSTO/SVILUPPI/MSX/CODE/C/MSXgl/engine/src/vdp_inl.h:106: g_VDP_Command.SY = sy;
    00000739 ED 53r02r00      [20] 1872 	ld	((_g_VDP_Command + 2)), de
                                   1873 ;E:/Dropbox/FAUSTO/SVILUPPI/MSX/CODE/C/MSXgl/engine/src/vdp_inl.h:107: g_VDP_Command.DX = dx;
    0000073D 21r04r00         [10] 1874 	ld	hl, #(_g_VDP_Command + 4)
    00000740 DD 7E FC         [19] 1875 	ld	a, -4 (ix)
    00000743 77               [ 7] 1876 	ld	(hl), a
    00000744 23               [ 6] 1877 	inc	hl
    00000745 DD 7E FD         [19] 1878 	ld	a, -3 (ix)
    00000748 77               [ 7] 1879 	ld	(hl), a
                                   1880 ;E:/Dropbox/FAUSTO/SVILUPPI/MSX/CODE/C/MSXgl/engine/src/vdp_inl.h:108: g_VDP_Command.DY = dy;
    00000749 21r06r00         [10] 1881 	ld	hl, #(_g_VDP_Command + 6)
    0000074C DD 7E FE         [19] 1882 	ld	a, -2 (ix)
    0000074F 77               [ 7] 1883 	ld	(hl), a
    00000750 23               [ 6] 1884 	inc	hl
    00000751 DD 7E FF         [19] 1885 	ld	a, -1 (ix)
    00000754 77               [ 7] 1886 	ld	(hl), a
                                   1887 ;E:/Dropbox/FAUSTO/SVILUPPI/MSX/CODE/C/MSXgl/engine/src/vdp_inl.h:109: g_VDP_Command.NX = nx;
    00000755 21 10 00         [10] 1888 	ld	hl, #0x0010
    00000758 22r08r00         [16] 1889 	ld	((_g_VDP_Command + 8)), hl
                                   1890 ;E:/Dropbox/FAUSTO/SVILUPPI/MSX/CODE/C/MSXgl/engine/src/vdp_inl.h:110: g_VDP_Command.NY = ny;
    0000075B 22r0Ar00         [16] 1891 	ld	((_g_VDP_Command + 10)), hl
                                   1892 ;E:/Dropbox/FAUSTO/SVILUPPI/MSX/CODE/C/MSXgl/engine/src/vdp_inl.h:111: g_VDP_Command.ARG = arg; 
    0000075E 21r0Dr00         [10] 1893 	ld	hl, #(_g_VDP_Command + 13)
    00000761 36 00            [10] 1894 	ld	(hl), #0x00
                                   1895 ;E:/Dropbox/FAUSTO/SVILUPPI/MSX/CODE/C/MSXgl/engine/src/vdp_inl.h:112: g_VDP_Command.CMD = VDP_CMD_HMMM;
    00000763 21r0Er00         [10] 1896 	ld	hl, #(_g_VDP_Command + 14)
    00000766 36 D0            [10] 1897 	ld	(hl), #0xd0
                                   1898 ;E:/Dropbox/FAUSTO/SVILUPPI/MSX/CODE/C/MSXgl/engine/src/vdp_inl.h:113: VPD_CommandSetupR32();
    00000768 CDr00r00         [17] 1899 	call	_VPD_CommandSetupR32
                                   1900 ;E:\Dropbox\FAUSTO\SVILUPPI\MSX\CODE\C\MSXgl\projects\soccerlgMSX2/soccerlg_s5_b3.c:159: VDP_CommandHMMM(x, 768u + src, x, dst_y, 16, 16);
                                   1901 ;E:\Dropbox\FAUSTO\SVILUPPI\MSX\CODE\C\MSXgl\projects\soccerlgMSX2/soccerlg_s5_b3.c:160: }
    0000076B DD F9            [10] 1902 	ld	sp, ix
    0000076D DD E1            [14] 1903 	pop	ix
    0000076F E1               [10] 1904 	pop	hl
    00000770 F1               [10] 1905 	pop	af
    00000771 E9               [ 4] 1906 	jp	(hl)
                                   1907 ;E:\Dropbox\FAUSTO\SVILUPPI\MSX\CODE\C\MSXgl\projects\soccerlgMSX2/soccerlg_s5_b3.c:203: void UpdatePhase1(u8 r23_w, u8 r23_e, u16 scroll_e)
                                   1908 ;	---------------------------------
                                   1909 ; Function UpdatePhase1
                                   1910 ; ---------------------------------
    00000772                       1911 _UpdatePhase1::
    00000772 DD E5            [15] 1912 	push	ix
    00000774 DD 21 00 00      [14] 1913 	ld	ix,#0
    00000778 DD 39            [15] 1914 	add	ix,sp
    0000077A F5               [11] 1915 	push	af
    0000077B DD 77 FF         [19] 1916 	ld	-1 (ix), a
    0000077E DD 75 FE         [19] 1917 	ld	-2 (ix), l
                                   1918 ;E:\Dropbox\FAUSTO\SVILUPPI\MSX\CODE\C\MSXgl\projects\soccerlgMSX2/soccerlg_s5_b3.c:205: UNROLL_PHASE(1, 2, 256u, 512u, r23_w, r23_e, scroll_e);
    00000781 01r0Er00         [10] 1919 	ld	bc, #_g_x1+14
    00000784 3Ar0Er00         [13] 1920 	ld	a, (#(_g_lx + 14) + 0)
    00000787 02               [ 7] 1921 	ld	(bc), a
    00000788 3Ar0Er00         [13] 1922 	ld	a, (#(_g_ly + 14) + 0)
    0000078B DD 86 FF         [19] 1923 	add	a, -1 (ix)
    0000078E C6 08            [ 7] 1924 	add	a, #0x08
    00000790 4F               [ 4] 1925 	ld	c, a
    00000791 06 00            [ 7] 1926 	ld	b, #0x00
    00000793 CB C0            [ 8] 1927 	set	0, b
    00000795 ED 43r1Cr00      [20] 1928 	ld	((_g_y1 + 28)), bc
    00000799 3Ar1Cr00         [13] 1929 	ld	a, (#(_g_y2 + 28) + 0)
    0000079C 5F               [ 4] 1930 	ld	e, a
    0000079D CB 83            [ 8] 1931 	res	0, e
    0000079F 7B               [ 4] 1932 	ld	a, e
    000007A0 DD 96 FE         [19] 1933 	sub	a, -2 (ix)
    000007A3 C6 F8            [ 7] 1934 	add	a, #0xf8
    000007A5 4F               [ 4] 1935 	ld	c, a
    000007A6 06 00            [ 7] 1936 	ld	b, #0x00
    000007A8 69               [ 4] 1937 	ld	l, c
                                   1938 ;	spillPairReg hl
                                   1939 ;	spillPairReg hl
    000007A9 50               [ 4] 1940 	ld	d, b
    000007AA 3E F0            [ 7] 1941 	ld	a, #0xf0
    000007AC BD               [ 4] 1942 	cp	a, l
    000007AD 3E 00            [ 7] 1943 	ld	a, #0x00
    000007AF 9A               [ 4] 1944 	sbc	a, d
    000007B0 30 03            [12] 1945 	jr	NC, 00102$
    000007B2 01 00 00         [10] 1946 	ld	bc, #0x0000
    000007B5                       1947 00102$:
    000007B5 DD 7E 04         [19] 1948 	ld	a, 4 (ix)
    000007B8 81               [ 4] 1949 	add	a, c
    000007B9 4F               [ 4] 1950 	ld	c, a
    000007BA DD 7E 05         [19] 1951 	ld	a, 5 (ix)
    000007BD 88               [ 4] 1952 	adc	a, b
    000007BE 47               [ 4] 1953 	ld	b, a
    000007BF 16 00            [ 7] 1954 	ld	d, #0x00
    000007C1 CB CA            [ 8] 1955 	set	1, d
    000007C3 21r0Er00         [10] 1956 	ld	hl, #_g_x2+14
    000007C6 6E               [ 7] 1957 	ld	l, (hl)
                                   1958 ;	spillPairReg hl
    000007C7 C5               [11] 1959 	push	bc
    000007C8 7D               [ 4] 1960 	ld	a, l
    000007C9 CDrF9r06         [17] 1961 	call	_EraseSprite16
    000007CC ED 4Br1Cr00      [20] 1962 	ld	bc, (#(_g_frame + 28) + 0)
    000007D0 ED 5Br1Cr00      [20] 1963 	ld	de, (#(_g_y1 + 28) + 0)
    000007D4 21r0Er00         [10] 1964 	ld	hl, #_g_x1+14
    000007D7 6E               [ 7] 1965 	ld	l, (hl)
                                   1966 ;	spillPairReg hl
    000007D8 C5               [11] 1967 	push	bc
    000007D9 7D               [ 4] 1968 	ld	a, l
    000007DA CDr00r00         [17] 1969 	call	_CallSpriteFrame_B3
    000007DD 11r0Er00         [10] 1970 	ld	de, #_g_lx+14
    000007E0 1A               [ 7] 1971 	ld	a, (de)
    000007E1 4F               [ 4] 1972 	ld	c, a
    000007E2 3Ar0Er00         [13] 1973 	ld	a, (#(_g_dx + 14) + 0)
    000007E5 81               [ 4] 1974 	add	a, c
    000007E6 4F               [ 4] 1975 	ld	c, a
    000007E7 12               [ 7] 1976 	ld	(de), a
    000007E8 3E EE            [ 7] 1977 	ld	a, #0xee
    000007EA 91               [ 4] 1978 	sub	a, c
    000007EB 38 05            [12] 1979 	jr	C, 00103$
    000007ED 79               [ 4] 1980 	ld	a, c
    000007EE D6 04            [ 7] 1981 	sub	a, #0x04
    000007F0 30 07            [12] 1982 	jr	NC, 00104$
    000007F2                       1983 00103$:
    000007F2 01r0Er00         [10] 1984 	ld	bc, #_g_dx+14
    000007F5 0A               [ 7] 1985 	ld	a, (bc)
    000007F6 ED 44            [ 8] 1986 	neg
    000007F8 02               [ 7] 1987 	ld	(bc), a
    000007F9                       1988 00104$:
    000007F9 01r0Dr00         [10] 1989 	ld	bc, #_g_x1+13
    000007FC 3Ar0Dr00         [13] 1990 	ld	a, (#(_g_lx + 13) + 0)
    000007FF 02               [ 7] 1991 	ld	(bc), a
    00000800 3Ar0Dr00         [13] 1992 	ld	a, (#(_g_ly + 13) + 0)
    00000803 DD 86 FF         [19] 1993 	add	a, -1 (ix)
    00000806 C6 08            [ 7] 1994 	add	a, #0x08
    00000808 4F               [ 4] 1995 	ld	c, a
    00000809 06 00            [ 7] 1996 	ld	b, #0x00
    0000080B CB C0            [ 8] 1997 	set	0, b
    0000080D ED 43r1Ar00      [20] 1998 	ld	((_g_y1 + 26)), bc
    00000811 3Ar1Ar00         [13] 1999 	ld	a, (#(_g_y2 + 26) + 0)
    00000814 5F               [ 4] 2000 	ld	e, a
    00000815 CB 83            [ 8] 2001 	res	0, e
    00000817 7B               [ 4] 2002 	ld	a, e
    00000818 DD 96 FE         [19] 2003 	sub	a, -2 (ix)
    0000081B C6 F8            [ 7] 2004 	add	a, #0xf8
    0000081D 4F               [ 4] 2005 	ld	c, a
    0000081E 06 00            [ 7] 2006 	ld	b, #0x00
    00000820 69               [ 4] 2007 	ld	l, c
                                   2008 ;	spillPairReg hl
                                   2009 ;	spillPairReg hl
    00000821 50               [ 4] 2010 	ld	d, b
    00000822 3E F0            [ 7] 2011 	ld	a, #0xf0
    00000824 BD               [ 4] 2012 	cp	a, l
    00000825 3E 00            [ 7] 2013 	ld	a, #0x00
    00000827 9A               [ 4] 2014 	sbc	a, d
    00000828 30 03            [12] 2015 	jr	NC, 00107$
    0000082A 01 00 00         [10] 2016 	ld	bc, #0x0000
    0000082D                       2017 00107$:
    0000082D DD 7E 04         [19] 2018 	ld	a, 4 (ix)
    00000830 81               [ 4] 2019 	add	a, c
    00000831 4F               [ 4] 2020 	ld	c, a
    00000832 DD 7E 05         [19] 2021 	ld	a, 5 (ix)
    00000835 88               [ 4] 2022 	adc	a, b
    00000836 47               [ 4] 2023 	ld	b, a
    00000837 16 00            [ 7] 2024 	ld	d, #0x00
    00000839 CB CA            [ 8] 2025 	set	1, d
    0000083B 21r0Dr00         [10] 2026 	ld	hl, #_g_x2+13
    0000083E 6E               [ 7] 2027 	ld	l, (hl)
                                   2028 ;	spillPairReg hl
    0000083F C5               [11] 2029 	push	bc
    00000840 7D               [ 4] 2030 	ld	a, l
    00000841 CDrF9r06         [17] 2031 	call	_EraseSprite16
    00000844 ED 4Br1Ar00      [20] 2032 	ld	bc, (#(_g_frame + 26) + 0)
    00000848 ED 5Br1Ar00      [20] 2033 	ld	de, (#(_g_y1 + 26) + 0)
    0000084C 21r0Dr00         [10] 2034 	ld	hl, #_g_x1+13
    0000084F 6E               [ 7] 2035 	ld	l, (hl)
                                   2036 ;	spillPairReg hl
    00000850 C5               [11] 2037 	push	bc
    00000851 7D               [ 4] 2038 	ld	a, l
    00000852 CDr00r00         [17] 2039 	call	_CallSpriteFrame_B3
    00000855 11r0Dr00         [10] 2040 	ld	de, #_g_lx+13
    00000858 1A               [ 7] 2041 	ld	a, (de)
    00000859 4F               [ 4] 2042 	ld	c, a
    0000085A 3Ar0Dr00         [13] 2043 	ld	a, (#(_g_dx + 13) + 0)
    0000085D 81               [ 4] 2044 	add	a, c
    0000085E 4F               [ 4] 2045 	ld	c, a
    0000085F 12               [ 7] 2046 	ld	(de), a
    00000860 3E EE            [ 7] 2047 	ld	a, #0xee
    00000862 91               [ 4] 2048 	sub	a, c
    00000863 38 05            [12] 2049 	jr	C, 00108$
    00000865 79               [ 4] 2050 	ld	a, c
    00000866 D6 04            [ 7] 2051 	sub	a, #0x04
    00000868 30 07            [12] 2052 	jr	NC, 00109$
    0000086A                       2053 00108$:
    0000086A 01r0Dr00         [10] 2054 	ld	bc, #_g_dx+13
    0000086D 0A               [ 7] 2055 	ld	a, (bc)
    0000086E ED 44            [ 8] 2056 	neg
    00000870 02               [ 7] 2057 	ld	(bc), a
    00000871                       2058 00109$:
    00000871 01r0Cr00         [10] 2059 	ld	bc, #_g_x1+12
    00000874 3Ar0Cr00         [13] 2060 	ld	a, (#(_g_lx + 12) + 0)
    00000877 02               [ 7] 2061 	ld	(bc), a
    00000878 3Ar0Cr00         [13] 2062 	ld	a, (#(_g_ly + 12) + 0)
    0000087B DD 86 FF         [19] 2063 	add	a, -1 (ix)
    0000087E C6 08            [ 7] 2064 	add	a, #0x08
    00000880 4F               [ 4] 2065 	ld	c, a
    00000881 06 00            [ 7] 2066 	ld	b, #0x00
    00000883 CB C0            [ 8] 2067 	set	0, b
    00000885 ED 43r18r00      [20] 2068 	ld	((_g_y1 + 24)), bc
    00000889 3Ar18r00         [13] 2069 	ld	a, (#(_g_y2 + 24) + 0)
    0000088C 5F               [ 4] 2070 	ld	e, a
    0000088D CB 83            [ 8] 2071 	res	0, e
    0000088F 7B               [ 4] 2072 	ld	a, e
    00000890 DD 96 FE         [19] 2073 	sub	a, -2 (ix)
    00000893 C6 F8            [ 7] 2074 	add	a, #0xf8
    00000895 4F               [ 4] 2075 	ld	c, a
    00000896 06 00            [ 7] 2076 	ld	b, #0x00
    00000898 69               [ 4] 2077 	ld	l, c
                                   2078 ;	spillPairReg hl
                                   2079 ;	spillPairReg hl
    00000899 50               [ 4] 2080 	ld	d, b
    0000089A 3E F0            [ 7] 2081 	ld	a, #0xf0
    0000089C BD               [ 4] 2082 	cp	a, l
    0000089D 3E 00            [ 7] 2083 	ld	a, #0x00
    0000089F 9A               [ 4] 2084 	sbc	a, d
    000008A0 30 03            [12] 2085 	jr	NC, 00112$
    000008A2 01 00 00         [10] 2086 	ld	bc, #0x0000
    000008A5                       2087 00112$:
    000008A5 DD 7E 04         [19] 2088 	ld	a, 4 (ix)
    000008A8 81               [ 4] 2089 	add	a, c
    000008A9 4F               [ 4] 2090 	ld	c, a
    000008AA DD 7E 05         [19] 2091 	ld	a, 5 (ix)
    000008AD 88               [ 4] 2092 	adc	a, b
    000008AE 47               [ 4] 2093 	ld	b, a
    000008AF 16 00            [ 7] 2094 	ld	d, #0x00
    000008B1 CB CA            [ 8] 2095 	set	1, d
    000008B3 21r0Cr00         [10] 2096 	ld	hl, #_g_x2+12
    000008B6 6E               [ 7] 2097 	ld	l, (hl)
                                   2098 ;	spillPairReg hl
    000008B7 C5               [11] 2099 	push	bc
    000008B8 7D               [ 4] 2100 	ld	a, l
    000008B9 CDrF9r06         [17] 2101 	call	_EraseSprite16
    000008BC ED 4Br18r00      [20] 2102 	ld	bc, (#(_g_frame + 24) + 0)
    000008C0 ED 5Br18r00      [20] 2103 	ld	de, (#(_g_y1 + 24) + 0)
    000008C4 21r0Cr00         [10] 2104 	ld	hl, #_g_x1+12
    000008C7 6E               [ 7] 2105 	ld	l, (hl)
                                   2106 ;	spillPairReg hl
    000008C8 C5               [11] 2107 	push	bc
    000008C9 7D               [ 4] 2108 	ld	a, l
    000008CA CDr00r00         [17] 2109 	call	_CallSpriteFrame_B3
    000008CD 11r0Cr00         [10] 2110 	ld	de, #_g_lx+12
    000008D0 1A               [ 7] 2111 	ld	a, (de)
    000008D1 4F               [ 4] 2112 	ld	c, a
    000008D2 3Ar0Cr00         [13] 2113 	ld	a, (#(_g_dx + 12) + 0)
    000008D5 81               [ 4] 2114 	add	a, c
    000008D6 4F               [ 4] 2115 	ld	c, a
    000008D7 12               [ 7] 2116 	ld	(de), a
    000008D8 3E EE            [ 7] 2117 	ld	a, #0xee
    000008DA 91               [ 4] 2118 	sub	a, c
    000008DB 38 05            [12] 2119 	jr	C, 00113$
    000008DD 79               [ 4] 2120 	ld	a, c
    000008DE D6 04            [ 7] 2121 	sub	a, #0x04
    000008E0 30 07            [12] 2122 	jr	NC, 00114$
    000008E2                       2123 00113$:
    000008E2 01r0Cr00         [10] 2124 	ld	bc, #_g_dx+12
    000008E5 0A               [ 7] 2125 	ld	a, (bc)
    000008E6 ED 44            [ 8] 2126 	neg
    000008E8 02               [ 7] 2127 	ld	(bc), a
    000008E9                       2128 00114$:
    000008E9 01r0Br00         [10] 2129 	ld	bc, #_g_x1+11
    000008EC 3Ar0Br00         [13] 2130 	ld	a, (#(_g_lx + 11) + 0)
    000008EF 02               [ 7] 2131 	ld	(bc), a
    000008F0 3Ar0Br00         [13] 2132 	ld	a, (#(_g_ly + 11) + 0)
    000008F3 DD 86 FF         [19] 2133 	add	a, -1 (ix)
    000008F6 C6 08            [ 7] 2134 	add	a, #0x08
    000008F8 4F               [ 4] 2135 	ld	c, a
    000008F9 06 00            [ 7] 2136 	ld	b, #0x00
    000008FB CB C0            [ 8] 2137 	set	0, b
    000008FD ED 43r16r00      [20] 2138 	ld	((_g_y1 + 22)), bc
    00000901 3Ar16r00         [13] 2139 	ld	a, (#(_g_y2 + 22) + 0)
    00000904 5F               [ 4] 2140 	ld	e, a
    00000905 CB 83            [ 8] 2141 	res	0, e
    00000907 7B               [ 4] 2142 	ld	a, e
    00000908 DD 96 FE         [19] 2143 	sub	a, -2 (ix)
    0000090B C6 F8            [ 7] 2144 	add	a, #0xf8
    0000090D 4F               [ 4] 2145 	ld	c, a
    0000090E 06 00            [ 7] 2146 	ld	b, #0x00
    00000910 69               [ 4] 2147 	ld	l, c
                                   2148 ;	spillPairReg hl
                                   2149 ;	spillPairReg hl
    00000911 50               [ 4] 2150 	ld	d, b
    00000912 3E F0            [ 7] 2151 	ld	a, #0xf0
    00000914 BD               [ 4] 2152 	cp	a, l
    00000915 3E 00            [ 7] 2153 	ld	a, #0x00
    00000917 9A               [ 4] 2154 	sbc	a, d
    00000918 30 03            [12] 2155 	jr	NC, 00117$
    0000091A 01 00 00         [10] 2156 	ld	bc, #0x0000
    0000091D                       2157 00117$:
    0000091D DD 7E 04         [19] 2158 	ld	a, 4 (ix)
    00000920 81               [ 4] 2159 	add	a, c
    00000921 4F               [ 4] 2160 	ld	c, a
    00000922 DD 7E 05         [19] 2161 	ld	a, 5 (ix)
    00000925 88               [ 4] 2162 	adc	a, b
    00000926 47               [ 4] 2163 	ld	b, a
    00000927 16 00            [ 7] 2164 	ld	d, #0x00
    00000929 CB CA            [ 8] 2165 	set	1, d
    0000092B 21r0Br00         [10] 2166 	ld	hl, #_g_x2+11
    0000092E 6E               [ 7] 2167 	ld	l, (hl)
                                   2168 ;	spillPairReg hl
    0000092F C5               [11] 2169 	push	bc
    00000930 7D               [ 4] 2170 	ld	a, l
    00000931 CDrF9r06         [17] 2171 	call	_EraseSprite16
    00000934 ED 4Br16r00      [20] 2172 	ld	bc, (#(_g_frame + 22) + 0)
    00000938 ED 5Br16r00      [20] 2173 	ld	de, (#(_g_y1 + 22) + 0)
    0000093C 21r0Br00         [10] 2174 	ld	hl, #_g_x1+11
    0000093F 6E               [ 7] 2175 	ld	l, (hl)
                                   2176 ;	spillPairReg hl
    00000940 C5               [11] 2177 	push	bc
    00000941 7D               [ 4] 2178 	ld	a, l
    00000942 CDr00r00         [17] 2179 	call	_CallSpriteFrame_B3
    00000945 11r0Br00         [10] 2180 	ld	de, #_g_lx+11
    00000948 1A               [ 7] 2181 	ld	a, (de)
    00000949 4F               [ 4] 2182 	ld	c, a
    0000094A 3Ar0Br00         [13] 2183 	ld	a, (#(_g_dx + 11) + 0)
    0000094D 81               [ 4] 2184 	add	a, c
    0000094E 4F               [ 4] 2185 	ld	c, a
    0000094F 12               [ 7] 2186 	ld	(de), a
    00000950 3E EE            [ 7] 2187 	ld	a, #0xee
    00000952 91               [ 4] 2188 	sub	a, c
    00000953 38 05            [12] 2189 	jr	C, 00118$
    00000955 79               [ 4] 2190 	ld	a, c
    00000956 D6 04            [ 7] 2191 	sub	a, #0x04
    00000958 30 07            [12] 2192 	jr	NC, 00119$
    0000095A                       2193 00118$:
    0000095A 01r0Br00         [10] 2194 	ld	bc, #_g_dx+11
    0000095D 0A               [ 7] 2195 	ld	a, (bc)
    0000095E ED 44            [ 8] 2196 	neg
    00000960 02               [ 7] 2197 	ld	(bc), a
    00000961                       2198 00119$:
    00000961 01r0Ar00         [10] 2199 	ld	bc, #_g_x1+10
    00000964 3Ar0Ar00         [13] 2200 	ld	a, (#(_g_lx + 10) + 0)
    00000967 02               [ 7] 2201 	ld	(bc), a
    00000968 3Ar0Ar00         [13] 2202 	ld	a, (#(_g_ly + 10) + 0)
    0000096B DD 86 FF         [19] 2203 	add	a, -1 (ix)
    0000096E C6 08            [ 7] 2204 	add	a, #0x08
    00000970 4F               [ 4] 2205 	ld	c, a
    00000971 06 00            [ 7] 2206 	ld	b, #0x00
    00000973 CB C0            [ 8] 2207 	set	0, b
    00000975 ED 43r14r00      [20] 2208 	ld	((_g_y1 + 20)), bc
    00000979 3Ar14r00         [13] 2209 	ld	a, (#(_g_y2 + 20) + 0)
    0000097C 5F               [ 4] 2210 	ld	e, a
    0000097D CB 83            [ 8] 2211 	res	0, e
    0000097F 7B               [ 4] 2212 	ld	a, e
    00000980 DD 96 FE         [19] 2213 	sub	a, -2 (ix)
    00000983 C6 F8            [ 7] 2214 	add	a, #0xf8
    00000985 4F               [ 4] 2215 	ld	c, a
    00000986 06 00            [ 7] 2216 	ld	b, #0x00
    00000988 69               [ 4] 2217 	ld	l, c
                                   2218 ;	spillPairReg hl
                                   2219 ;	spillPairReg hl
    00000989 50               [ 4] 2220 	ld	d, b
    0000098A 3E F0            [ 7] 2221 	ld	a, #0xf0
    0000098C BD               [ 4] 2222 	cp	a, l
    0000098D 3E 00            [ 7] 2223 	ld	a, #0x00
    0000098F 9A               [ 4] 2224 	sbc	a, d
    00000990 30 03            [12] 2225 	jr	NC, 00122$
    00000992 01 00 00         [10] 2226 	ld	bc, #0x0000
    00000995                       2227 00122$:
    00000995 DD 7E 04         [19] 2228 	ld	a, 4 (ix)
    00000998 81               [ 4] 2229 	add	a, c
    00000999 4F               [ 4] 2230 	ld	c, a
    0000099A DD 7E 05         [19] 2231 	ld	a, 5 (ix)
    0000099D 88               [ 4] 2232 	adc	a, b
    0000099E 47               [ 4] 2233 	ld	b, a
    0000099F 16 00            [ 7] 2234 	ld	d, #0x00
    000009A1 CB CA            [ 8] 2235 	set	1, d
    000009A3 21r0Ar00         [10] 2236 	ld	hl, #_g_x2+10
    000009A6 6E               [ 7] 2237 	ld	l, (hl)
                                   2238 ;	spillPairReg hl
    000009A7 C5               [11] 2239 	push	bc
    000009A8 7D               [ 4] 2240 	ld	a, l
    000009A9 CDrF9r06         [17] 2241 	call	_EraseSprite16
    000009AC ED 4Br14r00      [20] 2242 	ld	bc, (#(_g_frame + 20) + 0)
    000009B0 ED 5Br14r00      [20] 2243 	ld	de, (#(_g_y1 + 20) + 0)
    000009B4 21r0Ar00         [10] 2244 	ld	hl, #_g_x1+10
    000009B7 6E               [ 7] 2245 	ld	l, (hl)
                                   2246 ;	spillPairReg hl
    000009B8 C5               [11] 2247 	push	bc
    000009B9 7D               [ 4] 2248 	ld	a, l
    000009BA CDr00r00         [17] 2249 	call	_CallSpriteFrame_B3
    000009BD 11r0Ar00         [10] 2250 	ld	de, #_g_lx+10
    000009C0 1A               [ 7] 2251 	ld	a, (de)
    000009C1 4F               [ 4] 2252 	ld	c, a
    000009C2 3Ar0Ar00         [13] 2253 	ld	a, (#(_g_dx + 10) + 0)
    000009C5 81               [ 4] 2254 	add	a, c
    000009C6 4F               [ 4] 2255 	ld	c, a
    000009C7 12               [ 7] 2256 	ld	(de), a
    000009C8 3E EE            [ 7] 2257 	ld	a, #0xee
    000009CA 91               [ 4] 2258 	sub	a, c
    000009CB 38 05            [12] 2259 	jr	C, 00123$
    000009CD 79               [ 4] 2260 	ld	a, c
    000009CE D6 04            [ 7] 2261 	sub	a, #0x04
    000009D0 30 07            [12] 2262 	jr	NC, 00124$
    000009D2                       2263 00123$:
    000009D2 01r0Ar00         [10] 2264 	ld	bc, #_g_dx+10
    000009D5 0A               [ 7] 2265 	ld	a, (bc)
    000009D6 ED 44            [ 8] 2266 	neg
    000009D8 02               [ 7] 2267 	ld	(bc), a
    000009D9                       2268 00124$:
    000009D9 01r09r00         [10] 2269 	ld	bc, #_g_x1+9
    000009DC 3Ar09r00         [13] 2270 	ld	a, (#(_g_lx + 9) + 0)
    000009DF 02               [ 7] 2271 	ld	(bc), a
    000009E0 3Ar09r00         [13] 2272 	ld	a, (#(_g_ly + 9) + 0)
    000009E3 DD 86 FF         [19] 2273 	add	a, -1 (ix)
    000009E6 C6 08            [ 7] 2274 	add	a, #0x08
    000009E8 4F               [ 4] 2275 	ld	c, a
    000009E9 06 00            [ 7] 2276 	ld	b, #0x00
    000009EB CB C0            [ 8] 2277 	set	0, b
    000009ED ED 43r12r00      [20] 2278 	ld	((_g_y1 + 18)), bc
    000009F1 3Ar12r00         [13] 2279 	ld	a, (#(_g_y2 + 18) + 0)
    000009F4 5F               [ 4] 2280 	ld	e, a
    000009F5 CB 83            [ 8] 2281 	res	0, e
    000009F7 7B               [ 4] 2282 	ld	a, e
    000009F8 DD 96 FE         [19] 2283 	sub	a, -2 (ix)
    000009FB C6 F8            [ 7] 2284 	add	a, #0xf8
    000009FD 4F               [ 4] 2285 	ld	c, a
    000009FE 06 00            [ 7] 2286 	ld	b, #0x00
    00000A00 69               [ 4] 2287 	ld	l, c
                                   2288 ;	spillPairReg hl
                                   2289 ;	spillPairReg hl
    00000A01 50               [ 4] 2290 	ld	d, b
    00000A02 3E F0            [ 7] 2291 	ld	a, #0xf0
    00000A04 BD               [ 4] 2292 	cp	a, l
    00000A05 3E 00            [ 7] 2293 	ld	a, #0x00
    00000A07 9A               [ 4] 2294 	sbc	a, d
    00000A08 30 03            [12] 2295 	jr	NC, 00127$
    00000A0A 01 00 00         [10] 2296 	ld	bc, #0x0000
    00000A0D                       2297 00127$:
    00000A0D DD 7E 04         [19] 2298 	ld	a, 4 (ix)
    00000A10 81               [ 4] 2299 	add	a, c
    00000A11 4F               [ 4] 2300 	ld	c, a
    00000A12 DD 7E 05         [19] 2301 	ld	a, 5 (ix)
    00000A15 88               [ 4] 2302 	adc	a, b
    00000A16 47               [ 4] 2303 	ld	b, a
    00000A17 16 00            [ 7] 2304 	ld	d, #0x00
    00000A19 CB CA            [ 8] 2305 	set	1, d
    00000A1B 21r09r00         [10] 2306 	ld	hl, #_g_x2+9
    00000A1E 6E               [ 7] 2307 	ld	l, (hl)
                                   2308 ;	spillPairReg hl
    00000A1F C5               [11] 2309 	push	bc
    00000A20 7D               [ 4] 2310 	ld	a, l
    00000A21 CDrF9r06         [17] 2311 	call	_EraseSprite16
    00000A24 ED 4Br12r00      [20] 2312 	ld	bc, (#(_g_frame + 18) + 0)
    00000A28 ED 5Br12r00      [20] 2313 	ld	de, (#(_g_y1 + 18) + 0)
    00000A2C 21r09r00         [10] 2314 	ld	hl, #_g_x1+9
    00000A2F 6E               [ 7] 2315 	ld	l, (hl)
                                   2316 ;	spillPairReg hl
    00000A30 C5               [11] 2317 	push	bc
    00000A31 7D               [ 4] 2318 	ld	a, l
    00000A32 CDr00r00         [17] 2319 	call	_CallSpriteFrame_B3
    00000A35 11r09r00         [10] 2320 	ld	de, #_g_lx+9
    00000A38 1A               [ 7] 2321 	ld	a, (de)
    00000A39 4F               [ 4] 2322 	ld	c, a
    00000A3A 3Ar09r00         [13] 2323 	ld	a, (#(_g_dx + 9) + 0)
    00000A3D 81               [ 4] 2324 	add	a, c
    00000A3E 4F               [ 4] 2325 	ld	c, a
    00000A3F 12               [ 7] 2326 	ld	(de), a
    00000A40 3E EE            [ 7] 2327 	ld	a, #0xee
    00000A42 91               [ 4] 2328 	sub	a, c
    00000A43 38 05            [12] 2329 	jr	C, 00128$
    00000A45 79               [ 4] 2330 	ld	a, c
    00000A46 D6 04            [ 7] 2331 	sub	a, #0x04
    00000A48 30 07            [12] 2332 	jr	NC, 00129$
    00000A4A                       2333 00128$:
    00000A4A 01r09r00         [10] 2334 	ld	bc, #_g_dx+9
    00000A4D 0A               [ 7] 2335 	ld	a, (bc)
    00000A4E ED 44            [ 8] 2336 	neg
    00000A50 02               [ 7] 2337 	ld	(bc), a
    00000A51                       2338 00129$:
    00000A51 01r08r00         [10] 2339 	ld	bc, #_g_x1+8
    00000A54 3Ar08r00         [13] 2340 	ld	a, (#(_g_lx + 8) + 0)
    00000A57 02               [ 7] 2341 	ld	(bc), a
    00000A58 3Ar08r00         [13] 2342 	ld	a, (#(_g_ly + 8) + 0)
    00000A5B DD 86 FF         [19] 2343 	add	a, -1 (ix)
    00000A5E C6 08            [ 7] 2344 	add	a, #0x08
    00000A60 4F               [ 4] 2345 	ld	c, a
    00000A61 06 00            [ 7] 2346 	ld	b, #0x00
    00000A63 CB C0            [ 8] 2347 	set	0, b
    00000A65 ED 43r10r00      [20] 2348 	ld	((_g_y1 + 16)), bc
    00000A69 3Ar10r00         [13] 2349 	ld	a, (#(_g_y2 + 16) + 0)
    00000A6C 5F               [ 4] 2350 	ld	e, a
    00000A6D CB 83            [ 8] 2351 	res	0, e
    00000A6F 7B               [ 4] 2352 	ld	a, e
    00000A70 DD 96 FE         [19] 2353 	sub	a, -2 (ix)
    00000A73 C6 F8            [ 7] 2354 	add	a, #0xf8
    00000A75 4F               [ 4] 2355 	ld	c, a
    00000A76 06 00            [ 7] 2356 	ld	b, #0x00
    00000A78 69               [ 4] 2357 	ld	l, c
                                   2358 ;	spillPairReg hl
                                   2359 ;	spillPairReg hl
    00000A79 50               [ 4] 2360 	ld	d, b
    00000A7A 3E F0            [ 7] 2361 	ld	a, #0xf0
    00000A7C BD               [ 4] 2362 	cp	a, l
    00000A7D 3E 00            [ 7] 2363 	ld	a, #0x00
    00000A7F 9A               [ 4] 2364 	sbc	a, d
    00000A80 30 03            [12] 2365 	jr	NC, 00132$
    00000A82 01 00 00         [10] 2366 	ld	bc, #0x0000
    00000A85                       2367 00132$:
    00000A85 DD 7E 04         [19] 2368 	ld	a, 4 (ix)
    00000A88 81               [ 4] 2369 	add	a, c
    00000A89 4F               [ 4] 2370 	ld	c, a
    00000A8A DD 7E 05         [19] 2371 	ld	a, 5 (ix)
    00000A8D 88               [ 4] 2372 	adc	a, b
    00000A8E 47               [ 4] 2373 	ld	b, a
    00000A8F 16 00            [ 7] 2374 	ld	d, #0x00
    00000A91 CB CA            [ 8] 2375 	set	1, d
    00000A93 21r08r00         [10] 2376 	ld	hl, #_g_x2+8
    00000A96 6E               [ 7] 2377 	ld	l, (hl)
                                   2378 ;	spillPairReg hl
    00000A97 C5               [11] 2379 	push	bc
    00000A98 7D               [ 4] 2380 	ld	a, l
    00000A99 CDrF9r06         [17] 2381 	call	_EraseSprite16
    00000A9C ED 4Br10r00      [20] 2382 	ld	bc, (#(_g_frame + 16) + 0)
    00000AA0 ED 5Br10r00      [20] 2383 	ld	de, (#(_g_y1 + 16) + 0)
    00000AA4 21r08r00         [10] 2384 	ld	hl, #_g_x1+8
    00000AA7 6E               [ 7] 2385 	ld	l, (hl)
                                   2386 ;	spillPairReg hl
    00000AA8 C5               [11] 2387 	push	bc
    00000AA9 7D               [ 4] 2388 	ld	a, l
    00000AAA CDr00r00         [17] 2389 	call	_CallSpriteFrame_B3
    00000AAD 11r08r00         [10] 2390 	ld	de, #_g_lx+8
    00000AB0 1A               [ 7] 2391 	ld	a, (de)
    00000AB1 4F               [ 4] 2392 	ld	c, a
    00000AB2 3Ar08r00         [13] 2393 	ld	a, (#(_g_dx + 8) + 0)
    00000AB5 81               [ 4] 2394 	add	a, c
    00000AB6 4F               [ 4] 2395 	ld	c, a
    00000AB7 12               [ 7] 2396 	ld	(de), a
    00000AB8 3E EE            [ 7] 2397 	ld	a, #0xee
    00000ABA 91               [ 4] 2398 	sub	a, c
    00000ABB 38 05            [12] 2399 	jr	C, 00133$
    00000ABD 79               [ 4] 2400 	ld	a, c
    00000ABE D6 04            [ 7] 2401 	sub	a, #0x04
    00000AC0 30 07            [12] 2402 	jr	NC, 00134$
    00000AC2                       2403 00133$:
    00000AC2 01r08r00         [10] 2404 	ld	bc, #_g_dx+8
    00000AC5 0A               [ 7] 2405 	ld	a, (bc)
    00000AC6 ED 44            [ 8] 2406 	neg
    00000AC8 02               [ 7] 2407 	ld	(bc), a
    00000AC9                       2408 00134$:
    00000AC9 01r07r00         [10] 2409 	ld	bc, #_g_x1+7
    00000ACC 3Ar07r00         [13] 2410 	ld	a, (#(_g_lx + 7) + 0)
    00000ACF 02               [ 7] 2411 	ld	(bc), a
    00000AD0 3Ar07r00         [13] 2412 	ld	a, (#(_g_ly + 7) + 0)
    00000AD3 DD 86 FF         [19] 2413 	add	a, -1 (ix)
    00000AD6 C6 08            [ 7] 2414 	add	a, #0x08
    00000AD8 4F               [ 4] 2415 	ld	c, a
    00000AD9 06 00            [ 7] 2416 	ld	b, #0x00
    00000ADB CB C0            [ 8] 2417 	set	0, b
    00000ADD ED 43r0Er00      [20] 2418 	ld	((_g_y1 + 14)), bc
    00000AE1 3Ar0Er00         [13] 2419 	ld	a, (#(_g_y2 + 14) + 0)
    00000AE4 5F               [ 4] 2420 	ld	e, a
    00000AE5 CB 83            [ 8] 2421 	res	0, e
    00000AE7 7B               [ 4] 2422 	ld	a, e
    00000AE8 DD 96 FE         [19] 2423 	sub	a, -2 (ix)
    00000AEB C6 F8            [ 7] 2424 	add	a, #0xf8
    00000AED 4F               [ 4] 2425 	ld	c, a
    00000AEE 06 00            [ 7] 2426 	ld	b, #0x00
    00000AF0 69               [ 4] 2427 	ld	l, c
                                   2428 ;	spillPairReg hl
                                   2429 ;	spillPairReg hl
    00000AF1 50               [ 4] 2430 	ld	d, b
    00000AF2 3E F0            [ 7] 2431 	ld	a, #0xf0
    00000AF4 BD               [ 4] 2432 	cp	a, l
    00000AF5 3E 00            [ 7] 2433 	ld	a, #0x00
    00000AF7 9A               [ 4] 2434 	sbc	a, d
    00000AF8 30 03            [12] 2435 	jr	NC, 00137$
    00000AFA 01 00 00         [10] 2436 	ld	bc, #0x0000
    00000AFD                       2437 00137$:
    00000AFD DD 7E 04         [19] 2438 	ld	a, 4 (ix)
    00000B00 81               [ 4] 2439 	add	a, c
    00000B01 4F               [ 4] 2440 	ld	c, a
    00000B02 DD 7E 05         [19] 2441 	ld	a, 5 (ix)
    00000B05 88               [ 4] 2442 	adc	a, b
    00000B06 47               [ 4] 2443 	ld	b, a
    00000B07 16 00            [ 7] 2444 	ld	d, #0x00
    00000B09 CB CA            [ 8] 2445 	set	1, d
    00000B0B 21r07r00         [10] 2446 	ld	hl, #_g_x2+7
    00000B0E 6E               [ 7] 2447 	ld	l, (hl)
                                   2448 ;	spillPairReg hl
    00000B0F C5               [11] 2449 	push	bc
    00000B10 7D               [ 4] 2450 	ld	a, l
    00000B11 CDrF9r06         [17] 2451 	call	_EraseSprite16
    00000B14 ED 4Br0Er00      [20] 2452 	ld	bc, (#(_g_frame + 14) + 0)
    00000B18 ED 5Br0Er00      [20] 2453 	ld	de, (#(_g_y1 + 14) + 0)
    00000B1C 21r07r00         [10] 2454 	ld	hl, #_g_x1+7
    00000B1F 6E               [ 7] 2455 	ld	l, (hl)
                                   2456 ;	spillPairReg hl
    00000B20 C5               [11] 2457 	push	bc
    00000B21 7D               [ 4] 2458 	ld	a, l
    00000B22 CDr00r00         [17] 2459 	call	_CallSpriteFrame_B3
    00000B25 11r07r00         [10] 2460 	ld	de, #_g_lx+7
    00000B28 1A               [ 7] 2461 	ld	a, (de)
    00000B29 4F               [ 4] 2462 	ld	c, a
    00000B2A 3Ar07r00         [13] 2463 	ld	a, (#(_g_dx + 7) + 0)
    00000B2D 81               [ 4] 2464 	add	a, c
    00000B2E 4F               [ 4] 2465 	ld	c, a
    00000B2F 12               [ 7] 2466 	ld	(de), a
    00000B30 3E EE            [ 7] 2467 	ld	a, #0xee
    00000B32 91               [ 4] 2468 	sub	a, c
    00000B33 38 05            [12] 2469 	jr	C, 00138$
    00000B35 79               [ 4] 2470 	ld	a, c
    00000B36 D6 04            [ 7] 2471 	sub	a, #0x04
    00000B38 30 07            [12] 2472 	jr	NC, 00139$
    00000B3A                       2473 00138$:
    00000B3A 01r07r00         [10] 2474 	ld	bc, #_g_dx+7
    00000B3D 0A               [ 7] 2475 	ld	a, (bc)
    00000B3E ED 44            [ 8] 2476 	neg
    00000B40 02               [ 7] 2477 	ld	(bc), a
    00000B41                       2478 00139$:
    00000B41 01r06r00         [10] 2479 	ld	bc, #_g_x1+6
    00000B44 3Ar06r00         [13] 2480 	ld	a, (#(_g_lx + 6) + 0)
    00000B47 02               [ 7] 2481 	ld	(bc), a
    00000B48 3Ar06r00         [13] 2482 	ld	a, (#(_g_ly + 6) + 0)
    00000B4B DD 86 FF         [19] 2483 	add	a, -1 (ix)
    00000B4E C6 08            [ 7] 2484 	add	a, #0x08
    00000B50 4F               [ 4] 2485 	ld	c, a
    00000B51 06 00            [ 7] 2486 	ld	b, #0x00
    00000B53 CB C0            [ 8] 2487 	set	0, b
    00000B55 ED 43r0Cr00      [20] 2488 	ld	((_g_y1 + 12)), bc
    00000B59 3Ar0Cr00         [13] 2489 	ld	a, (#(_g_y2 + 12) + 0)
    00000B5C 5F               [ 4] 2490 	ld	e, a
    00000B5D CB 83            [ 8] 2491 	res	0, e
    00000B5F 7B               [ 4] 2492 	ld	a, e
    00000B60 DD 96 FE         [19] 2493 	sub	a, -2 (ix)
    00000B63 C6 F8            [ 7] 2494 	add	a, #0xf8
    00000B65 4F               [ 4] 2495 	ld	c, a
    00000B66 06 00            [ 7] 2496 	ld	b, #0x00
    00000B68 69               [ 4] 2497 	ld	l, c
                                   2498 ;	spillPairReg hl
                                   2499 ;	spillPairReg hl
    00000B69 50               [ 4] 2500 	ld	d, b
    00000B6A 3E F0            [ 7] 2501 	ld	a, #0xf0
    00000B6C BD               [ 4] 2502 	cp	a, l
    00000B6D 3E 00            [ 7] 2503 	ld	a, #0x00
    00000B6F 9A               [ 4] 2504 	sbc	a, d
    00000B70 30 03            [12] 2505 	jr	NC, 00142$
    00000B72 01 00 00         [10] 2506 	ld	bc, #0x0000
    00000B75                       2507 00142$:
    00000B75 DD 7E 04         [19] 2508 	ld	a, 4 (ix)
    00000B78 81               [ 4] 2509 	add	a, c
    00000B79 4F               [ 4] 2510 	ld	c, a
    00000B7A DD 7E 05         [19] 2511 	ld	a, 5 (ix)
    00000B7D 88               [ 4] 2512 	adc	a, b
    00000B7E 47               [ 4] 2513 	ld	b, a
    00000B7F 16 00            [ 7] 2514 	ld	d, #0x00
    00000B81 CB CA            [ 8] 2515 	set	1, d
    00000B83 21r06r00         [10] 2516 	ld	hl, #_g_x2+6
    00000B86 6E               [ 7] 2517 	ld	l, (hl)
                                   2518 ;	spillPairReg hl
    00000B87 C5               [11] 2519 	push	bc
    00000B88 7D               [ 4] 2520 	ld	a, l
    00000B89 CDrF9r06         [17] 2521 	call	_EraseSprite16
    00000B8C ED 4Br0Cr00      [20] 2522 	ld	bc, (#(_g_frame + 12) + 0)
    00000B90 ED 5Br0Cr00      [20] 2523 	ld	de, (#(_g_y1 + 12) + 0)
    00000B94 21r06r00         [10] 2524 	ld	hl, #_g_x1+6
    00000B97 6E               [ 7] 2525 	ld	l, (hl)
                                   2526 ;	spillPairReg hl
    00000B98 C5               [11] 2527 	push	bc
    00000B99 7D               [ 4] 2528 	ld	a, l
    00000B9A CDr00r00         [17] 2529 	call	_CallSpriteFrame_B3
    00000B9D 11r06r00         [10] 2530 	ld	de, #_g_lx+6
    00000BA0 1A               [ 7] 2531 	ld	a, (de)
    00000BA1 4F               [ 4] 2532 	ld	c, a
    00000BA2 3Ar06r00         [13] 2533 	ld	a, (#(_g_dx + 6) + 0)
    00000BA5 81               [ 4] 2534 	add	a, c
    00000BA6 4F               [ 4] 2535 	ld	c, a
    00000BA7 12               [ 7] 2536 	ld	(de), a
    00000BA8 3E EE            [ 7] 2537 	ld	a, #0xee
    00000BAA 91               [ 4] 2538 	sub	a, c
    00000BAB 38 05            [12] 2539 	jr	C, 00143$
    00000BAD 79               [ 4] 2540 	ld	a, c
    00000BAE D6 04            [ 7] 2541 	sub	a, #0x04
    00000BB0 30 07            [12] 2542 	jr	NC, 00144$
    00000BB2                       2543 00143$:
    00000BB2 01r06r00         [10] 2544 	ld	bc, #_g_dx+6
    00000BB5 0A               [ 7] 2545 	ld	a, (bc)
    00000BB6 ED 44            [ 8] 2546 	neg
    00000BB8 02               [ 7] 2547 	ld	(bc), a
    00000BB9                       2548 00144$:
    00000BB9 01r05r00         [10] 2549 	ld	bc, #_g_x1+5
    00000BBC 3Ar05r00         [13] 2550 	ld	a, (#(_g_lx + 5) + 0)
    00000BBF 02               [ 7] 2551 	ld	(bc), a
    00000BC0 3Ar05r00         [13] 2552 	ld	a, (#(_g_ly + 5) + 0)
    00000BC3 DD 86 FF         [19] 2553 	add	a, -1 (ix)
    00000BC6 C6 08            [ 7] 2554 	add	a, #0x08
    00000BC8 4F               [ 4] 2555 	ld	c, a
    00000BC9 06 00            [ 7] 2556 	ld	b, #0x00
    00000BCB CB C0            [ 8] 2557 	set	0, b
    00000BCD ED 43r0Ar00      [20] 2558 	ld	((_g_y1 + 10)), bc
    00000BD1 3Ar0Ar00         [13] 2559 	ld	a, (#(_g_y2 + 10) + 0)
    00000BD4 5F               [ 4] 2560 	ld	e, a
    00000BD5 CB 83            [ 8] 2561 	res	0, e
    00000BD7 7B               [ 4] 2562 	ld	a, e
    00000BD8 DD 96 FE         [19] 2563 	sub	a, -2 (ix)
    00000BDB C6 F8            [ 7] 2564 	add	a, #0xf8
    00000BDD 4F               [ 4] 2565 	ld	c, a
    00000BDE 06 00            [ 7] 2566 	ld	b, #0x00
    00000BE0 69               [ 4] 2567 	ld	l, c
                                   2568 ;	spillPairReg hl
                                   2569 ;	spillPairReg hl
    00000BE1 50               [ 4] 2570 	ld	d, b
    00000BE2 3E F0            [ 7] 2571 	ld	a, #0xf0
    00000BE4 BD               [ 4] 2572 	cp	a, l
    00000BE5 3E 00            [ 7] 2573 	ld	a, #0x00
    00000BE7 9A               [ 4] 2574 	sbc	a, d
    00000BE8 30 03            [12] 2575 	jr	NC, 00147$
    00000BEA 01 00 00         [10] 2576 	ld	bc, #0x0000
    00000BED                       2577 00147$:
    00000BED DD 7E 04         [19] 2578 	ld	a, 4 (ix)
    00000BF0 81               [ 4] 2579 	add	a, c
    00000BF1 4F               [ 4] 2580 	ld	c, a
    00000BF2 DD 7E 05         [19] 2581 	ld	a, 5 (ix)
    00000BF5 88               [ 4] 2582 	adc	a, b
    00000BF6 47               [ 4] 2583 	ld	b, a
    00000BF7 16 00            [ 7] 2584 	ld	d, #0x00
    00000BF9 CB CA            [ 8] 2585 	set	1, d
    00000BFB 21r05r00         [10] 2586 	ld	hl, #_g_x2+5
    00000BFE 6E               [ 7] 2587 	ld	l, (hl)
                                   2588 ;	spillPairReg hl
    00000BFF C5               [11] 2589 	push	bc
    00000C00 7D               [ 4] 2590 	ld	a, l
    00000C01 CDrF9r06         [17] 2591 	call	_EraseSprite16
    00000C04 ED 4Br0Ar00      [20] 2592 	ld	bc, (#(_g_frame + 10) + 0)
    00000C08 ED 5Br0Ar00      [20] 2593 	ld	de, (#(_g_y1 + 10) + 0)
    00000C0C 21r05r00         [10] 2594 	ld	hl, #_g_x1+5
    00000C0F 6E               [ 7] 2595 	ld	l, (hl)
                                   2596 ;	spillPairReg hl
    00000C10 C5               [11] 2597 	push	bc
    00000C11 7D               [ 4] 2598 	ld	a, l
    00000C12 CDr00r00         [17] 2599 	call	_CallSpriteFrame_B3
    00000C15 11r05r00         [10] 2600 	ld	de, #_g_lx+5
    00000C18 1A               [ 7] 2601 	ld	a, (de)
    00000C19 4F               [ 4] 2602 	ld	c, a
    00000C1A 3Ar05r00         [13] 2603 	ld	a, (#(_g_dx + 5) + 0)
    00000C1D 81               [ 4] 2604 	add	a, c
    00000C1E 4F               [ 4] 2605 	ld	c, a
    00000C1F 12               [ 7] 2606 	ld	(de), a
    00000C20 3E EE            [ 7] 2607 	ld	a, #0xee
    00000C22 91               [ 4] 2608 	sub	a, c
    00000C23 38 05            [12] 2609 	jr	C, 00148$
    00000C25 79               [ 4] 2610 	ld	a, c
    00000C26 D6 04            [ 7] 2611 	sub	a, #0x04
    00000C28 30 07            [12] 2612 	jr	NC, 00149$
    00000C2A                       2613 00148$:
    00000C2A 01r05r00         [10] 2614 	ld	bc, #_g_dx+5
    00000C2D 0A               [ 7] 2615 	ld	a, (bc)
    00000C2E ED 44            [ 8] 2616 	neg
    00000C30 02               [ 7] 2617 	ld	(bc), a
    00000C31                       2618 00149$:
    00000C31 01r04r00         [10] 2619 	ld	bc, #_g_x1+4
    00000C34 3Ar04r00         [13] 2620 	ld	a, (#(_g_lx + 4) + 0)
    00000C37 02               [ 7] 2621 	ld	(bc), a
    00000C38 3Ar04r00         [13] 2622 	ld	a, (#(_g_ly + 4) + 0)
    00000C3B DD 86 FF         [19] 2623 	add	a, -1 (ix)
    00000C3E C6 08            [ 7] 2624 	add	a, #0x08
    00000C40 4F               [ 4] 2625 	ld	c, a
    00000C41 06 00            [ 7] 2626 	ld	b, #0x00
    00000C43 CB C0            [ 8] 2627 	set	0, b
    00000C45 ED 43r08r00      [20] 2628 	ld	((_g_y1 + 8)), bc
    00000C49 3Ar08r00         [13] 2629 	ld	a, (#(_g_y2 + 8) + 0)
    00000C4C 5F               [ 4] 2630 	ld	e, a
    00000C4D CB 83            [ 8] 2631 	res	0, e
    00000C4F 7B               [ 4] 2632 	ld	a, e
    00000C50 DD 96 FE         [19] 2633 	sub	a, -2 (ix)
    00000C53 C6 F8            [ 7] 2634 	add	a, #0xf8
    00000C55 4F               [ 4] 2635 	ld	c, a
    00000C56 06 00            [ 7] 2636 	ld	b, #0x00
    00000C58 69               [ 4] 2637 	ld	l, c
                                   2638 ;	spillPairReg hl
                                   2639 ;	spillPairReg hl
    00000C59 50               [ 4] 2640 	ld	d, b
    00000C5A 3E F0            [ 7] 2641 	ld	a, #0xf0
    00000C5C BD               [ 4] 2642 	cp	a, l
    00000C5D 3E 00            [ 7] 2643 	ld	a, #0x00
    00000C5F 9A               [ 4] 2644 	sbc	a, d
    00000C60 30 03            [12] 2645 	jr	NC, 00152$
    00000C62 01 00 00         [10] 2646 	ld	bc, #0x0000
    00000C65                       2647 00152$:
    00000C65 DD 7E 04         [19] 2648 	ld	a, 4 (ix)
    00000C68 81               [ 4] 2649 	add	a, c
    00000C69 4F               [ 4] 2650 	ld	c, a
    00000C6A DD 7E 05         [19] 2651 	ld	a, 5 (ix)
    00000C6D 88               [ 4] 2652 	adc	a, b
    00000C6E 47               [ 4] 2653 	ld	b, a
    00000C6F 16 00            [ 7] 2654 	ld	d, #0x00
    00000C71 CB CA            [ 8] 2655 	set	1, d
    00000C73 21r04r00         [10] 2656 	ld	hl, #_g_x2+4
    00000C76 6E               [ 7] 2657 	ld	l, (hl)
                                   2658 ;	spillPairReg hl
    00000C77 C5               [11] 2659 	push	bc
    00000C78 7D               [ 4] 2660 	ld	a, l
    00000C79 CDrF9r06         [17] 2661 	call	_EraseSprite16
    00000C7C ED 4Br08r00      [20] 2662 	ld	bc, (#(_g_frame + 8) + 0)
    00000C80 ED 5Br08r00      [20] 2663 	ld	de, (#(_g_y1 + 8) + 0)
    00000C84 21r04r00         [10] 2664 	ld	hl, #_g_x1+4
    00000C87 6E               [ 7] 2665 	ld	l, (hl)
                                   2666 ;	spillPairReg hl
    00000C88 C5               [11] 2667 	push	bc
    00000C89 7D               [ 4] 2668 	ld	a, l
    00000C8A CDr00r00         [17] 2669 	call	_CallSpriteFrame_B3
    00000C8D 11r04r00         [10] 2670 	ld	de, #_g_lx+4
    00000C90 1A               [ 7] 2671 	ld	a, (de)
    00000C91 4F               [ 4] 2672 	ld	c, a
    00000C92 3Ar04r00         [13] 2673 	ld	a, (#(_g_dx + 4) + 0)
    00000C95 81               [ 4] 2674 	add	a, c
    00000C96 4F               [ 4] 2675 	ld	c, a
    00000C97 12               [ 7] 2676 	ld	(de), a
    00000C98 3E EE            [ 7] 2677 	ld	a, #0xee
    00000C9A 91               [ 4] 2678 	sub	a, c
    00000C9B 38 05            [12] 2679 	jr	C, 00153$
    00000C9D 79               [ 4] 2680 	ld	a, c
    00000C9E D6 04            [ 7] 2681 	sub	a, #0x04
    00000CA0 30 07            [12] 2682 	jr	NC, 00154$
    00000CA2                       2683 00153$:
    00000CA2 01r04r00         [10] 2684 	ld	bc, #_g_dx+4
    00000CA5 0A               [ 7] 2685 	ld	a, (bc)
    00000CA6 ED 44            [ 8] 2686 	neg
    00000CA8 02               [ 7] 2687 	ld	(bc), a
    00000CA9                       2688 00154$:
    00000CA9 01r03r00         [10] 2689 	ld	bc, #_g_x1+3
    00000CAC 3Ar03r00         [13] 2690 	ld	a, (#(_g_lx + 3) + 0)
    00000CAF 02               [ 7] 2691 	ld	(bc), a
    00000CB0 3Ar03r00         [13] 2692 	ld	a, (#(_g_ly + 3) + 0)
    00000CB3 DD 86 FF         [19] 2693 	add	a, -1 (ix)
    00000CB6 C6 08            [ 7] 2694 	add	a, #0x08
    00000CB8 4F               [ 4] 2695 	ld	c, a
    00000CB9 06 00            [ 7] 2696 	ld	b, #0x00
    00000CBB CB C0            [ 8] 2697 	set	0, b
    00000CBD ED 43r06r00      [20] 2698 	ld	((_g_y1 + 6)), bc
    00000CC1 3Ar06r00         [13] 2699 	ld	a, (#(_g_y2 + 6) + 0)
    00000CC4 5F               [ 4] 2700 	ld	e, a
    00000CC5 CB 83            [ 8] 2701 	res	0, e
    00000CC7 7B               [ 4] 2702 	ld	a, e
    00000CC8 DD 96 FE         [19] 2703 	sub	a, -2 (ix)
    00000CCB C6 F8            [ 7] 2704 	add	a, #0xf8
    00000CCD 4F               [ 4] 2705 	ld	c, a
    00000CCE 06 00            [ 7] 2706 	ld	b, #0x00
    00000CD0 69               [ 4] 2707 	ld	l, c
                                   2708 ;	spillPairReg hl
                                   2709 ;	spillPairReg hl
    00000CD1 50               [ 4] 2710 	ld	d, b
    00000CD2 3E F0            [ 7] 2711 	ld	a, #0xf0
    00000CD4 BD               [ 4] 2712 	cp	a, l
    00000CD5 3E 00            [ 7] 2713 	ld	a, #0x00
    00000CD7 9A               [ 4] 2714 	sbc	a, d
    00000CD8 30 03            [12] 2715 	jr	NC, 00157$
    00000CDA 01 00 00         [10] 2716 	ld	bc, #0x0000
    00000CDD                       2717 00157$:
    00000CDD DD 7E 04         [19] 2718 	ld	a, 4 (ix)
    00000CE0 81               [ 4] 2719 	add	a, c
    00000CE1 4F               [ 4] 2720 	ld	c, a
    00000CE2 DD 7E 05         [19] 2721 	ld	a, 5 (ix)
    00000CE5 88               [ 4] 2722 	adc	a, b
    00000CE6 47               [ 4] 2723 	ld	b, a
    00000CE7 16 00            [ 7] 2724 	ld	d, #0x00
    00000CE9 CB CA            [ 8] 2725 	set	1, d
    00000CEB 21r03r00         [10] 2726 	ld	hl, #_g_x2+3
    00000CEE 6E               [ 7] 2727 	ld	l, (hl)
                                   2728 ;	spillPairReg hl
    00000CEF C5               [11] 2729 	push	bc
    00000CF0 7D               [ 4] 2730 	ld	a, l
    00000CF1 CDrF9r06         [17] 2731 	call	_EraseSprite16
    00000CF4 ED 4Br06r00      [20] 2732 	ld	bc, (#(_g_frame + 6) + 0)
    00000CF8 ED 5Br06r00      [20] 2733 	ld	de, (#(_g_y1 + 6) + 0)
    00000CFC 21r03r00         [10] 2734 	ld	hl, #_g_x1+3
    00000CFF 6E               [ 7] 2735 	ld	l, (hl)
                                   2736 ;	spillPairReg hl
    00000D00 C5               [11] 2737 	push	bc
    00000D01 7D               [ 4] 2738 	ld	a, l
    00000D02 CDr00r00         [17] 2739 	call	_CallSpriteFrame_B3
    00000D05 11r03r00         [10] 2740 	ld	de, #_g_lx+3
    00000D08 1A               [ 7] 2741 	ld	a, (de)
    00000D09 4F               [ 4] 2742 	ld	c, a
    00000D0A 3Ar03r00         [13] 2743 	ld	a, (#(_g_dx + 3) + 0)
    00000D0D 81               [ 4] 2744 	add	a, c
    00000D0E 4F               [ 4] 2745 	ld	c, a
    00000D0F 12               [ 7] 2746 	ld	(de), a
    00000D10 3E EE            [ 7] 2747 	ld	a, #0xee
    00000D12 91               [ 4] 2748 	sub	a, c
    00000D13 38 05            [12] 2749 	jr	C, 00158$
    00000D15 79               [ 4] 2750 	ld	a, c
    00000D16 D6 04            [ 7] 2751 	sub	a, #0x04
    00000D18 30 07            [12] 2752 	jr	NC, 00159$
    00000D1A                       2753 00158$:
    00000D1A 01r03r00         [10] 2754 	ld	bc, #_g_dx+3
    00000D1D 0A               [ 7] 2755 	ld	a, (bc)
    00000D1E ED 44            [ 8] 2756 	neg
    00000D20 02               [ 7] 2757 	ld	(bc), a
    00000D21                       2758 00159$:
    00000D21 01r02r00         [10] 2759 	ld	bc, #_g_x1+2
    00000D24 3Ar02r00         [13] 2760 	ld	a, (#(_g_lx + 2) + 0)
    00000D27 02               [ 7] 2761 	ld	(bc), a
    00000D28 3Ar02r00         [13] 2762 	ld	a, (#(_g_ly + 2) + 0)
    00000D2B DD 86 FF         [19] 2763 	add	a, -1 (ix)
    00000D2E C6 08            [ 7] 2764 	add	a, #0x08
    00000D30 4F               [ 4] 2765 	ld	c, a
    00000D31 06 00            [ 7] 2766 	ld	b, #0x00
    00000D33 CB C0            [ 8] 2767 	set	0, b
    00000D35 ED 43r04r00      [20] 2768 	ld	((_g_y1 + 4)), bc
    00000D39 3Ar04r00         [13] 2769 	ld	a, (#(_g_y2 + 4) + 0)
    00000D3C 5F               [ 4] 2770 	ld	e, a
    00000D3D CB 83            [ 8] 2771 	res	0, e
    00000D3F 7B               [ 4] 2772 	ld	a, e
    00000D40 DD 96 FE         [19] 2773 	sub	a, -2 (ix)
    00000D43 C6 F8            [ 7] 2774 	add	a, #0xf8
    00000D45 4F               [ 4] 2775 	ld	c, a
    00000D46 06 00            [ 7] 2776 	ld	b, #0x00
    00000D48 69               [ 4] 2777 	ld	l, c
                                   2778 ;	spillPairReg hl
                                   2779 ;	spillPairReg hl
    00000D49 50               [ 4] 2780 	ld	d, b
    00000D4A 3E F0            [ 7] 2781 	ld	a, #0xf0
    00000D4C BD               [ 4] 2782 	cp	a, l
    00000D4D 3E 00            [ 7] 2783 	ld	a, #0x00
    00000D4F 9A               [ 4] 2784 	sbc	a, d
    00000D50 30 03            [12] 2785 	jr	NC, 00162$
    00000D52 01 00 00         [10] 2786 	ld	bc, #0x0000
    00000D55                       2787 00162$:
    00000D55 DD 7E 04         [19] 2788 	ld	a, 4 (ix)
    00000D58 81               [ 4] 2789 	add	a, c
    00000D59 4F               [ 4] 2790 	ld	c, a
    00000D5A DD 7E 05         [19] 2791 	ld	a, 5 (ix)
    00000D5D 88               [ 4] 2792 	adc	a, b
    00000D5E 47               [ 4] 2793 	ld	b, a
    00000D5F 16 00            [ 7] 2794 	ld	d, #0x00
    00000D61 CB CA            [ 8] 2795 	set	1, d
    00000D63 21r02r00         [10] 2796 	ld	hl, #_g_x2+2
    00000D66 6E               [ 7] 2797 	ld	l, (hl)
                                   2798 ;	spillPairReg hl
    00000D67 C5               [11] 2799 	push	bc
    00000D68 7D               [ 4] 2800 	ld	a, l
    00000D69 CDrF9r06         [17] 2801 	call	_EraseSprite16
    00000D6C ED 4Br04r00      [20] 2802 	ld	bc, (#(_g_frame + 4) + 0)
    00000D70 ED 5Br04r00      [20] 2803 	ld	de, (#(_g_y1 + 4) + 0)
    00000D74 21r02r00         [10] 2804 	ld	hl, #_g_x1+2
    00000D77 6E               [ 7] 2805 	ld	l, (hl)
                                   2806 ;	spillPairReg hl
    00000D78 C5               [11] 2807 	push	bc
    00000D79 7D               [ 4] 2808 	ld	a, l
    00000D7A CDr00r00         [17] 2809 	call	_CallSpriteFrame_B3
    00000D7D 11r02r00         [10] 2810 	ld	de, #_g_lx+2
    00000D80 1A               [ 7] 2811 	ld	a, (de)
    00000D81 4F               [ 4] 2812 	ld	c, a
    00000D82 3Ar02r00         [13] 2813 	ld	a, (#(_g_dx + 2) + 0)
    00000D85 81               [ 4] 2814 	add	a, c
    00000D86 4F               [ 4] 2815 	ld	c, a
    00000D87 12               [ 7] 2816 	ld	(de), a
    00000D88 3E EE            [ 7] 2817 	ld	a, #0xee
    00000D8A 91               [ 4] 2818 	sub	a, c
    00000D8B 38 05            [12] 2819 	jr	C, 00163$
    00000D8D 79               [ 4] 2820 	ld	a, c
    00000D8E D6 04            [ 7] 2821 	sub	a, #0x04
    00000D90 30 07            [12] 2822 	jr	NC, 00164$
    00000D92                       2823 00163$:
    00000D92 01r02r00         [10] 2824 	ld	bc, #_g_dx+2
    00000D95 0A               [ 7] 2825 	ld	a, (bc)
    00000D96 ED 44            [ 8] 2826 	neg
    00000D98 02               [ 7] 2827 	ld	(bc), a
    00000D99                       2828 00164$:
    00000D99 01r01r00         [10] 2829 	ld	bc, #_g_x1+1
    00000D9C 3Ar01r00         [13] 2830 	ld	a, (#(_g_lx + 1) + 0)
    00000D9F 02               [ 7] 2831 	ld	(bc), a
    00000DA0 3Ar01r00         [13] 2832 	ld	a, (#(_g_ly + 1) + 0)
    00000DA3 DD 86 FF         [19] 2833 	add	a, -1 (ix)
    00000DA6 C6 08            [ 7] 2834 	add	a, #0x08
    00000DA8 4F               [ 4] 2835 	ld	c, a
    00000DA9 06 00            [ 7] 2836 	ld	b, #0x00
    00000DAB CB C0            [ 8] 2837 	set	0, b
    00000DAD ED 43r02r00      [20] 2838 	ld	((_g_y1 + 2)), bc
    00000DB1 3Ar02r00         [13] 2839 	ld	a, (#(_g_y2 + 2) + 0)
    00000DB4 5F               [ 4] 2840 	ld	e, a
    00000DB5 CB 83            [ 8] 2841 	res	0, e
    00000DB7 7B               [ 4] 2842 	ld	a, e
    00000DB8 DD 96 FE         [19] 2843 	sub	a, -2 (ix)
    00000DBB C6 F8            [ 7] 2844 	add	a, #0xf8
    00000DBD 4F               [ 4] 2845 	ld	c, a
    00000DBE 06 00            [ 7] 2846 	ld	b, #0x00
    00000DC0 69               [ 4] 2847 	ld	l, c
                                   2848 ;	spillPairReg hl
                                   2849 ;	spillPairReg hl
    00000DC1 50               [ 4] 2850 	ld	d, b
    00000DC2 3E F0            [ 7] 2851 	ld	a, #0xf0
    00000DC4 BD               [ 4] 2852 	cp	a, l
    00000DC5 3E 00            [ 7] 2853 	ld	a, #0x00
    00000DC7 9A               [ 4] 2854 	sbc	a, d
    00000DC8 30 03            [12] 2855 	jr	NC, 00167$
    00000DCA 01 00 00         [10] 2856 	ld	bc, #0x0000
    00000DCD                       2857 00167$:
    00000DCD DD 7E 04         [19] 2858 	ld	a, 4 (ix)
    00000DD0 81               [ 4] 2859 	add	a, c
    00000DD1 4F               [ 4] 2860 	ld	c, a
    00000DD2 DD 7E 05         [19] 2861 	ld	a, 5 (ix)
    00000DD5 88               [ 4] 2862 	adc	a, b
    00000DD6 47               [ 4] 2863 	ld	b, a
    00000DD7 16 00            [ 7] 2864 	ld	d, #0x00
    00000DD9 CB CA            [ 8] 2865 	set	1, d
    00000DDB 21r01r00         [10] 2866 	ld	hl, #_g_x2+1
    00000DDE 6E               [ 7] 2867 	ld	l, (hl)
                                   2868 ;	spillPairReg hl
    00000DDF C5               [11] 2869 	push	bc
    00000DE0 7D               [ 4] 2870 	ld	a, l
    00000DE1 CDrF9r06         [17] 2871 	call	_EraseSprite16
    00000DE4 ED 4Br02r00      [20] 2872 	ld	bc, (#(_g_frame + 2) + 0)
    00000DE8 ED 5Br02r00      [20] 2873 	ld	de, (#(_g_y1 + 2) + 0)
    00000DEC 21r01r00         [10] 2874 	ld	hl, #_g_x1+1
    00000DEF 6E               [ 7] 2875 	ld	l, (hl)
                                   2876 ;	spillPairReg hl
    00000DF0 C5               [11] 2877 	push	bc
    00000DF1 7D               [ 4] 2878 	ld	a, l
    00000DF2 CDr00r00         [17] 2879 	call	_CallSpriteFrame_B3
    00000DF5 11r01r00         [10] 2880 	ld	de, #_g_lx+1
    00000DF8 1A               [ 7] 2881 	ld	a, (de)
    00000DF9 4F               [ 4] 2882 	ld	c, a
    00000DFA 3Ar01r00         [13] 2883 	ld	a, (#(_g_dx + 1) + 0)
    00000DFD 81               [ 4] 2884 	add	a, c
    00000DFE 4F               [ 4] 2885 	ld	c, a
    00000DFF 12               [ 7] 2886 	ld	(de), a
    00000E00 3E EE            [ 7] 2887 	ld	a, #0xee
    00000E02 91               [ 4] 2888 	sub	a, c
    00000E03 38 05            [12] 2889 	jr	C, 00168$
    00000E05 79               [ 4] 2890 	ld	a, c
    00000E06 D6 04            [ 7] 2891 	sub	a, #0x04
    00000E08 30 07            [12] 2892 	jr	NC, 00169$
    00000E0A                       2893 00168$:
    00000E0A 01r01r00         [10] 2894 	ld	bc, #_g_dx+1
    00000E0D 0A               [ 7] 2895 	ld	a, (bc)
    00000E0E ED 44            [ 8] 2896 	neg
    00000E10 02               [ 7] 2897 	ld	(bc), a
    00000E11                       2898 00169$:
    00000E11 01r00r00         [10] 2899 	ld	bc, #_g_x1+0
    00000E14 3Ar00r00         [13] 2900 	ld	a, (#_g_lx + 0)
    00000E17 02               [ 7] 2901 	ld	(bc), a
    00000E18 3Ar00r00         [13] 2902 	ld	a, (#_g_ly + 0)
    00000E1B DD 86 FF         [19] 2903 	add	a, -1 (ix)
    00000E1E C6 08            [ 7] 2904 	add	a, #0x08
    00000E20 4F               [ 4] 2905 	ld	c, a
    00000E21 06 00            [ 7] 2906 	ld	b, #0x00
    00000E23 CB C0            [ 8] 2907 	set	0, b
    00000E25 ED 43r00r00      [20] 2908 	ld	(_g_y1), bc
    00000E29 3Ar00r00         [13] 2909 	ld	a, (#_g_y2 + 0)
    00000E2C 5F               [ 4] 2910 	ld	e, a
    00000E2D CB 83            [ 8] 2911 	res	0, e
    00000E2F 7B               [ 4] 2912 	ld	a, e
    00000E30 DD 96 FE         [19] 2913 	sub	a, -2 (ix)
    00000E33 C6 F8            [ 7] 2914 	add	a, #0xf8
    00000E35 4F               [ 4] 2915 	ld	c, a
    00000E36 06 00            [ 7] 2916 	ld	b, #0x00
    00000E38 69               [ 4] 2917 	ld	l, c
                                   2918 ;	spillPairReg hl
                                   2919 ;	spillPairReg hl
    00000E39 50               [ 4] 2920 	ld	d, b
    00000E3A 3E F0            [ 7] 2921 	ld	a, #0xf0
    00000E3C BD               [ 4] 2922 	cp	a, l
    00000E3D 3E 00            [ 7] 2923 	ld	a, #0x00
    00000E3F 9A               [ 4] 2924 	sbc	a, d
    00000E40 30 03            [12] 2925 	jr	NC, 00172$
    00000E42 01 00 00         [10] 2926 	ld	bc, #0x0000
    00000E45                       2927 00172$:
    00000E45 DD 7E 04         [19] 2928 	ld	a, 4 (ix)
    00000E48 81               [ 4] 2929 	add	a, c
    00000E49 4F               [ 4] 2930 	ld	c, a
    00000E4A DD 7E 05         [19] 2931 	ld	a, 5 (ix)
    00000E4D 88               [ 4] 2932 	adc	a, b
    00000E4E 47               [ 4] 2933 	ld	b, a
    00000E4F 16 00            [ 7] 2934 	ld	d, #0x00
    00000E51 CB CA            [ 8] 2935 	set	1, d
    00000E53 21r00r00         [10] 2936 	ld	hl, #_g_x2+0
    00000E56 6E               [ 7] 2937 	ld	l, (hl)
                                   2938 ;	spillPairReg hl
    00000E57 C5               [11] 2939 	push	bc
    00000E58 7D               [ 4] 2940 	ld	a, l
    00000E59 CDrF9r06         [17] 2941 	call	_EraseSprite16
    00000E5C ED 4Br00r00      [20] 2942 	ld	bc, (#_g_frame + 0)
    00000E60 ED 5Br00r00      [20] 2943 	ld	de, (#_g_y1 + 0)
    00000E64 21r00r00         [10] 2944 	ld	hl, #_g_x1+0
    00000E67 6E               [ 7] 2945 	ld	l, (hl)
                                   2946 ;	spillPairReg hl
    00000E68 C5               [11] 2947 	push	bc
    00000E69 7D               [ 4] 2948 	ld	a, l
    00000E6A CDr00r00         [17] 2949 	call	_CallSpriteFrame_B3
    00000E6D 11r00r00         [10] 2950 	ld	de, #_g_lx+0
    00000E70 1A               [ 7] 2951 	ld	a, (de)
    00000E71 4F               [ 4] 2952 	ld	c, a
    00000E72 3Ar00r00         [13] 2953 	ld	a, (#_g_dx + 0)
    00000E75 81               [ 4] 2954 	add	a, c
    00000E76 4F               [ 4] 2955 	ld	c, a
    00000E77 12               [ 7] 2956 	ld	(de), a
    00000E78 3E EE            [ 7] 2957 	ld	a, #0xee
    00000E7A 91               [ 4] 2958 	sub	a, c
    00000E7B 38 05            [12] 2959 	jr	C, 00173$
    00000E7D 79               [ 4] 2960 	ld	a, c
    00000E7E D6 04            [ 7] 2961 	sub	a, #0x04
    00000E80 30 07            [12] 2962 	jr	NC, 00176$
    00000E82                       2963 00173$:
    00000E82 01r00r00         [10] 2964 	ld	bc, #_g_dx+0
    00000E85 0A               [ 7] 2965 	ld	a, (bc)
    00000E86 ED 44            [ 8] 2966 	neg
    00000E88 02               [ 7] 2967 	ld	(bc), a
    00000E89                       2968 00176$:
                                   2969 ;E:\Dropbox\FAUSTO\SVILUPPI\MSX\CODE\C\MSXgl\projects\soccerlgMSX2/soccerlg_s5_b3.c:206: }
    00000E89 DD F9            [10] 2970 	ld	sp, ix
    00000E8B DD E1            [14] 2971 	pop	ix
    00000E8D E1               [10] 2972 	pop	hl
    00000E8E F1               [10] 2973 	pop	af
    00000E8F E9               [ 4] 2974 	jp	(hl)
                                   2975 ;E:\Dropbox\FAUSTO\SVILUPPI\MSX\CODE\C\MSXgl\projects\soccerlgMSX2/soccerlg_s5_b3.c:208: void UpdatePhase2(u8 r23_w, u8 r23_e, u16 scroll_e)
                                   2976 ;	---------------------------------
                                   2977 ; Function UpdatePhase2
                                   2978 ; ---------------------------------
    00000E90                       2979 _UpdatePhase2::
    00000E90 DD E5            [15] 2980 	push	ix
    00000E92 DD 21 00 00      [14] 2981 	ld	ix,#0
    00000E96 DD 39            [15] 2982 	add	ix,sp
    00000E98 F5               [11] 2983 	push	af
    00000E99 DD 77 FF         [19] 2984 	ld	-1 (ix), a
    00000E9C DD 75 FE         [19] 2985 	ld	-2 (ix), l
                                   2986 ;E:\Dropbox\FAUSTO\SVILUPPI\MSX\CODE\C\MSXgl\projects\soccerlgMSX2/soccerlg_s5_b3.c:210: UNROLL_PHASE(2, 0, 512u, 0u, r23_w, r23_e, scroll_e);
    00000E9F 01r0Er00         [10] 2987 	ld	bc, #_g_x2+14
    00000EA2 3Ar0Er00         [13] 2988 	ld	a, (#(_g_lx + 14) + 0)
    00000EA5 02               [ 7] 2989 	ld	(bc), a
    00000EA6 3Ar0Er00         [13] 2990 	ld	a, (#(_g_ly + 14) + 0)
    00000EA9 DD 86 FF         [19] 2991 	add	a, -1 (ix)
    00000EAC C6 08            [ 7] 2992 	add	a, #0x08
    00000EAE 4F               [ 4] 2993 	ld	c, a
    00000EAF 06 00            [ 7] 2994 	ld	b, #0x00
    00000EB1 CB C8            [ 8] 2995 	set	1, b
    00000EB3 ED 43r1Cr00      [20] 2996 	ld	((_g_y2 + 28)), bc
    00000EB7 3Ar1Cr00         [13] 2997 	ld	a, (#(_g_y0 + 28) + 0)
    00000EBA 5F               [ 4] 2998 	ld	e, a
    00000EBB CB 83            [ 8] 2999 	res	0, e
    00000EBD 7B               [ 4] 3000 	ld	a, e
    00000EBE DD 96 FE         [19] 3001 	sub	a, -2 (ix)
    00000EC1 C6 F8            [ 7] 3002 	add	a, #0xf8
    00000EC3 4F               [ 4] 3003 	ld	c, a
    00000EC4 06 00            [ 7] 3004 	ld	b, #0x00
    00000EC6 69               [ 4] 3005 	ld	l, c
                                   3006 ;	spillPairReg hl
                                   3007 ;	spillPairReg hl
    00000EC7 50               [ 4] 3008 	ld	d, b
    00000EC8 3E F0            [ 7] 3009 	ld	a, #0xf0
    00000ECA BD               [ 4] 3010 	cp	a, l
    00000ECB 3E 00            [ 7] 3011 	ld	a, #0x00
    00000ECD 9A               [ 4] 3012 	sbc	a, d
    00000ECE 30 03            [12] 3013 	jr	NC, 00102$
    00000ED0 01 00 00         [10] 3014 	ld	bc, #0x0000
    00000ED3                       3015 00102$:
    00000ED3 DD 7E 04         [19] 3016 	ld	a, 4 (ix)
    00000ED6 81               [ 4] 3017 	add	a, c
    00000ED7 4F               [ 4] 3018 	ld	c, a
    00000ED8 DD 7E 05         [19] 3019 	ld	a, 5 (ix)
    00000EDB 88               [ 4] 3020 	adc	a, b
    00000EDC 47               [ 4] 3021 	ld	b, a
    00000EDD 16 00            [ 7] 3022 	ld	d, #0x00
    00000EDF 21r0Er00         [10] 3023 	ld	hl, #_g_x0+14
    00000EE2 6E               [ 7] 3024 	ld	l, (hl)
                                   3025 ;	spillPairReg hl
    00000EE3 C5               [11] 3026 	push	bc
    00000EE4 7D               [ 4] 3027 	ld	a, l
    00000EE5 CDrF9r06         [17] 3028 	call	_EraseSprite16
    00000EE8 ED 4Br1Cr00      [20] 3029 	ld	bc, (#(_g_frame + 28) + 0)
    00000EEC ED 5Br1Cr00      [20] 3030 	ld	de, (#(_g_y2 + 28) + 0)
    00000EF0 21r0Er00         [10] 3031 	ld	hl, #_g_x2+14
    00000EF3 6E               [ 7] 3032 	ld	l, (hl)
                                   3033 ;	spillPairReg hl
    00000EF4 C5               [11] 3034 	push	bc
    00000EF5 7D               [ 4] 3035 	ld	a, l
    00000EF6 CDr00r00         [17] 3036 	call	_CallSpriteFrame_B3
    00000EF9 11r0Er00         [10] 3037 	ld	de, #_g_lx+14
    00000EFC 1A               [ 7] 3038 	ld	a, (de)
    00000EFD 4F               [ 4] 3039 	ld	c, a
    00000EFE 3Ar0Er00         [13] 3040 	ld	a, (#(_g_dx + 14) + 0)
    00000F01 81               [ 4] 3041 	add	a, c
    00000F02 4F               [ 4] 3042 	ld	c, a
    00000F03 12               [ 7] 3043 	ld	(de), a
    00000F04 3E EE            [ 7] 3044 	ld	a, #0xee
    00000F06 91               [ 4] 3045 	sub	a, c
    00000F07 38 05            [12] 3046 	jr	C, 00103$
    00000F09 79               [ 4] 3047 	ld	a, c
    00000F0A D6 04            [ 7] 3048 	sub	a, #0x04
    00000F0C 30 07            [12] 3049 	jr	NC, 00104$
    00000F0E                       3050 00103$:
    00000F0E 01r0Er00         [10] 3051 	ld	bc, #_g_dx+14
    00000F11 0A               [ 7] 3052 	ld	a, (bc)
    00000F12 ED 44            [ 8] 3053 	neg
    00000F14 02               [ 7] 3054 	ld	(bc), a
    00000F15                       3055 00104$:
    00000F15 01r0Dr00         [10] 3056 	ld	bc, #_g_x2+13
    00000F18 3Ar0Dr00         [13] 3057 	ld	a, (#(_g_lx + 13) + 0)
    00000F1B 02               [ 7] 3058 	ld	(bc), a
    00000F1C 3Ar0Dr00         [13] 3059 	ld	a, (#(_g_ly + 13) + 0)
    00000F1F DD 86 FF         [19] 3060 	add	a, -1 (ix)
    00000F22 C6 08            [ 7] 3061 	add	a, #0x08
    00000F24 4F               [ 4] 3062 	ld	c, a
    00000F25 06 00            [ 7] 3063 	ld	b, #0x00
    00000F27 CB C8            [ 8] 3064 	set	1, b
    00000F29 ED 43r1Ar00      [20] 3065 	ld	((_g_y2 + 26)), bc
    00000F2D 3Ar1Ar00         [13] 3066 	ld	a, (#(_g_y0 + 26) + 0)
    00000F30 5F               [ 4] 3067 	ld	e, a
    00000F31 CB 83            [ 8] 3068 	res	0, e
    00000F33 7B               [ 4] 3069 	ld	a, e
    00000F34 DD 96 FE         [19] 3070 	sub	a, -2 (ix)
    00000F37 C6 F8            [ 7] 3071 	add	a, #0xf8
    00000F39 4F               [ 4] 3072 	ld	c, a
    00000F3A 06 00            [ 7] 3073 	ld	b, #0x00
    00000F3C 69               [ 4] 3074 	ld	l, c
                                   3075 ;	spillPairReg hl
                                   3076 ;	spillPairReg hl
    00000F3D 50               [ 4] 3077 	ld	d, b
    00000F3E 3E F0            [ 7] 3078 	ld	a, #0xf0
    00000F40 BD               [ 4] 3079 	cp	a, l
    00000F41 3E 00            [ 7] 3080 	ld	a, #0x00
    00000F43 9A               [ 4] 3081 	sbc	a, d
    00000F44 30 03            [12] 3082 	jr	NC, 00107$
    00000F46 01 00 00         [10] 3083 	ld	bc, #0x0000
    00000F49                       3084 00107$:
    00000F49 DD 7E 04         [19] 3085 	ld	a, 4 (ix)
    00000F4C 81               [ 4] 3086 	add	a, c
    00000F4D 4F               [ 4] 3087 	ld	c, a
    00000F4E DD 7E 05         [19] 3088 	ld	a, 5 (ix)
    00000F51 88               [ 4] 3089 	adc	a, b
    00000F52 47               [ 4] 3090 	ld	b, a
    00000F53 16 00            [ 7] 3091 	ld	d, #0x00
    00000F55 21r0Dr00         [10] 3092 	ld	hl, #_g_x0+13
    00000F58 6E               [ 7] 3093 	ld	l, (hl)
                                   3094 ;	spillPairReg hl
    00000F59 C5               [11] 3095 	push	bc
    00000F5A 7D               [ 4] 3096 	ld	a, l
    00000F5B CDrF9r06         [17] 3097 	call	_EraseSprite16
    00000F5E ED 4Br1Ar00      [20] 3098 	ld	bc, (#(_g_frame + 26) + 0)
    00000F62 ED 5Br1Ar00      [20] 3099 	ld	de, (#(_g_y2 + 26) + 0)
    00000F66 21r0Dr00         [10] 3100 	ld	hl, #_g_x2+13
    00000F69 6E               [ 7] 3101 	ld	l, (hl)
                                   3102 ;	spillPairReg hl
    00000F6A C5               [11] 3103 	push	bc
    00000F6B 7D               [ 4] 3104 	ld	a, l
    00000F6C CDr00r00         [17] 3105 	call	_CallSpriteFrame_B3
    00000F6F 11r0Dr00         [10] 3106 	ld	de, #_g_lx+13
    00000F72 1A               [ 7] 3107 	ld	a, (de)
    00000F73 4F               [ 4] 3108 	ld	c, a
    00000F74 3Ar0Dr00         [13] 3109 	ld	a, (#(_g_dx + 13) + 0)
    00000F77 81               [ 4] 3110 	add	a, c
    00000F78 4F               [ 4] 3111 	ld	c, a
    00000F79 12               [ 7] 3112 	ld	(de), a
    00000F7A 3E EE            [ 7] 3113 	ld	a, #0xee
    00000F7C 91               [ 4] 3114 	sub	a, c
    00000F7D 38 05            [12] 3115 	jr	C, 00108$
    00000F7F 79               [ 4] 3116 	ld	a, c
    00000F80 D6 04            [ 7] 3117 	sub	a, #0x04
    00000F82 30 07            [12] 3118 	jr	NC, 00109$
    00000F84                       3119 00108$:
    00000F84 01r0Dr00         [10] 3120 	ld	bc, #_g_dx+13
    00000F87 0A               [ 7] 3121 	ld	a, (bc)
    00000F88 ED 44            [ 8] 3122 	neg
    00000F8A 02               [ 7] 3123 	ld	(bc), a
    00000F8B                       3124 00109$:
    00000F8B 01r0Cr00         [10] 3125 	ld	bc, #_g_x2+12
    00000F8E 3Ar0Cr00         [13] 3126 	ld	a, (#(_g_lx + 12) + 0)
    00000F91 02               [ 7] 3127 	ld	(bc), a
    00000F92 3Ar0Cr00         [13] 3128 	ld	a, (#(_g_ly + 12) + 0)
    00000F95 DD 86 FF         [19] 3129 	add	a, -1 (ix)
    00000F98 C6 08            [ 7] 3130 	add	a, #0x08
    00000F9A 4F               [ 4] 3131 	ld	c, a
    00000F9B 06 00            [ 7] 3132 	ld	b, #0x00
    00000F9D CB C8            [ 8] 3133 	set	1, b
    00000F9F ED 43r18r00      [20] 3134 	ld	((_g_y2 + 24)), bc
    00000FA3 3Ar18r00         [13] 3135 	ld	a, (#(_g_y0 + 24) + 0)
    00000FA6 5F               [ 4] 3136 	ld	e, a
    00000FA7 CB 83            [ 8] 3137 	res	0, e
    00000FA9 7B               [ 4] 3138 	ld	a, e
    00000FAA DD 96 FE         [19] 3139 	sub	a, -2 (ix)
    00000FAD C6 F8            [ 7] 3140 	add	a, #0xf8
    00000FAF 4F               [ 4] 3141 	ld	c, a
    00000FB0 06 00            [ 7] 3142 	ld	b, #0x00
    00000FB2 69               [ 4] 3143 	ld	l, c
                                   3144 ;	spillPairReg hl
                                   3145 ;	spillPairReg hl
    00000FB3 50               [ 4] 3146 	ld	d, b
    00000FB4 3E F0            [ 7] 3147 	ld	a, #0xf0
    00000FB6 BD               [ 4] 3148 	cp	a, l
    00000FB7 3E 00            [ 7] 3149 	ld	a, #0x00
    00000FB9 9A               [ 4] 3150 	sbc	a, d
    00000FBA 30 03            [12] 3151 	jr	NC, 00112$
    00000FBC 01 00 00         [10] 3152 	ld	bc, #0x0000
    00000FBF                       3153 00112$:
    00000FBF DD 7E 04         [19] 3154 	ld	a, 4 (ix)
    00000FC2 81               [ 4] 3155 	add	a, c
    00000FC3 4F               [ 4] 3156 	ld	c, a
    00000FC4 DD 7E 05         [19] 3157 	ld	a, 5 (ix)
    00000FC7 88               [ 4] 3158 	adc	a, b
    00000FC8 47               [ 4] 3159 	ld	b, a
    00000FC9 16 00            [ 7] 3160 	ld	d, #0x00
    00000FCB 21r0Cr00         [10] 3161 	ld	hl, #_g_x0+12
    00000FCE 6E               [ 7] 3162 	ld	l, (hl)
                                   3163 ;	spillPairReg hl
    00000FCF C5               [11] 3164 	push	bc
    00000FD0 7D               [ 4] 3165 	ld	a, l
    00000FD1 CDrF9r06         [17] 3166 	call	_EraseSprite16
    00000FD4 ED 4Br18r00      [20] 3167 	ld	bc, (#(_g_frame + 24) + 0)
    00000FD8 ED 5Br18r00      [20] 3168 	ld	de, (#(_g_y2 + 24) + 0)
    00000FDC 21r0Cr00         [10] 3169 	ld	hl, #_g_x2+12
    00000FDF 6E               [ 7] 3170 	ld	l, (hl)
                                   3171 ;	spillPairReg hl
    00000FE0 C5               [11] 3172 	push	bc
    00000FE1 7D               [ 4] 3173 	ld	a, l
    00000FE2 CDr00r00         [17] 3174 	call	_CallSpriteFrame_B3
    00000FE5 11r0Cr00         [10] 3175 	ld	de, #_g_lx+12
    00000FE8 1A               [ 7] 3176 	ld	a, (de)
    00000FE9 4F               [ 4] 3177 	ld	c, a
    00000FEA 3Ar0Cr00         [13] 3178 	ld	a, (#(_g_dx + 12) + 0)
    00000FED 81               [ 4] 3179 	add	a, c
    00000FEE 4F               [ 4] 3180 	ld	c, a
    00000FEF 12               [ 7] 3181 	ld	(de), a
    00000FF0 3E EE            [ 7] 3182 	ld	a, #0xee
    00000FF2 91               [ 4] 3183 	sub	a, c
    00000FF3 38 05            [12] 3184 	jr	C, 00113$
    00000FF5 79               [ 4] 3185 	ld	a, c
    00000FF6 D6 04            [ 7] 3186 	sub	a, #0x04
    00000FF8 30 07            [12] 3187 	jr	NC, 00114$
    00000FFA                       3188 00113$:
    00000FFA 01r0Cr00         [10] 3189 	ld	bc, #_g_dx+12
    00000FFD 0A               [ 7] 3190 	ld	a, (bc)
    00000FFE ED 44            [ 8] 3191 	neg
    00001000 02               [ 7] 3192 	ld	(bc), a
    00001001                       3193 00114$:
    00001001 01r0Br00         [10] 3194 	ld	bc, #_g_x2+11
    00001004 3Ar0Br00         [13] 3195 	ld	a, (#(_g_lx + 11) + 0)
    00001007 02               [ 7] 3196 	ld	(bc), a
    00001008 3Ar0Br00         [13] 3197 	ld	a, (#(_g_ly + 11) + 0)
    0000100B DD 86 FF         [19] 3198 	add	a, -1 (ix)
    0000100E C6 08            [ 7] 3199 	add	a, #0x08
    00001010 4F               [ 4] 3200 	ld	c, a
    00001011 06 00            [ 7] 3201 	ld	b, #0x00
    00001013 CB C8            [ 8] 3202 	set	1, b
    00001015 ED 43r16r00      [20] 3203 	ld	((_g_y2 + 22)), bc
    00001019 3Ar16r00         [13] 3204 	ld	a, (#(_g_y0 + 22) + 0)
    0000101C 5F               [ 4] 3205 	ld	e, a
    0000101D CB 83            [ 8] 3206 	res	0, e
    0000101F 7B               [ 4] 3207 	ld	a, e
    00001020 DD 96 FE         [19] 3208 	sub	a, -2 (ix)
    00001023 C6 F8            [ 7] 3209 	add	a, #0xf8
    00001025 4F               [ 4] 3210 	ld	c, a
    00001026 06 00            [ 7] 3211 	ld	b, #0x00
    00001028 69               [ 4] 3212 	ld	l, c
                                   3213 ;	spillPairReg hl
                                   3214 ;	spillPairReg hl
    00001029 50               [ 4] 3215 	ld	d, b
    0000102A 3E F0            [ 7] 3216 	ld	a, #0xf0
    0000102C BD               [ 4] 3217 	cp	a, l
    0000102D 3E 00            [ 7] 3218 	ld	a, #0x00
    0000102F 9A               [ 4] 3219 	sbc	a, d
    00001030 30 03            [12] 3220 	jr	NC, 00117$
    00001032 01 00 00         [10] 3221 	ld	bc, #0x0000
    00001035                       3222 00117$:
    00001035 DD 7E 04         [19] 3223 	ld	a, 4 (ix)
    00001038 81               [ 4] 3224 	add	a, c
    00001039 4F               [ 4] 3225 	ld	c, a
    0000103A DD 7E 05         [19] 3226 	ld	a, 5 (ix)
    0000103D 88               [ 4] 3227 	adc	a, b
    0000103E 47               [ 4] 3228 	ld	b, a
    0000103F 16 00            [ 7] 3229 	ld	d, #0x00
    00001041 21r0Br00         [10] 3230 	ld	hl, #_g_x0+11
    00001044 6E               [ 7] 3231 	ld	l, (hl)
                                   3232 ;	spillPairReg hl
    00001045 C5               [11] 3233 	push	bc
    00001046 7D               [ 4] 3234 	ld	a, l
    00001047 CDrF9r06         [17] 3235 	call	_EraseSprite16
    0000104A ED 4Br16r00      [20] 3236 	ld	bc, (#(_g_frame + 22) + 0)
    0000104E ED 5Br16r00      [20] 3237 	ld	de, (#(_g_y2 + 22) + 0)
    00001052 21r0Br00         [10] 3238 	ld	hl, #_g_x2+11
    00001055 6E               [ 7] 3239 	ld	l, (hl)
                                   3240 ;	spillPairReg hl
    00001056 C5               [11] 3241 	push	bc
    00001057 7D               [ 4] 3242 	ld	a, l
    00001058 CDr00r00         [17] 3243 	call	_CallSpriteFrame_B3
    0000105B 11r0Br00         [10] 3244 	ld	de, #_g_lx+11
    0000105E 1A               [ 7] 3245 	ld	a, (de)
    0000105F 4F               [ 4] 3246 	ld	c, a
    00001060 3Ar0Br00         [13] 3247 	ld	a, (#(_g_dx + 11) + 0)
    00001063 81               [ 4] 3248 	add	a, c
    00001064 4F               [ 4] 3249 	ld	c, a
    00001065 12               [ 7] 3250 	ld	(de), a
    00001066 3E EE            [ 7] 3251 	ld	a, #0xee
    00001068 91               [ 4] 3252 	sub	a, c
    00001069 38 05            [12] 3253 	jr	C, 00118$
    0000106B 79               [ 4] 3254 	ld	a, c
    0000106C D6 04            [ 7] 3255 	sub	a, #0x04
    0000106E 30 07            [12] 3256 	jr	NC, 00119$
    00001070                       3257 00118$:
    00001070 01r0Br00         [10] 3258 	ld	bc, #_g_dx+11
    00001073 0A               [ 7] 3259 	ld	a, (bc)
    00001074 ED 44            [ 8] 3260 	neg
    00001076 02               [ 7] 3261 	ld	(bc), a
    00001077                       3262 00119$:
    00001077 01r0Ar00         [10] 3263 	ld	bc, #_g_x2+10
    0000107A 3Ar0Ar00         [13] 3264 	ld	a, (#(_g_lx + 10) + 0)
    0000107D 02               [ 7] 3265 	ld	(bc), a
    0000107E 3Ar0Ar00         [13] 3266 	ld	a, (#(_g_ly + 10) + 0)
    00001081 DD 86 FF         [19] 3267 	add	a, -1 (ix)
    00001084 C6 08            [ 7] 3268 	add	a, #0x08
    00001086 4F               [ 4] 3269 	ld	c, a
    00001087 06 00            [ 7] 3270 	ld	b, #0x00
    00001089 CB C8            [ 8] 3271 	set	1, b
    0000108B ED 43r14r00      [20] 3272 	ld	((_g_y2 + 20)), bc
    0000108F 3Ar14r00         [13] 3273 	ld	a, (#(_g_y0 + 20) + 0)
    00001092 5F               [ 4] 3274 	ld	e, a
    00001093 CB 83            [ 8] 3275 	res	0, e
    00001095 7B               [ 4] 3276 	ld	a, e
    00001096 DD 96 FE         [19] 3277 	sub	a, -2 (ix)
    00001099 C6 F8            [ 7] 3278 	add	a, #0xf8
    0000109B 4F               [ 4] 3279 	ld	c, a
    0000109C 06 00            [ 7] 3280 	ld	b, #0x00
    0000109E 69               [ 4] 3281 	ld	l, c
                                   3282 ;	spillPairReg hl
                                   3283 ;	spillPairReg hl
    0000109F 50               [ 4] 3284 	ld	d, b
    000010A0 3E F0            [ 7] 3285 	ld	a, #0xf0
    000010A2 BD               [ 4] 3286 	cp	a, l
    000010A3 3E 00            [ 7] 3287 	ld	a, #0x00
    000010A5 9A               [ 4] 3288 	sbc	a, d
    000010A6 30 03            [12] 3289 	jr	NC, 00122$
    000010A8 01 00 00         [10] 3290 	ld	bc, #0x0000
    000010AB                       3291 00122$:
    000010AB DD 7E 04         [19] 3292 	ld	a, 4 (ix)
    000010AE 81               [ 4] 3293 	add	a, c
    000010AF 4F               [ 4] 3294 	ld	c, a
    000010B0 DD 7E 05         [19] 3295 	ld	a, 5 (ix)
    000010B3 88               [ 4] 3296 	adc	a, b
    000010B4 47               [ 4] 3297 	ld	b, a
    000010B5 16 00            [ 7] 3298 	ld	d, #0x00
    000010B7 21r0Ar00         [10] 3299 	ld	hl, #_g_x0+10
    000010BA 6E               [ 7] 3300 	ld	l, (hl)
                                   3301 ;	spillPairReg hl
    000010BB C5               [11] 3302 	push	bc
    000010BC 7D               [ 4] 3303 	ld	a, l
    000010BD CDrF9r06         [17] 3304 	call	_EraseSprite16
    000010C0 ED 4Br14r00      [20] 3305 	ld	bc, (#(_g_frame + 20) + 0)
    000010C4 ED 5Br14r00      [20] 3306 	ld	de, (#(_g_y2 + 20) + 0)
    000010C8 21r0Ar00         [10] 3307 	ld	hl, #_g_x2+10
    000010CB 6E               [ 7] 3308 	ld	l, (hl)
                                   3309 ;	spillPairReg hl
    000010CC C5               [11] 3310 	push	bc
    000010CD 7D               [ 4] 3311 	ld	a, l
    000010CE CDr00r00         [17] 3312 	call	_CallSpriteFrame_B3
    000010D1 11r0Ar00         [10] 3313 	ld	de, #_g_lx+10
    000010D4 1A               [ 7] 3314 	ld	a, (de)
    000010D5 4F               [ 4] 3315 	ld	c, a
    000010D6 3Ar0Ar00         [13] 3316 	ld	a, (#(_g_dx + 10) + 0)
    000010D9 81               [ 4] 3317 	add	a, c
    000010DA 4F               [ 4] 3318 	ld	c, a
    000010DB 12               [ 7] 3319 	ld	(de), a
    000010DC 3E EE            [ 7] 3320 	ld	a, #0xee
    000010DE 91               [ 4] 3321 	sub	a, c
    000010DF 38 05            [12] 3322 	jr	C, 00123$
    000010E1 79               [ 4] 3323 	ld	a, c
    000010E2 D6 04            [ 7] 3324 	sub	a, #0x04
    000010E4 30 07            [12] 3325 	jr	NC, 00124$
    000010E6                       3326 00123$:
    000010E6 01r0Ar00         [10] 3327 	ld	bc, #_g_dx+10
    000010E9 0A               [ 7] 3328 	ld	a, (bc)
    000010EA ED 44            [ 8] 3329 	neg
    000010EC 02               [ 7] 3330 	ld	(bc), a
    000010ED                       3331 00124$:
    000010ED 01r09r00         [10] 3332 	ld	bc, #_g_x2+9
    000010F0 3Ar09r00         [13] 3333 	ld	a, (#(_g_lx + 9) + 0)
    000010F3 02               [ 7] 3334 	ld	(bc), a
    000010F4 3Ar09r00         [13] 3335 	ld	a, (#(_g_ly + 9) + 0)
    000010F7 DD 86 FF         [19] 3336 	add	a, -1 (ix)
    000010FA C6 08            [ 7] 3337 	add	a, #0x08
    000010FC 4F               [ 4] 3338 	ld	c, a
    000010FD 06 00            [ 7] 3339 	ld	b, #0x00
    000010FF CB C8            [ 8] 3340 	set	1, b
    00001101 ED 43r12r00      [20] 3341 	ld	((_g_y2 + 18)), bc
    00001105 3Ar12r00         [13] 3342 	ld	a, (#(_g_y0 + 18) + 0)
    00001108 5F               [ 4] 3343 	ld	e, a
    00001109 CB 83            [ 8] 3344 	res	0, e
    0000110B 7B               [ 4] 3345 	ld	a, e
    0000110C DD 96 FE         [19] 3346 	sub	a, -2 (ix)
    0000110F C6 F8            [ 7] 3347 	add	a, #0xf8
    00001111 4F               [ 4] 3348 	ld	c, a
    00001112 06 00            [ 7] 3349 	ld	b, #0x00
    00001114 69               [ 4] 3350 	ld	l, c
                                   3351 ;	spillPairReg hl
                                   3352 ;	spillPairReg hl
    00001115 50               [ 4] 3353 	ld	d, b
    00001116 3E F0            [ 7] 3354 	ld	a, #0xf0
    00001118 BD               [ 4] 3355 	cp	a, l
    00001119 3E 00            [ 7] 3356 	ld	a, #0x00
    0000111B 9A               [ 4] 3357 	sbc	a, d
    0000111C 30 03            [12] 3358 	jr	NC, 00127$
    0000111E 01 00 00         [10] 3359 	ld	bc, #0x0000
    00001121                       3360 00127$:
    00001121 DD 7E 04         [19] 3361 	ld	a, 4 (ix)
    00001124 81               [ 4] 3362 	add	a, c
    00001125 4F               [ 4] 3363 	ld	c, a
    00001126 DD 7E 05         [19] 3364 	ld	a, 5 (ix)
    00001129 88               [ 4] 3365 	adc	a, b
    0000112A 47               [ 4] 3366 	ld	b, a
    0000112B 16 00            [ 7] 3367 	ld	d, #0x00
    0000112D 21r09r00         [10] 3368 	ld	hl, #_g_x0+9
    00001130 6E               [ 7] 3369 	ld	l, (hl)
                                   3370 ;	spillPairReg hl
    00001131 C5               [11] 3371 	push	bc
    00001132 7D               [ 4] 3372 	ld	a, l
    00001133 CDrF9r06         [17] 3373 	call	_EraseSprite16
    00001136 ED 4Br12r00      [20] 3374 	ld	bc, (#(_g_frame + 18) + 0)
    0000113A ED 5Br12r00      [20] 3375 	ld	de, (#(_g_y2 + 18) + 0)
    0000113E 21r09r00         [10] 3376 	ld	hl, #_g_x2+9
    00001141 6E               [ 7] 3377 	ld	l, (hl)
                                   3378 ;	spillPairReg hl
    00001142 C5               [11] 3379 	push	bc
    00001143 7D               [ 4] 3380 	ld	a, l
    00001144 CDr00r00         [17] 3381 	call	_CallSpriteFrame_B3
    00001147 11r09r00         [10] 3382 	ld	de, #_g_lx+9
    0000114A 1A               [ 7] 3383 	ld	a, (de)
    0000114B 4F               [ 4] 3384 	ld	c, a
    0000114C 3Ar09r00         [13] 3385 	ld	a, (#(_g_dx + 9) + 0)
    0000114F 81               [ 4] 3386 	add	a, c
    00001150 4F               [ 4] 3387 	ld	c, a
    00001151 12               [ 7] 3388 	ld	(de), a
    00001152 3E EE            [ 7] 3389 	ld	a, #0xee
    00001154 91               [ 4] 3390 	sub	a, c
    00001155 38 05            [12] 3391 	jr	C, 00128$
    00001157 79               [ 4] 3392 	ld	a, c
    00001158 D6 04            [ 7] 3393 	sub	a, #0x04
    0000115A 30 07            [12] 3394 	jr	NC, 00129$
    0000115C                       3395 00128$:
    0000115C 01r09r00         [10] 3396 	ld	bc, #_g_dx+9
    0000115F 0A               [ 7] 3397 	ld	a, (bc)
    00001160 ED 44            [ 8] 3398 	neg
    00001162 02               [ 7] 3399 	ld	(bc), a
    00001163                       3400 00129$:
    00001163 01r08r00         [10] 3401 	ld	bc, #_g_x2+8
    00001166 3Ar08r00         [13] 3402 	ld	a, (#(_g_lx + 8) + 0)
    00001169 02               [ 7] 3403 	ld	(bc), a
    0000116A 3Ar08r00         [13] 3404 	ld	a, (#(_g_ly + 8) + 0)
    0000116D DD 86 FF         [19] 3405 	add	a, -1 (ix)
    00001170 C6 08            [ 7] 3406 	add	a, #0x08
    00001172 4F               [ 4] 3407 	ld	c, a
    00001173 06 00            [ 7] 3408 	ld	b, #0x00
    00001175 CB C8            [ 8] 3409 	set	1, b
    00001177 ED 43r10r00      [20] 3410 	ld	((_g_y2 + 16)), bc
    0000117B 3Ar10r00         [13] 3411 	ld	a, (#(_g_y0 + 16) + 0)
    0000117E 5F               [ 4] 3412 	ld	e, a
    0000117F CB 83            [ 8] 3413 	res	0, e
    00001181 7B               [ 4] 3414 	ld	a, e
    00001182 DD 96 FE         [19] 3415 	sub	a, -2 (ix)
    00001185 C6 F8            [ 7] 3416 	add	a, #0xf8
    00001187 4F               [ 4] 3417 	ld	c, a
    00001188 06 00            [ 7] 3418 	ld	b, #0x00
    0000118A 69               [ 4] 3419 	ld	l, c
                                   3420 ;	spillPairReg hl
                                   3421 ;	spillPairReg hl
    0000118B 50               [ 4] 3422 	ld	d, b
    0000118C 3E F0            [ 7] 3423 	ld	a, #0xf0
    0000118E BD               [ 4] 3424 	cp	a, l
    0000118F 3E 00            [ 7] 3425 	ld	a, #0x00
    00001191 9A               [ 4] 3426 	sbc	a, d
    00001192 30 03            [12] 3427 	jr	NC, 00132$
    00001194 01 00 00         [10] 3428 	ld	bc, #0x0000
    00001197                       3429 00132$:
    00001197 DD 7E 04         [19] 3430 	ld	a, 4 (ix)
    0000119A 81               [ 4] 3431 	add	a, c
    0000119B 4F               [ 4] 3432 	ld	c, a
    0000119C DD 7E 05         [19] 3433 	ld	a, 5 (ix)
    0000119F 88               [ 4] 3434 	adc	a, b
    000011A0 47               [ 4] 3435 	ld	b, a
    000011A1 16 00            [ 7] 3436 	ld	d, #0x00
    000011A3 21r08r00         [10] 3437 	ld	hl, #_g_x0+8
    000011A6 6E               [ 7] 3438 	ld	l, (hl)
                                   3439 ;	spillPairReg hl
    000011A7 C5               [11] 3440 	push	bc
    000011A8 7D               [ 4] 3441 	ld	a, l
    000011A9 CDrF9r06         [17] 3442 	call	_EraseSprite16
    000011AC ED 4Br10r00      [20] 3443 	ld	bc, (#(_g_frame + 16) + 0)
    000011B0 ED 5Br10r00      [20] 3444 	ld	de, (#(_g_y2 + 16) + 0)
    000011B4 21r08r00         [10] 3445 	ld	hl, #_g_x2+8
    000011B7 6E               [ 7] 3446 	ld	l, (hl)
                                   3447 ;	spillPairReg hl
    000011B8 C5               [11] 3448 	push	bc
    000011B9 7D               [ 4] 3449 	ld	a, l
    000011BA CDr00r00         [17] 3450 	call	_CallSpriteFrame_B3
    000011BD 11r08r00         [10] 3451 	ld	de, #_g_lx+8
    000011C0 1A               [ 7] 3452 	ld	a, (de)
    000011C1 4F               [ 4] 3453 	ld	c, a
    000011C2 3Ar08r00         [13] 3454 	ld	a, (#(_g_dx + 8) + 0)
    000011C5 81               [ 4] 3455 	add	a, c
    000011C6 4F               [ 4] 3456 	ld	c, a
    000011C7 12               [ 7] 3457 	ld	(de), a
    000011C8 3E EE            [ 7] 3458 	ld	a, #0xee
    000011CA 91               [ 4] 3459 	sub	a, c
    000011CB 38 05            [12] 3460 	jr	C, 00133$
    000011CD 79               [ 4] 3461 	ld	a, c
    000011CE D6 04            [ 7] 3462 	sub	a, #0x04
    000011D0 30 07            [12] 3463 	jr	NC, 00134$
    000011D2                       3464 00133$:
    000011D2 01r08r00         [10] 3465 	ld	bc, #_g_dx+8
    000011D5 0A               [ 7] 3466 	ld	a, (bc)
    000011D6 ED 44            [ 8] 3467 	neg
    000011D8 02               [ 7] 3468 	ld	(bc), a
    000011D9                       3469 00134$:
    000011D9 01r07r00         [10] 3470 	ld	bc, #_g_x2+7
    000011DC 3Ar07r00         [13] 3471 	ld	a, (#(_g_lx + 7) + 0)
    000011DF 02               [ 7] 3472 	ld	(bc), a
    000011E0 3Ar07r00         [13] 3473 	ld	a, (#(_g_ly + 7) + 0)
    000011E3 DD 86 FF         [19] 3474 	add	a, -1 (ix)
    000011E6 C6 08            [ 7] 3475 	add	a, #0x08
    000011E8 4F               [ 4] 3476 	ld	c, a
    000011E9 06 00            [ 7] 3477 	ld	b, #0x00
    000011EB CB C8            [ 8] 3478 	set	1, b
    000011ED ED 43r0Er00      [20] 3479 	ld	((_g_y2 + 14)), bc
    000011F1 3Ar0Er00         [13] 3480 	ld	a, (#(_g_y0 + 14) + 0)
    000011F4 5F               [ 4] 3481 	ld	e, a
    000011F5 CB 83            [ 8] 3482 	res	0, e
    000011F7 7B               [ 4] 3483 	ld	a, e
    000011F8 DD 96 FE         [19] 3484 	sub	a, -2 (ix)
    000011FB C6 F8            [ 7] 3485 	add	a, #0xf8
    000011FD 4F               [ 4] 3486 	ld	c, a
    000011FE 06 00            [ 7] 3487 	ld	b, #0x00
    00001200 69               [ 4] 3488 	ld	l, c
                                   3489 ;	spillPairReg hl
                                   3490 ;	spillPairReg hl
    00001201 50               [ 4] 3491 	ld	d, b
    00001202 3E F0            [ 7] 3492 	ld	a, #0xf0
    00001204 BD               [ 4] 3493 	cp	a, l
    00001205 3E 00            [ 7] 3494 	ld	a, #0x00
    00001207 9A               [ 4] 3495 	sbc	a, d
    00001208 30 03            [12] 3496 	jr	NC, 00137$
    0000120A 01 00 00         [10] 3497 	ld	bc, #0x0000
    0000120D                       3498 00137$:
    0000120D DD 7E 04         [19] 3499 	ld	a, 4 (ix)
    00001210 81               [ 4] 3500 	add	a, c
    00001211 4F               [ 4] 3501 	ld	c, a
    00001212 DD 7E 05         [19] 3502 	ld	a, 5 (ix)
    00001215 88               [ 4] 3503 	adc	a, b
    00001216 47               [ 4] 3504 	ld	b, a
    00001217 16 00            [ 7] 3505 	ld	d, #0x00
    00001219 21r07r00         [10] 3506 	ld	hl, #_g_x0+7
    0000121C 6E               [ 7] 3507 	ld	l, (hl)
                                   3508 ;	spillPairReg hl
    0000121D C5               [11] 3509 	push	bc
    0000121E 7D               [ 4] 3510 	ld	a, l
    0000121F CDrF9r06         [17] 3511 	call	_EraseSprite16
    00001222 ED 4Br0Er00      [20] 3512 	ld	bc, (#(_g_frame + 14) + 0)
    00001226 ED 5Br0Er00      [20] 3513 	ld	de, (#(_g_y2 + 14) + 0)
    0000122A 21r07r00         [10] 3514 	ld	hl, #_g_x2+7
    0000122D 6E               [ 7] 3515 	ld	l, (hl)
                                   3516 ;	spillPairReg hl
    0000122E C5               [11] 3517 	push	bc
    0000122F 7D               [ 4] 3518 	ld	a, l
    00001230 CDr00r00         [17] 3519 	call	_CallSpriteFrame_B3
    00001233 11r07r00         [10] 3520 	ld	de, #_g_lx+7
    00001236 1A               [ 7] 3521 	ld	a, (de)
    00001237 4F               [ 4] 3522 	ld	c, a
    00001238 3Ar07r00         [13] 3523 	ld	a, (#(_g_dx + 7) + 0)
    0000123B 81               [ 4] 3524 	add	a, c
    0000123C 4F               [ 4] 3525 	ld	c, a
    0000123D 12               [ 7] 3526 	ld	(de), a
    0000123E 3E EE            [ 7] 3527 	ld	a, #0xee
    00001240 91               [ 4] 3528 	sub	a, c
    00001241 38 05            [12] 3529 	jr	C, 00138$
    00001243 79               [ 4] 3530 	ld	a, c
    00001244 D6 04            [ 7] 3531 	sub	a, #0x04
    00001246 30 07            [12] 3532 	jr	NC, 00139$
    00001248                       3533 00138$:
    00001248 01r07r00         [10] 3534 	ld	bc, #_g_dx+7
    0000124B 0A               [ 7] 3535 	ld	a, (bc)
    0000124C ED 44            [ 8] 3536 	neg
    0000124E 02               [ 7] 3537 	ld	(bc), a
    0000124F                       3538 00139$:
    0000124F 01r06r00         [10] 3539 	ld	bc, #_g_x2+6
    00001252 3Ar06r00         [13] 3540 	ld	a, (#(_g_lx + 6) + 0)
    00001255 02               [ 7] 3541 	ld	(bc), a
    00001256 3Ar06r00         [13] 3542 	ld	a, (#(_g_ly + 6) + 0)
    00001259 DD 86 FF         [19] 3543 	add	a, -1 (ix)
    0000125C C6 08            [ 7] 3544 	add	a, #0x08
    0000125E 4F               [ 4] 3545 	ld	c, a
    0000125F 06 00            [ 7] 3546 	ld	b, #0x00
    00001261 CB C8            [ 8] 3547 	set	1, b
    00001263 ED 43r0Cr00      [20] 3548 	ld	((_g_y2 + 12)), bc
    00001267 3Ar0Cr00         [13] 3549 	ld	a, (#(_g_y0 + 12) + 0)
    0000126A 5F               [ 4] 3550 	ld	e, a
    0000126B CB 83            [ 8] 3551 	res	0, e
    0000126D 7B               [ 4] 3552 	ld	a, e
    0000126E DD 96 FE         [19] 3553 	sub	a, -2 (ix)
    00001271 C6 F8            [ 7] 3554 	add	a, #0xf8
    00001273 4F               [ 4] 3555 	ld	c, a
    00001274 06 00            [ 7] 3556 	ld	b, #0x00
    00001276 69               [ 4] 3557 	ld	l, c
                                   3558 ;	spillPairReg hl
                                   3559 ;	spillPairReg hl
    00001277 50               [ 4] 3560 	ld	d, b
    00001278 3E F0            [ 7] 3561 	ld	a, #0xf0
    0000127A BD               [ 4] 3562 	cp	a, l
    0000127B 3E 00            [ 7] 3563 	ld	a, #0x00
    0000127D 9A               [ 4] 3564 	sbc	a, d
    0000127E 30 03            [12] 3565 	jr	NC, 00142$
    00001280 01 00 00         [10] 3566 	ld	bc, #0x0000
    00001283                       3567 00142$:
    00001283 DD 7E 04         [19] 3568 	ld	a, 4 (ix)
    00001286 81               [ 4] 3569 	add	a, c
    00001287 4F               [ 4] 3570 	ld	c, a
    00001288 DD 7E 05         [19] 3571 	ld	a, 5 (ix)
    0000128B 88               [ 4] 3572 	adc	a, b
    0000128C 47               [ 4] 3573 	ld	b, a
    0000128D 16 00            [ 7] 3574 	ld	d, #0x00
    0000128F 21r06r00         [10] 3575 	ld	hl, #_g_x0+6
    00001292 6E               [ 7] 3576 	ld	l, (hl)
                                   3577 ;	spillPairReg hl
    00001293 C5               [11] 3578 	push	bc
    00001294 7D               [ 4] 3579 	ld	a, l
    00001295 CDrF9r06         [17] 3580 	call	_EraseSprite16
    00001298 ED 4Br0Cr00      [20] 3581 	ld	bc, (#(_g_frame + 12) + 0)
    0000129C ED 5Br0Cr00      [20] 3582 	ld	de, (#(_g_y2 + 12) + 0)
    000012A0 21r06r00         [10] 3583 	ld	hl, #_g_x2+6
    000012A3 6E               [ 7] 3584 	ld	l, (hl)
                                   3585 ;	spillPairReg hl
    000012A4 C5               [11] 3586 	push	bc
    000012A5 7D               [ 4] 3587 	ld	a, l
    000012A6 CDr00r00         [17] 3588 	call	_CallSpriteFrame_B3
    000012A9 11r06r00         [10] 3589 	ld	de, #_g_lx+6
    000012AC 1A               [ 7] 3590 	ld	a, (de)
    000012AD 4F               [ 4] 3591 	ld	c, a
    000012AE 3Ar06r00         [13] 3592 	ld	a, (#(_g_dx + 6) + 0)
    000012B1 81               [ 4] 3593 	add	a, c
    000012B2 4F               [ 4] 3594 	ld	c, a
    000012B3 12               [ 7] 3595 	ld	(de), a
    000012B4 3E EE            [ 7] 3596 	ld	a, #0xee
    000012B6 91               [ 4] 3597 	sub	a, c
    000012B7 38 05            [12] 3598 	jr	C, 00143$
    000012B9 79               [ 4] 3599 	ld	a, c
    000012BA D6 04            [ 7] 3600 	sub	a, #0x04
    000012BC 30 07            [12] 3601 	jr	NC, 00144$
    000012BE                       3602 00143$:
    000012BE 01r06r00         [10] 3603 	ld	bc, #_g_dx+6
    000012C1 0A               [ 7] 3604 	ld	a, (bc)
    000012C2 ED 44            [ 8] 3605 	neg
    000012C4 02               [ 7] 3606 	ld	(bc), a
    000012C5                       3607 00144$:
    000012C5 01r05r00         [10] 3608 	ld	bc, #_g_x2+5
    000012C8 3Ar05r00         [13] 3609 	ld	a, (#(_g_lx + 5) + 0)
    000012CB 02               [ 7] 3610 	ld	(bc), a
    000012CC 3Ar05r00         [13] 3611 	ld	a, (#(_g_ly + 5) + 0)
    000012CF DD 86 FF         [19] 3612 	add	a, -1 (ix)
    000012D2 C6 08            [ 7] 3613 	add	a, #0x08
    000012D4 4F               [ 4] 3614 	ld	c, a
    000012D5 06 00            [ 7] 3615 	ld	b, #0x00
    000012D7 CB C8            [ 8] 3616 	set	1, b
    000012D9 ED 43r0Ar00      [20] 3617 	ld	((_g_y2 + 10)), bc
    000012DD 3Ar0Ar00         [13] 3618 	ld	a, (#(_g_y0 + 10) + 0)
    000012E0 5F               [ 4] 3619 	ld	e, a
    000012E1 CB 83            [ 8] 3620 	res	0, e
    000012E3 7B               [ 4] 3621 	ld	a, e
    000012E4 DD 96 FE         [19] 3622 	sub	a, -2 (ix)
    000012E7 C6 F8            [ 7] 3623 	add	a, #0xf8
    000012E9 4F               [ 4] 3624 	ld	c, a
    000012EA 06 00            [ 7] 3625 	ld	b, #0x00
    000012EC 69               [ 4] 3626 	ld	l, c
                                   3627 ;	spillPairReg hl
                                   3628 ;	spillPairReg hl
    000012ED 50               [ 4] 3629 	ld	d, b
    000012EE 3E F0            [ 7] 3630 	ld	a, #0xf0
    000012F0 BD               [ 4] 3631 	cp	a, l
    000012F1 3E 00            [ 7] 3632 	ld	a, #0x00
    000012F3 9A               [ 4] 3633 	sbc	a, d
    000012F4 30 03            [12] 3634 	jr	NC, 00147$
    000012F6 01 00 00         [10] 3635 	ld	bc, #0x0000
    000012F9                       3636 00147$:
    000012F9 DD 7E 04         [19] 3637 	ld	a, 4 (ix)
    000012FC 81               [ 4] 3638 	add	a, c
    000012FD 4F               [ 4] 3639 	ld	c, a
    000012FE DD 7E 05         [19] 3640 	ld	a, 5 (ix)
    00001301 88               [ 4] 3641 	adc	a, b
    00001302 47               [ 4] 3642 	ld	b, a
    00001303 16 00            [ 7] 3643 	ld	d, #0x00
    00001305 21r05r00         [10] 3644 	ld	hl, #_g_x0+5
    00001308 6E               [ 7] 3645 	ld	l, (hl)
                                   3646 ;	spillPairReg hl
    00001309 C5               [11] 3647 	push	bc
    0000130A 7D               [ 4] 3648 	ld	a, l
    0000130B CDrF9r06         [17] 3649 	call	_EraseSprite16
    0000130E ED 4Br0Ar00      [20] 3650 	ld	bc, (#(_g_frame + 10) + 0)
    00001312 ED 5Br0Ar00      [20] 3651 	ld	de, (#(_g_y2 + 10) + 0)
    00001316 21r05r00         [10] 3652 	ld	hl, #_g_x2+5
    00001319 6E               [ 7] 3653 	ld	l, (hl)
                                   3654 ;	spillPairReg hl
    0000131A C5               [11] 3655 	push	bc
    0000131B 7D               [ 4] 3656 	ld	a, l
    0000131C CDr00r00         [17] 3657 	call	_CallSpriteFrame_B3
    0000131F 11r05r00         [10] 3658 	ld	de, #_g_lx+5
    00001322 1A               [ 7] 3659 	ld	a, (de)
    00001323 4F               [ 4] 3660 	ld	c, a
    00001324 3Ar05r00         [13] 3661 	ld	a, (#(_g_dx + 5) + 0)
    00001327 81               [ 4] 3662 	add	a, c
    00001328 4F               [ 4] 3663 	ld	c, a
    00001329 12               [ 7] 3664 	ld	(de), a
    0000132A 3E EE            [ 7] 3665 	ld	a, #0xee
    0000132C 91               [ 4] 3666 	sub	a, c
    0000132D 38 05            [12] 3667 	jr	C, 00148$
    0000132F 79               [ 4] 3668 	ld	a, c
    00001330 D6 04            [ 7] 3669 	sub	a, #0x04
    00001332 30 07            [12] 3670 	jr	NC, 00149$
    00001334                       3671 00148$:
    00001334 01r05r00         [10] 3672 	ld	bc, #_g_dx+5
    00001337 0A               [ 7] 3673 	ld	a, (bc)
    00001338 ED 44            [ 8] 3674 	neg
    0000133A 02               [ 7] 3675 	ld	(bc), a
    0000133B                       3676 00149$:
    0000133B 01r04r00         [10] 3677 	ld	bc, #_g_x2+4
    0000133E 3Ar04r00         [13] 3678 	ld	a, (#(_g_lx + 4) + 0)
    00001341 02               [ 7] 3679 	ld	(bc), a
    00001342 3Ar04r00         [13] 3680 	ld	a, (#(_g_ly + 4) + 0)
    00001345 DD 86 FF         [19] 3681 	add	a, -1 (ix)
    00001348 C6 08            [ 7] 3682 	add	a, #0x08
    0000134A 4F               [ 4] 3683 	ld	c, a
    0000134B 06 00            [ 7] 3684 	ld	b, #0x00
    0000134D CB C8            [ 8] 3685 	set	1, b
    0000134F ED 43r08r00      [20] 3686 	ld	((_g_y2 + 8)), bc
    00001353 3Ar08r00         [13] 3687 	ld	a, (#(_g_y0 + 8) + 0)
    00001356 5F               [ 4] 3688 	ld	e, a
    00001357 CB 83            [ 8] 3689 	res	0, e
    00001359 7B               [ 4] 3690 	ld	a, e
    0000135A DD 96 FE         [19] 3691 	sub	a, -2 (ix)
    0000135D C6 F8            [ 7] 3692 	add	a, #0xf8
    0000135F 4F               [ 4] 3693 	ld	c, a
    00001360 06 00            [ 7] 3694 	ld	b, #0x00
    00001362 69               [ 4] 3695 	ld	l, c
                                   3696 ;	spillPairReg hl
                                   3697 ;	spillPairReg hl
    00001363 50               [ 4] 3698 	ld	d, b
    00001364 3E F0            [ 7] 3699 	ld	a, #0xf0
    00001366 BD               [ 4] 3700 	cp	a, l
    00001367 3E 00            [ 7] 3701 	ld	a, #0x00
    00001369 9A               [ 4] 3702 	sbc	a, d
    0000136A 30 03            [12] 3703 	jr	NC, 00152$
    0000136C 01 00 00         [10] 3704 	ld	bc, #0x0000
    0000136F                       3705 00152$:
    0000136F DD 7E 04         [19] 3706 	ld	a, 4 (ix)
    00001372 81               [ 4] 3707 	add	a, c
    00001373 4F               [ 4] 3708 	ld	c, a
    00001374 DD 7E 05         [19] 3709 	ld	a, 5 (ix)
    00001377 88               [ 4] 3710 	adc	a, b
    00001378 47               [ 4] 3711 	ld	b, a
    00001379 16 00            [ 7] 3712 	ld	d, #0x00
    0000137B 21r04r00         [10] 3713 	ld	hl, #_g_x0+4
    0000137E 6E               [ 7] 3714 	ld	l, (hl)
                                   3715 ;	spillPairReg hl
    0000137F C5               [11] 3716 	push	bc
    00001380 7D               [ 4] 3717 	ld	a, l
    00001381 CDrF9r06         [17] 3718 	call	_EraseSprite16
    00001384 ED 4Br08r00      [20] 3719 	ld	bc, (#(_g_frame + 8) + 0)
    00001388 ED 5Br08r00      [20] 3720 	ld	de, (#(_g_y2 + 8) + 0)
    0000138C 21r04r00         [10] 3721 	ld	hl, #_g_x2+4
    0000138F 6E               [ 7] 3722 	ld	l, (hl)
                                   3723 ;	spillPairReg hl
    00001390 C5               [11] 3724 	push	bc
    00001391 7D               [ 4] 3725 	ld	a, l
    00001392 CDr00r00         [17] 3726 	call	_CallSpriteFrame_B3
    00001395 11r04r00         [10] 3727 	ld	de, #_g_lx+4
    00001398 1A               [ 7] 3728 	ld	a, (de)
    00001399 4F               [ 4] 3729 	ld	c, a
    0000139A 3Ar04r00         [13] 3730 	ld	a, (#(_g_dx + 4) + 0)
    0000139D 81               [ 4] 3731 	add	a, c
    0000139E 4F               [ 4] 3732 	ld	c, a
    0000139F 12               [ 7] 3733 	ld	(de), a
    000013A0 3E EE            [ 7] 3734 	ld	a, #0xee
    000013A2 91               [ 4] 3735 	sub	a, c
    000013A3 38 05            [12] 3736 	jr	C, 00153$
    000013A5 79               [ 4] 3737 	ld	a, c
    000013A6 D6 04            [ 7] 3738 	sub	a, #0x04
    000013A8 30 07            [12] 3739 	jr	NC, 00154$
    000013AA                       3740 00153$:
    000013AA 01r04r00         [10] 3741 	ld	bc, #_g_dx+4
    000013AD 0A               [ 7] 3742 	ld	a, (bc)
    000013AE ED 44            [ 8] 3743 	neg
    000013B0 02               [ 7] 3744 	ld	(bc), a
    000013B1                       3745 00154$:
    000013B1 01r03r00         [10] 3746 	ld	bc, #_g_x2+3
    000013B4 3Ar03r00         [13] 3747 	ld	a, (#(_g_lx + 3) + 0)
    000013B7 02               [ 7] 3748 	ld	(bc), a
    000013B8 3Ar03r00         [13] 3749 	ld	a, (#(_g_ly + 3) + 0)
    000013BB DD 86 FF         [19] 3750 	add	a, -1 (ix)
    000013BE C6 08            [ 7] 3751 	add	a, #0x08
    000013C0 4F               [ 4] 3752 	ld	c, a
    000013C1 06 00            [ 7] 3753 	ld	b, #0x00
    000013C3 CB C8            [ 8] 3754 	set	1, b
    000013C5 ED 43r06r00      [20] 3755 	ld	((_g_y2 + 6)), bc
    000013C9 3Ar06r00         [13] 3756 	ld	a, (#(_g_y0 + 6) + 0)
    000013CC 5F               [ 4] 3757 	ld	e, a
    000013CD CB 83            [ 8] 3758 	res	0, e
    000013CF 7B               [ 4] 3759 	ld	a, e
    000013D0 DD 96 FE         [19] 3760 	sub	a, -2 (ix)
    000013D3 C6 F8            [ 7] 3761 	add	a, #0xf8
    000013D5 4F               [ 4] 3762 	ld	c, a
    000013D6 06 00            [ 7] 3763 	ld	b, #0x00
    000013D8 69               [ 4] 3764 	ld	l, c
                                   3765 ;	spillPairReg hl
                                   3766 ;	spillPairReg hl
    000013D9 50               [ 4] 3767 	ld	d, b
    000013DA 3E F0            [ 7] 3768 	ld	a, #0xf0
    000013DC BD               [ 4] 3769 	cp	a, l
    000013DD 3E 00            [ 7] 3770 	ld	a, #0x00
    000013DF 9A               [ 4] 3771 	sbc	a, d
    000013E0 30 03            [12] 3772 	jr	NC, 00157$
    000013E2 01 00 00         [10] 3773 	ld	bc, #0x0000
    000013E5                       3774 00157$:
    000013E5 DD 7E 04         [19] 3775 	ld	a, 4 (ix)
    000013E8 81               [ 4] 3776 	add	a, c
    000013E9 4F               [ 4] 3777 	ld	c, a
    000013EA DD 7E 05         [19] 3778 	ld	a, 5 (ix)
    000013ED 88               [ 4] 3779 	adc	a, b
    000013EE 47               [ 4] 3780 	ld	b, a
    000013EF 16 00            [ 7] 3781 	ld	d, #0x00
    000013F1 21r03r00         [10] 3782 	ld	hl, #_g_x0+3
    000013F4 6E               [ 7] 3783 	ld	l, (hl)
                                   3784 ;	spillPairReg hl
    000013F5 C5               [11] 3785 	push	bc
    000013F6 7D               [ 4] 3786 	ld	a, l
    000013F7 CDrF9r06         [17] 3787 	call	_EraseSprite16
    000013FA ED 4Br06r00      [20] 3788 	ld	bc, (#(_g_frame + 6) + 0)
    000013FE ED 5Br06r00      [20] 3789 	ld	de, (#(_g_y2 + 6) + 0)
    00001402 21r03r00         [10] 3790 	ld	hl, #_g_x2+3
    00001405 6E               [ 7] 3791 	ld	l, (hl)
                                   3792 ;	spillPairReg hl
    00001406 C5               [11] 3793 	push	bc
    00001407 7D               [ 4] 3794 	ld	a, l
    00001408 CDr00r00         [17] 3795 	call	_CallSpriteFrame_B3
    0000140B 11r03r00         [10] 3796 	ld	de, #_g_lx+3
    0000140E 1A               [ 7] 3797 	ld	a, (de)
    0000140F 4F               [ 4] 3798 	ld	c, a
    00001410 3Ar03r00         [13] 3799 	ld	a, (#(_g_dx + 3) + 0)
    00001413 81               [ 4] 3800 	add	a, c
    00001414 4F               [ 4] 3801 	ld	c, a
    00001415 12               [ 7] 3802 	ld	(de), a
    00001416 3E EE            [ 7] 3803 	ld	a, #0xee
    00001418 91               [ 4] 3804 	sub	a, c
    00001419 38 05            [12] 3805 	jr	C, 00158$
    0000141B 79               [ 4] 3806 	ld	a, c
    0000141C D6 04            [ 7] 3807 	sub	a, #0x04
    0000141E 30 07            [12] 3808 	jr	NC, 00159$
    00001420                       3809 00158$:
    00001420 01r03r00         [10] 3810 	ld	bc, #_g_dx+3
    00001423 0A               [ 7] 3811 	ld	a, (bc)
    00001424 ED 44            [ 8] 3812 	neg
    00001426 02               [ 7] 3813 	ld	(bc), a
    00001427                       3814 00159$:
    00001427 01r02r00         [10] 3815 	ld	bc, #_g_x2+2
    0000142A 3Ar02r00         [13] 3816 	ld	a, (#(_g_lx + 2) + 0)
    0000142D 02               [ 7] 3817 	ld	(bc), a
    0000142E 3Ar02r00         [13] 3818 	ld	a, (#(_g_ly + 2) + 0)
    00001431 DD 86 FF         [19] 3819 	add	a, -1 (ix)
    00001434 C6 08            [ 7] 3820 	add	a, #0x08
    00001436 4F               [ 4] 3821 	ld	c, a
    00001437 06 00            [ 7] 3822 	ld	b, #0x00
    00001439 CB C8            [ 8] 3823 	set	1, b
    0000143B ED 43r04r00      [20] 3824 	ld	((_g_y2 + 4)), bc
    0000143F 3Ar04r00         [13] 3825 	ld	a, (#(_g_y0 + 4) + 0)
    00001442 5F               [ 4] 3826 	ld	e, a
    00001443 CB 83            [ 8] 3827 	res	0, e
    00001445 7B               [ 4] 3828 	ld	a, e
    00001446 DD 96 FE         [19] 3829 	sub	a, -2 (ix)
    00001449 C6 F8            [ 7] 3830 	add	a, #0xf8
    0000144B 4F               [ 4] 3831 	ld	c, a
    0000144C 06 00            [ 7] 3832 	ld	b, #0x00
    0000144E 69               [ 4] 3833 	ld	l, c
                                   3834 ;	spillPairReg hl
                                   3835 ;	spillPairReg hl
    0000144F 50               [ 4] 3836 	ld	d, b
    00001450 3E F0            [ 7] 3837 	ld	a, #0xf0
    00001452 BD               [ 4] 3838 	cp	a, l
    00001453 3E 00            [ 7] 3839 	ld	a, #0x00
    00001455 9A               [ 4] 3840 	sbc	a, d
    00001456 30 03            [12] 3841 	jr	NC, 00162$
    00001458 01 00 00         [10] 3842 	ld	bc, #0x0000
    0000145B                       3843 00162$:
    0000145B DD 7E 04         [19] 3844 	ld	a, 4 (ix)
    0000145E 81               [ 4] 3845 	add	a, c
    0000145F 4F               [ 4] 3846 	ld	c, a
    00001460 DD 7E 05         [19] 3847 	ld	a, 5 (ix)
    00001463 88               [ 4] 3848 	adc	a, b
    00001464 47               [ 4] 3849 	ld	b, a
    00001465 16 00            [ 7] 3850 	ld	d, #0x00
    00001467 21r02r00         [10] 3851 	ld	hl, #_g_x0+2
    0000146A 6E               [ 7] 3852 	ld	l, (hl)
                                   3853 ;	spillPairReg hl
    0000146B C5               [11] 3854 	push	bc
    0000146C 7D               [ 4] 3855 	ld	a, l
    0000146D CDrF9r06         [17] 3856 	call	_EraseSprite16
    00001470 ED 4Br04r00      [20] 3857 	ld	bc, (#(_g_frame + 4) + 0)
    00001474 ED 5Br04r00      [20] 3858 	ld	de, (#(_g_y2 + 4) + 0)
    00001478 21r02r00         [10] 3859 	ld	hl, #_g_x2+2
    0000147B 6E               [ 7] 3860 	ld	l, (hl)
                                   3861 ;	spillPairReg hl
    0000147C C5               [11] 3862 	push	bc
    0000147D 7D               [ 4] 3863 	ld	a, l
    0000147E CDr00r00         [17] 3864 	call	_CallSpriteFrame_B3
    00001481 11r02r00         [10] 3865 	ld	de, #_g_lx+2
    00001484 1A               [ 7] 3866 	ld	a, (de)
    00001485 4F               [ 4] 3867 	ld	c, a
    00001486 3Ar02r00         [13] 3868 	ld	a, (#(_g_dx + 2) + 0)
    00001489 81               [ 4] 3869 	add	a, c
    0000148A 4F               [ 4] 3870 	ld	c, a
    0000148B 12               [ 7] 3871 	ld	(de), a
    0000148C 3E EE            [ 7] 3872 	ld	a, #0xee
    0000148E 91               [ 4] 3873 	sub	a, c
    0000148F 38 05            [12] 3874 	jr	C, 00163$
    00001491 79               [ 4] 3875 	ld	a, c
    00001492 D6 04            [ 7] 3876 	sub	a, #0x04
    00001494 30 07            [12] 3877 	jr	NC, 00164$
    00001496                       3878 00163$:
    00001496 01r02r00         [10] 3879 	ld	bc, #_g_dx+2
    00001499 0A               [ 7] 3880 	ld	a, (bc)
    0000149A ED 44            [ 8] 3881 	neg
    0000149C 02               [ 7] 3882 	ld	(bc), a
    0000149D                       3883 00164$:
    0000149D 01r01r00         [10] 3884 	ld	bc, #_g_x2+1
    000014A0 3Ar01r00         [13] 3885 	ld	a, (#(_g_lx + 1) + 0)
    000014A3 02               [ 7] 3886 	ld	(bc), a
    000014A4 3Ar01r00         [13] 3887 	ld	a, (#(_g_ly + 1) + 0)
    000014A7 DD 86 FF         [19] 3888 	add	a, -1 (ix)
    000014AA C6 08            [ 7] 3889 	add	a, #0x08
    000014AC 4F               [ 4] 3890 	ld	c, a
    000014AD 06 00            [ 7] 3891 	ld	b, #0x00
    000014AF CB C8            [ 8] 3892 	set	1, b
    000014B1 ED 43r02r00      [20] 3893 	ld	((_g_y2 + 2)), bc
    000014B5 3Ar02r00         [13] 3894 	ld	a, (#(_g_y0 + 2) + 0)
    000014B8 5F               [ 4] 3895 	ld	e, a
    000014B9 CB 83            [ 8] 3896 	res	0, e
    000014BB 7B               [ 4] 3897 	ld	a, e
    000014BC DD 96 FE         [19] 3898 	sub	a, -2 (ix)
    000014BF C6 F8            [ 7] 3899 	add	a, #0xf8
    000014C1 4F               [ 4] 3900 	ld	c, a
    000014C2 06 00            [ 7] 3901 	ld	b, #0x00
    000014C4 69               [ 4] 3902 	ld	l, c
                                   3903 ;	spillPairReg hl
                                   3904 ;	spillPairReg hl
    000014C5 50               [ 4] 3905 	ld	d, b
    000014C6 3E F0            [ 7] 3906 	ld	a, #0xf0
    000014C8 BD               [ 4] 3907 	cp	a, l
    000014C9 3E 00            [ 7] 3908 	ld	a, #0x00
    000014CB 9A               [ 4] 3909 	sbc	a, d
    000014CC 30 03            [12] 3910 	jr	NC, 00167$
    000014CE 01 00 00         [10] 3911 	ld	bc, #0x0000
    000014D1                       3912 00167$:
    000014D1 DD 7E 04         [19] 3913 	ld	a, 4 (ix)
    000014D4 81               [ 4] 3914 	add	a, c
    000014D5 4F               [ 4] 3915 	ld	c, a
    000014D6 DD 7E 05         [19] 3916 	ld	a, 5 (ix)
    000014D9 88               [ 4] 3917 	adc	a, b
    000014DA 47               [ 4] 3918 	ld	b, a
    000014DB 16 00            [ 7] 3919 	ld	d, #0x00
    000014DD 21r01r00         [10] 3920 	ld	hl, #_g_x0+1
    000014E0 6E               [ 7] 3921 	ld	l, (hl)
                                   3922 ;	spillPairReg hl
    000014E1 C5               [11] 3923 	push	bc
    000014E2 7D               [ 4] 3924 	ld	a, l
    000014E3 CDrF9r06         [17] 3925 	call	_EraseSprite16
    000014E6 ED 4Br02r00      [20] 3926 	ld	bc, (#(_g_frame + 2) + 0)
    000014EA ED 5Br02r00      [20] 3927 	ld	de, (#(_g_y2 + 2) + 0)
    000014EE 21r01r00         [10] 3928 	ld	hl, #_g_x2+1
    000014F1 6E               [ 7] 3929 	ld	l, (hl)
                                   3930 ;	spillPairReg hl
    000014F2 C5               [11] 3931 	push	bc
    000014F3 7D               [ 4] 3932 	ld	a, l
    000014F4 CDr00r00         [17] 3933 	call	_CallSpriteFrame_B3
    000014F7 11r01r00         [10] 3934 	ld	de, #_g_lx+1
    000014FA 1A               [ 7] 3935 	ld	a, (de)
    000014FB 4F               [ 4] 3936 	ld	c, a
    000014FC 3Ar01r00         [13] 3937 	ld	a, (#(_g_dx + 1) + 0)
    000014FF 81               [ 4] 3938 	add	a, c
    00001500 4F               [ 4] 3939 	ld	c, a
    00001501 12               [ 7] 3940 	ld	(de), a
    00001502 3E EE            [ 7] 3941 	ld	a, #0xee
    00001504 91               [ 4] 3942 	sub	a, c
    00001505 38 05            [12] 3943 	jr	C, 00168$
    00001507 79               [ 4] 3944 	ld	a, c
    00001508 D6 04            [ 7] 3945 	sub	a, #0x04
    0000150A 30 07            [12] 3946 	jr	NC, 00169$
    0000150C                       3947 00168$:
    0000150C 01r01r00         [10] 3948 	ld	bc, #_g_dx+1
    0000150F 0A               [ 7] 3949 	ld	a, (bc)
    00001510 ED 44            [ 8] 3950 	neg
    00001512 02               [ 7] 3951 	ld	(bc), a
    00001513                       3952 00169$:
    00001513 01r00r00         [10] 3953 	ld	bc, #_g_x2+0
    00001516 3Ar00r00         [13] 3954 	ld	a, (#_g_lx + 0)
    00001519 02               [ 7] 3955 	ld	(bc), a
    0000151A 3Ar00r00         [13] 3956 	ld	a, (#_g_ly + 0)
    0000151D DD 86 FF         [19] 3957 	add	a, -1 (ix)
    00001520 C6 08            [ 7] 3958 	add	a, #0x08
    00001522 4F               [ 4] 3959 	ld	c, a
    00001523 06 00            [ 7] 3960 	ld	b, #0x00
    00001525 CB C8            [ 8] 3961 	set	1, b
    00001527 ED 43r00r00      [20] 3962 	ld	(_g_y2), bc
    0000152B 3Ar00r00         [13] 3963 	ld	a, (#_g_y0 + 0)
    0000152E 5F               [ 4] 3964 	ld	e, a
    0000152F CB 83            [ 8] 3965 	res	0, e
    00001531 7B               [ 4] 3966 	ld	a, e
    00001532 DD 96 FE         [19] 3967 	sub	a, -2 (ix)
    00001535 C6 F8            [ 7] 3968 	add	a, #0xf8
    00001537 4F               [ 4] 3969 	ld	c, a
    00001538 06 00            [ 7] 3970 	ld	b, #0x00
    0000153A 69               [ 4] 3971 	ld	l, c
                                   3972 ;	spillPairReg hl
                                   3973 ;	spillPairReg hl
    0000153B 50               [ 4] 3974 	ld	d, b
    0000153C 3E F0            [ 7] 3975 	ld	a, #0xf0
    0000153E BD               [ 4] 3976 	cp	a, l
    0000153F 3E 00            [ 7] 3977 	ld	a, #0x00
    00001541 9A               [ 4] 3978 	sbc	a, d
    00001542 30 03            [12] 3979 	jr	NC, 00172$
    00001544 01 00 00         [10] 3980 	ld	bc, #0x0000
    00001547                       3981 00172$:
    00001547 DD 7E 04         [19] 3982 	ld	a, 4 (ix)
    0000154A 81               [ 4] 3983 	add	a, c
    0000154B 4F               [ 4] 3984 	ld	c, a
    0000154C DD 7E 05         [19] 3985 	ld	a, 5 (ix)
    0000154F 88               [ 4] 3986 	adc	a, b
    00001550 47               [ 4] 3987 	ld	b, a
    00001551 16 00            [ 7] 3988 	ld	d, #0x00
    00001553 21r00r00         [10] 3989 	ld	hl, #_g_x0+0
    00001556 6E               [ 7] 3990 	ld	l, (hl)
                                   3991 ;	spillPairReg hl
    00001557 C5               [11] 3992 	push	bc
    00001558 7D               [ 4] 3993 	ld	a, l
    00001559 CDrF9r06         [17] 3994 	call	_EraseSprite16
    0000155C ED 4Br00r00      [20] 3995 	ld	bc, (#_g_frame + 0)
    00001560 ED 5Br00r00      [20] 3996 	ld	de, (#_g_y2 + 0)
    00001564 21r00r00         [10] 3997 	ld	hl, #_g_x2+0
    00001567 6E               [ 7] 3998 	ld	l, (hl)
                                   3999 ;	spillPairReg hl
    00001568 C5               [11] 4000 	push	bc
    00001569 7D               [ 4] 4001 	ld	a, l
    0000156A CDr00r00         [17] 4002 	call	_CallSpriteFrame_B3
    0000156D 11r00r00         [10] 4003 	ld	de, #_g_lx+0
    00001570 1A               [ 7] 4004 	ld	a, (de)
    00001571 4F               [ 4] 4005 	ld	c, a
    00001572 3Ar00r00         [13] 4006 	ld	a, (#_g_dx + 0)
    00001575 81               [ 4] 4007 	add	a, c
    00001576 4F               [ 4] 4008 	ld	c, a
    00001577 12               [ 7] 4009 	ld	(de), a
    00001578 3E EE            [ 7] 4010 	ld	a, #0xee
    0000157A 91               [ 4] 4011 	sub	a, c
    0000157B 38 05            [12] 4012 	jr	C, 00173$
    0000157D 79               [ 4] 4013 	ld	a, c
    0000157E D6 04            [ 7] 4014 	sub	a, #0x04
    00001580 30 07            [12] 4015 	jr	NC, 00176$
    00001582                       4016 00173$:
    00001582 01r00r00         [10] 4017 	ld	bc, #_g_dx+0
    00001585 0A               [ 7] 4018 	ld	a, (bc)
    00001586 ED 44            [ 8] 4019 	neg
    00001588 02               [ 7] 4020 	ld	(bc), a
    00001589                       4021 00176$:
                                   4022 ;E:\Dropbox\FAUSTO\SVILUPPI\MSX\CODE\C\MSXgl\projects\soccerlgMSX2/soccerlg_s5_b3.c:211: }
    00001589 DD F9            [10] 4023 	ld	sp, ix
    0000158B DD E1            [14] 4024 	pop	ix
    0000158D E1               [10] 4025 	pop	hl
    0000158E F1               [10] 4026 	pop	af
    0000158F E9               [ 4] 4027 	jp	(hl)
                                   4028 ;E:\Dropbox\FAUSTO\SVILUPPI\MSX\CODE\C\MSXgl\projects\soccerlgMSX2/soccerlg_s5_b3.c:213: void UpdatePhase3(u8 r23_w, u8 r23_e, u16 scroll_e)
                                   4029 ;	---------------------------------
                                   4030 ; Function UpdatePhase3
                                   4031 ; ---------------------------------
    00001590                       4032 _UpdatePhase3::
    00001590 DD E5            [15] 4033 	push	ix
    00001592 DD 21 00 00      [14] 4034 	ld	ix,#0
    00001596 DD 39            [15] 4035 	add	ix,sp
    00001598 F5               [11] 4036 	push	af
    00001599 DD 77 FF         [19] 4037 	ld	-1 (ix), a
    0000159C DD 75 FE         [19] 4038 	ld	-2 (ix), l
                                   4039 ;E:\Dropbox\FAUSTO\SVILUPPI\MSX\CODE\C\MSXgl\projects\soccerlgMSX2/soccerlg_s5_b3.c:215: UNROLL_PHASE(0, 1, 0u, 256u, r23_w, r23_e, scroll_e);
    0000159F 01r0Er00         [10] 4040 	ld	bc, #_g_x0+14
    000015A2 3Ar0Er00         [13] 4041 	ld	a, (#(_g_lx + 14) + 0)
    000015A5 02               [ 7] 4042 	ld	(bc), a
    000015A6 3Ar0Er00         [13] 4043 	ld	a, (#(_g_ly + 14) + 0)
    000015A9 DD 86 FF         [19] 4044 	add	a, -1 (ix)
    000015AC C6 08            [ 7] 4045 	add	a, #0x08
    000015AE 4F               [ 4] 4046 	ld	c, a
    000015AF 06 00            [ 7] 4047 	ld	b, #0x00
    000015B1 ED 43r1Cr00      [20] 4048 	ld	((_g_y0 + 28)), bc
    000015B5 3Ar1Cr00         [13] 4049 	ld	a, (#(_g_y1 + 28) + 0)
    000015B8 5F               [ 4] 4050 	ld	e, a
    000015B9 CB 83            [ 8] 4051 	res	0, e
    000015BB 7B               [ 4] 4052 	ld	a, e
    000015BC DD 96 FE         [19] 4053 	sub	a, -2 (ix)
    000015BF C6 F8            [ 7] 4054 	add	a, #0xf8
    000015C1 4F               [ 4] 4055 	ld	c, a
    000015C2 06 00            [ 7] 4056 	ld	b, #0x00
    000015C4 69               [ 4] 4057 	ld	l, c
                                   4058 ;	spillPairReg hl
                                   4059 ;	spillPairReg hl
    000015C5 50               [ 4] 4060 	ld	d, b
    000015C6 3E F0            [ 7] 4061 	ld	a, #0xf0
    000015C8 BD               [ 4] 4062 	cp	a, l
    000015C9 3E 00            [ 7] 4063 	ld	a, #0x00
    000015CB 9A               [ 4] 4064 	sbc	a, d
    000015CC 30 03            [12] 4065 	jr	NC, 00102$
    000015CE 01 00 00         [10] 4066 	ld	bc, #0x0000
    000015D1                       4067 00102$:
    000015D1 DD 7E 04         [19] 4068 	ld	a, 4 (ix)
    000015D4 81               [ 4] 4069 	add	a, c
    000015D5 4F               [ 4] 4070 	ld	c, a
    000015D6 DD 7E 05         [19] 4071 	ld	a, 5 (ix)
    000015D9 88               [ 4] 4072 	adc	a, b
    000015DA 47               [ 4] 4073 	ld	b, a
    000015DB 16 00            [ 7] 4074 	ld	d, #0x00
    000015DD CB C2            [ 8] 4075 	set	0, d
    000015DF 21r0Er00         [10] 4076 	ld	hl, #_g_x1+14
    000015E2 6E               [ 7] 4077 	ld	l, (hl)
                                   4078 ;	spillPairReg hl
    000015E3 C5               [11] 4079 	push	bc
    000015E4 7D               [ 4] 4080 	ld	a, l
    000015E5 CDrF9r06         [17] 4081 	call	_EraseSprite16
    000015E8 ED 4Br1Cr00      [20] 4082 	ld	bc, (#(_g_frame + 28) + 0)
    000015EC ED 5Br1Cr00      [20] 4083 	ld	de, (#(_g_y0 + 28) + 0)
    000015F0 21r0Er00         [10] 4084 	ld	hl, #_g_x0+14
    000015F3 6E               [ 7] 4085 	ld	l, (hl)
                                   4086 ;	spillPairReg hl
    000015F4 C5               [11] 4087 	push	bc
    000015F5 7D               [ 4] 4088 	ld	a, l
    000015F6 CDr00r00         [17] 4089 	call	_CallSpriteFrame_B3
    000015F9 11r0Er00         [10] 4090 	ld	de, #_g_lx+14
    000015FC 1A               [ 7] 4091 	ld	a, (de)
    000015FD 4F               [ 4] 4092 	ld	c, a
    000015FE 3Ar0Er00         [13] 4093 	ld	a, (#(_g_dx + 14) + 0)
    00001601 81               [ 4] 4094 	add	a, c
    00001602 4F               [ 4] 4095 	ld	c, a
    00001603 12               [ 7] 4096 	ld	(de), a
    00001604 3E EE            [ 7] 4097 	ld	a, #0xee
    00001606 91               [ 4] 4098 	sub	a, c
    00001607 38 05            [12] 4099 	jr	C, 00103$
    00001609 79               [ 4] 4100 	ld	a, c
    0000160A D6 04            [ 7] 4101 	sub	a, #0x04
    0000160C 30 07            [12] 4102 	jr	NC, 00104$
    0000160E                       4103 00103$:
    0000160E 01r0Er00         [10] 4104 	ld	bc, #_g_dx+14
    00001611 0A               [ 7] 4105 	ld	a, (bc)
    00001612 ED 44            [ 8] 4106 	neg
    00001614 02               [ 7] 4107 	ld	(bc), a
    00001615                       4108 00104$:
    00001615 01r0Dr00         [10] 4109 	ld	bc, #_g_x0+13
    00001618 3Ar0Dr00         [13] 4110 	ld	a, (#(_g_lx + 13) + 0)
    0000161B 02               [ 7] 4111 	ld	(bc), a
    0000161C 3Ar0Dr00         [13] 4112 	ld	a, (#(_g_ly + 13) + 0)
    0000161F DD 86 FF         [19] 4113 	add	a, -1 (ix)
    00001622 C6 08            [ 7] 4114 	add	a, #0x08
    00001624 4F               [ 4] 4115 	ld	c, a
    00001625 06 00            [ 7] 4116 	ld	b, #0x00
    00001627 ED 43r1Ar00      [20] 4117 	ld	((_g_y0 + 26)), bc
    0000162B 3Ar1Ar00         [13] 4118 	ld	a, (#(_g_y1 + 26) + 0)
    0000162E 5F               [ 4] 4119 	ld	e, a
    0000162F CB 83            [ 8] 4120 	res	0, e
    00001631 7B               [ 4] 4121 	ld	a, e
    00001632 DD 96 FE         [19] 4122 	sub	a, -2 (ix)
    00001635 C6 F8            [ 7] 4123 	add	a, #0xf8
    00001637 4F               [ 4] 4124 	ld	c, a
    00001638 06 00            [ 7] 4125 	ld	b, #0x00
    0000163A 69               [ 4] 4126 	ld	l, c
                                   4127 ;	spillPairReg hl
                                   4128 ;	spillPairReg hl
    0000163B 50               [ 4] 4129 	ld	d, b
    0000163C 3E F0            [ 7] 4130 	ld	a, #0xf0
    0000163E BD               [ 4] 4131 	cp	a, l
    0000163F 3E 00            [ 7] 4132 	ld	a, #0x00
    00001641 9A               [ 4] 4133 	sbc	a, d
    00001642 30 03            [12] 4134 	jr	NC, 00107$
    00001644 01 00 00         [10] 4135 	ld	bc, #0x0000
    00001647                       4136 00107$:
    00001647 DD 7E 04         [19] 4137 	ld	a, 4 (ix)
    0000164A 81               [ 4] 4138 	add	a, c
    0000164B 4F               [ 4] 4139 	ld	c, a
    0000164C DD 7E 05         [19] 4140 	ld	a, 5 (ix)
    0000164F 88               [ 4] 4141 	adc	a, b
    00001650 47               [ 4] 4142 	ld	b, a
    00001651 16 00            [ 7] 4143 	ld	d, #0x00
    00001653 CB C2            [ 8] 4144 	set	0, d
    00001655 21r0Dr00         [10] 4145 	ld	hl, #_g_x1+13
    00001658 6E               [ 7] 4146 	ld	l, (hl)
                                   4147 ;	spillPairReg hl
    00001659 C5               [11] 4148 	push	bc
    0000165A 7D               [ 4] 4149 	ld	a, l
    0000165B CDrF9r06         [17] 4150 	call	_EraseSprite16
    0000165E ED 4Br1Ar00      [20] 4151 	ld	bc, (#(_g_frame + 26) + 0)
    00001662 ED 5Br1Ar00      [20] 4152 	ld	de, (#(_g_y0 + 26) + 0)
    00001666 21r0Dr00         [10] 4153 	ld	hl, #_g_x0+13
    00001669 6E               [ 7] 4154 	ld	l, (hl)
                                   4155 ;	spillPairReg hl
    0000166A C5               [11] 4156 	push	bc
    0000166B 7D               [ 4] 4157 	ld	a, l
    0000166C CDr00r00         [17] 4158 	call	_CallSpriteFrame_B3
    0000166F 11r0Dr00         [10] 4159 	ld	de, #_g_lx+13
    00001672 1A               [ 7] 4160 	ld	a, (de)
    00001673 4F               [ 4] 4161 	ld	c, a
    00001674 3Ar0Dr00         [13] 4162 	ld	a, (#(_g_dx + 13) + 0)
    00001677 81               [ 4] 4163 	add	a, c
    00001678 4F               [ 4] 4164 	ld	c, a
    00001679 12               [ 7] 4165 	ld	(de), a
    0000167A 3E EE            [ 7] 4166 	ld	a, #0xee
    0000167C 91               [ 4] 4167 	sub	a, c
    0000167D 38 05            [12] 4168 	jr	C, 00108$
    0000167F 79               [ 4] 4169 	ld	a, c
    00001680 D6 04            [ 7] 4170 	sub	a, #0x04
    00001682 30 07            [12] 4171 	jr	NC, 00109$
    00001684                       4172 00108$:
    00001684 01r0Dr00         [10] 4173 	ld	bc, #_g_dx+13
    00001687 0A               [ 7] 4174 	ld	a, (bc)
    00001688 ED 44            [ 8] 4175 	neg
    0000168A 02               [ 7] 4176 	ld	(bc), a
    0000168B                       4177 00109$:
    0000168B 01r0Cr00         [10] 4178 	ld	bc, #_g_x0+12
    0000168E 3Ar0Cr00         [13] 4179 	ld	a, (#(_g_lx + 12) + 0)
    00001691 02               [ 7] 4180 	ld	(bc), a
    00001692 3Ar0Cr00         [13] 4181 	ld	a, (#(_g_ly + 12) + 0)
    00001695 DD 86 FF         [19] 4182 	add	a, -1 (ix)
    00001698 C6 08            [ 7] 4183 	add	a, #0x08
    0000169A 4F               [ 4] 4184 	ld	c, a
    0000169B 06 00            [ 7] 4185 	ld	b, #0x00
    0000169D ED 43r18r00      [20] 4186 	ld	((_g_y0 + 24)), bc
    000016A1 3Ar18r00         [13] 4187 	ld	a, (#(_g_y1 + 24) + 0)
    000016A4 5F               [ 4] 4188 	ld	e, a
    000016A5 CB 83            [ 8] 4189 	res	0, e
    000016A7 7B               [ 4] 4190 	ld	a, e
    000016A8 DD 96 FE         [19] 4191 	sub	a, -2 (ix)
    000016AB C6 F8            [ 7] 4192 	add	a, #0xf8
    000016AD 4F               [ 4] 4193 	ld	c, a
    000016AE 06 00            [ 7] 4194 	ld	b, #0x00
    000016B0 69               [ 4] 4195 	ld	l, c
                                   4196 ;	spillPairReg hl
                                   4197 ;	spillPairReg hl
    000016B1 50               [ 4] 4198 	ld	d, b
    000016B2 3E F0            [ 7] 4199 	ld	a, #0xf0
    000016B4 BD               [ 4] 4200 	cp	a, l
    000016B5 3E 00            [ 7] 4201 	ld	a, #0x00
    000016B7 9A               [ 4] 4202 	sbc	a, d
    000016B8 30 03            [12] 4203 	jr	NC, 00112$
    000016BA 01 00 00         [10] 4204 	ld	bc, #0x0000
    000016BD                       4205 00112$:
    000016BD DD 7E 04         [19] 4206 	ld	a, 4 (ix)
    000016C0 81               [ 4] 4207 	add	a, c
    000016C1 4F               [ 4] 4208 	ld	c, a
    000016C2 DD 7E 05         [19] 4209 	ld	a, 5 (ix)
    000016C5 88               [ 4] 4210 	adc	a, b
    000016C6 47               [ 4] 4211 	ld	b, a
    000016C7 16 00            [ 7] 4212 	ld	d, #0x00
    000016C9 CB C2            [ 8] 4213 	set	0, d
    000016CB 21r0Cr00         [10] 4214 	ld	hl, #_g_x1+12
    000016CE 6E               [ 7] 4215 	ld	l, (hl)
                                   4216 ;	spillPairReg hl
    000016CF C5               [11] 4217 	push	bc
    000016D0 7D               [ 4] 4218 	ld	a, l
    000016D1 CDrF9r06         [17] 4219 	call	_EraseSprite16
    000016D4 ED 4Br18r00      [20] 4220 	ld	bc, (#(_g_frame + 24) + 0)
    000016D8 ED 5Br18r00      [20] 4221 	ld	de, (#(_g_y0 + 24) + 0)
    000016DC 21r0Cr00         [10] 4222 	ld	hl, #_g_x0+12
    000016DF 6E               [ 7] 4223 	ld	l, (hl)
                                   4224 ;	spillPairReg hl
    000016E0 C5               [11] 4225 	push	bc
    000016E1 7D               [ 4] 4226 	ld	a, l
    000016E2 CDr00r00         [17] 4227 	call	_CallSpriteFrame_B3
    000016E5 11r0Cr00         [10] 4228 	ld	de, #_g_lx+12
    000016E8 1A               [ 7] 4229 	ld	a, (de)
    000016E9 4F               [ 4] 4230 	ld	c, a
    000016EA 3Ar0Cr00         [13] 4231 	ld	a, (#(_g_dx + 12) + 0)
    000016ED 81               [ 4] 4232 	add	a, c
    000016EE 4F               [ 4] 4233 	ld	c, a
    000016EF 12               [ 7] 4234 	ld	(de), a
    000016F0 3E EE            [ 7] 4235 	ld	a, #0xee
    000016F2 91               [ 4] 4236 	sub	a, c
    000016F3 38 05            [12] 4237 	jr	C, 00113$
    000016F5 79               [ 4] 4238 	ld	a, c
    000016F6 D6 04            [ 7] 4239 	sub	a, #0x04
    000016F8 30 07            [12] 4240 	jr	NC, 00114$
    000016FA                       4241 00113$:
    000016FA 01r0Cr00         [10] 4242 	ld	bc, #_g_dx+12
    000016FD 0A               [ 7] 4243 	ld	a, (bc)
    000016FE ED 44            [ 8] 4244 	neg
    00001700 02               [ 7] 4245 	ld	(bc), a
    00001701                       4246 00114$:
    00001701 01r0Br00         [10] 4247 	ld	bc, #_g_x0+11
    00001704 3Ar0Br00         [13] 4248 	ld	a, (#(_g_lx + 11) + 0)
    00001707 02               [ 7] 4249 	ld	(bc), a
    00001708 3Ar0Br00         [13] 4250 	ld	a, (#(_g_ly + 11) + 0)
    0000170B DD 86 FF         [19] 4251 	add	a, -1 (ix)
    0000170E C6 08            [ 7] 4252 	add	a, #0x08
    00001710 4F               [ 4] 4253 	ld	c, a
    00001711 06 00            [ 7] 4254 	ld	b, #0x00
    00001713 ED 43r16r00      [20] 4255 	ld	((_g_y0 + 22)), bc
    00001717 3Ar16r00         [13] 4256 	ld	a, (#(_g_y1 + 22) + 0)
    0000171A 5F               [ 4] 4257 	ld	e, a
    0000171B CB 83            [ 8] 4258 	res	0, e
    0000171D 7B               [ 4] 4259 	ld	a, e
    0000171E DD 96 FE         [19] 4260 	sub	a, -2 (ix)
    00001721 C6 F8            [ 7] 4261 	add	a, #0xf8
    00001723 4F               [ 4] 4262 	ld	c, a
    00001724 06 00            [ 7] 4263 	ld	b, #0x00
    00001726 69               [ 4] 4264 	ld	l, c
                                   4265 ;	spillPairReg hl
                                   4266 ;	spillPairReg hl
    00001727 50               [ 4] 4267 	ld	d, b
    00001728 3E F0            [ 7] 4268 	ld	a, #0xf0
    0000172A BD               [ 4] 4269 	cp	a, l
    0000172B 3E 00            [ 7] 4270 	ld	a, #0x00
    0000172D 9A               [ 4] 4271 	sbc	a, d
    0000172E 30 03            [12] 4272 	jr	NC, 00117$
    00001730 01 00 00         [10] 4273 	ld	bc, #0x0000
    00001733                       4274 00117$:
    00001733 DD 7E 04         [19] 4275 	ld	a, 4 (ix)
    00001736 81               [ 4] 4276 	add	a, c
    00001737 4F               [ 4] 4277 	ld	c, a
    00001738 DD 7E 05         [19] 4278 	ld	a, 5 (ix)
    0000173B 88               [ 4] 4279 	adc	a, b
    0000173C 47               [ 4] 4280 	ld	b, a
    0000173D 16 00            [ 7] 4281 	ld	d, #0x00
    0000173F CB C2            [ 8] 4282 	set	0, d
    00001741 21r0Br00         [10] 4283 	ld	hl, #_g_x1+11
    00001744 6E               [ 7] 4284 	ld	l, (hl)
                                   4285 ;	spillPairReg hl
    00001745 C5               [11] 4286 	push	bc
    00001746 7D               [ 4] 4287 	ld	a, l
    00001747 CDrF9r06         [17] 4288 	call	_EraseSprite16
    0000174A ED 4Br16r00      [20] 4289 	ld	bc, (#(_g_frame + 22) + 0)
    0000174E ED 5Br16r00      [20] 4290 	ld	de, (#(_g_y0 + 22) + 0)
    00001752 21r0Br00         [10] 4291 	ld	hl, #_g_x0+11
    00001755 6E               [ 7] 4292 	ld	l, (hl)
                                   4293 ;	spillPairReg hl
    00001756 C5               [11] 4294 	push	bc
    00001757 7D               [ 4] 4295 	ld	a, l
    00001758 CDr00r00         [17] 4296 	call	_CallSpriteFrame_B3
    0000175B 11r0Br00         [10] 4297 	ld	de, #_g_lx+11
    0000175E 1A               [ 7] 4298 	ld	a, (de)
    0000175F 4F               [ 4] 4299 	ld	c, a
    00001760 3Ar0Br00         [13] 4300 	ld	a, (#(_g_dx + 11) + 0)
    00001763 81               [ 4] 4301 	add	a, c
    00001764 4F               [ 4] 4302 	ld	c, a
    00001765 12               [ 7] 4303 	ld	(de), a
    00001766 3E EE            [ 7] 4304 	ld	a, #0xee
    00001768 91               [ 4] 4305 	sub	a, c
    00001769 38 05            [12] 4306 	jr	C, 00118$
    0000176B 79               [ 4] 4307 	ld	a, c
    0000176C D6 04            [ 7] 4308 	sub	a, #0x04
    0000176E 30 07            [12] 4309 	jr	NC, 00119$
    00001770                       4310 00118$:
    00001770 01r0Br00         [10] 4311 	ld	bc, #_g_dx+11
    00001773 0A               [ 7] 4312 	ld	a, (bc)
    00001774 ED 44            [ 8] 4313 	neg
    00001776 02               [ 7] 4314 	ld	(bc), a
    00001777                       4315 00119$:
    00001777 01r0Ar00         [10] 4316 	ld	bc, #_g_x0+10
    0000177A 3Ar0Ar00         [13] 4317 	ld	a, (#(_g_lx + 10) + 0)
    0000177D 02               [ 7] 4318 	ld	(bc), a
    0000177E 3Ar0Ar00         [13] 4319 	ld	a, (#(_g_ly + 10) + 0)
    00001781 DD 86 FF         [19] 4320 	add	a, -1 (ix)
    00001784 C6 08            [ 7] 4321 	add	a, #0x08
    00001786 4F               [ 4] 4322 	ld	c, a
    00001787 06 00            [ 7] 4323 	ld	b, #0x00
    00001789 ED 43r14r00      [20] 4324 	ld	((_g_y0 + 20)), bc
    0000178D 3Ar14r00         [13] 4325 	ld	a, (#(_g_y1 + 20) + 0)
    00001790 5F               [ 4] 4326 	ld	e, a
    00001791 CB 83            [ 8] 4327 	res	0, e
    00001793 7B               [ 4] 4328 	ld	a, e
    00001794 DD 96 FE         [19] 4329 	sub	a, -2 (ix)
    00001797 C6 F8            [ 7] 4330 	add	a, #0xf8
    00001799 4F               [ 4] 4331 	ld	c, a
    0000179A 06 00            [ 7] 4332 	ld	b, #0x00
    0000179C 69               [ 4] 4333 	ld	l, c
                                   4334 ;	spillPairReg hl
                                   4335 ;	spillPairReg hl
    0000179D 50               [ 4] 4336 	ld	d, b
    0000179E 3E F0            [ 7] 4337 	ld	a, #0xf0
    000017A0 BD               [ 4] 4338 	cp	a, l
    000017A1 3E 00            [ 7] 4339 	ld	a, #0x00
    000017A3 9A               [ 4] 4340 	sbc	a, d
    000017A4 30 03            [12] 4341 	jr	NC, 00122$
    000017A6 01 00 00         [10] 4342 	ld	bc, #0x0000
    000017A9                       4343 00122$:
    000017A9 DD 7E 04         [19] 4344 	ld	a, 4 (ix)
    000017AC 81               [ 4] 4345 	add	a, c
    000017AD 4F               [ 4] 4346 	ld	c, a
    000017AE DD 7E 05         [19] 4347 	ld	a, 5 (ix)
    000017B1 88               [ 4] 4348 	adc	a, b
    000017B2 47               [ 4] 4349 	ld	b, a
    000017B3 16 00            [ 7] 4350 	ld	d, #0x00
    000017B5 CB C2            [ 8] 4351 	set	0, d
    000017B7 21r0Ar00         [10] 4352 	ld	hl, #_g_x1+10
    000017BA 6E               [ 7] 4353 	ld	l, (hl)
                                   4354 ;	spillPairReg hl
    000017BB C5               [11] 4355 	push	bc
    000017BC 7D               [ 4] 4356 	ld	a, l
    000017BD CDrF9r06         [17] 4357 	call	_EraseSprite16
    000017C0 ED 4Br14r00      [20] 4358 	ld	bc, (#(_g_frame + 20) + 0)
    000017C4 ED 5Br14r00      [20] 4359 	ld	de, (#(_g_y0 + 20) + 0)
    000017C8 21r0Ar00         [10] 4360 	ld	hl, #_g_x0+10
    000017CB 6E               [ 7] 4361 	ld	l, (hl)
                                   4362 ;	spillPairReg hl
    000017CC C5               [11] 4363 	push	bc
    000017CD 7D               [ 4] 4364 	ld	a, l
    000017CE CDr00r00         [17] 4365 	call	_CallSpriteFrame_B3
    000017D1 11r0Ar00         [10] 4366 	ld	de, #_g_lx+10
    000017D4 1A               [ 7] 4367 	ld	a, (de)
    000017D5 4F               [ 4] 4368 	ld	c, a
    000017D6 3Ar0Ar00         [13] 4369 	ld	a, (#(_g_dx + 10) + 0)
    000017D9 81               [ 4] 4370 	add	a, c
    000017DA 4F               [ 4] 4371 	ld	c, a
    000017DB 12               [ 7] 4372 	ld	(de), a
    000017DC 3E EE            [ 7] 4373 	ld	a, #0xee
    000017DE 91               [ 4] 4374 	sub	a, c
    000017DF 38 05            [12] 4375 	jr	C, 00123$
    000017E1 79               [ 4] 4376 	ld	a, c
    000017E2 D6 04            [ 7] 4377 	sub	a, #0x04
    000017E4 30 07            [12] 4378 	jr	NC, 00124$
    000017E6                       4379 00123$:
    000017E6 01r0Ar00         [10] 4380 	ld	bc, #_g_dx+10
    000017E9 0A               [ 7] 4381 	ld	a, (bc)
    000017EA ED 44            [ 8] 4382 	neg
    000017EC 02               [ 7] 4383 	ld	(bc), a
    000017ED                       4384 00124$:
    000017ED 01r09r00         [10] 4385 	ld	bc, #_g_x0+9
    000017F0 3Ar09r00         [13] 4386 	ld	a, (#(_g_lx + 9) + 0)
    000017F3 02               [ 7] 4387 	ld	(bc), a
    000017F4 3Ar09r00         [13] 4388 	ld	a, (#(_g_ly + 9) + 0)
    000017F7 DD 86 FF         [19] 4389 	add	a, -1 (ix)
    000017FA C6 08            [ 7] 4390 	add	a, #0x08
    000017FC 4F               [ 4] 4391 	ld	c, a
    000017FD 06 00            [ 7] 4392 	ld	b, #0x00
    000017FF ED 43r12r00      [20] 4393 	ld	((_g_y0 + 18)), bc
    00001803 3Ar12r00         [13] 4394 	ld	a, (#(_g_y1 + 18) + 0)
    00001806 5F               [ 4] 4395 	ld	e, a
    00001807 CB 83            [ 8] 4396 	res	0, e
    00001809 7B               [ 4] 4397 	ld	a, e
    0000180A DD 96 FE         [19] 4398 	sub	a, -2 (ix)
    0000180D C6 F8            [ 7] 4399 	add	a, #0xf8
    0000180F 4F               [ 4] 4400 	ld	c, a
    00001810 06 00            [ 7] 4401 	ld	b, #0x00
    00001812 69               [ 4] 4402 	ld	l, c
                                   4403 ;	spillPairReg hl
                                   4404 ;	spillPairReg hl
    00001813 50               [ 4] 4405 	ld	d, b
    00001814 3E F0            [ 7] 4406 	ld	a, #0xf0
    00001816 BD               [ 4] 4407 	cp	a, l
    00001817 3E 00            [ 7] 4408 	ld	a, #0x00
    00001819 9A               [ 4] 4409 	sbc	a, d
    0000181A 30 03            [12] 4410 	jr	NC, 00127$
    0000181C 01 00 00         [10] 4411 	ld	bc, #0x0000
    0000181F                       4412 00127$:
    0000181F DD 7E 04         [19] 4413 	ld	a, 4 (ix)
    00001822 81               [ 4] 4414 	add	a, c
    00001823 4F               [ 4] 4415 	ld	c, a
    00001824 DD 7E 05         [19] 4416 	ld	a, 5 (ix)
    00001827 88               [ 4] 4417 	adc	a, b
    00001828 47               [ 4] 4418 	ld	b, a
    00001829 16 00            [ 7] 4419 	ld	d, #0x00
    0000182B CB C2            [ 8] 4420 	set	0, d
    0000182D 21r09r00         [10] 4421 	ld	hl, #_g_x1+9
    00001830 6E               [ 7] 4422 	ld	l, (hl)
                                   4423 ;	spillPairReg hl
    00001831 C5               [11] 4424 	push	bc
    00001832 7D               [ 4] 4425 	ld	a, l
    00001833 CDrF9r06         [17] 4426 	call	_EraseSprite16
    00001836 ED 4Br12r00      [20] 4427 	ld	bc, (#(_g_frame + 18) + 0)
    0000183A ED 5Br12r00      [20] 4428 	ld	de, (#(_g_y0 + 18) + 0)
    0000183E 21r09r00         [10] 4429 	ld	hl, #_g_x0+9
    00001841 6E               [ 7] 4430 	ld	l, (hl)
                                   4431 ;	spillPairReg hl
    00001842 C5               [11] 4432 	push	bc
    00001843 7D               [ 4] 4433 	ld	a, l
    00001844 CDr00r00         [17] 4434 	call	_CallSpriteFrame_B3
    00001847 11r09r00         [10] 4435 	ld	de, #_g_lx+9
    0000184A 1A               [ 7] 4436 	ld	a, (de)
    0000184B 4F               [ 4] 4437 	ld	c, a
    0000184C 3Ar09r00         [13] 4438 	ld	a, (#(_g_dx + 9) + 0)
    0000184F 81               [ 4] 4439 	add	a, c
    00001850 4F               [ 4] 4440 	ld	c, a
    00001851 12               [ 7] 4441 	ld	(de), a
    00001852 3E EE            [ 7] 4442 	ld	a, #0xee
    00001854 91               [ 4] 4443 	sub	a, c
    00001855 38 05            [12] 4444 	jr	C, 00128$
    00001857 79               [ 4] 4445 	ld	a, c
    00001858 D6 04            [ 7] 4446 	sub	a, #0x04
    0000185A 30 07            [12] 4447 	jr	NC, 00129$
    0000185C                       4448 00128$:
    0000185C 01r09r00         [10] 4449 	ld	bc, #_g_dx+9
    0000185F 0A               [ 7] 4450 	ld	a, (bc)
    00001860 ED 44            [ 8] 4451 	neg
    00001862 02               [ 7] 4452 	ld	(bc), a
    00001863                       4453 00129$:
    00001863 01r08r00         [10] 4454 	ld	bc, #_g_x0+8
    00001866 3Ar08r00         [13] 4455 	ld	a, (#(_g_lx + 8) + 0)
    00001869 02               [ 7] 4456 	ld	(bc), a
    0000186A 3Ar08r00         [13] 4457 	ld	a, (#(_g_ly + 8) + 0)
    0000186D DD 86 FF         [19] 4458 	add	a, -1 (ix)
    00001870 C6 08            [ 7] 4459 	add	a, #0x08
    00001872 4F               [ 4] 4460 	ld	c, a
    00001873 06 00            [ 7] 4461 	ld	b, #0x00
    00001875 ED 43r10r00      [20] 4462 	ld	((_g_y0 + 16)), bc
    00001879 3Ar10r00         [13] 4463 	ld	a, (#(_g_y1 + 16) + 0)
    0000187C 5F               [ 4] 4464 	ld	e, a
    0000187D CB 83            [ 8] 4465 	res	0, e
    0000187F 7B               [ 4] 4466 	ld	a, e
    00001880 DD 96 FE         [19] 4467 	sub	a, -2 (ix)
    00001883 C6 F8            [ 7] 4468 	add	a, #0xf8
    00001885 4F               [ 4] 4469 	ld	c, a
    00001886 06 00            [ 7] 4470 	ld	b, #0x00
    00001888 69               [ 4] 4471 	ld	l, c
                                   4472 ;	spillPairReg hl
                                   4473 ;	spillPairReg hl
    00001889 50               [ 4] 4474 	ld	d, b
    0000188A 3E F0            [ 7] 4475 	ld	a, #0xf0
    0000188C BD               [ 4] 4476 	cp	a, l
    0000188D 3E 00            [ 7] 4477 	ld	a, #0x00
    0000188F 9A               [ 4] 4478 	sbc	a, d
    00001890 30 03            [12] 4479 	jr	NC, 00132$
    00001892 01 00 00         [10] 4480 	ld	bc, #0x0000
    00001895                       4481 00132$:
    00001895 DD 7E 04         [19] 4482 	ld	a, 4 (ix)
    00001898 81               [ 4] 4483 	add	a, c
    00001899 4F               [ 4] 4484 	ld	c, a
    0000189A DD 7E 05         [19] 4485 	ld	a, 5 (ix)
    0000189D 88               [ 4] 4486 	adc	a, b
    0000189E 47               [ 4] 4487 	ld	b, a
    0000189F 16 00            [ 7] 4488 	ld	d, #0x00
    000018A1 CB C2            [ 8] 4489 	set	0, d
    000018A3 21r08r00         [10] 4490 	ld	hl, #_g_x1+8
    000018A6 6E               [ 7] 4491 	ld	l, (hl)
                                   4492 ;	spillPairReg hl
    000018A7 C5               [11] 4493 	push	bc
    000018A8 7D               [ 4] 4494 	ld	a, l
    000018A9 CDrF9r06         [17] 4495 	call	_EraseSprite16
    000018AC ED 4Br10r00      [20] 4496 	ld	bc, (#(_g_frame + 16) + 0)
    000018B0 ED 5Br10r00      [20] 4497 	ld	de, (#(_g_y0 + 16) + 0)
    000018B4 21r08r00         [10] 4498 	ld	hl, #_g_x0+8
    000018B7 6E               [ 7] 4499 	ld	l, (hl)
                                   4500 ;	spillPairReg hl
    000018B8 C5               [11] 4501 	push	bc
    000018B9 7D               [ 4] 4502 	ld	a, l
    000018BA CDr00r00         [17] 4503 	call	_CallSpriteFrame_B3
    000018BD 11r08r00         [10] 4504 	ld	de, #_g_lx+8
    000018C0 1A               [ 7] 4505 	ld	a, (de)
    000018C1 4F               [ 4] 4506 	ld	c, a
    000018C2 3Ar08r00         [13] 4507 	ld	a, (#(_g_dx + 8) + 0)
    000018C5 81               [ 4] 4508 	add	a, c
    000018C6 4F               [ 4] 4509 	ld	c, a
    000018C7 12               [ 7] 4510 	ld	(de), a
    000018C8 3E EE            [ 7] 4511 	ld	a, #0xee
    000018CA 91               [ 4] 4512 	sub	a, c
    000018CB 38 05            [12] 4513 	jr	C, 00133$
    000018CD 79               [ 4] 4514 	ld	a, c
    000018CE D6 04            [ 7] 4515 	sub	a, #0x04
    000018D0 30 07            [12] 4516 	jr	NC, 00134$
    000018D2                       4517 00133$:
    000018D2 01r08r00         [10] 4518 	ld	bc, #_g_dx+8
    000018D5 0A               [ 7] 4519 	ld	a, (bc)
    000018D6 ED 44            [ 8] 4520 	neg
    000018D8 02               [ 7] 4521 	ld	(bc), a
    000018D9                       4522 00134$:
    000018D9 01r07r00         [10] 4523 	ld	bc, #_g_x0+7
    000018DC 3Ar07r00         [13] 4524 	ld	a, (#(_g_lx + 7) + 0)
    000018DF 02               [ 7] 4525 	ld	(bc), a
    000018E0 3Ar07r00         [13] 4526 	ld	a, (#(_g_ly + 7) + 0)
    000018E3 DD 86 FF         [19] 4527 	add	a, -1 (ix)
    000018E6 C6 08            [ 7] 4528 	add	a, #0x08
    000018E8 4F               [ 4] 4529 	ld	c, a
    000018E9 06 00            [ 7] 4530 	ld	b, #0x00
    000018EB ED 43r0Er00      [20] 4531 	ld	((_g_y0 + 14)), bc
    000018EF 3Ar0Er00         [13] 4532 	ld	a, (#(_g_y1 + 14) + 0)
    000018F2 5F               [ 4] 4533 	ld	e, a
    000018F3 CB 83            [ 8] 4534 	res	0, e
    000018F5 7B               [ 4] 4535 	ld	a, e
    000018F6 DD 96 FE         [19] 4536 	sub	a, -2 (ix)
    000018F9 C6 F8            [ 7] 4537 	add	a, #0xf8
    000018FB 4F               [ 4] 4538 	ld	c, a
    000018FC 06 00            [ 7] 4539 	ld	b, #0x00
    000018FE 69               [ 4] 4540 	ld	l, c
                                   4541 ;	spillPairReg hl
                                   4542 ;	spillPairReg hl
    000018FF 50               [ 4] 4543 	ld	d, b
    00001900 3E F0            [ 7] 4544 	ld	a, #0xf0
    00001902 BD               [ 4] 4545 	cp	a, l
    00001903 3E 00            [ 7] 4546 	ld	a, #0x00
    00001905 9A               [ 4] 4547 	sbc	a, d
    00001906 30 03            [12] 4548 	jr	NC, 00137$
    00001908 01 00 00         [10] 4549 	ld	bc, #0x0000
    0000190B                       4550 00137$:
    0000190B DD 7E 04         [19] 4551 	ld	a, 4 (ix)
    0000190E 81               [ 4] 4552 	add	a, c
    0000190F 4F               [ 4] 4553 	ld	c, a
    00001910 DD 7E 05         [19] 4554 	ld	a, 5 (ix)
    00001913 88               [ 4] 4555 	adc	a, b
    00001914 47               [ 4] 4556 	ld	b, a
    00001915 16 00            [ 7] 4557 	ld	d, #0x00
    00001917 CB C2            [ 8] 4558 	set	0, d
    00001919 21r07r00         [10] 4559 	ld	hl, #_g_x1+7
    0000191C 6E               [ 7] 4560 	ld	l, (hl)
                                   4561 ;	spillPairReg hl
    0000191D C5               [11] 4562 	push	bc
    0000191E 7D               [ 4] 4563 	ld	a, l
    0000191F CDrF9r06         [17] 4564 	call	_EraseSprite16
    00001922 ED 4Br0Er00      [20] 4565 	ld	bc, (#(_g_frame + 14) + 0)
    00001926 ED 5Br0Er00      [20] 4566 	ld	de, (#(_g_y0 + 14) + 0)
    0000192A 21r07r00         [10] 4567 	ld	hl, #_g_x0+7
    0000192D 6E               [ 7] 4568 	ld	l, (hl)
                                   4569 ;	spillPairReg hl
    0000192E C5               [11] 4570 	push	bc
    0000192F 7D               [ 4] 4571 	ld	a, l
    00001930 CDr00r00         [17] 4572 	call	_CallSpriteFrame_B3
    00001933 11r07r00         [10] 4573 	ld	de, #_g_lx+7
    00001936 1A               [ 7] 4574 	ld	a, (de)
    00001937 4F               [ 4] 4575 	ld	c, a
    00001938 3Ar07r00         [13] 4576 	ld	a, (#(_g_dx + 7) + 0)
    0000193B 81               [ 4] 4577 	add	a, c
    0000193C 4F               [ 4] 4578 	ld	c, a
    0000193D 12               [ 7] 4579 	ld	(de), a
    0000193E 3E EE            [ 7] 4580 	ld	a, #0xee
    00001940 91               [ 4] 4581 	sub	a, c
    00001941 38 05            [12] 4582 	jr	C, 00138$
    00001943 79               [ 4] 4583 	ld	a, c
    00001944 D6 04            [ 7] 4584 	sub	a, #0x04
    00001946 30 07            [12] 4585 	jr	NC, 00139$
    00001948                       4586 00138$:
    00001948 01r07r00         [10] 4587 	ld	bc, #_g_dx+7
    0000194B 0A               [ 7] 4588 	ld	a, (bc)
    0000194C ED 44            [ 8] 4589 	neg
    0000194E 02               [ 7] 4590 	ld	(bc), a
    0000194F                       4591 00139$:
    0000194F 01r06r00         [10] 4592 	ld	bc, #_g_x0+6
    00001952 3Ar06r00         [13] 4593 	ld	a, (#(_g_lx + 6) + 0)
    00001955 02               [ 7] 4594 	ld	(bc), a
    00001956 3Ar06r00         [13] 4595 	ld	a, (#(_g_ly + 6) + 0)
    00001959 DD 86 FF         [19] 4596 	add	a, -1 (ix)
    0000195C C6 08            [ 7] 4597 	add	a, #0x08
    0000195E 4F               [ 4] 4598 	ld	c, a
    0000195F 06 00            [ 7] 4599 	ld	b, #0x00
    00001961 ED 43r0Cr00      [20] 4600 	ld	((_g_y0 + 12)), bc
    00001965 3Ar0Cr00         [13] 4601 	ld	a, (#(_g_y1 + 12) + 0)
    00001968 5F               [ 4] 4602 	ld	e, a
    00001969 CB 83            [ 8] 4603 	res	0, e
    0000196B 7B               [ 4] 4604 	ld	a, e
    0000196C DD 96 FE         [19] 4605 	sub	a, -2 (ix)
    0000196F C6 F8            [ 7] 4606 	add	a, #0xf8
    00001971 4F               [ 4] 4607 	ld	c, a
    00001972 06 00            [ 7] 4608 	ld	b, #0x00
    00001974 69               [ 4] 4609 	ld	l, c
                                   4610 ;	spillPairReg hl
                                   4611 ;	spillPairReg hl
    00001975 50               [ 4] 4612 	ld	d, b
    00001976 3E F0            [ 7] 4613 	ld	a, #0xf0
    00001978 BD               [ 4] 4614 	cp	a, l
    00001979 3E 00            [ 7] 4615 	ld	a, #0x00
    0000197B 9A               [ 4] 4616 	sbc	a, d
    0000197C 30 03            [12] 4617 	jr	NC, 00142$
    0000197E 01 00 00         [10] 4618 	ld	bc, #0x0000
    00001981                       4619 00142$:
    00001981 DD 7E 04         [19] 4620 	ld	a, 4 (ix)
    00001984 81               [ 4] 4621 	add	a, c
    00001985 4F               [ 4] 4622 	ld	c, a
    00001986 DD 7E 05         [19] 4623 	ld	a, 5 (ix)
    00001989 88               [ 4] 4624 	adc	a, b
    0000198A 47               [ 4] 4625 	ld	b, a
    0000198B 16 00            [ 7] 4626 	ld	d, #0x00
    0000198D CB C2            [ 8] 4627 	set	0, d
    0000198F 21r06r00         [10] 4628 	ld	hl, #_g_x1+6
    00001992 6E               [ 7] 4629 	ld	l, (hl)
                                   4630 ;	spillPairReg hl
    00001993 C5               [11] 4631 	push	bc
    00001994 7D               [ 4] 4632 	ld	a, l
    00001995 CDrF9r06         [17] 4633 	call	_EraseSprite16
    00001998 ED 4Br0Cr00      [20] 4634 	ld	bc, (#(_g_frame + 12) + 0)
    0000199C ED 5Br0Cr00      [20] 4635 	ld	de, (#(_g_y0 + 12) + 0)
    000019A0 21r06r00         [10] 4636 	ld	hl, #_g_x0+6
    000019A3 6E               [ 7] 4637 	ld	l, (hl)
                                   4638 ;	spillPairReg hl
    000019A4 C5               [11] 4639 	push	bc
    000019A5 7D               [ 4] 4640 	ld	a, l
    000019A6 CDr00r00         [17] 4641 	call	_CallSpriteFrame_B3
    000019A9 11r06r00         [10] 4642 	ld	de, #_g_lx+6
    000019AC 1A               [ 7] 4643 	ld	a, (de)
    000019AD 4F               [ 4] 4644 	ld	c, a
    000019AE 3Ar06r00         [13] 4645 	ld	a, (#(_g_dx + 6) + 0)
    000019B1 81               [ 4] 4646 	add	a, c
    000019B2 4F               [ 4] 4647 	ld	c, a
    000019B3 12               [ 7] 4648 	ld	(de), a
    000019B4 3E EE            [ 7] 4649 	ld	a, #0xee
    000019B6 91               [ 4] 4650 	sub	a, c
    000019B7 38 05            [12] 4651 	jr	C, 00143$
    000019B9 79               [ 4] 4652 	ld	a, c
    000019BA D6 04            [ 7] 4653 	sub	a, #0x04
    000019BC 30 07            [12] 4654 	jr	NC, 00144$
    000019BE                       4655 00143$:
    000019BE 01r06r00         [10] 4656 	ld	bc, #_g_dx+6
    000019C1 0A               [ 7] 4657 	ld	a, (bc)
    000019C2 ED 44            [ 8] 4658 	neg
    000019C4 02               [ 7] 4659 	ld	(bc), a
    000019C5                       4660 00144$:
    000019C5 01r05r00         [10] 4661 	ld	bc, #_g_x0+5
    000019C8 3Ar05r00         [13] 4662 	ld	a, (#(_g_lx + 5) + 0)
    000019CB 02               [ 7] 4663 	ld	(bc), a
    000019CC 3Ar05r00         [13] 4664 	ld	a, (#(_g_ly + 5) + 0)
    000019CF DD 86 FF         [19] 4665 	add	a, -1 (ix)
    000019D2 C6 08            [ 7] 4666 	add	a, #0x08
    000019D4 4F               [ 4] 4667 	ld	c, a
    000019D5 06 00            [ 7] 4668 	ld	b, #0x00
    000019D7 ED 43r0Ar00      [20] 4669 	ld	((_g_y0 + 10)), bc
    000019DB 3Ar0Ar00         [13] 4670 	ld	a, (#(_g_y1 + 10) + 0)
    000019DE 5F               [ 4] 4671 	ld	e, a
    000019DF CB 83            [ 8] 4672 	res	0, e
    000019E1 7B               [ 4] 4673 	ld	a, e
    000019E2 DD 96 FE         [19] 4674 	sub	a, -2 (ix)
    000019E5 C6 F8            [ 7] 4675 	add	a, #0xf8
    000019E7 4F               [ 4] 4676 	ld	c, a
    000019E8 06 00            [ 7] 4677 	ld	b, #0x00
    000019EA 69               [ 4] 4678 	ld	l, c
                                   4679 ;	spillPairReg hl
                                   4680 ;	spillPairReg hl
    000019EB 50               [ 4] 4681 	ld	d, b
    000019EC 3E F0            [ 7] 4682 	ld	a, #0xf0
    000019EE BD               [ 4] 4683 	cp	a, l
    000019EF 3E 00            [ 7] 4684 	ld	a, #0x00
    000019F1 9A               [ 4] 4685 	sbc	a, d
    000019F2 30 03            [12] 4686 	jr	NC, 00147$
    000019F4 01 00 00         [10] 4687 	ld	bc, #0x0000
    000019F7                       4688 00147$:
    000019F7 DD 7E 04         [19] 4689 	ld	a, 4 (ix)
    000019FA 81               [ 4] 4690 	add	a, c
    000019FB 4F               [ 4] 4691 	ld	c, a
    000019FC DD 7E 05         [19] 4692 	ld	a, 5 (ix)
    000019FF 88               [ 4] 4693 	adc	a, b
    00001A00 47               [ 4] 4694 	ld	b, a
    00001A01 16 00            [ 7] 4695 	ld	d, #0x00
    00001A03 CB C2            [ 8] 4696 	set	0, d
    00001A05 21r05r00         [10] 4697 	ld	hl, #_g_x1+5
    00001A08 6E               [ 7] 4698 	ld	l, (hl)
                                   4699 ;	spillPairReg hl
    00001A09 C5               [11] 4700 	push	bc
    00001A0A 7D               [ 4] 4701 	ld	a, l
    00001A0B CDrF9r06         [17] 4702 	call	_EraseSprite16
    00001A0E ED 4Br0Ar00      [20] 4703 	ld	bc, (#(_g_frame + 10) + 0)
    00001A12 ED 5Br0Ar00      [20] 4704 	ld	de, (#(_g_y0 + 10) + 0)
    00001A16 21r05r00         [10] 4705 	ld	hl, #_g_x0+5
    00001A19 6E               [ 7] 4706 	ld	l, (hl)
                                   4707 ;	spillPairReg hl
    00001A1A C5               [11] 4708 	push	bc
    00001A1B 7D               [ 4] 4709 	ld	a, l
    00001A1C CDr00r00         [17] 4710 	call	_CallSpriteFrame_B3
    00001A1F 11r05r00         [10] 4711 	ld	de, #_g_lx+5
    00001A22 1A               [ 7] 4712 	ld	a, (de)
    00001A23 4F               [ 4] 4713 	ld	c, a
    00001A24 3Ar05r00         [13] 4714 	ld	a, (#(_g_dx + 5) + 0)
    00001A27 81               [ 4] 4715 	add	a, c
    00001A28 4F               [ 4] 4716 	ld	c, a
    00001A29 12               [ 7] 4717 	ld	(de), a
    00001A2A 3E EE            [ 7] 4718 	ld	a, #0xee
    00001A2C 91               [ 4] 4719 	sub	a, c
    00001A2D 38 05            [12] 4720 	jr	C, 00148$
    00001A2F 79               [ 4] 4721 	ld	a, c
    00001A30 D6 04            [ 7] 4722 	sub	a, #0x04
    00001A32 30 07            [12] 4723 	jr	NC, 00149$
    00001A34                       4724 00148$:
    00001A34 01r05r00         [10] 4725 	ld	bc, #_g_dx+5
    00001A37 0A               [ 7] 4726 	ld	a, (bc)
    00001A38 ED 44            [ 8] 4727 	neg
    00001A3A 02               [ 7] 4728 	ld	(bc), a
    00001A3B                       4729 00149$:
    00001A3B 01r04r00         [10] 4730 	ld	bc, #_g_x0+4
    00001A3E 3Ar04r00         [13] 4731 	ld	a, (#(_g_lx + 4) + 0)
    00001A41 02               [ 7] 4732 	ld	(bc), a
    00001A42 3Ar04r00         [13] 4733 	ld	a, (#(_g_ly + 4) + 0)
    00001A45 DD 86 FF         [19] 4734 	add	a, -1 (ix)
    00001A48 C6 08            [ 7] 4735 	add	a, #0x08
    00001A4A 4F               [ 4] 4736 	ld	c, a
    00001A4B 06 00            [ 7] 4737 	ld	b, #0x00
    00001A4D ED 43r08r00      [20] 4738 	ld	((_g_y0 + 8)), bc
    00001A51 3Ar08r00         [13] 4739 	ld	a, (#(_g_y1 + 8) + 0)
    00001A54 5F               [ 4] 4740 	ld	e, a
    00001A55 CB 83            [ 8] 4741 	res	0, e
    00001A57 7B               [ 4] 4742 	ld	a, e
    00001A58 DD 96 FE         [19] 4743 	sub	a, -2 (ix)
    00001A5B C6 F8            [ 7] 4744 	add	a, #0xf8
    00001A5D 4F               [ 4] 4745 	ld	c, a
    00001A5E 06 00            [ 7] 4746 	ld	b, #0x00
    00001A60 69               [ 4] 4747 	ld	l, c
                                   4748 ;	spillPairReg hl
                                   4749 ;	spillPairReg hl
    00001A61 50               [ 4] 4750 	ld	d, b
    00001A62 3E F0            [ 7] 4751 	ld	a, #0xf0
    00001A64 BD               [ 4] 4752 	cp	a, l
    00001A65 3E 00            [ 7] 4753 	ld	a, #0x00
    00001A67 9A               [ 4] 4754 	sbc	a, d
    00001A68 30 03            [12] 4755 	jr	NC, 00152$
    00001A6A 01 00 00         [10] 4756 	ld	bc, #0x0000
    00001A6D                       4757 00152$:
    00001A6D DD 7E 04         [19] 4758 	ld	a, 4 (ix)
    00001A70 81               [ 4] 4759 	add	a, c
    00001A71 4F               [ 4] 4760 	ld	c, a
    00001A72 DD 7E 05         [19] 4761 	ld	a, 5 (ix)
    00001A75 88               [ 4] 4762 	adc	a, b
    00001A76 47               [ 4] 4763 	ld	b, a
    00001A77 16 00            [ 7] 4764 	ld	d, #0x00
    00001A79 CB C2            [ 8] 4765 	set	0, d
    00001A7B 21r04r00         [10] 4766 	ld	hl, #_g_x1+4
    00001A7E 6E               [ 7] 4767 	ld	l, (hl)
                                   4768 ;	spillPairReg hl
    00001A7F C5               [11] 4769 	push	bc
    00001A80 7D               [ 4] 4770 	ld	a, l
    00001A81 CDrF9r06         [17] 4771 	call	_EraseSprite16
    00001A84 ED 4Br08r00      [20] 4772 	ld	bc, (#(_g_frame + 8) + 0)
    00001A88 ED 5Br08r00      [20] 4773 	ld	de, (#(_g_y0 + 8) + 0)
    00001A8C 21r04r00         [10] 4774 	ld	hl, #_g_x0+4
    00001A8F 6E               [ 7] 4775 	ld	l, (hl)
                                   4776 ;	spillPairReg hl
    00001A90 C5               [11] 4777 	push	bc
    00001A91 7D               [ 4] 4778 	ld	a, l
    00001A92 CDr00r00         [17] 4779 	call	_CallSpriteFrame_B3
    00001A95 11r04r00         [10] 4780 	ld	de, #_g_lx+4
    00001A98 1A               [ 7] 4781 	ld	a, (de)
    00001A99 4F               [ 4] 4782 	ld	c, a
    00001A9A 3Ar04r00         [13] 4783 	ld	a, (#(_g_dx + 4) + 0)
    00001A9D 81               [ 4] 4784 	add	a, c
    00001A9E 4F               [ 4] 4785 	ld	c, a
    00001A9F 12               [ 7] 4786 	ld	(de), a
    00001AA0 3E EE            [ 7] 4787 	ld	a, #0xee
    00001AA2 91               [ 4] 4788 	sub	a, c
    00001AA3 38 05            [12] 4789 	jr	C, 00153$
    00001AA5 79               [ 4] 4790 	ld	a, c
    00001AA6 D6 04            [ 7] 4791 	sub	a, #0x04
    00001AA8 30 07            [12] 4792 	jr	NC, 00154$
    00001AAA                       4793 00153$:
    00001AAA 01r04r00         [10] 4794 	ld	bc, #_g_dx+4
    00001AAD 0A               [ 7] 4795 	ld	a, (bc)
    00001AAE ED 44            [ 8] 4796 	neg
    00001AB0 02               [ 7] 4797 	ld	(bc), a
    00001AB1                       4798 00154$:
    00001AB1 01r03r00         [10] 4799 	ld	bc, #_g_x0+3
    00001AB4 3Ar03r00         [13] 4800 	ld	a, (#(_g_lx + 3) + 0)
    00001AB7 02               [ 7] 4801 	ld	(bc), a
    00001AB8 3Ar03r00         [13] 4802 	ld	a, (#(_g_ly + 3) + 0)
    00001ABB DD 86 FF         [19] 4803 	add	a, -1 (ix)
    00001ABE C6 08            [ 7] 4804 	add	a, #0x08
    00001AC0 4F               [ 4] 4805 	ld	c, a
    00001AC1 06 00            [ 7] 4806 	ld	b, #0x00
    00001AC3 ED 43r06r00      [20] 4807 	ld	((_g_y0 + 6)), bc
    00001AC7 3Ar06r00         [13] 4808 	ld	a, (#(_g_y1 + 6) + 0)
    00001ACA 5F               [ 4] 4809 	ld	e, a
    00001ACB CB 83            [ 8] 4810 	res	0, e
    00001ACD 7B               [ 4] 4811 	ld	a, e
    00001ACE DD 96 FE         [19] 4812 	sub	a, -2 (ix)
    00001AD1 C6 F8            [ 7] 4813 	add	a, #0xf8
    00001AD3 4F               [ 4] 4814 	ld	c, a
    00001AD4 06 00            [ 7] 4815 	ld	b, #0x00
    00001AD6 69               [ 4] 4816 	ld	l, c
                                   4817 ;	spillPairReg hl
                                   4818 ;	spillPairReg hl
    00001AD7 50               [ 4] 4819 	ld	d, b
    00001AD8 3E F0            [ 7] 4820 	ld	a, #0xf0
    00001ADA BD               [ 4] 4821 	cp	a, l
    00001ADB 3E 00            [ 7] 4822 	ld	a, #0x00
    00001ADD 9A               [ 4] 4823 	sbc	a, d
    00001ADE 30 03            [12] 4824 	jr	NC, 00157$
    00001AE0 01 00 00         [10] 4825 	ld	bc, #0x0000
    00001AE3                       4826 00157$:
    00001AE3 DD 7E 04         [19] 4827 	ld	a, 4 (ix)
    00001AE6 81               [ 4] 4828 	add	a, c
    00001AE7 4F               [ 4] 4829 	ld	c, a
    00001AE8 DD 7E 05         [19] 4830 	ld	a, 5 (ix)
    00001AEB 88               [ 4] 4831 	adc	a, b
    00001AEC 47               [ 4] 4832 	ld	b, a
    00001AED 16 00            [ 7] 4833 	ld	d, #0x00
    00001AEF CB C2            [ 8] 4834 	set	0, d
    00001AF1 21r03r00         [10] 4835 	ld	hl, #_g_x1+3
    00001AF4 6E               [ 7] 4836 	ld	l, (hl)
                                   4837 ;	spillPairReg hl
    00001AF5 C5               [11] 4838 	push	bc
    00001AF6 7D               [ 4] 4839 	ld	a, l
    00001AF7 CDrF9r06         [17] 4840 	call	_EraseSprite16
    00001AFA ED 4Br06r00      [20] 4841 	ld	bc, (#(_g_frame + 6) + 0)
    00001AFE ED 5Br06r00      [20] 4842 	ld	de, (#(_g_y0 + 6) + 0)
    00001B02 21r03r00         [10] 4843 	ld	hl, #_g_x0+3
    00001B05 6E               [ 7] 4844 	ld	l, (hl)
                                   4845 ;	spillPairReg hl
    00001B06 C5               [11] 4846 	push	bc
    00001B07 7D               [ 4] 4847 	ld	a, l
    00001B08 CDr00r00         [17] 4848 	call	_CallSpriteFrame_B3
    00001B0B 11r03r00         [10] 4849 	ld	de, #_g_lx+3
    00001B0E 1A               [ 7] 4850 	ld	a, (de)
    00001B0F 4F               [ 4] 4851 	ld	c, a
    00001B10 3Ar03r00         [13] 4852 	ld	a, (#(_g_dx + 3) + 0)
    00001B13 81               [ 4] 4853 	add	a, c
    00001B14 4F               [ 4] 4854 	ld	c, a
    00001B15 12               [ 7] 4855 	ld	(de), a
    00001B16 3E EE            [ 7] 4856 	ld	a, #0xee
    00001B18 91               [ 4] 4857 	sub	a, c
    00001B19 38 05            [12] 4858 	jr	C, 00158$
    00001B1B 79               [ 4] 4859 	ld	a, c
    00001B1C D6 04            [ 7] 4860 	sub	a, #0x04
    00001B1E 30 07            [12] 4861 	jr	NC, 00159$
    00001B20                       4862 00158$:
    00001B20 01r03r00         [10] 4863 	ld	bc, #_g_dx+3
    00001B23 0A               [ 7] 4864 	ld	a, (bc)
    00001B24 ED 44            [ 8] 4865 	neg
    00001B26 02               [ 7] 4866 	ld	(bc), a
    00001B27                       4867 00159$:
    00001B27 01r02r00         [10] 4868 	ld	bc, #_g_x0+2
    00001B2A 3Ar02r00         [13] 4869 	ld	a, (#(_g_lx + 2) + 0)
    00001B2D 02               [ 7] 4870 	ld	(bc), a
    00001B2E 3Ar02r00         [13] 4871 	ld	a, (#(_g_ly + 2) + 0)
    00001B31 DD 86 FF         [19] 4872 	add	a, -1 (ix)
    00001B34 C6 08            [ 7] 4873 	add	a, #0x08
    00001B36 4F               [ 4] 4874 	ld	c, a
    00001B37 06 00            [ 7] 4875 	ld	b, #0x00
    00001B39 ED 43r04r00      [20] 4876 	ld	((_g_y0 + 4)), bc
    00001B3D 3Ar04r00         [13] 4877 	ld	a, (#(_g_y1 + 4) + 0)
    00001B40 5F               [ 4] 4878 	ld	e, a
    00001B41 CB 83            [ 8] 4879 	res	0, e
    00001B43 7B               [ 4] 4880 	ld	a, e
    00001B44 DD 96 FE         [19] 4881 	sub	a, -2 (ix)
    00001B47 C6 F8            [ 7] 4882 	add	a, #0xf8
    00001B49 4F               [ 4] 4883 	ld	c, a
    00001B4A 06 00            [ 7] 4884 	ld	b, #0x00
    00001B4C 69               [ 4] 4885 	ld	l, c
                                   4886 ;	spillPairReg hl
                                   4887 ;	spillPairReg hl
    00001B4D 50               [ 4] 4888 	ld	d, b
    00001B4E 3E F0            [ 7] 4889 	ld	a, #0xf0
    00001B50 BD               [ 4] 4890 	cp	a, l
    00001B51 3E 00            [ 7] 4891 	ld	a, #0x00
    00001B53 9A               [ 4] 4892 	sbc	a, d
    00001B54 30 03            [12] 4893 	jr	NC, 00162$
    00001B56 01 00 00         [10] 4894 	ld	bc, #0x0000
    00001B59                       4895 00162$:
    00001B59 DD 7E 04         [19] 4896 	ld	a, 4 (ix)
    00001B5C 81               [ 4] 4897 	add	a, c
    00001B5D 4F               [ 4] 4898 	ld	c, a
    00001B5E DD 7E 05         [19] 4899 	ld	a, 5 (ix)
    00001B61 88               [ 4] 4900 	adc	a, b
    00001B62 47               [ 4] 4901 	ld	b, a
    00001B63 16 00            [ 7] 4902 	ld	d, #0x00
    00001B65 CB C2            [ 8] 4903 	set	0, d
    00001B67 21r02r00         [10] 4904 	ld	hl, #_g_x1+2
    00001B6A 6E               [ 7] 4905 	ld	l, (hl)
                                   4906 ;	spillPairReg hl
    00001B6B C5               [11] 4907 	push	bc
    00001B6C 7D               [ 4] 4908 	ld	a, l
    00001B6D CDrF9r06         [17] 4909 	call	_EraseSprite16
    00001B70 ED 4Br04r00      [20] 4910 	ld	bc, (#(_g_frame + 4) + 0)
    00001B74 ED 5Br04r00      [20] 4911 	ld	de, (#(_g_y0 + 4) + 0)
    00001B78 21r02r00         [10] 4912 	ld	hl, #_g_x0+2
    00001B7B 6E               [ 7] 4913 	ld	l, (hl)
                                   4914 ;	spillPairReg hl
    00001B7C C5               [11] 4915 	push	bc
    00001B7D 7D               [ 4] 4916 	ld	a, l
    00001B7E CDr00r00         [17] 4917 	call	_CallSpriteFrame_B3
    00001B81 11r02r00         [10] 4918 	ld	de, #_g_lx+2
    00001B84 1A               [ 7] 4919 	ld	a, (de)
    00001B85 4F               [ 4] 4920 	ld	c, a
    00001B86 3Ar02r00         [13] 4921 	ld	a, (#(_g_dx + 2) + 0)
    00001B89 81               [ 4] 4922 	add	a, c
    00001B8A 4F               [ 4] 4923 	ld	c, a
    00001B8B 12               [ 7] 4924 	ld	(de), a
    00001B8C 3E EE            [ 7] 4925 	ld	a, #0xee
    00001B8E 91               [ 4] 4926 	sub	a, c
    00001B8F 38 05            [12] 4927 	jr	C, 00163$
    00001B91 79               [ 4] 4928 	ld	a, c
    00001B92 D6 04            [ 7] 4929 	sub	a, #0x04
    00001B94 30 07            [12] 4930 	jr	NC, 00164$
    00001B96                       4931 00163$:
    00001B96 01r02r00         [10] 4932 	ld	bc, #_g_dx+2
    00001B99 0A               [ 7] 4933 	ld	a, (bc)
    00001B9A ED 44            [ 8] 4934 	neg
    00001B9C 02               [ 7] 4935 	ld	(bc), a
    00001B9D                       4936 00164$:
    00001B9D 01r01r00         [10] 4937 	ld	bc, #_g_x0+1
    00001BA0 3Ar01r00         [13] 4938 	ld	a, (#(_g_lx + 1) + 0)
    00001BA3 02               [ 7] 4939 	ld	(bc), a
    00001BA4 3Ar01r00         [13] 4940 	ld	a, (#(_g_ly + 1) + 0)
    00001BA7 DD 86 FF         [19] 4941 	add	a, -1 (ix)
    00001BAA C6 08            [ 7] 4942 	add	a, #0x08
    00001BAC 4F               [ 4] 4943 	ld	c, a
    00001BAD 06 00            [ 7] 4944 	ld	b, #0x00
    00001BAF ED 43r02r00      [20] 4945 	ld	((_g_y0 + 2)), bc
    00001BB3 3Ar02r00         [13] 4946 	ld	a, (#(_g_y1 + 2) + 0)
    00001BB6 5F               [ 4] 4947 	ld	e, a
    00001BB7 CB 83            [ 8] 4948 	res	0, e
    00001BB9 7B               [ 4] 4949 	ld	a, e
    00001BBA DD 96 FE         [19] 4950 	sub	a, -2 (ix)
    00001BBD C6 F8            [ 7] 4951 	add	a, #0xf8
    00001BBF 4F               [ 4] 4952 	ld	c, a
    00001BC0 06 00            [ 7] 4953 	ld	b, #0x00
    00001BC2 69               [ 4] 4954 	ld	l, c
                                   4955 ;	spillPairReg hl
                                   4956 ;	spillPairReg hl
    00001BC3 50               [ 4] 4957 	ld	d, b
    00001BC4 3E F0            [ 7] 4958 	ld	a, #0xf0
    00001BC6 BD               [ 4] 4959 	cp	a, l
    00001BC7 3E 00            [ 7] 4960 	ld	a, #0x00
    00001BC9 9A               [ 4] 4961 	sbc	a, d
    00001BCA 30 03            [12] 4962 	jr	NC, 00167$
    00001BCC 01 00 00         [10] 4963 	ld	bc, #0x0000
    00001BCF                       4964 00167$:
    00001BCF DD 7E 04         [19] 4965 	ld	a, 4 (ix)
    00001BD2 81               [ 4] 4966 	add	a, c
    00001BD3 4F               [ 4] 4967 	ld	c, a
    00001BD4 DD 7E 05         [19] 4968 	ld	a, 5 (ix)
    00001BD7 88               [ 4] 4969 	adc	a, b
    00001BD8 47               [ 4] 4970 	ld	b, a
    00001BD9 16 00            [ 7] 4971 	ld	d, #0x00
    00001BDB CB C2            [ 8] 4972 	set	0, d
    00001BDD 21r01r00         [10] 4973 	ld	hl, #_g_x1+1
    00001BE0 6E               [ 7] 4974 	ld	l, (hl)
                                   4975 ;	spillPairReg hl
    00001BE1 C5               [11] 4976 	push	bc
    00001BE2 7D               [ 4] 4977 	ld	a, l
    00001BE3 CDrF9r06         [17] 4978 	call	_EraseSprite16
    00001BE6 ED 4Br02r00      [20] 4979 	ld	bc, (#(_g_frame + 2) + 0)
    00001BEA ED 5Br02r00      [20] 4980 	ld	de, (#(_g_y0 + 2) + 0)
    00001BEE 21r01r00         [10] 4981 	ld	hl, #_g_x0+1
    00001BF1 6E               [ 7] 4982 	ld	l, (hl)
                                   4983 ;	spillPairReg hl
    00001BF2 C5               [11] 4984 	push	bc
    00001BF3 7D               [ 4] 4985 	ld	a, l
    00001BF4 CDr00r00         [17] 4986 	call	_CallSpriteFrame_B3
    00001BF7 11r01r00         [10] 4987 	ld	de, #_g_lx+1
    00001BFA 1A               [ 7] 4988 	ld	a, (de)
    00001BFB 4F               [ 4] 4989 	ld	c, a
    00001BFC 3Ar01r00         [13] 4990 	ld	a, (#(_g_dx + 1) + 0)
    00001BFF 81               [ 4] 4991 	add	a, c
    00001C00 4F               [ 4] 4992 	ld	c, a
    00001C01 12               [ 7] 4993 	ld	(de), a
    00001C02 3E EE            [ 7] 4994 	ld	a, #0xee
    00001C04 91               [ 4] 4995 	sub	a, c
    00001C05 38 05            [12] 4996 	jr	C, 00168$
    00001C07 79               [ 4] 4997 	ld	a, c
    00001C08 D6 04            [ 7] 4998 	sub	a, #0x04
    00001C0A 30 07            [12] 4999 	jr	NC, 00169$
    00001C0C                       5000 00168$:
    00001C0C 01r01r00         [10] 5001 	ld	bc, #_g_dx+1
    00001C0F 0A               [ 7] 5002 	ld	a, (bc)
    00001C10 ED 44            [ 8] 5003 	neg
    00001C12 02               [ 7] 5004 	ld	(bc), a
    00001C13                       5005 00169$:
    00001C13 01r00r00         [10] 5006 	ld	bc, #_g_x0+0
    00001C16 3Ar00r00         [13] 5007 	ld	a, (#_g_lx + 0)
    00001C19 02               [ 7] 5008 	ld	(bc), a
    00001C1A 3Ar00r00         [13] 5009 	ld	a, (#_g_ly + 0)
    00001C1D DD 86 FF         [19] 5010 	add	a, -1 (ix)
    00001C20 C6 08            [ 7] 5011 	add	a, #0x08
    00001C22 4F               [ 4] 5012 	ld	c, a
    00001C23 06 00            [ 7] 5013 	ld	b, #0x00
    00001C25 ED 43r00r00      [20] 5014 	ld	(_g_y0), bc
    00001C29 3Ar00r00         [13] 5015 	ld	a, (#_g_y1 + 0)
    00001C2C 5F               [ 4] 5016 	ld	e, a
    00001C2D CB 83            [ 8] 5017 	res	0, e
    00001C2F 7B               [ 4] 5018 	ld	a, e
    00001C30 DD 96 FE         [19] 5019 	sub	a, -2 (ix)
    00001C33 C6 F8            [ 7] 5020 	add	a, #0xf8
    00001C35 4F               [ 4] 5021 	ld	c, a
    00001C36 06 00            [ 7] 5022 	ld	b, #0x00
    00001C38 69               [ 4] 5023 	ld	l, c
                                   5024 ;	spillPairReg hl
                                   5025 ;	spillPairReg hl
    00001C39 50               [ 4] 5026 	ld	d, b
    00001C3A 3E F0            [ 7] 5027 	ld	a, #0xf0
    00001C3C BD               [ 4] 5028 	cp	a, l
    00001C3D 3E 00            [ 7] 5029 	ld	a, #0x00
    00001C3F 9A               [ 4] 5030 	sbc	a, d
    00001C40 30 03            [12] 5031 	jr	NC, 00172$
    00001C42 01 00 00         [10] 5032 	ld	bc, #0x0000
    00001C45                       5033 00172$:
    00001C45 DD 7E 04         [19] 5034 	ld	a, 4 (ix)
    00001C48 81               [ 4] 5035 	add	a, c
    00001C49 4F               [ 4] 5036 	ld	c, a
    00001C4A DD 7E 05         [19] 5037 	ld	a, 5 (ix)
    00001C4D 88               [ 4] 5038 	adc	a, b
    00001C4E 47               [ 4] 5039 	ld	b, a
    00001C4F 16 00            [ 7] 5040 	ld	d, #0x00
    00001C51 CB C2            [ 8] 5041 	set	0, d
    00001C53 21r00r00         [10] 5042 	ld	hl, #_g_x1+0
    00001C56 6E               [ 7] 5043 	ld	l, (hl)
                                   5044 ;	spillPairReg hl
    00001C57 C5               [11] 5045 	push	bc
    00001C58 7D               [ 4] 5046 	ld	a, l
    00001C59 CDrF9r06         [17] 5047 	call	_EraseSprite16
    00001C5C ED 4Br00r00      [20] 5048 	ld	bc, (#_g_frame + 0)
    00001C60 ED 5Br00r00      [20] 5049 	ld	de, (#_g_y0 + 0)
    00001C64 21r00r00         [10] 5050 	ld	hl, #_g_x0+0
    00001C67 6E               [ 7] 5051 	ld	l, (hl)
                                   5052 ;	spillPairReg hl
    00001C68 C5               [11] 5053 	push	bc
    00001C69 7D               [ 4] 5054 	ld	a, l
    00001C6A CDr00r00         [17] 5055 	call	_CallSpriteFrame_B3
    00001C6D 11r00r00         [10] 5056 	ld	de, #_g_lx+0
    00001C70 1A               [ 7] 5057 	ld	a, (de)
    00001C71 4F               [ 4] 5058 	ld	c, a
    00001C72 3Ar00r00         [13] 5059 	ld	a, (#_g_dx + 0)
    00001C75 81               [ 4] 5060 	add	a, c
    00001C76 4F               [ 4] 5061 	ld	c, a
    00001C77 12               [ 7] 5062 	ld	(de), a
    00001C78 3E EE            [ 7] 5063 	ld	a, #0xee
    00001C7A 91               [ 4] 5064 	sub	a, c
    00001C7B 38 05            [12] 5065 	jr	C, 00173$
    00001C7D 79               [ 4] 5066 	ld	a, c
    00001C7E D6 04            [ 7] 5067 	sub	a, #0x04
    00001C80 30 07            [12] 5068 	jr	NC, 00176$
    00001C82                       5069 00173$:
    00001C82 01r00r00         [10] 5070 	ld	bc, #_g_dx+0
    00001C85 0A               [ 7] 5071 	ld	a, (bc)
    00001C86 ED 44            [ 8] 5072 	neg
    00001C88 02               [ 7] 5073 	ld	(bc), a
    00001C89                       5074 00176$:
                                   5075 ;E:\Dropbox\FAUSTO\SVILUPPI\MSX\CODE\C\MSXgl\projects\soccerlgMSX2/soccerlg_s5_b3.c:216: }
    00001C89 DD F9            [10] 5076 	ld	sp, ix
    00001C8B DD E1            [14] 5077 	pop	ix
    00001C8D E1               [10] 5078 	pop	hl
    00001C8E F1               [10] 5079 	pop	af
    00001C8F E9               [ 4] 5080 	jp	(hl)
                                   5081 	.area _SEG5
                                   5082 	.area _INITIALIZER
                                   5083 	.area _CABS (ABS)
