                                      1 ;--------------------------------------------------------
                                      2 ; File Created by SDCC : free open source ANSI-C Compiler
                                      3 ; Version 4.2.0 #13081 (MINGW64)
                                      4 ;--------------------------------------------------------
                                      5 	.module soccerlg_s9_b3
                                      6 	.optsdcc -mz80
                                      7 	
                                      8 ;--------------------------------------------------------
                                      9 ; Public variables in this module
                                     10 ;--------------------------------------------------------
                                     11 	.globl _CheckFieldBoundaries
                                     12 	.globl _UpdateFieldCamera
                                     13 	.globl _UpdateGameState_Init
                                     14 	.globl _UpdateGameState_Restarts
                                     15 	.globl _GetPlayerIdleFrame
                                     16 	.globl _GetPlayerAnimFrame
                                     17 	.globl _EventOffside
                                     18 	.globl _EventHalfTime
                                     19 	.globl _EventBallKicked
                                     20 	.globl _FindReceiver
                                     21 	.globl _SetBallSprite
                                     22 	.globl _PlayerAI
                                     23 	.globl _HideSpriteMessage
                                     24 	.globl _ShowSpriteMessage
                                     25 	.globl _CallFnc_U16_P4B
                                     26 	.globl _CallFnc_U16_P4
                                     27 	.globl _CallFnc_U16_P3
                                     28 	.globl _CallFnc_VOID_16_P1
                                     29 	.globl _CallFnc_VOID_3PTR_U16
                                     30 	.globl _CallFnc_VOID_3PTR
                                     31 	.globl _CallFnc_VOID_P1
                                     32 	.globl _CallFnc_VOID
                                     33 	.globl _g_SLTSL
                                     34 	.globl _g_GRPACY
                                     35 	.globl _g_GRPACX
                                     36 	.globl _g_LOGOPR
                                     37 	.globl _g_CMASK
                                     38 	.globl _g_CLOC
                                     39 	.globl _g_FNKSTR
                                     40 	.globl _g_ATRBYT
                                     41 	.globl _g_BDRCLR
                                     42 	.globl _g_BAKCLR
                                     43 	.globl _g_FORCLR
                                     44 	.globl _g_CSRX
                                     45 	.globl _g_CSRY
                                     46 	.globl _g_CLIKSW
                                     47 	.globl _g_MLTPAT
                                     48 	.globl _g_MLTATR
                                     49 	.globl _g_MLTCGP
                                     50 	.globl _g_MLTCOL
                                     51 	.globl _g_MLTNAM
                                     52 	.globl _g_GRPPAT
                                     53 	.globl _g_GRPATR
                                     54 	.globl _g_GRPCGP
                                     55 	.globl _g_GRPCOL
                                     56 	.globl _g_GRPNAM
                                     57 	.globl _g_T32PAT
                                     58 	.globl _g_T32ATR
                                     59 	.globl _g_T32CGP
                                     60 	.globl _g_T32COL
                                     61 	.globl _g_T32NAM
                                     62 	.globl _g_TXTPAT
                                     63 	.globl _g_TXTATR
                                     64 	.globl _g_TXTCGP
                                     65 	.globl _g_TXTCOL
                                     66 	.globl _g_TXTNAM
                                     67 	.globl _g_CLMLST
                                     68 	.globl _g_CRTCNT
                                     69 	.globl _g_LINLEN
                                     70 	.globl _g_LINL32
                                     71 	.globl _g_LINL40
                                     72 	.globl _g_BDOS
                                     73 	.globl _g_MASTER
                                     74 	.globl _g_RAMAD3
                                     75 	.globl _g_RAMAD2
                                     76 	.globl _g_RAMAD1
                                     77 	.globl _g_RAMAD0
                                     78 	.globl _g_BREAKV
                                     79 	.globl _g_DISKVE
                                     80 	.globl _g_KANJTABLE
                                     81 	.globl _g_STRSRC
                                     82 	.globl _g_SUBRID
                                     83 	.globl _g_CHAR_16
                                     84 	.globl _g_MSXMID
                                     85 	.globl _g_MSXVER
                                     86 	.globl _g_ROMVersion
                                     87 	.globl _g_BASRVN
                                     88 	.globl _g_VDP_DW
                                     89 	.globl _g_VDP_DR
                                     90 	.globl _g_CGTABL
                                     91 	.globl _g_SVFFFD
                                     92 	.globl _g_RG27SAV
                                     93 	.globl _g_RG26SAV
                                     94 	.globl _g_RG25SAV
                                     95 	.globl _g_SVFFF8
                                     96 	.globl _g_MINROM
                                     97 	.globl _g_RG23SAV
                                     98 	.globl _g_RG22SAV
                                     99 	.globl _g_RG21SAV
                                    100 	.globl _g_RG20SAV
                                    101 	.globl _g_RG19SAV
                                    102 	.globl _g_RG18SAV
                                    103 	.globl _g_RG17SAV
                                    104 	.globl _g_RG16SAV
                                    105 	.globl _g_RG15SAV
                                    106 	.globl _g_RG14SAV
                                    107 	.globl _g_RG13SAV
                                    108 	.globl _g_RG12SAV
                                    109 	.globl _g_RG11SAV
                                    110 	.globl _g_RG10SAV
                                    111 	.globl _g_RG09SAV
                                    112 	.globl _g_RG08SAV
                                    113 	.globl _g_PROCNM
                                    114 	.globl _g_SLTWRK
                                    115 	.globl _g_SLTATR
                                    116 	.globl _g_SLTTBL
                                    117 	.globl _g_EXPTBL
                                    118 	.globl _g_MNROM
                                    119 	.globl _g_DRWANG
                                    120 	.globl _g_DRWSCL
                                    121 	.globl _g_DRWFLG
                                    122 	.globl _g_GYPOS
                                    123 	.globl _g_GXPOS
                                    124 	.globl _g_BRDATR
                                    125 	.globl _g_CASPRV
                                    126 	.globl _g_OLDSCR
                                    127 	.globl _g_SCRMOD
                                    128 	.globl _g_FLBMEM
                                    129 	.globl _g_KANAMD
                                    130 	.globl _g_KANAST
                                    131 	.globl _g_CAPST
                                    132 	.globl _g_CSTYLE
                                    133 	.globl _g_CSRSW
                                    134 	.globl _g_INSFLG
                                    135 	.globl _g_ESCCNT
                                    136 	.globl _g_GRPHED
                                    137 	.globl _g_WINWID
                                    138 	.globl _g_LOWLIM
                                    139 	.globl _g_INTCNT
                                    140 	.globl _g_INTVAL
                                    141 	.globl _g_JIFFY
                                    142 	.globl _g_PADX
                                    143 	.globl _g_PADY
                                    144 	.globl _g_INTFLG
                                    145 	.globl _g_RTYCNT
                                    146 	.globl _g_TRPTBL
                                    147 	.globl _g_HIMEM
                                    148 	.globl _g_BOTTOM
                                    149 	.globl _g_PATWRK
                                    150 	.globl _g_LINWRK
                                    151 	.globl _g_KEYBUF
                                    152 	.globl _g_NEWKEY
                                    153 	.globl _g_OLDKEY
                                    154 	.globl _g_CLIKFL
                                    155 	.globl _g_ONGSBF
                                    156 	.globl _g_FNKFLG
                                    157 	.globl _g_FNKSWI
                                    158 	.globl _g_CODSAV
                                    159 	.globl _g_FSTPOS
                                    160 	.globl _g_LINTTB
                                    161 	.globl _g_BASROM
                                    162 	.globl _g_ENSTOP
                                    163 	.globl _g_VCBC
                                    164 	.globl _g_VCBB
                                    165 	.globl _g_VCBA
                                    166 	.globl _g_PLYCNT
                                    167 	.globl _g_MUSICF
                                    168 	.globl _g_QUEUEN
                                    169 	.globl _g_MCLPTR
                                    170 	.globl _g_MCLLEN
                                    171 	.globl _g_SAVVOL
                                    172 	.globl _g_VOICEN
                                    173 	.globl _g_SAVSP
                                    174 	.globl _g_PRSCNT
                                    175 	.globl _g_LSTMOD
                                    176 	.globl _g_LSTCOM
                                    177 	.globl _g_COMMSK
                                    178 	.globl _g_ESTBLS
                                    179 	.globl _g_FLAGS
                                    180 	.globl _g_ERRORS
                                    181 	.globl _g_DATCNT
                                    182 	.globl _g_DEVNUM
                                    183 	.globl _g_OLDINT
                                    184 	.globl _g_OLDSTT
                                    185 	.globl _g_MEXBIh
                                    186 	.globl _g_RSIQLN
                                    187 	.globl _g_RSFCB
                                    188 	.globl _g_TOCNT
                                    189 	.globl _g_RSTMP
                                    190 	.globl _g_YSAVE
                                    191 	.globl _g_XSAVE
                                    192 	.globl _g_NORUSE
                                    193 	.globl _g_MODE
                                    194 	.globl _g_ROMA
                                    195 	.globl _g_CHRCNT
                                    196 	.globl _g_EXBRSA
                                    197 	.globl _g_AVCSAV
                                    198 	.globl _g_ACPAGE
                                    199 	.globl _g_DPPAGE
                                    200 	.globl _g_RS2IQ
                                    201 	.globl _g_VOICCQ
                                    202 	.globl _g_VOICBQ
                                    203 	.globl _g_VOICAQ
                                    204 	.globl _g_QUEBAK
                                    205 	.globl _g_QUETAB
                                    206 	.globl _g_ASPCT2
                                    207 	.globl _g_ASPCT1
                                    208 	.globl _g_HEADER
                                    209 	.globl _g_HIGH
                                    210 	.globl _g_LOW
                                    211 	.globl _g_CS240
                                    212 	.globl _g_CS120
                                    213 	.globl _g_GETPNT
                                    214 	.globl _g_PUTPNT
                                    215 	.globl _g_REPCNT
                                    216 	.globl _g_SCNCNT
                                    217 	.globl _g_FRCNEW
                                    218 	.globl _g_QUEUES
                                    219 	.globl _g_MINUPD
                                    220 	.globl _g_MAXUPD
                                    221 	.globl _g_TRGFLG
                                    222 	.globl _g_STATFL
                                    223 	.globl _g_RG7SAV
                                    224 	.globl _g_RG6SAV
                                    225 	.globl _g_RG5SAV
                                    226 	.globl _g_RG4SAV
                                    227 	.globl _g_RG3SAV
                                    228 	.globl _g_RG2SAV
                                    229 	.globl _g_RG1SAV
                                    230 	.globl _g_RG0SAV
                                    231 	.globl _g_CNSDFG
                                    232 	.globl _g_USRTAB
                                    233 	.globl _g_CLPRIM
                                    234 	.globl _g_WRPRIM
                                    235 	.globl _g_RDPRIM
                                    236 	.globl _UpdateGameState
                                    237 ;--------------------------------------------------------
                                    238 ; special function registers
                                    239 ;--------------------------------------------------------
                         000000A8   240 _g_PortPrimarySlot	=	0x00a8
                         000000A9   241 _g_PortReadKeyboard	=	0x00a9
                         000000AA   242 _g_PortAccessKeyboard	=	0x00aa
                         000000AB   243 _g_PortControl	=	0x00ab
                         00000098   244 _g_VDP_DataPort	=	0x0098
                         00000099   245 _g_VDP_RegPort	=	0x0099
                         00000099   246 _g_VDP_AddrPort	=	0x0099
                         00000099   247 _g_VDP_StatPort	=	0x0099
                         0000009A   248 _g_VDP_PalPort	=	0x009a
                         0000009B   249 _g_VDP_IRegPort	=	0x009b
                         000000A0   250 _g_PSG_RegPort	=	0x00a0
                         000000A1   251 _g_PSG_DataPort	=	0x00a1
                         000000A2   252 _g_PSG_StatPort	=	0x00a2
                         00000010   253 _g_PSG_Ext_RegPort	=	0x0010
                         00000011   254 _g_PSG_Ext_DataPort	=	0x0011
                         00000012   255 _g_PSG_Ext_StatPort	=	0x0012
                         0000007C   256 _g_MSXMusic_IndexPort	=	0x007c
                         0000007D   257 _g_MSXMusic_DataPort	=	0x007d
                         000000C0   258 _g_MSXAudio_IndexPort	=	0x00c0
                         000000C1   259 _g_MSXAudio_DataPort	=	0x00c1
                         000000C2   260 _g_MSXAudio_IndexPort2	=	0x00c2
                         000000C3   261 _g_MSXAudio_DataPort2	=	0x00c3
                         000000B4   262 _g_RTC_AddrPort	=	0x00b4
                         000000B5   263 _g_RTC_DataPort	=	0x00b5
                                    264 ;--------------------------------------------------------
                                    265 ; ram data
                                    266 ;--------------------------------------------------------
                                    267 	.area _DATA
                         0000F3AE   268 _g_LINL40	=	0xf3ae
                         0000F3AF   269 _g_LINL32	=	0xf3af
                         0000F3B0   270 _g_LINLEN	=	0xf3b0
                         0000F3B1   271 _g_CRTCNT	=	0xf3b1
                         0000F3B2   272 _g_CLMLST	=	0xf3b2
                         0000F3B3   273 _g_TXTNAM	=	0xf3b3
                         0000F3B5   274 _g_TXTCOL	=	0xf3b5
                         0000F3B7   275 _g_TXTCGP	=	0xf3b7
                         0000F3B9   276 _g_TXTATR	=	0xf3b9
                         0000F3BB   277 _g_TXTPAT	=	0xf3bb
                         0000F3BD   278 _g_T32NAM	=	0xf3bd
                         0000F3BF   279 _g_T32COL	=	0xf3bf
                         0000F3C1   280 _g_T32CGP	=	0xf3c1
                         0000F3C3   281 _g_T32ATR	=	0xf3c3
                         0000F3C5   282 _g_T32PAT	=	0xf3c5
                         0000F3C7   283 _g_GRPNAM	=	0xf3c7
                         0000F3C9   284 _g_GRPCOL	=	0xf3c9
                         0000F3CB   285 _g_GRPCGP	=	0xf3cb
                         0000F3CD   286 _g_GRPATR	=	0xf3cd
                         0000F3CF   287 _g_GRPPAT	=	0xf3cf
                         0000F3D1   288 _g_MLTNAM	=	0xf3d1
                         0000F3D3   289 _g_MLTCOL	=	0xf3d3
                         0000F3D5   290 _g_MLTCGP	=	0xf3d5
                         0000F3D7   291 _g_MLTATR	=	0xf3d7
                         0000F3D9   292 _g_MLTPAT	=	0xf3d9
                         0000F3DB   293 _g_CLIKSW	=	0xf3db
                         0000F3DC   294 _g_CSRY	=	0xf3dc
                         0000F3DD   295 _g_CSRX	=	0xf3dd
                         0000F3E9   296 _g_FORCLR	=	0xf3e9
                         0000F3EA   297 _g_BAKCLR	=	0xf3ea
                         0000F3EB   298 _g_BDRCLR	=	0xf3eb
                         0000F3F2   299 _g_ATRBYT	=	0xf3f2
                         0000F87F   300 _g_FNKSTR	=	0xf87f
                         0000F92A   301 _g_CLOC	=	0xf92a
                         0000F92C   302 _g_CMASK	=	0xf92c
                         0000FB02   303 _g_LOGOPR	=	0xfb02
                         0000FCB7   304 _g_GRPACX	=	0xfcb7
                         0000FCB9   305 _g_GRPACY	=	0xfcb9
                         0000FFFF   306 _g_SLTSL	=	0xffff
                                    307 ;--------------------------------------------------------
                                    308 ; ram data
                                    309 ;--------------------------------------------------------
                                    310 	.area _INITIALIZED
                                    311 ;--------------------------------------------------------
                                    312 ; absolute external ram data
                                    313 ;--------------------------------------------------------
                                    314 	.area _DABS (ABS)
                                    315 ;--------------------------------------------------------
                                    316 ; global & static initialisations
                                    317 ;--------------------------------------------------------
                                    318 	.area _HOME
                                    319 	.area _GSINIT
                                    320 	.area _GSFINAL
                                    321 	.area _GSINIT
                                    322 ;--------------------------------------------------------
                                    323 ; Home
                                    324 ;--------------------------------------------------------
                                    325 	.area _HOME
                                    326 	.area _HOME
                                    327 ;--------------------------------------------------------
                                    328 ; code
                                    329 ;--------------------------------------------------------
                                    330 	.area _SEG9
                                    331 ;E:\Dropbox\FAUSTO\SVILUPPI\MSX\CODE\C\MSXgl\projects\soccerlgMSX2/soccerlg_s9_b3.c:11: void UpdateGameState(u8* game_state, u8* wait_secs, u8* start_sec, u16 target_ly) 
                                    332 ;	---------------------------------
                                    333 ; Function UpdateGameState
                                    334 ; ---------------------------------
    00000000                        335 _UpdateGameState::
    00000000 DD E5            [15]  336 	push	ix
    00000002 DD 21 00 00      [14]  337 	ld	ix,#0
    00000006 DD 39            [15]  338 	add	ix,sp
    00000008 FD 21 DB FF      [14]  339 	ld	iy, #-37
    0000000C FD 39            [15]  340 	add	iy, sp
    0000000E FD F9            [10]  341 	ld	sp, iy
    00000010 DD 75 FD         [19]  342 	ld	-3 (ix), l
    00000013 DD 74 FE         [19]  343 	ld	-2 (ix), h
    00000016 DD 73 FB         [19]  344 	ld	-5 (ix), e
    00000019 DD 72 FC         [19]  345 	ld	-4 (ix), d
                                    346 ;E:\Dropbox\FAUSTO\SVILUPPI\MSX\CODE\C\MSXgl\projects\soccerlgMSX2/soccerlg_s9_b3.c:13: if (*game_state < 3) {
    0000001C DD 6E FD         [19]  347 	ld	l, -3 (ix)
    0000001F DD 66 FE         [19]  348 	ld	h, -2 (ix)
    00000022 7E               [ 7]  349 	ld	a, (hl)
    00000023 DD 77 FF         [19]  350 	ld	-1 (ix), a
    00000026 D6 03            [ 7]  351 	sub	a, #0x03
    00000028 30 27            [12]  352 	jr	NC, 00362$
                                    353 ;E:\Dropbox\FAUSTO\SVILUPPI\MSX\CODE\C\MSXgl\projects\soccerlgMSX2/soccerlg_s9_b3.c:14: CallFnc_VOID_3PTR_U16(SEG_GAMESTATE_4, UpdateGameState_Init, game_state, wait_secs, start_sec, target_ly);
    0000002A DD 6E 06         [19]  354 	ld	l, 6 (ix)
                                    355 ;	spillPairReg hl
                                    356 ;	spillPairReg hl
    0000002D DD 66 07         [19]  357 	ld	h, 7 (ix)
                                    358 ;	spillPairReg hl
                                    359 ;	spillPairReg hl
    00000030 E5               [11]  360 	push	hl
    00000031 DD 6E 04         [19]  361 	ld	l, 4 (ix)
                                    362 ;	spillPairReg hl
                                    363 ;	spillPairReg hl
    00000034 DD 66 05         [19]  364 	ld	h, 5 (ix)
                                    365 ;	spillPairReg hl
                                    366 ;	spillPairReg hl
    00000037 E5               [11]  367 	push	hl
    00000038 DD 6E FB         [19]  368 	ld	l, -5 (ix)
                                    369 ;	spillPairReg hl
                                    370 ;	spillPairReg hl
    0000003B DD 66 FC         [19]  371 	ld	h, -4 (ix)
                                    372 ;	spillPairReg hl
                                    373 ;	spillPairReg hl
    0000003E E5               [11]  374 	push	hl
    0000003F DD 6E FD         [19]  375 	ld	l, -3 (ix)
                                    376 ;	spillPairReg hl
                                    377 ;	spillPairReg hl
    00000042 DD 66 FE         [19]  378 	ld	h, -2 (ix)
                                    379 ;	spillPairReg hl
                                    380 ;	spillPairReg hl
    00000045 E5               [11]  381 	push	hl
    00000046 11r00r00         [10]  382 	ld	de, #_UpdateGameState_Init
    00000049 3E 0D            [ 7]  383 	ld	a, #0x0d
    0000004B CDr00r00         [17]  384 	call	_CallFnc_VOID_3PTR_U16
    0000004E C3r51r19         [10]  385 	jp	00377$
    00000051                        386 00362$:
                                    387 ;E:\Dropbox\FAUSTO\SVILUPPI\MSX\CODE\C\MSXgl\projects\soccerlgMSX2/soccerlg_s9_b3.c:15: } else if (*game_state == 3) {
    00000051 DD 7E FF         [19]  388 	ld	a, -1 (ix)
    00000054 D6 03            [ 7]  389 	sub	a, #0x03
    00000056 C2r24r19         [10]  390 	jp	NZ,00359$
                                    391 ;E:\Dropbox\FAUSTO\SVILUPPI\MSX\CODE\C\MSXgl\projects\soccerlgMSX2/soccerlg_s9_b3.c:17: if (Mins == 0 && Secs == 0) {
    00000059 3Ar00r00         [13]  392 	ld	a, (_Mins+0)
    0000005C B7               [ 4]  393 	or	a, a
    0000005D 20 6E            [12]  394 	jr	NZ, 00107$
    0000005F 3Ar00r00         [13]  395 	ld	a, (_Secs+0)
    00000062 B7               [ 4]  396 	or	a, a
    00000063 20 68            [12]  397 	jr	NZ, 00107$
                                    398 ;E:\Dropbox\FAUSTO\SVILUPPI\MSX\CODE\C\MSXgl\projects\soccerlgMSX2/soccerlg_s9_b3.c:18: if (Half == 1) {
    00000065 3Ar00r00         [13]  399 	ld	a, (_Half+0)
    00000068 3D               [ 4]  400 	dec	a
    00000069 20 31            [12]  401 	jr	NZ, 00104$
                                    402 ;E:\Dropbox\FAUSTO\SVILUPPI\MSX\CODE\C\MSXgl\projects\soccerlgMSX2/soccerlg_s9_b3.c:19: *game_state = 4;
    0000006B DD 6E FD         [19]  403 	ld	l, -3 (ix)
    0000006E DD 66 FE         [19]  404 	ld	h, -2 (ix)
    00000071 36 04            [10]  405 	ld	(hl), #0x04
                                    406 ;E:\Dropbox\FAUSTO\SVILUPPI\MSX\CODE\C\MSXgl\projects\soccerlgMSX2/soccerlg_s9_b3.c:20: *wait_secs = 2;
    00000073 DD 6E FB         [19]  407 	ld	l, -5 (ix)
    00000076 DD 66 FC         [19]  408 	ld	h, -4 (ix)
    00000079 36 02            [10]  409 	ld	(hl), #0x02
                                    410 ;E:\Dropbox\FAUSTO\SVILUPPI\MSX\CODE\C\MSXgl\projects\soccerlgMSX2/soccerlg_s9_b3.c:21: *start_sec = Frms;
    0000007B DD 4E 04         [19]  411 	ld	c, 4 (ix)
    0000007E DD 46 05         [19]  412 	ld	b, 5 (ix)
    00000081 3Ar00r00         [13]  413 	ld	a, (_Frms+0)
    00000084 02               [ 7]  414 	ld	(bc), a
                                    415 ;E:\Dropbox\FAUSTO\SVILUPPI\MSX\CODE\C\MSXgl\projects\soccerlgMSX2/soccerlg_s9_b3.c:22: CallFnc_VOID_16_P1(SEG_DRAW, ShowSpriteMessage, SPR_MSG_HALFTIME);
    00000085 21 44 01         [10]  416 	ld	hl, #0x0144
    00000088 E5               [11]  417 	push	hl
    00000089 11r00r00         [10]  418 	ld	de, #_ShowSpriteMessage
    0000008C 3E 05            [ 7]  419 	ld	a, #0x05
    0000008E CDr00r00         [17]  420 	call	_CallFnc_VOID_16_P1
                                    421 ;E:\Dropbox\FAUSTO\SVILUPPI\MSX\CODE\C\MSXgl\projects\soccerlgMSX2/soccerlg_s9_b3.c:23: CallFnc_VOID(SEG_EVENTS, EventHalfTime);
    00000091 11r00r00         [10]  422 	ld	de, #_EventHalfTime
    00000094 3E 08            [ 7]  423 	ld	a, #0x08
    00000096 CDr00r00         [17]  424 	call	_CallFnc_VOID
    00000099 C3r51r19         [10]  425 	jp	00377$
    0000009C                        426 00104$:
                                    427 ;E:\Dropbox\FAUSTO\SVILUPPI\MSX\CODE\C\MSXgl\projects\soccerlgMSX2/soccerlg_s9_b3.c:24: } else if (Half == 2) {
    0000009C 3Ar00r00         [13]  428 	ld	a, (_Half+0)
    0000009F D6 02            [ 7]  429 	sub	a, #0x02
    000000A1 C2r51r19         [10]  430 	jp	NZ,00377$
                                    431 ;E:\Dropbox\FAUSTO\SVILUPPI\MSX\CODE\C\MSXgl\projects\soccerlgMSX2/soccerlg_s9_b3.c:25: *game_state = 5;
    000000A4 DD 6E FD         [19]  432 	ld	l, -3 (ix)
    000000A7 DD 66 FE         [19]  433 	ld	h, -2 (ix)
    000000AA 36 05            [10]  434 	ld	(hl), #0x05
                                    435 ;E:\Dropbox\FAUSTO\SVILUPPI\MSX\CODE\C\MSXgl\projects\soccerlgMSX2/soccerlg_s9_b3.c:26: *wait_secs = 2;
    000000AC DD 6E FB         [19]  436 	ld	l, -5 (ix)
    000000AF DD 66 FC         [19]  437 	ld	h, -4 (ix)
    000000B2 36 02            [10]  438 	ld	(hl), #0x02
                                    439 ;E:\Dropbox\FAUSTO\SVILUPPI\MSX\CODE\C\MSXgl\projects\soccerlgMSX2/soccerlg_s9_b3.c:27: *start_sec = Frms;
    000000B4 DD 4E 04         [19]  440 	ld	c, 4 (ix)
    000000B7 DD 46 05         [19]  441 	ld	b, 5 (ix)
    000000BA 3Ar00r00         [13]  442 	ld	a, (_Frms+0)
    000000BD 02               [ 7]  443 	ld	(bc), a
                                    444 ;E:\Dropbox\FAUSTO\SVILUPPI\MSX\CODE\C\MSXgl\projects\soccerlgMSX2/soccerlg_s9_b3.c:28: CallFnc_VOID_16_P1(SEG_DRAW, ShowSpriteMessage, SPR_MSG_TIMEUP);
    000000BE 21 40 01         [10]  445 	ld	hl, #0x0140
    000000C1 E5               [11]  446 	push	hl
    000000C2 11r00r00         [10]  447 	ld	de, #_ShowSpriteMessage
    000000C5 3E 05            [ 7]  448 	ld	a, #0x05
    000000C7 CDr00r00         [17]  449 	call	_CallFnc_VOID_16_P1
                                    450 ;E:\Dropbox\FAUSTO\SVILUPPI\MSX\CODE\C\MSXgl\projects\soccerlgMSX2/soccerlg_s9_b3.c:30: return;
    000000CA C3r51r19         [10]  451 	jp	00377$
    000000CD                        452 00107$:
                                    453 ;E:\Dropbox\FAUSTO\SVILUPPI\MSX\CODE\C\MSXgl\projects\soccerlgMSX2/soccerlg_s9_b3.c:34: if (*wait_secs > 0) {
    000000CD DD 6E FB         [19]  454 	ld	l, -5 (ix)
    000000D0 DD 66 FC         [19]  455 	ld	h, -4 (ix)
    000000D3 7E               [ 7]  456 	ld	a, (hl)
    000000D4 DD 77 FF         [19]  457 	ld	-1 (ix), a
    000000D7 B7               [ 4]  458 	or	a, a
    000000D8 28 45            [12]  459 	jr	Z, 00114$
                                    460 ;E:\Dropbox\FAUSTO\SVILUPPI\MSX\CODE\C\MSXgl\projects\soccerlgMSX2/soccerlg_s9_b3.c:35: if (*start_sec < Frms) { // Frms wrapped from 1 to 60
    000000DA DD 7E 04         [19]  461 	ld	a, 4 (ix)
    000000DD DD 77 F9         [19]  462 	ld	-7 (ix), a
    000000E0 DD 7E 05         [19]  463 	ld	a, 5 (ix)
    000000E3 DD 77 FA         [19]  464 	ld	-6 (ix), a
    000000E6 DD 6E F9         [19]  465 	ld	l, -7 (ix)
    000000E9 DD 66 FA         [19]  466 	ld	h, -6 (ix)
    000000EC 4E               [ 7]  467 	ld	c, (hl)
    000000ED 21r00r00         [10]  468 	ld	hl, #_Frms
    000000F0 79               [ 4]  469 	ld	a, c
    000000F1 96               [ 7]  470 	sub	a, (hl)
    000000F2 30 1E            [12]  471 	jr	NC, 00112$
                                    472 ;E:\Dropbox\FAUSTO\SVILUPPI\MSX\CODE\C\MSXgl\projects\soccerlgMSX2/soccerlg_s9_b3.c:36: (*wait_secs)--;
    000000F4 DD 7E FF         [19]  473 	ld	a, -1 (ix)
    000000F7 3D               [ 4]  474 	dec	a
    000000F8 DD 6E FB         [19]  475 	ld	l, -5 (ix)
    000000FB DD 66 FC         [19]  476 	ld	h, -4 (ix)
    000000FE 77               [ 7]  477 	ld	(hl), a
                                    478 ;E:\Dropbox\FAUSTO\SVILUPPI\MSX\CODE\C\MSXgl\projects\soccerlgMSX2/soccerlg_s9_b3.c:37: if (*wait_secs == 0) {
    000000FF B7               [ 4]  479 	or	a, a
    00000100 20 10            [12]  480 	jr	NZ, 00112$
                                    481 ;E:\Dropbox\FAUSTO\SVILUPPI\MSX\CODE\C\MSXgl\projects\soccerlgMSX2/soccerlg_s9_b3.c:38: CallFnc_VOID(SEG_DRAW, HideSpriteMessage);
    00000102 11r00r00         [10]  482 	ld	de, #_HideSpriteMessage
    00000105 3E 05            [ 7]  483 	ld	a, #0x05
    00000107 CDr00r00         [17]  484 	call	_CallFnc_VOID
                                    485 ;E:\Dropbox\FAUSTO\SVILUPPI\MSX\CODE\C\MSXgl\projects\soccerlgMSX2/soccerlg_s9_b3.c:39: TimerEnabled = TRUE; // Avvia il cronometro alla sparizione della scritta
    0000010A FD 21r00r00      [14]  486 	ld	iy, #_TimerEnabled
    0000010E FD 36 00 01      [19]  487 	ld	0 (iy), #0x01
    00000112                        488 00112$:
                                    489 ;E:\Dropbox\FAUSTO\SVILUPPI\MSX\CODE\C\MSXgl\projects\soccerlgMSX2/soccerlg_s9_b3.c:42: *start_sec = Frms;
    00000112 DD 6E F9         [19]  490 	ld	l, -7 (ix)
    00000115 DD 66 FA         [19]  491 	ld	h, -6 (ix)
    00000118 3Ar00r00         [13]  492 	ld	a, (_Frms+0)
    0000011B 77               [ 7]  493 	ld	(hl), a
                                    494 ;E:\Dropbox\FAUSTO\SVILUPPI\MSX\CODE\C\MSXgl\projects\soccerlgMSX2/soccerlg_s9_b3.c:44: return; // Ferma l'IA e il gioco finché la scritta non sparisce
    0000011C C3r51r19         [10]  495 	jp	00377$
    0000011F                        496 00114$:
                                    497 ;E:\Dropbox\FAUSTO\SVILUPPI\MSX\CODE\C\MSXgl\projects\soccerlgMSX2/soccerlg_s9_b3.c:48: CallFnc_VOID(SEG_FIELD, UpdateFieldCamera);
    0000011F 11r00r00         [10]  498 	ld	de, #_UpdateFieldCamera
    00000122 3E 0A            [ 7]  499 	ld	a, #0x0a
    00000124 CDr00r00         [17]  500 	call	_CallFnc_VOID
                                    501 ;E:\Dropbox\FAUSTO\SVILUPPI\MSX\CODE\C\MSXgl\projects\soccerlgMSX2/soccerlg_s9_b3.c:49: CallFnc_VOID_3PTR(SEG_FIELD, CheckFieldBoundaries, game_state, wait_secs, start_sec);
    00000127 DD 6E 04         [19]  502 	ld	l, 4 (ix)
                                    503 ;	spillPairReg hl
                                    504 ;	spillPairReg hl
    0000012A DD 66 05         [19]  505 	ld	h, 5 (ix)
                                    506 ;	spillPairReg hl
                                    507 ;	spillPairReg hl
    0000012D E5               [11]  508 	push	hl
    0000012E DD 6E FB         [19]  509 	ld	l, -5 (ix)
                                    510 ;	spillPairReg hl
                                    511 ;	spillPairReg hl
    00000131 DD 66 FC         [19]  512 	ld	h, -4 (ix)
                                    513 ;	spillPairReg hl
                                    514 ;	spillPairReg hl
    00000134 E5               [11]  515 	push	hl
    00000135 DD 6E FD         [19]  516 	ld	l, -3 (ix)
                                    517 ;	spillPairReg hl
                                    518 ;	spillPairReg hl
    00000138 DD 66 FE         [19]  519 	ld	h, -2 (ix)
                                    520 ;	spillPairReg hl
                                    521 ;	spillPairReg hl
    0000013B E5               [11]  522 	push	hl
    0000013C 11r00r00         [10]  523 	ld	de, #_CheckFieldBoundaries
    0000013F 3E 0A            [ 7]  524 	ld	a, #0x0a
    00000141 CDr00r00         [17]  525 	call	_CallFnc_VOID_3PTR
                                    526 ;E:\Dropbox\FAUSTO\SVILUPPI\MSX\CODE\C\MSXgl\projects\soccerlgMSX2/soccerlg_s9_b3.c:52: g_h_arrow_x += g_h_arrow_dir;
    00000144 3Ar00r00         [13]  527 	ld	a, (_g_h_arrow_dir+0)
    00000147 DD 77 F9         [19]  528 	ld	-7 (ix), a
    0000014A 07               [ 4]  529 	rlca
    0000014B 9F               [ 4]  530 	sbc	a, a
    0000014C DD 77 FA         [19]  531 	ld	-6 (ix), a
    0000014F 2Ar00r00         [16]  532 	ld	hl, (_g_h_arrow_x)
    00000152 DD 75 F5         [19]  533 	ld	-11 (ix), l
    00000155 DD 74 F6         [19]  534 	ld	-10 (ix), h
    00000158 DD 7E F9         [19]  535 	ld	a, -7 (ix)
    0000015B DD 77 F7         [19]  536 	ld	-9 (ix), a
    0000015E DD 7E FA         [19]  537 	ld	a, -6 (ix)
    00000161 DD 77 F8         [19]  538 	ld	-8 (ix), a
    00000164 DD 7E F7         [19]  539 	ld	a, -9 (ix)
    00000167 DD 86 F5         [19]  540 	add	a, -11 (ix)
    0000016A DD 77 F9         [19]  541 	ld	-7 (ix), a
    0000016D DD 7E F8         [19]  542 	ld	a, -8 (ix)
    00000170 DD 8E F6         [19]  543 	adc	a, -10 (ix)
    00000173 DD 77 FA         [19]  544 	ld	-6 (ix), a
    00000176 DD 6E F9         [19]  545 	ld	l, -7 (ix)
    00000179 DD 66 FA         [19]  546 	ld	h, -6 (ix)
                                    547 ;E:\Dropbox\FAUSTO\SVILUPPI\MSX\CODE\C\MSXgl\projects\soccerlgMSX2/soccerlg_s9_b3.c:53: if (g_h_arrow_x < 80) { g_h_arrow_x = 80; g_h_arrow_dir = 1; }
    0000017C 22r00r00         [16]  548 	ld	(_g_h_arrow_x), hl
    0000017F 7D               [ 4]  549 	ld	a, l
    00000180 D6 50            [ 7]  550 	sub	a, #0x50
    00000182 7C               [ 4]  551 	ld	a, h
    00000183 DE 00            [ 7]  552 	sbc	a, #0x00
    00000185 30 0E            [12]  553 	jr	NC, 00118$
    00000187 21 50 00         [10]  554 	ld	hl, #0x0050
    0000018A 22r00r00         [16]  555 	ld	(_g_h_arrow_x), hl
    0000018D 21r00r00         [10]  556 	ld	hl, #_g_h_arrow_dir
    00000190 36 01            [10]  557 	ld	(hl), #0x01
    00000192 C3rA8r01         [10]  558 	jp	00119$
    00000195                        559 00118$:
                                    560 ;E:\Dropbox\FAUSTO\SVILUPPI\MSX\CODE\C\MSXgl\projects\soccerlgMSX2/soccerlg_s9_b3.c:54: else if (g_h_arrow_x > 162) { g_h_arrow_x = 162; g_h_arrow_dir = -1; }
    00000195 3E A2            [ 7]  561 	ld	a, #0xa2
    00000197 BD               [ 4]  562 	cp	a, l
    00000198 3E 00            [ 7]  563 	ld	a, #0x00
    0000019A 9C               [ 4]  564 	sbc	a, h
    0000019B 30 0B            [12]  565 	jr	NC, 00119$
    0000019D 21 A2 00         [10]  566 	ld	hl, #0x00a2
    000001A0 22r00r00         [16]  567 	ld	(_g_h_arrow_x), hl
    000001A3 21r00r00         [10]  568 	ld	hl, #_g_h_arrow_dir
    000001A6 36 FF            [10]  569 	ld	(hl), #0xff
    000001A8                        570 00119$:
                                    571 ;E:\Dropbox\FAUSTO\SVILUPPI\MSX\CODE\C\MSXgl\projects\soccerlgMSX2/soccerlg_s9_b3.c:58: if (GameMode == GAMEMODE_P1_VS_P2) {
    000001A8 3Ar00r00         [13]  572 	ld	a, (_GameMode+0)
    000001AB 3D               [ 4]  573 	dec	a
    000001AC 20 16            [12]  574 	jr	NZ, 00121$
                                    575 ;E:\Dropbox\FAUSTO\SVILUPPI\MSX\CODE\C\MSXgl\projects\soccerlgMSX2/soccerlg_s9_b3.c:59: SwSprite[24].lx = (u8)g_h_arrow_x;
    000001AE 01r28r02         [10]  576 	ld	bc, #_SwSprite + 552
    000001B1 3Ar00r00         [13]  577 	ld	a, (_g_h_arrow_x+0)
    000001B4 02               [ 7]  578 	ld	(bc), a
                                    579 ;E:\Dropbox\FAUSTO\SVILUPPI\MSX\CODE\C\MSXgl\projects\soccerlgMSX2/soccerlg_s9_b3.c:60: SwSprite[24].ly = 440; 
    000001B5 21 B8 01         [10]  580 	ld	hl, #0x01b8
    000001B8 22r2Cr02         [16]  581 	ld	((_SwSprite + 556)), hl
                                    582 ;E:\Dropbox\FAUSTO\SVILUPPI\MSX\CODE\C\MSXgl\projects\soccerlgMSX2/soccerlg_s9_b3.c:61: SwSprite[24].frame = SPR_BIG_ARROW_BOTTOM;
    000001BB 21 6B 00         [10]  583 	ld	hl, #0x006b
    000001BE 22r37r02         [16]  584 	ld	((_SwSprite + 567)), hl
    000001C1 C3rCAr01         [10]  585 	jp	00122$
    000001C4                        586 00121$:
                                    587 ;E:\Dropbox\FAUSTO\SVILUPPI\MSX\CODE\C\MSXgl\projects\soccerlgMSX2/soccerlg_s9_b3.c:63: SwSprite[24].ly = 1000; // Nascondi
    000001C4 21 E8 03         [10]  588 	ld	hl, #0x03e8
    000001C7 22r2Cr02         [16]  589 	ld	((_SwSprite + 556)), hl
    000001CA                        590 00122$:
                                    591 ;E:\Dropbox\FAUSTO\SVILUPPI\MSX\CODE\C\MSXgl\projects\soccerlgMSX2/soccerlg_s9_b3.c:66: SwSprite[25].lx = (u8)g_h_arrow_x; SwSprite[25].ly = 50; SwSprite[25].frame = SPR_BIG_ARROW_TOP;
    000001CA 01r3Fr02         [10]  592 	ld	bc, #_SwSprite + 575
    000001CD 3Ar00r00         [13]  593 	ld	a, (_g_h_arrow_x+0)
    000001D0 02               [ 7]  594 	ld	(bc), a
    000001D1 21 32 00         [10]  595 	ld	hl, #0x0032
    000001D4 22r43r02         [16]  596 	ld	((_SwSprite + 579)), hl
    000001D7 2E 6C            [ 7]  597 	ld	l, #0x6c
    000001D9 22r4Er02         [16]  598 	ld	((_SwSprite + 590)), hl
                                    599 ;E:\Dropbox\FAUSTO\SVILUPPI\MSX\CODE\C\MSXgl\projects\soccerlgMSX2/soccerlg_s9_b3.c:70: struct ObjectInfo* Ball = &SwSprite[14];
                                    600 ;E:\Dropbox\FAUSTO\SVILUPPI\MSX\CODE\C\MSXgl\projects\soccerlgMSX2/soccerlg_s9_b3.c:72: u8 closest_t1 = 1; u16 min_dist_t1 = 0xFFFF;
    000001DC DD 36 EF 01      [19]  601 	ld	-17 (ix), #0x01
    000001E0 DD 36 F0 FF      [19]  602 	ld	-16 (ix), #0xff
    000001E4 DD 36 F1 FF      [19]  603 	ld	-15 (ix), #0xff
                                    604 ;E:\Dropbox\FAUSTO\SVILUPPI\MSX\CODE\C\MSXgl\projects\soccerlgMSX2/soccerlg_s9_b3.c:73: u8 closest_t2 = 8; u16 min_dist_t2 = 0xFFFF;
    000001E8 DD 36 F2 08      [19]  605 	ld	-14 (ix), #0x08
    000001EC DD 36 F3 FF      [19]  606 	ld	-13 (ix), #0xff
    000001F0 DD 36 F4 FF      [19]  607 	ld	-12 (ix), #0xff
                                    608 ;E:\Dropbox\FAUSTO\SVILUPPI\MSX\CODE\C\MSXgl\projects\soccerlgMSX2/soccerlg_s9_b3.c:75: for (u8 i = 1; i < 7; i++) { 
    000001F4 DD 36 FF 01      [19]  609 	ld	-1 (ix), #0x01
    000001F8                        610 00365$:
    000001F8 DD 7E FF         [19]  611 	ld	a, -1 (ix)
    000001FB D6 07            [ 7]  612 	sub	a, #0x07
    000001FD D2r95r02         [10]  613 	jp	NC, 00125$
                                    614 ;E:\Dropbox\FAUSTO\SVILUPPI\MSX\CODE\C\MSXgl\projects\soccerlgMSX2/soccerlg_s9_b3.c:76: u8 dx_diff = (u8)(SwSprite[i].lx - Ball->lx);
    00000200 DD 4E FF         [19]  615 	ld	c, -1 (ix)
    00000203 06 00            [ 7]  616 	ld	b, #0x00
    00000205 69               [ 4]  617 	ld	l, c
    00000206 60               [ 4]  618 	ld	h, b
    00000207 29               [11]  619 	add	hl, hl
    00000208 29               [11]  620 	add	hl, hl
    00000209 09               [11]  621 	add	hl, bc
    0000020A 29               [11]  622 	add	hl, hl
    0000020B 09               [11]  623 	add	hl, bc
    0000020C 29               [11]  624 	add	hl, hl
    0000020D 09               [11]  625 	add	hl, bc
    0000020E 11r00r00         [10]  626 	ld	de, #_SwSprite
    00000211 19               [11]  627 	add	hl, de
    00000212 4D               [ 4]  628 	ld	c, l
    00000213 44               [ 4]  629 	ld	b, h
    00000214 0A               [ 7]  630 	ld	a, (bc)
    00000215 21r42r01         [10]  631 	ld	hl, #(_SwSprite + 322)
    00000218 5E               [ 7]  632 	ld	e, (hl)
    00000219 93               [ 4]  633 	sub	a, e
                                    634 ;E:\Dropbox\FAUSTO\SVILUPPI\MSX\CODE\C\MSXgl\projects\soccerlgMSX2/soccerlg_s9_b3.c:77: u16 dist_x = (dx_diff < 128) ? dx_diff : (256 - dx_diff);
    0000021A 5F               [ 4]  635 	ld	e, a
    0000021B 16 00            [ 7]  636 	ld	d, #0x00
    0000021D D6 80            [ 7]  637 	sub	a, #0x80
    0000021F 30 04            [12]  638 	jr	NC, 00379$
    00000221 7A               [ 4]  639 	ld	a, d
    00000222 C3r2Br02         [10]  640 	jp	00380$
    00000225                        641 00379$:
    00000225 AF               [ 4]  642 	xor	a, a
    00000226 93               [ 4]  643 	sub	a, e
    00000227 5F               [ 4]  644 	ld	e, a
    00000228 3E 01            [ 7]  645 	ld	a, #0x01
    0000022A 9A               [ 4]  646 	sbc	a, d
    0000022B                        647 00380$:
    0000022B DD 73 F5         [19]  648 	ld	-11 (ix), e
    0000022E DD 77 F6         [19]  649 	ld	-10 (ix), a
                                    650 ;E:\Dropbox\FAUSTO\SVILUPPI\MSX\CODE\C\MSXgl\projects\soccerlgMSX2/soccerlg_s9_b3.c:78: u16 dy_diff = (u16)(SwSprite[i].ly - Ball->ly) & 511;
    00000231 21 04 00         [10]  651 	ld	hl, #4
    00000234 09               [11]  652 	add	hl, bc
    00000235 4E               [ 7]  653 	ld	c, (hl)
    00000236 23               [ 6]  654 	inc	hl
    00000237 46               [ 7]  655 	ld	b, (hl)
    00000238 2Ar46r01         [16]  656 	ld	hl, (#(_SwSprite + 326) + 0)
    0000023B 79               [ 4]  657 	ld	a, c
    0000023C 95               [ 4]  658 	sub	a, l
    0000023D 4F               [ 4]  659 	ld	c, a
    0000023E 78               [ 4]  660 	ld	a, b
    0000023F 9C               [ 4]  661 	sbc	a, h
    00000240 E6 01            [ 7]  662 	and	a, #0x01
    00000242 DD 71 F7         [19]  663 	ld	-9 (ix), c
                                    664 ;E:\Dropbox\FAUSTO\SVILUPPI\MSX\CODE\C\MSXgl\projects\soccerlgMSX2/soccerlg_s9_b3.c:79: u16 dist_y = (dy_diff < 256) ? dy_diff : (512 - dy_diff);
    00000245 DD 77 F8         [19]  665 	ld	-8 (ix), a
    00000248 D6 01            [ 7]  666 	sub	a, #0x01
    0000024A 30 0F            [12]  667 	jr	NC, 00381$
    0000024C DD 7E F7         [19]  668 	ld	a, -9 (ix)
    0000024F DD 77 F9         [19]  669 	ld	-7 (ix), a
    00000252 DD 7E F8         [19]  670 	ld	a, -8 (ix)
    00000255 DD 77 FA         [19]  671 	ld	-6 (ix), a
    00000258 C3r6Ar02         [10]  672 	jp	00382$
    0000025B                        673 00381$:
    0000025B AF               [ 4]  674 	xor	a, a
    0000025C DD 96 F7         [19]  675 	sub	a, -9 (ix)
    0000025F DD 77 F9         [19]  676 	ld	-7 (ix), a
    00000262 3E 02            [ 7]  677 	ld	a, #0x02
    00000264 DD 9E F8         [19]  678 	sbc	a, -8 (ix)
    00000267 DD 77 FA         [19]  679 	ld	-6 (ix), a
    0000026A                        680 00382$:
    0000026A DD 7E F9         [19]  681 	ld	a, -7 (ix)
    0000026D DD 46 FA         [19]  682 	ld	b, -6 (ix)
                                    683 ;E:\Dropbox\FAUSTO\SVILUPPI\MSX\CODE\C\MSXgl\projects\soccerlgMSX2/soccerlg_s9_b3.c:80: if (dist_x + dist_y < min_dist_t1) { min_dist_t1 = dist_x + dist_y; closest_t1 = i; }
    00000270 DD 86 F5         [19]  684 	add	a, -11 (ix)
    00000273 4F               [ 4]  685 	ld	c, a
    00000274 78               [ 4]  686 	ld	a, b
    00000275 DD 8E F6         [19]  687 	adc	a, -10 (ix)
    00000278 47               [ 4]  688 	ld	b, a
    00000279 79               [ 4]  689 	ld	a, c
    0000027A DD 96 F0         [19]  690 	sub	a, -16 (ix)
    0000027D 78               [ 4]  691 	ld	a, b
    0000027E DD 9E F1         [19]  692 	sbc	a, -15 (ix)
    00000281 30 0C            [12]  693 	jr	NC, 00366$
    00000283 DD 71 F0         [19]  694 	ld	-16 (ix), c
    00000286 DD 70 F1         [19]  695 	ld	-15 (ix), b
    00000289 DD 7E FF         [19]  696 	ld	a, -1 (ix)
    0000028C DD 77 EF         [19]  697 	ld	-17 (ix), a
    0000028F                        698 00366$:
                                    699 ;E:\Dropbox\FAUSTO\SVILUPPI\MSX\CODE\C\MSXgl\projects\soccerlgMSX2/soccerlg_s9_b3.c:75: for (u8 i = 1; i < 7; i++) { 
    0000028F DD 34 FF         [23]  700 	inc	-1 (ix)
    00000292 C3rF8r01         [10]  701 	jp	00365$
    00000295                        702 00125$:
                                    703 ;E:\Dropbox\FAUSTO\SVILUPPI\MSX\CODE\C\MSXgl\projects\soccerlgMSX2/soccerlg_s9_b3.c:82: for (u8 i = 8; i < 14; i++) {
    00000295 0E 08            [ 7]  704 	ld	c, #0x08
    00000297                        705 00368$:
    00000297 79               [ 4]  706 	ld	a, c
    00000298 D6 0E            [ 7]  707 	sub	a, #0x0e
    0000029A 30 76            [12]  708 	jr	NC, 00128$
                                    709 ;E:\Dropbox\FAUSTO\SVILUPPI\MSX\CODE\C\MSXgl\projects\soccerlgMSX2/soccerlg_s9_b3.c:83: u8 dx_diff = (u8)(SwSprite[i].lx - Ball->lx);
    0000029C 06 00            [ 7]  710 	ld	b, #0x00
    0000029E 69               [ 4]  711 	ld	l, c
    0000029F 60               [ 4]  712 	ld	h, b
    000002A0 29               [11]  713 	add	hl, hl
    000002A1 29               [11]  714 	add	hl, hl
    000002A2 09               [11]  715 	add	hl, bc
    000002A3 29               [11]  716 	add	hl, hl
    000002A4 09               [11]  717 	add	hl, bc
    000002A5 29               [11]  718 	add	hl, hl
    000002A6 09               [11]  719 	add	hl, bc
    000002A7 11r00r00         [10]  720 	ld	de, #_SwSprite
    000002AA 19               [11]  721 	add	hl, de
    000002AB DD 75 F7         [19]  722 	ld	-9 (ix), l
    000002AE DD 74 F8         [19]  723 	ld	-8 (ix), h
    000002B1 7E               [ 7]  724 	ld	a, (hl)
    000002B2 21r42r01         [10]  725 	ld	hl, #(_SwSprite + 322)
    000002B5 46               [ 7]  726 	ld	b, (hl)
    000002B6 90               [ 4]  727 	sub	a, b
                                    728 ;E:\Dropbox\FAUSTO\SVILUPPI\MSX\CODE\C\MSXgl\projects\soccerlgMSX2/soccerlg_s9_b3.c:84: u16 dist_x = (dx_diff < 128) ? dx_diff : (256 - dx_diff);
    000002B7 5F               [ 4]  729 	ld	e, a
    000002B8 16 00            [ 7]  730 	ld	d, #0x00
    000002BA D6 80            [ 7]  731 	sub	a, #0x80
    000002BC 30 04            [12]  732 	jr	NC, 00383$
    000002BE 7A               [ 4]  733 	ld	a, d
    000002BF C3rC8r02         [10]  734 	jp	00384$
    000002C2                        735 00383$:
    000002C2 AF               [ 4]  736 	xor	a, a
    000002C3 93               [ 4]  737 	sub	a, e
    000002C4 5F               [ 4]  738 	ld	e, a
    000002C5 3E 01            [ 7]  739 	ld	a, #0x01
    000002C7 9A               [ 4]  740 	sbc	a, d
    000002C8                        741 00384$:
    000002C8 DD 73 F9         [19]  742 	ld	-7 (ix), e
    000002CB DD 77 FA         [19]  743 	ld	-6 (ix), a
                                    744 ;E:\Dropbox\FAUSTO\SVILUPPI\MSX\CODE\C\MSXgl\projects\soccerlgMSX2/soccerlg_s9_b3.c:85: u16 dy_diff = (u16)(SwSprite[i].ly - Ball->ly) & 511;
    000002CE DD 5E F7         [19]  745 	ld	e, -9 (ix)
    000002D1 DD 56 F8         [19]  746 	ld	d, -8 (ix)
    000002D4 21 04 00         [10]  747 	ld	hl, #4
    000002D7 19               [11]  748 	add	hl, de
    000002D8 46               [ 7]  749 	ld	b, (hl)
    000002D9 23               [ 6]  750 	inc	hl
    000002DA 56               [ 7]  751 	ld	d, (hl)
    000002DB 2Ar46r01         [16]  752 	ld	hl, (#(_SwSprite + 326) + 0)
    000002DE 78               [ 4]  753 	ld	a, b
    000002DF 95               [ 4]  754 	sub	a, l
    000002E0 5F               [ 4]  755 	ld	e, a
    000002E1 7A               [ 4]  756 	ld	a, d
    000002E2 9C               [ 4]  757 	sbc	a, h
    000002E3 E6 01            [ 7]  758 	and	a, #0x01
                                    759 ;E:\Dropbox\FAUSTO\SVILUPPI\MSX\CODE\C\MSXgl\projects\soccerlgMSX2/soccerlg_s9_b3.c:86: u16 dist_y = (dy_diff < 256) ? dy_diff : (512 - dy_diff);
                                    760 ;	spillPairReg hl
                                    761 ;	spillPairReg hl
    000002E5 57               [ 4]  762 	ld	d, a
    000002E6 D6 01            [ 7]  763 	sub	a, #0x01
    000002E8 38 07            [12]  764 	jr	C, 00386$
    000002EA 21 00 02         [10]  765 	ld	hl, #0x0200
    000002ED BF               [ 4]  766 	cp	a, a
    000002EE ED 52            [15]  767 	sbc	hl, de
    000002F0 EB               [ 4]  768 	ex	de, hl
    000002F1                        769 00386$:
    000002F1 7B               [ 4]  770 	ld	a, e
                                    771 ;E:\Dropbox\FAUSTO\SVILUPPI\MSX\CODE\C\MSXgl\projects\soccerlgMSX2/soccerlg_s9_b3.c:87: if (dist_x + dist_y < min_dist_t2) { min_dist_t2 = dist_x + dist_y; closest_t2 = i; }
    000002F2 DD 86 F9         [19]  772 	add	a, -7 (ix)
    000002F5 47               [ 4]  773 	ld	b, a
    000002F6 7A               [ 4]  774 	ld	a, d
    000002F7 DD 8E FA         [19]  775 	adc	a, -6 (ix)
    000002FA 5F               [ 4]  776 	ld	e, a
    000002FB 78               [ 4]  777 	ld	a, b
    000002FC DD 96 F3         [19]  778 	sub	a, -13 (ix)
    000002FF 7B               [ 4]  779 	ld	a, e
    00000300 DD 9E F4         [19]  780 	sbc	a, -12 (ix)
    00000303 30 09            [12]  781 	jr	NC, 00369$
    00000305 DD 70 F3         [19]  782 	ld	-13 (ix), b
    00000308 DD 73 F4         [19]  783 	ld	-12 (ix), e
    0000030B DD 71 F2         [19]  784 	ld	-14 (ix), c
    0000030E                        785 00369$:
                                    786 ;E:\Dropbox\FAUSTO\SVILUPPI\MSX\CODE\C\MSXgl\projects\soccerlgMSX2/soccerlg_s9_b3.c:82: for (u8 i = 8; i < 14; i++) {
    0000030E 0C               [ 4]  787 	inc	c
    0000030F C3r97r02         [10]  788 	jp	00368$
    00000312                        789 00128$:
                                    790 ;E:\Dropbox\FAUSTO\SVILUPPI\MSX\CODE\C\MSXgl\projects\soccerlgMSX2/soccerlg_s9_b3.c:91: T2_Carrier = closest_t2;
    00000312 DD 7E F2         [19]  791 	ld	a, -14 (ix)
    00000315 32r00r00         [13]  792 	ld	(_T2_Carrier+0), a
                                    793 ;E:\Dropbox\FAUSTO\SVILUPPI\MSX\CODE\C\MSXgl\projects\soccerlgMSX2/soccerlg_s9_b3.c:92: if (GameMode == GAMEMODE_P1_VS_P2) T1_Carrier = closest_t1;
    00000318 3Ar00r00         [13]  794 	ld	a, (_GameMode+0)
    0000031B 3D               [ 4]  795 	dec	a
    0000031C 20 09            [12]  796 	jr	NZ, 00130$
    0000031E DD 7E EF         [19]  797 	ld	a, -17 (ix)
    00000321 32r00r00         [13]  798 	ld	(_T1_Carrier+0), a
    00000324 C3r2Cr03         [10]  799 	jp	00131$
    00000327                        800 00130$:
                                    801 ;E:\Dropbox\FAUSTO\SVILUPPI\MSX\CODE\C\MSXgl\projects\soccerlgMSX2/soccerlg_s9_b3.c:93: else T1_Carrier = 0xFF;
    00000327 21r00r00         [10]  802 	ld	hl, #_T1_Carrier
    0000032A 36 FF            [10]  803 	ld	(hl), #0xff
    0000032C                        804 00131$:
                                    805 ;E:\Dropbox\FAUSTO\SVILUPPI\MSX\CODE\C\MSXgl\projects\soccerlgMSX2/soccerlg_s9_b3.c:96: if (min_dist_t2 <= 24) T2_Receiver = (u8)CallFnc_U16_P4B(SEG_LOGIC, FindReceiver, T2_Carrier, 0xFF, g_last_dx[1], g_last_dy[1]);
    0000032C DD 4E F3         [19]  806 	ld	c, -13 (ix)
    0000032F DD 46 F4         [19]  807 	ld	b, -12 (ix)
    00000332 3E 18            [ 7]  808 	ld	a, #0x18
    00000334 B9               [ 4]  809 	cp	a, c
    00000335 3E 00            [ 7]  810 	ld	a, #0x00
    00000337 98               [ 4]  811 	sbc	a, b
    00000338 38 24            [12]  812 	jr	C, 00133$
    0000033A 21r01r00         [10]  813 	ld	hl, #_g_last_dy+1
    0000033D 46               [ 7]  814 	ld	b, (hl)
    0000033E 3Ar01r00         [13]  815 	ld	a, (#(_g_last_dx + 1) + 0)
    00000341 C5               [11]  816 	push	bc
    00000342 33               [ 6]  817 	inc	sp
    00000343 67               [ 4]  818 	ld	h, a
    00000344 2E FF            [ 7]  819 	ld	l, #0xff
    00000346 E5               [11]  820 	push	hl
    00000347 3Ar00r00         [13]  821 	ld	a, (_T2_Carrier+0)
    0000034A F5               [11]  822 	push	af
    0000034B 33               [ 6]  823 	inc	sp
    0000034C 11r00r00         [10]  824 	ld	de, #_FindReceiver
    0000034F 3E 06            [ 7]  825 	ld	a, #0x06
    00000351 CDr00r00         [17]  826 	call	_CallFnc_U16_P4B
    00000354 FD 21r00r00      [14]  827 	ld	iy, #_T2_Receiver
    00000358 FD 73 00         [19]  828 	ld	0 (iy), e
    0000035B C3r66r03         [10]  829 	jp	00134$
    0000035E                        830 00133$:
                                    831 ;E:\Dropbox\FAUSTO\SVILUPPI\MSX\CODE\C\MSXgl\projects\soccerlgMSX2/soccerlg_s9_b3.c:97: else T2_Receiver = 0xFF;
    0000035E FD 21r00r00      [14]  832 	ld	iy, #_T2_Receiver
    00000362 FD 36 00 FF      [19]  833 	ld	0 (iy), #0xff
    00000366                        834 00134$:
                                    835 ;E:\Dropbox\FAUSTO\SVILUPPI\MSX\CODE\C\MSXgl\projects\soccerlgMSX2/soccerlg_s9_b3.c:99: if (GameMode == GAMEMODE_P1_VS_P2) {
    00000366 3Ar00r00         [13]  836 	ld	a, (_GameMode+0)
    00000369 3D               [ 4]  837 	dec	a
    0000036A 20 3A            [12]  838 	jr	NZ, 00139$
                                    839 ;E:\Dropbox\FAUSTO\SVILUPPI\MSX\CODE\C\MSXgl\projects\soccerlgMSX2/soccerlg_s9_b3.c:100: if (min_dist_t1 <= 24) T1_Receiver = (u8)CallFnc_U16_P4B(SEG_LOGIC, FindReceiver, T1_Carrier, 0xFF, g_last_dx[0], g_last_dy[0]);
    0000036C DD 4E F0         [19]  840 	ld	c, -16 (ix)
    0000036F DD 46 F1         [19]  841 	ld	b, -15 (ix)
    00000372 3E 18            [ 7]  842 	ld	a, #0x18
    00000374 B9               [ 4]  843 	cp	a, c
    00000375 3E 00            [ 7]  844 	ld	a, #0x00
    00000377 98               [ 4]  845 	sbc	a, b
    00000378 38 24            [12]  846 	jr	C, 00136$
    0000037A 21r00r00         [10]  847 	ld	hl, #_g_last_dy+0
    0000037D 46               [ 7]  848 	ld	b, (hl)
    0000037E 3Ar00r00         [13]  849 	ld	a, (#_g_last_dx + 0)
    00000381 C5               [11]  850 	push	bc
    00000382 33               [ 6]  851 	inc	sp
    00000383 67               [ 4]  852 	ld	h, a
    00000384 2E FF            [ 7]  853 	ld	l, #0xff
    00000386 E5               [11]  854 	push	hl
    00000387 3Ar00r00         [13]  855 	ld	a, (_T1_Carrier+0)
    0000038A F5               [11]  856 	push	af
    0000038B 33               [ 6]  857 	inc	sp
    0000038C 11r00r00         [10]  858 	ld	de, #_FindReceiver
    0000038F 3E 06            [ 7]  859 	ld	a, #0x06
    00000391 CDr00r00         [17]  860 	call	_CallFnc_U16_P4B
    00000394 FD 21r00r00      [14]  861 	ld	iy, #_T1_Receiver
    00000398 FD 73 00         [19]  862 	ld	0 (iy), e
    0000039B C3rA6r03         [10]  863 	jp	00139$
    0000039E                        864 00136$:
                                    865 ;E:\Dropbox\FAUSTO\SVILUPPI\MSX\CODE\C\MSXgl\projects\soccerlgMSX2/soccerlg_s9_b3.c:101: else T1_Receiver = 0xFF;
    0000039E FD 21r00r00      [14]  866 	ld	iy, #_T1_Receiver
    000003A2 FD 36 00 FF      [19]  867 	ld	0 (iy), #0xff
    000003A6                        868 00139$:
                                    869 ;E:\Dropbox\FAUSTO\SVILUPPI\MSX\CODE\C\MSXgl\projects\soccerlgMSX2/soccerlg_s9_b3.c:107: if (Ball->anim > 0) {
    000003A6 21r55r01         [10]  870 	ld	hl, #(_SwSprite + 341)
    000003A9 7E               [ 7]  871 	ld	a, (hl)
    000003AA DD 77 F9         [19]  872 	ld	-7 (ix), a
    000003AD 23               [ 6]  873 	inc	hl
    000003AE 7E               [ 7]  874 	ld	a, (hl)
    000003AF DD 77 FA         [19]  875 	ld	-6 (ix), a
    000003B2 DD B6 F9         [19]  876 	or	a, -7 (ix)
    000003B5 CArF7r0A         [10]  877 	jp	Z, 00210$
                                    878 ;E:\Dropbox\FAUSTO\SVILUPPI\MSX\CODE\C\MSXgl\projects\soccerlgMSX2/soccerlg_s9_b3.c:108: if (Ball->anim == 5) {
    000003B8 DD 7E F9         [19]  879 	ld	a, -7 (ix)
    000003BB DD 46 FA         [19]  880 	ld	b, -6 (ix)
    000003BE D6 05            [ 7]  881 	sub	a, #0x05
    000003C0 B0               [ 4]  882 	or	a, b
    000003C1 C2r0Fr0A         [10]  883 	jp	NZ,00207$
                                    884 ;E:\Dropbox\FAUSTO\SVILUPPI\MSX\CODE\C\MSXgl\projects\soccerlgMSX2/soccerlg_s9_b3.c:110: u8 progress = Ball->count; // 0 = inizio da tiratore, max = fine verso ricevitore
    000003C4 3Ar57r01         [13]  885 	ld	a, (#(_SwSprite + 343) + 0)
    000003C7 DD 77 DD         [19]  886 	ld	-35 (ix), a
                                    887 ;E:\Dropbox\FAUSTO\SVILUPPI\MSX\CODE\C\MSXgl\projects\soccerlgMSX2/soccerlg_s9_b3.c:111: u8 half_frame = g_pass_max_frames >> 1; // metà del percorso
    000003CA 3Ar00r00         [13]  888 	ld	a, (_g_pass_max_frames+0)
    000003CD CB 3F            [ 8]  889 	srl	a
    000003CF DD 77 DE         [19]  890 	ld	-34 (ix), a
                                    891 ;E:\Dropbox\FAUSTO\SVILUPPI\MSX\CODE\C\MSXgl\projects\soccerlgMSX2/soccerlg_s9_b3.c:113: i16 dx_total = (i16)g_pass_target_x - (i16)g_pass_start_x;
    000003D2 2Ar00r00         [16]  892 	ld	hl, (_g_pass_target_x)
    000003D5 DD 75 F5         [19]  893 	ld	-11 (ix), l
    000003D8 DD 74 F6         [19]  894 	ld	-10 (ix), h
    000003DB 2Ar00r00         [16]  895 	ld	hl, (_g_pass_start_x)
    000003DE DD 75 F7         [19]  896 	ld	-9 (ix), l
    000003E1 DD 74 F8         [19]  897 	ld	-8 (ix), h
    000003E4 DD 7E F5         [19]  898 	ld	a, -11 (ix)
    000003E7 DD 96 F7         [19]  899 	sub	a, -9 (ix)
    000003EA DD 77 F9         [19]  900 	ld	-7 (ix), a
    000003ED DD 7E F6         [19]  901 	ld	a, -10 (ix)
    000003F0 DD 9E F8         [19]  902 	sbc	a, -8 (ix)
    000003F3 DD 77 FA         [19]  903 	ld	-6 (ix), a
    000003F6 DD 7E F9         [19]  904 	ld	a, -7 (ix)
    000003F9 DD 77 DF         [19]  905 	ld	-33 (ix), a
    000003FC DD 7E FA         [19]  906 	ld	a, -6 (ix)
    000003FF DD 77 E0         [19]  907 	ld	-32 (ix), a
                                    908 ;E:\Dropbox\FAUSTO\SVILUPPI\MSX\CODE\C\MSXgl\projects\soccerlgMSX2/soccerlg_s9_b3.c:114: i16 dy_total = (i16)g_pass_target_y - (i16)g_pass_start_y;
    00000402 2Ar00r00         [16]  909 	ld	hl, (_g_pass_target_y)
    00000405 DD 75 F5         [19]  910 	ld	-11 (ix), l
    00000408 DD 74 F6         [19]  911 	ld	-10 (ix), h
    0000040B 2Ar00r00         [16]  912 	ld	hl, (_g_pass_start_y)
    0000040E DD 75 F7         [19]  913 	ld	-9 (ix), l
    00000411 DD 74 F8         [19]  914 	ld	-8 (ix), h
    00000414 DD 7E F5         [19]  915 	ld	a, -11 (ix)
    00000417 DD 96 F7         [19]  916 	sub	a, -9 (ix)
    0000041A DD 77 F9         [19]  917 	ld	-7 (ix), a
    0000041D DD 7E F6         [19]  918 	ld	a, -10 (ix)
    00000420 DD 9E F8         [19]  919 	sbc	a, -8 (ix)
    00000423 DD 77 FA         [19]  920 	ld	-6 (ix), a
    00000426 DD 7E F9         [19]  921 	ld	a, -7 (ix)
    00000429 DD 77 E9         [19]  922 	ld	-23 (ix), a
    0000042C DD 7E FA         [19]  923 	ld	a, -6 (ix)
    0000042F DD 77 EA         [19]  924 	ld	-22 (ix), a
                                    925 ;E:\Dropbox\FAUSTO\SVILUPPI\MSX\CODE\C\MSXgl\projects\soccerlgMSX2/soccerlg_s9_b3.c:115: bool hit_post = FALSE;
    00000432 DD 36 FF 00      [19]  926 	ld	-1 (ix), #0x00
                                    927 ;E:\Dropbox\FAUSTO\SVILUPPI\MSX\CODE\C\MSXgl\projects\soccerlgMSX2/soccerlg_s9_b3.c:118: if (progress == 0) {
    00000436 DD 7E DD         [19]  928 	ld	a, -35 (ix)
    00000439 B7               [ 4]  929 	or	a, a
    0000043A 20 15            [12]  930 	jr	NZ, 00144$
                                    931 ;E:\Dropbox\FAUSTO\SVILUPPI\MSX\CODE\C\MSXgl\projects\soccerlgMSX2/soccerlg_s9_b3.c:119: Ball->lx = g_pass_start_x;
    0000043C 3Ar00r00         [13]  932 	ld	a, (_g_pass_start_x+0)
    0000043F 32r42r01         [13]  933 	ld	(#(_SwSprite + 322)),a
                                    934 ;E:\Dropbox\FAUSTO\SVILUPPI\MSX\CODE\C\MSXgl\projects\soccerlgMSX2/soccerlg_s9_b3.c:120: Ball->ly = g_pass_start_y;
    00000442 21r46r01         [10]  935 	ld	hl, #(_SwSprite + 326)
    00000445 3Ar00r00         [13]  936 	ld	a, (_g_pass_start_y+0)
    00000448 77               [ 7]  937 	ld	(hl), a
    00000449 23               [ 6]  938 	inc	hl
    0000044A 3Ar01r00         [13]  939 	ld	a, (_g_pass_start_y+1)
    0000044D 77               [ 7]  940 	ld	(hl), a
    0000044E C3rE1r04         [10]  941 	jp	00145$
    00000451                        942 00144$:
                                    943 ;E:\Dropbox\FAUSTO\SVILUPPI\MSX\CODE\C\MSXgl\projects\soccerlgMSX2/soccerlg_s9_b3.c:121: } else if (progress >= g_pass_max_frames) {
    00000451 21r00r00         [10]  944 	ld	hl, #_g_pass_max_frames
    00000454 DD 7E DD         [19]  945 	ld	a, -35 (ix)
    00000457 96               [ 7]  946 	sub	a, (hl)
    00000458 38 15            [12]  947 	jr	C, 00141$
                                    948 ;E:\Dropbox\FAUSTO\SVILUPPI\MSX\CODE\C\MSXgl\projects\soccerlgMSX2/soccerlg_s9_b3.c:122: Ball->lx = g_pass_target_x;
    0000045A 3Ar00r00         [13]  949 	ld	a, (_g_pass_target_x+0)
    0000045D 32r42r01         [13]  950 	ld	(#(_SwSprite + 322)),a
                                    951 ;E:\Dropbox\FAUSTO\SVILUPPI\MSX\CODE\C\MSXgl\projects\soccerlgMSX2/soccerlg_s9_b3.c:123: Ball->ly = g_pass_target_y;
    00000460 21r46r01         [10]  952 	ld	hl, #(_SwSprite + 326)
    00000463 3Ar00r00         [13]  953 	ld	a, (_g_pass_target_y+0)
    00000466 77               [ 7]  954 	ld	(hl), a
    00000467 23               [ 6]  955 	inc	hl
    00000468 3Ar01r00         [13]  956 	ld	a, (_g_pass_target_y+1)
    0000046B 77               [ 7]  957 	ld	(hl), a
    0000046C C3rE1r04         [10]  958 	jp	00145$
    0000046F                        959 00141$:
                                    960 ;E:\Dropbox\FAUSTO\SVILUPPI\MSX\CODE\C\MSXgl\projects\soccerlgMSX2/soccerlg_s9_b3.c:126: Ball->lx = (u16)((i16)g_pass_start_x + (dx_total * progress) / g_pass_max_frames);
    0000046F 3Ar00r00         [13]  961 	ld	a, (_g_pass_start_x+0)
    00000472 DD 77 F6         [19]  962 	ld	-10 (ix), a
    00000475 DD 7E DD         [19]  963 	ld	a, -35 (ix)
    00000478 DD 77 F7         [19]  964 	ld	-9 (ix), a
    0000047B DD 36 F8 00      [19]  965 	ld	-8 (ix), #0x00
    0000047F 5F               [ 4]  966 	ld	e, a
    00000480 16 00            [ 7]  967 	ld	d, #0x00
    00000482 DD 6E DF         [19]  968 	ld	l, -33 (ix)
                                    969 ;	spillPairReg hl
                                    970 ;	spillPairReg hl
    00000485 DD 66 E0         [19]  971 	ld	h, -32 (ix)
                                    972 ;	spillPairReg hl
                                    973 ;	spillPairReg hl
    00000488 CDr00r00         [17]  974 	call	__mulint
    0000048B DD 73 F4         [19]  975 	ld	-12 (ix), e
    0000048E DD 72 F5         [19]  976 	ld	-11 (ix), d
    00000491 3Ar00r00         [13]  977 	ld	a, (_g_pass_max_frames+0)
    00000494 DD 77 F9         [19]  978 	ld	-7 (ix), a
    00000497 DD 36 FA 00      [19]  979 	ld	-6 (ix), #0x00
    0000049B 5F               [ 4]  980 	ld	e, a
    0000049C 16 00            [ 7]  981 	ld	d, #0x00
    0000049E DD 6E F4         [19]  982 	ld	l, -12 (ix)
                                    983 ;	spillPairReg hl
                                    984 ;	spillPairReg hl
    000004A1 DD 66 F5         [19]  985 	ld	h, -11 (ix)
                                    986 ;	spillPairReg hl
                                    987 ;	spillPairReg hl
    000004A4 CDr00r00         [17]  988 	call	__divsint
    000004A7 DD 73 F9         [19]  989 	ld	-7 (ix), e
    000004AA DD 72 FA         [19]  990 	ld	-6 (ix), d
    000004AD DD 7E F9         [19]  991 	ld	a, -7 (ix)
    000004B0 DD 77 FA         [19]  992 	ld	-6 (ix), a
    000004B3 DD 86 F6         [19]  993 	add	a, -10 (ix)
    000004B6 32r42r01         [13]  994 	ld	(#(_SwSprite + 322)),a
                                    995 ;E:\Dropbox\FAUSTO\SVILUPPI\MSX\CODE\C\MSXgl\projects\soccerlgMSX2/soccerlg_s9_b3.c:127: Ball->ly = (u16)((i16)g_pass_start_y + (dy_total * progress) / g_pass_max_frames);
    000004B9 ED 4Br00r00      [20]  996 	ld	bc, (_g_pass_start_y)
    000004BD C5               [11]  997 	push	bc
    000004BE DD 5E F7         [19]  998 	ld	e, -9 (ix)
    000004C1 DD 56 F8         [19]  999 	ld	d, -8 (ix)
    000004C4 DD 6E E9         [19] 1000 	ld	l, -23 (ix)
                                   1001 ;	spillPairReg hl
                                   1002 ;	spillPairReg hl
    000004C7 DD 66 EA         [19] 1003 	ld	h, -22 (ix)
                                   1004 ;	spillPairReg hl
                                   1005 ;	spillPairReg hl
    000004CA CDr00r00         [17] 1006 	call	__mulint
    000004CD EB               [ 4] 1007 	ex	de, hl
    000004CE C1               [10] 1008 	pop	bc
    000004CF 3Ar00r00         [13] 1009 	ld	a, (_g_pass_max_frames+0)
    000004D2 5F               [ 4] 1010 	ld	e, a
    000004D3 16 00            [ 7] 1011 	ld	d, #0x00
    000004D5 C5               [11] 1012 	push	bc
    000004D6 CDr00r00         [17] 1013 	call	__divsint
    000004D9 EB               [ 4] 1014 	ex	de, hl
    000004DA C1               [10] 1015 	pop	bc
    000004DB 09               [11] 1016 	add	hl, bc
    000004DC EB               [ 4] 1017 	ex	de, hl
    000004DD ED 53r46r01      [20] 1018 	ld	((_SwSprite + 326)), de
    000004E1                       1019 00145$:
                                   1020 ;E:\Dropbox\FAUSTO\SVILUPPI\MSX\CODE\C\MSXgl\projects\soccerlgMSX2/soccerlg_s9_b3.c:131: if (g_pass_max_height <= 2 && progress > 0) {
    000004E1 3E 02            [ 7] 1021 	ld	a, #0x02
    000004E3 21r00r00         [10] 1022 	ld	hl, #_g_pass_max_height
    000004E6 96               [ 7] 1023 	sub	a, (hl)
    000004E7 DAr0Br08         [10] 1024 	jp	C, 00175$
    000004EA DD 7E DD         [19] 1025 	ld	a, -35 (ix)
    000004ED B7               [ 4] 1026 	or	a, a
    000004EE CAr0Br08         [10] 1027 	jp	Z, 00175$
                                   1028 ;E:\Dropbox\FAUSTO\SVILUPPI\MSX\CODE\C\MSXgl\projects\soccerlgMSX2/soccerlg_s9_b3.c:137: i16 old_ly = (i16)g_pass_start_y + (dy_total * (progress - 1)) / g_pass_max_frames;
    000004F1 2Ar00r00         [16] 1029 	ld	hl, (_g_pass_start_y)
    000004F4 DD 75 F7         [19] 1030 	ld	-9 (ix), l
    000004F7 DD 74 F8         [19] 1031 	ld	-8 (ix), h
    000004FA DD 4E DD         [19] 1032 	ld	c, -35 (ix)
    000004FD 06 00            [ 7] 1033 	ld	b, #0x00
    000004FF 0B               [ 6] 1034 	dec	bc
    00000500 DD 6E E9         [19] 1035 	ld	l, -23 (ix)
                                   1036 ;	spillPairReg hl
                                   1037 ;	spillPairReg hl
    00000503 DD 66 EA         [19] 1038 	ld	h, -22 (ix)
                                   1039 ;	spillPairReg hl
                                   1040 ;	spillPairReg hl
    00000506 C5               [11] 1041 	push	bc
    00000507 59               [ 4] 1042 	ld	e, c
    00000508 50               [ 4] 1043 	ld	d, b
    00000509 CDr00r00         [17] 1044 	call	__mulint
    0000050C EB               [ 4] 1045 	ex	de, hl
    0000050D C1               [10] 1046 	pop	bc
    0000050E 3Ar00r00         [13] 1047 	ld	a, (_g_pass_max_frames+0)
    00000511 DD 77 F9         [19] 1048 	ld	-7 (ix), a
    00000514 DD 36 FA 00      [19] 1049 	ld	-6 (ix), #0x00
    00000518 C5               [11] 1050 	push	bc
    00000519 DD 5E F9         [19] 1051 	ld	e, -7 (ix)
    0000051C DD 56 FA         [19] 1052 	ld	d, -6 (ix)
    0000051F CDr00r00         [17] 1053 	call	__divsint
    00000522 C1               [10] 1054 	pop	bc
    00000523 DD 6E F7         [19] 1055 	ld	l, -9 (ix)
                                   1056 ;	spillPairReg hl
                                   1057 ;	spillPairReg hl
    00000526 DD 66 F8         [19] 1058 	ld	h, -8 (ix)
                                   1059 ;	spillPairReg hl
                                   1060 ;	spillPairReg hl
    00000529 19               [11] 1061 	add	hl, de
    0000052A DD 75 EB         [19] 1062 	ld	-21 (ix), l
    0000052D DD 74 EC         [19] 1063 	ld	-20 (ix), h
                                   1064 ;E:\Dropbox\FAUSTO\SVILUPPI\MSX\CODE\C\MSXgl\projects\soccerlgMSX2/soccerlg_s9_b3.c:138: i16 new_ly = Ball->ly;
    00000530 21r46r01         [10] 1065 	ld	hl, #(_SwSprite + 326)
    00000533 7E               [ 7] 1066 	ld	a, (hl)
    00000534 DD 77 ED         [19] 1067 	ld	-19 (ix), a
    00000537 23               [ 6] 1068 	inc	hl
    00000538 7E               [ 7] 1069 	ld	a, (hl)
    00000539 DD 77 EE         [19] 1070 	ld	-18 (ix), a
    0000053C DD 7E ED         [19] 1071 	ld	a, -19 (ix)
    0000053F DD 77 EF         [19] 1072 	ld	-17 (ix), a
    00000542 DD 7E EE         [19] 1073 	ld	a, -18 (ix)
    00000545 DD 77 F0         [19] 1074 	ld	-16 (ix), a
                                   1075 ;E:\Dropbox\FAUSTO\SVILUPPI\MSX\CODE\C\MSXgl\projects\soccerlgMSX2/soccerlg_s9_b3.c:139: i16 old_lx = (i16)g_pass_start_x + (dx_total * (progress - 1)) / g_pass_max_frames;
    00000548 2Ar00r00         [16] 1076 	ld	hl, (_g_pass_start_x)
    0000054B DD 7E DF         [19] 1077 	ld	a, -33 (ix)
    0000054E DD 77 F1         [19] 1078 	ld	-15 (ix), a
    00000551 DD 7E E0         [19] 1079 	ld	a, -32 (ix)
    00000554 DD 77 F2         [19] 1080 	ld	-14 (ix), a
    00000557 E5               [11] 1081 	push	hl
    00000558 59               [ 4] 1082 	ld	e, c
    00000559 50               [ 4] 1083 	ld	d, b
    0000055A DD 6E F1         [19] 1084 	ld	l, -15 (ix)
                                   1085 ;	spillPairReg hl
                                   1086 ;	spillPairReg hl
    0000055D DD 66 F2         [19] 1087 	ld	h, -14 (ix)
                                   1088 ;	spillPairReg hl
                                   1089 ;	spillPairReg hl
    00000560 CDr00r00         [17] 1090 	call	__mulint
    00000563 4B               [ 4] 1091 	ld	c, e
    00000564 42               [ 4] 1092 	ld	b, d
    00000565 DD 5E F9         [19] 1093 	ld	e, -7 (ix)
    00000568 DD 56 FA         [19] 1094 	ld	d, -6 (ix)
    0000056B 69               [ 4] 1095 	ld	l, c
                                   1096 ;	spillPairReg hl
                                   1097 ;	spillPairReg hl
    0000056C 60               [ 4] 1098 	ld	h, b
                                   1099 ;	spillPairReg hl
                                   1100 ;	spillPairReg hl
    0000056D CDr00r00         [17] 1101 	call	__divsint
    00000570 E1               [10] 1102 	pop	hl
    00000571 19               [11] 1103 	add	hl, de
    00000572 DD 75 F3         [19] 1104 	ld	-13 (ix), l
    00000575 DD 74 F4         [19] 1105 	ld	-12 (ix), h
                                   1106 ;E:\Dropbox\FAUSTO\SVILUPPI\MSX\CODE\C\MSXgl\projects\soccerlgMSX2/soccerlg_s9_b3.c:140: i16 new_lx = Ball->lx;
    00000578 3Ar42r01         [13] 1107 	ld	a, (#(_SwSprite + 322) + 0)
    0000057B DD 77 F5         [19] 1108 	ld	-11 (ix), a
    0000057E DD 36 F6 00      [19] 1109 	ld	-10 (ix), #0x00
                                   1110 ;E:\Dropbox\FAUSTO\SVILUPPI\MSX\CODE\C\MSXgl\projects\soccerlgMSX2/soccerlg_s9_b3.c:143: if (old_ly > top_boundary && new_ly <= top_boundary) {
    00000582 DD 7E EB         [19] 1111 	ld	a, -21 (ix)
    00000585 DD 77 F7         [19] 1112 	ld	-9 (ix), a
    00000588 DD 7E EC         [19] 1113 	ld	a, -20 (ix)
    0000058B DD 77 F8         [19] 1114 	ld	-8 (ix), a
    0000058E 3E 18            [ 7] 1115 	ld	a, #0x18
    00000590 DD BE F7         [19] 1116 	cp	a, -9 (ix)
    00000593 3E 00            [ 7] 1117 	ld	a, #0x00
    00000595 DD 9E F8         [19] 1118 	sbc	a, -8 (ix)
    00000598 D2r28r06         [10] 1119 	jp	NC, 00160$
    0000059B DD 7E EF         [19] 1120 	ld	a, -17 (ix)
    0000059E DD 77 F9         [19] 1121 	ld	-7 (ix), a
    000005A1 DD 7E F0         [19] 1122 	ld	a, -16 (ix)
    000005A4 DD 77 FA         [19] 1123 	ld	-6 (ix), a
    000005A7 3E 18            [ 7] 1124 	ld	a, #0x18
    000005A9 DD BE F9         [19] 1125 	cp	a, -7 (ix)
    000005AC 3E 00            [ 7] 1126 	ld	a, #0x00
    000005AE DD 9E FA         [19] 1127 	sbc	a, -6 (ix)
    000005B1 38 75            [12] 1128 	jr	C, 00160$
                                   1129 ;E:\Dropbox\FAUSTO\SVILUPPI\MSX\CODE\C\MSXgl\projects\soccerlgMSX2/soccerlg_s9_b3.c:144: i16 cross_x = old_lx + ((new_lx - old_lx) * (old_ly - top_boundary)) / (old_ly - new_ly);
    000005B3 DD 7E F5         [19] 1130 	ld	a, -11 (ix)
    000005B6 DD 96 F3         [19] 1131 	sub	a, -13 (ix)
    000005B9 4F               [ 4] 1132 	ld	c, a
    000005BA DD 7E F6         [19] 1133 	ld	a, -10 (ix)
    000005BD DD 9E F4         [19] 1134 	sbc	a, -12 (ix)
    000005C0 47               [ 4] 1135 	ld	b, a
    000005C1 DD 7E F7         [19] 1136 	ld	a, -9 (ix)
    000005C4 C6 E8            [ 7] 1137 	add	a, #0xe8
    000005C6 5F               [ 4] 1138 	ld	e, a
    000005C7 DD 7E F8         [19] 1139 	ld	a, -8 (ix)
    000005CA CE FF            [ 7] 1140 	adc	a, #0xff
    000005CC 57               [ 4] 1141 	ld	d, a
    000005CD 69               [ 4] 1142 	ld	l, c
                                   1143 ;	spillPairReg hl
                                   1144 ;	spillPairReg hl
    000005CE 60               [ 4] 1145 	ld	h, b
                                   1146 ;	spillPairReg hl
                                   1147 ;	spillPairReg hl
    000005CF CDr00r00         [17] 1148 	call	__mulint
    000005D2 4B               [ 4] 1149 	ld	c, e
    000005D3 42               [ 4] 1150 	ld	b, d
    000005D4 DD 7E EB         [19] 1151 	ld	a, -21 (ix)
    000005D7 DD 96 EF         [19] 1152 	sub	a, -17 (ix)
    000005DA 5F               [ 4] 1153 	ld	e, a
    000005DB DD 7E EC         [19] 1154 	ld	a, -20 (ix)
    000005DE DD 9E F0         [19] 1155 	sbc	a, -16 (ix)
    000005E1 57               [ 4] 1156 	ld	d, a
    000005E2 69               [ 4] 1157 	ld	l, c
                                   1158 ;	spillPairReg hl
                                   1159 ;	spillPairReg hl
    000005E3 60               [ 4] 1160 	ld	h, b
                                   1161 ;	spillPairReg hl
                                   1162 ;	spillPairReg hl
    000005E4 CDr00r00         [17] 1163 	call	__divuint
    000005E7 DD 6E F3         [19] 1164 	ld	l, -13 (ix)
                                   1165 ;	spillPairReg hl
                                   1166 ;	spillPairReg hl
    000005EA DD 66 F4         [19] 1167 	ld	h, -12 (ix)
                                   1168 ;	spillPairReg hl
                                   1169 ;	spillPairReg hl
    000005ED 19               [11] 1170 	add	hl, de
                                   1171 ;E:\Dropbox\FAUSTO\SVILUPPI\MSX\CODE\C\MSXgl\projects\soccerlgMSX2/soccerlg_s9_b3.c:145: if ((cross_x >= goal_left - 4 && cross_x <= goal_left + 4) ||
    000005EE 7D               [ 4] 1172 	ld	a, l
    000005EF D6 4E            [ 7] 1173 	sub	a, #0x4e
    000005F1 7C               [ 4] 1174 	ld	a, h
    000005F2 17               [ 4] 1175 	rla
    000005F3 3F               [ 4] 1176 	ccf
    000005F4 1F               [ 4] 1177 	rra
    000005F5 DE 80            [ 7] 1178 	sbc	a, #0x80
    000005F7 38 0E            [12] 1179 	jr	C, 00150$
    000005F9 3E 56            [ 7] 1180 	ld	a, #0x56
    000005FB BD               [ 4] 1181 	cp	a, l
    000005FC 3E 00            [ 7] 1182 	ld	a, #0x00
    000005FE 9C               [ 4] 1183 	sbc	a, h
    000005FF E2r04r06         [10] 1184 	jp	PO, 01269$
    00000602 EE 80            [ 7] 1185 	xor	a, #0x80
    00000604                       1186 01269$:
    00000604 F2r21r06         [10] 1187 	jp	P, 00146$
    00000607                       1188 00150$:
                                   1189 ;E:\Dropbox\FAUSTO\SVILUPPI\MSX\CODE\C\MSXgl\projects\soccerlgMSX2/soccerlg_s9_b3.c:146: (cross_x >= goal_right - 4 && cross_x <= goal_right + 4)) {
    00000607 7D               [ 4] 1190 	ld	a, l
    00000608 D6 98            [ 7] 1191 	sub	a, #0x98
    0000060A 7C               [ 4] 1192 	ld	a, h
    0000060B 17               [ 4] 1193 	rla
    0000060C 3F               [ 4] 1194 	ccf
    0000060D 1F               [ 4] 1195 	rra
    0000060E DE 80            [ 7] 1196 	sbc	a, #0x80
    00000610 DArB3r06         [10] 1197 	jp	C, 00161$
    00000613 3E A0            [ 7] 1198 	ld	a, #0xa0
    00000615 BD               [ 4] 1199 	cp	a, l
    00000616 3E 00            [ 7] 1200 	ld	a, #0x00
    00000618 9C               [ 4] 1201 	sbc	a, h
    00000619 E2r1Er06         [10] 1202 	jp	PO, 01270$
    0000061C EE 80            [ 7] 1203 	xor	a, #0x80
    0000061E                       1204 01270$:
    0000061E FArB3r06         [10] 1205 	jp	M, 00161$
    00000621                       1206 00146$:
                                   1207 ;E:\Dropbox\FAUSTO\SVILUPPI\MSX\CODE\C\MSXgl\projects\soccerlgMSX2/soccerlg_s9_b3.c:147: hit_post = TRUE;
    00000621 DD 36 FF 01      [19] 1208 	ld	-1 (ix), #0x01
    00000625 C3rB3r06         [10] 1209 	jp	00161$
    00000628                       1210 00160$:
                                   1211 ;E:\Dropbox\FAUSTO\SVILUPPI\MSX\CODE\C\MSXgl\projects\soccerlgMSX2/soccerlg_s9_b3.c:151: else if (old_ly < bottom_boundary && new_ly >= bottom_boundary) {
    00000628 DD 7E F7         [19] 1212 	ld	a, -9 (ix)
    0000062B D6 DE            [ 7] 1213 	sub	a, #0xde
    0000062D DD 7E F8         [19] 1214 	ld	a, -8 (ix)
    00000630 DE 01            [ 7] 1215 	sbc	a, #0x01
    00000632 D2rB3r06         [10] 1216 	jp	NC, 00161$
    00000635 DD 7E EF         [19] 1217 	ld	a, -17 (ix)
    00000638 DD 46 F0         [19] 1218 	ld	b, -16 (ix)
    0000063B D6 DE            [ 7] 1219 	sub	a, #0xde
    0000063D 78               [ 4] 1220 	ld	a, b
    0000063E DE 01            [ 7] 1221 	sbc	a, #0x01
    00000640 38 71            [12] 1222 	jr	C, 00161$
                                   1223 ;E:\Dropbox\FAUSTO\SVILUPPI\MSX\CODE\C\MSXgl\projects\soccerlgMSX2/soccerlg_s9_b3.c:152: i16 cross_x = old_lx + ((new_lx - old_lx) * (bottom_boundary - old_ly)) / (new_ly - old_ly);
    00000642 DD 7E F5         [19] 1224 	ld	a, -11 (ix)
    00000645 DD 96 F3         [19] 1225 	sub	a, -13 (ix)
    00000648 4F               [ 4] 1226 	ld	c, a
    00000649 DD 7E F6         [19] 1227 	ld	a, -10 (ix)
    0000064C DD 9E F4         [19] 1228 	sbc	a, -12 (ix)
    0000064F 47               [ 4] 1229 	ld	b, a
    00000650 3E DE            [ 7] 1230 	ld	a, #0xde
    00000652 DD 96 F7         [19] 1231 	sub	a, -9 (ix)
    00000655 5F               [ 4] 1232 	ld	e, a
    00000656 3E 01            [ 7] 1233 	ld	a, #0x01
    00000658 DD 9E F8         [19] 1234 	sbc	a, -8 (ix)
    0000065B 57               [ 4] 1235 	ld	d, a
    0000065C 69               [ 4] 1236 	ld	l, c
                                   1237 ;	spillPairReg hl
                                   1238 ;	spillPairReg hl
    0000065D 60               [ 4] 1239 	ld	h, b
                                   1240 ;	spillPairReg hl
                                   1241 ;	spillPairReg hl
    0000065E CDr00r00         [17] 1242 	call	__mulint
    00000661 4B               [ 4] 1243 	ld	c, e
    00000662 42               [ 4] 1244 	ld	b, d
    00000663 DD 7E EF         [19] 1245 	ld	a, -17 (ix)
    00000666 DD 96 EB         [19] 1246 	sub	a, -21 (ix)
    00000669 5F               [ 4] 1247 	ld	e, a
    0000066A DD 7E F0         [19] 1248 	ld	a, -16 (ix)
    0000066D DD 9E EC         [19] 1249 	sbc	a, -20 (ix)
    00000670 57               [ 4] 1250 	ld	d, a
    00000671 69               [ 4] 1251 	ld	l, c
                                   1252 ;	spillPairReg hl
                                   1253 ;	spillPairReg hl
    00000672 60               [ 4] 1254 	ld	h, b
                                   1255 ;	spillPairReg hl
                                   1256 ;	spillPairReg hl
    00000673 CDr00r00         [17] 1257 	call	__divuint
    00000676 DD 6E F3         [19] 1258 	ld	l, -13 (ix)
                                   1259 ;	spillPairReg hl
                                   1260 ;	spillPairReg hl
    00000679 DD 66 F4         [19] 1261 	ld	h, -12 (ix)
                                   1262 ;	spillPairReg hl
                                   1263 ;	spillPairReg hl
    0000067C 19               [11] 1264 	add	hl, de
                                   1265 ;E:\Dropbox\FAUSTO\SVILUPPI\MSX\CODE\C\MSXgl\projects\soccerlgMSX2/soccerlg_s9_b3.c:153: if ((cross_x >= goal_left - 4 && cross_x <= goal_left + 4) ||
    0000067D 7D               [ 4] 1266 	ld	a, l
    0000067E D6 4E            [ 7] 1267 	sub	a, #0x4e
    00000680 7C               [ 4] 1268 	ld	a, h
    00000681 17               [ 4] 1269 	rla
    00000682 3F               [ 4] 1270 	ccf
    00000683 1F               [ 4] 1271 	rra
    00000684 DE 80            [ 7] 1272 	sbc	a, #0x80
    00000686 38 0E            [12] 1273 	jr	C, 00155$
    00000688 3E 56            [ 7] 1274 	ld	a, #0x56
    0000068A BD               [ 4] 1275 	cp	a, l
    0000068B 3E 00            [ 7] 1276 	ld	a, #0x00
    0000068D 9C               [ 4] 1277 	sbc	a, h
    0000068E E2r93r06         [10] 1278 	jp	PO, 01271$
    00000691 EE 80            [ 7] 1279 	xor	a, #0x80
    00000693                       1280 01271$:
    00000693 F2rAFr06         [10] 1281 	jp	P, 00151$
    00000696                       1282 00155$:
                                   1283 ;E:\Dropbox\FAUSTO\SVILUPPI\MSX\CODE\C\MSXgl\projects\soccerlgMSX2/soccerlg_s9_b3.c:154: (cross_x >= goal_right - 4 && cross_x <= goal_right + 4)) {
    00000696 7D               [ 4] 1284 	ld	a, l
    00000697 D6 98            [ 7] 1285 	sub	a, #0x98
    00000699 7C               [ 4] 1286 	ld	a, h
    0000069A 17               [ 4] 1287 	rla
    0000069B 3F               [ 4] 1288 	ccf
    0000069C 1F               [ 4] 1289 	rra
    0000069D DE 80            [ 7] 1290 	sbc	a, #0x80
    0000069F 38 12            [12] 1291 	jr	C, 00161$
    000006A1 3E A0            [ 7] 1292 	ld	a, #0xa0
    000006A3 BD               [ 4] 1293 	cp	a, l
    000006A4 3E 00            [ 7] 1294 	ld	a, #0x00
    000006A6 9C               [ 4] 1295 	sbc	a, h
    000006A7 E2rACr06         [10] 1296 	jp	PO, 01272$
    000006AA EE 80            [ 7] 1297 	xor	a, #0x80
    000006AC                       1298 01272$:
    000006AC FArB3r06         [10] 1299 	jp	M, 00161$
    000006AF                       1300 00151$:
                                   1301 ;E:\Dropbox\FAUSTO\SVILUPPI\MSX\CODE\C\MSXgl\projects\soccerlgMSX2/soccerlg_s9_b3.c:155: hit_post = TRUE;
    000006AF DD 36 FF 01      [19] 1302 	ld	-1 (ix), #0x01
    000006B3                       1303 00161$:
                                   1304 ;E:\Dropbox\FAUSTO\SVILUPPI\MSX\CODE\C\MSXgl\projects\soccerlgMSX2/soccerlg_s9_b3.c:159: if (hit_post) {
    000006B3 DD 7E FF         [19] 1305 	ld	a, -1 (ix)
    000006B6 B7               [ 4] 1306 	or	a, a
    000006B7 CAr0Br08         [10] 1307 	jp	Z, 00175$
                                   1308 ;E:\Dropbox\FAUSTO\SVILUPPI\MSX\CODE\C\MSXgl\projects\soccerlgMSX2/soccerlg_s9_b3.c:164: i16 out_dx = in_dx;
    000006BA DD 7E DF         [19] 1309 	ld	a, -33 (ix)
    000006BD DD 77 F7         [19] 1310 	ld	-9 (ix), a
    000006C0 DD 7E E0         [19] 1311 	ld	a, -32 (ix)
    000006C3 DD 77 F8         [19] 1312 	ld	-8 (ix), a
                                   1313 ;E:\Dropbox\FAUSTO\SVILUPPI\MSX\CODE\C\MSXgl\projects\soccerlgMSX2/soccerlg_s9_b3.c:165: i16 out_dy = -in_dy;
    000006C6 AF               [ 4] 1314 	xor	a, a
    000006C7 DD 96 E9         [19] 1315 	sub	a, -23 (ix)
    000006CA DD 77 F9         [19] 1316 	ld	-7 (ix), a
    000006CD 9F               [ 4] 1317 	sbc	a, a
    000006CE DD 96 EA         [19] 1318 	sub	a, -22 (ix)
    000006D1 DD 77 FA         [19] 1319 	ld	-6 (ix), a
                                   1320 ;E:\Dropbox\FAUSTO\SVILUPPI\MSX\CODE\C\MSXgl\projects\soccerlgMSX2/soccerlg_s9_b3.c:168: i16 len = (out_dx > 0 ? out_dx : -out_dx) + (out_dy > 0 ? out_dy : -out_dy);
    000006D4 AF               [ 4] 1321 	xor	a, a
    000006D5 DD BE F1         [19] 1322 	cp	a, -15 (ix)
    000006D8 DD 9E F2         [19] 1323 	sbc	a, -14 (ix)
    000006DB E2rE0r06         [10] 1324 	jp	PO, 01273$
    000006DE EE 80            [ 7] 1325 	xor	a, #0x80
    000006E0                       1326 01273$:
    000006E0 F2rF2r06         [10] 1327 	jp	P, 00387$
    000006E3 DD 7E DF         [19] 1328 	ld	a, -33 (ix)
    000006E6 DD 77 F5         [19] 1329 	ld	-11 (ix), a
    000006E9 DD 7E E0         [19] 1330 	ld	a, -32 (ix)
    000006EC DD 77 F6         [19] 1331 	ld	-10 (ix), a
    000006EF C3r00r07         [10] 1332 	jp	00388$
    000006F2                       1333 00387$:
    000006F2 AF               [ 4] 1334 	xor	a, a
    000006F3 DD 96 DF         [19] 1335 	sub	a, -33 (ix)
    000006F6 DD 77 F5         [19] 1336 	ld	-11 (ix), a
    000006F9 9F               [ 4] 1337 	sbc	a, a
    000006FA DD 96 E0         [19] 1338 	sub	a, -32 (ix)
    000006FD DD 77 F6         [19] 1339 	ld	-10 (ix), a
    00000700                       1340 00388$:
    00000700 DD 7E F9         [19] 1341 	ld	a, -7 (ix)
    00000703 DD 77 F1         [19] 1342 	ld	-15 (ix), a
    00000706 DD 7E FA         [19] 1343 	ld	a, -6 (ix)
    00000709 DD 77 F2         [19] 1344 	ld	-14 (ix), a
    0000070C AF               [ 4] 1345 	xor	a, a
    0000070D DD BE F1         [19] 1346 	cp	a, -15 (ix)
    00000710 DD 9E F2         [19] 1347 	sbc	a, -14 (ix)
    00000713 E2r18r07         [10] 1348 	jp	PO, 01274$
    00000716 EE 80            [ 7] 1349 	xor	a, #0x80
    00000718                       1350 01274$:
    00000718 F2r2Ar07         [10] 1351 	jp	P, 00389$
    0000071B DD 7E F9         [19] 1352 	ld	a, -7 (ix)
    0000071E DD 77 F3         [19] 1353 	ld	-13 (ix), a
    00000721 DD 7E FA         [19] 1354 	ld	a, -6 (ix)
    00000724 DD 77 F4         [19] 1355 	ld	-12 (ix), a
    00000727 C3r38r07         [10] 1356 	jp	00390$
    0000072A                       1357 00389$:
    0000072A AF               [ 4] 1358 	xor	a, a
    0000072B DD 96 F9         [19] 1359 	sub	a, -7 (ix)
    0000072E DD 77 F3         [19] 1360 	ld	-13 (ix), a
    00000731 9F               [ 4] 1361 	sbc	a, a
    00000732 DD 96 FA         [19] 1362 	sub	a, -6 (ix)
    00000735 DD 77 F4         [19] 1363 	ld	-12 (ix), a
    00000738                       1364 00390$:
    00000738 DD 7E F5         [19] 1365 	ld	a, -11 (ix)
    0000073B DD 86 F3         [19] 1366 	add	a, -13 (ix)
    0000073E 4F               [ 4] 1367 	ld	c, a
    0000073F DD 7E F6         [19] 1368 	ld	a, -10 (ix)
    00000742 DD 8E F4         [19] 1369 	adc	a, -12 (ix)
    00000745 DD 71 F9         [19] 1370 	ld	-7 (ix), c
                                   1371 ;E:\Dropbox\FAUSTO\SVILUPPI\MSX\CODE\C\MSXgl\projects\soccerlgMSX2/soccerlg_s9_b3.c:169: if (len == 0) len = 1;
    00000748 DD 77 FA         [19] 1372 	ld	-6 (ix), a
    0000074B DD B6 F9         [19] 1373 	or	a, -7 (ix)
    0000074E 20 08            [12] 1374 	jr	NZ, 00164$
    00000750 DD 36 F9 01      [19] 1375 	ld	-7 (ix), #0x01
    00000754 DD 36 FA 00      [19] 1376 	ld	-6 (ix), #0
    00000758                       1377 00164$:
                                   1378 ;E:\Dropbox\FAUSTO\SVILUPPI\MSX\CODE\C\MSXgl\projects\soccerlgMSX2/soccerlg_s9_b3.c:171: out_dx = (out_dx * 60) / len;
    00000758 DD 4E F7         [19] 1379 	ld	c, -9 (ix)
    0000075B DD 46 F8         [19] 1380 	ld	b, -8 (ix)
    0000075E 69               [ 4] 1381 	ld	l, c
    0000075F 60               [ 4] 1382 	ld	h, b
    00000760 29               [11] 1383 	add	hl, hl
    00000761 09               [11] 1384 	add	hl, bc
    00000762 29               [11] 1385 	add	hl, hl
    00000763 09               [11] 1386 	add	hl, bc
    00000764 29               [11] 1387 	add	hl, hl
    00000765 09               [11] 1388 	add	hl, bc
    00000766 29               [11] 1389 	add	hl, hl
    00000767 29               [11] 1390 	add	hl, hl
    00000768 DD 5E F9         [19] 1391 	ld	e, -7 (ix)
    0000076B DD 56 FA         [19] 1392 	ld	d, -6 (ix)
    0000076E CDr00r00         [17] 1393 	call	__divsint
    00000771 DD 73 F7         [19] 1394 	ld	-9 (ix), e
    00000774 DD 72 F8         [19] 1395 	ld	-8 (ix), d
                                   1396 ;E:\Dropbox\FAUSTO\SVILUPPI\MSX\CODE\C\MSXgl\projects\soccerlgMSX2/soccerlg_s9_b3.c:172: out_dy = (out_dy * 60) / len;
    00000777 DD 4E F1         [19] 1397 	ld	c, -15 (ix)
    0000077A DD 46 F2         [19] 1398 	ld	b, -14 (ix)
    0000077D 69               [ 4] 1399 	ld	l, c
    0000077E 60               [ 4] 1400 	ld	h, b
    0000077F 29               [11] 1401 	add	hl, hl
    00000780 09               [11] 1402 	add	hl, bc
    00000781 29               [11] 1403 	add	hl, hl
    00000782 09               [11] 1404 	add	hl, bc
    00000783 29               [11] 1405 	add	hl, hl
    00000784 09               [11] 1406 	add	hl, bc
    00000785 29               [11] 1407 	add	hl, hl
    00000786 29               [11] 1408 	add	hl, hl
    00000787 DD 5E F9         [19] 1409 	ld	e, -7 (ix)
    0000078A DD 56 FA         [19] 1410 	ld	d, -6 (ix)
    0000078D CDr00r00         [17] 1411 	call	__divsint
                                   1412 ;E:\Dropbox\FAUSTO\SVILUPPI\MSX\CODE\C\MSXgl\projects\soccerlgMSX2/soccerlg_s9_b3.c:175: if (out_dy > 0) {
    00000790 6B               [ 4] 1413 	ld	l, e
                                   1414 ;	spillPairReg hl
                                   1415 ;	spillPairReg hl
    00000791 62               [ 4] 1416 	ld	h, d
                                   1417 ;	spillPairReg hl
                                   1418 ;	spillPairReg hl
                                   1419 ;E:\Dropbox\FAUSTO\SVILUPPI\MSX\CODE\C\MSXgl\projects\soccerlgMSX2/soccerlg_s9_b3.c:176: if (Ball->ly < top_boundary + 2) Ball->ly = top_boundary + 2;
    00000792 DD 4E ED         [19] 1420 	ld	c, -19 (ix)
    00000795 DD 46 EE         [19] 1421 	ld	b, -18 (ix)
                                   1422 ;E:\Dropbox\FAUSTO\SVILUPPI\MSX\CODE\C\MSXgl\projects\soccerlgMSX2/soccerlg_s9_b3.c:175: if (out_dy > 0) {
    00000798 AF               [ 4] 1423 	xor	a, a
    00000799 BD               [ 4] 1424 	cp	a, l
    0000079A 9C               [ 4] 1425 	sbc	a, h
    0000079B E2rA0r07         [10] 1426 	jp	PO, 01275$
    0000079E EE 80            [ 7] 1427 	xor	a, #0x80
    000007A0                       1428 01275$:
    000007A0 F2rB4r07         [10] 1429 	jp	P, 00170$
                                   1430 ;E:\Dropbox\FAUSTO\SVILUPPI\MSX\CODE\C\MSXgl\projects\soccerlgMSX2/soccerlg_s9_b3.c:176: if (Ball->ly < top_boundary + 2) Ball->ly = top_boundary + 2;
    000007A3 79               [ 4] 1431 	ld	a, c
    000007A4 D6 1A            [ 7] 1432 	sub	a, #0x1a
    000007A6 78               [ 4] 1433 	ld	a, b
    000007A7 DE 00            [ 7] 1434 	sbc	a, #0x00
    000007A9 30 17            [12] 1435 	jr	NC, 00171$
    000007AB 21 1A 00         [10] 1436 	ld	hl, #0x001a
    000007AE 22r46r01         [16] 1437 	ld	((_SwSprite + 326)), hl
    000007B1 C3rC2r07         [10] 1438 	jp	00171$
    000007B4                       1439 00170$:
                                   1440 ;E:\Dropbox\FAUSTO\SVILUPPI\MSX\CODE\C\MSXgl\projects\soccerlgMSX2/soccerlg_s9_b3.c:178: if (Ball->ly > bottom_boundary - 2) Ball->ly = bottom_boundary - 2;
    000007B4 3E DC            [ 7] 1441 	ld	a, #0xdc
    000007B6 B9               [ 4] 1442 	cp	a, c
    000007B7 3E 01            [ 7] 1443 	ld	a, #0x01
    000007B9 98               [ 4] 1444 	sbc	a, b
    000007BA 30 06            [12] 1445 	jr	NC, 00171$
    000007BC 21 DC 01         [10] 1446 	ld	hl, #0x01dc
    000007BF 22r46r01         [16] 1447 	ld	((_SwSprite + 326)), hl
    000007C2                       1448 00171$:
                                   1449 ;E:\Dropbox\FAUSTO\SVILUPPI\MSX\CODE\C\MSXgl\projects\soccerlgMSX2/soccerlg_s9_b3.c:181: g_pass_start_x = Ball->lx;
    000007C2 3Ar42r01         [13] 1450 	ld	a, (#(_SwSprite + 322) + 0)
    000007C5 32r00r00         [13] 1451 	ld	(_g_pass_start_x+0), a
    000007C8 AF               [ 4] 1452 	xor	a, a
    000007C9 32r01r00         [13] 1453 	ld	(_g_pass_start_x+1), a
                                   1454 ;E:\Dropbox\FAUSTO\SVILUPPI\MSX\CODE\C\MSXgl\projects\soccerlgMSX2/soccerlg_s9_b3.c:182: g_pass_start_y = Ball->ly;
    000007CC 21r46r01         [10] 1455 	ld	hl, #(_SwSprite + 326)
    000007CF 7E               [ 7] 1456 	ld	a, (hl)
    000007D0 23               [ 6] 1457 	inc	hl
    000007D1 32r00r00         [13] 1458 	ld	(_g_pass_start_y+0), a
    000007D4 7E               [ 7] 1459 	ld	a, (hl)
    000007D5 32r01r00         [13] 1460 	ld	(_g_pass_start_y+1), a
                                   1461 ;E:\Dropbox\FAUSTO\SVILUPPI\MSX\CODE\C\MSXgl\projects\soccerlgMSX2/soccerlg_s9_b3.c:184: g_pass_target_x = g_pass_start_x + out_dx;
    000007D8 DD 4E F7         [19] 1462 	ld	c, -9 (ix)
    000007DB DD 46 F8         [19] 1463 	ld	b, -8 (ix)
    000007DE 21r00r00         [10] 1464 	ld	hl, #_g_pass_target_x
    000007E1 3Ar00r00         [13] 1465 	ld	a, (_g_pass_start_x+0)
    000007E4 81               [ 4] 1466 	add	a, c
    000007E5 77               [ 7] 1467 	ld	(hl), a
    000007E6 23               [ 6] 1468 	inc	hl
    000007E7 3Ar01r00         [13] 1469 	ld	a, (_g_pass_start_x+1)
    000007EA 88               [ 4] 1470 	adc	a, b
    000007EB 77               [ 7] 1471 	ld	(hl), a
                                   1472 ;E:\Dropbox\FAUSTO\SVILUPPI\MSX\CODE\C\MSXgl\projects\soccerlgMSX2/soccerlg_s9_b3.c:185: g_pass_target_y = g_pass_start_y + out_dy;
    000007EC 7B               [ 4] 1473 	ld	a, e
    000007ED 21r00r00         [10] 1474 	ld	hl, #_g_pass_start_y
    000007F0 FD 21r00r00      [14] 1475 	ld	iy, #_g_pass_target_y
    000007F4 86               [ 7] 1476 	add	a, (hl)
    000007F5 FD 77 00         [19] 1477 	ld	0 (iy), a
    000007F8 23               [ 6] 1478 	inc	hl
    000007F9 7A               [ 4] 1479 	ld	a, d
    000007FA 8E               [ 7] 1480 	adc	a, (hl)
    000007FB FD 23            [10] 1481 	inc	iy
    000007FD FD 77 00         [19] 1482 	ld	0 (iy), a
                                   1483 ;E:\Dropbox\FAUSTO\SVILUPPI\MSX\CODE\C\MSXgl\projects\soccerlgMSX2/soccerlg_s9_b3.c:187: g_pass_max_frames = 10; // Rimbalzo rapido
    00000800 21r00r00         [10] 1484 	ld	hl, #_g_pass_max_frames
    00000803 36 0A            [10] 1485 	ld	(hl), #0x0a
                                   1486 ;E:\Dropbox\FAUSTO\SVILUPPI\MSX\CODE\C\MSXgl\projects\soccerlgMSX2/soccerlg_s9_b3.c:188: Ball->count = 0; 
    00000805 21 00 00         [10] 1487 	ld	hl, #0x0000
    00000808 22r57r01         [16] 1488 	ld	((_SwSprite + 343)), hl
    0000080B                       1489 00175$:
                                   1490 ;E:\Dropbox\FAUSTO\SVILUPPI\MSX\CODE\C\MSXgl\projects\soccerlgMSX2/soccerlg_s9_b3.c:193: if (!hit_post && progress > 0) {
    0000080B DD 7E FF         [19] 1491 	ld	a, -1 (ix)
    0000080E B7               [ 4] 1492 	or	a, a
    0000080F C2r75r09         [10] 1493 	jp	NZ, 00187$
    00000812 DD 7E DD         [19] 1494 	ld	a, -35 (ix)
    00000815 B7               [ 4] 1495 	or	a, a
    00000816 CAr75r09         [10] 1496 	jp	Z, 00187$
                                   1497 ;E:\Dropbox\FAUSTO\SVILUPPI\MSX\CODE\C\MSXgl\projects\soccerlgMSX2/soccerlg_s9_b3.c:194: u8 gks[2] = {0, 7};
    00000819 DD 36 E7 00      [19] 1498 	ld	-25 (ix), #0x00
    0000081D DD 36 E8 07      [19] 1499 	ld	-24 (ix), #0x07
                                   1500 ;E:\Dropbox\FAUSTO\SVILUPPI\MSX\CODE\C\MSXgl\projects\soccerlgMSX2/soccerlg_s9_b3.c:195: for (u8 g = 0; g < 2; g++) {
    00000821 0E 00            [ 7] 1501 	ld	c, #0x00
    00000823                       1502 00371$:
    00000823 79               [ 4] 1503 	ld	a, c
    00000824 D6 02            [ 7] 1504 	sub	a, #0x02
    00000826 D2r75r09         [10] 1505 	jp	NC, 00187$
                                   1506 ;E:\Dropbox\FAUSTO\SVILUPPI\MSX\CODE\C\MSXgl\projects\soccerlgMSX2/soccerlg_s9_b3.c:196: u8 gk_idx = gks[g];
    00000829 59               [ 4] 1507 	ld	e, c
    0000082A 16 00            [ 7] 1508 	ld	d, #0x00
    0000082C 21 0C 00         [10] 1509 	ld	hl, #12
    0000082F 39               [11] 1510 	add	hl, sp
    00000830 19               [11] 1511 	add	hl, de
    00000831 5E               [ 7] 1512 	ld	e, (hl)
                                   1513 ;E:\Dropbox\FAUSTO\SVILUPPI\MSX\CODE\C\MSXgl\projects\soccerlgMSX2/soccerlg_s9_b3.c:199: if (LastTouchPlayer == gk_idx) continue;
    00000832 3Ar00r00         [13] 1514 	ld	a, (_LastTouchPlayer+0)
    00000835 93               [ 4] 1515 	sub	a, e
    00000836 CAr71r09         [10] 1516 	jp	Z,00184$
                                   1517 ;E:\Dropbox\FAUSTO\SVILUPPI\MSX\CODE\C\MSXgl\projects\soccerlgMSX2/soccerlg_s9_b3.c:201: u16 dist_x = (SwSprite[gk_idx].lx > Ball->lx) ? (SwSprite[gk_idx].lx - Ball->lx) : (Ball->lx - SwSprite[gk_idx].lx);
    00000839 16 00            [ 7] 1518 	ld	d, #0x00
    0000083B 6B               [ 4] 1519 	ld	l, e
    0000083C 62               [ 4] 1520 	ld	h, d
    0000083D 29               [11] 1521 	add	hl, hl
    0000083E 29               [11] 1522 	add	hl, hl
    0000083F 19               [11] 1523 	add	hl, de
    00000840 29               [11] 1524 	add	hl, hl
    00000841 19               [11] 1525 	add	hl, de
    00000842 29               [11] 1526 	add	hl, hl
    00000843 19               [11] 1527 	add	hl, de
    00000844 11r00r00         [10] 1528 	ld	de, #_SwSprite
    00000847 19               [11] 1529 	add	hl, de
    00000848 DD 75 F3         [19] 1530 	ld	-13 (ix), l
    0000084B DD 74 F4         [19] 1531 	ld	-12 (ix), h
    0000084E 5E               [ 7] 1532 	ld	e, (hl)
                                   1533 ;E:\Dropbox\FAUSTO\SVILUPPI\MSX\CODE\C\MSXgl\projects\soccerlgMSX2/soccerlg_s9_b3.c:76: u8 dx_diff = (u8)(SwSprite[i].lx - Ball->lx);
    0000084F 21r42r01         [10] 1534 	ld	hl, #(_SwSprite + 322)
    00000852 6E               [ 7] 1535 	ld	l, (hl)
                                   1536 ;	spillPairReg hl
                                   1537 ;E:\Dropbox\FAUSTO\SVILUPPI\MSX\CODE\C\MSXgl\projects\soccerlgMSX2/soccerlg_s9_b3.c:201: u16 dist_x = (SwSprite[gk_idx].lx > Ball->lx) ? (SwSprite[gk_idx].lx - Ball->lx) : (Ball->lx - SwSprite[gk_idx].lx);
    00000853 DD 73 F5         [19] 1538 	ld	-11 (ix), e
    00000856 DD 36 F6 00      [19] 1539 	ld	-10 (ix), #0x00
    0000085A DD 75 F7         [19] 1540 	ld	-9 (ix), l
    0000085D DD 36 F8 00      [19] 1541 	ld	-8 (ix), #0x00
    00000861 7D               [ 4] 1542 	ld	a, l
    00000862 93               [ 4] 1543 	sub	a, e
    00000863 30 15            [12] 1544 	jr	NC, 00391$
    00000865 DD 7E F5         [19] 1545 	ld	a, -11 (ix)
    00000868 DD 96 F7         [19] 1546 	sub	a, -9 (ix)
    0000086B DD 77 F9         [19] 1547 	ld	-7 (ix), a
    0000086E DD 7E F6         [19] 1548 	ld	a, -10 (ix)
    00000871 DD 9E F8         [19] 1549 	sbc	a, -8 (ix)
    00000874 DD 77 FA         [19] 1550 	ld	-6 (ix), a
    00000877 C3r8Cr08         [10] 1551 	jp	00392$
    0000087A                       1552 00391$:
    0000087A DD 7E F7         [19] 1553 	ld	a, -9 (ix)
    0000087D DD 96 F5         [19] 1554 	sub	a, -11 (ix)
    00000880 DD 77 F9         [19] 1555 	ld	-7 (ix), a
    00000883 DD 7E F8         [19] 1556 	ld	a, -8 (ix)
    00000886 DD 9E F6         [19] 1557 	sbc	a, -10 (ix)
    00000889 DD 77 FA         [19] 1558 	ld	-6 (ix), a
    0000088C                       1559 00392$:
    0000088C DD 7E F9         [19] 1560 	ld	a, -7 (ix)
    0000088F DD 77 F5         [19] 1561 	ld	-11 (ix), a
    00000892 DD 7E FA         [19] 1562 	ld	a, -6 (ix)
    00000895 DD 77 F6         [19] 1563 	ld	-10 (ix), a
                                   1564 ;E:\Dropbox\FAUSTO\SVILUPPI\MSX\CODE\C\MSXgl\projects\soccerlgMSX2/soccerlg_s9_b3.c:202: u16 dist_y = (SwSprite[gk_idx].ly > Ball->ly) ? (SwSprite[gk_idx].ly - Ball->ly) : (Ball->ly - SwSprite[gk_idx].ly);
    00000898 DD 7E F3         [19] 1565 	ld	a, -13 (ix)
    0000089B C6 04            [ 7] 1566 	add	a, #0x04
    0000089D DD 77 F7         [19] 1567 	ld	-9 (ix), a
    000008A0 DD 7E F4         [19] 1568 	ld	a, -12 (ix)
    000008A3 CE 00            [ 7] 1569 	adc	a, #0x00
    000008A5 DD 77 F8         [19] 1570 	ld	-8 (ix), a
    000008A8 DD 6E F7         [19] 1571 	ld	l, -9 (ix)
    000008AB DD 66 F8         [19] 1572 	ld	h, -8 (ix)
    000008AE 7E               [ 7] 1573 	ld	a, (hl)
    000008AF DD 77 F9         [19] 1574 	ld	-7 (ix), a
    000008B2 23               [ 6] 1575 	inc	hl
    000008B3 7E               [ 7] 1576 	ld	a, (hl)
    000008B4 DD 77 FA         [19] 1577 	ld	-6 (ix), a
    000008B7 ED 5Br46r01      [20] 1578 	ld	de, (#(_SwSprite + 326) + 0)
    000008BB 7B               [ 4] 1579 	ld	a, e
    000008BC DD 96 F9         [19] 1580 	sub	a, -7 (ix)
    000008BF 7A               [ 4] 1581 	ld	a, d
    000008C0 DD 9E FA         [19] 1582 	sbc	a, -6 (ix)
    000008C3 30 0C            [12] 1583 	jr	NC, 00393$
    000008C5 DD 7E F9         [19] 1584 	ld	a, -7 (ix)
    000008C8 93               [ 4] 1585 	sub	a, e
    000008C9 5F               [ 4] 1586 	ld	e, a
    000008CA DD 7E FA         [19] 1587 	ld	a, -6 (ix)
    000008CD 9A               [ 4] 1588 	sbc	a, d
    000008CE C3rDAr08         [10] 1589 	jp	00394$
    000008D1                       1590 00393$:
    000008D1 7B               [ 4] 1591 	ld	a, e
    000008D2 DD 96 F9         [19] 1592 	sub	a, -7 (ix)
    000008D5 5F               [ 4] 1593 	ld	e, a
    000008D6 7A               [ 4] 1594 	ld	a, d
    000008D7 DD 9E FA         [19] 1595 	sbc	a, -6 (ix)
    000008DA                       1596 00394$:
    000008DA 47               [ 4] 1597 	ld	b, a
                                   1598 ;E:\Dropbox\FAUSTO\SVILUPPI\MSX\CODE\C\MSXgl\projects\soccerlgMSX2/soccerlg_s9_b3.c:204: if (dist_x <= 12 && dist_y <= 12) {
    000008DB DD 6E F5         [19] 1599 	ld	l, -11 (ix)
                                   1600 ;	spillPairReg hl
                                   1601 ;	spillPairReg hl
    000008DE DD 56 F6         [19] 1602 	ld	d, -10 (ix)
    000008E1 3E 0C            [ 7] 1603 	ld	a, #0x0c
    000008E3 BD               [ 4] 1604 	cp	a, l
    000008E4 3E 00            [ 7] 1605 	ld	a, #0x00
    000008E6 9A               [ 4] 1606 	sbc	a, d
    000008E7 DAr71r09         [10] 1607 	jp	C, 00184$
    000008EA 3E 0C            [ 7] 1608 	ld	a, #0x0c
    000008EC BB               [ 4] 1609 	cp	a, e
    000008ED 3E 00            [ 7] 1610 	ld	a, #0x00
    000008EF 98               [ 4] 1611 	sbc	a, b
    000008F0 DAr71r09         [10] 1612 	jp	C, 00184$
                                   1613 ;E:\Dropbox\FAUSTO\SVILUPPI\MSX\CODE\C\MSXgl\projects\soccerlgMSX2/soccerlg_s9_b3.c:205: if(g_is_penalty_shootout) {
    000008F3 3Ar00r00         [13] 1614 	ld	a, (_g_is_penalty_shootout+0)
    000008F6 B7               [ 4] 1615 	or	a, a
    000008F7 28 11            [12] 1616 	jr	Z, 00180$
                                   1617 ;E:\Dropbox\FAUSTO\SVILUPPI\MSX\CODE\C\MSXgl\projects\soccerlgMSX2/soccerlg_s9_b3.c:206: RestartType = RESTART_GKSAVE; // Segnala la parata per lo stato 15
    000008F9 FD 21r00r00      [14] 1618 	ld	iy, #_RestartType
    000008FD FD 36 00 04      [19] 1619 	ld	0 (iy), #0x04
                                   1620 ;E:\Dropbox\FAUSTO\SVILUPPI\MSX\CODE\C\MSXgl\projects\soccerlgMSX2/soccerlg_s9_b3.c:207: Ball->anim = 0; // Ferma la palla
    00000901 21 00 00         [10] 1621 	ld	hl, #0x0000
    00000904 22r55r01         [16] 1622 	ld	((_SwSprite + 341)), hl
                                   1623 ;E:\Dropbox\FAUSTO\SVILUPPI\MSX\CODE\C\MSXgl\projects\soccerlgMSX2/soccerlg_s9_b3.c:208: return;
    00000907 C3r51r19         [10] 1624 	jp	00377$
    0000090A                       1625 00180$:
                                   1626 ;E:\Dropbox\FAUSTO\SVILUPPI\MSX\CODE\C\MSXgl\projects\soccerlgMSX2/soccerlg_s9_b3.c:211: *game_state = 6; // Ferma il gioco per preparare il rinvio
    0000090A DD 6E FD         [19] 1627 	ld	l, -3 (ix)
    0000090D DD 66 FE         [19] 1628 	ld	h, -2 (ix)
    00000910 36 06            [10] 1629 	ld	(hl), #0x06
                                   1630 ;E:\Dropbox\FAUSTO\SVILUPPI\MSX\CODE\C\MSXgl\projects\soccerlgMSX2/soccerlg_s9_b3.c:212: Field.dy = 0;
    00000912 21r12r00         [10] 1631 	ld	hl, #(_Field + 18)
    00000915 36 00            [10] 1632 	ld	(hl), #0x00
                                   1633 ;E:\Dropbox\FAUSTO\SVILUPPI\MSX\CODE\C\MSXgl\projects\soccerlgMSX2/soccerlg_s9_b3.c:213: RestartType = RESTART_GKSAVE;
    00000917 21r00r00         [10] 1634 	ld	hl, #_RestartType
    0000091A 36 04            [10] 1635 	ld	(hl), #0x04
                                   1636 ;E:\Dropbox\FAUSTO\SVILUPPI\MSX\CODE\C\MSXgl\projects\soccerlgMSX2/soccerlg_s9_b3.c:214: RestartSideX = SwSprite[gk_idx].lx;
    0000091C DD 6E F3         [19] 1637 	ld	l, -13 (ix)
    0000091F DD 66 F4         [19] 1638 	ld	h, -12 (ix)
    00000922 7E               [ 7] 1639 	ld	a, (hl)
    00000923 32r00r00         [13] 1640 	ld	(_RestartSideX+0), a
                                   1641 ;E:\Dropbox\FAUSTO\SVILUPPI\MSX\CODE\C\MSXgl\projects\soccerlgMSX2/soccerlg_s9_b3.c:215: RestartSideY = SwSprite[gk_idx].ly;
    00000926 DD 6E F7         [19] 1642 	ld	l, -9 (ix)
    00000929 DD 66 F8         [19] 1643 	ld	h, -8 (ix)
    0000092C 7E               [ 7] 1644 	ld	a, (hl)
    0000092D 23               [ 6] 1645 	inc	hl
    0000092E 32r00r00         [13] 1646 	ld	(_RestartSideY+0), a
    00000931 7E               [ 7] 1647 	ld	a, (hl)
    00000932 32r01r00         [13] 1648 	ld	(_RestartSideY+1), a
                                   1649 ;E:\Dropbox\FAUSTO\SVILUPPI\MSX\CODE\C\MSXgl\projects\soccerlgMSX2/soccerlg_s9_b3.c:216: Ball->anim = Ball->dx = Ball->dy = 0;
    00000935 21r54r01         [10] 1650 	ld	hl, #(_SwSprite + 340)
    00000938 36 00            [10] 1651 	ld	(hl), #0x00
    0000093A 21r53r01         [10] 1652 	ld	hl, #(_SwSprite + 339)
    0000093D 36 00            [10] 1653 	ld	(hl), #0x00
    0000093F 21 00 00         [10] 1654 	ld	hl, #0x0000
    00000942 22r55r01         [16] 1655 	ld	((_SwSprite + 341)), hl
                                   1656 ;E:\Dropbox\FAUSTO\SVILUPPI\MSX\CODE\C\MSXgl\projects\soccerlgMSX2/soccerlg_s9_b3.c:217: Ball->frame = SPR_BALL_SIZE_1; // Forza la dimensione a terra
    00000945 2E 60            [ 7] 1657 	ld	l, #0x60
    00000947 22r51r01         [16] 1658 	ld	((_SwSprite + 337)), hl
                                   1659 ;E:\Dropbox\FAUSTO\SVILUPPI\MSX\CODE\C\MSXgl\projects\soccerlgMSX2/soccerlg_s9_b3.c:218: T1_Carrier = T2_Carrier = 0xFF;
    0000094A 21r00r00         [10] 1660 	ld	hl, #_T2_Carrier
    0000094D 36 FF            [10] 1661 	ld	(hl), #0xff
    0000094F 21r00r00         [10] 1662 	ld	hl, #_T1_Carrier
    00000952 36 FF            [10] 1663 	ld	(hl), #0xff
                                   1664 ;E:\Dropbox\FAUSTO\SVILUPPI\MSX\CODE\C\MSXgl\projects\soccerlgMSX2/soccerlg_s9_b3.c:219: TimerEnabled = FALSE;
    00000954 FD 21r00r00      [14] 1665 	ld	iy, #_TimerEnabled
    00000958 FD 36 00 00      [19] 1666 	ld	0 (iy), #0x00
                                   1667 ;E:\Dropbox\FAUSTO\SVILUPPI\MSX\CODE\C\MSXgl\projects\soccerlgMSX2/soccerlg_s9_b3.c:220: *wait_secs = 1; *start_sec = Frms;
    0000095C DD 6E FB         [19] 1668 	ld	l, -5 (ix)
    0000095F DD 66 FC         [19] 1669 	ld	h, -4 (ix)
    00000962 36 01            [10] 1670 	ld	(hl), #0x01
    00000964 DD 4E 04         [19] 1671 	ld	c, 4 (ix)
    00000967 DD 46 05         [19] 1672 	ld	b, 5 (ix)
    0000096A 3Ar00r00         [13] 1673 	ld	a, (_Frms+0)
    0000096D 02               [ 7] 1674 	ld	(bc), a
                                   1675 ;E:\Dropbox\FAUSTO\SVILUPPI\MSX\CODE\C\MSXgl\projects\soccerlgMSX2/soccerlg_s9_b3.c:221: return; // Esci dall'update per avviare la routine di pausa e ripresa
    0000096E C3r51r19         [10] 1676 	jp	00377$
    00000971                       1677 00184$:
                                   1678 ;E:\Dropbox\FAUSTO\SVILUPPI\MSX\CODE\C\MSXgl\projects\soccerlgMSX2/soccerlg_s9_b3.c:195: for (u8 g = 0; g < 2; g++) {
    00000971 0C               [ 4] 1679 	inc	c
    00000972 C3r23r08         [10] 1680 	jp	00371$
    00000975                       1681 00187$:
                                   1682 ;E:\Dropbox\FAUSTO\SVILUPPI\MSX\CODE\C\MSXgl\projects\soccerlgMSX2/soccerlg_s9_b3.c:230: scale = (progress * g_pass_max_height) / half_frame;
    00000975 DD 4E DE         [19] 1683 	ld	c, -34 (ix)
    00000978 06 00            [ 7] 1684 	ld	b, #0x00
                                   1685 ;E:\Dropbox\FAUSTO\SVILUPPI\MSX\CODE\C\MSXgl\projects\soccerlgMSX2/soccerlg_s9_b3.c:228: if (progress <= half_frame) {
    0000097A DD 7E DE         [19] 1686 	ld	a, -34 (ix)
    0000097D DD 96 DD         [19] 1687 	sub	a, -35 (ix)
    00000980 38 1B            [12] 1688 	jr	C, 00190$
                                   1689 ;E:\Dropbox\FAUSTO\SVILUPPI\MSX\CODE\C\MSXgl\projects\soccerlgMSX2/soccerlg_s9_b3.c:230: scale = (progress * g_pass_max_height) / half_frame;
    00000982 C5               [11] 1690 	push	bc
    00000983 3Ar00r00         [13] 1691 	ld	a, (#_g_pass_max_height + 0)
    00000986 5F               [ 4] 1692 	ld	e, a
    00000987 DD 66 DD         [19] 1693 	ld	h, -35 (ix)
                                   1694 ;	spillPairReg hl
                                   1695 ;	spillPairReg hl
    0000098A 2E 00            [ 7] 1696 	ld	l, #0x00
    0000098C 55               [ 4] 1697 	ld	d, l
    0000098D 06 08            [ 7] 1698 	ld	b, #0x08
    0000098F                       1699 01277$:
    0000098F 29               [11] 1700 	add	hl, hl
    00000990 30 01            [12] 1701 	jr	NC, 01278$
    00000992 19               [11] 1702 	add	hl, de
    00000993                       1703 01278$:
    00000993 10 FA            [13] 1704 	djnz	01277$
    00000995 D1               [10] 1705 	pop	de
    00000996 CDr00r00         [17] 1706 	call	__divsint
    00000999 43               [ 4] 1707 	ld	b, e
    0000099A C3rC7r09         [10] 1708 	jp	00191$
    0000099D                       1709 00190$:
                                   1710 ;E:\Dropbox\FAUSTO\SVILUPPI\MSX\CODE\C\MSXgl\projects\soccerlgMSX2/soccerlg_s9_b3.c:233: u8 progress_down = progress - half_frame;
    0000099D DD 7E DD         [19] 1711 	ld	a, -35 (ix)
    000009A0 DD 96 DE         [19] 1712 	sub	a, -34 (ix)
    000009A3 5F               [ 4] 1713 	ld	e, a
                                   1714 ;E:\Dropbox\FAUSTO\SVILUPPI\MSX\CODE\C\MSXgl\projects\soccerlgMSX2/soccerlg_s9_b3.c:234: scale = g_pass_max_height - (progress_down * g_pass_max_height) / (g_pass_max_frames - half_frame);
    000009A4 C5               [11] 1715 	push	bc
    000009A5 3Ar00r00         [13] 1716 	ld	a, (#_g_pass_max_height + 0)
    000009A8 67               [ 4] 1717 	ld	h, a
                                   1718 ;	spillPairReg hl
                                   1719 ;	spillPairReg hl
    000009A9 2E 00            [ 7] 1720 	ld	l, #0x00
    000009AB 55               [ 4] 1721 	ld	d, l
    000009AC 06 08            [ 7] 1722 	ld	b, #0x08
    000009AE                       1723 01279$:
    000009AE 29               [11] 1724 	add	hl, hl
    000009AF 30 01            [12] 1725 	jr	NC, 01280$
    000009B1 19               [11] 1726 	add	hl, de
    000009B2                       1727 01280$:
    000009B2 10 FA            [13] 1728 	djnz	01279$
    000009B4 C1               [10] 1729 	pop	bc
    000009B5 3Ar00r00         [13] 1730 	ld	a, (_g_pass_max_frames+0)
    000009B8 16 00            [ 7] 1731 	ld	d, #0x00
    000009BA 91               [ 4] 1732 	sub	a, c
    000009BB 5F               [ 4] 1733 	ld	e, a
    000009BC 7A               [ 4] 1734 	ld	a, d
    000009BD 98               [ 4] 1735 	sbc	a, b
    000009BE 57               [ 4] 1736 	ld	d, a
    000009BF CDr00r00         [17] 1737 	call	__divsint
    000009C2 3Ar00r00         [13] 1738 	ld	a, (_g_pass_max_height+0)
    000009C5 93               [ 4] 1739 	sub	a, e
    000009C6 47               [ 4] 1740 	ld	b, a
    000009C7                       1741 00191$:
                                   1742 ;E:\Dropbox\FAUSTO\SVILUPPI\MSX\CODE\C\MSXgl\projects\soccerlgMSX2/soccerlg_s9_b3.c:236: if (scale > 7) scale = 7; // Clamp a 7 (SPR_BALL_SIZE_8 = SPR_BALL_SIZE_1 + 7)
    000009C7 3E 07            [ 7] 1743 	ld	a, #0x07
    000009C9 90               [ 4] 1744 	sub	a, b
    000009CA 30 02            [12] 1745 	jr	NC, 00193$
    000009CC 06 07            [ 7] 1746 	ld	b, #0x07
    000009CE                       1747 00193$:
                                   1748 ;E:\Dropbox\FAUSTO\SVILUPPI\MSX\CODE\C\MSXgl\projects\soccerlgMSX2/soccerlg_s9_b3.c:237: CallFnc_VOID_P1(SEG_DRAW, SetBallSprite, scale);
    000009CE C5               [11] 1749 	push	bc
    000009CF 33               [ 6] 1750 	inc	sp
    000009D0 11r00r00         [10] 1751 	ld	de, #_SetBallSprite
    000009D3 3E 05            [ 7] 1752 	ld	a, #0x05
    000009D5 CDr00r00         [17] 1753 	call	_CallFnc_VOID_P1
                                   1754 ;E:\Dropbox\FAUSTO\SVILUPPI\MSX\CODE\C\MSXgl\projects\soccerlgMSX2/soccerlg_s9_b3.c:239: Ball->count++;
    000009D8 ED 4Br57r01      [20] 1755 	ld	bc, (#(_SwSprite + 343) + 0)
    000009DC 03               [ 6] 1756 	inc	bc
    000009DD ED 43r57r01      [20] 1757 	ld	((_SwSprite + 343)), bc
                                   1758 ;E:\Dropbox\FAUSTO\SVILUPPI\MSX\CODE\C\MSXgl\projects\soccerlgMSX2/soccerlg_s9_b3.c:240: if (Ball->count >= g_pass_max_frames) {
    000009E1 3Ar00r00         [13] 1759 	ld	a, (_g_pass_max_frames+0)
    000009E4 5F               [ 4] 1760 	ld	e, a
    000009E5 16 00            [ 7] 1761 	ld	d, #0x00
    000009E7 79               [ 4] 1762 	ld	a, c
    000009E8 93               [ 4] 1763 	sub	a, e
    000009E9 78               [ 4] 1764 	ld	a, b
    000009EA 9A               [ 4] 1765 	sbc	a, d
    000009EB DArF7r0A         [10] 1766 	jp	C, 00210$
                                   1767 ;E:\Dropbox\FAUSTO\SVILUPPI\MSX\CODE\C\MSXgl\projects\soccerlgMSX2/soccerlg_s9_b3.c:241: Ball->anim = 0; // Passaggio completato
    000009EE 21 00 00         [10] 1768 	ld	hl, #0x0000
    000009F1 22r55r01         [16] 1769 	ld	((_SwSprite + 341)), hl
                                   1770 ;E:\Dropbox\FAUSTO\SVILUPPI\MSX\CODE\C\MSXgl\projects\soccerlgMSX2/soccerlg_s9_b3.c:242: Ball->count = 0;
    000009F4 22r57r01         [16] 1771 	ld	((_SwSprite + 343)), hl
                                   1772 ;E:\Dropbox\FAUSTO\SVILUPPI\MSX\CODE\C\MSXgl\projects\soccerlgMSX2/soccerlg_s9_b3.c:243: Ball->dx = Ball->dy = 0;
    000009F7 21r54r01         [10] 1773 	ld	hl, #(_SwSprite + 340)
    000009FA 36 00            [10] 1774 	ld	(hl), #0x00
    000009FC 21r53r01         [10] 1775 	ld	hl, #(_SwSprite + 339)
    000009FF 36 00            [10] 1776 	ld	(hl), #0x00
                                   1777 ;E:\Dropbox\FAUSTO\SVILUPPI\MSX\CODE\C\MSXgl\projects\soccerlgMSX2/soccerlg_s9_b3.c:244: CallFnc_VOID_P1(SEG_DRAW, SetBallSprite, 0); // Torna a scale 1
    00000A01 AF               [ 4] 1778 	xor	a, a
    00000A02 F5               [11] 1779 	push	af
    00000A03 33               [ 6] 1780 	inc	sp
    00000A04 11r00r00         [10] 1781 	ld	de, #_SetBallSprite
    00000A07 3E 05            [ 7] 1782 	ld	a, #0x05
    00000A09 CDr00r00         [17] 1783 	call	_CallFnc_VOID_P1
    00000A0C C3rF7r0A         [10] 1784 	jp	00210$
    00000A0F                       1785 00207$:
                                   1786 ;E:\Dropbox\FAUSTO\SVILUPPI\MSX\CODE\C\MSXgl\projects\soccerlgMSX2/soccerlg_s9_b3.c:248: u8 speed = Ball->anim + 1;
    00000A0F DD 7E F9         [19] 1787 	ld	a, -7 (ix)
    00000A12 3C               [ 4] 1788 	inc	a
    00000A13 DD 77 FF         [19] 1789 	ld	-1 (ix), a
                                   1790 ;E:\Dropbox\FAUSTO\SVILUPPI\MSX\CODE\C\MSXgl\projects\soccerlgMSX2/soccerlg_s9_b3.c:249: if (Ball->dx > 0) Ball->lx += speed;
    00000A16 21r53r01         [10] 1791 	ld	hl, #(_SwSprite + 322) + 17
    00000A19 4E               [ 7] 1792 	ld	c, (hl)
    00000A1A AF               [ 4] 1793 	xor	a, a
    00000A1B 91               [ 4] 1794 	sub	a, c
    00000A1C E2r21r0A         [10] 1795 	jp	PO, 01281$
    00000A1F EE 80            [ 7] 1796 	xor	a, #0x80
    00000A21                       1797 01281$:
    00000A21 F2r3Ar0A         [10] 1798 	jp	P, 00199$
    00000A24 3Ar42r01         [13] 1799 	ld	a, (#(_SwSprite + 322) + 0)
    00000A27 DD 77 FA         [19] 1800 	ld	-6 (ix), a
    00000A2A DD 86 FF         [19] 1801 	add	a, -1 (ix)
    00000A2D DD 77 FA         [19] 1802 	ld	-6 (ix), a
    00000A30 21r42r01         [10] 1803 	ld	hl, #(_SwSprite + 322)
    00000A33 DD 7E FA         [19] 1804 	ld	a, -6 (ix)
    00000A36 77               [ 7] 1805 	ld	(hl), a
    00000A37 C3r47r0A         [10] 1806 	jp	00200$
    00000A3A                       1807 00199$:
                                   1808 ;E:\Dropbox\FAUSTO\SVILUPPI\MSX\CODE\C\MSXgl\projects\soccerlgMSX2/soccerlg_s9_b3.c:250: else if (Ball->dx < 0) Ball->lx -= speed;
    00000A3A CB 79            [ 8] 1809 	bit	7, c
    00000A3C 28 09            [12] 1810 	jr	Z, 00200$
    00000A3E 3Ar42r01         [13] 1811 	ld	a, (#(_SwSprite + 322) + 0)
    00000A41 DD 96 FF         [19] 1812 	sub	a, -1 (ix)
    00000A44 32r42r01         [13] 1813 	ld	(#(_SwSprite + 322)),a
    00000A47                       1814 00200$:
                                   1815 ;E:\Dropbox\FAUSTO\SVILUPPI\MSX\CODE\C\MSXgl\projects\soccerlgMSX2/soccerlg_s9_b3.c:252: if (Ball->dy > 0) Ball->ly += speed;
    00000A47 3Ar54r01         [13] 1816 	ld	a, (#(_SwSprite + 322) + 18)
    00000A4A DD 77 FA         [19] 1817 	ld	-6 (ix), a
    00000A4D AF               [ 4] 1818 	xor	a, a
    00000A4E DD 96 FA         [19] 1819 	sub	a, -6 (ix)
    00000A51 E2r56r0A         [10] 1820 	jp	PO, 01282$
    00000A54 EE 80            [ 7] 1821 	xor	a, #0x80
    00000A56                       1822 01282$:
    00000A56 F2r9Cr0A         [10] 1823 	jp	P, 00204$
    00000A59 21r46r01         [10] 1824 	ld	hl, #(_SwSprite + 326)
    00000A5C 7E               [ 7] 1825 	ld	a, (hl)
    00000A5D DD 77 F7         [19] 1826 	ld	-9 (ix), a
    00000A60 23               [ 6] 1827 	inc	hl
    00000A61 7E               [ 7] 1828 	ld	a, (hl)
    00000A62 DD 77 F8         [19] 1829 	ld	-8 (ix), a
    00000A65 DD 7E FF         [19] 1830 	ld	a, -1 (ix)
    00000A68 DD 77 F9         [19] 1831 	ld	-7 (ix), a
    00000A6B DD 36 FA 00      [19] 1832 	ld	-6 (ix), #0x00
    00000A6F DD 7E F9         [19] 1833 	ld	a, -7 (ix)
    00000A72 DD 86 F7         [19] 1834 	add	a, -9 (ix)
    00000A75 DD 77 F5         [19] 1835 	ld	-11 (ix), a
    00000A78 DD 7E FA         [19] 1836 	ld	a, -6 (ix)
    00000A7B DD 8E F8         [19] 1837 	adc	a, -8 (ix)
    00000A7E DD 77 F6         [19] 1838 	ld	-10 (ix), a
    00000A81 DD 7E F5         [19] 1839 	ld	a, -11 (ix)
    00000A84 DD 77 F9         [19] 1840 	ld	-7 (ix), a
    00000A87 DD 7E F6         [19] 1841 	ld	a, -10 (ix)
    00000A8A DD 77 FA         [19] 1842 	ld	-6 (ix), a
    00000A8D 21r46r01         [10] 1843 	ld	hl, #(_SwSprite + 326)
    00000A90 DD 7E F9         [19] 1844 	ld	a, -7 (ix)
    00000A93 77               [ 7] 1845 	ld	(hl), a
    00000A94 23               [ 6] 1846 	inc	hl
    00000A95 DD 7E FA         [19] 1847 	ld	a, -6 (ix)
    00000A98 77               [ 7] 1848 	ld	(hl), a
    00000A99 C3rEEr0A         [10] 1849 	jp	00205$
    00000A9C                       1850 00204$:
                                   1851 ;E:\Dropbox\FAUSTO\SVILUPPI\MSX\CODE\C\MSXgl\projects\soccerlgMSX2/soccerlg_s9_b3.c:253: else if (Ball->dy < 0) Ball->ly -= speed;
    00000A9C DD CB FA 7E      [20] 1852 	bit	7, -6 (ix)
    00000AA0 28 4C            [12] 1853 	jr	Z, 00205$
    00000AA2 21r46r01         [10] 1854 	ld	hl, #(_SwSprite + 326)
    00000AA5 7E               [ 7] 1855 	ld	a, (hl)
    00000AA6 DD 77 F7         [19] 1856 	ld	-9 (ix), a
    00000AA9 23               [ 6] 1857 	inc	hl
    00000AAA 7E               [ 7] 1858 	ld	a, (hl)
    00000AAB DD 77 F8         [19] 1859 	ld	-8 (ix), a
    00000AAE DD 7E FF         [19] 1860 	ld	a, -1 (ix)
    00000AB1 DD 77 F9         [19] 1861 	ld	-7 (ix), a
    00000AB4 DD 36 FA 00      [19] 1862 	ld	-6 (ix), #0x00
    00000AB8 DD 7E F7         [19] 1863 	ld	a, -9 (ix)
    00000ABB DD 77 F5         [19] 1864 	ld	-11 (ix), a
    00000ABE DD 7E F8         [19] 1865 	ld	a, -8 (ix)
    00000AC1 DD 77 F6         [19] 1866 	ld	-10 (ix), a
    00000AC4 DD 7E F9         [19] 1867 	ld	a, -7 (ix)
    00000AC7 DD 77 F7         [19] 1868 	ld	-9 (ix), a
    00000ACA DD 7E FA         [19] 1869 	ld	a, -6 (ix)
    00000ACD DD 77 F8         [19] 1870 	ld	-8 (ix), a
    00000AD0 DD 7E F5         [19] 1871 	ld	a, -11 (ix)
    00000AD3 DD 96 F7         [19] 1872 	sub	a, -9 (ix)
    00000AD6 DD 77 F9         [19] 1873 	ld	-7 (ix), a
    00000AD9 DD 7E F6         [19] 1874 	ld	a, -10 (ix)
    00000ADC DD 9E F8         [19] 1875 	sbc	a, -8 (ix)
    00000ADF DD 77 FA         [19] 1876 	ld	-6 (ix), a
    00000AE2 21r46r01         [10] 1877 	ld	hl, #(_SwSprite + 326)
    00000AE5 DD 7E F9         [19] 1878 	ld	a, -7 (ix)
    00000AE8 77               [ 7] 1879 	ld	(hl), a
    00000AE9 23               [ 6] 1880 	inc	hl
    00000AEA DD 7E FA         [19] 1881 	ld	a, -6 (ix)
    00000AED 77               [ 7] 1882 	ld	(hl), a
    00000AEE                       1883 00205$:
                                   1884 ;E:\Dropbox\FAUSTO\SVILUPPI\MSX\CODE\C\MSXgl\projects\soccerlgMSX2/soccerlg_s9_b3.c:255: Ball->anim--;
    00000AEE ED 4Br55r01      [20] 1885 	ld	bc, (#(_SwSprite + 341) + 0)
    00000AF2 0B               [ 6] 1886 	dec	bc
    00000AF3 ED 43r55r01      [20] 1887 	ld	((_SwSprite + 341)), bc
    00000AF7                       1888 00210$:
                                   1889 ;E:\Dropbox\FAUSTO\SVILUPPI\MSX\CODE\C\MSXgl\projects\soccerlgMSX2/soccerlg_s9_b3.c:260: u8 carriers[2] = {T1_Carrier, T2_Carrier};
    00000AF7 3Ar00r00         [13] 1890 	ld	a, (_T1_Carrier+0)
    00000AFA DD 77 E1         [19] 1891 	ld	-31 (ix), a
    00000AFD 3Ar00r00         [13] 1892 	ld	a, (_T2_Carrier+0)
    00000B00 DD 77 E2         [19] 1893 	ld	-30 (ix), a
                                   1894 ;E:\Dropbox\FAUSTO\SVILUPPI\MSX\CODE\C\MSXgl\projects\soccerlgMSX2/soccerlg_s9_b3.c:261: u8 receivers[2] = {T1_Receiver, T2_Receiver};
    00000B03 3Ar00r00         [13] 1895 	ld	a, (_T1_Receiver+0)
    00000B06 DD 77 E3         [19] 1896 	ld	-29 (ix), a
    00000B09 3Ar00r00         [13] 1897 	ld	a, (_T2_Receiver+0)
    00000B0C DD 77 E4         [19] 1898 	ld	-28 (ix), a
                                   1899 ;E:\Dropbox\FAUSTO\SVILUPPI\MSX\CODE\C\MSXgl\projects\soccerlgMSX2/soccerlg_s9_b3.c:263: for (u8 i = 0; i < 2; i++) { // i=0 per Team 1 (P2/CPU), i=1 per Team 2 (P1)
    00000B0F DD 36 FF 00      [19] 1900 	ld	-1 (ix), #0x00
    00000B13                       1901 00373$:
    00000B13 DD 7E FF         [19] 1902 	ld	a, -1 (ix)
    00000B16 D6 02            [ 7] 1903 	sub	a, #0x02
    00000B18 D2r95r16         [10] 1904 	jp	NC, 00331$
                                   1905 ;E:\Dropbox\FAUSTO\SVILUPPI\MSX\CODE\C\MSXgl\projects\soccerlgMSX2/soccerlg_s9_b3.c:264: u8 carrier = carriers[i];
    00000B1B DD 5E FF         [19] 1906 	ld	e, -1 (ix)
    00000B1E 16 00            [ 7] 1907 	ld	d, #0x00
    00000B20 21 06 00         [10] 1908 	ld	hl, #6
    00000B23 39               [11] 1909 	add	hl, sp
    00000B24 19               [11] 1910 	add	hl, de
    00000B25 DD 75 F9         [19] 1911 	ld	-7 (ix), l
    00000B28 DD 74 FA         [19] 1912 	ld	-6 (ix), h
    00000B2B 7E               [ 7] 1913 	ld	a, (hl)
                                   1914 ;E:\Dropbox\FAUSTO\SVILUPPI\MSX\CODE\C\MSXgl\projects\soccerlgMSX2/soccerlg_s9_b3.c:265: if (carrier == 0xFF) continue;
    00000B2C DD 77 F7         [19] 1915 	ld	-9 (ix), a
    00000B2F 3C               [ 4] 1916 	inc	a
    00000B30 CAr8Fr16         [10] 1917 	jp	Z,00330$
                                   1918 ;E:\Dropbox\FAUSTO\SVILUPPI\MSX\CODE\C\MSXgl\projects\soccerlgMSX2/soccerlg_s9_b3.c:267: u8 dir = g_player_input[i].direction;
    00000B33 DD 4E FF         [19] 1919 	ld	c, -1 (ix)
    00000B36 06 00            [ 7] 1920 	ld	b, #0x00
    00000B38 69               [ 4] 1921 	ld	l, c
    00000B39 60               [ 4] 1922 	ld	h, b
    00000B3A 29               [11] 1923 	add	hl, hl
    00000B3B 09               [11] 1924 	add	hl, bc
    00000B3C 11r00r00         [10] 1925 	ld	de, #_g_player_input
    00000B3F 19               [11] 1926 	add	hl, de
    00000B40 DD 75 F9         [19] 1927 	ld	-7 (ix), l
    00000B43 DD 74 FA         [19] 1928 	ld	-6 (ix), h
    00000B46 5E               [ 7] 1929 	ld	e, (hl)
                                   1930 ;E:\Dropbox\FAUSTO\SVILUPPI\MSX\CODE\C\MSXgl\projects\soccerlgMSX2/soccerlg_s9_b3.c:268: bool trigger_pressed = g_player_input[i].trigger_pressed;
    00000B47 DD 4E F9         [19] 1931 	ld	c, -7 (ix)
    00000B4A DD 46 FA         [19] 1932 	ld	b, -6 (ix)
    00000B4D 03               [ 6] 1933 	inc	bc
    00000B4E 0A               [ 7] 1934 	ld	a, (bc)
    00000B4F DD 77 F8         [19] 1935 	ld	-8 (ix), a
                                   1936 ;E:\Dropbox\FAUSTO\SVILUPPI\MSX\CODE\C\MSXgl\projects\soccerlgMSX2/soccerlg_s9_b3.c:269: struct ObjectInfo* Carrier = &SwSprite[carrier];
    00000B52 DD 4E F7         [19] 1937 	ld	c, -9 (ix)
    00000B55 06 00            [ 7] 1938 	ld	b, #0x00
    00000B57 69               [ 4] 1939 	ld	l, c
    00000B58 60               [ 4] 1940 	ld	h, b
    00000B59 29               [11] 1941 	add	hl, hl
    00000B5A 29               [11] 1942 	add	hl, hl
    00000B5B 09               [11] 1943 	add	hl, bc
    00000B5C 29               [11] 1944 	add	hl, hl
    00000B5D 09               [11] 1945 	add	hl, bc
    00000B5E 29               [11] 1946 	add	hl, hl
    00000B5F 09               [11] 1947 	add	hl, bc
    00000B60 01r00r00         [10] 1948 	ld	bc, #_SwSprite
    00000B63 09               [11] 1949 	add	hl, bc
    00000B64 DD 75 E9         [19] 1950 	ld	-23 (ix), l
    00000B67 DD 74 EA         [19] 1951 	ld	-22 (ix), h
                                   1952 ;E:\Dropbox\FAUSTO\SVILUPPI\MSX\CODE\C\MSXgl\projects\soccerlgMSX2/soccerlg_s9_b3.c:271: Carrier->dx = 0; Carrier->dy = 0;
    00000B6A DD 7E E9         [19] 1953 	ld	a, -23 (ix)
    00000B6D C6 11            [ 7] 1954 	add	a, #0x11
    00000B6F DD 77 EB         [19] 1955 	ld	-21 (ix), a
    00000B72 DD 7E EA         [19] 1956 	ld	a, -22 (ix)
    00000B75 CE 00            [ 7] 1957 	adc	a, #0x00
    00000B77 DD 77 EC         [19] 1958 	ld	-20 (ix), a
    00000B7A DD 6E EB         [19] 1959 	ld	l, -21 (ix)
    00000B7D DD 66 EC         [19] 1960 	ld	h, -20 (ix)
    00000B80 36 00            [10] 1961 	ld	(hl), #0x00
    00000B82 DD 7E E9         [19] 1962 	ld	a, -23 (ix)
    00000B85 C6 12            [ 7] 1963 	add	a, #0x12
    00000B87 DD 77 ED         [19] 1964 	ld	-19 (ix), a
    00000B8A DD 7E EA         [19] 1965 	ld	a, -22 (ix)
    00000B8D CE 00            [ 7] 1966 	adc	a, #0x00
    00000B8F DD 77 EE         [19] 1967 	ld	-18 (ix), a
    00000B92 DD 6E ED         [19] 1968 	ld	l, -19 (ix)
    00000B95 DD 66 EE         [19] 1969 	ld	h, -18 (ix)
    00000B98 36 00            [10] 1970 	ld	(hl), #0x00
                                   1971 ;E:\Dropbox\FAUSTO\SVILUPPI\MSX\CODE\C\MSXgl\projects\soccerlgMSX2/soccerlg_s9_b3.c:272: switch(dir) {
    00000B9A 3E 08            [ 7] 1972 	ld	a, #0x08
    00000B9C 93               [ 4] 1973 	sub	a, e
    00000B9D DAr39r0C         [10] 1974 	jp	C, 00221$
    00000BA0 16 00            [ 7] 1975 	ld	d, #0x00
    00000BA2 21rA9r0B         [10] 1976 	ld	hl, #01284$
    00000BA5 19               [11] 1977 	add	hl, de
    00000BA6 19               [11] 1978 	add	hl, de
    00000BA7 19               [11] 1979 	add	hl, de
    00000BA8 E9               [ 4] 1980 	jp	(hl)
    00000BA9                       1981 01284$:
    00000BA9 C3r39r0C         [10] 1982 	jp	00221$
    00000BAC C3rC4r0B         [10] 1983 	jp	00213$
    00000BAF C3rCFr0B         [10] 1984 	jp	00214$
    00000BB2 C3rE2r0B         [10] 1985 	jp	00215$
    00000BB5 C3rEDr0B         [10] 1986 	jp	00216$
    00000BB8 C3r00r0C         [10] 1987 	jp	00217$
    00000BBB C3r0Br0C         [10] 1988 	jp	00218$
    00000BBE C3r1Er0C         [10] 1989 	jp	00219$
    00000BC1 C3r29r0C         [10] 1990 	jp	00220$
                                   1991 ;E:\Dropbox\FAUSTO\SVILUPPI\MSX\CODE\C\MSXgl\projects\soccerlgMSX2/soccerlg_s9_b3.c:273: case DIRECTION_UP: Carrier->dy = -2; break;
    00000BC4                       1992 00213$:
    00000BC4 DD 6E ED         [19] 1993 	ld	l, -19 (ix)
    00000BC7 DD 66 EE         [19] 1994 	ld	h, -18 (ix)
    00000BCA 36 FE            [10] 1995 	ld	(hl), #0xfe
    00000BCC C3r39r0C         [10] 1996 	jp	00221$
                                   1997 ;E:\Dropbox\FAUSTO\SVILUPPI\MSX\CODE\C\MSXgl\projects\soccerlgMSX2/soccerlg_s9_b3.c:274: case DIRECTION_UP_RIGHT: Carrier->dy = -2; Carrier->dx = 2; break;
    00000BCF                       1998 00214$:
    00000BCF DD 6E ED         [19] 1999 	ld	l, -19 (ix)
    00000BD2 DD 66 EE         [19] 2000 	ld	h, -18 (ix)
    00000BD5 36 FE            [10] 2001 	ld	(hl), #0xfe
    00000BD7 DD 6E EB         [19] 2002 	ld	l, -21 (ix)
    00000BDA DD 66 EC         [19] 2003 	ld	h, -20 (ix)
    00000BDD 36 02            [10] 2004 	ld	(hl), #0x02
    00000BDF C3r39r0C         [10] 2005 	jp	00221$
                                   2006 ;E:\Dropbox\FAUSTO\SVILUPPI\MSX\CODE\C\MSXgl\projects\soccerlgMSX2/soccerlg_s9_b3.c:275: case DIRECTION_RIGHT: Carrier->dx = 2; break;
    00000BE2                       2007 00215$:
    00000BE2 DD 6E EB         [19] 2008 	ld	l, -21 (ix)
    00000BE5 DD 66 EC         [19] 2009 	ld	h, -20 (ix)
    00000BE8 36 02            [10] 2010 	ld	(hl), #0x02
    00000BEA C3r39r0C         [10] 2011 	jp	00221$
                                   2012 ;E:\Dropbox\FAUSTO\SVILUPPI\MSX\CODE\C\MSXgl\projects\soccerlgMSX2/soccerlg_s9_b3.c:276: case DIRECTION_DOWN_RIGHT: Carrier->dy = 2; Carrier->dx = 2; break;
    00000BED                       2013 00216$:
    00000BED DD 6E ED         [19] 2014 	ld	l, -19 (ix)
    00000BF0 DD 66 EE         [19] 2015 	ld	h, -18 (ix)
    00000BF3 36 02            [10] 2016 	ld	(hl), #0x02
    00000BF5 DD 6E EB         [19] 2017 	ld	l, -21 (ix)
    00000BF8 DD 66 EC         [19] 2018 	ld	h, -20 (ix)
    00000BFB 36 02            [10] 2019 	ld	(hl), #0x02
    00000BFD C3r39r0C         [10] 2020 	jp	00221$
                                   2021 ;E:\Dropbox\FAUSTO\SVILUPPI\MSX\CODE\C\MSXgl\projects\soccerlgMSX2/soccerlg_s9_b3.c:277: case DIRECTION_DOWN: Carrier->dy = 2; break;
    00000C00                       2022 00217$:
    00000C00 DD 6E ED         [19] 2023 	ld	l, -19 (ix)
    00000C03 DD 66 EE         [19] 2024 	ld	h, -18 (ix)
    00000C06 36 02            [10] 2025 	ld	(hl), #0x02
    00000C08 C3r39r0C         [10] 2026 	jp	00221$
                                   2027 ;E:\Dropbox\FAUSTO\SVILUPPI\MSX\CODE\C\MSXgl\projects\soccerlgMSX2/soccerlg_s9_b3.c:278: case DIRECTION_DOWN_LEFT: Carrier->dy = 2; Carrier->dx = -2; break;
    00000C0B                       2028 00218$:
    00000C0B DD 6E ED         [19] 2029 	ld	l, -19 (ix)
    00000C0E DD 66 EE         [19] 2030 	ld	h, -18 (ix)
    00000C11 36 02            [10] 2031 	ld	(hl), #0x02
    00000C13 DD 6E EB         [19] 2032 	ld	l, -21 (ix)
    00000C16 DD 66 EC         [19] 2033 	ld	h, -20 (ix)
    00000C19 36 FE            [10] 2034 	ld	(hl), #0xfe
    00000C1B C3r39r0C         [10] 2035 	jp	00221$
                                   2036 ;E:\Dropbox\FAUSTO\SVILUPPI\MSX\CODE\C\MSXgl\projects\soccerlgMSX2/soccerlg_s9_b3.c:279: case DIRECTION_LEFT: Carrier->dx = -2; break;
    00000C1E                       2037 00219$:
    00000C1E DD 6E EB         [19] 2038 	ld	l, -21 (ix)
    00000C21 DD 66 EC         [19] 2039 	ld	h, -20 (ix)
    00000C24 36 FE            [10] 2040 	ld	(hl), #0xfe
    00000C26 C3r39r0C         [10] 2041 	jp	00221$
                                   2042 ;E:\Dropbox\FAUSTO\SVILUPPI\MSX\CODE\C\MSXgl\projects\soccerlgMSX2/soccerlg_s9_b3.c:280: case DIRECTION_UP_LEFT: Carrier->dy = -2; Carrier->dx = -2; break;
    00000C29                       2043 00220$:
    00000C29 DD 6E ED         [19] 2044 	ld	l, -19 (ix)
    00000C2C DD 66 EE         [19] 2045 	ld	h, -18 (ix)
    00000C2F 36 FE            [10] 2046 	ld	(hl), #0xfe
    00000C31 DD 6E EB         [19] 2047 	ld	l, -21 (ix)
    00000C34 DD 66 EC         [19] 2048 	ld	h, -20 (ix)
    00000C37 36 FE            [10] 2049 	ld	(hl), #0xfe
                                   2050 ;E:\Dropbox\FAUSTO\SVILUPPI\MSX\CODE\C\MSXgl\projects\soccerlgMSX2/soccerlg_s9_b3.c:281: }
    00000C39                       2051 00221$:
                                   2052 ;E:\Dropbox\FAUSTO\SVILUPPI\MSX\CODE\C\MSXgl\projects\soccerlgMSX2/soccerlg_s9_b3.c:284: if (Carrier->dx != 0 || Carrier->dy != 0) {
    00000C39 DD 6E EB         [19] 2053 	ld	l, -21 (ix)
    00000C3C DD 66 EC         [19] 2054 	ld	h, -20 (ix)
    00000C3F 5E               [ 7] 2055 	ld	e, (hl)
                                   2056 ;E:\Dropbox\FAUSTO\SVILUPPI\MSX\CODE\C\MSXgl\projects\soccerlgMSX2/soccerlg_s9_b3.c:293: i16 next_y = (i16)Carrier->ly + Carrier->dy;
    00000C40 DD 7E E9         [19] 2057 	ld	a, -23 (ix)
    00000C43 C6 04            [ 7] 2058 	add	a, #0x04
    00000C45 DD 77 EF         [19] 2059 	ld	-17 (ix), a
    00000C48 DD 7E EA         [19] 2060 	ld	a, -22 (ix)
    00000C4B CE 00            [ 7] 2061 	adc	a, #0x00
    00000C4D DD 77 F0         [19] 2062 	ld	-16 (ix), a
                                   2063 ;E:\Dropbox\FAUSTO\SVILUPPI\MSX\CODE\C\MSXgl\projects\soccerlgMSX2/soccerlg_s9_b3.c:300: Carrier->frame = CallFnc_U16_P4(SEG_GAMESTATE_2, GetPlayerAnimFrame, carrier, Carrier->dx, Carrier->dy, walk_seq[(Carrier->anim / 3) % 4]);
    00000C50 DD 7E E9         [19] 2064 	ld	a, -23 (ix)
    00000C53 C6 0F            [ 7] 2065 	add	a, #0x0f
    00000C55 4F               [ 4] 2066 	ld	c, a
    00000C56 DD 7E EA         [19] 2067 	ld	a, -22 (ix)
    00000C59 CE 00            [ 7] 2068 	adc	a, #0x00
    00000C5B 47               [ 4] 2069 	ld	b, a
                                   2070 ;E:\Dropbox\FAUSTO\SVILUPPI\MSX\CODE\C\MSXgl\projects\soccerlgMSX2/soccerlg_s9_b3.c:284: if (Carrier->dx != 0 || Carrier->dy != 0) {
    00000C5C 7B               [ 4] 2071 	ld	a, e
    00000C5D B7               [ 4] 2072 	or	a, a
    00000C5E 20 0B            [12] 2073 	jr	NZ, 00234$
    00000C60 DD 6E ED         [19] 2074 	ld	l, -19 (ix)
    00000C63 DD 66 EE         [19] 2075 	ld	h, -18 (ix)
    00000C66 7E               [ 7] 2076 	ld	a, (hl)
    00000C67 B7               [ 4] 2077 	or	a, a
    00000C68 CAr91r0D         [10] 2078 	jp	Z, 00235$
    00000C6B                       2079 00234$:
                                   2080 ;E:\Dropbox\FAUSTO\SVILUPPI\MSX\CODE\C\MSXgl\projects\soccerlgMSX2/soccerlg_s9_b3.c:285: g_last_dx[i] = Carrier->dx;
    00000C6B 3Er00            [ 7] 2081 	ld	a, #<(_g_last_dx)
    00000C6D DD 86 FF         [19] 2082 	add	a, -1 (ix)
    00000C70 57               [ 4] 2083 	ld	d, a
    00000C71 3Es00            [ 7] 2084 	ld	a, #>(_g_last_dx)
    00000C73 CE 00            [ 7] 2085 	adc	a, #0x00
    00000C75 6A               [ 4] 2086 	ld	l, d
    00000C76 67               [ 4] 2087 	ld	h, a
    00000C77 73               [ 7] 2088 	ld	(hl), e
                                   2089 ;E:\Dropbox\FAUSTO\SVILUPPI\MSX\CODE\C\MSXgl\projects\soccerlgMSX2/soccerlg_s9_b3.c:286: g_last_dy[i] = Carrier->dy;
    00000C78 3Er00            [ 7] 2090 	ld	a, #<(_g_last_dy)
    00000C7A DD 86 FF         [19] 2091 	add	a, -1 (ix)
    00000C7D 5F               [ 4] 2092 	ld	e, a
    00000C7E 3Es00            [ 7] 2093 	ld	a, #>(_g_last_dy)
    00000C80 CE 00            [ 7] 2094 	adc	a, #0x00
    00000C82 57               [ 4] 2095 	ld	d, a
    00000C83 DD 6E ED         [19] 2096 	ld	l, -19 (ix)
    00000C86 DD 66 EE         [19] 2097 	ld	h, -18 (ix)
    00000C89 7E               [ 7] 2098 	ld	a, (hl)
    00000C8A 12               [ 7] 2099 	ld	(de), a
                                   2100 ;E:\Dropbox\FAUSTO\SVILUPPI\MSX\CODE\C\MSXgl\projects\soccerlgMSX2/soccerlg_s9_b3.c:288: i16 next_x = (i16)Carrier->lx + Carrier->dx;
    00000C8B DD 6E E9         [19] 2101 	ld	l, -23 (ix)
    00000C8E DD 66 EA         [19] 2102 	ld	h, -22 (ix)
    00000C91 5E               [ 7] 2103 	ld	e, (hl)
    00000C92 16 00            [ 7] 2104 	ld	d, #0x00
    00000C94 DD 6E EB         [19] 2105 	ld	l, -21 (ix)
    00000C97 DD 66 EC         [19] 2106 	ld	h, -20 (ix)
    00000C9A 7E               [ 7] 2107 	ld	a, (hl)
    00000C9B 6F               [ 4] 2108 	ld	l, a
                                   2109 ;	spillPairReg hl
                                   2110 ;	spillPairReg hl
    00000C9C 07               [ 4] 2111 	rlca
    00000C9D 9F               [ 4] 2112 	sbc	a, a
    00000C9E 67               [ 4] 2113 	ld	h, a
                                   2114 ;	spillPairReg hl
                                   2115 ;	spillPairReg hl
    00000C9F 19               [11] 2116 	add	hl, de
                                   2117 ;E:\Dropbox\FAUSTO\SVILUPPI\MSX\CODE\C\MSXgl\projects\soccerlgMSX2/soccerlg_s9_b3.c:289: if (next_x < 16) Carrier->lx = 16;
    00000CA0 5D               [ 4] 2118 	ld	e, l
    00000CA1 54               [ 4] 2119 	ld	d, h
    00000CA2 7B               [ 4] 2120 	ld	a, e
    00000CA3 D6 10            [ 7] 2121 	sub	a, #0x10
    00000CA5 7A               [ 4] 2122 	ld	a, d
    00000CA6 17               [ 4] 2123 	rla
    00000CA7 3F               [ 4] 2124 	ccf
    00000CA8 1F               [ 4] 2125 	rra
    00000CA9 DE 80            [ 7] 2126 	sbc	a, #0x80
    00000CAB 30 0B            [12] 2127 	jr	NC, 00226$
    00000CAD DD 6E E9         [19] 2128 	ld	l, -23 (ix)
    00000CB0 DD 66 EA         [19] 2129 	ld	h, -22 (ix)
    00000CB3 36 10            [10] 2130 	ld	(hl), #0x10
    00000CB5 C3rD9r0C         [10] 2131 	jp	00227$
    00000CB8                       2132 00226$:
                                   2133 ;E:\Dropbox\FAUSTO\SVILUPPI\MSX\CODE\C\MSXgl\projects\soccerlgMSX2/soccerlg_s9_b3.c:290: else if (next_x > 240) Carrier->lx = 240;
    00000CB8 3E F0            [ 7] 2134 	ld	a, #0xf0
    00000CBA BB               [ 4] 2135 	cp	a, e
    00000CBB 3E 00            [ 7] 2136 	ld	a, #0x00
    00000CBD 9A               [ 4] 2137 	sbc	a, d
    00000CBE E2rC3r0C         [10] 2138 	jp	PO, 01285$
    00000CC1 EE 80            [ 7] 2139 	xor	a, #0x80
    00000CC3                       2140 01285$:
    00000CC3 F2rD1r0C         [10] 2141 	jp	P, 00223$
    00000CC6 DD 6E E9         [19] 2142 	ld	l, -23 (ix)
    00000CC9 DD 66 EA         [19] 2143 	ld	h, -22 (ix)
    00000CCC 36 F0            [10] 2144 	ld	(hl), #0xf0
    00000CCE C3rD9r0C         [10] 2145 	jp	00227$
    00000CD1                       2146 00223$:
                                   2147 ;E:\Dropbox\FAUSTO\SVILUPPI\MSX\CODE\C\MSXgl\projects\soccerlgMSX2/soccerlg_s9_b3.c:291: else Carrier->lx = (u8)next_x;
    00000CD1 7D               [ 4] 2148 	ld	a, l
    00000CD2 DD 6E E9         [19] 2149 	ld	l, -23 (ix)
    00000CD5 DD 66 EA         [19] 2150 	ld	h, -22 (ix)
    00000CD8 77               [ 7] 2151 	ld	(hl), a
    00000CD9                       2152 00227$:
                                   2153 ;E:\Dropbox\FAUSTO\SVILUPPI\MSX\CODE\C\MSXgl\projects\soccerlgMSX2/soccerlg_s9_b3.c:293: i16 next_y = (i16)Carrier->ly + Carrier->dy;
    00000CD9 DD 6E EF         [19] 2154 	ld	l, -17 (ix)
    00000CDC DD 66 F0         [19] 2155 	ld	h, -16 (ix)
    00000CDF 5E               [ 7] 2156 	ld	e, (hl)
    00000CE0 23               [ 6] 2157 	inc	hl
    00000CE1 56               [ 7] 2158 	ld	d, (hl)
    00000CE2 DD 6E ED         [19] 2159 	ld	l, -19 (ix)
    00000CE5 DD 66 EE         [19] 2160 	ld	h, -18 (ix)
    00000CE8 7E               [ 7] 2161 	ld	a, (hl)
    00000CE9 6F               [ 4] 2162 	ld	l, a
                                   2163 ;	spillPairReg hl
                                   2164 ;	spillPairReg hl
    00000CEA 07               [ 4] 2165 	rlca
    00000CEB 9F               [ 4] 2166 	sbc	a, a
    00000CEC 67               [ 4] 2167 	ld	h, a
                                   2168 ;	spillPairReg hl
                                   2169 ;	spillPairReg hl
    00000CED 19               [11] 2170 	add	hl, de
                                   2171 ;E:\Dropbox\FAUSTO\SVILUPPI\MSX\CODE\C\MSXgl\projects\soccerlgMSX2/soccerlg_s9_b3.c:294: if (next_y < 24) Carrier->ly = 24;
    00000CEE 5D               [ 4] 2172 	ld	e, l
    00000CEF 54               [ 4] 2173 	ld	d, h
    00000CF0 7B               [ 4] 2174 	ld	a, e
    00000CF1 D6 18            [ 7] 2175 	sub	a, #0x18
    00000CF3 7A               [ 4] 2176 	ld	a, d
    00000CF4 17               [ 4] 2177 	rla
    00000CF5 3F               [ 4] 2178 	ccf
    00000CF6 1F               [ 4] 2179 	rra
    00000CF7 DE 80            [ 7] 2180 	sbc	a, #0x80
    00000CF9 30 0E            [12] 2181 	jr	NC, 00232$
    00000CFB DD 6E EF         [19] 2182 	ld	l, -17 (ix)
    00000CFE DD 66 F0         [19] 2183 	ld	h, -16 (ix)
    00000D01 36 18            [10] 2184 	ld	(hl), #0x18
    00000D03 23               [ 6] 2185 	inc	hl
    00000D04 36 00            [10] 2186 	ld	(hl), #0x00
    00000D06 C3r2Fr0D         [10] 2187 	jp	00233$
    00000D09                       2188 00232$:
                                   2189 ;E:\Dropbox\FAUSTO\SVILUPPI\MSX\CODE\C\MSXgl\projects\soccerlgMSX2/soccerlg_s9_b3.c:295: else if (next_y > 488) Carrier->ly = 488;
    00000D09 3E E8            [ 7] 2190 	ld	a, #0xe8
    00000D0B BB               [ 4] 2191 	cp	a, e
    00000D0C 3E 01            [ 7] 2192 	ld	a, #0x01
    00000D0E 9A               [ 4] 2193 	sbc	a, d
    00000D0F E2r14r0D         [10] 2194 	jp	PO, 01286$
    00000D12 EE 80            [ 7] 2195 	xor	a, #0x80
    00000D14                       2196 01286$:
    00000D14 F2r25r0D         [10] 2197 	jp	P, 00229$
    00000D17 DD 6E EF         [19] 2198 	ld	l, -17 (ix)
    00000D1A DD 66 F0         [19] 2199 	ld	h, -16 (ix)
    00000D1D 36 E8            [10] 2200 	ld	(hl), #0xe8
    00000D1F 23               [ 6] 2201 	inc	hl
    00000D20 36 01            [10] 2202 	ld	(hl), #0x01
    00000D22 C3r2Fr0D         [10] 2203 	jp	00233$
    00000D25                       2204 00229$:
                                   2205 ;E:\Dropbox\FAUSTO\SVILUPPI\MSX\CODE\C\MSXgl\projects\soccerlgMSX2/soccerlg_s9_b3.c:296: else Carrier->ly = (u16)next_y;
    00000D25 EB               [ 4] 2206 	ex	de, hl
    00000D26 DD 6E EF         [19] 2207 	ld	l, -17 (ix)
    00000D29 DD 66 F0         [19] 2208 	ld	h, -16 (ix)
    00000D2C 73               [ 7] 2209 	ld	(hl), e
    00000D2D 23               [ 6] 2210 	inc	hl
    00000D2E 72               [ 7] 2211 	ld	(hl), d
    00000D2F                       2212 00233$:
                                   2213 ;E:\Dropbox\FAUSTO\SVILUPPI\MSX\CODE\C\MSXgl\projects\soccerlgMSX2/soccerlg_s9_b3.c:298: Carrier->anim++;
    00000D2F DD 6E E9         [19] 2214 	ld	l, -23 (ix)
    00000D32 DD 66 EA         [19] 2215 	ld	h, -22 (ix)
    00000D35 11 13 00         [10] 2216 	ld	de, #0x0013
    00000D38 19               [11] 2217 	add	hl, de
    00000D39 5E               [ 7] 2218 	ld	e, (hl)
    00000D3A 23               [ 6] 2219 	inc	hl
    00000D3B 56               [ 7] 2220 	ld	d, (hl)
    00000D3C 2B               [ 6] 2221 	dec	hl
    00000D3D 13               [ 6] 2222 	inc	de
    00000D3E 73               [ 7] 2223 	ld	(hl), e
    00000D3F 23               [ 6] 2224 	inc	hl
    00000D40 72               [ 7] 2225 	ld	(hl), d
                                   2226 ;E:\Dropbox\FAUSTO\SVILUPPI\MSX\CODE\C\MSXgl\projects\soccerlgMSX2/soccerlg_s9_b3.c:299: const u8 walk_seq[4] = {0, 1, 2, 1}; 
    00000D41 DD 36 E5 00      [19] 2227 	ld	-27 (ix), #0x00
    00000D45 DD 36 E6 01      [19] 2228 	ld	-26 (ix), #0x01
    00000D49 DD 36 E7 02      [19] 2229 	ld	-25 (ix), #0x02
    00000D4D DD 36 E8 01      [19] 2230 	ld	-24 (ix), #0x01
                                   2231 ;E:\Dropbox\FAUSTO\SVILUPPI\MSX\CODE\C\MSXgl\projects\soccerlgMSX2/soccerlg_s9_b3.c:300: Carrier->frame = CallFnc_U16_P4(SEG_GAMESTATE_2, GetPlayerAnimFrame, carrier, Carrier->dx, Carrier->dy, walk_seq[(Carrier->anim / 3) % 4]);
    00000D51 C5               [11] 2232 	push	bc
    00000D52 EB               [ 4] 2233 	ex	de, hl
    00000D53 11 03 00         [10] 2234 	ld	de, #0x0003
    00000D56 CDr00r00         [17] 2235 	call	__divuint
    00000D59 C1               [10] 2236 	pop	bc
    00000D5A 7B               [ 4] 2237 	ld	a, e
    00000D5B E6 03            [ 7] 2238 	and	a, #0x03
    00000D5D 5F               [ 4] 2239 	ld	e, a
    00000D5E 16 00            [ 7] 2240 	ld	d, #0x00
    00000D60 21 0A 00         [10] 2241 	ld	hl, #10
    00000D63 39               [11] 2242 	add	hl, sp
    00000D64 19               [11] 2243 	add	hl, de
    00000D65 56               [ 7] 2244 	ld	d, (hl)
    00000D66 DD 6E ED         [19] 2245 	ld	l, -19 (ix)
    00000D69 DD 66 EE         [19] 2246 	ld	h, -18 (ix)
    00000D6C 7E               [ 7] 2247 	ld	a, (hl)
    00000D6D DD 6E EB         [19] 2248 	ld	l, -21 (ix)
    00000D70 DD 66 EC         [19] 2249 	ld	h, -20 (ix)
    00000D73 66               [ 7] 2250 	ld	h, (hl)
                                   2251 ;	spillPairReg hl
    00000D74 C5               [11] 2252 	push	bc
    00000D75 D5               [11] 2253 	push	de
    00000D76 33               [ 6] 2254 	inc	sp
    00000D77 F5               [11] 2255 	push	af
    00000D78 33               [ 6] 2256 	inc	sp
    00000D79 E5               [11] 2257 	push	hl
    00000D7A 33               [ 6] 2258 	inc	sp
    00000D7B DD 7E F7         [19] 2259 	ld	a, -9 (ix)
    00000D7E F5               [11] 2260 	push	af
    00000D7F 33               [ 6] 2261 	inc	sp
    00000D80 11r00r00         [10] 2262 	ld	de, #_GetPlayerAnimFrame
    00000D83 3E 0B            [ 7] 2263 	ld	a, #0x0b
    00000D85 CDr00r00         [17] 2264 	call	_CallFnc_U16_P4
    00000D88 C1               [10] 2265 	pop	bc
    00000D89 7B               [ 4] 2266 	ld	a, e
    00000D8A 02               [ 7] 2267 	ld	(bc), a
    00000D8B 03               [ 6] 2268 	inc	bc
    00000D8C 7A               [ 4] 2269 	ld	a, d
    00000D8D 02               [ 7] 2270 	ld	(bc), a
    00000D8E C3rC2r0D         [10] 2271 	jp	00236$
    00000D91                       2272 00235$:
                                   2273 ;E:\Dropbox\FAUSTO\SVILUPPI\MSX\CODE\C\MSXgl\projects\soccerlgMSX2/soccerlg_s9_b3.c:303: Carrier->frame = CallFnc_U16_P3(SEG_GAMESTATE_2, GetPlayerIdleFrame, carrier, g_last_dx[i], g_last_dy[i]);
    00000D91 3Er00            [ 7] 2274 	ld	a, #<(_g_last_dy)
    00000D93 DD 86 FF         [19] 2275 	add	a, -1 (ix)
    00000D96 6F               [ 4] 2276 	ld	l, a
                                   2277 ;	spillPairReg hl
                                   2278 ;	spillPairReg hl
    00000D97 3Es00            [ 7] 2279 	ld	a, #>(_g_last_dy)
    00000D99 CE 00            [ 7] 2280 	adc	a, #0x00
    00000D9B 67               [ 4] 2281 	ld	h, a
    00000D9C 56               [ 7] 2282 	ld	d, (hl)
    00000D9D 3Er00            [ 7] 2283 	ld	a, #<(_g_last_dx)
    00000D9F DD 86 FF         [19] 2284 	add	a, -1 (ix)
    00000DA2 5F               [ 4] 2285 	ld	e, a
    00000DA3 3Es00            [ 7] 2286 	ld	a, #>(_g_last_dx)
    00000DA5 CE 00            [ 7] 2287 	adc	a, #0x00
    00000DA7 6B               [ 4] 2288 	ld	l, e
    00000DA8 67               [ 4] 2289 	ld	h, a
    00000DA9 7E               [ 7] 2290 	ld	a, (hl)
    00000DAA C5               [11] 2291 	push	bc
    00000DAB D5               [11] 2292 	push	de
    00000DAC 33               [ 6] 2293 	inc	sp
    00000DAD F5               [11] 2294 	push	af
    00000DAE 33               [ 6] 2295 	inc	sp
    00000DAF DD 7E F7         [19] 2296 	ld	a, -9 (ix)
    00000DB2 F5               [11] 2297 	push	af
    00000DB3 33               [ 6] 2298 	inc	sp
    00000DB4 11r00r00         [10] 2299 	ld	de, #_GetPlayerIdleFrame
    00000DB7 3E 0B            [ 7] 2300 	ld	a, #0x0b
    00000DB9 CDr00r00         [17] 2301 	call	_CallFnc_U16_P3
    00000DBC C1               [10] 2302 	pop	bc
    00000DBD 7B               [ 4] 2303 	ld	a, e
    00000DBE 02               [ 7] 2304 	ld	(bc), a
    00000DBF 03               [ 6] 2305 	inc	bc
    00000DC0 7A               [ 4] 2306 	ld	a, d
    00000DC1 02               [ 7] 2307 	ld	(bc), a
    00000DC2                       2308 00236$:
                                   2309 ;E:\Dropbox\FAUSTO\SVILUPPI\MSX\CODE\C\MSXgl\projects\soccerlgMSX2/soccerlg_s9_b3.c:307: u16 dist_x = (Carrier->lx > Ball->lx) ? (Carrier->lx - Ball->lx) : (Ball->lx - Carrier->lx);
    00000DC2 DD 6E E9         [19] 2310 	ld	l, -23 (ix)
    00000DC5 DD 66 EA         [19] 2311 	ld	h, -22 (ix)
    00000DC8 5E               [ 7] 2312 	ld	e, (hl)
    00000DC9 21r42r01         [10] 2313 	ld	hl, #(_SwSprite + 322)
    00000DCC 56               [ 7] 2314 	ld	d, (hl)
    00000DCD 4B               [ 4] 2315 	ld	c, e
    00000DCE 06 00            [ 7] 2316 	ld	b, #0x00
    00000DD0 DD 72 F5         [19] 2317 	ld	-11 (ix), d
    00000DD3 DD 36 F6 00      [19] 2318 	ld	-10 (ix), #0x00
    00000DD7 7A               [ 4] 2319 	ld	a, d
    00000DD8 93               [ 4] 2320 	sub	a, e
    00000DD9 30 0C            [12] 2321 	jr	NC, 00395$
    00000DDB 79               [ 4] 2322 	ld	a, c
    00000DDC DD 96 F5         [19] 2323 	sub	a, -11 (ix)
    00000DDF 4F               [ 4] 2324 	ld	c, a
    00000DE0 78               [ 4] 2325 	ld	a, b
    00000DE1 DD 9E F6         [19] 2326 	sbc	a, -10 (ix)
    00000DE4 C3rF0r0D         [10] 2327 	jp	00396$
    00000DE7                       2328 00395$:
    00000DE7 DD 7E F5         [19] 2329 	ld	a, -11 (ix)
    00000DEA 91               [ 4] 2330 	sub	a, c
    00000DEB 4F               [ 4] 2331 	ld	c, a
    00000DEC DD 7E F6         [19] 2332 	ld	a, -10 (ix)
    00000DEF 98               [ 4] 2333 	sbc	a, b
    00000DF0                       2334 00396$:
    00000DF0 DD 71 DB         [19] 2335 	ld	-37 (ix), c
    00000DF3 DD 77 DC         [19] 2336 	ld	-36 (ix), a
                                   2337 ;E:\Dropbox\FAUSTO\SVILUPPI\MSX\CODE\C\MSXgl\projects\soccerlgMSX2/soccerlg_s9_b3.c:308: u16 dist_y = (Carrier->ly > Ball->ly) ? (Carrier->ly - Ball->ly) : (Ball->ly - Carrier->ly);
    00000DF6 DD 6E EF         [19] 2338 	ld	l, -17 (ix)
    00000DF9 DD 66 F0         [19] 2339 	ld	h, -16 (ix)
    00000DFC 7E               [ 7] 2340 	ld	a, (hl)
    00000DFD DD 77 DF         [19] 2341 	ld	-33 (ix), a
    00000E00 23               [ 6] 2342 	inc	hl
    00000E01 7E               [ 7] 2343 	ld	a, (hl)
    00000E02 DD 77 E0         [19] 2344 	ld	-32 (ix), a
    00000E05 21r46r01         [10] 2345 	ld	hl, #(_SwSprite + 326)
    00000E08 7E               [ 7] 2346 	ld	a, (hl)
    00000E09 DD 77 F3         [19] 2347 	ld	-13 (ix), a
    00000E0C 23               [ 6] 2348 	inc	hl
    00000E0D 7E               [ 7] 2349 	ld	a, (hl)
    00000E0E DD 77 F4         [19] 2350 	ld	-12 (ix), a
    00000E11 DD 7E F3         [19] 2351 	ld	a, -13 (ix)
    00000E14 DD 96 DF         [19] 2352 	sub	a, -33 (ix)
    00000E17 DD 7E F4         [19] 2353 	ld	a, -12 (ix)
    00000E1A DD 9E E0         [19] 2354 	sbc	a, -32 (ix)
    00000E1D 30 15            [12] 2355 	jr	NC, 00397$
    00000E1F DD 7E DF         [19] 2356 	ld	a, -33 (ix)
    00000E22 DD 96 F3         [19] 2357 	sub	a, -13 (ix)
    00000E25 DD 77 F5         [19] 2358 	ld	-11 (ix), a
    00000E28 DD 7E E0         [19] 2359 	ld	a, -32 (ix)
    00000E2B DD 9E F4         [19] 2360 	sbc	a, -12 (ix)
    00000E2E DD 77 F6         [19] 2361 	ld	-10 (ix), a
    00000E31 C3r46r0E         [10] 2362 	jp	00398$
    00000E34                       2363 00397$:
    00000E34 DD 7E F3         [19] 2364 	ld	a, -13 (ix)
    00000E37 DD 96 DF         [19] 2365 	sub	a, -33 (ix)
    00000E3A DD 77 F5         [19] 2366 	ld	-11 (ix), a
    00000E3D DD 7E F4         [19] 2367 	ld	a, -12 (ix)
    00000E40 DD 9E E0         [19] 2368 	sbc	a, -32 (ix)
    00000E43 DD 77 F6         [19] 2369 	ld	-10 (ix), a
    00000E46                       2370 00398$:
    00000E46 DD 7E F5         [19] 2371 	ld	a, -11 (ix)
    00000E49 DD 77 DD         [19] 2372 	ld	-35 (ix), a
    00000E4C DD 7E F6         [19] 2373 	ld	a, -10 (ix)
    00000E4F DD 77 DE         [19] 2374 	ld	-34 (ix), a
                                   2375 ;E:\Dropbox\FAUSTO\SVILUPPI\MSX\CODE\C\MSXgl\projects\soccerlgMSX2/soccerlg_s9_b3.c:310: u8 carrier_team = (carrier < 7) ? TEAM_1 : TEAM_2;
    00000E52 DD 7E F7         [19] 2376 	ld	a, -9 (ix)
    00000E55 D6 07            [ 7] 2377 	sub	a, #0x07
    00000E57 3E 00            [ 7] 2378 	ld	a, #0x00
    00000E59 17               [ 4] 2379 	rla
    00000E5A DD 77 F1         [19] 2380 	ld	-15 (ix), a
    00000E5D B7               [ 4] 2381 	or	a, a
    00000E5E 28 0A            [12] 2382 	jr	Z, 00399$
    00000E60 AF               [ 4] 2383 	xor	a, a
    00000E61 DD 77 F5         [19] 2384 	ld	-11 (ix), a
    00000E64 DD 77 F6         [19] 2385 	ld	-10 (ix), a
    00000E67 C3r72r0E         [10] 2386 	jp	00400$
    00000E6A                       2387 00399$:
    00000E6A DD 36 F5 01      [19] 2388 	ld	-11 (ix), #0x01
    00000E6E DD 36 F6 00      [19] 2389 	ld	-10 (ix), #0
    00000E72                       2390 00400$:
    00000E72 DD 4E F5         [19] 2391 	ld	c, -11 (ix)
                                   2392 ;E:\Dropbox\FAUSTO\SVILUPPI\MSX\CODE\C\MSXgl\projects\soccerlgMSX2/soccerlg_s9_b3.c:311: u8 touch_dist = (LastTouchTeam == carrier_team || LastTouchTeam == 0xFF) ? 24 : 10; // 10 pixel per il tackle
    00000E75 3Ar00r00         [13] 2393 	ld	a,(_LastTouchTeam+0)
    00000E78 B9               [ 4] 2394 	cp	a,c
    00000E79 28 03            [12] 2395 	jr	Z, 00404$
    00000E7B 3C               [ 4] 2396 	inc	a
    00000E7C 20 0B            [12] 2397 	jr	NZ, 00401$
    00000E7E                       2398 00404$:
    00000E7E DD 36 F5 18      [19] 2399 	ld	-11 (ix), #0x18
    00000E82 DD 36 F6 00      [19] 2400 	ld	-10 (ix), #0
    00000E86 C3r91r0E         [10] 2401 	jp	00402$
    00000E89                       2402 00401$:
    00000E89 DD 36 F5 0A      [19] 2403 	ld	-11 (ix), #0x0a
    00000E8D DD 36 F6 00      [19] 2404 	ld	-10 (ix), #0
    00000E91                       2405 00402$:
    00000E91 DD 4E F5         [19] 2406 	ld	c, -11 (ix)
                                   2407 ;E:\Dropbox\FAUSTO\SVILUPPI\MSX\CODE\C\MSXgl\projects\soccerlgMSX2/soccerlg_s9_b3.c:107: if (Ball->anim > 0) {
    00000E94 2Ar55r01         [16] 2408 	ld	hl, (#(_SwSprite + 341) + 0)
                                   2409 ;E:\Dropbox\FAUSTO\SVILUPPI\MSX\CODE\C\MSXgl\projects\soccerlgMSX2/soccerlg_s9_b3.c:312: if (Ball->anim >= 6) touch_dist = 8; // I tiri potenti sfuggono facilmente al tackle
    00000E97 DD 75 F3         [19] 2410 	ld	-13 (ix), l
    00000E9A DD 74 F4         [19] 2411 	ld	-12 (ix), h
    00000E9D DD 7E F3         [19] 2412 	ld	a, -13 (ix)
    00000EA0 D6 06            [ 7] 2413 	sub	a, #0x06
    00000EA2 DD 7E F4         [19] 2414 	ld	a, -12 (ix)
    00000EA5 DE 00            [ 7] 2415 	sbc	a, #0x00
    00000EA7 38 02            [12] 2416 	jr	C, 00239$
    00000EA9 0E 08            [ 7] 2417 	ld	c, #0x08
    00000EAB                       2418 00239$:
                                   2419 ;E:\Dropbox\FAUSTO\SVILUPPI\MSX\CODE\C\MSXgl\projects\soccerlgMSX2/soccerlg_s9_b3.c:315: if (dist_x <= touch_dist && dist_y <= touch_dist && Ball->anim != 5) {
    00000EAB DD 71 F5         [19] 2420 	ld	-11 (ix), c
    00000EAE DD 36 F6 00      [19] 2421 	ld	-10 (ix), #0x00
    00000EB2 DD 7E F5         [19] 2422 	ld	a, -11 (ix)
    00000EB5 DD 96 DB         [19] 2423 	sub	a, -37 (ix)
    00000EB8 DD 7E F6         [19] 2424 	ld	a, -10 (ix)
    00000EBB DD 9E DC         [19] 2425 	sbc	a, -36 (ix)
    00000EBE DAr8Fr16         [10] 2426 	jp	C, 00330$
    00000EC1 DD 7E F5         [19] 2427 	ld	a, -11 (ix)
    00000EC4 DD 96 DD         [19] 2428 	sub	a, -35 (ix)
    00000EC7 DD 7E F6         [19] 2429 	ld	a, -10 (ix)
    00000ECA DD 9E DE         [19] 2430 	sbc	a, -34 (ix)
    00000ECD DAr8Fr16         [10] 2431 	jp	C, 00330$
    00000ED0 DD 7E F3         [19] 2432 	ld	a, -13 (ix)
    00000ED3 D6 05            [ 7] 2433 	sub	a, #0x05
    00000ED5 DD B6 F4         [19] 2434 	or	a, -12 (ix)
    00000ED8 CAr8Fr16         [10] 2435 	jp	Z,00330$
                                   2436 ;E:\Dropbox\FAUSTO\SVILUPPI\MSX\CODE\C\MSXgl\projects\soccerlgMSX2/soccerlg_s9_b3.c:317: bool offside = FALSE;
    00000EDB DD 36 F4 00      [19] 2437 	ld	-12 (ix), #0x00
                                   2438 ;E:\Dropbox\FAUSTO\SVILUPPI\MSX\CODE\C\MSXgl\projects\soccerlgMSX2/soccerlg_s9_b3.c:318: if (carrier < 7 && LastTouchTeam == TEAM_1 && LastTouchPlayer != carrier) {
    00000EDF DD 7E F1         [19] 2439 	ld	a, -15 (ix)
    00000EE2 B7               [ 4] 2440 	or	a, a
    00000EE3 CAr64r0F         [10] 2441 	jp	Z, 00251$
    00000EE6 3Ar00r00         [13] 2442 	ld	a, (_LastTouchTeam+0)
    00000EE9 B7               [ 4] 2443 	or	a, a
    00000EEA 20 78            [12] 2444 	jr	NZ, 00251$
    00000EEC 3Ar00r00         [13] 2445 	ld	a, (_LastTouchPlayer+0)
    00000EEF DD 96 F7         [19] 2446 	sub	a, -9 (ix)
    00000EF2 28 70            [12] 2447 	jr	Z, 00251$
                                   2448 ;E:\Dropbox\FAUSTO\SVILUPPI\MSX\CODE\C\MSXgl\projects\soccerlgMSX2/soccerlg_s9_b3.c:319: u16 offside_line = (SwSprite[8].ly < SwSprite[9].ly) ? SwSprite[8].ly : SwSprite[9].ly;
    00000EF4 21rBCr00         [10] 2449 	ld	hl, #_SwSprite + 188
    00000EF7 7E               [ 7] 2450 	ld	a, (hl)
    00000EF8 DD 77 F2         [19] 2451 	ld	-14 (ix), a
    00000EFB 23               [ 6] 2452 	inc	hl
    00000EFC 7E               [ 7] 2453 	ld	a, (hl)
    00000EFD DD 77 F3         [19] 2454 	ld	-13 (ix), a
    00000F00 21rD3r00         [10] 2455 	ld	hl, #_SwSprite + 211
    00000F03 7E               [ 7] 2456 	ld	a, (hl)
    00000F04 DD 77 F5         [19] 2457 	ld	-11 (ix), a
    00000F07 23               [ 6] 2458 	inc	hl
    00000F08 7E               [ 7] 2459 	ld	a, (hl)
    00000F09 DD 77 F6         [19] 2460 	ld	-10 (ix), a
    00000F0C DD 7E F2         [19] 2461 	ld	a, -14 (ix)
    00000F0F DD 96 F5         [19] 2462 	sub	a, -11 (ix)
    00000F12 DD 7E F3         [19] 2463 	ld	a, -13 (ix)
    00000F15 DD 9E F6         [19] 2464 	sbc	a, -10 (ix)
    00000F18 30 0C            [12] 2465 	jr	NC, 00406$
    00000F1A DD 7E F2         [19] 2466 	ld	a, -14 (ix)
    00000F1D DD 77 F5         [19] 2467 	ld	-11 (ix), a
    00000F20 DD 7E F3         [19] 2468 	ld	a, -13 (ix)
    00000F23 DD 77 F6         [19] 2469 	ld	-10 (ix), a
    00000F26                       2470 00406$:
                                   2471 ;E:\Dropbox\FAUSTO\SVILUPPI\MSX\CODE\C\MSXgl\projects\soccerlgMSX2/soccerlg_s9_b3.c:320: if (Carrier->ly > offside_line + 8 && Carrier->ly > 256) offside = TRUE;
    00000F26 DD 7E F5         [19] 2472 	ld	a, -11 (ix)
    00000F29 C6 08            [ 7] 2473 	add	a, #0x08
    00000F2B DD 77 F2         [19] 2474 	ld	-14 (ix), a
    00000F2E DD 7E F6         [19] 2475 	ld	a, -10 (ix)
    00000F31 CE 00            [ 7] 2476 	adc	a, #0x00
    00000F33 DD 77 F3         [19] 2477 	ld	-13 (ix), a
    00000F36 DD 7E DF         [19] 2478 	ld	a, -33 (ix)
    00000F39 DD 77 F5         [19] 2479 	ld	-11 (ix), a
    00000F3C DD 7E E0         [19] 2480 	ld	a, -32 (ix)
    00000F3F DD 77 F6         [19] 2481 	ld	-10 (ix), a
    00000F42 DD 7E F2         [19] 2482 	ld	a, -14 (ix)
    00000F45 DD 96 F5         [19] 2483 	sub	a, -11 (ix)
    00000F48 DD 7E F3         [19] 2484 	ld	a, -13 (ix)
    00000F4B DD 9E F6         [19] 2485 	sbc	a, -10 (ix)
    00000F4E D2rE0r0F         [10] 2486 	jp	NC, 00252$
    00000F51 AF               [ 4] 2487 	xor	a, a
    00000F52 DD BE F5         [19] 2488 	cp	a, -11 (ix)
    00000F55 3E 01            [ 7] 2489 	ld	a, #0x01
    00000F57 DD 9E F6         [19] 2490 	sbc	a, -10 (ix)
    00000F5A D2rE0r0F         [10] 2491 	jp	NC, 00252$
    00000F5D DD 36 F4 01      [19] 2492 	ld	-12 (ix), #0x01
    00000F61 C3rE0r0F         [10] 2493 	jp	00252$
    00000F64                       2494 00251$:
                                   2495 ;E:\Dropbox\FAUSTO\SVILUPPI\MSX\CODE\C\MSXgl\projects\soccerlgMSX2/soccerlg_s9_b3.c:321: } else if (carrier >= 7 && LastTouchTeam == TEAM_2 && LastTouchPlayer != carrier) {
    00000F64 DD 4E F1         [19] 2496 	ld	c, -15 (ix)
    00000F67 CB 41            [ 8] 2497 	bit	0, c
    00000F69 20 75            [12] 2498 	jr	NZ, 00252$
    00000F6B 3Ar00r00         [13] 2499 	ld	a, (_LastTouchTeam+0)
    00000F6E 3D               [ 4] 2500 	dec	a
    00000F6F 20 6F            [12] 2501 	jr	NZ, 00252$
    00000F71 3Ar00r00         [13] 2502 	ld	a, (_LastTouchPlayer+0)
    00000F74 DD 96 F7         [19] 2503 	sub	a, -9 (ix)
    00000F77 28 67            [12] 2504 	jr	Z, 00252$
                                   2505 ;E:\Dropbox\FAUSTO\SVILUPPI\MSX\CODE\C\MSXgl\projects\soccerlgMSX2/soccerlg_s9_b3.c:322: u16 offside_line = (SwSprite[1].ly > SwSprite[2].ly) ? SwSprite[1].ly : SwSprite[2].ly;
    00000F79 21r1Br00         [10] 2506 	ld	hl, #_SwSprite + 27
    00000F7C 7E               [ 7] 2507 	ld	a, (hl)
    00000F7D DD 77 F2         [19] 2508 	ld	-14 (ix), a
    00000F80 23               [ 6] 2509 	inc	hl
    00000F81 7E               [ 7] 2510 	ld	a, (hl)
    00000F82 DD 77 F3         [19] 2511 	ld	-13 (ix), a
    00000F85 21r32r00         [10] 2512 	ld	hl, #_SwSprite + 50
    00000F88 7E               [ 7] 2513 	ld	a, (hl)
    00000F89 DD 77 F5         [19] 2514 	ld	-11 (ix), a
    00000F8C 23               [ 6] 2515 	inc	hl
    00000F8D 7E               [ 7] 2516 	ld	a, (hl)
    00000F8E DD 77 F6         [19] 2517 	ld	-10 (ix), a
    00000F91 DD 7E F5         [19] 2518 	ld	a, -11 (ix)
    00000F94 DD 96 F2         [19] 2519 	sub	a, -14 (ix)
    00000F97 DD 7E F6         [19] 2520 	ld	a, -10 (ix)
    00000F9A DD 9E F3         [19] 2521 	sbc	a, -13 (ix)
    00000F9D 30 0C            [12] 2522 	jr	NC, 00408$
    00000F9F DD 7E F2         [19] 2523 	ld	a, -14 (ix)
    00000FA2 DD 77 F5         [19] 2524 	ld	-11 (ix), a
    00000FA5 DD 7E F3         [19] 2525 	ld	a, -13 (ix)
    00000FA8 DD 77 F6         [19] 2526 	ld	-10 (ix), a
    00000FAB                       2527 00408$:
                                   2528 ;E:\Dropbox\FAUSTO\SVILUPPI\MSX\CODE\C\MSXgl\projects\soccerlgMSX2/soccerlg_s9_b3.c:323: if (Carrier->ly < offside_line - 8 && Carrier->ly < 256) offside = TRUE;
    00000FAB DD 7E F5         [19] 2529 	ld	a, -11 (ix)
    00000FAE C6 F8            [ 7] 2530 	add	a, #0xf8
    00000FB0 DD 77 F2         [19] 2531 	ld	-14 (ix), a
    00000FB3 DD 7E F6         [19] 2532 	ld	a, -10 (ix)
    00000FB6 CE FF            [ 7] 2533 	adc	a, #0xff
    00000FB8 DD 77 F3         [19] 2534 	ld	-13 (ix), a
    00000FBB DD 7E DF         [19] 2535 	ld	a, -33 (ix)
    00000FBE DD 77 F5         [19] 2536 	ld	-11 (ix), a
    00000FC1 DD 7E E0         [19] 2537 	ld	a, -32 (ix)
    00000FC4 DD 77 F6         [19] 2538 	ld	-10 (ix), a
    00000FC7 DD 7E F5         [19] 2539 	ld	a, -11 (ix)
    00000FCA DD 96 F2         [19] 2540 	sub	a, -14 (ix)
    00000FCD DD 7E F6         [19] 2541 	ld	a, -10 (ix)
    00000FD0 DD 9E F3         [19] 2542 	sbc	a, -13 (ix)
    00000FD3 30 0B            [12] 2543 	jr	NC, 00252$
    00000FD5 DD 7E F6         [19] 2544 	ld	a, -10 (ix)
    00000FD8 D6 01            [ 7] 2545 	sub	a, #0x01
    00000FDA 30 04            [12] 2546 	jr	NC, 00252$
    00000FDC DD 36 F4 01      [19] 2547 	ld	-12 (ix), #0x01
    00000FE0                       2548 00252$:
                                   2549 ;E:\Dropbox\FAUSTO\SVILUPPI\MSX\CODE\C\MSXgl\projects\soccerlgMSX2/soccerlg_s9_b3.c:217: Ball->frame = SPR_BALL_SIZE_1; // Forza la dimensione a terra
                                   2550 ;E:\Dropbox\FAUSTO\SVILUPPI\MSX\CODE\C\MSXgl\projects\soccerlgMSX2/soccerlg_s9_b3.c:325: if (offside) {
    00000FE0 DD 7E F4         [19] 2551 	ld	a, -12 (ix)
    00000FE3 B7               [ 4] 2552 	or	a, a
    00000FE4 28 51            [12] 2553 	jr	Z, 00256$
                                   2554 ;E:\Dropbox\FAUSTO\SVILUPPI\MSX\CODE\C\MSXgl\projects\soccerlgMSX2/soccerlg_s9_b3.c:326: *game_state = 6; // Ferma il gioco
    00000FE6 DD 6E FD         [19] 2555 	ld	l, -3 (ix)
    00000FE9 DD 66 FE         [19] 2556 	ld	h, -2 (ix)
    00000FEC 36 06            [10] 2557 	ld	(hl), #0x06
                                   2558 ;E:\Dropbox\FAUSTO\SVILUPPI\MSX\CODE\C\MSXgl\projects\soccerlgMSX2/soccerlg_s9_b3.c:327: RestartType = 0; // Temporaneo fallback a KickOff per la ripresa
    00000FEE 21r00r00         [10] 2559 	ld	hl, #_RestartType
    00000FF1 36 00            [10] 2560 	ld	(hl), #0x00
                                   2561 ;E:\Dropbox\FAUSTO\SVILUPPI\MSX\CODE\C\MSXgl\projects\soccerlgMSX2/soccerlg_s9_b3.c:328: CallFnc_VOID(SEG_EVENTS, EventOffside);
    00000FF3 11r00r00         [10] 2562 	ld	de, #_EventOffside
    00000FF6 3E 08            [ 7] 2563 	ld	a, #0x08
    00000FF8 CDr00r00         [17] 2564 	call	_CallFnc_VOID
                                   2565 ;E:\Dropbox\FAUSTO\SVILUPPI\MSX\CODE\C\MSXgl\projects\soccerlgMSX2/soccerlg_s9_b3.c:329: Ball->anim = Ball->dx = Ball->dy = 0;
    00000FFB 21r54r01         [10] 2566 	ld	hl, #(_SwSprite + 340)
    00000FFE 36 00            [10] 2567 	ld	(hl), #0x00
    00001000 21r53r01         [10] 2568 	ld	hl, #(_SwSprite + 339)
    00001003 36 00            [10] 2569 	ld	(hl), #0x00
    00001005 21 00 00         [10] 2570 	ld	hl, #0x0000
    00001008 22r55r01         [16] 2571 	ld	((_SwSprite + 341)), hl
                                   2572 ;E:\Dropbox\FAUSTO\SVILUPPI\MSX\CODE\C\MSXgl\projects\soccerlgMSX2/soccerlg_s9_b3.c:330: Ball->frame = SPR_BALL_SIZE_1; // Forza la dimensione a terra
    0000100B 2E 60            [ 7] 2573 	ld	l, #0x60
    0000100D 22r51r01         [16] 2574 	ld	((_SwSprite + 337)), hl
                                   2575 ;E:\Dropbox\FAUSTO\SVILUPPI\MSX\CODE\C\MSXgl\projects\soccerlgMSX2/soccerlg_s9_b3.c:331: T1_Carrier = T2_Carrier = 0xFF;
    00001010 21r00r00         [10] 2576 	ld	hl, #_T2_Carrier
    00001013 36 FF            [10] 2577 	ld	(hl), #0xff
    00001015 21r00r00         [10] 2578 	ld	hl, #_T1_Carrier
    00001018 36 FF            [10] 2579 	ld	(hl), #0xff
                                   2580 ;E:\Dropbox\FAUSTO\SVILUPPI\MSX\CODE\C\MSXgl\projects\soccerlgMSX2/soccerlg_s9_b3.c:332: TimerEnabled = FALSE;
    0000101A FD 21r00r00      [14] 2581 	ld	iy, #_TimerEnabled
    0000101E FD 36 00 00      [19] 2582 	ld	0 (iy), #0x00
                                   2583 ;E:\Dropbox\FAUSTO\SVILUPPI\MSX\CODE\C\MSXgl\projects\soccerlgMSX2/soccerlg_s9_b3.c:333: *wait_secs = 2; *start_sec = Frms;
    00001022 DD 6E FB         [19] 2584 	ld	l, -5 (ix)
    00001025 DD 66 FC         [19] 2585 	ld	h, -4 (ix)
    00001028 36 02            [10] 2586 	ld	(hl), #0x02
    0000102A DD 4E 04         [19] 2587 	ld	c, 4 (ix)
    0000102D DD 46 05         [19] 2588 	ld	b, 5 (ix)
    00001030 3Ar00r00         [13] 2589 	ld	a, (_Frms+0)
    00001033 02               [ 7] 2590 	ld	(bc), a
                                   2591 ;E:\Dropbox\FAUSTO\SVILUPPI\MSX\CODE\C\MSXgl\projects\soccerlgMSX2/soccerlg_s9_b3.c:334: continue; // Salta il controllo palla
    00001034 C3r8Fr16         [10] 2592 	jp	00330$
    00001037                       2593 00256$:
                                   2594 ;E:\Dropbox\FAUSTO\SVILUPPI\MSX\CODE\C\MSXgl\projects\soccerlgMSX2/soccerlg_s9_b3.c:337: LastTouchTeam = (carrier < 7) ? TEAM_1 : TEAM_2;
    00001037 DD 7E F1         [19] 2595 	ld	a, -15 (ix)
    0000103A B7               [ 4] 2596 	or	a, a
    0000103B 28 06            [12] 2597 	jr	Z, 00410$
    0000103D 01 00 00         [10] 2598 	ld	bc, #0x0000
    00001040 C3r46r10         [10] 2599 	jp	00411$
    00001043                       2600 00410$:
    00001043 01 01 00         [10] 2601 	ld	bc, #0x0001
    00001046                       2602 00411$:
    00001046 79               [ 4] 2603 	ld	a, c
    00001047 32r00r00         [13] 2604 	ld	(#_LastTouchTeam), a
                                   2605 ;E:\Dropbox\FAUSTO\SVILUPPI\MSX\CODE\C\MSXgl\projects\soccerlgMSX2/soccerlg_s9_b3.c:338: LastTouchPlayer = carrier;
    0000104A DD 7E F7         [19] 2606 	ld	a, -9 (ix)
    0000104D 32r00r00         [13] 2607 	ld	(_LastTouchPlayer+0), a
                                   2608 ;E:\Dropbox\FAUSTO\SVILUPPI\MSX\CODE\C\MSXgl\projects\soccerlgMSX2/soccerlg_s9_b3.c:339: Ball->frame = SPR_BALL_SIZE_1; // Assicura che la palla sia a terra quando tra i piedi
    00001050 21 60 00         [10] 2609 	ld	hl, #0x0060
    00001053 22r51r01         [16] 2610 	ld	((_SwSprite + 337)), hl
                                   2611 ;E:\Dropbox\FAUSTO\SVILUPPI\MSX\CODE\C\MSXgl\projects\soccerlgMSX2/soccerlg_s9_b3.c:284: if (Carrier->dx != 0 || Carrier->dy != 0) {
    00001056 DD 6E EB         [19] 2612 	ld	l, -21 (ix)
    00001059 DD 66 EC         [19] 2613 	ld	h, -20 (ix)
    0000105C 7E               [ 7] 2614 	ld	a, (hl)
    0000105D DD 77 F6         [19] 2615 	ld	-10 (ix), a
    00001060 DD 6E ED         [19] 2616 	ld	l, -19 (ix)
    00001063 DD 66 EE         [19] 2617 	ld	h, -18 (ix)
    00001066 7E               [ 7] 2618 	ld	a, (hl)
    00001067 DD 77 F4         [19] 2619 	ld	-12 (ix), a
                                   2620 ;E:\Dropbox\FAUSTO\SVILUPPI\MSX\CODE\C\MSXgl\projects\soccerlgMSX2/soccerlg_s9_b3.c:343: if (Carrier->dx != 0 || Carrier->dy != 0) {
    0000106A DD 7E F6         [19] 2621 	ld	a, -10 (ix)
    0000106D B7               [ 4] 2622 	or	a, a
    0000106E 20 06            [12] 2623 	jr	NZ, 00257$
    00001070 DD 7E F4         [19] 2624 	ld	a, -12 (ix)
    00001073 B7               [ 4] 2625 	or	a, a
    00001074 28 5C            [12] 2626 	jr	Z, 00258$
    00001076                       2627 00257$:
                                   2628 ;E:\Dropbox\FAUSTO\SVILUPPI\MSX\CODE\C\MSXgl\projects\soccerlgMSX2/soccerlg_s9_b3.c:344: c_dx = (Carrier->dx > 0) ? 1 : ((Carrier->dx < 0) ? -1 : 0);
    00001076 AF               [ 4] 2629 	xor	a, a
    00001077 DD 96 F6         [19] 2630 	sub	a, -10 (ix)
    0000107A E2r7Fr10         [10] 2631 	jp	PO, 01295$
    0000107D EE 80            [ 7] 2632 	xor	a, #0x80
    0000107F                       2633 01295$:
    0000107F F2r8Dr10         [10] 2634 	jp	P, 00412$
    00001082 DD 36 F5 01      [19] 2635 	ld	-11 (ix), #0x01
    00001086 DD 36 F6 00      [19] 2636 	ld	-10 (ix), #0
    0000108A C3rA5r10         [10] 2637 	jp	00413$
    0000108D                       2638 00412$:
    0000108D DD CB F6 7E      [20] 2639 	bit	7, -10 (ix)
    00001091 28 0B            [12] 2640 	jr	Z, 00414$
    00001093 DD 36 F5 FF      [19] 2641 	ld	-11 (ix), #0xff
    00001097 DD 36 F6 FF      [19] 2642 	ld	-10 (ix), #0xff
    0000109B C3rA5r10         [10] 2643 	jp	00415$
    0000109E                       2644 00414$:
    0000109E AF               [ 4] 2645 	xor	a, a
    0000109F DD 77 F5         [19] 2646 	ld	-11 (ix), a
    000010A2 DD 77 F6         [19] 2647 	ld	-10 (ix), a
    000010A5                       2648 00415$:
    000010A5                       2649 00413$:
    000010A5 DD 7E F5         [19] 2650 	ld	a, -11 (ix)
    000010A8 DD 77 F1         [19] 2651 	ld	-15 (ix), a
                                   2652 ;E:\Dropbox\FAUSTO\SVILUPPI\MSX\CODE\C\MSXgl\projects\soccerlgMSX2/soccerlg_s9_b3.c:345: c_dy = (Carrier->dy > 0) ? 1 : ((Carrier->dy < 0) ? -1 : 0);
    000010AB AF               [ 4] 2653 	xor	a, a
    000010AC DD 96 F4         [19] 2654 	sub	a, -12 (ix)
    000010AF E2rB4r10         [10] 2655 	jp	PO, 01296$
    000010B2 EE 80            [ 7] 2656 	xor	a, #0x80
    000010B4                       2657 01296$:
    000010B4 F2rBDr10         [10] 2658 	jp	P, 00416$
    000010B7 11 01 00         [10] 2659 	ld	de, #0x0001
    000010BA C3rCCr10         [10] 2660 	jp	00417$
    000010BD                       2661 00416$:
    000010BD DD CB F4 7E      [20] 2662 	bit	7, -12 (ix)
    000010C1 28 06            [12] 2663 	jr	Z, 00418$
    000010C3 11 FF FF         [10] 2664 	ld	de, #0xffff
    000010C6 C3rCCr10         [10] 2665 	jp	00419$
    000010C9                       2666 00418$:
    000010C9 11 00 00         [10] 2667 	ld	de, #0x0000
    000010CC                       2668 00419$:
    000010CC                       2669 00417$:
    000010CC DD 73 F2         [19] 2670 	ld	-14 (ix), e
    000010CF C3r2Ar11         [10] 2671 	jp	00259$
    000010D2                       2672 00258$:
                                   2673 ;E:\Dropbox\FAUSTO\SVILUPPI\MSX\CODE\C\MSXgl\projects\soccerlgMSX2/soccerlg_s9_b3.c:348: c_dx = (g_last_dx[i] > 0) ? 1 : ((g_last_dx[i] < 0) ? -1 : 0);
    000010D2 3Er00            [ 7] 2674 	ld	a, #<(_g_last_dx)
    000010D4 DD 86 FF         [19] 2675 	add	a, -1 (ix)
    000010D7 6F               [ 4] 2676 	ld	l, a
                                   2677 ;	spillPairReg hl
                                   2678 ;	spillPairReg hl
    000010D8 3Es00            [ 7] 2679 	ld	a, #>(_g_last_dx)
    000010DA CE 00            [ 7] 2680 	adc	a, #0x00
    000010DC 67               [ 4] 2681 	ld	h, a
    000010DD 4E               [ 7] 2682 	ld	c, (hl)
    000010DE AF               [ 4] 2683 	xor	a, a
    000010DF 91               [ 4] 2684 	sub	a, c
    000010E0 E2rE5r10         [10] 2685 	jp	PO, 01297$
    000010E3 EE 80            [ 7] 2686 	xor	a, #0x80
    000010E5                       2687 01297$:
    000010E5 F2rEEr10         [10] 2688 	jp	P, 00420$
    000010E8 11 01 00         [10] 2689 	ld	de, #0x0001
    000010EB C3rFBr10         [10] 2690 	jp	00421$
    000010EE                       2691 00420$:
    000010EE CB 79            [ 8] 2692 	bit	7, c
    000010F0 28 06            [12] 2693 	jr	Z, 00422$
    000010F2 11 FF FF         [10] 2694 	ld	de, #0xffff
    000010F5 C3rFBr10         [10] 2695 	jp	00423$
    000010F8                       2696 00422$:
    000010F8 11 00 00         [10] 2697 	ld	de, #0x0000
    000010FB                       2698 00423$:
    000010FB                       2699 00421$:
    000010FB DD 73 F1         [19] 2700 	ld	-15 (ix), e
                                   2701 ;E:\Dropbox\FAUSTO\SVILUPPI\MSX\CODE\C\MSXgl\projects\soccerlgMSX2/soccerlg_s9_b3.c:349: c_dy = (g_last_dy[i] > 0) ? 1 : ((g_last_dy[i] < 0) ? -1 : 0);
    000010FE 3Er00            [ 7] 2702 	ld	a, #<(_g_last_dy)
    00001100 DD 86 FF         [19] 2703 	add	a, -1 (ix)
    00001103 6F               [ 4] 2704 	ld	l, a
                                   2705 ;	spillPairReg hl
                                   2706 ;	spillPairReg hl
    00001104 3Es00            [ 7] 2707 	ld	a, #>(_g_last_dy)
    00001106 CE 00            [ 7] 2708 	adc	a, #0x00
    00001108 67               [ 4] 2709 	ld	h, a
    00001109 4E               [ 7] 2710 	ld	c, (hl)
    0000110A AF               [ 4] 2711 	xor	a, a
    0000110B 91               [ 4] 2712 	sub	a, c
    0000110C E2r11r11         [10] 2713 	jp	PO, 01298$
    0000110F EE 80            [ 7] 2714 	xor	a, #0x80
    00001111                       2715 01298$:
    00001111 F2r1Ar11         [10] 2716 	jp	P, 00424$
    00001114 11 01 00         [10] 2717 	ld	de, #0x0001
    00001117 C3r27r11         [10] 2718 	jp	00425$
    0000111A                       2719 00424$:
    0000111A CB 79            [ 8] 2720 	bit	7, c
    0000111C 28 06            [12] 2721 	jr	Z, 00426$
    0000111E 11 FF FF         [10] 2722 	ld	de, #0xffff
    00001121 C3r27r11         [10] 2723 	jp	00427$
    00001124                       2724 00426$:
    00001124 11 00 00         [10] 2725 	ld	de, #0x0000
    00001127                       2726 00427$:
    00001127                       2727 00425$:
    00001127 DD 73 F2         [19] 2728 	ld	-14 (ix), e
    0000112A                       2729 00259$:
                                   2730 ;E:\Dropbox\FAUSTO\SVILUPPI\MSX\CODE\C\MSXgl\projects\soccerlgMSX2/soccerlg_s9_b3.c:351: receivers[i] = (u8)CallFnc_U16_P4B(SEG_LOGIC, FindReceiver, carrier, 0xFF, c_dx, c_dy);
    0000112A DD 5E FF         [19] 2731 	ld	e, -1 (ix)
    0000112D 16 00            [ 7] 2732 	ld	d, #0x00
    0000112F 21 08 00         [10] 2733 	ld	hl, #8
    00001132 39               [11] 2734 	add	hl, sp
    00001133 19               [11] 2735 	add	hl, de
    00001134 DD 75 F3         [19] 2736 	ld	-13 (ix), l
    00001137 DD 74 F4         [19] 2737 	ld	-12 (ix), h
    0000113A DD 7E F2         [19] 2738 	ld	a, -14 (ix)
    0000113D F5               [11] 2739 	push	af
    0000113E 33               [ 6] 2740 	inc	sp
    0000113F DD 66 F1         [19] 2741 	ld	h, -15 (ix)
    00001142 2E FF            [ 7] 2742 	ld	l, #0xff
    00001144 E5               [11] 2743 	push	hl
    00001145 DD 7E F7         [19] 2744 	ld	a, -9 (ix)
    00001148 F5               [11] 2745 	push	af
    00001149 33               [ 6] 2746 	inc	sp
    0000114A 11r00r00         [10] 2747 	ld	de, #_FindReceiver
    0000114D 3E 06            [ 7] 2748 	ld	a, #0x06
    0000114F CDr00r00         [17] 2749 	call	_CallFnc_U16_P4B
    00001152 DD 6E F3         [19] 2750 	ld	l, -13 (ix)
    00001155 DD 66 F4         [19] 2751 	ld	h, -12 (ix)
    00001158 73               [ 7] 2752 	ld	(hl), e
                                   2753 ;E:\Dropbox\FAUSTO\SVILUPPI\MSX\CODE\C\MSXgl\projects\soccerlgMSX2/soccerlg_s9_b3.c:354: bool action_taken = FALSE;
    00001159 DD 36 F5 00      [19] 2754 	ld	-11 (ix), #0x00
                                   2755 ;E:\Dropbox\FAUSTO\SVILUPPI\MSX\CODE\C\MSXgl\projects\soccerlgMSX2/soccerlg_s9_b3.c:355: if (trigger_pressed) {						
    0000115D DD 7E F8         [19] 2756 	ld	a, -8 (ix)
    00001160 B7               [ 4] 2757 	or	a, a
    00001161 CArB5r14         [10] 2758 	jp	Z, 00293$
                                   2759 ;E:\Dropbox\FAUSTO\SVILUPPI\MSX\CODE\C\MSXgl\projects\soccerlgMSX2/soccerlg_s9_b3.c:356: bool is_shooting = FALSE;
    00001164 DD 36 F6 00      [19] 2760 	ld	-10 (ix), #0x00
                                   2761 ;E:\Dropbox\FAUSTO\SVILUPPI\MSX\CODE\C\MSXgl\projects\soccerlgMSX2/soccerlg_s9_b3.c:357: u8 dir = g_player_input[i].direction;
    00001168 DD 6E F9         [19] 2762 	ld	l, -7 (ix)
    0000116B DD 66 FA         [19] 2763 	ld	h, -6 (ix)
    0000116E 7E               [ 7] 2764 	ld	a, (hl)
    0000116F DD 77 F7         [19] 2765 	ld	-9 (ix), a
                                   2766 ;E:\Dropbox\FAUSTO\SVILUPPI\MSX\CODE\C\MSXgl\projects\soccerlgMSX2/soccerlg_s9_b3.c:361: if (i == 1 && Carrier->ly < 256 && Field.ly == 0) {
    00001172 DD 7E FF         [19] 2767 	ld	a, -1 (ix)
    00001175 3D               [ 4] 2768 	dec	a
    00001176 3E 01            [ 7] 2769 	ld	a, #0x01
    00001178 28 01            [12] 2770 	jr	Z, 01300$
    0000117A AF               [ 4] 2771 	xor	a, a
    0000117B                       2772 01300$:
    0000117B DD 77 F8         [19] 2773 	ld	-8 (ix), a
    0000117E B7               [ 4] 2774 	or	a, a
    0000117F 28 35            [12] 2775 	jr	Z, 00275$
    00001181 DD 6E EF         [19] 2776 	ld	l, -17 (ix)
    00001184 DD 66 F0         [19] 2777 	ld	h, -16 (ix)
    00001187 7E               [ 7] 2778 	ld	a, (hl)
    00001188 DD 77 F9         [19] 2779 	ld	-7 (ix), a
    0000118B 23               [ 6] 2780 	inc	hl
    0000118C 7E               [ 7] 2781 	ld	a, (hl)
    0000118D DD 77 FA         [19] 2782 	ld	-6 (ix), a
    00001190 D6 01            [ 7] 2783 	sub	a, #0x01
    00001192 30 22            [12] 2784 	jr	NC, 00275$
    00001194 2Ar04r00         [16] 2785 	ld	hl, (#(_Field + 4) + 0)
    00001197 7C               [ 4] 2786 	ld	a, h
    00001198 B5               [ 4] 2787 	or	a, l
    00001199 20 1B            [12] 2788 	jr	NZ, 00275$
                                   2789 ;E:\Dropbox\FAUSTO\SVILUPPI\MSX\CODE\C\MSXgl\projects\soccerlgMSX2/soccerlg_s9_b3.c:362: if (dir == DIRECTION_UP || dir == DIRECTION_UP_LEFT || dir == DIRECTION_UP_RIGHT) {
    0000119B DD 7E F7         [19] 2790 	ld	a, -9 (ix)
    0000119E 3D               [ 4] 2791 	dec	a
    0000119F 28 0E            [12] 2792 	jr	Z, 00261$
    000011A1 DD 7E F7         [19] 2793 	ld	a, -9 (ix)
    000011A4 D6 08            [ 7] 2794 	sub	a, #0x08
    000011A6 28 07            [12] 2795 	jr	Z, 00261$
    000011A8 DD 7E F7         [19] 2796 	ld	a, -9 (ix)
    000011AB D6 02            [ 7] 2797 	sub	a, #0x02
    000011AD 20 5F            [12] 2798 	jr	NZ, 00276$
    000011AF                       2799 00261$:
                                   2800 ;E:\Dropbox\FAUSTO\SVILUPPI\MSX\CODE\C\MSXgl\projects\soccerlgMSX2/soccerlg_s9_b3.c:363: is_shooting = TRUE;
    000011AF DD 36 F6 01      [19] 2801 	ld	-10 (ix), #0x01
    000011B3 C3r0Er12         [10] 2802 	jp	00276$
    000011B6                       2803 00275$:
                                   2804 ;E:\Dropbox\FAUSTO\SVILUPPI\MSX\CODE\C\MSXgl\projects\soccerlgMSX2/soccerlg_s9_b3.c:367: else if (i == 0 && GameMode == GAMEMODE_P1_VS_P2 && Carrier->ly > 256 && Field.ly == (FIELD_HEIGHT - 192)) {
    000011B6 DD 7E FF         [19] 2805 	ld	a, -1 (ix)
    000011B9 B7               [ 4] 2806 	or	a, a
    000011BA 20 52            [12] 2807 	jr	NZ, 00276$
    000011BC 3Ar00r00         [13] 2808 	ld	a, (_GameMode+0)
    000011BF 3D               [ 4] 2809 	dec	a
    000011C0 20 4C            [12] 2810 	jr	NZ, 00276$
    000011C2 DD 6E EF         [19] 2811 	ld	l, -17 (ix)
    000011C5 DD 66 F0         [19] 2812 	ld	h, -16 (ix)
    000011C8 7E               [ 7] 2813 	ld	a, (hl)
    000011C9 DD 77 F9         [19] 2814 	ld	-7 (ix), a
    000011CC 23               [ 6] 2815 	inc	hl
    000011CD 7E               [ 7] 2816 	ld	a, (hl)
    000011CE DD 77 FA         [19] 2817 	ld	-6 (ix), a
    000011D1 AF               [ 4] 2818 	xor	a, a
    000011D2 DD BE F9         [19] 2819 	cp	a, -7 (ix)
    000011D5 3E 01            [ 7] 2820 	ld	a, #0x01
    000011D7 DD 9E FA         [19] 2821 	sbc	a, -6 (ix)
    000011DA 30 32            [12] 2822 	jr	NC, 00276$
    000011DC 21r04r00         [10] 2823 	ld	hl, #(_Field + 4)
    000011DF 7E               [ 7] 2824 	ld	a, (hl)
    000011E0 DD 77 F9         [19] 2825 	ld	-7 (ix), a
    000011E3 23               [ 6] 2826 	inc	hl
    000011E4 7E               [ 7] 2827 	ld	a, (hl)
    000011E5 DD 77 FA         [19] 2828 	ld	-6 (ix), a
    000011E8 DD 7E F9         [19] 2829 	ld	a, -7 (ix)
    000011EB D6 40            [ 7] 2830 	sub	a, #0x40
    000011ED 20 1F            [12] 2831 	jr	NZ, 00276$
    000011EF DD 7E FA         [19] 2832 	ld	a, -6 (ix)
    000011F2 3D               [ 4] 2833 	dec	a
    000011F3 20 19            [12] 2834 	jr	NZ, 00276$
                                   2835 ;E:\Dropbox\FAUSTO\SVILUPPI\MSX\CODE\C\MSXgl\projects\soccerlgMSX2/soccerlg_s9_b3.c:368: if (dir == DIRECTION_DOWN || dir == DIRECTION_DOWN_LEFT || dir == DIRECTION_DOWN_RIGHT) {
    000011F5 DD 7E F7         [19] 2836 	ld	a, -9 (ix)
    000011F8 D6 05            [ 7] 2837 	sub	a, #0x05
    000011FA 28 0E            [12] 2838 	jr	Z, 00265$
    000011FC DD 7E F7         [19] 2839 	ld	a, -9 (ix)
    000011FF D6 06            [ 7] 2840 	sub	a, #0x06
    00001201 28 07            [12] 2841 	jr	Z, 00265$
    00001203 DD 7E F7         [19] 2842 	ld	a, -9 (ix)
    00001206 D6 04            [ 7] 2843 	sub	a, #0x04
    00001208 20 04            [12] 2844 	jr	NZ, 00276$
    0000120A                       2845 00265$:
                                   2846 ;E:\Dropbox\FAUSTO\SVILUPPI\MSX\CODE\C\MSXgl\projects\soccerlgMSX2/soccerlg_s9_b3.c:369: is_shooting = TRUE;
    0000120A DD 36 F6 01      [19] 2847 	ld	-10 (ix), #0x01
    0000120E                       2848 00276$:
                                   2849 ;E:\Dropbox\FAUSTO\SVILUPPI\MSX\CODE\C\MSXgl\projects\soccerlgMSX2/soccerlg_s9_b3.c:373: if (is_shooting) {
    0000120E DD 7E F6         [19] 2850 	ld	a, -10 (ix)
    00001211 B7               [ 4] 2851 	or	a, a
    00001212 CAr46r13         [10] 2852 	jp	Z, 00290$
                                   2853 ;E:\Dropbox\FAUSTO\SVILUPPI\MSX\CODE\C\MSXgl\projects\soccerlgMSX2/soccerlg_s9_b3.c:374: action_taken = TRUE;
    00001215 DD 36 F5 01      [19] 2854 	ld	-11 (ix), #0x01
                                   2855 ;E:\Dropbox\FAUSTO\SVILUPPI\MSX\CODE\C\MSXgl\projects\soccerlgMSX2/soccerlg_s9_b3.c:375: Ball->anim = 0; Ball->count = 0;
    00001219 21 00 00         [10] 2856 	ld	hl, #0x0000
    0000121C 22r55r01         [16] 2857 	ld	((_SwSprite + 341)), hl
    0000121F 22r57r01         [16] 2858 	ld	((_SwSprite + 343)), hl
                                   2859 ;E:\Dropbox\FAUSTO\SVILUPPI\MSX\CODE\C\MSXgl\projects\soccerlgMSX2/soccerlg_s9_b3.c:376: g_pass_receiver = 0xFF; 
    00001222 21r00r00         [10] 2860 	ld	hl, #_g_pass_receiver
    00001225 36 FF            [10] 2861 	ld	(hl), #0xff
                                   2862 ;E:\Dropbox\FAUSTO\SVILUPPI\MSX\CODE\C\MSXgl\projects\soccerlgMSX2/soccerlg_s9_b3.c:378: g_pass_start_x = Carrier->lx;
    00001227 DD 6E E9         [19] 2863 	ld	l, -23 (ix)
    0000122A DD 66 EA         [19] 2864 	ld	h, -22 (ix)
    0000122D 7E               [ 7] 2865 	ld	a, (hl)
    0000122E 32r00r00         [13] 2866 	ld	(_g_pass_start_x+0), a
    00001231 21r01r00         [10] 2867 	ld	hl, #_g_pass_start_x + 1
    00001234 36 00            [10] 2868 	ld	(hl), #0x00
                                   2869 ;E:\Dropbox\FAUSTO\SVILUPPI\MSX\CODE\C\MSXgl\projects\soccerlgMSX2/soccerlg_s9_b3.c:379: g_pass_start_y = Carrier->ly;
    00001236 DD 6E EF         [19] 2870 	ld	l, -17 (ix)
    00001239 DD 66 F0         [19] 2871 	ld	h, -16 (ix)
    0000123C 7E               [ 7] 2872 	ld	a, (hl)
    0000123D 23               [ 6] 2873 	inc	hl
    0000123E 32r00r00         [13] 2874 	ld	(_g_pass_start_y+0), a
    00001241 7E               [ 7] 2875 	ld	a, (hl)
    00001242 32r01r00         [13] 2876 	ld	(_g_pass_start_y+1), a
                                   2877 ;E:\Dropbox\FAUSTO\SVILUPPI\MSX\CODE\C\MSXgl\projects\soccerlgMSX2/soccerlg_s9_b3.c:381: g_pass_target_x = g_h_arrow_x; // Direzione della freccia
    00001245 2Ar00r00         [16] 2878 	ld	hl, (_g_h_arrow_x)
    00001248 22r00r00         [16] 2879 	ld	(_g_pass_target_x), hl
                                   2880 ;E:\Dropbox\FAUSTO\SVILUPPI\MSX\CODE\C\MSXgl\projects\soccerlgMSX2/soccerlg_s9_b3.c:382: g_pass_target_y = (i == 1) ? 16 : 496; // Dentro la porta
    0000124B DD 7E F8         [19] 2881 	ld	a, -8 (ix)
    0000124E B7               [ 4] 2882 	or	a, a
    0000124F 28 06            [12] 2883 	jr	Z, 00428$
    00001251 11 10 00         [10] 2884 	ld	de, #0x0010
    00001254 C3r5Ar12         [10] 2885 	jp	00429$
    00001257                       2886 00428$:
    00001257 11 F0 01         [10] 2887 	ld	de, #0x01f0
    0000125A                       2888 00429$:
    0000125A ED 53r00r00      [20] 2889 	ld	(_g_pass_target_y), de
                                   2890 ;E:\Dropbox\FAUSTO\SVILUPPI\MSX\CODE\C\MSXgl\projects\soccerlgMSX2/soccerlg_s9_b3.c:384: u16 r_dx = (g_pass_target_x > g_pass_start_x) ? (g_pass_target_x - g_pass_start_x) : (g_pass_start_x - g_pass_target_x);
    0000125E 21r00r00         [10] 2891 	ld	hl, #_g_pass_start_x
    00001261 7E               [ 7] 2892 	ld	a, (hl)
    00001262 FD 21r00r00      [14] 2893 	ld	iy, #_g_pass_target_x
    00001266 FD 96 00         [19] 2894 	sub	a, 0 (iy)
    00001269 23               [ 6] 2895 	inc	hl
    0000126A 7E               [ 7] 2896 	ld	a, (hl)
    0000126B FD 9E 01         [19] 2897 	sbc	a, 1 (iy)
    0000126E 30 15            [12] 2898 	jr	NC, 00430$
    00001270 21r00r00         [10] 2899 	ld	hl, #_g_pass_start_x
    00001273 3Ar00r00         [13] 2900 	ld	a, (_g_pass_target_x+0)
    00001276 96               [ 7] 2901 	sub	a, (hl)
    00001277 DD 77 F9         [19] 2902 	ld	-7 (ix), a
    0000127A 23               [ 6] 2903 	inc	hl
    0000127B 3Ar01r00         [13] 2904 	ld	a, (_g_pass_target_x+1)
    0000127E 9E               [ 7] 2905 	sbc	a, (hl)
    0000127F DD 77 FA         [19] 2906 	ld	-6 (ix), a
    00001282 C3r97r12         [10] 2907 	jp	00431$
    00001285                       2908 00430$:
    00001285 21r00r00         [10] 2909 	ld	hl, #_g_pass_target_x
    00001288 3Ar00r00         [13] 2910 	ld	a, (_g_pass_start_x+0)
    0000128B 96               [ 7] 2911 	sub	a, (hl)
    0000128C DD 77 F9         [19] 2912 	ld	-7 (ix), a
    0000128F 23               [ 6] 2913 	inc	hl
    00001290 3Ar01r00         [13] 2914 	ld	a, (_g_pass_start_x+1)
    00001293 9E               [ 7] 2915 	sbc	a, (hl)
    00001294 DD 77 FA         [19] 2916 	ld	-6 (ix), a
    00001297                       2917 00431$:
    00001297 DD 7E F9         [19] 2918 	ld	a, -7 (ix)
    0000129A DD 77 F3         [19] 2919 	ld	-13 (ix), a
    0000129D DD 7E FA         [19] 2920 	ld	a, -6 (ix)
    000012A0 DD 77 F4         [19] 2921 	ld	-12 (ix), a
                                   2922 ;E:\Dropbox\FAUSTO\SVILUPPI\MSX\CODE\C\MSXgl\projects\soccerlgMSX2/soccerlg_s9_b3.c:385: u16 r_dy = (g_pass_target_y > g_pass_start_y) ? (g_pass_target_y - g_pass_start_y) : (g_pass_start_y - g_pass_target_y);
    000012A3 21r00r00         [10] 2923 	ld	hl, #_g_pass_start_y
    000012A6 7E               [ 7] 2924 	ld	a, (hl)
    000012A7 FD 21r00r00      [14] 2925 	ld	iy, #_g_pass_target_y
    000012AB FD 96 00         [19] 2926 	sub	a, 0 (iy)
    000012AE 23               [ 6] 2927 	inc	hl
    000012AF 7E               [ 7] 2928 	ld	a, (hl)
    000012B0 FD 9E 01         [19] 2929 	sbc	a, 1 (iy)
    000012B3 30 15            [12] 2930 	jr	NC, 00432$
    000012B5 21r00r00         [10] 2931 	ld	hl, #_g_pass_start_y
    000012B8 3Ar00r00         [13] 2932 	ld	a, (_g_pass_target_y+0)
    000012BB 96               [ 7] 2933 	sub	a, (hl)
    000012BC DD 77 F9         [19] 2934 	ld	-7 (ix), a
    000012BF 23               [ 6] 2935 	inc	hl
    000012C0 3Ar01r00         [13] 2936 	ld	a, (_g_pass_target_y+1)
    000012C3 9E               [ 7] 2937 	sbc	a, (hl)
    000012C4 DD 77 FA         [19] 2938 	ld	-6 (ix), a
    000012C7 C3rDCr12         [10] 2939 	jp	00433$
    000012CA                       2940 00432$:
    000012CA 21r00r00         [10] 2941 	ld	hl, #_g_pass_target_y
    000012CD 3Ar00r00         [13] 2942 	ld	a, (_g_pass_start_y+0)
    000012D0 96               [ 7] 2943 	sub	a, (hl)
    000012D1 DD 77 F9         [19] 2944 	ld	-7 (ix), a
    000012D4 23               [ 6] 2945 	inc	hl
    000012D5 3Ar01r00         [13] 2946 	ld	a, (_g_pass_start_y+1)
    000012D8 9E               [ 7] 2947 	sbc	a, (hl)
    000012D9 DD 77 FA         [19] 2948 	ld	-6 (ix), a
    000012DC                       2949 00433$:
    000012DC DD 7E F9         [19] 2950 	ld	a, -7 (ix)
    000012DF DD 77 F7         [19] 2951 	ld	-9 (ix), a
    000012E2 DD 7E FA         [19] 2952 	ld	a, -6 (ix)
    000012E5 DD 77 F8         [19] 2953 	ld	-8 (ix), a
                                   2954 ;E:\Dropbox\FAUSTO\SVILUPPI\MSX\CODE\C\MSXgl\projects\soccerlgMSX2/soccerlg_s9_b3.c:387: g_pass_max_frames = (r_dx + r_dy) / 8; // Tiro potente e veloce
    000012E8 DD 7E F7         [19] 2955 	ld	a, -9 (ix)
    000012EB DD 86 F3         [19] 2956 	add	a, -13 (ix)
    000012EE DD 77 F9         [19] 2957 	ld	-7 (ix), a
    000012F1 DD 7E F8         [19] 2958 	ld	a, -8 (ix)
    000012F4 DD 8E F4         [19] 2959 	adc	a, -12 (ix)
    000012F7 DD 77 FA         [19] 2960 	ld	-6 (ix), a
    000012FA DD CB FA 3E      [23] 2961 	srl	-6 (ix)
    000012FE DD CB F9 1E      [23] 2962 	rr	-7 (ix)
    00001302 DD CB FA 3E      [23] 2963 	srl	-6 (ix)
    00001306 DD CB F9 1E      [23] 2964 	rr	-7 (ix)
    0000130A DD CB FA 3E      [23] 2965 	srl	-6 (ix)
    0000130E DD CB F9 1E      [23] 2966 	rr	-7 (ix)
    00001312 DD 7E F9         [19] 2967 	ld	a, -7 (ix)
                                   2968 ;E:\Dropbox\FAUSTO\SVILUPPI\MSX\CODE\C\MSXgl\projects\soccerlgMSX2/soccerlg_s9_b3.c:388: if (g_pass_max_frames < 10) g_pass_max_frames = 10;
    00001315 32r00r00         [13] 2969 	ld	(_g_pass_max_frames+0), a
    00001318 D6 0A            [ 7] 2970 	sub	a, #0x0a
    0000131A 30 05            [12] 2971 	jr	NC, 00280$
    0000131C 21r00r00         [10] 2972 	ld	hl, #_g_pass_max_frames
    0000131F 36 0A            [10] 2973 	ld	(hl), #0x0a
    00001321                       2974 00280$:
                                   2975 ;E:\Dropbox\FAUSTO\SVILUPPI\MSX\CODE\C\MSXgl\projects\soccerlgMSX2/soccerlg_s9_b3.c:389: if (g_pass_max_frames > 25) g_pass_max_frames = 25;
    00001321 3E 19            [ 7] 2976 	ld	a, #0x19
    00001323 FD 21r00r00      [14] 2977 	ld	iy, #_g_pass_max_frames
    00001327 FD 96 00         [19] 2978 	sub	a, 0 (iy)
    0000132A 30 04            [12] 2979 	jr	NC, 00282$
    0000132C FD 36 00 19      [19] 2980 	ld	0 (iy), #0x19
    00001330                       2981 00282$:
                                   2982 ;E:\Dropbox\FAUSTO\SVILUPPI\MSX\CODE\C\MSXgl\projects\soccerlgMSX2/soccerlg_s9_b3.c:390: g_pass_max_height = 2; // Tiro rasoterra e limitato
    00001330 21r00r00         [10] 2983 	ld	hl, #_g_pass_max_height
    00001333 36 02            [10] 2984 	ld	(hl), #0x02
                                   2985 ;E:\Dropbox\FAUSTO\SVILUPPI\MSX\CODE\C\MSXgl\projects\soccerlgMSX2/soccerlg_s9_b3.c:392: Ball->anim = 5;
    00001335 21 05 00         [10] 2986 	ld	hl, #0x0005
    00001338 22r55r01         [16] 2987 	ld	((_SwSprite + 341)), hl
                                   2988 ;E:\Dropbox\FAUSTO\SVILUPPI\MSX\CODE\C\MSXgl\projects\soccerlgMSX2/soccerlg_s9_b3.c:393: CallFnc_VOID(SEG_EVENTS, EventBallKicked);
    0000133B 11r00r00         [10] 2989 	ld	de, #_EventBallKicked
    0000133E 3E 08            [ 7] 2990 	ld	a, #0x08
    00001340 CDr00r00         [17] 2991 	call	_CallFnc_VOID
    00001343 C3rB5r14         [10] 2992 	jp	00293$
    00001346                       2993 00290$:
                                   2994 ;E:\Dropbox\FAUSTO\SVILUPPI\MSX\CODE\C\MSXgl\projects\soccerlgMSX2/soccerlg_s9_b3.c:396: u8 receiver = receivers[i];
    00001346 DD 6E F3         [19] 2995 	ld	l, -13 (ix)
    00001349 DD 66 F4         [19] 2996 	ld	h, -12 (ix)
    0000134C 7E               [ 7] 2997 	ld	a, (hl)
                                   2998 ;E:\Dropbox\FAUSTO\SVILUPPI\MSX\CODE\C\MSXgl\projects\soccerlgMSX2/soccerlg_s9_b3.c:398: if (receiver != 0xFF) {
    0000134D DD 77 FA         [19] 2999 	ld	-6 (ix), a
    00001350 3C               [ 4] 3000 	inc	a
    00001351 CArB5r14         [10] 3001 	jp	Z,00293$
                                   3002 ;E:\Dropbox\FAUSTO\SVILUPPI\MSX\CODE\C\MSXgl\projects\soccerlgMSX2/soccerlg_s9_b3.c:400: Ball->anim = 0; Ball->count = 0;
    00001354 21 00 00         [10] 3003 	ld	hl, #0x0000
    00001357 22r55r01         [16] 3004 	ld	((_SwSprite + 341)), hl
    0000135A 22r57r01         [16] 3005 	ld	((_SwSprite + 343)), hl
                                   3006 ;E:\Dropbox\FAUSTO\SVILUPPI\MSX\CODE\C\MSXgl\projects\soccerlgMSX2/soccerlg_s9_b3.c:402: g_pass_receiver = receiver;
    0000135D DD 7E FA         [19] 3007 	ld	a, -6 (ix)
    00001360 32r00r00         [13] 3008 	ld	(_g_pass_receiver+0), a
                                   3009 ;E:\Dropbox\FAUSTO\SVILUPPI\MSX\CODE\C\MSXgl\projects\soccerlgMSX2/soccerlg_s9_b3.c:403: g_pass_start_x = Carrier->lx;
    00001363 DD 6E E9         [19] 3010 	ld	l, -23 (ix)
    00001366 DD 66 EA         [19] 3011 	ld	h, -22 (ix)
    00001369 7E               [ 7] 3012 	ld	a, (hl)
    0000136A 32r00r00         [13] 3013 	ld	(_g_pass_start_x+0), a
    0000136D 21r01r00         [10] 3014 	ld	hl, #_g_pass_start_x + 1
    00001370 36 00            [10] 3015 	ld	(hl), #0x00
                                   3016 ;E:\Dropbox\FAUSTO\SVILUPPI\MSX\CODE\C\MSXgl\projects\soccerlgMSX2/soccerlg_s9_b3.c:404: g_pass_start_y = Carrier->ly;
    00001372 DD 6E EF         [19] 3017 	ld	l, -17 (ix)
    00001375 DD 66 F0         [19] 3018 	ld	h, -16 (ix)
    00001378 7E               [ 7] 3019 	ld	a, (hl)
    00001379 23               [ 6] 3020 	inc	hl
    0000137A 32r00r00         [13] 3021 	ld	(_g_pass_start_y+0), a
    0000137D 7E               [ 7] 3022 	ld	a, (hl)
    0000137E 32r01r00         [13] 3023 	ld	(_g_pass_start_y+1), a
                                   3024 ;E:\Dropbox\FAUSTO\SVILUPPI\MSX\CODE\C\MSXgl\projects\soccerlgMSX2/soccerlg_s9_b3.c:405: g_pass_target_x = SwSprite[receiver].lx;
    00001381 DD 4E FA         [19] 3025 	ld	c, -6 (ix)
    00001384 06 00            [ 7] 3026 	ld	b, #0x00
    00001386 69               [ 4] 3027 	ld	l, c
    00001387 60               [ 4] 3028 	ld	h, b
    00001388 29               [11] 3029 	add	hl, hl
    00001389 29               [11] 3030 	add	hl, hl
    0000138A 09               [11] 3031 	add	hl, bc
    0000138B 29               [11] 3032 	add	hl, hl
    0000138C 09               [11] 3033 	add	hl, bc
    0000138D 29               [11] 3034 	add	hl, hl
    0000138E 09               [11] 3035 	add	hl, bc
    0000138F DD 75 F9         [19] 3036 	ld	-7 (ix), l
    00001392 DD 74 FA         [19] 3037 	ld	-6 (ix), h
    00001395 3Er00            [ 7] 3038 	ld	a, #<(_SwSprite)
    00001397 DD 86 F9         [19] 3039 	add	a, -7 (ix)
    0000139A DD 77 F7         [19] 3040 	ld	-9 (ix), a
    0000139D 3Es00            [ 7] 3041 	ld	a, #>(_SwSprite)
    0000139F DD 8E FA         [19] 3042 	adc	a, -6 (ix)
    000013A2 DD 77 F8         [19] 3043 	ld	-8 (ix), a
    000013A5 DD 6E F7         [19] 3044 	ld	l, -9 (ix)
    000013A8 DD 66 F8         [19] 3045 	ld	h, -8 (ix)
    000013AB 7E               [ 7] 3046 	ld	a, (hl)
    000013AC DD 77 FA         [19] 3047 	ld	-6 (ix), a
    000013AF 32r00r00         [13] 3048 	ld	(_g_pass_target_x+0), a
    000013B2 FD 21r00r00      [14] 3049 	ld	iy, #_g_pass_target_x
    000013B6 FD 36 01 00      [19] 3050 	ld	1 (iy), #0x00
                                   3051 ;E:\Dropbox\FAUSTO\SVILUPPI\MSX\CODE\C\MSXgl\projects\soccerlgMSX2/soccerlg_s9_b3.c:406: g_pass_target_y = SwSprite[receiver].ly;
    000013BA DD 7E F7         [19] 3052 	ld	a, -9 (ix)
    000013BD DD 77 F9         [19] 3053 	ld	-7 (ix), a
    000013C0 DD 7E F8         [19] 3054 	ld	a, -8 (ix)
    000013C3 DD 77 FA         [19] 3055 	ld	-6 (ix), a
    000013C6 DD 6E F9         [19] 3056 	ld	l, -7 (ix)
    000013C9 DD 66 FA         [19] 3057 	ld	h, -6 (ix)
    000013CC 11 04 00         [10] 3058 	ld	de, #0x0004
    000013CF 19               [11] 3059 	add	hl, de
    000013D0 7E               [ 7] 3060 	ld	a, (hl)
    000013D1 23               [ 6] 3061 	inc	hl
    000013D2 32r00r00         [13] 3062 	ld	(_g_pass_target_y+0), a
    000013D5 7E               [ 7] 3063 	ld	a, (hl)
    000013D6 32r01r00         [13] 3064 	ld	(_g_pass_target_y+1), a
                                   3065 ;E:\Dropbox\FAUSTO\SVILUPPI\MSX\CODE\C\MSXgl\projects\soccerlgMSX2/soccerlg_s9_b3.c:408: u16 r_dx = (g_pass_target_x > g_pass_start_x) ? (g_pass_target_x - g_pass_start_x) : (g_pass_start_x - g_pass_target_x);
    000013D9 21r00r00         [10] 3066 	ld	hl, #_g_pass_start_x
    000013DC 7E               [ 7] 3067 	ld	a, (hl)
    000013DD FD 96 00         [19] 3068 	sub	a, 0 (iy)
    000013E0 23               [ 6] 3069 	inc	hl
    000013E1 7E               [ 7] 3070 	ld	a, (hl)
    000013E2 FD 9E 01         [19] 3071 	sbc	a, 1 (iy)
    000013E5 30 15            [12] 3072 	jr	NC, 00434$
    000013E7 21r00r00         [10] 3073 	ld	hl, #_g_pass_start_x
    000013EA 3Ar00r00         [13] 3074 	ld	a, (_g_pass_target_x+0)
    000013ED 96               [ 7] 3075 	sub	a, (hl)
    000013EE DD 77 F9         [19] 3076 	ld	-7 (ix), a
    000013F1 23               [ 6] 3077 	inc	hl
    000013F2 3Ar01r00         [13] 3078 	ld	a, (_g_pass_target_x+1)
    000013F5 9E               [ 7] 3079 	sbc	a, (hl)
    000013F6 DD 77 FA         [19] 3080 	ld	-6 (ix), a
    000013F9 C3r0Er14         [10] 3081 	jp	00435$
    000013FC                       3082 00434$:
    000013FC 21r00r00         [10] 3083 	ld	hl, #_g_pass_target_x
    000013FF 3Ar00r00         [13] 3084 	ld	a, (_g_pass_start_x+0)
    00001402 96               [ 7] 3085 	sub	a, (hl)
    00001403 DD 77 F9         [19] 3086 	ld	-7 (ix), a
    00001406 23               [ 6] 3087 	inc	hl
    00001407 3Ar01r00         [13] 3088 	ld	a, (_g_pass_start_x+1)
    0000140A 9E               [ 7] 3089 	sbc	a, (hl)
    0000140B DD 77 FA         [19] 3090 	ld	-6 (ix), a
    0000140E                       3091 00435$:
    0000140E DD 7E F9         [19] 3092 	ld	a, -7 (ix)
    00001411 DD 77 F5         [19] 3093 	ld	-11 (ix), a
    00001414 DD 7E FA         [19] 3094 	ld	a, -6 (ix)
    00001417 DD 77 F6         [19] 3095 	ld	-10 (ix), a
                                   3096 ;E:\Dropbox\FAUSTO\SVILUPPI\MSX\CODE\C\MSXgl\projects\soccerlgMSX2/soccerlg_s9_b3.c:409: u16 r_dy = (g_pass_target_y > g_pass_start_y) ? (g_pass_target_y - g_pass_start_y) : (g_pass_start_y - g_pass_target_y);
    0000141A 21r00r00         [10] 3097 	ld	hl, #_g_pass_start_y
    0000141D 7E               [ 7] 3098 	ld	a, (hl)
    0000141E FD 21r00r00      [14] 3099 	ld	iy, #_g_pass_target_y
    00001422 FD 96 00         [19] 3100 	sub	a, 0 (iy)
    00001425 23               [ 6] 3101 	inc	hl
    00001426 7E               [ 7] 3102 	ld	a, (hl)
    00001427 FD 9E 01         [19] 3103 	sbc	a, 1 (iy)
    0000142A 30 15            [12] 3104 	jr	NC, 00436$
    0000142C 21r00r00         [10] 3105 	ld	hl, #_g_pass_start_y
    0000142F 3Ar00r00         [13] 3106 	ld	a, (_g_pass_target_y+0)
    00001432 96               [ 7] 3107 	sub	a, (hl)
    00001433 DD 77 F9         [19] 3108 	ld	-7 (ix), a
    00001436 23               [ 6] 3109 	inc	hl
    00001437 3Ar01r00         [13] 3110 	ld	a, (_g_pass_target_y+1)
    0000143A 9E               [ 7] 3111 	sbc	a, (hl)
    0000143B DD 77 FA         [19] 3112 	ld	-6 (ix), a
    0000143E C3r53r14         [10] 3113 	jp	00437$
    00001441                       3114 00436$:
    00001441 21r00r00         [10] 3115 	ld	hl, #_g_pass_target_y
    00001444 3Ar00r00         [13] 3116 	ld	a, (_g_pass_start_y+0)
    00001447 96               [ 7] 3117 	sub	a, (hl)
    00001448 DD 77 F9         [19] 3118 	ld	-7 (ix), a
    0000144B 23               [ 6] 3119 	inc	hl
    0000144C 3Ar01r00         [13] 3120 	ld	a, (_g_pass_start_y+1)
    0000144F 9E               [ 7] 3121 	sbc	a, (hl)
    00001450 DD 77 FA         [19] 3122 	ld	-6 (ix), a
    00001453                       3123 00437$:
    00001453 DD 7E F9         [19] 3124 	ld	a, -7 (ix)
    00001456 DD 77 F7         [19] 3125 	ld	-9 (ix), a
    00001459 DD 7E FA         [19] 3126 	ld	a, -6 (ix)
    0000145C DD 77 F8         [19] 3127 	ld	-8 (ix), a
                                   3128 ;E:\Dropbox\FAUSTO\SVILUPPI\MSX\CODE\C\MSXgl\projects\soccerlgMSX2/soccerlg_s9_b3.c:410: g_pass_max_frames = (r_dx + r_dy) / 5; // Velocità di volo passaggi
    0000145F DD 7E F7         [19] 3129 	ld	a, -9 (ix)
    00001462 DD 86 F5         [19] 3130 	add	a, -11 (ix)
    00001465 DD 77 F9         [19] 3131 	ld	-7 (ix), a
    00001468 DD 7E F8         [19] 3132 	ld	a, -8 (ix)
    0000146B DD 8E F6         [19] 3133 	adc	a, -10 (ix)
    0000146E DD 77 FA         [19] 3134 	ld	-6 (ix), a
    00001471 11 05 00         [10] 3135 	ld	de, #0x0005
    00001474 DD 6E F9         [19] 3136 	ld	l, -7 (ix)
                                   3137 ;	spillPairReg hl
                                   3138 ;	spillPairReg hl
    00001477 DD 66 FA         [19] 3139 	ld	h, -6 (ix)
                                   3140 ;	spillPairReg hl
                                   3141 ;	spillPairReg hl
    0000147A CDr00r00         [17] 3142 	call	__divuint
    0000147D FD 21r00r00      [14] 3143 	ld	iy, #_g_pass_max_frames
    00001481 FD 73 00         [19] 3144 	ld	0 (iy), e
                                   3145 ;E:\Dropbox\FAUSTO\SVILUPPI\MSX\CODE\C\MSXgl\projects\soccerlgMSX2/soccerlg_s9_b3.c:411: if (g_pass_max_frames < 8) g_pass_max_frames = 8;
    00001484 3Ar00r00         [13] 3146 	ld	a, (_g_pass_max_frames+0)
    00001487 D6 08            [ 7] 3147 	sub	a, #0x08
    00001489 30 04            [12] 3148 	jr	NC, 00284$
    0000148B FD 36 00 08      [19] 3149 	ld	0 (iy), #0x08
    0000148F                       3150 00284$:
                                   3151 ;E:\Dropbox\FAUSTO\SVILUPPI\MSX\CODE\C\MSXgl\projects\soccerlgMSX2/soccerlg_s9_b3.c:412: if (g_pass_max_frames > 34) g_pass_max_frames = 34;
    0000148F 3E 22            [ 7] 3152 	ld	a, #0x22
    00001491 FD 21r00r00      [14] 3153 	ld	iy, #_g_pass_max_frames
    00001495 FD 96 00         [19] 3154 	sub	a, 0 (iy)
    00001498 30 04            [12] 3155 	jr	NC, 00286$
    0000149A FD 36 00 22      [19] 3156 	ld	0 (iy), #0x22
    0000149E                       3157 00286$:
                                   3158 ;E:\Dropbox\FAUSTO\SVILUPPI\MSX\CODE\C\MSXgl\projects\soccerlgMSX2/soccerlg_s9_b3.c:413: g_pass_max_height = 7; // Passaggio normale alto
    0000149E 21r00r00         [10] 3159 	ld	hl, #_g_pass_max_height
    000014A1 36 07            [10] 3160 	ld	(hl), #0x07
                                   3161 ;E:\Dropbox\FAUSTO\SVILUPPI\MSX\CODE\C\MSXgl\projects\soccerlgMSX2/soccerlg_s9_b3.c:415: Ball->anim = 5; // Flag per passaggio
    000014A3 21 05 00         [10] 3162 	ld	hl, #0x0005
    000014A6 22r55r01         [16] 3163 	ld	((_SwSprite + 341)), hl
                                   3164 ;E:\Dropbox\FAUSTO\SVILUPPI\MSX\CODE\C\MSXgl\projects\soccerlgMSX2/soccerlg_s9_b3.c:416: CallFnc_VOID(SEG_EVENTS, EventBallKicked);
    000014A9 11r00r00         [10] 3165 	ld	de, #_EventBallKicked
    000014AC 3E 08            [ 7] 3166 	ld	a, #0x08
    000014AE CDr00r00         [17] 3167 	call	_CallFnc_VOID
                                   3168 ;E:\Dropbox\FAUSTO\SVILUPPI\MSX\CODE\C\MSXgl\projects\soccerlgMSX2/soccerlg_s9_b3.c:417: action_taken = TRUE;
    000014B1 DD 36 F5 01      [19] 3169 	ld	-11 (ix), #0x01
    000014B5                       3170 00293$:
                                   3171 ;E:\Dropbox\FAUSTO\SVILUPPI\MSX\CODE\C\MSXgl\projects\soccerlgMSX2/soccerlg_s9_b3.c:422: if (!action_taken && Ball->anim == 0 && (Ball->dx != c_dx || Ball->dy != c_dy)) {
    000014B5 DD 7E F5         [19] 3172 	ld	a, -11 (ix)
    000014B8 B7               [ 4] 3173 	or	a, a
    000014B9 C2rA1r15         [10] 3174 	jp	NZ, 00321$
    000014BC 2Ar55r01         [16] 3175 	ld	hl, (#(_SwSprite + 341) + 0)
    000014BF 7C               [ 4] 3176 	ld	a, h
    000014C0 B5               [ 4] 3177 	or	a, l
    000014C1 C2rA1r15         [10] 3178 	jp	NZ, 00321$
    000014C4 21r53r01         [10] 3179 	ld	hl, #(_SwSprite + 339)
    000014C7 4E               [ 7] 3180 	ld	c, (hl)
    000014C8 DD 7E F1         [19] 3181 	ld	a, -15 (ix)
    000014CB 91               [ 4] 3182 	sub	a, c
    000014CC 20 0B            [12] 3183 	jr	NZ, 00320$
    000014CE 21r54r01         [10] 3184 	ld	hl, #(_SwSprite + 340)
    000014D1 4E               [ 7] 3185 	ld	c, (hl)
    000014D2 DD 7E F2         [19] 3186 	ld	a, -14 (ix)
    000014D5 91               [ 4] 3187 	sub	a, c
    000014D6 CArA1r15         [10] 3188 	jp	Z,00321$
    000014D9                       3189 00320$:
                                   3190 ;E:\Dropbox\FAUSTO\SVILUPPI\MSX\CODE\C\MSXgl\projects\soccerlgMSX2/soccerlg_s9_b3.c:424: i8 off_x = 0; i8 off_y = 6;
    000014D9 DD 36 F9 00      [19] 3191 	ld	-7 (ix), #0x00
    000014DD DD 36 FA 06      [19] 3192 	ld	-6 (ix), #0x06
                                   3193 ;E:\Dropbox\FAUSTO\SVILUPPI\MSX\CODE\C\MSXgl\projects\soccerlgMSX2/soccerlg_s9_b3.c:425: if (c_dx > 0) off_x = 9; else if (c_dx < 0) off_x = -9;
    000014E1 AF               [ 4] 3194 	xor	a, a
    000014E2 DD 96 F1         [19] 3195 	sub	a, -15 (ix)
    000014E5 E2rEAr14         [10] 3196 	jp	PO, 01317$
    000014E8 EE 80            [ 7] 3197 	xor	a, #0x80
    000014EA                       3198 01317$:
    000014EA F2rF4r14         [10] 3199 	jp	P, 00297$
    000014ED DD 36 F9 09      [19] 3200 	ld	-7 (ix), #0x09
    000014F1 C3rFEr14         [10] 3201 	jp	00298$
    000014F4                       3202 00297$:
    000014F4 DD CB F1 7E      [20] 3203 	bit	7, -15 (ix)
    000014F8 28 04            [12] 3204 	jr	Z, 00298$
    000014FA DD 36 F9 F7      [19] 3205 	ld	-7 (ix), #0xf7
    000014FE                       3206 00298$:
                                   3207 ;E:\Dropbox\FAUSTO\SVILUPPI\MSX\CODE\C\MSXgl\projects\soccerlgMSX2/soccerlg_s9_b3.c:426: if (c_dy > 0) off_y = 8; else if (c_dy < 0) off_y = -3;
    000014FE AF               [ 4] 3208 	xor	a, a
    000014FF DD 96 F2         [19] 3209 	sub	a, -14 (ix)
    00001502 E2r07r15         [10] 3210 	jp	PO, 01318$
    00001505 EE 80            [ 7] 3211 	xor	a, #0x80
    00001507                       3212 01318$:
    00001507 F2r11r15         [10] 3213 	jp	P, 00302$
    0000150A DD 36 FA 08      [19] 3214 	ld	-6 (ix), #0x08
    0000150E C3r1Br15         [10] 3215 	jp	00303$
    00001511                       3216 00302$:
    00001511 DD CB F2 7E      [20] 3217 	bit	7, -14 (ix)
    00001515 28 04            [12] 3218 	jr	Z, 00303$
    00001517 DD 36 FA FD      [19] 3219 	ld	-6 (ix), #0xfd
    0000151B                       3220 00303$:
                                   3221 ;E:\Dropbox\FAUSTO\SVILUPPI\MSX\CODE\C\MSXgl\projects\soccerlgMSX2/soccerlg_s9_b3.c:428: Ball->dx = c_dx;
    0000151B 21r53r01         [10] 3222 	ld	hl, #(_SwSprite + 339)
    0000151E DD 7E F1         [19] 3223 	ld	a, -15 (ix)
    00001521 77               [ 7] 3224 	ld	(hl), a
                                   3225 ;E:\Dropbox\FAUSTO\SVILUPPI\MSX\CODE\C\MSXgl\projects\soccerlgMSX2/soccerlg_s9_b3.c:429: Ball->dy = c_dy;
    00001522 21r54r01         [10] 3226 	ld	hl, #(_SwSprite + 340)
    00001525 DD 7E F2         [19] 3227 	ld	a, -14 (ix)
    00001528 77               [ 7] 3228 	ld	(hl), a
                                   3229 ;E:\Dropbox\FAUSTO\SVILUPPI\MSX\CODE\C\MSXgl\projects\soccerlgMSX2/soccerlg_s9_b3.c:430: Ball->lx = (u8)(Carrier->lx + off_x);
    00001529 DD 6E E9         [19] 3230 	ld	l, -23 (ix)
    0000152C DD 66 EA         [19] 3231 	ld	h, -22 (ix)
    0000152F 7E               [ 7] 3232 	ld	a, (hl)
    00001530 DD 77 F7         [19] 3233 	ld	-9 (ix), a
    00001533 DD 86 F9         [19] 3234 	add	a, -7 (ix)
    00001536 DD 77 F9         [19] 3235 	ld	-7 (ix), a
    00001539 21r42r01         [10] 3236 	ld	hl, #(_SwSprite + 322)
    0000153C DD 7E F9         [19] 3237 	ld	a, -7 (ix)
    0000153F 77               [ 7] 3238 	ld	(hl), a
                                   3239 ;E:\Dropbox\FAUSTO\SVILUPPI\MSX\CODE\C\MSXgl\projects\soccerlgMSX2/soccerlg_s9_b3.c:431: Ball->ly = (Carrier->ly + off_y) & 511;
    00001540 DD 6E EF         [19] 3240 	ld	l, -17 (ix)
    00001543 DD 66 F0         [19] 3241 	ld	h, -16 (ix)
    00001546 7E               [ 7] 3242 	ld	a, (hl)
    00001547 DD 77 F8         [19] 3243 	ld	-8 (ix), a
    0000154A 23               [ 6] 3244 	inc	hl
    0000154B 7E               [ 7] 3245 	ld	a, (hl)
    0000154C DD 77 F9         [19] 3246 	ld	-7 (ix), a
    0000154F DD 7E FA         [19] 3247 	ld	a, -6 (ix)
    00001552 DD 77 F6         [19] 3248 	ld	-10 (ix), a
    00001555 07               [ 4] 3249 	rlca
    00001556 9F               [ 4] 3250 	sbc	a, a
    00001557 DD 77 F7         [19] 3251 	ld	-9 (ix), a
    0000155A DD 7E F8         [19] 3252 	ld	a, -8 (ix)
    0000155D DD 77 F4         [19] 3253 	ld	-12 (ix), a
    00001560 DD 7E F9         [19] 3254 	ld	a, -7 (ix)
    00001563 DD 77 F5         [19] 3255 	ld	-11 (ix), a
    00001566 DD 7E F6         [19] 3256 	ld	a, -10 (ix)
    00001569 DD 77 F9         [19] 3257 	ld	-7 (ix), a
    0000156C DD 7E F7         [19] 3258 	ld	a, -9 (ix)
    0000156F DD 77 FA         [19] 3259 	ld	-6 (ix), a
    00001572 DD 7E F9         [19] 3260 	ld	a, -7 (ix)
    00001575 DD 86 F4         [19] 3261 	add	a, -12 (ix)
    00001578 DD 77 F7         [19] 3262 	ld	-9 (ix), a
    0000157B DD 7E FA         [19] 3263 	ld	a, -6 (ix)
    0000157E DD 8E F5         [19] 3264 	adc	a, -11 (ix)
    00001581 DD 77 F8         [19] 3265 	ld	-8 (ix), a
    00001584 DD 7E F7         [19] 3266 	ld	a, -9 (ix)
    00001587 DD 77 F9         [19] 3267 	ld	-7 (ix), a
    0000158A DD 7E F8         [19] 3268 	ld	a, -8 (ix)
    0000158D E6 01            [ 7] 3269 	and	a, #0x01
    0000158F DD 77 FA         [19] 3270 	ld	-6 (ix), a
    00001592 21r46r01         [10] 3271 	ld	hl, #(_SwSprite + 326)
    00001595 DD 7E F9         [19] 3272 	ld	a, -7 (ix)
    00001598 77               [ 7] 3273 	ld	(hl), a
    00001599 23               [ 6] 3274 	inc	hl
    0000159A DD 7E FA         [19] 3275 	ld	a, -6 (ix)
    0000159D 77               [ 7] 3276 	ld	(hl), a
    0000159E C3r8Fr16         [10] 3277 	jp	00330$
    000015A1                       3278 00321$:
                                   3279 ;E:\Dropbox\FAUSTO\SVILUPPI\MSX\CODE\C\MSXgl\projects\soccerlgMSX2/soccerlg_s9_b3.c:432: } else if (!action_taken && Ball->anim == 0) {
    000015A1 DD 7E F5         [19] 3280 	ld	a, -11 (ix)
    000015A4 B7               [ 4] 3281 	or	a, a
    000015A5 C2r8Fr16         [10] 3282 	jp	NZ, 00330$
    000015A8 2Ar55r01         [16] 3283 	ld	hl, (#(_SwSprite + 341) + 0)
    000015AB 7C               [ 4] 3284 	ld	a, h
    000015AC B5               [ 4] 3285 	or	a, l
    000015AD C2r8Fr16         [10] 3286 	jp	NZ, 00330$
                                   3287 ;E:\Dropbox\FAUSTO\SVILUPPI\MSX\CODE\C\MSXgl\projects\soccerlgMSX2/soccerlg_s9_b3.c:434: i8 off_x = 0; i8 off_y = 6;
    000015B0 DD 36 F9 00      [19] 3288 	ld	-7 (ix), #0x00
    000015B4 DD 36 FA 06      [19] 3289 	ld	-6 (ix), #0x06
                                   3290 ;E:\Dropbox\FAUSTO\SVILUPPI\MSX\CODE\C\MSXgl\projects\soccerlgMSX2/soccerlg_s9_b3.c:435: if (c_dx > 0) off_x = 9; else if (c_dx < 0) off_x = -9;
    000015B8 AF               [ 4] 3291 	xor	a, a
    000015B9 DD 96 F1         [19] 3292 	sub	a, -15 (ix)
    000015BC E2rC1r15         [10] 3293 	jp	PO, 01319$
    000015BF EE 80            [ 7] 3294 	xor	a, #0x80
    000015C1                       3295 01319$:
    000015C1 F2rCBr15         [10] 3296 	jp	P, 00307$
    000015C4 DD 36 F9 09      [19] 3297 	ld	-7 (ix), #0x09
    000015C8 C3rD5r15         [10] 3298 	jp	00308$
    000015CB                       3299 00307$:
    000015CB DD CB F1 7E      [20] 3300 	bit	7, -15 (ix)
    000015CF 28 04            [12] 3301 	jr	Z, 00308$
    000015D1 DD 36 F9 F7      [19] 3302 	ld	-7 (ix), #0xf7
    000015D5                       3303 00308$:
                                   3304 ;E:\Dropbox\FAUSTO\SVILUPPI\MSX\CODE\C\MSXgl\projects\soccerlgMSX2/soccerlg_s9_b3.c:436: if (c_dy > 0) off_y = 8; else if (c_dy < 0) off_y = -3;
    000015D5 AF               [ 4] 3305 	xor	a, a
    000015D6 DD 96 F2         [19] 3306 	sub	a, -14 (ix)
    000015D9 E2rDEr15         [10] 3307 	jp	PO, 01320$
    000015DC EE 80            [ 7] 3308 	xor	a, #0x80
    000015DE                       3309 01320$:
    000015DE F2rE8r15         [10] 3310 	jp	P, 00312$
    000015E1 DD 36 FA 08      [19] 3311 	ld	-6 (ix), #0x08
    000015E5 C3rF2r15         [10] 3312 	jp	00313$
    000015E8                       3313 00312$:
    000015E8 DD CB F2 7E      [20] 3314 	bit	7, -14 (ix)
    000015EC 28 04            [12] 3315 	jr	Z, 00313$
    000015EE DD 36 FA FD      [19] 3316 	ld	-6 (ix), #0xfd
    000015F2                       3317 00313$:
                                   3318 ;E:\Dropbox\FAUSTO\SVILUPPI\MSX\CODE\C\MSXgl\projects\soccerlgMSX2/soccerlg_s9_b3.c:438: Ball->lx = (u8)(Carrier->lx + off_x);
    000015F2 DD 6E E9         [19] 3319 	ld	l, -23 (ix)
    000015F5 DD 66 EA         [19] 3320 	ld	h, -22 (ix)
    000015F8 7E               [ 7] 3321 	ld	a, (hl)
    000015F9 DD 77 F8         [19] 3322 	ld	-8 (ix), a
    000015FC DD 86 F9         [19] 3323 	add	a, -7 (ix)
    000015FF DD 77 F9         [19] 3324 	ld	-7 (ix), a
    00001602 21r42r01         [10] 3325 	ld	hl, #(_SwSprite + 322)
    00001605 DD 7E F9         [19] 3326 	ld	a, -7 (ix)
    00001608 77               [ 7] 3327 	ld	(hl), a
                                   3328 ;E:\Dropbox\FAUSTO\SVILUPPI\MSX\CODE\C\MSXgl\projects\soccerlgMSX2/soccerlg_s9_b3.c:439: Ball->ly = (Carrier->ly + off_y) & 511;
    00001609 DD 6E EF         [19] 3329 	ld	l, -17 (ix)
    0000160C DD 66 F0         [19] 3330 	ld	h, -16 (ix)
    0000160F 7E               [ 7] 3331 	ld	a, (hl)
    00001610 DD 77 F8         [19] 3332 	ld	-8 (ix), a
    00001613 23               [ 6] 3333 	inc	hl
    00001614 7E               [ 7] 3334 	ld	a, (hl)
    00001615 DD 77 F9         [19] 3335 	ld	-7 (ix), a
    00001618 DD 7E FA         [19] 3336 	ld	a, -6 (ix)
    0000161B DD 77 F6         [19] 3337 	ld	-10 (ix), a
    0000161E 07               [ 4] 3338 	rlca
    0000161F 9F               [ 4] 3339 	sbc	a, a
    00001620 DD 77 F7         [19] 3340 	ld	-9 (ix), a
    00001623 DD 7E F8         [19] 3341 	ld	a, -8 (ix)
    00001626 DD 77 F4         [19] 3342 	ld	-12 (ix), a
    00001629 DD 7E F9         [19] 3343 	ld	a, -7 (ix)
    0000162C DD 77 F5         [19] 3344 	ld	-11 (ix), a
    0000162F DD 7E F6         [19] 3345 	ld	a, -10 (ix)
    00001632 DD 77 F9         [19] 3346 	ld	-7 (ix), a
    00001635 DD 7E F7         [19] 3347 	ld	a, -9 (ix)
    00001638 DD 77 FA         [19] 3348 	ld	-6 (ix), a
    0000163B DD 7E F9         [19] 3349 	ld	a, -7 (ix)
    0000163E DD 86 F4         [19] 3350 	add	a, -12 (ix)
    00001641 DD 77 F7         [19] 3351 	ld	-9 (ix), a
    00001644 DD 7E FA         [19] 3352 	ld	a, -6 (ix)
    00001647 DD 8E F5         [19] 3353 	adc	a, -11 (ix)
    0000164A DD 77 F8         [19] 3354 	ld	-8 (ix), a
    0000164D DD 7E F7         [19] 3355 	ld	a, -9 (ix)
    00001650 DD 77 F9         [19] 3356 	ld	-7 (ix), a
    00001653 DD 7E F8         [19] 3357 	ld	a, -8 (ix)
    00001656 E6 01            [ 7] 3358 	and	a, #0x01
    00001658 DD 77 FA         [19] 3359 	ld	-6 (ix), a
    0000165B 21r46r01         [10] 3360 	ld	hl, #(_SwSprite + 326)
    0000165E DD 7E F9         [19] 3361 	ld	a, -7 (ix)
    00001661 77               [ 7] 3362 	ld	(hl), a
    00001662 23               [ 6] 3363 	inc	hl
    00001663 DD 7E FA         [19] 3364 	ld	a, -6 (ix)
    00001666 77               [ 7] 3365 	ld	(hl), a
                                   3366 ;E:\Dropbox\FAUSTO\SVILUPPI\MSX\CODE\C\MSXgl\projects\soccerlgMSX2/soccerlg_s9_b3.c:441: if (Carrier->dx != 0 || Carrier->dy != 0) {
    00001667 DD 6E EB         [19] 3367 	ld	l, -21 (ix)
    0000166A DD 66 EC         [19] 3368 	ld	h, -20 (ix)
    0000166D 7E               [ 7] 3369 	ld	a, (hl)
    0000166E DD 77 FA         [19] 3370 	ld	-6 (ix), a
    00001671 B7               [ 4] 3371 	or	a, a
    00001672 20 0D            [12] 3372 	jr	NZ, 00314$
    00001674 DD 6E ED         [19] 3373 	ld	l, -19 (ix)
    00001677 DD 66 EE         [19] 3374 	ld	h, -18 (ix)
    0000167A 7E               [ 7] 3375 	ld	a, (hl)
    0000167B DD 77 FA         [19] 3376 	ld	-6 (ix), a
    0000167E B7               [ 4] 3377 	or	a, a
    0000167F 28 0E            [12] 3378 	jr	Z, 00330$
    00001681                       3379 00314$:
                                   3380 ;E:\Dropbox\FAUSTO\SVILUPPI\MSX\CODE\C\MSXgl\projects\soccerlgMSX2/soccerlg_s9_b3.c:442: Ball->anim = 3; // Colpetto in avanti medio-corto
    00001681 21 03 00         [10] 3381 	ld	hl, #0x0003
    00001684 22r55r01         [16] 3382 	ld	((_SwSprite + 341)), hl
                                   3383 ;E:\Dropbox\FAUSTO\SVILUPPI\MSX\CODE\C\MSXgl\projects\soccerlgMSX2/soccerlg_s9_b3.c:443: CallFnc_VOID(SEG_EVENTS, EventBallKicked);
    00001687 11r00r00         [10] 3384 	ld	de, #_EventBallKicked
    0000168A 3E 08            [ 7] 3385 	ld	a, #0x08
    0000168C CDr00r00         [17] 3386 	call	_CallFnc_VOID
    0000168F                       3387 00330$:
                                   3388 ;E:\Dropbox\FAUSTO\SVILUPPI\MSX\CODE\C\MSXgl\projects\soccerlgMSX2/soccerlg_s9_b3.c:263: for (u8 i = 0; i < 2; i++) { // i=0 per Team 1 (P2/CPU), i=1 per Team 2 (P1)
    0000168F DD 34 FF         [23] 3389 	inc	-1 (ix)
    00001692 C3r13r0B         [10] 3390 	jp	00373$
    00001695                       3391 00331$:
                                   3392 ;E:\Dropbox\FAUSTO\SVILUPPI\MSX\CODE\C\MSXgl\projects\soccerlgMSX2/soccerlg_s9_b3.c:450: for (u8 i = 0; i < 14; i++) {
    00001695 06 00            [ 7] 3393 	ld	b, #0x00
    00001697                       3394 00375$:
    00001697 78               [ 4] 3395 	ld	a, b
    00001698 D6 0E            [ 7] 3396 	sub	a, #0x0e
    0000169A 30 10            [12] 3397 	jr	NC, 00332$
                                   3398 ;E:\Dropbox\FAUSTO\SVILUPPI\MSX\CODE\C\MSXgl\projects\soccerlgMSX2/soccerlg_s9_b3.c:451: CallFnc_VOID_P1(SEG_LOGIC, PlayerAI, i);
    0000169C C5               [11] 3399 	push	bc
    0000169D C5               [11] 3400 	push	bc
    0000169E 33               [ 6] 3401 	inc	sp
    0000169F 11r00r00         [10] 3402 	ld	de, #_PlayerAI
    000016A2 3E 06            [ 7] 3403 	ld	a, #0x06
    000016A4 CDr00r00         [17] 3404 	call	_CallFnc_VOID_P1
    000016A7 C1               [10] 3405 	pop	bc
                                   3406 ;E:\Dropbox\FAUSTO\SVILUPPI\MSX\CODE\C\MSXgl\projects\soccerlgMSX2/soccerlg_s9_b3.c:450: for (u8 i = 0; i < 14; i++) {
    000016A8 04               [ 4] 3407 	inc	b
    000016A9 C3r97r16         [10] 3408 	jp	00375$
    000016AC                       3409 00332$:
                                   3410 ;E:\Dropbox\FAUSTO\SVILUPPI\MSX\CODE\C\MSXgl\projects\soccerlgMSX2/soccerlg_s9_b3.c:455: struct ObjectInfo* Referee = &SwSprite[26];
                                   3411 ;E:\Dropbox\FAUSTO\SVILUPPI\MSX\CODE\C\MSXgl\projects\soccerlgMSX2/soccerlg_s9_b3.c:458: u16 target_x = (Ball->lx < 128) ? ((u16)Ball->lx + 40) : ((u16)Ball->lx - 40);
    000016AC 3Ar42r01         [13] 3412 	ld	a, (#(_SwSprite + 322) + 0)
    000016AF 4F               [ 4] 3413 	ld	c, a
    000016B0 06 00            [ 7] 3414 	ld	b, #0x00
    000016B2 D6 80            [ 7] 3415 	sub	a, #0x80
    000016B4 30 09            [12] 3416 	jr	NC, 00438$
    000016B6 21 28 00         [10] 3417 	ld	hl, #0x0028
    000016B9 09               [11] 3418 	add	hl, bc
    000016BA 4D               [ 4] 3419 	ld	c, l
    000016BB 44               [ 4] 3420 	ld	b, h
    000016BC C3rC7r16         [10] 3421 	jp	00439$
    000016BF                       3422 00438$:
    000016BF 79               [ 4] 3423 	ld	a, c
    000016C0 C6 D8            [ 7] 3424 	add	a, #0xd8
    000016C2 4F               [ 4] 3425 	ld	c, a
    000016C3 78               [ 4] 3426 	ld	a, b
    000016C4 CE FF            [ 7] 3427 	adc	a, #0xff
    000016C6 47               [ 4] 3428 	ld	b, a
    000016C7                       3429 00439$:
    000016C7 DD 71 F9         [19] 3430 	ld	-7 (ix), c
    000016CA DD 70 FA         [19] 3431 	ld	-6 (ix), b
                                   3432 ;E:\Dropbox\FAUSTO\SVILUPPI\MSX\CODE\C\MSXgl\projects\soccerlgMSX2/soccerlg_s9_b3.c:459: u16 target_y = (Ball->ly < 256) ? (Ball->ly + 48) : (Ball->ly - 48);
    000016CD 01r46r01         [10] 3433 	ld	bc, #(_SwSprite + 326)
    000016D0 2Ar46r01         [16] 3434 	ld	hl, (#(_SwSprite + 326) + 0)
    000016D3 DD 75 F5         [19] 3435 	ld	-11 (ix), l
    000016D6 DD 74 F6         [19] 3436 	ld	-10 (ix), h
    000016D9 7C               [ 4] 3437 	ld	a, h
    000016DA D6 01            [ 7] 3438 	sub	a, #0x01
    000016DC 30 13            [12] 3439 	jr	NC, 00440$
    000016DE DD 7E F5         [19] 3440 	ld	a, -11 (ix)
    000016E1 C6 30            [ 7] 3441 	add	a, #0x30
    000016E3 DD 77 F7         [19] 3442 	ld	-9 (ix), a
    000016E6 DD 7E F6         [19] 3443 	ld	a, -10 (ix)
    000016E9 CE 00            [ 7] 3444 	adc	a, #0x00
    000016EB DD 77 F8         [19] 3445 	ld	-8 (ix), a
    000016EE C3r01r17         [10] 3446 	jp	00441$
    000016F1                       3447 00440$:
    000016F1 DD 7E F5         [19] 3448 	ld	a, -11 (ix)
    000016F4 C6 D0            [ 7] 3449 	add	a, #0xd0
    000016F6 DD 77 F7         [19] 3450 	ld	-9 (ix), a
    000016F9 DD 7E F6         [19] 3451 	ld	a, -10 (ix)
    000016FC CE FF            [ 7] 3452 	adc	a, #0xff
    000016FE DD 77 F8         [19] 3453 	ld	-8 (ix), a
    00001701                       3454 00441$:
    00001701 DD 7E F7         [19] 3455 	ld	a, -9 (ix)
    00001704 DD 77 F3         [19] 3456 	ld	-13 (ix), a
    00001707 DD 7E F8         [19] 3457 	ld	a, -8 (ix)
    0000170A DD 77 F4         [19] 3458 	ld	-12 (ix), a
                                   3459 ;E:\Dropbox\FAUSTO\SVILUPPI\MSX\CODE\C\MSXgl\projects\soccerlgMSX2/soccerlg_s9_b3.c:462: if (target_x < 16) target_x = 16;
    0000170D DD 7E F9         [19] 3460 	ld	a, -7 (ix)
    00001710 DD 56 FA         [19] 3461 	ld	d, -6 (ix)
    00001713 D6 10            [ 7] 3462 	sub	a, #0x10
    00001715 7A               [ 4] 3463 	ld	a, d
    00001716 DE 00            [ 7] 3464 	sbc	a, #0x00
    00001718 30 08            [12] 3465 	jr	NC, 00334$
    0000171A DD 36 F9 10      [19] 3466 	ld	-7 (ix), #0x10
    0000171E DD 36 FA 00      [19] 3467 	ld	-6 (ix), #0
    00001722                       3468 00334$:
                                   3469 ;E:\Dropbox\FAUSTO\SVILUPPI\MSX\CODE\C\MSXgl\projects\soccerlgMSX2/soccerlg_s9_b3.c:463: if (target_x > 240) target_x = 240;
    00001722 DD 5E F9         [19] 3470 	ld	e, -7 (ix)
    00001725 DD 56 FA         [19] 3471 	ld	d, -6 (ix)
    00001728 3E F0            [ 7] 3472 	ld	a, #0xf0
    0000172A BB               [ 4] 3473 	cp	a, e
    0000172B 3E 00            [ 7] 3474 	ld	a, #0x00
    0000172D 9A               [ 4] 3475 	sbc	a, d
    0000172E 30 08            [12] 3476 	jr	NC, 00336$
    00001730 DD 36 F9 F0      [19] 3477 	ld	-7 (ix), #0xf0
    00001734 DD 36 FA 00      [19] 3478 	ld	-6 (ix), #0
    00001738                       3479 00336$:
                                   3480 ;E:\Dropbox\FAUSTO\SVILUPPI\MSX\CODE\C\MSXgl\projects\soccerlgMSX2/soccerlg_s9_b3.c:464: if (target_y < 24) target_y = 24;
    00001738 DD 7E F3         [19] 3481 	ld	a, -13 (ix)
    0000173B DD 56 F4         [19] 3482 	ld	d, -12 (ix)
    0000173E D6 18            [ 7] 3483 	sub	a, #0x18
    00001740 7A               [ 4] 3484 	ld	a, d
    00001741 DE 00            [ 7] 3485 	sbc	a, #0x00
    00001743 30 08            [12] 3486 	jr	NC, 00338$
    00001745 DD 36 F3 18      [19] 3487 	ld	-13 (ix), #0x18
    00001749 DD 36 F4 00      [19] 3488 	ld	-12 (ix), #0
    0000174D                       3489 00338$:
                                   3490 ;E:\Dropbox\FAUSTO\SVILUPPI\MSX\CODE\C\MSXgl\projects\soccerlgMSX2/soccerlg_s9_b3.c:465: if (target_y > 488) target_y = 488;
    0000174D DD 5E F3         [19] 3491 	ld	e, -13 (ix)
    00001750 DD 56 F4         [19] 3492 	ld	d, -12 (ix)
    00001753 3E E8            [ 7] 3493 	ld	a, #0xe8
    00001755 BB               [ 4] 3494 	cp	a, e
    00001756 3E 01            [ 7] 3495 	ld	a, #0x01
    00001758 9A               [ 4] 3496 	sbc	a, d
    00001759 30 08            [12] 3497 	jr	NC, 00340$
    0000175B DD 36 F3 E8      [19] 3498 	ld	-13 (ix), #0xe8
    0000175F DD 36 F4 01      [19] 3499 	ld	-12 (ix), #0x01
    00001763                       3500 00340$:
                                   3501 ;E:\Dropbox\FAUSTO\SVILUPPI\MSX\CODE\C\MSXgl\projects\soccerlgMSX2/soccerlg_s9_b3.c:468: i8 ref_dx = 0;
    00001763 DD 36 F5 00      [19] 3502 	ld	-11 (ix), #0x00
                                   3503 ;E:\Dropbox\FAUSTO\SVILUPPI\MSX\CODE\C\MSXgl\projects\soccerlgMSX2/soccerlg_s9_b3.c:469: i8 ref_dy = 0;
    00001767 DD 36 F6 00      [19] 3504 	ld	-10 (ix), #0x00
                                   3505 ;E:\Dropbox\FAUSTO\SVILUPPI\MSX\CODE\C\MSXgl\projects\soccerlgMSX2/soccerlg_s9_b3.c:472: if (target_x > Referee->lx + speed) ref_dx = speed;
    0000176B 3Ar56r02         [13] 3506 	ld	a, (#(_SwSprite + 598) + 0)
    0000176E DD 77 FF         [19] 3507 	ld	-1 (ix), a
    00001771 DD 77 F7         [19] 3508 	ld	-9 (ix), a
    00001774 DD 36 F8 00      [19] 3509 	ld	-8 (ix), #0x00
    00001778 5F               [ 4] 3510 	ld	e, a
    00001779 16 00            [ 7] 3511 	ld	d, #0x00
    0000177B 13               [ 6] 3512 	inc	de
    0000177C 7B               [ 4] 3513 	ld	a, e
    0000177D DD 96 F9         [19] 3514 	sub	a, -7 (ix)
    00001780 7A               [ 4] 3515 	ld	a, d
    00001781 DD 9E FA         [19] 3516 	sbc	a, -6 (ix)
    00001784 30 07            [12] 3517 	jr	NC, 00344$
    00001786 DD 36 F5 01      [19] 3518 	ld	-11 (ix), #0x01
    0000178A C3rA2r17         [10] 3519 	jp	00345$
    0000178D                       3520 00344$:
                                   3521 ;E:\Dropbox\FAUSTO\SVILUPPI\MSX\CODE\C\MSXgl\projects\soccerlgMSX2/soccerlg_s9_b3.c:473: else if (target_x < Referee->lx - speed) ref_dx = -speed;
    0000178D DD 5E F7         [19] 3522 	ld	e, -9 (ix)
    00001790 DD 56 F8         [19] 3523 	ld	d, -8 (ix)
    00001793 1B               [ 6] 3524 	dec	de
    00001794 DD 7E F9         [19] 3525 	ld	a, -7 (ix)
    00001797 93               [ 4] 3526 	sub	a, e
    00001798 DD 7E FA         [19] 3527 	ld	a, -6 (ix)
    0000179B 9A               [ 4] 3528 	sbc	a, d
    0000179C 30 04            [12] 3529 	jr	NC, 00345$
    0000179E DD 36 F5 FF      [19] 3530 	ld	-11 (ix), #0xff
    000017A2                       3531 00345$:
                                   3532 ;E:\Dropbox\FAUSTO\SVILUPPI\MSX\CODE\C\MSXgl\projects\soccerlgMSX2/soccerlg_s9_b3.c:475: if (target_y > Referee->ly + speed) ref_dy = speed;
    000017A2 2Ar5Ar02         [16] 3533 	ld	hl, (#(_SwSprite + 602) + 0)
    000017A5 DD 75 F7         [19] 3534 	ld	-9 (ix), l
    000017A8 DD 74 F8         [19] 3535 	ld	-8 (ix), h
    000017AB 23               [ 6] 3536 	inc	hl
    000017AC EB               [ 4] 3537 	ex	de,hl
    000017AD DD 7E F3         [19] 3538 	ld	a, -13 (ix)
    000017B0 DD 77 F9         [19] 3539 	ld	-7 (ix), a
    000017B3 DD 7E F4         [19] 3540 	ld	a, -12 (ix)
    000017B6 DD 77 FA         [19] 3541 	ld	-6 (ix), a
    000017B9 7B               [ 4] 3542 	ld	a, e
    000017BA DD 96 F9         [19] 3543 	sub	a, -7 (ix)
    000017BD 7A               [ 4] 3544 	ld	a, d
    000017BE DD 9E FA         [19] 3545 	sbc	a, -6 (ix)
    000017C1 30 07            [12] 3546 	jr	NC, 00349$
    000017C3 DD 36 F6 01      [19] 3547 	ld	-10 (ix), #0x01
    000017C7 C3rDFr17         [10] 3548 	jp	00350$
    000017CA                       3549 00349$:
                                   3550 ;E:\Dropbox\FAUSTO\SVILUPPI\MSX\CODE\C\MSXgl\projects\soccerlgMSX2/soccerlg_s9_b3.c:476: else if (target_y < Referee->ly - speed) ref_dy = -speed;
    000017CA DD 5E F7         [19] 3551 	ld	e, -9 (ix)
    000017CD DD 56 F8         [19] 3552 	ld	d, -8 (ix)
    000017D0 1B               [ 6] 3553 	dec	de
    000017D1 DD 7E F9         [19] 3554 	ld	a, -7 (ix)
    000017D4 93               [ 4] 3555 	sub	a, e
    000017D5 DD 7E FA         [19] 3556 	ld	a, -6 (ix)
    000017D8 9A               [ 4] 3557 	sbc	a, d
    000017D9 30 04            [12] 3558 	jr	NC, 00350$
    000017DB DD 36 F6 FF      [19] 3559 	ld	-10 (ix), #0xff
    000017DF                       3560 00350$:
                                   3561 ;E:\Dropbox\FAUSTO\SVILUPPI\MSX\CODE\C\MSXgl\projects\soccerlgMSX2/soccerlg_s9_b3.c:478: Referee->lx += ref_dx;
    000017DF DD 7E FF         [19] 3562 	ld	a, -1 (ix)
    000017E2 DD 86 F5         [19] 3563 	add	a, -11 (ix)
    000017E5 32r56r02         [13] 3564 	ld	(#(_SwSprite + 598)),a
                                   3565 ;E:\Dropbox\FAUSTO\SVILUPPI\MSX\CODE\C\MSXgl\projects\soccerlgMSX2/soccerlg_s9_b3.c:479: Referee->ly += ref_dy;
    000017E8 2Ar5Ar02         [16] 3566 	ld	hl, (#(_SwSprite + 602) + 0)
    000017EB DD 7E F6         [19] 3567 	ld	a, -10 (ix)
    000017EE 5F               [ 4] 3568 	ld	e, a
    000017EF 07               [ 4] 3569 	rlca
    000017F0 9F               [ 4] 3570 	sbc	a, a
    000017F1 57               [ 4] 3571 	ld	d, a
    000017F2 19               [11] 3572 	add	hl, de
    000017F3 EB               [ 4] 3573 	ex	de, hl
    000017F4 ED 53r5Ar02      [20] 3574 	ld	((_SwSprite + 602)), de
                                   3575 ;E:\Dropbox\FAUSTO\SVILUPPI\MSX\CODE\C\MSXgl\projects\soccerlgMSX2/soccerlg_s9_b3.c:482: i8 look_dx = (Ball->lx > Referee->lx) ? 1 : ((Ball->lx < Referee->lx) ? -1 : 0);
    000017F8 3Ar42r01         [13] 3576 	ld	a, (#(_SwSprite + 322) + 0)
    000017FB DD 77 FF         [19] 3577 	ld	-1 (ix), a
    000017FE 21r56r02         [10] 3578 	ld	hl, #(_SwSprite + 598)
    00001801 5E               [ 7] 3579 	ld	e, (hl)
    00001802 7B               [ 4] 3580 	ld	a, e
    00001803 DD 96 FF         [19] 3581 	sub	a, -1 (ix)
    00001806 30 06            [12] 3582 	jr	NC, 00442$
    00001808 11 01 00         [10] 3583 	ld	de, #0x0001
    0000180B C3r1Dr18         [10] 3584 	jp	00443$
    0000180E                       3585 00442$:
    0000180E DD 7E FF         [19] 3586 	ld	a, -1 (ix)
    00001811 93               [ 4] 3587 	sub	a, e
    00001812 30 06            [12] 3588 	jr	NC, 00444$
    00001814 11 FF FF         [10] 3589 	ld	de, #0xffff
    00001817 C3r1Dr18         [10] 3590 	jp	00445$
    0000181A                       3591 00444$:
    0000181A 11 00 00         [10] 3592 	ld	de, #0x0000
    0000181D                       3593 00445$:
    0000181D                       3594 00443$:
    0000181D DD 73 FF         [19] 3595 	ld	-1 (ix), e
                                   3596 ;E:\Dropbox\FAUSTO\SVILUPPI\MSX\CODE\C\MSXgl\projects\soccerlgMSX2/soccerlg_s9_b3.c:483: i8 look_dy = (Ball->ly > Referee->ly) ? 1 : ((Ball->ly < Referee->ly) ? -1 : 0);
    00001820 0A               [ 7] 3597 	ld	a, (bc)
    00001821 DD 77 F7         [19] 3598 	ld	-9 (ix), a
    00001824 03               [ 6] 3599 	inc	bc
    00001825 0A               [ 7] 3600 	ld	a, (bc)
    00001826 DD 77 F8         [19] 3601 	ld	-8 (ix), a
                                   3602 ;E:\Dropbox\FAUSTO\SVILUPPI\MSX\CODE\C\MSXgl\projects\soccerlgMSX2/soccerlg_s9_b3.c:475: if (target_y > Referee->ly + speed) ref_dy = speed;
    00001829 21r5Ar02         [10] 3603 	ld	hl, #(_SwSprite + 602)
    0000182C 7E               [ 7] 3604 	ld	a, (hl)
    0000182D DD 77 F9         [19] 3605 	ld	-7 (ix), a
    00001830 23               [ 6] 3606 	inc	hl
    00001831 7E               [ 7] 3607 	ld	a, (hl)
    00001832 DD 77 FA         [19] 3608 	ld	-6 (ix), a
                                   3609 ;E:\Dropbox\FAUSTO\SVILUPPI\MSX\CODE\C\MSXgl\projects\soccerlgMSX2/soccerlg_s9_b3.c:483: i8 look_dy = (Ball->ly > Referee->ly) ? 1 : ((Ball->ly < Referee->ly) ? -1 : 0);
    00001835 DD 7E F9         [19] 3610 	ld	a, -7 (ix)
    00001838 DD 96 F7         [19] 3611 	sub	a, -9 (ix)
    0000183B DD 7E FA         [19] 3612 	ld	a, -6 (ix)
    0000183E DD 9E F8         [19] 3613 	sbc	a, -8 (ix)
    00001841 30 06            [12] 3614 	jr	NC, 00446$
    00001843 01 01 00         [10] 3615 	ld	bc, #0x0001
    00001846 C3r6Cr18         [10] 3616 	jp	00447$
    00001849                       3617 00446$:
    00001849 DD 7E F7         [19] 3618 	ld	a, -9 (ix)
    0000184C DD 96 F9         [19] 3619 	sub	a, -7 (ix)
    0000184F DD 7E F8         [19] 3620 	ld	a, -8 (ix)
    00001852 DD 9E FA         [19] 3621 	sbc	a, -6 (ix)
    00001855 30 0B            [12] 3622 	jr	NC, 00448$
    00001857 DD 36 F9 FF      [19] 3623 	ld	-7 (ix), #0xff
    0000185B DD 36 FA FF      [19] 3624 	ld	-6 (ix), #0xff
    0000185F C3r69r18         [10] 3625 	jp	00449$
    00001862                       3626 00448$:
    00001862 AF               [ 4] 3627 	xor	a, a
    00001863 DD 77 F9         [19] 3628 	ld	-7 (ix), a
    00001866 DD 77 FA         [19] 3629 	ld	-6 (ix), a
    00001869                       3630 00449$:
    00001869 DD 4E F9         [19] 3631 	ld	c, -7 (ix)
    0000186C                       3632 00447$:
    0000186C DD 71 FA         [19] 3633 	ld	-6 (ix), c
                                   3634 ;E:\Dropbox\FAUSTO\SVILUPPI\MSX\CODE\C\MSXgl\projects\soccerlgMSX2/soccerlg_s9_b3.c:484: if (look_dx == 0 && look_dy == 0) look_dy = 1; // Guarda in basso di default
    0000186F DD 7E FF         [19] 3635 	ld	a, -1 (ix)
    00001872 B7               [ 4] 3636 	or	a, a
    00001873 20 0A            [12] 3637 	jr	NZ, 00352$
    00001875 DD 7E FA         [19] 3638 	ld	a, -6 (ix)
    00001878 B7               [ 4] 3639 	or	a, a
    00001879 20 04            [12] 3640 	jr	NZ, 00352$
    0000187B DD 36 FA 01      [19] 3641 	ld	-6 (ix), #0x01
    0000187F                       3642 00352$:
                                   3643 ;E:\Dropbox\FAUSTO\SVILUPPI\MSX\CODE\C\MSXgl\projects\soccerlgMSX2/soccerlg_s9_b3.c:491: Referee->frame = CallFnc_U16_P4(SEG_GAMESTATE_2, GetPlayerAnimFrame, 26, look_dx, look_dy, walk_seq[(Referee->anim / 3) % 4]);
                                   3644 ;E:\Dropbox\FAUSTO\SVILUPPI\MSX\CODE\C\MSXgl\projects\soccerlgMSX2/soccerlg_s9_b3.c:487: if (ref_dx != 0 || ref_dy != 0) {
    0000187F DD 7E F5         [19] 3645 	ld	a, -11 (ix)
    00001882 B7               [ 4] 3646 	or	a, a
    00001883 20 07            [12] 3647 	jr	NZ, 00354$
    00001885 DD 7E F6         [19] 3648 	ld	a, -10 (ix)
    00001888 B7               [ 4] 3649 	or	a, a
    00001889 CAr0Ar19         [10] 3650 	jp	Z, 00355$
    0000188C                       3651 00354$:
                                   3652 ;E:\Dropbox\FAUSTO\SVILUPPI\MSX\CODE\C\MSXgl\projects\soccerlgMSX2/soccerlg_s9_b3.c:488: Referee->anim++;
    0000188C 2Ar69r02         [16] 3653 	ld	hl, (#(_SwSprite + 617) + 0)
    0000188F 23               [ 6] 3654 	inc	hl
    00001890 DD 75 F8         [19] 3655 	ld	-8 (ix), l
    00001893 DD 74 F9         [19] 3656 	ld	-7 (ix), h
    00001896 21r69r02         [10] 3657 	ld	hl, #(_SwSprite + 617)
    00001899 DD 7E F8         [19] 3658 	ld	a, -8 (ix)
    0000189C 77               [ 7] 3659 	ld	(hl), a
    0000189D 23               [ 6] 3660 	inc	hl
    0000189E DD 7E F9         [19] 3661 	ld	a, -7 (ix)
    000018A1 77               [ 7] 3662 	ld	(hl), a
                                   3663 ;E:\Dropbox\FAUSTO\SVILUPPI\MSX\CODE\C\MSXgl\projects\soccerlgMSX2/soccerlg_s9_b3.c:489: const u8 walk_seq[4] = {0, 1, 2, 1};
    000018A2 DD 36 E5 00      [19] 3664 	ld	-27 (ix), #0x00
    000018A6 DD 36 E6 01      [19] 3665 	ld	-26 (ix), #0x01
    000018AA DD 36 E7 02      [19] 3666 	ld	-25 (ix), #0x02
    000018AE DD 36 E8 01      [19] 3667 	ld	-24 (ix), #0x01
                                   3668 ;E:\Dropbox\FAUSTO\SVILUPPI\MSX\CODE\C\MSXgl\projects\soccerlgMSX2/soccerlg_s9_b3.c:491: Referee->frame = CallFnc_U16_P4(SEG_GAMESTATE_2, GetPlayerAnimFrame, 26, look_dx, look_dy, walk_seq[(Referee->anim / 3) % 4]);
    000018B2 11 03 00         [10] 3669 	ld	de, #0x0003
    000018B5 DD 6E F8         [19] 3670 	ld	l, -8 (ix)
                                   3671 ;	spillPairReg hl
                                   3672 ;	spillPairReg hl
    000018B8 DD 66 F9         [19] 3673 	ld	h, -7 (ix)
                                   3674 ;	spillPairReg hl
                                   3675 ;	spillPairReg hl
    000018BB CDr00r00         [17] 3676 	call	__divuint
    000018BE DD 73 F8         [19] 3677 	ld	-8 (ix), e
    000018C1 DD 72 F9         [19] 3678 	ld	-7 (ix), d
    000018C4 DD 7E F8         [19] 3679 	ld	a, -8 (ix)
    000018C7 E6 03            [ 7] 3680 	and	a, #0x03
    000018C9 DD 77 F6         [19] 3681 	ld	-10 (ix), a
    000018CC DD 36 F7 00      [19] 3682 	ld	-9 (ix), #0x00
    000018D0 5F               [ 4] 3683 	ld	e, a
    000018D1 16 00            [ 7] 3684 	ld	d, #0x00
    000018D3 21 0A 00         [10] 3685 	ld	hl, #10
    000018D6 39               [11] 3686 	add	hl, sp
    000018D7 19               [11] 3687 	add	hl, de
    000018D8 DD 75 F8         [19] 3688 	ld	-8 (ix), l
    000018DB DD 74 F9         [19] 3689 	ld	-7 (ix), h
    000018DE 7E               [ 7] 3690 	ld	a, (hl)
    000018DF DD 77 F9         [19] 3691 	ld	-7 (ix), a
    000018E2 67               [ 4] 3692 	ld	h, a
    000018E3 DD 6E FA         [19] 3693 	ld	l, -6 (ix)
    000018E6 E5               [11] 3694 	push	hl
    000018E7 DD 66 FF         [19] 3695 	ld	h, -1 (ix)
    000018EA 2E 1A            [ 7] 3696 	ld	l, #0x1a
    000018EC E5               [11] 3697 	push	hl
    000018ED 11r00r00         [10] 3698 	ld	de, #_GetPlayerAnimFrame
    000018F0 3E 0B            [ 7] 3699 	ld	a, #0x0b
    000018F2 CDr00r00         [17] 3700 	call	_CallFnc_U16_P4
    000018F5 DD 73 F9         [19] 3701 	ld	-7 (ix), e
    000018F8 DD 72 FA         [19] 3702 	ld	-6 (ix), d
    000018FB 21r65r02         [10] 3703 	ld	hl, #(_SwSprite + 613)
    000018FE DD 7E F9         [19] 3704 	ld	a, -7 (ix)
    00001901 77               [ 7] 3705 	ld	(hl), a
    00001902 23               [ 6] 3706 	inc	hl
    00001903 DD 7E FA         [19] 3707 	ld	a, -6 (ix)
    00001906 77               [ 7] 3708 	ld	(hl), a
    00001907 C3r51r19         [10] 3709 	jp	00377$
    0000190A                       3710 00355$:
                                   3711 ;E:\Dropbox\FAUSTO\SVILUPPI\MSX\CODE\C\MSXgl\projects\soccerlgMSX2/soccerlg_s9_b3.c:494: Referee->frame = CallFnc_U16_P3(SEG_GAMESTATE_2, GetPlayerIdleFrame, 26, look_dx, look_dy);
    0000190A DD 7E FA         [19] 3712 	ld	a, -6 (ix)
    0000190D F5               [11] 3713 	push	af
    0000190E 33               [ 6] 3714 	inc	sp
    0000190F DD 66 FF         [19] 3715 	ld	h, -1 (ix)
    00001912 2E 1A            [ 7] 3716 	ld	l, #0x1a
    00001914 E5               [11] 3717 	push	hl
    00001915 11r00r00         [10] 3718 	ld	de, #_GetPlayerIdleFrame
    00001918 3E 0B            [ 7] 3719 	ld	a, #0x0b
    0000191A CDr00r00         [17] 3720 	call	_CallFnc_U16_P3
    0000191D ED 53r65r02      [20] 3721 	ld	((_SwSprite + 613)), de
    00001921 C3r51r19         [10] 3722 	jp	00377$
    00001924                       3723 00359$:
                                   3724 ;E:\Dropbox\FAUSTO\SVILUPPI\MSX\CODE\C\MSXgl\projects\soccerlgMSX2/soccerlg_s9_b3.c:497: SwSprite[24].ly = 1000; // Nasconde la freccia superiore durante le pause
    00001924 21 E8 03         [10] 3725 	ld	hl, #0x03e8
    00001927 22r2Cr02         [16] 3726 	ld	((_SwSprite + 556)), hl
                                   3727 ;E:\Dropbox\FAUSTO\SVILUPPI\MSX\CODE\C\MSXgl\projects\soccerlgMSX2/soccerlg_s9_b3.c:498: SwSprite[25].ly = 1000; // Nasconde la freccia inferiore durante le pause
    0000192A 22r43r02         [16] 3728 	ld	((_SwSprite + 579)), hl
                                   3729 ;E:\Dropbox\FAUSTO\SVILUPPI\MSX\CODE\C\MSXgl\projects\soccerlgMSX2/soccerlg_s9_b3.c:499: CallFnc_VOID_3PTR_U16(SEG_GAMESTATE_3, UpdateGameState_Restarts, game_state, wait_secs, start_sec, target_ly);
    0000192D DD 6E 06         [19] 3730 	ld	l, 6 (ix)
                                   3731 ;	spillPairReg hl
                                   3732 ;	spillPairReg hl
    00001930 DD 66 07         [19] 3733 	ld	h, 7 (ix)
                                   3734 ;	spillPairReg hl
                                   3735 ;	spillPairReg hl
    00001933 E5               [11] 3736 	push	hl
    00001934 DD 6E 04         [19] 3737 	ld	l, 4 (ix)
                                   3738 ;	spillPairReg hl
                                   3739 ;	spillPairReg hl
    00001937 DD 66 05         [19] 3740 	ld	h, 5 (ix)
                                   3741 ;	spillPairReg hl
                                   3742 ;	spillPairReg hl
    0000193A E5               [11] 3743 	push	hl
    0000193B DD 6E FB         [19] 3744 	ld	l, -5 (ix)
                                   3745 ;	spillPairReg hl
                                   3746 ;	spillPairReg hl
    0000193E DD 66 FC         [19] 3747 	ld	h, -4 (ix)
                                   3748 ;	spillPairReg hl
                                   3749 ;	spillPairReg hl
    00001941 E5               [11] 3750 	push	hl
    00001942 DD 6E FD         [19] 3751 	ld	l, -3 (ix)
                                   3752 ;	spillPairReg hl
                                   3753 ;	spillPairReg hl
    00001945 DD 66 FE         [19] 3754 	ld	h, -2 (ix)
                                   3755 ;	spillPairReg hl
                                   3756 ;	spillPairReg hl
    00001948 E5               [11] 3757 	push	hl
    00001949 11r00r00         [10] 3758 	ld	de, #_UpdateGameState_Restarts
    0000194C 3E 0C            [ 7] 3759 	ld	a, #0x0c
    0000194E CDr00r00         [17] 3760 	call	_CallFnc_VOID_3PTR_U16
    00001951                       3761 00377$:
                                   3762 ;E:\Dropbox\FAUSTO\SVILUPPI\MSX\CODE\C\MSXgl\projects\soccerlgMSX2/soccerlg_s9_b3.c:501: }
    00001951 DD F9            [10] 3763 	ld	sp, ix
    00001953 DD E1            [14] 3764 	pop	ix
    00001955 E1               [10] 3765 	pop	hl
    00001956 F1               [10] 3766 	pop	af
    00001957 F1               [10] 3767 	pop	af
    00001958 E9               [ 4] 3768 	jp	(hl)
                         0000F380  3769 _g_RDPRIM	=	0xf380
                         0000F385  3770 _g_WRPRIM	=	0xf385
                         0000F38C  3771 _g_CLPRIM	=	0xf38c
                         0000F39A  3772 _g_USRTAB	=	0xf39a
                         0000F3DE  3773 _g_CNSDFG	=	0xf3de
                         0000F3DF  3774 _g_RG0SAV	=	0xf3df
                         0000F3E0  3775 _g_RG1SAV	=	0xf3e0
                         0000F3E1  3776 _g_RG2SAV	=	0xf3e1
                         0000F3E2  3777 _g_RG3SAV	=	0xf3e2
                         0000F3E3  3778 _g_RG4SAV	=	0xf3e3
                         0000F3E4  3779 _g_RG5SAV	=	0xf3e4
                         0000F3E5  3780 _g_RG6SAV	=	0xf3e5
                         0000F3E6  3781 _g_RG7SAV	=	0xf3e6
                         0000F3E7  3782 _g_STATFL	=	0xf3e7
                         0000F3E8  3783 _g_TRGFLG	=	0xf3e8
                         0000F3EC  3784 _g_MAXUPD	=	0xf3ec
                         0000F3EF  3785 _g_MINUPD	=	0xf3ef
                         0000F3F3  3786 _g_QUEUES	=	0xf3f3
                         0000F3F5  3787 _g_FRCNEW	=	0xf3f5
                         0000F3F6  3788 _g_SCNCNT	=	0xf3f6
                         0000F3F7  3789 _g_REPCNT	=	0xf3f7
                         0000F3F8  3790 _g_PUTPNT	=	0xf3f8
                         0000F3FA  3791 _g_GETPNT	=	0xf3fa
                         0000F3FC  3792 _g_CS120	=	0xf3fc
                         0000F401  3793 _g_CS240	=	0xf401
                         0000F406  3794 _g_LOW	=	0xf406
                         0000F408  3795 _g_HIGH	=	0xf408
                         0000F40A  3796 _g_HEADER	=	0xf40a
                         0000F40B  3797 _g_ASPCT1	=	0xf40b
                         0000F40D  3798 _g_ASPCT2	=	0xf40d
                         0000F959  3799 _g_QUETAB	=	0xf959
                         0000F971  3800 _g_QUEBAK	=	0xf971
                         0000F975  3801 _g_VOICAQ	=	0xf975
                         0000F9F5  3802 _g_VOICBQ	=	0xf9f5
                         0000FA75  3803 _g_VOICCQ	=	0xfa75
                         0000FAF5  3804 _g_RS2IQ	=	0xfaf5
                         0000FAF5  3805 _g_DPPAGE	=	0xfaf5
                         0000FAF6  3806 _g_ACPAGE	=	0xfaf6
                         0000FAF7  3807 _g_AVCSAV	=	0xfaf7
                         0000FAF8  3808 _g_EXBRSA	=	0xfaf8
                         0000FAF9  3809 _g_CHRCNT	=	0xfaf9
                         0000FAFA  3810 _g_ROMA	=	0xfafa
                         0000FAFC  3811 _g_MODE	=	0xfafc
                         0000FAFD  3812 _g_NORUSE	=	0xfafd
                         0000FAFE  3813 _g_XSAVE	=	0xfafe
                         0000FB00  3814 _g_YSAVE	=	0xfb00
                         0000FB03  3815 _g_RSTMP	=	0xfb03
                         0000FB03  3816 _g_TOCNT	=	0xfb03
                         0000FB04  3817 _g_RSFCB	=	0xfb04
                         0000FB06  3818 _g_RSIQLN	=	0xfb06
                         0000FB07  3819 _g_MEXBIh	=	0xfb07
                         0000FB0C  3820 _g_OLDSTT	=	0xfb0c
                         0000FB0C  3821 _g_OLDINT	=	0xfb0c
                         0000FB16  3822 _g_DEVNUM	=	0xfb16
                         0000FB17  3823 _g_DATCNT	=	0xfb17
                         0000FB1A  3824 _g_ERRORS	=	0xfb1a
                         0000FB1B  3825 _g_FLAGS	=	0xfb1b
                         0000FB1C  3826 _g_ESTBLS	=	0xfb1c
                         0000FB1D  3827 _g_COMMSK	=	0xfb1d
                         0000FB1E  3828 _g_LSTCOM	=	0xfb1e
                         0000FB1F  3829 _g_LSTMOD	=	0xfb1f
                         0000FB35  3830 _g_PRSCNT	=	0xfb35
                         0000FB36  3831 _g_SAVSP	=	0xfb36
                         0000FB38  3832 _g_VOICEN	=	0xfb38
                         0000FB39  3833 _g_SAVVOL	=	0xfb39
                         0000FB3B  3834 _g_MCLLEN	=	0xfb3b
                         0000FB3C  3835 _g_MCLPTR	=	0xfb3c
                         0000FB3E  3836 _g_QUEUEN	=	0xfb3e
                         0000FB3F  3837 _g_MUSICF	=	0xfb3f
                         0000FB40  3838 _g_PLYCNT	=	0xfb40
                         0000FB41  3839 _g_VCBA	=	0xfb41
                         0000FB66  3840 _g_VCBB	=	0xfb66
                         0000FB8B  3841 _g_VCBC	=	0xfb8b
                         0000FBB0  3842 _g_ENSTOP	=	0xfbb0
                         0000FBB1  3843 _g_BASROM	=	0xfbb1
                         0000FBB2  3844 _g_LINTTB	=	0xfbb2
                         0000FBCA  3845 _g_FSTPOS	=	0xfbca
                         0000FBCC  3846 _g_CODSAV	=	0xfbcc
                         0000FBCD  3847 _g_FNKSWI	=	0xfbcd
                         0000FBCE  3848 _g_FNKFLG	=	0xfbce
                         0000FBD8  3849 _g_ONGSBF	=	0xfbd8
                         0000FBD9  3850 _g_CLIKFL	=	0xfbd9
                         0000FBDA  3851 _g_OLDKEY	=	0xfbda
                         0000FBE5  3852 _g_NEWKEY	=	0xfbe5
                         0000FBF0  3853 _g_KEYBUF	=	0xfbf0
                         0000FC18  3854 _g_LINWRK	=	0xfc18
                         0000FC40  3855 _g_PATWRK	=	0xfc40
                         0000FC48  3856 _g_BOTTOM	=	0xfc48
                         0000FC4A  3857 _g_HIMEM	=	0xfc4a
                         0000FC4C  3858 _g_TRPTBL	=	0xfc4c
                         0000FC9A  3859 _g_RTYCNT	=	0xfc9a
                         0000FC9B  3860 _g_INTFLG	=	0xfc9b
                         0000FC9C  3861 _g_PADY	=	0xfc9c
                         0000FC9D  3862 _g_PADX	=	0xfc9d
                         0000FC9E  3863 _g_JIFFY	=	0xfc9e
                         0000FCA0  3864 _g_INTVAL	=	0xfca0
                         0000FCA2  3865 _g_INTCNT	=	0xfca2
                         0000FCA4  3866 _g_LOWLIM	=	0xfca4
                         0000FCA5  3867 _g_WINWID	=	0xfca5
                         0000FCA6  3868 _g_GRPHED	=	0xfca6
                         0000FCA7  3869 _g_ESCCNT	=	0xfca7
                         0000FCA8  3870 _g_INSFLG	=	0xfca8
                         0000FCA9  3871 _g_CSRSW	=	0xfca9
                         0000FCAA  3872 _g_CSTYLE	=	0xfcaa
                         0000FCAB  3873 _g_CAPST	=	0xfcab
                         0000FCAC  3874 _g_KANAST	=	0xfcac
                         0000FCAD  3875 _g_KANAMD	=	0xfcad
                         0000FCAE  3876 _g_FLBMEM	=	0xfcae
                         0000FCAF  3877 _g_SCRMOD	=	0xfcaf
                         0000FCB0  3878 _g_OLDSCR	=	0xfcb0
                         0000FCB1  3879 _g_CASPRV	=	0xfcb1
                         0000FCB2  3880 _g_BRDATR	=	0xfcb2
                         0000FCB3  3881 _g_GXPOS	=	0xfcb3
                         0000FCB5  3882 _g_GYPOS	=	0xfcb5
                         0000FCBB  3883 _g_DRWFLG	=	0xfcbb
                         0000FCBC  3884 _g_DRWSCL	=	0xfcbc
                         0000FCBD  3885 _g_DRWANG	=	0xfcbd
                         0000FCC1  3886 _g_MNROM	=	0xfcc1
                         0000FCC1  3887 _g_EXPTBL	=	0xfcc1
                         0000FCC5  3888 _g_SLTTBL	=	0xfcc5
                         0000FCC9  3889 _g_SLTATR	=	0xfcc9
                         0000FD09  3890 _g_SLTWRK	=	0xfd09
                         0000FD89  3891 _g_PROCNM	=	0xfd89
                         0000FFE7  3892 _g_RG08SAV	=	0xffe7
                         0000FFE8  3893 _g_RG09SAV	=	0xffe8
                         0000FFE9  3894 _g_RG10SAV	=	0xffe9
                         0000FFEA  3895 _g_RG11SAV	=	0xffea
                         0000FFEB  3896 _g_RG12SAV	=	0xffeb
                         0000FFEC  3897 _g_RG13SAV	=	0xffec
                         0000FFED  3898 _g_RG14SAV	=	0xffed
                         0000FFEE  3899 _g_RG15SAV	=	0xffee
                         0000FFEF  3900 _g_RG16SAV	=	0xffef
                         0000FFF0  3901 _g_RG17SAV	=	0xfff0
                         0000FFF1  3902 _g_RG18SAV	=	0xfff1
                         0000FFF2  3903 _g_RG19SAV	=	0xfff2
                         0000FFF3  3904 _g_RG20SAV	=	0xfff3
                         0000FFF4  3905 _g_RG21SAV	=	0xfff4
                         0000FFF5  3906 _g_RG22SAV	=	0xfff5
                         0000FFF6  3907 _g_RG23SAV	=	0xfff6
                         0000FFF7  3908 _g_MINROM	=	0xfff7
                         0000FFF8  3909 _g_SVFFF8	=	0xfff8
                         0000FFFA  3910 _g_RG25SAV	=	0xfffa
                         0000FFFB  3911 _g_RG26SAV	=	0xfffb
                         0000FFFC  3912 _g_RG27SAV	=	0xfffc
                         0000FFFD  3913 _g_SVFFFD	=	0xfffd
                         00000004  3914 _g_CGTABL	=	0x0004
                         00000006  3915 _g_VDP_DR	=	0x0006
                         00000007  3916 _g_VDP_DW	=	0x0007
                         0000002B  3917 _g_BASRVN	=	0x002b
                         0000002B  3918 _g_ROMVersion	=	0x002b
                         0000002D  3919 _g_MSXVER	=	0x002d
                         0000002E  3920 _g_MSXMID	=	0x002e
                         00000034  3921 _g_CHAR_16	=	0x0034
                         00000000  3922 _g_SUBRID	=	0x0000
                         00000002  3923 _g_STRSRC	=	0x0002
                         0000F30F  3924 _g_KANJTABLE	=	0xf30f
                         0000F323  3925 _g_DISKVE	=	0xf323
                         0000F325  3926 _g_BREAKV	=	0xf325
                         0000F341  3927 _g_RAMAD0	=	0xf341
                         0000F342  3928 _g_RAMAD1	=	0xf342
                         0000F343  3929 _g_RAMAD2	=	0xf343
                         0000F344  3930 _g_RAMAD3	=	0xf344
                         0000F348  3931 _g_MASTER	=	0xf348
                         0000F37D  3932 _g_BDOS	=	0xf37d
                                   3933 	.area _SEG9
                                   3934 	.area _INITIALIZER
                                   3935 	.area _CABS (ABS)
