                                      1 ;--------------------------------------------------------
                                      2 ; File Created by SDCC : free open source ANSI-C Compiler
                                      3 ; Version 4.2.0 #13081 (MINGW64)
                                      4 ;--------------------------------------------------------
                                      5 	.module soccerlg_s15_b3
                                      6 	.optsdcc -mz80
                                      7 	
                                      8 ;--------------------------------------------------------
                                      9 ; Public variables in this module
                                     10 ;--------------------------------------------------------
                                     11 	.globl _GetPlayerIdleFrame
                                     12 	.globl _GetPlayerAnimFrame
                                     13 	.globl _ExecuteCornerKick
                                     14 	.globl _ExecuteThrowIn
                                     15 	.globl _EventBallKicked
                                     16 	.globl _SetBallSprite
                                     17 	.globl _CallFnc_U16_P4
                                     18 	.globl _CallFnc_U16_P3
                                     19 	.globl _CallFnc_VOID_U8U8
                                     20 	.globl _CallFnc_VOID_P1
                                     21 	.globl _CallFnc_VOID
                                     22 	.globl _g_SLTSL
                                     23 	.globl _g_GRPACY
                                     24 	.globl _g_GRPACX
                                     25 	.globl _g_LOGOPR
                                     26 	.globl _g_CMASK
                                     27 	.globl _g_CLOC
                                     28 	.globl _g_FNKSTR
                                     29 	.globl _g_ATRBYT
                                     30 	.globl _g_BDRCLR
                                     31 	.globl _g_BAKCLR
                                     32 	.globl _g_FORCLR
                                     33 	.globl _g_CSRX
                                     34 	.globl _g_CSRY
                                     35 	.globl _g_CLIKSW
                                     36 	.globl _g_MLTPAT
                                     37 	.globl _g_MLTATR
                                     38 	.globl _g_MLTCGP
                                     39 	.globl _g_MLTCOL
                                     40 	.globl _g_MLTNAM
                                     41 	.globl _g_GRPPAT
                                     42 	.globl _g_GRPATR
                                     43 	.globl _g_GRPCGP
                                     44 	.globl _g_GRPCOL
                                     45 	.globl _g_GRPNAM
                                     46 	.globl _g_T32PAT
                                     47 	.globl _g_T32ATR
                                     48 	.globl _g_T32CGP
                                     49 	.globl _g_T32COL
                                     50 	.globl _g_T32NAM
                                     51 	.globl _g_TXTPAT
                                     52 	.globl _g_TXTATR
                                     53 	.globl _g_TXTCGP
                                     54 	.globl _g_TXTCOL
                                     55 	.globl _g_TXTNAM
                                     56 	.globl _g_CLMLST
                                     57 	.globl _g_CRTCNT
                                     58 	.globl _g_LINLEN
                                     59 	.globl _g_LINL32
                                     60 	.globl _g_LINL40
                                     61 	.globl _g_BDOS
                                     62 	.globl _g_MASTER
                                     63 	.globl _g_RAMAD3
                                     64 	.globl _g_RAMAD2
                                     65 	.globl _g_RAMAD1
                                     66 	.globl _g_RAMAD0
                                     67 	.globl _g_BREAKV
                                     68 	.globl _g_DISKVE
                                     69 	.globl _g_KANJTABLE
                                     70 	.globl _g_STRSRC
                                     71 	.globl _g_SUBRID
                                     72 	.globl _g_CHAR_16
                                     73 	.globl _g_MSXMID
                                     74 	.globl _g_MSXVER
                                     75 	.globl _g_ROMVersion
                                     76 	.globl _g_BASRVN
                                     77 	.globl _g_VDP_DW
                                     78 	.globl _g_VDP_DR
                                     79 	.globl _g_CGTABL
                                     80 	.globl _g_SVFFFD
                                     81 	.globl _g_RG27SAV
                                     82 	.globl _g_RG26SAV
                                     83 	.globl _g_RG25SAV
                                     84 	.globl _g_SVFFF8
                                     85 	.globl _g_MINROM
                                     86 	.globl _g_RG23SAV
                                     87 	.globl _g_RG22SAV
                                     88 	.globl _g_RG21SAV
                                     89 	.globl _g_RG20SAV
                                     90 	.globl _g_RG19SAV
                                     91 	.globl _g_RG18SAV
                                     92 	.globl _g_RG17SAV
                                     93 	.globl _g_RG16SAV
                                     94 	.globl _g_RG15SAV
                                     95 	.globl _g_RG14SAV
                                     96 	.globl _g_RG13SAV
                                     97 	.globl _g_RG12SAV
                                     98 	.globl _g_RG11SAV
                                     99 	.globl _g_RG10SAV
                                    100 	.globl _g_RG09SAV
                                    101 	.globl _g_RG08SAV
                                    102 	.globl _g_PROCNM
                                    103 	.globl _g_SLTWRK
                                    104 	.globl _g_SLTATR
                                    105 	.globl _g_SLTTBL
                                    106 	.globl _g_EXPTBL
                                    107 	.globl _g_MNROM
                                    108 	.globl _g_DRWANG
                                    109 	.globl _g_DRWSCL
                                    110 	.globl _g_DRWFLG
                                    111 	.globl _g_GYPOS
                                    112 	.globl _g_GXPOS
                                    113 	.globl _g_BRDATR
                                    114 	.globl _g_CASPRV
                                    115 	.globl _g_OLDSCR
                                    116 	.globl _g_SCRMOD
                                    117 	.globl _g_FLBMEM
                                    118 	.globl _g_KANAMD
                                    119 	.globl _g_KANAST
                                    120 	.globl _g_CAPST
                                    121 	.globl _g_CSTYLE
                                    122 	.globl _g_CSRSW
                                    123 	.globl _g_INSFLG
                                    124 	.globl _g_ESCCNT
                                    125 	.globl _g_GRPHED
                                    126 	.globl _g_WINWID
                                    127 	.globl _g_LOWLIM
                                    128 	.globl _g_INTCNT
                                    129 	.globl _g_INTVAL
                                    130 	.globl _g_JIFFY
                                    131 	.globl _g_PADX
                                    132 	.globl _g_PADY
                                    133 	.globl _g_INTFLG
                                    134 	.globl _g_RTYCNT
                                    135 	.globl _g_TRPTBL
                                    136 	.globl _g_HIMEM
                                    137 	.globl _g_BOTTOM
                                    138 	.globl _g_PATWRK
                                    139 	.globl _g_LINWRK
                                    140 	.globl _g_KEYBUF
                                    141 	.globl _g_NEWKEY
                                    142 	.globl _g_OLDKEY
                                    143 	.globl _g_CLIKFL
                                    144 	.globl _g_ONGSBF
                                    145 	.globl _g_FNKFLG
                                    146 	.globl _g_FNKSWI
                                    147 	.globl _g_CODSAV
                                    148 	.globl _g_FSTPOS
                                    149 	.globl _g_LINTTB
                                    150 	.globl _g_BASROM
                                    151 	.globl _g_ENSTOP
                                    152 	.globl _g_VCBC
                                    153 	.globl _g_VCBB
                                    154 	.globl _g_VCBA
                                    155 	.globl _g_PLYCNT
                                    156 	.globl _g_MUSICF
                                    157 	.globl _g_QUEUEN
                                    158 	.globl _g_MCLPTR
                                    159 	.globl _g_MCLLEN
                                    160 	.globl _g_SAVVOL
                                    161 	.globl _g_VOICEN
                                    162 	.globl _g_SAVSP
                                    163 	.globl _g_PRSCNT
                                    164 	.globl _g_LSTMOD
                                    165 	.globl _g_LSTCOM
                                    166 	.globl _g_COMMSK
                                    167 	.globl _g_ESTBLS
                                    168 	.globl _g_FLAGS
                                    169 	.globl _g_ERRORS
                                    170 	.globl _g_DATCNT
                                    171 	.globl _g_DEVNUM
                                    172 	.globl _g_OLDINT
                                    173 	.globl _g_OLDSTT
                                    174 	.globl _g_MEXBIh
                                    175 	.globl _g_RSIQLN
                                    176 	.globl _g_RSFCB
                                    177 	.globl _g_TOCNT
                                    178 	.globl _g_RSTMP
                                    179 	.globl _g_YSAVE
                                    180 	.globl _g_XSAVE
                                    181 	.globl _g_NORUSE
                                    182 	.globl _g_MODE
                                    183 	.globl _g_ROMA
                                    184 	.globl _g_CHRCNT
                                    185 	.globl _g_EXBRSA
                                    186 	.globl _g_AVCSAV
                                    187 	.globl _g_ACPAGE
                                    188 	.globl _g_DPPAGE
                                    189 	.globl _g_RS2IQ
                                    190 	.globl _g_VOICCQ
                                    191 	.globl _g_VOICBQ
                                    192 	.globl _g_VOICAQ
                                    193 	.globl _g_QUEBAK
                                    194 	.globl _g_QUETAB
                                    195 	.globl _g_ASPCT2
                                    196 	.globl _g_ASPCT1
                                    197 	.globl _g_HEADER
                                    198 	.globl _g_HIGH
                                    199 	.globl _g_LOW
                                    200 	.globl _g_CS240
                                    201 	.globl _g_CS120
                                    202 	.globl _g_GETPNT
                                    203 	.globl _g_PUTPNT
                                    204 	.globl _g_REPCNT
                                    205 	.globl _g_SCNCNT
                                    206 	.globl _g_FRCNEW
                                    207 	.globl _g_QUEUES
                                    208 	.globl _g_MINUPD
                                    209 	.globl _g_MAXUPD
                                    210 	.globl _g_TRGFLG
                                    211 	.globl _g_STATFL
                                    212 	.globl _g_RG7SAV
                                    213 	.globl _g_RG6SAV
                                    214 	.globl _g_RG5SAV
                                    215 	.globl _g_RG4SAV
                                    216 	.globl _g_RG3SAV
                                    217 	.globl _g_RG2SAV
                                    218 	.globl _g_RG1SAV
                                    219 	.globl _g_RG0SAV
                                    220 	.globl _g_CNSDFG
                                    221 	.globl _g_USRTAB
                                    222 	.globl _g_CLPRIM
                                    223 	.globl _g_WRPRIM
                                    224 	.globl _g_RDPRIM
                                    225 	.globl _UpdateGameState_SetPieces
                                    226 	.globl _UpdateGameState_Penalties_End
                                    227 ;--------------------------------------------------------
                                    228 ; special function registers
                                    229 ;--------------------------------------------------------
                         000000A8   230 _g_PortPrimarySlot	=	0x00a8
                         000000A9   231 _g_PortReadKeyboard	=	0x00a9
                         000000AA   232 _g_PortAccessKeyboard	=	0x00aa
                         000000AB   233 _g_PortControl	=	0x00ab
                         00000098   234 _g_VDP_DataPort	=	0x0098
                         00000099   235 _g_VDP_RegPort	=	0x0099
                         00000099   236 _g_VDP_AddrPort	=	0x0099
                         00000099   237 _g_VDP_StatPort	=	0x0099
                         0000009A   238 _g_VDP_PalPort	=	0x009a
                         0000009B   239 _g_VDP_IRegPort	=	0x009b
                         000000A0   240 _g_PSG_RegPort	=	0x00a0
                         000000A1   241 _g_PSG_DataPort	=	0x00a1
                         000000A2   242 _g_PSG_StatPort	=	0x00a2
                         00000010   243 _g_PSG_Ext_RegPort	=	0x0010
                         00000011   244 _g_PSG_Ext_DataPort	=	0x0011
                         00000012   245 _g_PSG_Ext_StatPort	=	0x0012
                         0000007C   246 _g_MSXMusic_IndexPort	=	0x007c
                         0000007D   247 _g_MSXMusic_DataPort	=	0x007d
                         000000C0   248 _g_MSXAudio_IndexPort	=	0x00c0
                         000000C1   249 _g_MSXAudio_DataPort	=	0x00c1
                         000000C2   250 _g_MSXAudio_IndexPort2	=	0x00c2
                         000000C3   251 _g_MSXAudio_DataPort2	=	0x00c3
                         000000B4   252 _g_RTC_AddrPort	=	0x00b4
                         000000B5   253 _g_RTC_DataPort	=	0x00b5
                                    254 ;--------------------------------------------------------
                                    255 ; ram data
                                    256 ;--------------------------------------------------------
                                    257 	.area _DATA
                         0000F3AE   258 _g_LINL40	=	0xf3ae
                         0000F3AF   259 _g_LINL32	=	0xf3af
                         0000F3B0   260 _g_LINLEN	=	0xf3b0
                         0000F3B1   261 _g_CRTCNT	=	0xf3b1
                         0000F3B2   262 _g_CLMLST	=	0xf3b2
                         0000F3B3   263 _g_TXTNAM	=	0xf3b3
                         0000F3B5   264 _g_TXTCOL	=	0xf3b5
                         0000F3B7   265 _g_TXTCGP	=	0xf3b7
                         0000F3B9   266 _g_TXTATR	=	0xf3b9
                         0000F3BB   267 _g_TXTPAT	=	0xf3bb
                         0000F3BD   268 _g_T32NAM	=	0xf3bd
                         0000F3BF   269 _g_T32COL	=	0xf3bf
                         0000F3C1   270 _g_T32CGP	=	0xf3c1
                         0000F3C3   271 _g_T32ATR	=	0xf3c3
                         0000F3C5   272 _g_T32PAT	=	0xf3c5
                         0000F3C7   273 _g_GRPNAM	=	0xf3c7
                         0000F3C9   274 _g_GRPCOL	=	0xf3c9
                         0000F3CB   275 _g_GRPCGP	=	0xf3cb
                         0000F3CD   276 _g_GRPATR	=	0xf3cd
                         0000F3CF   277 _g_GRPPAT	=	0xf3cf
                         0000F3D1   278 _g_MLTNAM	=	0xf3d1
                         0000F3D3   279 _g_MLTCOL	=	0xf3d3
                         0000F3D5   280 _g_MLTCGP	=	0xf3d5
                         0000F3D7   281 _g_MLTATR	=	0xf3d7
                         0000F3D9   282 _g_MLTPAT	=	0xf3d9
                         0000F3DB   283 _g_CLIKSW	=	0xf3db
                         0000F3DC   284 _g_CSRY	=	0xf3dc
                         0000F3DD   285 _g_CSRX	=	0xf3dd
                         0000F3E9   286 _g_FORCLR	=	0xf3e9
                         0000F3EA   287 _g_BAKCLR	=	0xf3ea
                         0000F3EB   288 _g_BDRCLR	=	0xf3eb
                         0000F3F2   289 _g_ATRBYT	=	0xf3f2
                         0000F87F   290 _g_FNKSTR	=	0xf87f
                         0000F92A   291 _g_CLOC	=	0xf92a
                         0000F92C   292 _g_CMASK	=	0xf92c
                         0000FB02   293 _g_LOGOPR	=	0xfb02
                         0000FCB7   294 _g_GRPACX	=	0xfcb7
                         0000FCB9   295 _g_GRPACY	=	0xfcb9
                         0000FFFF   296 _g_SLTSL	=	0xffff
                                    297 ;--------------------------------------------------------
                                    298 ; ram data
                                    299 ;--------------------------------------------------------
                                    300 	.area _INITIALIZED
                                    301 ;--------------------------------------------------------
                                    302 ; absolute external ram data
                                    303 ;--------------------------------------------------------
                                    304 	.area _DABS (ABS)
                                    305 ;--------------------------------------------------------
                                    306 ; global & static initialisations
                                    307 ;--------------------------------------------------------
                                    308 	.area _HOME
                                    309 	.area _GSINIT
                                    310 	.area _GSFINAL
                                    311 	.area _GSINIT
                                    312 ;--------------------------------------------------------
                                    313 ; Home
                                    314 ;--------------------------------------------------------
                                    315 	.area _HOME
                                    316 	.area _HOME
                                    317 ;--------------------------------------------------------
                                    318 ; code
                                    319 ;--------------------------------------------------------
                                    320 	.area _SEG15
                                    321 ;E:\Dropbox\FAUSTO\SVILUPPI\MSX\CODE\C\MSXgl\projects\soccerlgMSX2/soccerlg_s15_b3.c:11: void UpdateGameState_SetPieces(u8* game_state, u8* wait_secs, u8* start_sec, u16 target_ly)
                                    322 ;	---------------------------------
                                    323 ; Function UpdateGameState_SetPieces
                                    324 ; ---------------------------------
    00000000                        325 _UpdateGameState_SetPieces::
    00000000 DD E5            [15]  326 	push	ix
    00000002 DD 21 00 00      [14]  327 	ld	ix,#0
    00000006 DD 39            [15]  328 	add	ix,sp
    00000008 FD 21 E5 FF      [14]  329 	ld	iy, #-27
    0000000C FD 39            [15]  330 	add	iy, sp
    0000000E FD F9            [10]  331 	ld	sp, iy
    00000010 DD 75 FE         [19]  332 	ld	-2 (ix), l
    00000013 DD 74 FF         [19]  333 	ld	-1 (ix), h
    00000016 DD 73 FC         [19]  334 	ld	-4 (ix), e
    00000019 DD 72 FD         [19]  335 	ld	-3 (ix), d
                                    336 ;E:\Dropbox\FAUSTO\SVILUPPI\MSX\CODE\C\MSXgl\projects\soccerlgMSX2/soccerlg_s15_b3.c:15: if (*game_state == 7) {
    0000001C DD 6E FE         [19]  337 	ld	l, -2 (ix)
    0000001F DD 66 FF         [19]  338 	ld	h, -1 (ix)
    00000022 7E               [ 7]  339 	ld	a, (hl)
    00000023 DD 77 FB         [19]  340 	ld	-5 (ix), a
    00000026 D6 07            [ 7]  341 	sub	a, #0x07
    00000028 C2r38r03         [10]  342 	jp	NZ,00190$
                                    343 ;E:\Dropbox\FAUSTO\SVILUPPI\MSX\CODE\C\MSXgl\projects\soccerlgMSX2/soccerlg_s15_b3.c:17: u8 throw_team = (g_thrower_id < 7) ? TEAM_1 : TEAM_2;
    0000002B 3Ar00r00         [13]  344 	ld	a, (_g_thrower_id+0)
    0000002E D6 07            [ 7]  345 	sub	a, #0x07
    00000030 30 0A            [12]  346 	jr	NC, 00194$
    00000032 AF               [ 4]  347 	xor	a, a
    00000033 DD 77 FA         [19]  348 	ld	-6 (ix), a
    00000036 DD 77 FB         [19]  349 	ld	-5 (ix), a
    00000039 C3r44r00         [10]  350 	jp	00195$
    0000003C                        351 00194$:
    0000003C DD 36 FA 01      [19]  352 	ld	-6 (ix), #0x01
    00000040 DD 36 FB 00      [19]  353 	ld	-5 (ix), #0
    00000044                        354 00195$:
    00000044 DD 7E FA         [19]  355 	ld	a, -6 (ix)
    00000047 DD 77 F7         [19]  356 	ld	-9 (ix), a
                                    357 ;E:\Dropbox\FAUSTO\SVILUPPI\MSX\CODE\C\MSXgl\projects\soccerlgMSX2/soccerlg_s15_b3.c:18: bool is_human = FALSE;
    0000004A DD 36 F8 00      [19]  358 	ld	-8 (ix), #0x00
                                    359 ;E:\Dropbox\FAUSTO\SVILUPPI\MSX\CODE\C\MSXgl\projects\soccerlgMSX2/soccerlg_s15_b3.c:21: if (throw_team == TEAM_2) { is_human = TRUE; joy_port = 0; }
    0000004E DD 7E F7         [19]  360 	ld	a, -9 (ix)
    00000051 3D               [ 4]  361 	dec	a
    00000052 20 07            [12]  362 	jr	NZ, 00105$
    00000054 DD 36 F8 01      [19]  363 	ld	-8 (ix), #0x01
    00000058 C3r6Br00         [10]  364 	jp	00106$
    0000005B                        365 00105$:
                                    366 ;E:\Dropbox\FAUSTO\SVILUPPI\MSX\CODE\C\MSXgl\projects\soccerlgMSX2/soccerlg_s15_b3.c:22: else if (throw_team == TEAM_1 && GameMode == GAMEMODE_P1_VS_P2) { is_human = TRUE; joy_port = 1; }
    0000005B DD 7E F7         [19]  367 	ld	a, -9 (ix)
    0000005E B7               [ 4]  368 	or	a, a
    0000005F 20 0A            [12]  369 	jr	NZ, 00106$
    00000061 3Ar00r00         [13]  370 	ld	a, (_GameMode+0)
    00000064 3D               [ 4]  371 	dec	a
    00000065 20 04            [12]  372 	jr	NZ, 00106$
    00000067 DD 36 F8 01      [19]  373 	ld	-8 (ix), #0x01
    0000006B                        374 00106$:
                                    375 ;E:\Dropbox\FAUSTO\SVILUPPI\MSX\CODE\C\MSXgl\projects\soccerlgMSX2/soccerlg_s15_b3.c:24: T1_Carrier = T2_Carrier = T1_Receiver = T2_Receiver = 0xFF; // Forza pulizia focus
    0000006B 21r00r00         [10]  376 	ld	hl, #_T2_Receiver
    0000006E 36 FF            [10]  377 	ld	(hl), #0xff
    00000070 21r00r00         [10]  378 	ld	hl, #_T1_Receiver
    00000073 36 FF            [10]  379 	ld	(hl), #0xff
    00000075 21r00r00         [10]  380 	ld	hl, #_T2_Carrier
    00000078 36 FF            [10]  381 	ld	(hl), #0xff
    0000007A FD 21r00r00      [14]  382 	ld	iy, #_T1_Carrier
    0000007E FD 36 00 FF      [19]  383 	ld	0 (iy), #0xff
                                    384 ;E:\Dropbox\FAUSTO\SVILUPPI\MSX\CODE\C\MSXgl\projects\soccerlgMSX2/soccerlg_s15_b3.c:26: if (*start_sec < Frms) { // Se Frms scala ciclicamente o wrap down
    00000082 DD 7E 04         [19]  385 	ld	a, 4 (ix)
    00000085 DD 77 F9         [19]  386 	ld	-7 (ix), a
    00000088 DD 7E 05         [19]  387 	ld	a, 5 (ix)
    0000008B DD 77 FA         [19]  388 	ld	-6 (ix), a
    0000008E DD 6E F9         [19]  389 	ld	l, -7 (ix)
    00000091 DD 66 FA         [19]  390 	ld	h, -6 (ix)
    00000094 4E               [ 7]  391 	ld	c, (hl)
    00000095 21r00r00         [10]  392 	ld	hl, #_Frms
    00000098 79               [ 4]  393 	ld	a, c
    00000099 96               [ 7]  394 	sub	a, (hl)
    0000009A 30 18            [12]  395 	jr	NC, 00110$
                                    396 ;E:\Dropbox\FAUSTO\SVILUPPI\MSX\CODE\C\MSXgl\projects\soccerlgMSX2/soccerlg_s15_b3.c:27: if (*wait_secs > 0) (*wait_secs)--; 
    0000009C DD 6E FC         [19]  397 	ld	l, -4 (ix)
    0000009F DD 66 FD         [19]  398 	ld	h, -3 (ix)
    000000A2 7E               [ 7]  399 	ld	a, (hl)
    000000A3 DD 77 FB         [19]  400 	ld	-5 (ix), a
    000000A6 B7               [ 4]  401 	or	a, a
    000000A7 28 0B            [12]  402 	jr	Z, 00110$
    000000A9 DD 7E FB         [19]  403 	ld	a, -5 (ix)
    000000AC 3D               [ 4]  404 	dec	a
    000000AD DD 6E FC         [19]  405 	ld	l, -4 (ix)
    000000B0 DD 66 FD         [19]  406 	ld	h, -3 (ix)
    000000B3 77               [ 7]  407 	ld	(hl), a
    000000B4                        408 00110$:
                                    409 ;E:\Dropbox\FAUSTO\SVILUPPI\MSX\CODE\C\MSXgl\projects\soccerlgMSX2/soccerlg_s15_b3.c:29: *start_sec = Frms;
    000000B4 DD 6E F9         [19]  410 	ld	l, -7 (ix)
    000000B7 DD 66 FA         [19]  411 	ld	h, -6 (ix)
    000000BA 3Ar00r00         [13]  412 	ld	a, (_Frms+0)
    000000BD 77               [ 7]  413 	ld	(hl), a
                                    414 ;E:\Dropbox\FAUSTO\SVILUPPI\MSX\CODE\C\MSXgl\projects\soccerlgMSX2/soccerlg_s15_b3.c:31: if (is_human) {
    000000BE DD 7E F8         [19]  415 	ld	a, -8 (ix)
    000000C1 B7               [ 4]  416 	or	a, a
    000000C2 CArEAr01         [10]  417 	jp	Z, 00132$
                                    418 ;E:\Dropbox\FAUSTO\SVILUPPI\MSX\CODE\C\MSXgl\projects\soccerlgMSX2/soccerlg_s15_b3.c:33: if (throw_team == TEAM_1) T1_Receiver = (g_selected_rec == 0) ? g_throw_rec_1 : g_throw_rec_2;
    000000C5 DD 7E F7         [19]  419 	ld	a, -9 (ix)
    000000C8 B7               [ 4]  420 	or	a, a
    000000C9 20 15            [12]  421 	jr	NZ, 00112$
    000000CB 3Ar00r00         [13]  422 	ld	a, (_g_selected_rec+0)
    000000CE B7               [ 4]  423 	or	a, a
    000000CF 20 06            [12]  424 	jr	NZ, 00196$
    000000D1 3Ar00r00         [13]  425 	ld	a, (_g_throw_rec_1+0)
    000000D4 C3rDAr00         [10]  426 	jp	00197$
    000000D7                        427 00196$:
    000000D7 3Ar00r00         [13]  428 	ld	a, (_g_throw_rec_2+0)
    000000DA                        429 00197$:
    000000DA 32r00r00         [13]  430 	ld	(_T1_Receiver+0), a
    000000DD C3rF2r00         [10]  431 	jp	00113$
    000000E0                        432 00112$:
                                    433 ;E:\Dropbox\FAUSTO\SVILUPPI\MSX\CODE\C\MSXgl\projects\soccerlgMSX2/soccerlg_s15_b3.c:34: else T2_Receiver = (g_selected_rec == 0) ? g_throw_rec_1 : g_throw_rec_2;
    000000E0 3Ar00r00         [13]  434 	ld	a, (_g_selected_rec+0)
    000000E3 B7               [ 4]  435 	or	a, a
    000000E4 20 06            [12]  436 	jr	NZ, 00198$
    000000E6 3Ar00r00         [13]  437 	ld	a, (_g_throw_rec_1+0)
    000000E9 C3rEFr00         [10]  438 	jp	00199$
    000000EC                        439 00198$:
    000000EC 3Ar00r00         [13]  440 	ld	a, (_g_throw_rec_2+0)
    000000EF                        441 00199$:
    000000EF 32r00r00         [13]  442 	ld	(_T2_Receiver+0), a
    000000F2                        443 00113$:
                                    444 ;E:\Dropbox\FAUSTO\SVILUPPI\MSX\CODE\C\MSXgl\projects\soccerlgMSX2/soccerlg_s15_b3.c:37: u8 dir = g_player_input[throw_team].direction;
    000000F2 DD 4E F7         [19]  445 	ld	c, -9 (ix)
    000000F5 06 00            [ 7]  446 	ld	b, #0x00
    000000F7 69               [ 4]  447 	ld	l, c
    000000F8 60               [ 4]  448 	ld	h, b
    000000F9 29               [11]  449 	add	hl, hl
    000000FA 09               [11]  450 	add	hl, bc
    000000FB DD 75 FA         [19]  451 	ld	-6 (ix), l
    000000FE DD 74 FB         [19]  452 	ld	-5 (ix), h
    00000101 3Er00            [ 7]  453 	ld	a, #<(_g_player_input)
    00000103 DD 86 FA         [19]  454 	add	a, -6 (ix)
    00000106 DD 77 F8         [19]  455 	ld	-8 (ix), a
    00000109 3Es00            [ 7]  456 	ld	a, #>(_g_player_input)
    0000010B DD 8E FB         [19]  457 	adc	a, -5 (ix)
    0000010E DD 77 F9         [19]  458 	ld	-7 (ix), a
    00000111 DD 6E F8         [19]  459 	ld	l, -8 (ix)
    00000114 DD 66 F9         [19]  460 	ld	h, -7 (ix)
    00000117 7E               [ 7]  461 	ld	a, (hl)
    00000118 DD 77 FB         [19]  462 	ld	-5 (ix), a
                                    463 ;E:\Dropbox\FAUSTO\SVILUPPI\MSX\CODE\C\MSXgl\projects\soccerlgMSX2/soccerlg_s15_b3.c:38: if (dir != DIRECTION_NONE && g_last_input_dir == DIRECTION_NONE) g_selected_rec = 1 - g_selected_rec;
    0000011B B7               [ 4]  464 	or	a, a
    0000011C 28 11            [12]  465 	jr	Z, 00115$
    0000011E 3Ar00r00         [13]  466 	ld	a, (_g_last_input_dir+0)
    00000121 B7               [ 4]  467 	or	a, a
    00000122 20 0B            [12]  468 	jr	NZ, 00115$
    00000124 3Ar00r00         [13]  469 	ld	a, (_g_selected_rec+0)
    00000127 4F               [ 4]  470 	ld	c, a
    00000128 21r00r00         [10]  471 	ld	hl, #_g_selected_rec
    0000012B 3E 01            [ 7]  472 	ld	a, #0x01
    0000012D 91               [ 4]  473 	sub	a, c
    0000012E 77               [ 7]  474 	ld	(hl), a
    0000012F                        475 00115$:
                                    476 ;E:\Dropbox\FAUSTO\SVILUPPI\MSX\CODE\C\MSXgl\projects\soccerlgMSX2/soccerlg_s15_b3.c:39: g_last_input_dir = dir;
    0000012F DD 7E FB         [19]  477 	ld	a, -5 (ix)
    00000132 32r00r00         [13]  478 	ld	(_g_last_input_dir+0), a
                                    479 ;E:\Dropbox\FAUSTO\SVILUPPI\MSX\CODE\C\MSXgl\projects\soccerlgMSX2/soccerlg_s15_b3.c:41: bool do_throw = g_player_input[throw_team].trigger_pressed;
    00000135 DD 7E F8         [19]  480 	ld	a, -8 (ix)
    00000138 DD 77 FA         [19]  481 	ld	-6 (ix), a
    0000013B DD 7E F9         [19]  482 	ld	a, -7 (ix)
    0000013E DD 77 FB         [19]  483 	ld	-5 (ix), a
    00000141 DD 6E FA         [19]  484 	ld	l, -6 (ix)
    00000144 DD 66 FB         [19]  485 	ld	h, -5 (ix)
    00000147 23               [ 6]  486 	inc	hl
    00000148 7E               [ 7]  487 	ld	a, (hl)
    00000149 DD 77 FB         [19]  488 	ld	-5 (ix), a
                                    489 ;E:\Dropbox\FAUSTO\SVILUPPI\MSX\CODE\C\MSXgl\projects\soccerlgMSX2/soccerlg_s15_b3.c:43: if (*wait_secs == 0) do_throw = TRUE; // Lancio automatico scaduto il tempo
    0000014C DD 6E FC         [19]  490 	ld	l, -4 (ix)
    0000014F DD 66 FD         [19]  491 	ld	h, -3 (ix)
    00000152 7E               [ 7]  492 	ld	a, (hl)
    00000153 DD 77 FA         [19]  493 	ld	-6 (ix), a
    00000156 B7               [ 4]  494 	or	a, a
    00000157 20 04            [12]  495 	jr	NZ, 00118$
    00000159 DD 36 FB 01      [19]  496 	ld	-5 (ix), #0x01
    0000015D                        497 00118$:
                                    498 ;E:\Dropbox\FAUSTO\SVILUPPI\MSX\CODE\C\MSXgl\projects\soccerlgMSX2/soccerlg_s15_b3.c:45: if (do_throw) {
    0000015D DD 7E FB         [19]  499 	ld	a, -5 (ix)
    00000160 B7               [ 4]  500 	or	a, a
    00000161 CAr0Fr0A         [10]  501 	jp	Z, 00192$
                                    502 ;E:\Dropbox\FAUSTO\SVILUPPI\MSX\CODE\C\MSXgl\projects\soccerlgMSX2/soccerlg_s15_b3.c:46: if (RestartType == RESTART_THROWIN) {
    00000164 3Ar00r00         [13]  503 	ld	a, (_RestartType+0)
    00000167 3D               [ 4]  504 	dec	a
    00000168 20 21            [12]  505 	jr	NZ, 00120$
                                    506 ;E:\Dropbox\FAUSTO\SVILUPPI\MSX\CODE\C\MSXgl\projects\soccerlgMSX2/soccerlg_s15_b3.c:47: CallFnc_VOID_U8U8(SEG_GAMESTATE_7, ExecuteThrowIn, g_thrower_id, (g_selected_rec == 0) ? g_throw_rec_1 : g_throw_rec_2);
    0000016A 3Ar00r00         [13]  507 	ld	a, (_g_selected_rec+0)
    0000016D B7               [ 4]  508 	or	a, a
    0000016E 20 06            [12]  509 	jr	NZ, 00200$
    00000170 3Ar00r00         [13]  510 	ld	a, (_g_throw_rec_1+0)
    00000173 C3r79r01         [10]  511 	jp	00201$
    00000176                        512 00200$:
    00000176 3Ar00r00         [13]  513 	ld	a, (_g_throw_rec_2+0)
    00000179                        514 00201$:
    00000179 F5               [11]  515 	push	af
    0000017A 33               [ 6]  516 	inc	sp
    0000017B 3Ar00r00         [13]  517 	ld	a, (_g_thrower_id+0)
    0000017E F5               [11]  518 	push	af
    0000017F 33               [ 6]  519 	inc	sp
    00000180 11r00r00         [10]  520 	ld	de, #_ExecuteThrowIn
    00000183 3E 11            [ 7]  521 	ld	a, #0x11
    00000185 CDr00r00         [17]  522 	call	_CallFnc_VOID_U8U8
    00000188 C3rA9r01         [10]  523 	jp	00121$
    0000018B                        524 00120$:
                                    525 ;E:\Dropbox\FAUSTO\SVILUPPI\MSX\CODE\C\MSXgl\projects\soccerlgMSX2/soccerlg_s15_b3.c:49: CallFnc_VOID_U8U8(SEG_GAMESTATE_7, ExecuteCornerKick, g_thrower_id, (g_selected_rec == 0) ? g_throw_rec_1 : g_throw_rec_2);
    0000018B 3Ar00r00         [13]  526 	ld	a, (_g_selected_rec+0)
    0000018E B7               [ 4]  527 	or	a, a
    0000018F 20 06            [12]  528 	jr	NZ, 00202$
    00000191 3Ar00r00         [13]  529 	ld	a, (_g_throw_rec_1+0)
    00000194 C3r9Ar01         [10]  530 	jp	00203$
    00000197                        531 00202$:
    00000197 3Ar00r00         [13]  532 	ld	a, (_g_throw_rec_2+0)
    0000019A                        533 00203$:
    0000019A F5               [11]  534 	push	af
    0000019B 33               [ 6]  535 	inc	sp
    0000019C 3Ar00r00         [13]  536 	ld	a, (_g_thrower_id+0)
    0000019F F5               [11]  537 	push	af
    000001A0 33               [ 6]  538 	inc	sp
    000001A1 11r00r00         [10]  539 	ld	de, #_ExecuteCornerKick
    000001A4 3E 11            [ 7]  540 	ld	a, #0x11
    000001A6 CDr00r00         [17]  541 	call	_CallFnc_VOID_U8U8
    000001A9                        542 00121$:
                                    543 ;E:\Dropbox\FAUSTO\SVILUPPI\MSX\CODE\C\MSXgl\projects\soccerlgMSX2/soccerlg_s15_b3.c:51: g_pass_max_frames = (g_pass_max_frames * 85) / 100; // Aumenta la velocità del 15%
    000001A9 3Ar00r00         [13]  544 	ld	a, (_g_pass_max_frames+0)
    000001AC DD 77 FA         [19]  545 	ld	-6 (ix), a
    000001AF DD 36 FB 00      [19]  546 	ld	-5 (ix), #0x00
    000001B3 4F               [ 4]  547 	ld	c, a
    000001B4 06 00            [ 7]  548 	ld	b, #0x00
    000001B6 69               [ 4]  549 	ld	l, c
    000001B7 60               [ 4]  550 	ld	h, b
    000001B8 29               [11]  551 	add	hl, hl
    000001B9 29               [11]  552 	add	hl, hl
    000001BA 09               [11]  553 	add	hl, bc
    000001BB 29               [11]  554 	add	hl, hl
    000001BC 29               [11]  555 	add	hl, hl
    000001BD 09               [11]  556 	add	hl, bc
    000001BE 29               [11]  557 	add	hl, hl
    000001BF 29               [11]  558 	add	hl, hl
    000001C0 09               [11]  559 	add	hl, bc
    000001C1 DD 75 FA         [19]  560 	ld	-6 (ix), l
    000001C4 DD 74 FB         [19]  561 	ld	-5 (ix), h
    000001C7 11 64 00         [10]  562 	ld	de, #0x0064
    000001CA DD 6E FA         [19]  563 	ld	l, -6 (ix)
                                    564 ;	spillPairReg hl
                                    565 ;	spillPairReg hl
    000001CD DD 66 FB         [19]  566 	ld	h, -5 (ix)
                                    567 ;	spillPairReg hl
                                    568 ;	spillPairReg hl
    000001D0 CDr00r00         [17]  569 	call	__divsint
    000001D3 21r00r00         [10]  570 	ld	hl, #_g_pass_max_frames
    000001D6 73               [ 7]  571 	ld	(hl), e
                                    572 ;E:\Dropbox\FAUSTO\SVILUPPI\MSX\CODE\C\MSXgl\projects\soccerlgMSX2/soccerlg_s15_b3.c:52: *game_state = 3; TimerEnabled = TRUE;
    000001D7 DD 6E FE         [19]  573 	ld	l, -2 (ix)
    000001DA DD 66 FF         [19]  574 	ld	h, -1 (ix)
    000001DD 36 03            [10]  575 	ld	(hl), #0x03
    000001DF FD 21r00r00      [14]  576 	ld	iy, #_TimerEnabled
    000001E3 FD 36 00 01      [19]  577 	ld	0 (iy), #0x01
    000001E7 C3r0Fr0A         [10]  578 	jp	00192$
    000001EA                        579 00132$:
                                    580 ;E:\Dropbox\FAUSTO\SVILUPPI\MSX\CODE\C\MSXgl\projects\soccerlgMSX2/soccerlg_s15_b3.c:55: if (*wait_secs == 0) {
    000001EA DD 6E FC         [19]  581 	ld	l, -4 (ix)
    000001ED DD 66 FD         [19]  582 	ld	h, -3 (ix)
    000001F0 7E               [ 7]  583 	ld	a, (hl)
    000001F1 B7               [ 4]  584 	or	a, a
    000001F2 C2r0Fr0A         [10]  585 	jp	NZ, 00192$
                                    586 ;E:\Dropbox\FAUSTO\SVILUPPI\MSX\CODE\C\MSXgl\projects\soccerlgMSX2/soccerlg_s15_b3.c:56: u8 target = ((Frms % 2) == 0) ? g_throw_rec_1 : g_throw_rec_2;
    000001F5 21r00r00         [10]  587 	ld	hl, #_Frms
    000001F8 CB 46            [12]  588 	bit	0, (hl)
    000001FA 20 09            [12]  589 	jr	NZ, 00204$
    000001FC 3Ar00r00         [13]  590 	ld	a, (_g_throw_rec_1+0)
    000001FF DD 77 FB         [19]  591 	ld	-5 (ix), a
    00000202 C3r0Br02         [10]  592 	jp	00205$
    00000205                        593 00204$:
    00000205 3Ar00r00         [13]  594 	ld	a, (_g_throw_rec_2+0)
    00000208 DD 77 FB         [19]  595 	ld	-5 (ix), a
    0000020B                        596 00205$:
                                    597 ;E:\Dropbox\FAUSTO\SVILUPPI\MSX\CODE\C\MSXgl\projects\soccerlgMSX2/soccerlg_s15_b3.c:57: if (RestartType == RESTART_THROWIN) {
    0000020B 3Ar00r00         [13]  598 	ld	a, (_RestartType+0)
    0000020E 3D               [ 4]  599 	dec	a
    0000020F 20 15            [12]  600 	jr	NZ, 00127$
                                    601 ;E:\Dropbox\FAUSTO\SVILUPPI\MSX\CODE\C\MSXgl\projects\soccerlgMSX2/soccerlg_s15_b3.c:58: CallFnc_VOID_U8U8(SEG_GAMESTATE_7, ExecuteThrowIn, g_thrower_id, target);
    00000211 DD 7E FB         [19]  602 	ld	a, -5 (ix)
    00000214 F5               [11]  603 	push	af
    00000215 33               [ 6]  604 	inc	sp
    00000216 3Ar00r00         [13]  605 	ld	a, (_g_thrower_id+0)
    00000219 F5               [11]  606 	push	af
    0000021A 33               [ 6]  607 	inc	sp
    0000021B 11r00r00         [10]  608 	ld	de, #_ExecuteThrowIn
    0000021E 3E 11            [ 7]  609 	ld	a, #0x11
    00000220 CDr00r00         [17]  610 	call	_CallFnc_VOID_U8U8
    00000223 C3rF7r02         [10]  611 	jp	00128$
    00000226                        612 00127$:
                                    613 ;E:\Dropbox\FAUSTO\SVILUPPI\MSX\CODE\C\MSXgl\projects\soccerlgMSX2/soccerlg_s15_b3.c:61: u8 team_to_kick = (g_thrower_id < 7) ? TEAM_1 : TEAM_2;
    00000226 3Ar00r00         [13]  614 	ld	a, (_g_thrower_id+0)
    00000229 D6 07            [ 7]  615 	sub	a, #0x07
    0000022B 30 0A            [12]  616 	jr	NC, 00206$
    0000022D AF               [ 4]  617 	xor	a, a
    0000022E DD 77 FA         [19]  618 	ld	-6 (ix), a
    00000231 DD 77 FB         [19]  619 	ld	-5 (ix), a
    00000234 C3r3Fr02         [10]  620 	jp	00207$
    00000237                        621 00206$:
    00000237 DD 36 FA 01      [19]  622 	ld	-6 (ix), #0x01
    0000023B DD 36 FB 00      [19]  623 	ld	-5 (ix), #0
    0000023F                        624 00207$:
    0000023F DD 7E FA         [19]  625 	ld	a, -6 (ix)
                                    626 ;E:\Dropbox\FAUSTO\SVILUPPI\MSX\CODE\C\MSXgl\projects\soccerlgMSX2/soccerlg_s15_b3.c:62: u8 start_t = (team_to_kick == TEAM_1) ? 1 : 8;
    00000242 DD 77 FB         [19]  627 	ld	-5 (ix), a
    00000245 B7               [ 4]  628 	or	a, a
    00000246 20 0B            [12]  629 	jr	NZ, 00208$
    00000248 DD 36 FA 01      [19]  630 	ld	-6 (ix), #0x01
    0000024C DD 36 FB 00      [19]  631 	ld	-5 (ix), #0
    00000250 C3r5Br02         [10]  632 	jp	00209$
    00000253                        633 00208$:
    00000253 DD 36 FA 08      [19]  634 	ld	-6 (ix), #0x08
    00000257 DD 36 FB 00      [19]  635 	ld	-5 (ix), #0
    0000025B                        636 00209$:
    0000025B DD 7E FA         [19]  637 	ld	a, -6 (ix)
                                    638 ;E:\Dropbox\FAUSTO\SVILUPPI\MSX\CODE\C\MSXgl\projects\soccerlgMSX2/soccerlg_s15_b3.c:64: out_targets[0] = start_t;
    0000025E DD 77 FB         [19]  639 	ld	-5 (ix), a
    00000261 DD 77 E5         [19]  640 	ld	-27 (ix), a
                                    641 ;E:\Dropbox\FAUSTO\SVILUPPI\MSX\CODE\C\MSXgl\projects\soccerlgMSX2/soccerlg_s15_b3.c:65: out_targets[1] = start_t + 1;
    00000264 DD 7E FB         [19]  642 	ld	a, -5 (ix)
    00000267 3C               [ 4]  643 	inc	a
    00000268 DD 77 FA         [19]  644 	ld	-6 (ix), a
    0000026B DD 77 E6         [19]  645 	ld	-26 (ix), a
                                    646 ;E:\Dropbox\FAUSTO\SVILUPPI\MSX\CODE\C\MSXgl\projects\soccerlgMSX2/soccerlg_s15_b3.c:66: out_targets[2] = start_t + 4;
    0000026E DD 7E FB         [19]  647 	ld	a, -5 (ix)
    00000271 C6 04            [ 7]  648 	add	a, #0x04
    00000273 DD 77 FA         [19]  649 	ld	-6 (ix), a
    00000276 DD 77 E7         [19]  650 	ld	-25 (ix), a
                                    651 ;E:\Dropbox\FAUSTO\SVILUPPI\MSX\CODE\C\MSXgl\projects\soccerlgMSX2/soccerlg_s15_b3.c:67: out_targets[3] = start_t + 5;
    00000279 DD 7E FB         [19]  652 	ld	a, -5 (ix)
    0000027C C6 05            [ 7]  653 	add	a, #0x05
    0000027E DD 77 FB         [19]  654 	ld	-5 (ix), a
    00000281 DD 77 E8         [19]  655 	ld	-24 (ix), a
                                    656 ;E:\Dropbox\FAUSTO\SVILUPPI\MSX\CODE\C\MSXgl\projects\soccerlgMSX2/soccerlg_s15_b3.c:68: target = out_targets[Frms % 4];
    00000284 3Ar00r00         [13]  657 	ld	a, (_Frms+0)
    00000287 DD 77 F8         [19]  658 	ld	-8 (ix), a
    0000028A DD 36 F9 00      [19]  659 	ld	-7 (ix), #0x00
    0000028E DD 7E F8         [19]  660 	ld	a, -8 (ix)
    00000291 E6 03            [ 7]  661 	and	a, #0x03
    00000293 DD 77 F6         [19]  662 	ld	-10 (ix), a
    00000296 DD 36 F7 00      [19]  663 	ld	-9 (ix), #0x00
    0000029A 5F               [ 4]  664 	ld	e, a
    0000029B 16 00            [ 7]  665 	ld	d, #0x00
    0000029D 21 00 00         [10]  666 	ld	hl, #0
    000002A0 39               [11]  667 	add	hl, sp
    000002A1 19               [11]  668 	add	hl, de
    000002A2 DD 75 FA         [19]  669 	ld	-6 (ix), l
    000002A5 DD 74 FB         [19]  670 	ld	-5 (ix), h
    000002A8 7E               [ 7]  671 	ld	a, (hl)
    000002A9 DD 77 FB         [19]  672 	ld	-5 (ix), a
                                    673 ;E:\Dropbox\FAUSTO\SVILUPPI\MSX\CODE\C\MSXgl\projects\soccerlgMSX2/soccerlg_s15_b3.c:69: if (target == g_thrower_id) target = out_targets[(Frms + 1) % 4];
    000002AC 3Ar00r00         [13]  674 	ld	a, (_g_thrower_id+0)
    000002AF DD 96 FB         [19]  675 	sub	a, -5 (ix)
    000002B2 20 31            [12]  676 	jr	NZ, 00125$
    000002B4 DD 7E F8         [19]  677 	ld	a, -8 (ix)
    000002B7 C6 01            [ 7]  678 	add	a, #0x01
    000002B9 DD 77 FA         [19]  679 	ld	-6 (ix), a
    000002BC DD 7E F9         [19]  680 	ld	a, -7 (ix)
    000002BF CE 00            [ 7]  681 	adc	a, #0x00
    000002C1 DD 77 FB         [19]  682 	ld	-5 (ix), a
    000002C4 11 04 00         [10]  683 	ld	de, #0x0004
    000002C7 DD 6E FA         [19]  684 	ld	l, -6 (ix)
                                    685 ;	spillPairReg hl
                                    686 ;	spillPairReg hl
    000002CA DD 66 FB         [19]  687 	ld	h, -5 (ix)
                                    688 ;	spillPairReg hl
                                    689 ;	spillPairReg hl
    000002CD CDr00r00         [17]  690 	call	__modsint
    000002D0 DD 73 F8         [19]  691 	ld	-8 (ix), e
    000002D3 DD 72 F9         [19]  692 	ld	-7 (ix), d
    000002D6 21 00 00         [10]  693 	ld	hl, #0
    000002D9 39               [11]  694 	add	hl, sp
    000002DA 19               [11]  695 	add	hl, de
    000002DB DD 75 FA         [19]  696 	ld	-6 (ix), l
    000002DE DD 74 FB         [19]  697 	ld	-5 (ix), h
    000002E1 7E               [ 7]  698 	ld	a, (hl)
    000002E2 DD 77 FB         [19]  699 	ld	-5 (ix), a
    000002E5                        700 00125$:
                                    701 ;E:\Dropbox\FAUSTO\SVILUPPI\MSX\CODE\C\MSXgl\projects\soccerlgMSX2/soccerlg_s15_b3.c:71: CallFnc_VOID_U8U8(SEG_GAMESTATE_7, ExecuteCornerKick, g_thrower_id, target);
    000002E5 DD 7E FB         [19]  702 	ld	a, -5 (ix)
    000002E8 F5               [11]  703 	push	af
    000002E9 33               [ 6]  704 	inc	sp
    000002EA 3Ar00r00         [13]  705 	ld	a, (_g_thrower_id+0)
    000002ED F5               [11]  706 	push	af
    000002EE 33               [ 6]  707 	inc	sp
    000002EF 11r00r00         [10]  708 	ld	de, #_ExecuteCornerKick
    000002F2 3E 11            [ 7]  709 	ld	a, #0x11
    000002F4 CDr00r00         [17]  710 	call	_CallFnc_VOID_U8U8
    000002F7                        711 00128$:
                                    712 ;E:\Dropbox\FAUSTO\SVILUPPI\MSX\CODE\C\MSXgl\projects\soccerlgMSX2/soccerlg_s15_b3.c:73: g_pass_max_frames = (g_pass_max_frames * 85) / 100; // Aumenta la velocità del 15%
    000002F7 3Ar00r00         [13]  713 	ld	a, (_g_pass_max_frames+0)
    000002FA DD 77 FA         [19]  714 	ld	-6 (ix), a
    000002FD DD 36 FB 00      [19]  715 	ld	-5 (ix), #0x00
    00000301 4F               [ 4]  716 	ld	c, a
    00000302 06 00            [ 7]  717 	ld	b, #0x00
    00000304 69               [ 4]  718 	ld	l, c
    00000305 60               [ 4]  719 	ld	h, b
    00000306 29               [11]  720 	add	hl, hl
    00000307 29               [11]  721 	add	hl, hl
    00000308 09               [11]  722 	add	hl, bc
    00000309 29               [11]  723 	add	hl, hl
    0000030A 29               [11]  724 	add	hl, hl
    0000030B 09               [11]  725 	add	hl, bc
    0000030C 29               [11]  726 	add	hl, hl
    0000030D 29               [11]  727 	add	hl, hl
    0000030E 09               [11]  728 	add	hl, bc
    0000030F DD 75 FA         [19]  729 	ld	-6 (ix), l
    00000312 DD 74 FB         [19]  730 	ld	-5 (ix), h
    00000315 11 64 00         [10]  731 	ld	de, #0x0064
    00000318 DD 6E FA         [19]  732 	ld	l, -6 (ix)
                                    733 ;	spillPairReg hl
                                    734 ;	spillPairReg hl
    0000031B DD 66 FB         [19]  735 	ld	h, -5 (ix)
                                    736 ;	spillPairReg hl
                                    737 ;	spillPairReg hl
    0000031E CDr00r00         [17]  738 	call	__divsint
    00000321 21r00r00         [10]  739 	ld	hl, #_g_pass_max_frames
    00000324 73               [ 7]  740 	ld	(hl), e
                                    741 ;E:\Dropbox\FAUSTO\SVILUPPI\MSX\CODE\C\MSXgl\projects\soccerlgMSX2/soccerlg_s15_b3.c:74: *game_state = 3; TimerEnabled = TRUE;
    00000325 DD 6E FE         [19]  742 	ld	l, -2 (ix)
    00000328 DD 66 FF         [19]  743 	ld	h, -1 (ix)
    0000032B 36 03            [10]  744 	ld	(hl), #0x03
    0000032D FD 21r00r00      [14]  745 	ld	iy, #_TimerEnabled
    00000331 FD 36 00 01      [19]  746 	ld	0 (iy), #0x01
    00000335 C3r0Fr0A         [10]  747 	jp	00192$
    00000338                        748 00190$:
                                    749 ;E:\Dropbox\FAUSTO\SVILUPPI\MSX\CODE\C\MSXgl\projects\soccerlgMSX2/soccerlg_s15_b3.c:77: } else if (*game_state == 8) {
    00000338 DD 7E FB         [19]  750 	ld	a, -5 (ix)
    0000033B D6 08            [ 7]  751 	sub	a, #0x08
    0000033D C2r0Fr0A         [10]  752 	jp	NZ,00192$
                                    753 ;E:\Dropbox\FAUSTO\SVILUPPI\MSX\CODE\C\MSXgl\projects\soccerlgMSX2/soccerlg_s15_b3.c:79: T1_Carrier = T2_Carrier = T1_Receiver = T2_Receiver = 0xFF; // Forza pulizia focus
    00000340 21r00r00         [10]  754 	ld	hl, #_T2_Receiver
    00000343 36 FF            [10]  755 	ld	(hl), #0xff
    00000345 21r00r00         [10]  756 	ld	hl, #_T1_Receiver
    00000348 36 FF            [10]  757 	ld	(hl), #0xff
    0000034A 21r00r00         [10]  758 	ld	hl, #_T2_Carrier
    0000034D 36 FF            [10]  759 	ld	(hl), #0xff
    0000034F FD 21r00r00      [14]  760 	ld	iy, #_T1_Carrier
    00000353 FD 36 00 FF      [19]  761 	ld	0 (iy), #0xff
                                    762 ;E:\Dropbox\FAUSTO\SVILUPPI\MSX\CODE\C\MSXgl\projects\soccerlgMSX2/soccerlg_s15_b3.c:81: if (*start_sec < Frms) { // Se Frms scala ciclicamente o wrap down
    00000357 DD 5E 04         [19]  763 	ld	e, 4 (ix)
    0000035A DD 56 05         [19]  764 	ld	d, 5 (ix)
    0000035D 1A               [ 7]  765 	ld	a, (de)
    0000035E 21r00r00         [10]  766 	ld	hl, #_Frms
    00000361 96               [ 7]  767 	sub	a, (hl)
    00000362 30 12            [12]  768 	jr	NC, 00137$
                                    769 ;E:\Dropbox\FAUSTO\SVILUPPI\MSX\CODE\C\MSXgl\projects\soccerlgMSX2/soccerlg_s15_b3.c:82: if (*wait_secs > 0) (*wait_secs)--; 
    00000364 DD 6E FC         [19]  770 	ld	l, -4 (ix)
    00000367 DD 66 FD         [19]  771 	ld	h, -3 (ix)
    0000036A 7E               [ 7]  772 	ld	a, (hl)
    0000036B B7               [ 4]  773 	or	a, a
    0000036C 28 08            [12]  774 	jr	Z, 00137$
    0000036E 3D               [ 4]  775 	dec	a
    0000036F DD 6E FC         [19]  776 	ld	l, -4 (ix)
    00000372 DD 66 FD         [19]  777 	ld	h, -3 (ix)
    00000375 77               [ 7]  778 	ld	(hl), a
    00000376                        779 00137$:
                                    780 ;E:\Dropbox\FAUSTO\SVILUPPI\MSX\CODE\C\MSXgl\projects\soccerlgMSX2/soccerlg_s15_b3.c:84: *start_sec = Frms;
    00000376 3Ar00r00         [13]  781 	ld	a, (_Frms+0)
    00000379 12               [ 7]  782 	ld	(de), a
                                    783 ;E:\Dropbox\FAUSTO\SVILUPPI\MSX\CODE\C\MSXgl\projects\soccerlgMSX2/soccerlg_s15_b3.c:86: u8 gk = (RestartSideY < 256) ? 0 : 7;
    0000037A 2Ar00r00         [16]  784 	ld	hl, (_RestartSideY)
    0000037D DD 75 F7         [19]  785 	ld	-9 (ix), l
    00000380 DD 74 F8         [19]  786 	ld	-8 (ix), h
    00000383 7C               [ 4]  787 	ld	a, h
    00000384 D6 01            [ 7]  788 	sub	a, #0x01
    00000386 30 0A            [12]  789 	jr	NC, 00210$
    00000388 AF               [ 4]  790 	xor	a, a
    00000389 DD 77 FA         [19]  791 	ld	-6 (ix), a
    0000038C DD 77 FB         [19]  792 	ld	-5 (ix), a
    0000038F C3r9Ar03         [10]  793 	jp	00211$
    00000392                        794 00210$:
    00000392 DD 36 FA 07      [19]  795 	ld	-6 (ix), #0x07
    00000396 DD 36 FB 00      [19]  796 	ld	-5 (ix), #0
    0000039A                        797 00211$:
    0000039A DD 7E FA         [19]  798 	ld	a, -6 (ix)
                                    799 ;E:\Dropbox\FAUSTO\SVILUPPI\MSX\CODE\C\MSXgl\projects\soccerlgMSX2/soccerlg_s15_b3.c:87: struct ObjectInfo* GK = &SwSprite[gk];
    0000039D DD 77 E9         [19]  800 	ld	-23 (ix), a
    000003A0 4F               [ 4]  801 	ld	c, a
    000003A1 06 00            [ 7]  802 	ld	b, #0x00
    000003A3 69               [ 4]  803 	ld	l, c
    000003A4 60               [ 4]  804 	ld	h, b
    000003A5 29               [11]  805 	add	hl, hl
    000003A6 29               [11]  806 	add	hl, hl
    000003A7 09               [11]  807 	add	hl, bc
    000003A8 29               [11]  808 	add	hl, hl
    000003A9 09               [11]  809 	add	hl, bc
    000003AA 29               [11]  810 	add	hl, hl
    000003AB 09               [11]  811 	add	hl, bc
    000003AC DD 75 F5         [19]  812 	ld	-11 (ix), l
    000003AF DD 74 F6         [19]  813 	ld	-10 (ix), h
    000003B2 3Er00            [ 7]  814 	ld	a, #<(_SwSprite)
    000003B4 DD 86 F5         [19]  815 	add	a, -11 (ix)
    000003B7 DD 77 FA         [19]  816 	ld	-6 (ix), a
    000003BA 3Es00            [ 7]  817 	ld	a, #>(_SwSprite)
    000003BC DD 8E F6         [19]  818 	adc	a, -10 (ix)
    000003BF DD 77 FB         [19]  819 	ld	-5 (ix), a
    000003C2 DD 7E FA         [19]  820 	ld	a, -6 (ix)
    000003C5 DD 77 EA         [19]  821 	ld	-22 (ix), a
    000003C8 DD 7E FB         [19]  822 	ld	a, -5 (ix)
    000003CB DD 77 EB         [19]  823 	ld	-21 (ix), a
                                    824 ;E:\Dropbox\FAUSTO\SVILUPPI\MSX\CODE\C\MSXgl\projects\soccerlgMSX2/soccerlg_s15_b3.c:88: struct ObjectInfo* Ball = &SwSprite[14];
                                    825 ;E:\Dropbox\FAUSTO\SVILUPPI\MSX\CODE\C\MSXgl\projects\soccerlgMSX2/soccerlg_s15_b3.c:90: i8 dir_y = (gk == 0) ? 1 : -1;
    000003CE DD 7E E9         [19]  826 	ld	a, -23 (ix)
    000003D1 B7               [ 4]  827 	or	a, a
    000003D2 20 0B            [12]  828 	jr	NZ, 00212$
    000003D4 DD 36 FA 01      [19]  829 	ld	-6 (ix), #0x01
    000003D8 DD 36 FB 00      [19]  830 	ld	-5 (ix), #0
    000003DC C3rE7r03         [10]  831 	jp	00213$
    000003DF                        832 00212$:
    000003DF DD 36 FA FF      [19]  833 	ld	-6 (ix), #0xff
    000003E3 DD 36 FB FF      [19]  834 	ld	-5 (ix), #0xff
    000003E7                        835 00213$:
    000003E7 DD 7E FA         [19]  836 	ld	a, -6 (ix)
    000003EA DD 77 FB         [19]  837 	ld	-5 (ix), a
                                    838 ;E:\Dropbox\FAUSTO\SVILUPPI\MSX\CODE\C\MSXgl\projects\soccerlgMSX2/soccerlg_s15_b3.c:91: i8 dir_x = (RestartSideX < 128) ? 1 : -1;
    000003ED 3Ar00r00         [13]  839 	ld	a, (_RestartSideX+0)
    000003F0 D6 80            [ 7]  840 	sub	a, #0x80
    000003F2 30 0B            [12]  841 	jr	NC, 00214$
    000003F4 DD 36 F9 01      [19]  842 	ld	-7 (ix), #0x01
    000003F8 DD 36 FA 00      [19]  843 	ld	-6 (ix), #0
    000003FC C3r07r04         [10]  844 	jp	00215$
    000003FF                        845 00214$:
    000003FF DD 36 F9 FF      [19]  846 	ld	-7 (ix), #0xff
    00000403 DD 36 FA FF      [19]  847 	ld	-6 (ix), #0xff
    00000407                        848 00215$:
    00000407 DD 7E F9         [19]  849 	ld	a, -7 (ix)
    0000040A DD 77 FA         [19]  850 	ld	-6 (ix), a
                                    851 ;E:\Dropbox\FAUSTO\SVILUPPI\MSX\CODE\C\MSXgl\projects\soccerlgMSX2/soccerlg_s15_b3.c:93: u16 target_gk_x = (RestartType == RESTART_GKSAVE) ? RestartSideX : (Ball->lx - (dir_x * 6));
    0000040D 3Ar00r00         [13]  852 	ld	a, (_RestartType+0)
    00000410 D6 04            [ 7]  853 	sub	a, #0x04
    00000412 3E 01            [ 7]  854 	ld	a, #0x01
    00000414 28 01            [12]  855 	jr	Z, 00643$
    00000416 AF               [ 4]  856 	xor	a, a
    00000417                        857 00643$:
    00000417 DD 77 EC         [19]  858 	ld	-20 (ix), a
    0000041A B7               [ 4]  859 	or	a, a
    0000041B 28 0D            [12]  860 	jr	Z, 00216$
    0000041D 3Ar00r00         [13]  861 	ld	a, (_RestartSideX+0)
    00000420 DD 77 F9         [19]  862 	ld	-7 (ix), a
    00000423 DD 36 FA 00      [19]  863 	ld	-6 (ix), #0x00
    00000427 C3r65r04         [10]  864 	jp	00217$
    0000042A                        865 00216$:
    0000042A 3Ar42r01         [13]  866 	ld	a, (#(_SwSprite + 322) + 0)
    0000042D DD 77 F9         [19]  867 	ld	-7 (ix), a
    00000430 DD 77 F3         [19]  868 	ld	-13 (ix), a
    00000433 DD 36 F4 00      [19]  869 	ld	-12 (ix), #0x00
    00000437 DD 7E FA         [19]  870 	ld	a, -6 (ix)
    0000043A DD 77 F9         [19]  871 	ld	-7 (ix), a
    0000043D 07               [ 4]  872 	rlca
    0000043E 9F               [ 4]  873 	sbc	a, a
    0000043F DD 77 FA         [19]  874 	ld	-6 (ix), a
    00000442 DD 4E F9         [19]  875 	ld	c, -7 (ix)
    00000445 DD 46 FA         [19]  876 	ld	b, -6 (ix)
    00000448 69               [ 4]  877 	ld	l, c
    00000449 60               [ 4]  878 	ld	h, b
    0000044A 29               [11]  879 	add	hl, hl
    0000044B 09               [11]  880 	add	hl, bc
    0000044C 29               [11]  881 	add	hl, hl
    0000044D DD 75 F5         [19]  882 	ld	-11 (ix), l
    00000450 DD 74 F6         [19]  883 	ld	-10 (ix), h
    00000453 DD 7E F3         [19]  884 	ld	a, -13 (ix)
    00000456 DD 96 F5         [19]  885 	sub	a, -11 (ix)
    00000459 DD 77 F9         [19]  886 	ld	-7 (ix), a
    0000045C DD 7E F4         [19]  887 	ld	a, -12 (ix)
    0000045F DD 9E F6         [19]  888 	sbc	a, -10 (ix)
    00000462 DD 77 FA         [19]  889 	ld	-6 (ix), a
    00000465                        890 00217$:
    00000465 DD 7E F9         [19]  891 	ld	a, -7 (ix)
    00000468 DD 77 ED         [19]  892 	ld	-19 (ix), a
    0000046B DD 7E FA         [19]  893 	ld	a, -6 (ix)
    0000046E DD 77 EE         [19]  894 	ld	-18 (ix), a
                                    895 ;E:\Dropbox\FAUSTO\SVILUPPI\MSX\CODE\C\MSXgl\projects\soccerlgMSX2/soccerlg_s15_b3.c:94: u16 target_gk_y = (RestartType == RESTART_GKSAVE) ? RestartSideY : (Ball->ly - (dir_y * 8));
    00000471 DD 7E EC         [19]  896 	ld	a, -20 (ix)
    00000474 B7               [ 4]  897 	or	a, a
    00000475 28 0F            [12]  898 	jr	Z, 00218$
    00000477 DD 7E F7         [19]  899 	ld	a, -9 (ix)
    0000047A DD 77 FA         [19]  900 	ld	-6 (ix), a
    0000047D DD 7E F8         [19]  901 	ld	a, -8 (ix)
    00000480 DD 77 FB         [19]  902 	ld	-5 (ix), a
    00000483 C3rD3r04         [10]  903 	jp	00219$
    00000486                        904 00218$:
    00000486 21r46r01         [10]  905 	ld	hl, #(_SwSprite + 322) + 4
    00000489 7E               [ 7]  906 	ld	a, (hl)
    0000048A DD 77 F8         [19]  907 	ld	-8 (ix), a
    0000048D 23               [ 6]  908 	inc	hl
    0000048E 7E               [ 7]  909 	ld	a, (hl)
    0000048F DD 77 F9         [19]  910 	ld	-7 (ix), a
    00000492 DD 7E FB         [19]  911 	ld	a, -5 (ix)
    00000495 DD 77 FA         [19]  912 	ld	-6 (ix), a
    00000498 07               [ 4]  913 	rlca
    00000499 9F               [ 4]  914 	sbc	a, a
    0000049A DD 77 FB         [19]  915 	ld	-5 (ix), a
    0000049D 06 03            [ 7]  916 	ld	b, #0x03
    0000049F                        917 00644$:
    0000049F DD CB FA 26      [23]  918 	sla	-6 (ix)
    000004A3 DD CB FB 16      [23]  919 	rl	-5 (ix)
    000004A7 10 F6            [13]  920 	djnz	00644$
    000004A9 DD 7E F8         [19]  921 	ld	a, -8 (ix)
    000004AC DD 77 F6         [19]  922 	ld	-10 (ix), a
    000004AF DD 7E F9         [19]  923 	ld	a, -7 (ix)
    000004B2 DD 77 F7         [19]  924 	ld	-9 (ix), a
    000004B5 DD 7E FA         [19]  925 	ld	a, -6 (ix)
    000004B8 DD 77 F8         [19]  926 	ld	-8 (ix), a
    000004BB DD 7E FB         [19]  927 	ld	a, -5 (ix)
    000004BE DD 77 F9         [19]  928 	ld	-7 (ix), a
    000004C1 DD 7E F6         [19]  929 	ld	a, -10 (ix)
    000004C4 DD 96 F8         [19]  930 	sub	a, -8 (ix)
    000004C7 DD 77 FA         [19]  931 	ld	-6 (ix), a
    000004CA DD 7E F7         [19]  932 	ld	a, -9 (ix)
    000004CD DD 9E F9         [19]  933 	sbc	a, -7 (ix)
    000004D0 DD 77 FB         [19]  934 	ld	-5 (ix), a
    000004D3                        935 00219$:
    000004D3 DD 7E FA         [19]  936 	ld	a, -6 (ix)
    000004D6 DD 77 EF         [19]  937 	ld	-17 (ix), a
    000004D9 DD 7E FB         [19]  938 	ld	a, -5 (ix)
    000004DC DD 77 F0         [19]  939 	ld	-16 (ix), a
                                    940 ;E:\Dropbox\FAUSTO\SVILUPPI\MSX\CODE\C\MSXgl\projects\soccerlgMSX2/soccerlg_s15_b3.c:96: u8 team_to_kick = (gk == 0) ? TEAM_1 : TEAM_2;
    000004DF DD 7E E9         [19]  941 	ld	a, -23 (ix)
    000004E2 B7               [ 4]  942 	or	a,a
    000004E3 20 09            [12]  943 	jr	NZ, 00220$
    000004E5 DD 77 FA         [19]  944 	ld	-6 (ix), a
    000004E8 DD 77 FB         [19]  945 	ld	-5 (ix), a
    000004EB C3rF6r04         [10]  946 	jp	00221$
    000004EE                        947 00220$:
    000004EE DD 36 FA 01      [19]  948 	ld	-6 (ix), #0x01
    000004F2 DD 36 FB 00      [19]  949 	ld	-5 (ix), #0
    000004F6                        950 00221$:
    000004F6 DD 7E FA         [19]  951 	ld	a, -6 (ix)
    000004F9 DD 77 FB         [19]  952 	ld	-5 (ix), a
                                    953 ;E:\Dropbox\FAUSTO\SVILUPPI\MSX\CODE\C\MSXgl\projects\soccerlgMSX2/soccerlg_s15_b3.c:97: bool is_human = FALSE;
    000004FC DD 36 F1 00      [19]  954 	ld	-15 (ix), #0x00
                                    955 ;E:\Dropbox\FAUSTO\SVILUPPI\MSX\CODE\C\MSXgl\projects\soccerlgMSX2/soccerlg_s15_b3.c:100: if (team_to_kick == TEAM_2) { is_human = TRUE; joy_port = 0; }
    00000500 DD 7E FB         [19]  956 	ld	a, -5 (ix)
    00000503 3D               [ 4]  957 	dec	a
    00000504 20 07            [12]  958 	jr	NZ, 00142$
    00000506 DD 36 F1 01      [19]  959 	ld	-15 (ix), #0x01
    0000050A C3r1Dr05         [10]  960 	jp	00143$
    0000050D                        961 00142$:
                                    962 ;E:\Dropbox\FAUSTO\SVILUPPI\MSX\CODE\C\MSXgl\projects\soccerlgMSX2/soccerlg_s15_b3.c:101: else if (team_to_kick == TEAM_1 && GameMode == GAMEMODE_P1_VS_P2) { is_human = TRUE; joy_port = 1; }
    0000050D DD 7E FB         [19]  963 	ld	a, -5 (ix)
    00000510 B7               [ 4]  964 	or	a, a
    00000511 20 0A            [12]  965 	jr	NZ, 00143$
    00000513 3Ar00r00         [13]  966 	ld	a, (_GameMode+0)
    00000516 3D               [ 4]  967 	dec	a
    00000517 20 04            [12]  968 	jr	NZ, 00143$
    00000519 DD 36 F1 01      [19]  969 	ld	-15 (ix), #0x01
    0000051D                        970 00143$:
                                    971 ;E:\Dropbox\FAUSTO\SVILUPPI\MSX\CODE\C\MSXgl\projects\soccerlgMSX2/soccerlg_s15_b3.c:103: if (*wait_secs == 0) {
    0000051D DD 6E FC         [19]  972 	ld	l, -4 (ix)
    00000520 DD 66 FD         [19]  973 	ld	h, -3 (ix)
    00000523 7E               [ 7]  974 	ld	a, (hl)
    00000524 B7               [ 4]  975 	or	a, a
    00000525 C2r7Dr09         [10]  976 	jp	NZ, 00185$
                                    977 ;E:\Dropbox\FAUSTO\SVILUPPI\MSX\CODE\C\MSXgl\projects\soccerlgMSX2/soccerlg_s15_b3.c:105: if (GK->ly != target_gk_y || GK->lx != target_gk_x) {
    00000528 DD 7E EA         [19]  978 	ld	a, -22 (ix)
    0000052B C6 04            [ 7]  979 	add	a, #0x04
    0000052D DD 77 F2         [19]  980 	ld	-14 (ix), a
    00000530 DD 7E EB         [19]  981 	ld	a, -21 (ix)
    00000533 CE 00            [ 7]  982 	adc	a, #0x00
    00000535 DD 77 F3         [19]  983 	ld	-13 (ix), a
    00000538 DD 6E F2         [19]  984 	ld	l, -14 (ix)
    0000053B DD 66 F3         [19]  985 	ld	h, -13 (ix)
    0000053E 7E               [ 7]  986 	ld	a, (hl)
    0000053F DD 77 F4         [19]  987 	ld	-12 (ix), a
    00000542 23               [ 6]  988 	inc	hl
    00000543 7E               [ 7]  989 	ld	a, (hl)
    00000544 DD 77 F5         [19]  990 	ld	-11 (ix), a
    00000547 DD 7E EF         [19]  991 	ld	a, -17 (ix)
    0000054A DD 96 F4         [19]  992 	sub	a, -12 (ix)
    0000054D 20 0A            [12]  993 	jr	NZ, 00649$
    0000054F DD 7E F0         [19]  994 	ld	a, -16 (ix)
    00000552 DD 96 F5         [19]  995 	sub	a, -11 (ix)
    00000555 3E 01            [ 7]  996 	ld	a, #0x01
    00000557 28 01            [12]  997 	jr	Z, 00650$
    00000559                        998 00649$:
    00000559 AF               [ 4]  999 	xor	a, a
    0000055A                       1000 00650$:
    0000055A DD 77 F6         [19] 1001 	ld	-10 (ix), a
                                   1002 ;E:\Dropbox\FAUSTO\SVILUPPI\MSX\CODE\C\MSXgl\projects\soccerlgMSX2/soccerlg_s15_b3.c:125: GK->frame = (gk == 0) ? (((GK->anim / 6) % 2 == 0) ? SPR_GK_PLAYER_SOUTH_1 : SPR_GK_PLAYER_SOUTH_2) :
    0000055D DD 7E EA         [19] 1003 	ld	a, -22 (ix)
    00000560 C6 0F            [ 7] 1004 	add	a, #0x0f
    00000562 DD 77 F7         [19] 1005 	ld	-9 (ix), a
    00000565 DD 7E EB         [19] 1006 	ld	a, -21 (ix)
    00000568 CE 00            [ 7] 1007 	adc	a, #0x00
    0000056A DD 77 F8         [19] 1008 	ld	-8 (ix), a
                                   1009 ;E:\Dropbox\FAUSTO\SVILUPPI\MSX\CODE\C\MSXgl\projects\soccerlgMSX2/soccerlg_s15_b3.c:105: if (GK->ly != target_gk_y || GK->lx != target_gk_x) {
    0000056D DD CB F6 46      [20] 1010 	bit	0, -10 (ix)
    00000571 28 22            [12] 1011 	jr	Z, 00168$
    00000573 DD 6E EA         [19] 1012 	ld	l, -22 (ix)
    00000576 DD 66 EB         [19] 1013 	ld	h, -21 (ix)
    00000579 7E               [ 7] 1014 	ld	a, (hl)
    0000057A DD 77 F9         [19] 1015 	ld	-7 (ix), a
    0000057D DD 77 FA         [19] 1016 	ld	-6 (ix), a
    00000580 DD 36 FB 00      [19] 1017 	ld	-5 (ix), #0x00
    00000584 DD 7E ED         [19] 1018 	ld	a, -19 (ix)
    00000587 DD 96 FA         [19] 1019 	sub	a, -6 (ix)
    0000058A 20 09            [12] 1020 	jr	NZ, 00651$
    0000058C DD 7E EE         [19] 1021 	ld	a, -18 (ix)
    0000058F DD 96 FB         [19] 1022 	sub	a, -5 (ix)
    00000592 CArC7r07         [10] 1023 	jp	Z,00169$
    00000595                       1024 00651$:
    00000595                       1025 00168$:
                                   1026 ;E:\Dropbox\FAUSTO\SVILUPPI\MSX\CODE\C\MSXgl\projects\soccerlgMSX2/soccerlg_s15_b3.c:107: GK->dy = (Ball->ly > GK->ly) ? 2 : -2;
    00000595 DD 7E EA         [19] 1027 	ld	a, -22 (ix)
    00000598 C6 12            [ 7] 1028 	add	a, #0x12
    0000059A DD 77 FA         [19] 1029 	ld	-6 (ix), a
    0000059D DD 7E EB         [19] 1030 	ld	a, -21 (ix)
    000005A0 CE 00            [ 7] 1031 	adc	a, #0x00
    000005A2 DD 77 FB         [19] 1032 	ld	-5 (ix), a
                                   1033 ;E:\Dropbox\FAUSTO\SVILUPPI\MSX\CODE\C\MSXgl\projects\soccerlgMSX2/soccerlg_s15_b3.c:106: if (GK->ly != target_gk_y) {
    000005A5 DD CB F6 46      [20] 1034 	bit	0, -10 (ix)
    000005A9 C2r79r06         [10] 1035 	jp	NZ, 00151$
                                   1036 ;E:\Dropbox\FAUSTO\SVILUPPI\MSX\CODE\C\MSXgl\projects\soccerlgMSX2/soccerlg_s15_b3.c:107: GK->dy = (Ball->ly > GK->ly) ? 2 : -2;
    000005AC 2Ar46r01         [16] 1037 	ld	hl, (#(_SwSprite + 322) + 4)
    000005AF DD 7E F4         [19] 1038 	ld	a, -12 (ix)
    000005B2 95               [ 4] 1039 	sub	a, l
    000005B3 DD 7E F5         [19] 1040 	ld	a, -11 (ix)
    000005B6 9C               [ 4] 1041 	sbc	a, h
    000005B7 30 06            [12] 1042 	jr	NC, 00222$
    000005B9 01 02 00         [10] 1043 	ld	bc, #0x0002
    000005BC C3rC2r05         [10] 1044 	jp	00223$
    000005BF                       1045 00222$:
    000005BF 01 FE FF         [10] 1046 	ld	bc, #0xfffe
    000005C2                       1047 00223$:
    000005C2 DD 6E FA         [19] 1048 	ld	l, -6 (ix)
    000005C5 DD 66 FB         [19] 1049 	ld	h, -5 (ix)
    000005C8 71               [ 7] 1050 	ld	(hl), c
                                   1051 ;E:\Dropbox\FAUSTO\SVILUPPI\MSX\CODE\C\MSXgl\projects\soccerlgMSX2/soccerlg_s15_b3.c:108: if (target_gk_y > GK->ly && GK->ly + GK->dy > target_gk_y) GK->dy = target_gk_y - GK->ly;
    000005C9 DD 6E F2         [19] 1052 	ld	l, -14 (ix)
    000005CC DD 66 F3         [19] 1053 	ld	h, -13 (ix)
    000005CF 7E               [ 7] 1054 	ld	a, (hl)
    000005D0 DD 77 F5         [19] 1055 	ld	-11 (ix), a
    000005D3 23               [ 6] 1056 	inc	hl
    000005D4 7E               [ 7] 1057 	ld	a, (hl)
    000005D5 DD 77 F6         [19] 1058 	ld	-10 (ix), a
    000005D8 DD 7E F5         [19] 1059 	ld	a, -11 (ix)
    000005DB DD 96 EF         [19] 1060 	sub	a, -17 (ix)
    000005DE DD 7E F6         [19] 1061 	ld	a, -10 (ix)
    000005E1 DD 9E F0         [19] 1062 	sbc	a, -16 (ix)
    000005E4 30 2A            [12] 1063 	jr	NC, 00145$
    000005E6 DD 6E FA         [19] 1064 	ld	l, -6 (ix)
    000005E9 DD 66 FB         [19] 1065 	ld	h, -5 (ix)
    000005EC 7E               [ 7] 1066 	ld	a, (hl)
    000005ED 6F               [ 4] 1067 	ld	l, a
                                   1068 ;	spillPairReg hl
                                   1069 ;	spillPairReg hl
    000005EE 07               [ 4] 1070 	rlca
    000005EF 9F               [ 4] 1071 	sbc	a, a
    000005F0 67               [ 4] 1072 	ld	h, a
                                   1073 ;	spillPairReg hl
                                   1074 ;	spillPairReg hl
    000005F1 DD 4E F5         [19] 1075 	ld	c, -11 (ix)
    000005F4 DD 46 F6         [19] 1076 	ld	b, -10 (ix)
    000005F7 09               [11] 1077 	add	hl, bc
    000005F8 DD 7E EF         [19] 1078 	ld	a, -17 (ix)
    000005FB 95               [ 4] 1079 	sub	a, l
    000005FC DD 7E F0         [19] 1080 	ld	a, -16 (ix)
    000005FF 9C               [ 4] 1081 	sbc	a, h
    00000600 30 0E            [12] 1082 	jr	NC, 00145$
    00000602 DD 7E EF         [19] 1083 	ld	a, -17 (ix)
    00000605 DD 4E F5         [19] 1084 	ld	c, -11 (ix)
    00000608 91               [ 4] 1085 	sub	a, c
    00000609 DD 6E FA         [19] 1086 	ld	l, -6 (ix)
    0000060C DD 66 FB         [19] 1087 	ld	h, -5 (ix)
    0000060F 77               [ 7] 1088 	ld	(hl), a
    00000610                       1089 00145$:
                                   1090 ;E:\Dropbox\FAUSTO\SVILUPPI\MSX\CODE\C\MSXgl\projects\soccerlgMSX2/soccerlg_s15_b3.c:109: if (target_gk_y < GK->ly && GK->ly + GK->dy < target_gk_y) GK->dy = target_gk_y - GK->ly;
    00000610 DD 6E F2         [19] 1091 	ld	l, -14 (ix)
    00000613 DD 66 F3         [19] 1092 	ld	h, -13 (ix)
    00000616 7E               [ 7] 1093 	ld	a, (hl)
    00000617 DD 77 F5         [19] 1094 	ld	-11 (ix), a
    0000061A 23               [ 6] 1095 	inc	hl
    0000061B 7E               [ 7] 1096 	ld	a, (hl)
    0000061C DD 77 F6         [19] 1097 	ld	-10 (ix), a
    0000061F DD 7E EF         [19] 1098 	ld	a, -17 (ix)
    00000622 DD 96 F5         [19] 1099 	sub	a, -11 (ix)
    00000625 DD 7E F0         [19] 1100 	ld	a, -16 (ix)
    00000628 DD 9E F6         [19] 1101 	sbc	a, -10 (ix)
    0000062B 30 2A            [12] 1102 	jr	NC, 00148$
    0000062D DD 6E FA         [19] 1103 	ld	l, -6 (ix)
    00000630 DD 66 FB         [19] 1104 	ld	h, -5 (ix)
    00000633 7E               [ 7] 1105 	ld	a, (hl)
    00000634 6F               [ 4] 1106 	ld	l, a
                                   1107 ;	spillPairReg hl
                                   1108 ;	spillPairReg hl
    00000635 07               [ 4] 1109 	rlca
    00000636 9F               [ 4] 1110 	sbc	a, a
    00000637 67               [ 4] 1111 	ld	h, a
                                   1112 ;	spillPairReg hl
                                   1113 ;	spillPairReg hl
    00000638 DD 4E F5         [19] 1114 	ld	c, -11 (ix)
    0000063B DD 46 F6         [19] 1115 	ld	b, -10 (ix)
    0000063E 09               [11] 1116 	add	hl, bc
    0000063F 7D               [ 4] 1117 	ld	a, l
    00000640 DD 96 EF         [19] 1118 	sub	a, -17 (ix)
    00000643 7C               [ 4] 1119 	ld	a, h
    00000644 DD 9E F0         [19] 1120 	sbc	a, -16 (ix)
    00000647 30 0E            [12] 1121 	jr	NC, 00148$
    00000649 DD 7E EF         [19] 1122 	ld	a, -17 (ix)
    0000064C DD 4E F5         [19] 1123 	ld	c, -11 (ix)
    0000064F 91               [ 4] 1124 	sub	a, c
    00000650 DD 6E FA         [19] 1125 	ld	l, -6 (ix)
    00000653 DD 66 FB         [19] 1126 	ld	h, -5 (ix)
    00000656 77               [ 7] 1127 	ld	(hl), a
    00000657                       1128 00148$:
                                   1129 ;E:\Dropbox\FAUSTO\SVILUPPI\MSX\CODE\C\MSXgl\projects\soccerlgMSX2/soccerlg_s15_b3.c:110: GK->ly += GK->dy;
    00000657 DD 6E F2         [19] 1130 	ld	l, -14 (ix)
    0000065A DD 66 F3         [19] 1131 	ld	h, -13 (ix)
    0000065D 4E               [ 7] 1132 	ld	c, (hl)
    0000065E 23               [ 6] 1133 	inc	hl
    0000065F 46               [ 7] 1134 	ld	b, (hl)
    00000660 DD 6E FA         [19] 1135 	ld	l, -6 (ix)
    00000663 DD 66 FB         [19] 1136 	ld	h, -5 (ix)
    00000666 7E               [ 7] 1137 	ld	a, (hl)
    00000667 6F               [ 4] 1138 	ld	l, a
                                   1139 ;	spillPairReg hl
                                   1140 ;	spillPairReg hl
    00000668 07               [ 4] 1141 	rlca
    00000669 9F               [ 4] 1142 	sbc	a, a
    0000066A 67               [ 4] 1143 	ld	h, a
                                   1144 ;	spillPairReg hl
                                   1145 ;	spillPairReg hl
    0000066B 09               [11] 1146 	add	hl, bc
    0000066C EB               [ 4] 1147 	ex	de, hl
    0000066D DD 6E F2         [19] 1148 	ld	l, -14 (ix)
    00000670 DD 66 F3         [19] 1149 	ld	h, -13 (ix)
    00000673 73               [ 7] 1150 	ld	(hl), e
    00000674 23               [ 6] 1151 	inc	hl
    00000675 72               [ 7] 1152 	ld	(hl), d
    00000676 C3r81r06         [10] 1153 	jp	00152$
    00000679                       1154 00151$:
                                   1155 ;E:\Dropbox\FAUSTO\SVILUPPI\MSX\CODE\C\MSXgl\projects\soccerlgMSX2/soccerlg_s15_b3.c:112: GK->dy = 0;
    00000679 DD 6E FA         [19] 1156 	ld	l, -6 (ix)
    0000067C DD 66 FB         [19] 1157 	ld	h, -5 (ix)
    0000067F 36 00            [10] 1158 	ld	(hl), #0x00
    00000681                       1159 00152$:
                                   1160 ;E:\Dropbox\FAUSTO\SVILUPPI\MSX\CODE\C\MSXgl\projects\soccerlgMSX2/soccerlg_s15_b3.c:115: if (GK->lx != target_gk_x) {
    00000681 DD 6E EA         [19] 1161 	ld	l, -22 (ix)
    00000684 DD 66 EB         [19] 1162 	ld	h, -21 (ix)
    00000687 7E               [ 7] 1163 	ld	a, (hl)
    00000688 DD 77 F9         [19] 1164 	ld	-7 (ix), a
    0000068B 4F               [ 4] 1165 	ld	c, a
    0000068C 06 00            [ 7] 1166 	ld	b, #0x00
                                   1167 ;E:\Dropbox\FAUSTO\SVILUPPI\MSX\CODE\C\MSXgl\projects\soccerlgMSX2/soccerlg_s15_b3.c:116: GK->dx = (Ball->lx > GK->lx) ? 2 : -2;
    0000068E DD 7E EA         [19] 1168 	ld	a, -22 (ix)
    00000691 C6 11            [ 7] 1169 	add	a, #0x11
    00000693 DD 77 FA         [19] 1170 	ld	-6 (ix), a
    00000696 DD 7E EB         [19] 1171 	ld	a, -21 (ix)
    00000699 CE 00            [ 7] 1172 	adc	a, #0x00
    0000069B DD 77 FB         [19] 1173 	ld	-5 (ix), a
                                   1174 ;E:\Dropbox\FAUSTO\SVILUPPI\MSX\CODE\C\MSXgl\projects\soccerlgMSX2/soccerlg_s15_b3.c:115: if (GK->lx != target_gk_x) {
    0000069E DD 6E ED         [19] 1175 	ld	l, -19 (ix)
    000006A1 DD 66 EE         [19] 1176 	ld	h, -18 (ix)
    000006A4 BF               [ 4] 1177 	cp	a, a
    000006A5 ED 42            [15] 1178 	sbc	hl, bc
    000006A7 CAr4Br07         [10] 1179 	jp	Z,00160$
                                   1180 ;E:\Dropbox\FAUSTO\SVILUPPI\MSX\CODE\C\MSXgl\projects\soccerlgMSX2/soccerlg_s15_b3.c:116: GK->dx = (Ball->lx > GK->lx) ? 2 : -2;
    000006AA 21r42r01         [10] 1181 	ld	hl, #(_SwSprite + 322)
    000006AD DD 7E F9         [19] 1182 	ld	a,-7 (ix)
    000006B0 96               [ 7] 1183 	sub	a,(hl)
    000006B1 30 06            [12] 1184 	jr	NC, 00224$
    000006B3 01 02 00         [10] 1185 	ld	bc, #0x0002
    000006B6 C3rBCr06         [10] 1186 	jp	00225$
    000006B9                       1187 00224$:
    000006B9 01 FE FF         [10] 1188 	ld	bc, #0xfffe
    000006BC                       1189 00225$:
    000006BC DD 6E FA         [19] 1190 	ld	l, -6 (ix)
    000006BF DD 66 FB         [19] 1191 	ld	h, -5 (ix)
    000006C2 71               [ 7] 1192 	ld	(hl), c
                                   1193 ;E:\Dropbox\FAUSTO\SVILUPPI\MSX\CODE\C\MSXgl\projects\soccerlgMSX2/soccerlg_s15_b3.c:117: if (target_gk_x > GK->lx && GK->lx + GK->dx > target_gk_x) GK->dx = target_gk_x - GK->lx;
    000006C3 DD 6E EA         [19] 1194 	ld	l, -22 (ix)
    000006C6 DD 66 EB         [19] 1195 	ld	h, -21 (ix)
    000006C9 4E               [ 7] 1196 	ld	c, (hl)
    000006CA 79               [ 4] 1197 	ld	a, c
    000006CB 1E 00            [ 7] 1198 	ld	e, #0x00
    000006CD DD 96 ED         [19] 1199 	sub	a, -19 (ix)
    000006D0 7B               [ 4] 1200 	ld	a, e
    000006D1 DD 9E EE         [19] 1201 	sbc	a, -18 (ix)
    000006D4 30 24            [12] 1202 	jr	NC, 00154$
    000006D6 59               [ 4] 1203 	ld	e, c
    000006D7 16 00            [ 7] 1204 	ld	d, #0x00
    000006D9 DD 6E FA         [19] 1205 	ld	l, -6 (ix)
    000006DC DD 66 FB         [19] 1206 	ld	h, -5 (ix)
    000006DF 7E               [ 7] 1207 	ld	a, (hl)
    000006E0 6F               [ 4] 1208 	ld	l, a
                                   1209 ;	spillPairReg hl
                                   1210 ;	spillPairReg hl
    000006E1 07               [ 4] 1211 	rlca
    000006E2 9F               [ 4] 1212 	sbc	a, a
    000006E3 67               [ 4] 1213 	ld	h, a
                                   1214 ;	spillPairReg hl
                                   1215 ;	spillPairReg hl
    000006E4 19               [11] 1216 	add	hl, de
    000006E5 DD 7E ED         [19] 1217 	ld	a, -19 (ix)
    000006E8 95               [ 4] 1218 	sub	a, l
    000006E9 DD 7E EE         [19] 1219 	ld	a, -18 (ix)
    000006EC 9C               [ 4] 1220 	sbc	a, h
    000006ED 30 0B            [12] 1221 	jr	NC, 00154$
    000006EF DD 7E ED         [19] 1222 	ld	a, -19 (ix)
    000006F2 91               [ 4] 1223 	sub	a, c
    000006F3 DD 6E FA         [19] 1224 	ld	l, -6 (ix)
    000006F6 DD 66 FB         [19] 1225 	ld	h, -5 (ix)
    000006F9 77               [ 7] 1226 	ld	(hl), a
    000006FA                       1227 00154$:
                                   1228 ;E:\Dropbox\FAUSTO\SVILUPPI\MSX\CODE\C\MSXgl\projects\soccerlgMSX2/soccerlg_s15_b3.c:118: if (target_gk_x < GK->lx && GK->lx + GK->dx < target_gk_x) GK->dx = target_gk_x - GK->lx;
    000006FA DD 6E EA         [19] 1229 	ld	l, -22 (ix)
    000006FD DD 66 EB         [19] 1230 	ld	h, -21 (ix)
    00000700 4E               [ 7] 1231 	ld	c, (hl)
    00000701 41               [ 4] 1232 	ld	b, c
    00000702 1E 00            [ 7] 1233 	ld	e, #0x00
    00000704 DD 7E ED         [19] 1234 	ld	a, -19 (ix)
    00000707 90               [ 4] 1235 	sub	a, b
    00000708 DD 7E EE         [19] 1236 	ld	a, -18 (ix)
    0000070B 9B               [ 4] 1237 	sbc	a, e
    0000070C 30 24            [12] 1238 	jr	NC, 00157$
    0000070E 59               [ 4] 1239 	ld	e, c
    0000070F 16 00            [ 7] 1240 	ld	d, #0x00
    00000711 DD 6E FA         [19] 1241 	ld	l, -6 (ix)
    00000714 DD 66 FB         [19] 1242 	ld	h, -5 (ix)
    00000717 7E               [ 7] 1243 	ld	a, (hl)
    00000718 6F               [ 4] 1244 	ld	l, a
                                   1245 ;	spillPairReg hl
                                   1246 ;	spillPairReg hl
    00000719 07               [ 4] 1247 	rlca
    0000071A 9F               [ 4] 1248 	sbc	a, a
    0000071B 67               [ 4] 1249 	ld	h, a
                                   1250 ;	spillPairReg hl
                                   1251 ;	spillPairReg hl
    0000071C 19               [11] 1252 	add	hl, de
    0000071D 7D               [ 4] 1253 	ld	a, l
    0000071E DD 96 ED         [19] 1254 	sub	a, -19 (ix)
    00000721 7C               [ 4] 1255 	ld	a, h
    00000722 DD 9E EE         [19] 1256 	sbc	a, -18 (ix)
    00000725 30 0B            [12] 1257 	jr	NC, 00157$
    00000727 DD 7E ED         [19] 1258 	ld	a, -19 (ix)
    0000072A 91               [ 4] 1259 	sub	a, c
    0000072B DD 6E FA         [19] 1260 	ld	l, -6 (ix)
    0000072E DD 66 FB         [19] 1261 	ld	h, -5 (ix)
    00000731 77               [ 7] 1262 	ld	(hl), a
    00000732                       1263 00157$:
                                   1264 ;E:\Dropbox\FAUSTO\SVILUPPI\MSX\CODE\C\MSXgl\projects\soccerlgMSX2/soccerlg_s15_b3.c:119: GK->lx += GK->dx;
    00000732 DD 6E EA         [19] 1265 	ld	l, -22 (ix)
    00000735 DD 66 EB         [19] 1266 	ld	h, -21 (ix)
    00000738 4E               [ 7] 1267 	ld	c, (hl)
    00000739 DD 6E FA         [19] 1268 	ld	l, -6 (ix)
    0000073C DD 66 FB         [19] 1269 	ld	h, -5 (ix)
    0000073F 7E               [ 7] 1270 	ld	a, (hl)
    00000740 81               [ 4] 1271 	add	a, c
    00000741 DD 6E EA         [19] 1272 	ld	l, -22 (ix)
    00000744 DD 66 EB         [19] 1273 	ld	h, -21 (ix)
    00000747 77               [ 7] 1274 	ld	(hl), a
    00000748 C3r53r07         [10] 1275 	jp	00161$
    0000074B                       1276 00160$:
                                   1277 ;E:\Dropbox\FAUSTO\SVILUPPI\MSX\CODE\C\MSXgl\projects\soccerlgMSX2/soccerlg_s15_b3.c:121: GK->dx = 0;
    0000074B DD 6E FA         [19] 1278 	ld	l, -6 (ix)
    0000074E DD 66 FB         [19] 1279 	ld	h, -5 (ix)
    00000751 36 00            [10] 1280 	ld	(hl), #0x00
    00000753                       1281 00161$:
                                   1282 ;E:\Dropbox\FAUSTO\SVILUPPI\MSX\CODE\C\MSXgl\projects\soccerlgMSX2/soccerlg_s15_b3.c:124: GK->anim++;
    00000753 DD 6E EA         [19] 1283 	ld	l, -22 (ix)
    00000756 DD 66 EB         [19] 1284 	ld	h, -21 (ix)
    00000759 11 13 00         [10] 1285 	ld	de, #0x0013
    0000075C 19               [11] 1286 	add	hl, de
    0000075D 5E               [ 7] 1287 	ld	e, (hl)
    0000075E 23               [ 6] 1288 	inc	hl
    0000075F 56               [ 7] 1289 	ld	d, (hl)
    00000760 2B               [ 6] 1290 	dec	hl
    00000761 13               [ 6] 1291 	inc	de
    00000762 73               [ 7] 1292 	ld	(hl), e
    00000763 23               [ 6] 1293 	inc	hl
    00000764 72               [ 7] 1294 	ld	(hl), d
                                   1295 ;E:\Dropbox\FAUSTO\SVILUPPI\MSX\CODE\C\MSXgl\projects\soccerlgMSX2/soccerlg_s15_b3.c:125: GK->frame = (gk == 0) ? (((GK->anim / 6) % 2 == 0) ? SPR_GK_PLAYER_SOUTH_1 : SPR_GK_PLAYER_SOUTH_2) :
    00000765 EB               [ 4] 1296 	ex	de, hl
    00000766 11 06 00         [10] 1297 	ld	de, #0x0006
    00000769 CDr00r00         [17] 1298 	call	__divuint
    0000076C 7B               [ 4] 1299 	ld	a, e
    0000076D E6 01            [ 7] 1300 	and	a, #0x01
    0000076F DD 77 FA         [19] 1301 	ld	-6 (ix), a
    00000772 DD 36 FB 00      [19] 1302 	ld	-5 (ix), #0x00
    00000776 DD 7E E9         [19] 1303 	ld	a, -23 (ix)
    00000779 B7               [ 4] 1304 	or	a, a
    0000077A 20 1E            [12] 1305 	jr	NZ, 00226$
    0000077C DD 7E FB         [19] 1306 	ld	a, -5 (ix)
    0000077F DD B6 FA         [19] 1307 	or	a, -6 (ix)
    00000782 20 0B            [12] 1308 	jr	NZ, 00228$
    00000784 DD 36 FA F3      [19] 1309 	ld	-6 (ix), #0xf3
    00000788 DD 36 FB 00      [19] 1310 	ld	-5 (ix), #0
    0000078C C3rB5r07         [10] 1311 	jp	00227$
    0000078F                       1312 00228$:
    0000078F DD 36 FA F4      [19] 1313 	ld	-6 (ix), #0xf4
    00000793 DD 36 FB 00      [19] 1314 	ld	-5 (ix), #0
    00000797 C3rB5r07         [10] 1315 	jp	00227$
    0000079A                       1316 00226$:
                                   1317 ;E:\Dropbox\FAUSTO\SVILUPPI\MSX\CODE\C\MSXgl\projects\soccerlgMSX2/soccerlg_s15_b3.c:126: (((GK->anim / 6) % 2 == 0) ? SPR_GK_PLAYER_NORTH_1 : SPR_GK_PLAYER_NORTH_2);
    0000079A DD 7E FB         [19] 1318 	ld	a, -5 (ix)
    0000079D DD B6 FA         [19] 1319 	or	a, -6 (ix)
    000007A0 20 0B            [12] 1320 	jr	NZ, 00230$
    000007A2 DD 36 FA F2      [19] 1321 	ld	-6 (ix), #0xf2
    000007A6 DD 36 FB 00      [19] 1322 	ld	-5 (ix), #0
    000007AA C3rB5r07         [10] 1323 	jp	00231$
    000007AD                       1324 00230$:
    000007AD DD 36 FA F5      [19] 1325 	ld	-6 (ix), #0xf5
    000007B1 DD 36 FB 00      [19] 1326 	ld	-5 (ix), #0
    000007B5                       1327 00231$:
    000007B5                       1328 00227$:
    000007B5 DD 4E FA         [19] 1329 	ld	c, -6 (ix)
    000007B8 DD 46 FB         [19] 1330 	ld	b, -5 (ix)
    000007BB DD 6E F7         [19] 1331 	ld	l, -9 (ix)
    000007BE DD 66 F8         [19] 1332 	ld	h, -8 (ix)
    000007C1 71               [ 7] 1333 	ld	(hl), c
    000007C2 23               [ 6] 1334 	inc	hl
    000007C3 70               [ 7] 1335 	ld	(hl), b
    000007C4 C3r0Fr0A         [10] 1336 	jp	00192$
    000007C7                       1337 00169$:
                                   1338 ;E:\Dropbox\FAUSTO\SVILUPPI\MSX\CODE\C\MSXgl\projects\soccerlgMSX2/soccerlg_s15_b3.c:129: u8 target = (g_selected_rec == 0) ? g_throw_rec_1 : g_throw_rec_2;
    000007C7 3Ar00r00         [13] 1339 	ld	a, (_g_selected_rec+0)
    000007CA B7               [ 4] 1340 	or	a, a
    000007CB 20 07            [12] 1341 	jr	NZ, 00232$
    000007CD 3Ar00r00         [13] 1342 	ld	a, (_g_throw_rec_1+0)
    000007D0 47               [ 4] 1343 	ld	b, a
    000007D1 C3rD8r07         [10] 1344 	jp	00233$
    000007D4                       1345 00232$:
    000007D4 3Ar00r00         [13] 1346 	ld	a, (_g_throw_rec_2+0)
    000007D7 47               [ 4] 1347 	ld	b, a
    000007D8                       1348 00233$:
    000007D8 DD 70 FB         [19] 1349 	ld	-5 (ix), b
                                   1350 ;E:\Dropbox\FAUSTO\SVILUPPI\MSX\CODE\C\MSXgl\projects\soccerlgMSX2/soccerlg_s15_b3.c:130: if (!is_human) target = ((Frms % 2) == 0) ? g_throw_rec_1 : g_throw_rec_2;
    000007DB DD 7E F1         [19] 1351 	ld	a, -15 (ix)
    000007DE B7               [ 4] 1352 	or	a, a
    000007DF 20 16            [12] 1353 	jr	NZ, 00163$
    000007E1 21r00r00         [10] 1354 	ld	hl, #_Frms
    000007E4 CB 46            [12] 1355 	bit	0, (hl)
    000007E6 20 09            [12] 1356 	jr	NZ, 00234$
    000007E8 3Ar00r00         [13] 1357 	ld	a, (_g_throw_rec_1+0)
    000007EB DD 77 FB         [19] 1358 	ld	-5 (ix), a
    000007EE C3rF7r07         [10] 1359 	jp	00235$
    000007F1                       1360 00234$:
    000007F1 3Ar00r00         [13] 1361 	ld	a, (_g_throw_rec_2+0)
    000007F4 DD 77 FB         [19] 1362 	ld	-5 (ix), a
    000007F7                       1363 00235$:
    000007F7                       1364 00163$:
                                   1365 ;E:\Dropbox\FAUSTO\SVILUPPI\MSX\CODE\C\MSXgl\projects\soccerlgMSX2/soccerlg_s15_b3.c:132: g_pass_start_x = (RestartType == RESTART_GKSAVE) ? GK->lx : Ball->lx;
    000007F7 DD 7E EC         [19] 1366 	ld	a, -20 (ix)
    000007FA B7               [ 4] 1367 	or	a, a
    000007FB 28 09            [12] 1368 	jr	Z, 00236$
    000007FD DD 7E F9         [19] 1369 	ld	a, -7 (ix)
    00000800 DD 77 FA         [19] 1370 	ld	-6 (ix), a
    00000803 C3r0Cr08         [10] 1371 	jp	00237$
    00000806                       1372 00236$:
    00000806 3Ar42r01         [13] 1373 	ld	a, (#(_SwSprite + 322) + 0)
    00000809 DD 77 FA         [19] 1374 	ld	-6 (ix), a
    0000080C                       1375 00237$:
    0000080C DD 7E FA         [19] 1376 	ld	a, -6 (ix)
    0000080F 32r00r00         [13] 1377 	ld	(_g_pass_start_x+0), a
    00000812 21r01r00         [10] 1378 	ld	hl, #_g_pass_start_x + 1
    00000815 36 00            [10] 1379 	ld	(hl), #0x00
                                   1380 ;E:\Dropbox\FAUSTO\SVILUPPI\MSX\CODE\C\MSXgl\projects\soccerlgMSX2/soccerlg_s15_b3.c:94: u16 target_gk_y = (RestartType == RESTART_GKSAVE) ? RestartSideY : (Ball->ly - (dir_y * 8));
                                   1381 ;E:\Dropbox\FAUSTO\SVILUPPI\MSX\CODE\C\MSXgl\projects\soccerlgMSX2/soccerlg_s15_b3.c:133: g_pass_start_y = (RestartType == RESTART_GKSAVE) ? GK->ly : Ball->ly;
    00000817 DD 7E EC         [19] 1382 	ld	a, -20 (ix)
    0000081A B7               [ 4] 1383 	or	a, a
    0000081B 28 0C            [12] 1384 	jr	Z, 00238$
    0000081D DD 6E F2         [19] 1385 	ld	l, -14 (ix)
    00000820 DD 66 F3         [19] 1386 	ld	h, -13 (ix)
    00000823 4E               [ 7] 1387 	ld	c, (hl)
    00000824 23               [ 6] 1388 	inc	hl
    00000825 46               [ 7] 1389 	ld	b, (hl)
    00000826 C3r2Dr08         [10] 1390 	jp	00239$
    00000829                       1391 00238$:
    00000829 ED 4Br46r01      [20] 1392 	ld	bc, (#(_SwSprite + 326) + 0)
    0000082D                       1393 00239$:
    0000082D ED 43r00r00      [20] 1394 	ld	(_g_pass_start_y), bc
                                   1395 ;E:\Dropbox\FAUSTO\SVILUPPI\MSX\CODE\C\MSXgl\projects\soccerlgMSX2/soccerlg_s15_b3.c:134: g_pass_target_x = SwSprite[target].lx;
    00000831 DD 4E FB         [19] 1396 	ld	c, -5 (ix)
    00000834 06 00            [ 7] 1397 	ld	b, #0x00
    00000836 69               [ 4] 1398 	ld	l, c
    00000837 60               [ 4] 1399 	ld	h, b
    00000838 29               [11] 1400 	add	hl, hl
    00000839 29               [11] 1401 	add	hl, hl
    0000083A 09               [11] 1402 	add	hl, bc
    0000083B 29               [11] 1403 	add	hl, hl
    0000083C 09               [11] 1404 	add	hl, bc
    0000083D 29               [11] 1405 	add	hl, hl
    0000083E 09               [11] 1406 	add	hl, bc
    0000083F EB               [ 4] 1407 	ex	de, hl
    00000840 21r00r00         [10] 1408 	ld	hl, #_SwSprite
    00000843 19               [11] 1409 	add	hl, de
    00000844 EB               [ 4] 1410 	ex	de, hl
    00000845 1A               [ 7] 1411 	ld	a, (de)
    00000846 32r00r00         [13] 1412 	ld	(_g_pass_target_x+0), a
    00000849 AF               [ 4] 1413 	xor	a, a
    0000084A 32r01r00         [13] 1414 	ld	(_g_pass_target_x+1), a
                                   1415 ;E:\Dropbox\FAUSTO\SVILUPPI\MSX\CODE\C\MSXgl\projects\soccerlgMSX2/soccerlg_s15_b3.c:135: g_pass_target_y = SwSprite[target].ly;
    0000084D 21 04 00         [10] 1416 	ld	hl, #4
    00000850 19               [11] 1417 	add	hl, de
    00000851 7E               [ 7] 1418 	ld	a, (hl)
    00000852 23               [ 6] 1419 	inc	hl
    00000853 32r00r00         [13] 1420 	ld	(_g_pass_target_y+0), a
    00000856 7E               [ 7] 1421 	ld	a, (hl)
    00000857 32r01r00         [13] 1422 	ld	(_g_pass_target_y+1), a
                                   1423 ;E:\Dropbox\FAUSTO\SVILUPPI\MSX\CODE\C\MSXgl\projects\soccerlgMSX2/soccerlg_s15_b3.c:137: u16 dist_x = (g_pass_target_x > g_pass_start_x) ? (g_pass_target_x - g_pass_start_x) : (g_pass_start_x - g_pass_target_x);
    0000085A 21r00r00         [10] 1424 	ld	hl, #_g_pass_start_x
    0000085D 7E               [ 7] 1425 	ld	a, (hl)
    0000085E FD 21r00r00      [14] 1426 	ld	iy, #_g_pass_target_x
    00000862 FD 96 00         [19] 1427 	sub	a, 0 (iy)
    00000865 23               [ 6] 1428 	inc	hl
    00000866 7E               [ 7] 1429 	ld	a, (hl)
    00000867 FD 9E 01         [19] 1430 	sbc	a, 1 (iy)
    0000086A 30 11            [12] 1431 	jr	NC, 00240$
    0000086C 21r00r00         [10] 1432 	ld	hl, #_g_pass_start_x
    0000086F 3Ar00r00         [13] 1433 	ld	a, (_g_pass_target_x+0)
    00000872 96               [ 7] 1434 	sub	a, (hl)
    00000873 23               [ 6] 1435 	inc	hl
    00000874 4F               [ 4] 1436 	ld	c, a
    00000875 3Ar01r00         [13] 1437 	ld	a, (_g_pass_target_x+1)
    00000878 9E               [ 7] 1438 	sbc	a, (hl)
    00000879 47               [ 4] 1439 	ld	b, a
    0000087A C3r8Br08         [10] 1440 	jp	00241$
    0000087D                       1441 00240$:
    0000087D 21r00r00         [10] 1442 	ld	hl, #_g_pass_target_x
    00000880 3Ar00r00         [13] 1443 	ld	a, (_g_pass_start_x+0)
    00000883 96               [ 7] 1444 	sub	a, (hl)
    00000884 23               [ 6] 1445 	inc	hl
    00000885 4F               [ 4] 1446 	ld	c, a
    00000886 3Ar01r00         [13] 1447 	ld	a, (_g_pass_start_x+1)
    00000889 9E               [ 7] 1448 	sbc	a, (hl)
    0000088A 47               [ 4] 1449 	ld	b, a
    0000088B                       1450 00241$:
                                   1451 ;E:\Dropbox\FAUSTO\SVILUPPI\MSX\CODE\C\MSXgl\projects\soccerlgMSX2/soccerlg_s15_b3.c:138: u16 dist_y = (g_pass_target_y > g_pass_start_y) ? (g_pass_target_y - g_pass_start_y) : (g_pass_start_y - g_pass_target_y);
    0000088B 21r00r00         [10] 1452 	ld	hl, #_g_pass_start_y
    0000088E 7E               [ 7] 1453 	ld	a, (hl)
    0000088F FD 21r00r00      [14] 1454 	ld	iy, #_g_pass_target_y
    00000893 FD 96 00         [19] 1455 	sub	a, 0 (iy)
    00000896 23               [ 6] 1456 	inc	hl
    00000897 7E               [ 7] 1457 	ld	a, (hl)
    00000898 FD 9E 01         [19] 1458 	sbc	a, 1 (iy)
    0000089B 30 0D            [12] 1459 	jr	NC, 00242$
    0000089D ED 5Br00r00      [20] 1460 	ld	de, (_g_pass_start_y)
    000008A1 2Ar00r00         [16] 1461 	ld	hl, (_g_pass_target_y)
    000008A4 BF               [ 4] 1462 	cp	a, a
    000008A5 ED 52            [15] 1463 	sbc	hl, de
    000008A7 C3rB4r08         [10] 1464 	jp	00243$
    000008AA                       1465 00242$:
    000008AA ED 5Br00r00      [20] 1466 	ld	de, (_g_pass_target_y)
    000008AE 2Ar00r00         [16] 1467 	ld	hl, (_g_pass_start_y)
    000008B1 BF               [ 4] 1468 	cp	a, a
    000008B2 ED 52            [15] 1469 	sbc	hl, de
    000008B4                       1470 00243$:
                                   1471 ;E:\Dropbox\FAUSTO\SVILUPPI\MSX\CODE\C\MSXgl\projects\soccerlgMSX2/soccerlg_s15_b3.c:140: g_pass_max_frames = (dist_x + dist_y) / 4; 
    000008B4 09               [11] 1472 	add	hl, bc
    000008B5 CB 3C            [ 8] 1473 	srl	h
    000008B7 CB 1D            [ 8] 1474 	rr	l
    000008B9 CB 3C            [ 8] 1475 	srl	h
    000008BB CB 1D            [ 8] 1476 	rr	l
    000008BD FD 21r00r00      [14] 1477 	ld	iy, #_g_pass_max_frames
    000008C1 FD 75 00         [19] 1478 	ld	0 (iy), l
                                   1479 ;E:\Dropbox\FAUSTO\SVILUPPI\MSX\CODE\C\MSXgl\projects\soccerlgMSX2/soccerlg_s15_b3.c:141: if (g_pass_max_frames < 20) g_pass_max_frames = 20;
    000008C4 3Ar00r00         [13] 1480 	ld	a, (_g_pass_max_frames+0)
    000008C7 D6 14            [ 7] 1481 	sub	a, #0x14
    000008C9 30 04            [12] 1482 	jr	NC, 00165$
    000008CB FD 36 00 14      [19] 1483 	ld	0 (iy), #0x14
    000008CF                       1484 00165$:
                                   1485 ;E:\Dropbox\FAUSTO\SVILUPPI\MSX\CODE\C\MSXgl\projects\soccerlgMSX2/soccerlg_s15_b3.c:142: if (g_pass_max_frames > 60) g_pass_max_frames = 60;
    000008CF 3E 3C            [ 7] 1486 	ld	a, #0x3c
    000008D1 FD 21r00r00      [14] 1487 	ld	iy, #_g_pass_max_frames
    000008D5 FD 96 00         [19] 1488 	sub	a, 0 (iy)
    000008D8 30 04            [12] 1489 	jr	NC, 00167$
    000008DA FD 36 00 3C      [19] 1490 	ld	0 (iy), #0x3c
    000008DE                       1491 00167$:
                                   1492 ;E:\Dropbox\FAUSTO\SVILUPPI\MSX\CODE\C\MSXgl\projects\soccerlgMSX2/soccerlg_s15_b3.c:143: g_pass_max_height = 7;
    000008DE 21r00r00         [10] 1493 	ld	hl, #_g_pass_max_height
    000008E1 36 07            [10] 1494 	ld	(hl), #0x07
                                   1495 ;E:\Dropbox\FAUSTO\SVILUPPI\MSX\CODE\C\MSXgl\projects\soccerlgMSX2/soccerlg_s15_b3.c:145: Ball->lx = g_pass_start_x;
    000008E3 3Ar00r00         [13] 1496 	ld	a, (_g_pass_start_x+0)
    000008E6 32r42r01         [13] 1497 	ld	(#(_SwSprite + 322)),a
                                   1498 ;E:\Dropbox\FAUSTO\SVILUPPI\MSX\CODE\C\MSXgl\projects\soccerlgMSX2/soccerlg_s15_b3.c:146: Ball->ly = g_pass_start_y;
    000008E9 21r46r01         [10] 1499 	ld	hl, #(_SwSprite + 326)
    000008EC 3Ar00r00         [13] 1500 	ld	a, (_g_pass_start_y+0)
    000008EF 77               [ 7] 1501 	ld	(hl), a
    000008F0 23               [ 6] 1502 	inc	hl
    000008F1 3Ar01r00         [13] 1503 	ld	a, (_g_pass_start_y+1)
    000008F4 77               [ 7] 1504 	ld	(hl), a
                                   1505 ;E:\Dropbox\FAUSTO\SVILUPPI\MSX\CODE\C\MSXgl\projects\soccerlgMSX2/soccerlg_s15_b3.c:147: Ball->anim = 5; 
    000008F5 21 05 00         [10] 1506 	ld	hl, #0x0005
    000008F8 22r55r01         [16] 1507 	ld	((_SwSprite + 341)), hl
                                   1508 ;E:\Dropbox\FAUSTO\SVILUPPI\MSX\CODE\C\MSXgl\projects\soccerlgMSX2/soccerlg_s15_b3.c:148: Ball->count = 0; 
    000008FB 6C               [ 4] 1509 	ld	l, h
    000008FC 22r57r01         [16] 1510 	ld	((_SwSprite + 343)), hl
                                   1511 ;E:\Dropbox\FAUSTO\SVILUPPI\MSX\CODE\C\MSXgl\projects\soccerlgMSX2/soccerlg_s15_b3.c:149: Ball->dx = Ball->dy = 0;
    000008FF 21r54r01         [10] 1512 	ld	hl, #(_SwSprite + 340)
    00000902 36 00            [10] 1513 	ld	(hl), #0x00
    00000904 21r53r01         [10] 1514 	ld	hl, #(_SwSprite + 339)
    00000907 36 00            [10] 1515 	ld	(hl), #0x00
                                   1516 ;E:\Dropbox\FAUSTO\SVILUPPI\MSX\CODE\C\MSXgl\projects\soccerlgMSX2/soccerlg_s15_b3.c:151: CallFnc_VOID(SEG_EVENTS, EventBallKicked);
    00000909 11r00r00         [10] 1517 	ld	de, #_EventBallKicked
    0000090C 3E 08            [ 7] 1518 	ld	a, #0x08
    0000090E CDr00r00         [17] 1519 	call	_CallFnc_VOID
                                   1520 ;E:\Dropbox\FAUSTO\SVILUPPI\MSX\CODE\C\MSXgl\projects\soccerlgMSX2/soccerlg_s15_b3.c:152: LastTouchTeam = (gk == 0) ? TEAM_1 : TEAM_2;
    00000911 DD 7E E9         [19] 1521 	ld	a, -23 (ix)
    00000914 B7               [ 4] 1522 	or	a,a
    00000915 20 09            [12] 1523 	jr	NZ, 00244$
    00000917 DD 77 F9         [19] 1524 	ld	-7 (ix), a
    0000091A DD 77 FA         [19] 1525 	ld	-6 (ix), a
    0000091D C3r28r09         [10] 1526 	jp	00245$
    00000920                       1527 00244$:
    00000920 DD 36 F9 01      [19] 1528 	ld	-7 (ix), #0x01
    00000924 DD 36 FA 00      [19] 1529 	ld	-6 (ix), #0
    00000928                       1530 00245$:
    00000928 DD 7E F9         [19] 1531 	ld	a, -7 (ix)
    0000092B 32r00r00         [13] 1532 	ld	(_LastTouchTeam+0), a
                                   1533 ;E:\Dropbox\FAUSTO\SVILUPPI\MSX\CODE\C\MSXgl\projects\soccerlgMSX2/soccerlg_s15_b3.c:153: LastTouchPlayer = gk;
    0000092E DD 7E E9         [19] 1534 	ld	a, -23 (ix)
    00000931 32r00r00         [13] 1535 	ld	(_LastTouchPlayer+0), a
                                   1536 ;E:\Dropbox\FAUSTO\SVILUPPI\MSX\CODE\C\MSXgl\projects\soccerlgMSX2/soccerlg_s15_b3.c:154: g_pass_receiver = target;
    00000934 DD 7E FB         [19] 1537 	ld	a, -5 (ix)
    00000937 32r00r00         [13] 1538 	ld	(_g_pass_receiver+0), a
                                   1539 ;E:\Dropbox\FAUSTO\SVILUPPI\MSX\CODE\C\MSXgl\projects\soccerlgMSX2/soccerlg_s15_b3.c:156: GK->ly = (gk == 0) ? 32 : 444; // Scatta sulla sua riga, ma conserva la X esterna
    0000093A DD 6E F2         [19] 1540 	ld	l, -14 (ix)
                                   1541 ;	spillPairReg hl
                                   1542 ;	spillPairReg hl
    0000093D DD 66 F3         [19] 1543 	ld	h, -13 (ix)
                                   1544 ;	spillPairReg hl
                                   1545 ;	spillPairReg hl
    00000940 DD 7E E9         [19] 1546 	ld	a, -23 (ix)
    00000943 B7               [ 4] 1547 	or	a, a
    00000944 20 06            [12] 1548 	jr	NZ, 00246$
    00000946 11 20 00         [10] 1549 	ld	de, #0x0020
    00000949 C3r4Fr09         [10] 1550 	jp	00247$
    0000094C                       1551 00246$:
    0000094C 11 BC 01         [10] 1552 	ld	de, #0x01bc
    0000094F                       1553 00247$:
    0000094F 73               [ 7] 1554 	ld	(hl), e
    00000950 23               [ 6] 1555 	inc	hl
    00000951 72               [ 7] 1556 	ld	(hl), d
                                   1557 ;E:\Dropbox\FAUSTO\SVILUPPI\MSX\CODE\C\MSXgl\projects\soccerlgMSX2/soccerlg_s15_b3.c:157: GK->frame = (gk == 0) ? SPR_GK_PLAYER_FACE_TO_SOUTH : SPR_GK_PLAYER_FACE_TO_NORTH;
    00000952 DD 7E E9         [19] 1558 	ld	a, -23 (ix)
    00000955 B7               [ 4] 1559 	or	a, a
    00000956 20 06            [12] 1560 	jr	NZ, 00248$
    00000958 01 D5 00         [10] 1561 	ld	bc, #0x00d5
    0000095B C3r61r09         [10] 1562 	jp	00249$
    0000095E                       1563 00248$:
    0000095E 01 D6 00         [10] 1564 	ld	bc, #0x00d6
    00000961                       1565 00249$:
    00000961 DD 6E F7         [19] 1566 	ld	l, -9 (ix)
    00000964 DD 66 F8         [19] 1567 	ld	h, -8 (ix)
    00000967 71               [ 7] 1568 	ld	(hl), c
    00000968 23               [ 6] 1569 	inc	hl
    00000969 70               [ 7] 1570 	ld	(hl), b
                                   1571 ;E:\Dropbox\FAUSTO\SVILUPPI\MSX\CODE\C\MSXgl\projects\soccerlgMSX2/soccerlg_s15_b3.c:159: *game_state = 3; // Riparte il gioco istantaneamente
    0000096A DD 6E FE         [19] 1572 	ld	l, -2 (ix)
    0000096D DD 66 FF         [19] 1573 	ld	h, -1 (ix)
    00000970 36 03            [10] 1574 	ld	(hl), #0x03
                                   1575 ;E:\Dropbox\FAUSTO\SVILUPPI\MSX\CODE\C\MSXgl\projects\soccerlgMSX2/soccerlg_s15_b3.c:160: TimerEnabled = TRUE;
    00000972 FD 21r00r00      [14] 1576 	ld	iy, #_TimerEnabled
    00000976 FD 36 00 01      [19] 1577 	ld	0 (iy), #0x01
    0000097A C3r0Fr0A         [10] 1578 	jp	00192$
    0000097D                       1579 00185$:
                                   1580 ;E:\Dropbox\FAUSTO\SVILUPPI\MSX\CODE\C\MSXgl\projects\soccerlgMSX2/soccerlg_s15_b3.c:164: if (is_human) {
    0000097D DD 7E F1         [19] 1581 	ld	a, -15 (ix)
    00000980 B7               [ 4] 1582 	or	a, a
    00000981 28 65            [12] 1583 	jr	Z, 00181$
                                   1584 ;E:\Dropbox\FAUSTO\SVILUPPI\MSX\CODE\C\MSXgl\projects\soccerlgMSX2/soccerlg_s15_b3.c:165: if (team_to_kick == TEAM_1) T1_Receiver = (g_selected_rec == 0) ? g_throw_rec_1 : g_throw_rec_2;
    00000983 DD 7E FB         [19] 1585 	ld	a, -5 (ix)
    00000986 B7               [ 4] 1586 	or	a, a
    00000987 20 15            [12] 1587 	jr	NZ, 00173$
    00000989 3Ar00r00         [13] 1588 	ld	a, (_g_selected_rec+0)
    0000098C B7               [ 4] 1589 	or	a, a
    0000098D 20 06            [12] 1590 	jr	NZ, 00250$
    0000098F 3Ar00r00         [13] 1591 	ld	a, (_g_throw_rec_1+0)
    00000992 C3r98r09         [10] 1592 	jp	00251$
    00000995                       1593 00250$:
    00000995 3Ar00r00         [13] 1594 	ld	a, (_g_throw_rec_2+0)
    00000998                       1595 00251$:
    00000998 32r00r00         [13] 1596 	ld	(_T1_Receiver+0), a
    0000099B C3rB0r09         [10] 1597 	jp	00174$
    0000099E                       1598 00173$:
                                   1599 ;E:\Dropbox\FAUSTO\SVILUPPI\MSX\CODE\C\MSXgl\projects\soccerlgMSX2/soccerlg_s15_b3.c:166: else T2_Receiver = (g_selected_rec == 0) ? g_throw_rec_1 : g_throw_rec_2;
    0000099E 3Ar00r00         [13] 1600 	ld	a, (_g_selected_rec+0)
    000009A1 B7               [ 4] 1601 	or	a, a
    000009A2 20 06            [12] 1602 	jr	NZ, 00252$
    000009A4 3Ar00r00         [13] 1603 	ld	a, (_g_throw_rec_1+0)
    000009A7 C3rADr09         [10] 1604 	jp	00253$
    000009AA                       1605 00252$:
    000009AA 3Ar00r00         [13] 1606 	ld	a, (_g_throw_rec_2+0)
    000009AD                       1607 00253$:
    000009AD 32r00r00         [13] 1608 	ld	(_T2_Receiver+0), a
    000009B0                       1609 00174$:
                                   1610 ;E:\Dropbox\FAUSTO\SVILUPPI\MSX\CODE\C\MSXgl\projects\soccerlgMSX2/soccerlg_s15_b3.c:168: u8 dir = g_player_input[team_to_kick].direction;
    000009B0 01r00r00         [10] 1611 	ld	bc, #_g_player_input+0
    000009B3 DD 5E FB         [19] 1612 	ld	e, -5 (ix)
    000009B6 16 00            [ 7] 1613 	ld	d, #0x00
    000009B8 6B               [ 4] 1614 	ld	l, e
    000009B9 62               [ 4] 1615 	ld	h, d
    000009BA 29               [11] 1616 	add	hl, hl
    000009BB 19               [11] 1617 	add	hl, de
    000009BC 09               [11] 1618 	add	hl, bc
    000009BD EB               [ 4] 1619 	ex	de, hl
    000009BE 1A               [ 7] 1620 	ld	a, (de)
    000009BF 4F               [ 4] 1621 	ld	c, a
                                   1622 ;E:\Dropbox\FAUSTO\SVILUPPI\MSX\CODE\C\MSXgl\projects\soccerlgMSX2/soccerlg_s15_b3.c:169: if (dir != DIRECTION_NONE && g_last_input_dir == DIRECTION_NONE) g_selected_rec = 1 - g_selected_rec;
    000009C0 B7               [ 4] 1623 	or	a, a
    000009C1 28 11            [12] 1624 	jr	Z, 00176$
    000009C3 3Ar00r00         [13] 1625 	ld	a, (_g_last_input_dir+0)
    000009C6 B7               [ 4] 1626 	or	a, a
    000009C7 20 0B            [12] 1627 	jr	NZ, 00176$
    000009C9 3Ar00r00         [13] 1628 	ld	a, (_g_selected_rec+0)
    000009CC 47               [ 4] 1629 	ld	b, a
    000009CD 21r00r00         [10] 1630 	ld	hl, #_g_selected_rec
    000009D0 3E 01            [ 7] 1631 	ld	a, #0x01
    000009D2 90               [ 4] 1632 	sub	a, b
    000009D3 77               [ 7] 1633 	ld	(hl), a
    000009D4                       1634 00176$:
                                   1635 ;E:\Dropbox\FAUSTO\SVILUPPI\MSX\CODE\C\MSXgl\projects\soccerlgMSX2/soccerlg_s15_b3.c:170: g_last_input_dir = dir;
    000009D4 FD 21r00r00      [14] 1636 	ld	iy, #_g_last_input_dir
    000009D8 FD 71 00         [19] 1637 	ld	0 (iy), c
                                   1638 ;E:\Dropbox\FAUSTO\SVILUPPI\MSX\CODE\C\MSXgl\projects\soccerlgMSX2/soccerlg_s15_b3.c:172: bool do_kick = g_player_input[team_to_kick].trigger_pressed;
    000009DB 13               [ 6] 1639 	inc	de
    000009DC 1A               [ 7] 1640 	ld	a, (de)
                                   1641 ;E:\Dropbox\FAUSTO\SVILUPPI\MSX\CODE\C\MSXgl\projects\soccerlgMSX2/soccerlg_s15_b3.c:174: if (do_kick) *wait_secs = 0; // Trigger premuto: inizia subito la rincorsa!
    000009DD B7               [ 4] 1642 	or	a, a
    000009DE 28 08            [12] 1643 	jr	Z, 00181$
    000009E0 DD 6E FC         [19] 1644 	ld	l, -4 (ix)
    000009E3 DD 66 FD         [19] 1645 	ld	h, -3 (ix)
    000009E6 36 00            [10] 1646 	ld	(hl), #0x00
    000009E8                       1647 00181$:
                                   1648 ;E:\Dropbox\FAUSTO\SVILUPPI\MSX\CODE\C\MSXgl\projects\soccerlgMSX2/soccerlg_s15_b3.c:178: if (RestartType != RESTART_GKSAVE) {
    000009E8 3Ar00r00         [13] 1649 	ld	a, (_RestartType+0)
    000009EB D6 04            [ 7] 1650 	sub	a, #0x04
    000009ED 28 20            [12] 1651 	jr	Z, 00192$
                                   1652 ;E:\Dropbox\FAUSTO\SVILUPPI\MSX\CODE\C\MSXgl\projects\soccerlgMSX2/soccerlg_s15_b3.c:179: GK->frame = (gk == 0) ? SPR_GK_PLAYER_SOUTH_1 : SPR_GK_PLAYER_NORTH_1;
    000009EF DD 7E EA         [19] 1653 	ld	a, -22 (ix)
    000009F2 C6 0F            [ 7] 1654 	add	a, #0x0f
    000009F4 5F               [ 4] 1655 	ld	e, a
    000009F5 DD 7E EB         [19] 1656 	ld	a, -21 (ix)
    000009F8 CE 00            [ 7] 1657 	adc	a, #0x00
    000009FA 57               [ 4] 1658 	ld	d, a
    000009FB DD 7E E9         [19] 1659 	ld	a, -23 (ix)
    000009FE B7               [ 4] 1660 	or	a, a
    000009FF 20 06            [12] 1661 	jr	NZ, 00254$
    00000A01 01 F3 00         [10] 1662 	ld	bc, #0x00f3
    00000A04 C3r0Ar0A         [10] 1663 	jp	00255$
    00000A07                       1664 00254$:
    00000A07 01 F2 00         [10] 1665 	ld	bc, #0x00f2
    00000A0A                       1666 00255$:
    00000A0A 79               [ 4] 1667 	ld	a, c
    00000A0B 12               [ 7] 1668 	ld	(de), a
    00000A0C 13               [ 6] 1669 	inc	de
    00000A0D 78               [ 4] 1670 	ld	a, b
    00000A0E 12               [ 7] 1671 	ld	(de), a
    00000A0F                       1672 00192$:
                                   1673 ;E:\Dropbox\FAUSTO\SVILUPPI\MSX\CODE\C\MSXgl\projects\soccerlgMSX2/soccerlg_s15_b3.c:183: }
    00000A0F DD F9            [10] 1674 	ld	sp, ix
    00000A11 DD E1            [14] 1675 	pop	ix
    00000A13 E1               [10] 1676 	pop	hl
    00000A14 F1               [10] 1677 	pop	af
    00000A15 F1               [10] 1678 	pop	af
    00000A16 E9               [ 4] 1679 	jp	(hl)
                         0000F380  1680 _g_RDPRIM	=	0xf380
                         0000F385  1681 _g_WRPRIM	=	0xf385
                         0000F38C  1682 _g_CLPRIM	=	0xf38c
                         0000F39A  1683 _g_USRTAB	=	0xf39a
                         0000F3DE  1684 _g_CNSDFG	=	0xf3de
                         0000F3DF  1685 _g_RG0SAV	=	0xf3df
                         0000F3E0  1686 _g_RG1SAV	=	0xf3e0
                         0000F3E1  1687 _g_RG2SAV	=	0xf3e1
                         0000F3E2  1688 _g_RG3SAV	=	0xf3e2
                         0000F3E3  1689 _g_RG4SAV	=	0xf3e3
                         0000F3E4  1690 _g_RG5SAV	=	0xf3e4
                         0000F3E5  1691 _g_RG6SAV	=	0xf3e5
                         0000F3E6  1692 _g_RG7SAV	=	0xf3e6
                         0000F3E7  1693 _g_STATFL	=	0xf3e7
                         0000F3E8  1694 _g_TRGFLG	=	0xf3e8
                         0000F3EC  1695 _g_MAXUPD	=	0xf3ec
                         0000F3EF  1696 _g_MINUPD	=	0xf3ef
                         0000F3F3  1697 _g_QUEUES	=	0xf3f3
                         0000F3F5  1698 _g_FRCNEW	=	0xf3f5
                         0000F3F6  1699 _g_SCNCNT	=	0xf3f6
                         0000F3F7  1700 _g_REPCNT	=	0xf3f7
                         0000F3F8  1701 _g_PUTPNT	=	0xf3f8
                         0000F3FA  1702 _g_GETPNT	=	0xf3fa
                         0000F3FC  1703 _g_CS120	=	0xf3fc
                         0000F401  1704 _g_CS240	=	0xf401
                         0000F406  1705 _g_LOW	=	0xf406
                         0000F408  1706 _g_HIGH	=	0xf408
                         0000F40A  1707 _g_HEADER	=	0xf40a
                         0000F40B  1708 _g_ASPCT1	=	0xf40b
                         0000F40D  1709 _g_ASPCT2	=	0xf40d
                         0000F959  1710 _g_QUETAB	=	0xf959
                         0000F971  1711 _g_QUEBAK	=	0xf971
                         0000F975  1712 _g_VOICAQ	=	0xf975
                         0000F9F5  1713 _g_VOICBQ	=	0xf9f5
                         0000FA75  1714 _g_VOICCQ	=	0xfa75
                         0000FAF5  1715 _g_RS2IQ	=	0xfaf5
                         0000FAF5  1716 _g_DPPAGE	=	0xfaf5
                         0000FAF6  1717 _g_ACPAGE	=	0xfaf6
                         0000FAF7  1718 _g_AVCSAV	=	0xfaf7
                         0000FAF8  1719 _g_EXBRSA	=	0xfaf8
                         0000FAF9  1720 _g_CHRCNT	=	0xfaf9
                         0000FAFA  1721 _g_ROMA	=	0xfafa
                         0000FAFC  1722 _g_MODE	=	0xfafc
                         0000FAFD  1723 _g_NORUSE	=	0xfafd
                         0000FAFE  1724 _g_XSAVE	=	0xfafe
                         0000FB00  1725 _g_YSAVE	=	0xfb00
                         0000FB03  1726 _g_RSTMP	=	0xfb03
                         0000FB03  1727 _g_TOCNT	=	0xfb03
                         0000FB04  1728 _g_RSFCB	=	0xfb04
                         0000FB06  1729 _g_RSIQLN	=	0xfb06
                         0000FB07  1730 _g_MEXBIh	=	0xfb07
                         0000FB0C  1731 _g_OLDSTT	=	0xfb0c
                         0000FB0C  1732 _g_OLDINT	=	0xfb0c
                         0000FB16  1733 _g_DEVNUM	=	0xfb16
                         0000FB17  1734 _g_DATCNT	=	0xfb17
                         0000FB1A  1735 _g_ERRORS	=	0xfb1a
                         0000FB1B  1736 _g_FLAGS	=	0xfb1b
                         0000FB1C  1737 _g_ESTBLS	=	0xfb1c
                         0000FB1D  1738 _g_COMMSK	=	0xfb1d
                         0000FB1E  1739 _g_LSTCOM	=	0xfb1e
                         0000FB1F  1740 _g_LSTMOD	=	0xfb1f
                         0000FB35  1741 _g_PRSCNT	=	0xfb35
                         0000FB36  1742 _g_SAVSP	=	0xfb36
                         0000FB38  1743 _g_VOICEN	=	0xfb38
                         0000FB39  1744 _g_SAVVOL	=	0xfb39
                         0000FB3B  1745 _g_MCLLEN	=	0xfb3b
                         0000FB3C  1746 _g_MCLPTR	=	0xfb3c
                         0000FB3E  1747 _g_QUEUEN	=	0xfb3e
                         0000FB3F  1748 _g_MUSICF	=	0xfb3f
                         0000FB40  1749 _g_PLYCNT	=	0xfb40
                         0000FB41  1750 _g_VCBA	=	0xfb41
                         0000FB66  1751 _g_VCBB	=	0xfb66
                         0000FB8B  1752 _g_VCBC	=	0xfb8b
                         0000FBB0  1753 _g_ENSTOP	=	0xfbb0
                         0000FBB1  1754 _g_BASROM	=	0xfbb1
                         0000FBB2  1755 _g_LINTTB	=	0xfbb2
                         0000FBCA  1756 _g_FSTPOS	=	0xfbca
                         0000FBCC  1757 _g_CODSAV	=	0xfbcc
                         0000FBCD  1758 _g_FNKSWI	=	0xfbcd
                         0000FBCE  1759 _g_FNKFLG	=	0xfbce
                         0000FBD8  1760 _g_ONGSBF	=	0xfbd8
                         0000FBD9  1761 _g_CLIKFL	=	0xfbd9
                         0000FBDA  1762 _g_OLDKEY	=	0xfbda
                         0000FBE5  1763 _g_NEWKEY	=	0xfbe5
                         0000FBF0  1764 _g_KEYBUF	=	0xfbf0
                         0000FC18  1765 _g_LINWRK	=	0xfc18
                         0000FC40  1766 _g_PATWRK	=	0xfc40
                         0000FC48  1767 _g_BOTTOM	=	0xfc48
                         0000FC4A  1768 _g_HIMEM	=	0xfc4a
                         0000FC4C  1769 _g_TRPTBL	=	0xfc4c
                         0000FC9A  1770 _g_RTYCNT	=	0xfc9a
                         0000FC9B  1771 _g_INTFLG	=	0xfc9b
                         0000FC9C  1772 _g_PADY	=	0xfc9c
                         0000FC9D  1773 _g_PADX	=	0xfc9d
                         0000FC9E  1774 _g_JIFFY	=	0xfc9e
                         0000FCA0  1775 _g_INTVAL	=	0xfca0
                         0000FCA2  1776 _g_INTCNT	=	0xfca2
                         0000FCA4  1777 _g_LOWLIM	=	0xfca4
                         0000FCA5  1778 _g_WINWID	=	0xfca5
                         0000FCA6  1779 _g_GRPHED	=	0xfca6
                         0000FCA7  1780 _g_ESCCNT	=	0xfca7
                         0000FCA8  1781 _g_INSFLG	=	0xfca8
                         0000FCA9  1782 _g_CSRSW	=	0xfca9
                         0000FCAA  1783 _g_CSTYLE	=	0xfcaa
                         0000FCAB  1784 _g_CAPST	=	0xfcab
                         0000FCAC  1785 _g_KANAST	=	0xfcac
                         0000FCAD  1786 _g_KANAMD	=	0xfcad
                         0000FCAE  1787 _g_FLBMEM	=	0xfcae
                         0000FCAF  1788 _g_SCRMOD	=	0xfcaf
                         0000FCB0  1789 _g_OLDSCR	=	0xfcb0
                         0000FCB1  1790 _g_CASPRV	=	0xfcb1
                         0000FCB2  1791 _g_BRDATR	=	0xfcb2
                         0000FCB3  1792 _g_GXPOS	=	0xfcb3
                         0000FCB5  1793 _g_GYPOS	=	0xfcb5
                         0000FCBB  1794 _g_DRWFLG	=	0xfcbb
                         0000FCBC  1795 _g_DRWSCL	=	0xfcbc
                         0000FCBD  1796 _g_DRWANG	=	0xfcbd
                         0000FCC1  1797 _g_MNROM	=	0xfcc1
                         0000FCC1  1798 _g_EXPTBL	=	0xfcc1
                         0000FCC5  1799 _g_SLTTBL	=	0xfcc5
                         0000FCC9  1800 _g_SLTATR	=	0xfcc9
                         0000FD09  1801 _g_SLTWRK	=	0xfd09
                         0000FD89  1802 _g_PROCNM	=	0xfd89
                         0000FFE7  1803 _g_RG08SAV	=	0xffe7
                         0000FFE8  1804 _g_RG09SAV	=	0xffe8
                         0000FFE9  1805 _g_RG10SAV	=	0xffe9
                         0000FFEA  1806 _g_RG11SAV	=	0xffea
                         0000FFEB  1807 _g_RG12SAV	=	0xffeb
                         0000FFEC  1808 _g_RG13SAV	=	0xffec
                         0000FFED  1809 _g_RG14SAV	=	0xffed
                         0000FFEE  1810 _g_RG15SAV	=	0xffee
                         0000FFEF  1811 _g_RG16SAV	=	0xffef
                         0000FFF0  1812 _g_RG17SAV	=	0xfff0
                         0000FFF1  1813 _g_RG18SAV	=	0xfff1
                         0000FFF2  1814 _g_RG19SAV	=	0xfff2
                         0000FFF3  1815 _g_RG20SAV	=	0xfff3
                         0000FFF4  1816 _g_RG21SAV	=	0xfff4
                         0000FFF5  1817 _g_RG22SAV	=	0xfff5
                         0000FFF6  1818 _g_RG23SAV	=	0xfff6
                         0000FFF7  1819 _g_MINROM	=	0xfff7
                         0000FFF8  1820 _g_SVFFF8	=	0xfff8
                         0000FFFA  1821 _g_RG25SAV	=	0xfffa
                         0000FFFB  1822 _g_RG26SAV	=	0xfffb
                         0000FFFC  1823 _g_RG27SAV	=	0xfffc
                         0000FFFD  1824 _g_SVFFFD	=	0xfffd
                         00000004  1825 _g_CGTABL	=	0x0004
                         00000006  1826 _g_VDP_DR	=	0x0006
                         00000007  1827 _g_VDP_DW	=	0x0007
                         0000002B  1828 _g_BASRVN	=	0x002b
                         0000002B  1829 _g_ROMVersion	=	0x002b
                         0000002D  1830 _g_MSXVER	=	0x002d
                         0000002E  1831 _g_MSXMID	=	0x002e
                         00000034  1832 _g_CHAR_16	=	0x0034
                         00000000  1833 _g_SUBRID	=	0x0000
                         00000002  1834 _g_STRSRC	=	0x0002
                         0000F30F  1835 _g_KANJTABLE	=	0xf30f
                         0000F323  1836 _g_DISKVE	=	0xf323
                         0000F325  1837 _g_BREAKV	=	0xf325
                         0000F341  1838 _g_RAMAD0	=	0xf341
                         0000F342  1839 _g_RAMAD1	=	0xf342
                         0000F343  1840 _g_RAMAD2	=	0xf343
                         0000F344  1841 _g_RAMAD3	=	0xf344
                         0000F348  1842 _g_MASTER	=	0xf348
                         0000F37D  1843 _g_BDOS	=	0xf37d
                                   1844 ;E:\Dropbox\FAUSTO\SVILUPPI\MSX\CODE\C\MSXgl\projects\soccerlgMSX2/soccerlg_s15_b3.c:185: void UpdateGameState_Penalties_End(u8* game_state, u8* wait_secs, u8* start_sec, u16 target_ly)
                                   1845 ;	---------------------------------
                                   1846 ; Function UpdateGameState_Penalties_End
                                   1847 ; ---------------------------------
    00000A17                       1848 _UpdateGameState_Penalties_End::
    00000A17 DD E5            [15] 1849 	push	ix
    00000A19 DD 21 00 00      [14] 1850 	ld	ix,#0
    00000A1D DD 39            [15] 1851 	add	ix,sp
    00000A1F FD 21 E2 FF      [14] 1852 	ld	iy, #-30
    00000A23 FD 39            [15] 1853 	add	iy, sp
    00000A25 FD F9            [10] 1854 	ld	sp, iy
    00000A27 DD 75 FD         [19] 1855 	ld	-3 (ix), l
    00000A2A DD 74 FE         [19] 1856 	ld	-2 (ix), h
    00000A2D DD 73 FB         [19] 1857 	ld	-5 (ix), e
    00000A30 DD 72 FC         [19] 1858 	ld	-4 (ix), d
                                   1859 ;E:\Dropbox\FAUSTO\SVILUPPI\MSX\CODE\C\MSXgl\projects\soccerlgMSX2/soccerlg_s15_b3.c:189: if (*game_state >= 15 && *game_state <= 17) {
    00000A33 DD 6E FD         [19] 1860 	ld	l, -3 (ix)
    00000A36 DD 66 FE         [19] 1861 	ld	h, -2 (ix)
    00000A39 7E               [ 7] 1862 	ld	a, (hl)
    00000A3A DD 77 F8         [19] 1863 	ld	-8 (ix), a
    00000A3D D6 0F            [ 7] 1864 	sub	a, #0x0f
    00000A3F DArAFr1C         [10] 1865 	jp	C, 00263$
    00000A42 3E 11            [ 7] 1866 	ld	a, #0x11
    00000A44 DD 96 F8         [19] 1867 	sub	a, -8 (ix)
    00000A47 DArAFr1C         [10] 1868 	jp	C, 00263$
                                   1869 ;E:\Dropbox\FAUSTO\SVILUPPI\MSX\CODE\C\MSXgl\projects\soccerlgMSX2/soccerlg_s15_b3.c:190: struct ObjectInfo* Ball = &SwSprite[14];
                                   1870 ;E:\Dropbox\FAUSTO\SVILUPPI\MSX\CODE\C\MSXgl\projects\soccerlgMSX2/soccerlg_s15_b3.c:193: if (*game_state == 16 || *game_state == 17) {
    00000A4A DD 7E F8         [19] 1871 	ld	a, -8 (ix)
    00000A4D D6 10            [ 7] 1872 	sub	a, #0x10
    00000A4F 3E 01            [ 7] 1873 	ld	a, #0x01
    00000A51 28 01            [12] 1874 	jr	Z, 00889$
    00000A53 AF               [ 4] 1875 	xor	a, a
    00000A54                       1876 00889$:
    00000A54 DD 77 FF         [19] 1877 	ld	-1 (ix), a
    00000A57 B7               [ 4] 1878 	or	a, a
    00000A58 20 07            [12] 1879 	jr	NZ, 00101$
    00000A5A DD 7E F8         [19] 1880 	ld	a, -8 (ix)
    00000A5D D6 11            [ 7] 1881 	sub	a, #0x11
    00000A5F 20 22            [12] 1882 	jr	NZ, 00102$
    00000A61                       1883 00101$:
                                   1884 ;E:\Dropbox\FAUSTO\SVILUPPI\MSX\CODE\C\MSXgl\projects\soccerlgMSX2/soccerlg_s15_b3.c:194: keeper_idx = (g_penalty_shooter_idx < 7) ? 7 : 0; // Il portiere che ha appena finito
    00000A61 3Ar00r00         [13] 1885 	ld	a, (_g_penalty_shooter_idx+0)
    00000A64 D6 07            [ 7] 1886 	sub	a, #0x07
    00000A66 30 0B            [12] 1887 	jr	NC, 00265$
    00000A68 DD 36 F9 07      [19] 1888 	ld	-7 (ix), #0x07
    00000A6C DD 36 FA 00      [19] 1889 	ld	-6 (ix), #0
    00000A70 C3r7Ar0A         [10] 1890 	jp	00266$
    00000A73                       1891 00265$:
    00000A73 AF               [ 4] 1892 	xor	a, a
    00000A74 DD 77 F9         [19] 1893 	ld	-7 (ix), a
    00000A77 DD 77 FA         [19] 1894 	ld	-6 (ix), a
    00000A7A                       1895 00266$:
    00000A7A DD 7E F9         [19] 1896 	ld	a, -7 (ix)
    00000A7D DD 77 E6         [19] 1897 	ld	-26 (ix), a
    00000A80 C3r95r0A         [10] 1898 	jp	00103$
    00000A83                       1899 00102$:
                                   1900 ;E:\Dropbox\FAUSTO\SVILUPPI\MSX\CODE\C\MSXgl\projects\soccerlgMSX2/soccerlg_s15_b3.c:196: keeper_idx = (g_penalty_team == TEAM_1) ? 7 : 0; // Il portiere che deve parare
    00000A83 3Ar00r00         [13] 1901 	ld	a, (_g_penalty_team+0)
    00000A86 B7               [ 4] 1902 	or	a, a
    00000A87 20 06            [12] 1903 	jr	NZ, 00267$
    00000A89 11 07 00         [10] 1904 	ld	de, #0x0007
    00000A8C C3r92r0A         [10] 1905 	jp	00268$
    00000A8F                       1906 00267$:
    00000A8F 11 00 00         [10] 1907 	ld	de, #0x0000
    00000A92                       1908 00268$:
    00000A92 DD 73 E6         [19] 1909 	ld	-26 (ix), e
    00000A95                       1910 00103$:
                                   1911 ;E:\Dropbox\FAUSTO\SVILUPPI\MSX\CODE\C\MSXgl\projects\soccerlgMSX2/soccerlg_s15_b3.c:199: if(*game_state == 15) { // STATO 15: Attesa esito rigore
    00000A95 DD 7E F8         [19] 1912 	ld	a, -8 (ix)
    00000A98 D6 0F            [ 7] 1913 	sub	a, #0x0f
    00000A9A C2rE6r0F         [10] 1914 	jp	NZ,00253$
                                   1915 ;E:\Dropbox\FAUSTO\SVILUPPI\MSX\CODE\C\MSXgl\projects\soccerlgMSX2/soccerlg_s15_b3.c:200: if (Ball->anim == 5) {
    00000A9D 21r55r01         [10] 1916 	ld	hl, #(_SwSprite + 341)
    00000AA0 7E               [ 7] 1917 	ld	a, (hl)
    00000AA1 DD 77 F9         [19] 1918 	ld	-7 (ix), a
    00000AA4 23               [ 6] 1919 	inc	hl
    00000AA5 7E               [ 7] 1920 	ld	a, (hl)
    00000AA6 DD 77 FA         [19] 1921 	ld	-6 (ix), a
    00000AA9 DD 4E F9         [19] 1922 	ld	c, -7 (ix)
    00000AAC DD 46 FA         [19] 1923 	ld	b, -6 (ix)
    00000AAF 79               [ 4] 1924 	ld	a, c
    00000AB0 D6 05            [ 7] 1925 	sub	a, #0x05
    00000AB2 B0               [ 4] 1926 	or	a, b
    00000AB3 C2r56r0C         [10] 1927 	jp	NZ,00150$
                                   1928 ;E:\Dropbox\FAUSTO\SVILUPPI\MSX\CODE\C\MSXgl\projects\soccerlgMSX2/soccerlg_s15_b3.c:201: u8 progress = Ball->count;
    00000AB6 3Ar57r01         [13] 1929 	ld	a, (#(_SwSprite + 343) + 0)
    00000AB9 DD 77 FF         [19] 1930 	ld	-1 (ix), a
                                   1931 ;E:\Dropbox\FAUSTO\SVILUPPI\MSX\CODE\C\MSXgl\projects\soccerlgMSX2/soccerlg_s15_b3.c:202: i16 dx_total = (i16)g_pass_target_x - (i16)g_pass_start_x;
    00000ABC 2Ar00r00         [16] 1932 	ld	hl, (_g_pass_target_x)
    00000ABF DD 75 F5         [19] 1933 	ld	-11 (ix), l
    00000AC2 DD 74 F6         [19] 1934 	ld	-10 (ix), h
    00000AC5 2Ar00r00         [16] 1935 	ld	hl, (_g_pass_start_x)
    00000AC8 DD 75 F7         [19] 1936 	ld	-9 (ix), l
    00000ACB DD 74 F8         [19] 1937 	ld	-8 (ix), h
    00000ACE DD 7E F5         [19] 1938 	ld	a, -11 (ix)
    00000AD1 DD 96 F7         [19] 1939 	sub	a, -9 (ix)
    00000AD4 DD 77 F9         [19] 1940 	ld	-7 (ix), a
    00000AD7 DD 7E F6         [19] 1941 	ld	a, -10 (ix)
    00000ADA DD 9E F8         [19] 1942 	sbc	a, -8 (ix)
    00000ADD DD 77 FA         [19] 1943 	ld	-6 (ix), a
    00000AE0 DD 7E F9         [19] 1944 	ld	a, -7 (ix)
    00000AE3 DD 77 F3         [19] 1945 	ld	-13 (ix), a
    00000AE6 DD 7E FA         [19] 1946 	ld	a, -6 (ix)
    00000AE9 DD 77 F4         [19] 1947 	ld	-12 (ix), a
                                   1948 ;E:\Dropbox\FAUSTO\SVILUPPI\MSX\CODE\C\MSXgl\projects\soccerlgMSX2/soccerlg_s15_b3.c:203: i16 dy_total = (i16)g_pass_target_y - (i16)g_pass_start_y;
    00000AEC 2Ar00r00         [16] 1949 	ld	hl, (_g_pass_target_y)
    00000AEF DD 75 F5         [19] 1950 	ld	-11 (ix), l
    00000AF2 DD 74 F6         [19] 1951 	ld	-10 (ix), h
    00000AF5 2Ar00r00         [16] 1952 	ld	hl, (_g_pass_start_y)
    00000AF8 DD 75 F7         [19] 1953 	ld	-9 (ix), l
    00000AFB DD 74 F8         [19] 1954 	ld	-8 (ix), h
    00000AFE DD 7E F5         [19] 1955 	ld	a, -11 (ix)
    00000B01 DD 96 F7         [19] 1956 	sub	a, -9 (ix)
    00000B04 DD 77 F9         [19] 1957 	ld	-7 (ix), a
    00000B07 DD 7E F6         [19] 1958 	ld	a, -10 (ix)
    00000B0A DD 9E F8         [19] 1959 	sbc	a, -8 (ix)
    00000B0D DD 77 FA         [19] 1960 	ld	-6 (ix), a
                                   1961 ;E:\Dropbox\FAUSTO\SVILUPPI\MSX\CODE\C\MSXgl\projects\soccerlgMSX2/soccerlg_s15_b3.c:207: Ball->ly = g_pass_target_y;
                                   1962 ;E:\Dropbox\FAUSTO\SVILUPPI\MSX\CODE\C\MSXgl\projects\soccerlgMSX2/soccerlg_s15_b3.c:205: if (progress >= g_pass_max_frames) {
    00000B10 21r00r00         [10] 1963 	ld	hl, #_g_pass_max_frames
    00000B13 DD 7E FF         [19] 1964 	ld	a, -1 (ix)
    00000B16 96               [ 7] 1965 	sub	a, (hl)
    00000B17 38 77            [12] 1966 	jr	C, 00118$
                                   1967 ;E:\Dropbox\FAUSTO\SVILUPPI\MSX\CODE\C\MSXgl\projects\soccerlgMSX2/soccerlg_s15_b3.c:206: Ball->lx = g_pass_target_x;
    00000B19 3Ar00r00         [13] 1968 	ld	a, (_g_pass_target_x+0)
    00000B1C 32r42r01         [13] 1969 	ld	(#(_SwSprite + 322)),a
                                   1970 ;E:\Dropbox\FAUSTO\SVILUPPI\MSX\CODE\C\MSXgl\projects\soccerlgMSX2/soccerlg_s15_b3.c:207: Ball->ly = g_pass_target_y;
    00000B1F 21r46r01         [10] 1971 	ld	hl, #(_SwSprite + 326)
    00000B22 3Ar00r00         [13] 1972 	ld	a, (_g_pass_target_y+0)
    00000B25 77               [ 7] 1973 	ld	(hl), a
    00000B26 23               [ 6] 1974 	inc	hl
    00000B27 3Ar01r00         [13] 1975 	ld	a, (_g_pass_target_y+1)
    00000B2A 77               [ 7] 1976 	ld	(hl), a
                                   1977 ;E:\Dropbox\FAUSTO\SVILUPPI\MSX\CODE\C\MSXgl\projects\soccerlgMSX2/soccerlg_s15_b3.c:208: Ball->anim = 0; // Tiro terminato
    00000B2B 21 00 00         [10] 1978 	ld	hl, #0x0000
    00000B2E 22r55r01         [16] 1979 	ld	((_SwSprite + 341)), hl
                                   1980 ;E:\Dropbox\FAUSTO\SVILUPPI\MSX\CODE\C\MSXgl\projects\soccerlgMSX2/soccerlg_s15_b3.c:209: CallFnc_VOID_P1(SEG_DRAW, SetBallSprite, 0); // Ripristina grandezza a terra
    00000B31 AF               [ 4] 1981 	xor	a, a
    00000B32 F5               [11] 1982 	push	af
    00000B33 33               [ 6] 1983 	inc	sp
    00000B34 11r00r00         [10] 1984 	ld	de, #_SetBallSprite
    00000B37 3E 05            [ 7] 1985 	ld	a, #0x05
    00000B39 CDr00r00         [17] 1986 	call	_CallFnc_VOID_P1
                                   1987 ;E:\Dropbox\FAUSTO\SVILUPPI\MSX\CODE\C\MSXgl\projects\soccerlgMSX2/soccerlg_s15_b3.c:211: if (Ball->ly <= 24 && Ball->lx >= 82 && Ball->lx <= 146) {
    00000B3C 21r46r01         [10] 1988 	ld	hl, #(_SwSprite + 326)
    00000B3F 7E               [ 7] 1989 	ld	a, (hl)
    00000B40 DD 77 F9         [19] 1990 	ld	-7 (ix), a
    00000B43 23               [ 6] 1991 	inc	hl
    00000B44 7E               [ 7] 1992 	ld	a, (hl)
    00000B45 DD 77 FA         [19] 1993 	ld	-6 (ix), a
    00000B48 3E 18            [ 7] 1994 	ld	a, #0x18
    00000B4A DD BE F9         [19] 1995 	cp	a, -7 (ix)
    00000B4D 3E 00            [ 7] 1996 	ld	a, #0x00
    00000B4F DD 9E FA         [19] 1997 	sbc	a, -6 (ix)
    00000B52 38 27            [12] 1998 	jr	C, 00109$
    00000B54 21r42r01         [10] 1999 	ld	hl, #(_SwSprite + 322)
    00000B57 4E               [ 7] 2000 	ld	c, (hl)
    00000B58 79               [ 4] 2001 	ld	a, c
    00000B59 D6 52            [ 7] 2002 	sub	a, #0x52
    00000B5B 38 1E            [12] 2003 	jr	C, 00109$
    00000B5D 3E 92            [ 7] 2004 	ld	a, #0x92
    00000B5F 91               [ 4] 2005 	sub	a, c
    00000B60 38 19            [12] 2006 	jr	C, 00109$
                                   2007 ;E:\Dropbox\FAUSTO\SVILUPPI\MSX\CODE\C\MSXgl\projects\soccerlgMSX2/soccerlg_s15_b3.c:212: if (g_penalty_team == TEAM_2) ScoreTeam2++; else ScoreTeam1++;
    00000B62 3Ar00r00         [13] 2008 	ld	a, (_g_penalty_team+0)
    00000B65 3D               [ 4] 2009 	dec	a
    00000B66 20 07            [12] 2010 	jr	NZ, 00106$
    00000B68 21r00r00         [10] 2011 	ld	hl, #_ScoreTeam2
    00000B6B 34               [11] 2012 	inc	(hl)
    00000B6C C3r73r0B         [10] 2013 	jp	00107$
    00000B6F                       2014 00106$:
    00000B6F 21r00r00         [10] 2015 	ld	hl, #_ScoreTeam1
    00000B72 34               [11] 2016 	inc	(hl)
    00000B73                       2017 00107$:
                                   2018 ;E:\Dropbox\FAUSTO\SVILUPPI\MSX\CODE\C\MSXgl\projects\soccerlgMSX2/soccerlg_s15_b3.c:213: RestartType = RESTART_GOAL; // Segnala il goal per poter attivare l'esultanza
    00000B73 FD 21r00r00      [14] 2019 	ld	iy, #_RestartType
    00000B77 FD 36 00 05      [19] 2020 	ld	0 (iy), #0x05
    00000B7B                       2021 00109$:
                                   2022 ;E:\Dropbox\FAUSTO\SVILUPPI\MSX\CODE\C\MSXgl\projects\soccerlgMSX2/soccerlg_s15_b3.c:215: *wait_secs = 2; // Inizializza attesa post-tiro prima di cambiare giocatore
    00000B7B DD 6E FB         [19] 2023 	ld	l, -5 (ix)
    00000B7E DD 66 FC         [19] 2024 	ld	h, -4 (ix)
    00000B81 36 02            [10] 2025 	ld	(hl), #0x02
                                   2026 ;E:\Dropbox\FAUSTO\SVILUPPI\MSX\CODE\C\MSXgl\projects\soccerlgMSX2/soccerlg_s15_b3.c:216: *start_sec = Frms;
    00000B83 DD 4E 04         [19] 2027 	ld	c, 4 (ix)
    00000B86 DD 46 05         [19] 2028 	ld	b, 5 (ix)
    00000B89 3Ar00r00         [13] 2029 	ld	a, (_Frms+0)
    00000B8C 02               [ 7] 2030 	ld	(bc), a
    00000B8D C3rAFr1C         [10] 2031 	jp	00263$
    00000B90                       2032 00118$:
                                   2033 ;E:\Dropbox\FAUSTO\SVILUPPI\MSX\CODE\C\MSXgl\projects\soccerlgMSX2/soccerlg_s15_b3.c:218: Ball->lx = (u16)((i16)g_pass_start_x + (dx_total * progress) / g_pass_max_frames);
    00000B90 3Ar00r00         [13] 2034 	ld	a, (_g_pass_start_x+0)
    00000B93 DD 77 F8         [19] 2035 	ld	-8 (ix), a
    00000B96 DD 4E FF         [19] 2036 	ld	c, -1 (ix)
    00000B99 06 00            [ 7] 2037 	ld	b, #0x00
    00000B9B C5               [11] 2038 	push	bc
    00000B9C 59               [ 4] 2039 	ld	e, c
    00000B9D 50               [ 4] 2040 	ld	d, b
    00000B9E DD 6E F3         [19] 2041 	ld	l, -13 (ix)
                                   2042 ;	spillPairReg hl
                                   2043 ;	spillPairReg hl
    00000BA1 DD 66 F4         [19] 2044 	ld	h, -12 (ix)
                                   2045 ;	spillPairReg hl
                                   2046 ;	spillPairReg hl
    00000BA4 CDr00r00         [17] 2047 	call	__mulint
    00000BA7 EB               [ 4] 2048 	ex	de, hl
    00000BA8 C1               [10] 2049 	pop	bc
    00000BA9 3Ar00r00         [13] 2050 	ld	a, (_g_pass_max_frames+0)
    00000BAC 5F               [ 4] 2051 	ld	e, a
    00000BAD 16 00            [ 7] 2052 	ld	d, #0x00
    00000BAF C5               [11] 2053 	push	bc
    00000BB0 CDr00r00         [17] 2054 	call	__divsint
    00000BB3 C1               [10] 2055 	pop	bc
    00000BB4 7B               [ 4] 2056 	ld	a, e
    00000BB5 DD 86 F8         [19] 2057 	add	a, -8 (ix)
    00000BB8 32r42r01         [13] 2058 	ld	(#(_SwSprite + 322)),a
                                   2059 ;E:\Dropbox\FAUSTO\SVILUPPI\MSX\CODE\C\MSXgl\projects\soccerlgMSX2/soccerlg_s15_b3.c:219: Ball->ly = (u16)((i16)g_pass_start_y + (dy_total * progress) / g_pass_max_frames);
    00000BBB 2Ar00r00         [16] 2060 	ld	hl, (_g_pass_start_y)
    00000BBE E5               [11] 2061 	push	hl
    00000BBF 59               [ 4] 2062 	ld	e, c
    00000BC0 50               [ 4] 2063 	ld	d, b
    00000BC1 DD 6E F9         [19] 2064 	ld	l, -7 (ix)
                                   2065 ;	spillPairReg hl
                                   2066 ;	spillPairReg hl
    00000BC4 DD 66 FA         [19] 2067 	ld	h, -6 (ix)
                                   2068 ;	spillPairReg hl
                                   2069 ;	spillPairReg hl
    00000BC7 CDr00r00         [17] 2070 	call	__mulint
    00000BCA 4B               [ 4] 2071 	ld	c, e
    00000BCB 42               [ 4] 2072 	ld	b, d
    00000BCC E1               [10] 2073 	pop	hl
    00000BCD 3Ar00r00         [13] 2074 	ld	a, (_g_pass_max_frames+0)
    00000BD0 5F               [ 4] 2075 	ld	e, a
    00000BD1 16 00            [ 7] 2076 	ld	d, #0x00
    00000BD3 E5               [11] 2077 	push	hl
    00000BD4 69               [ 4] 2078 	ld	l, c
                                   2079 ;	spillPairReg hl
                                   2080 ;	spillPairReg hl
    00000BD5 60               [ 4] 2081 	ld	h, b
                                   2082 ;	spillPairReg hl
                                   2083 ;	spillPairReg hl
    00000BD6 CDr00r00         [17] 2084 	call	__divsint
    00000BD9 E1               [10] 2085 	pop	hl
    00000BDA 19               [11] 2086 	add	hl, de
    00000BDB EB               [ 4] 2087 	ex	de, hl
    00000BDC ED 53r46r01      [20] 2088 	ld	((_SwSprite + 326)), de
                                   2089 ;E:\Dropbox\FAUSTO\SVILUPPI\MSX\CODE\C\MSXgl\projects\soccerlgMSX2/soccerlg_s15_b3.c:220: Ball->count++;
    00000BE0 ED 4Br57r01      [20] 2090 	ld	bc, (#(_SwSprite + 343) + 0)
    00000BE4 03               [ 6] 2091 	inc	bc
    00000BE5 ED 43r57r01      [20] 2092 	ld	((_SwSprite + 343)), bc
                                   2093 ;E:\Dropbox\FAUSTO\SVILUPPI\MSX\CODE\C\MSXgl\projects\soccerlgMSX2/soccerlg_s15_b3.c:224: u8 half_frame = g_pass_max_frames >> 1;
    00000BE9 3Ar00r00         [13] 2094 	ld	a, (#_g_pass_max_frames + 0)
    00000BEC 4F               [ 4] 2095 	ld	c, a
    00000BED CB 39            [ 8] 2096 	srl	c
                                   2097 ;E:\Dropbox\FAUSTO\SVILUPPI\MSX\CODE\C\MSXgl\projects\soccerlgMSX2/soccerlg_s15_b3.c:226: scale = (progress * g_pass_max_height) / half_frame;
    00000BEF 41               [ 4] 2098 	ld	b, c
    00000BF0 1E 00            [ 7] 2099 	ld	e, #0x00
                                   2100 ;E:\Dropbox\FAUSTO\SVILUPPI\MSX\CODE\C\MSXgl\projects\soccerlgMSX2/soccerlg_s15_b3.c:225: if (progress <= half_frame) {
    00000BF2 79               [ 4] 2101 	ld	a, c
    00000BF3 DD 96 FF         [19] 2102 	sub	a, -1 (ix)
    00000BF6 38 1F            [12] 2103 	jr	C, 00113$
                                   2104 ;E:\Dropbox\FAUSTO\SVILUPPI\MSX\CODE\C\MSXgl\projects\soccerlgMSX2/soccerlg_s15_b3.c:226: scale = (progress * g_pass_max_height) / half_frame;
    00000BF8 D5               [11] 2105 	push	de
    00000BF9 C5               [11] 2106 	push	bc
    00000BFA 3Ar00r00         [13] 2107 	ld	a, (#_g_pass_max_height + 0)
    00000BFD 5F               [ 4] 2108 	ld	e, a
    00000BFE DD 66 FF         [19] 2109 	ld	h, -1 (ix)
                                   2110 ;	spillPairReg hl
                                   2111 ;	spillPairReg hl
    00000C01 2E 00            [ 7] 2112 	ld	l, #0x00
    00000C03 55               [ 4] 2113 	ld	d, l
    00000C04 06 08            [ 7] 2114 	ld	b, #0x08
    00000C06                       2115 00898$:
    00000C06 29               [11] 2116 	add	hl, hl
    00000C07 30 01            [12] 2117 	jr	NC, 00899$
    00000C09 19               [11] 2118 	add	hl, de
    00000C0A                       2119 00899$:
    00000C0A 10 FA            [13] 2120 	djnz	00898$
    00000C0C C1               [10] 2121 	pop	bc
    00000C0D D1               [10] 2122 	pop	de
    00000C0E 53               [ 4] 2123 	ld	d, e
    00000C0F 58               [ 4] 2124 	ld	e, b
    00000C10 CDr00r00         [17] 2125 	call	__divsint
    00000C13 43               [ 4] 2126 	ld	b, e
    00000C14 C3r42r0C         [10] 2127 	jp	00114$
    00000C17                       2128 00113$:
                                   2129 ;E:\Dropbox\FAUSTO\SVILUPPI\MSX\CODE\C\MSXgl\projects\soccerlgMSX2/soccerlg_s15_b3.c:228: u8 progress_down = progress - half_frame;
    00000C17 DD 7E FF         [19] 2130 	ld	a, -1 (ix)
    00000C1A 91               [ 4] 2131 	sub	a, c
    00000C1B 67               [ 4] 2132 	ld	h, a
                                   2133 ;	spillPairReg hl
                                   2134 ;	spillPairReg hl
                                   2135 ;E:\Dropbox\FAUSTO\SVILUPPI\MSX\CODE\C\MSXgl\projects\soccerlgMSX2/soccerlg_s15_b3.c:229: scale = g_pass_max_height - (progress_down * g_pass_max_height) / (g_pass_max_frames - half_frame);
    00000C1C D5               [11] 2136 	push	de
    00000C1D C5               [11] 2137 	push	bc
    00000C1E 3Ar00r00         [13] 2138 	ld	a, (#_g_pass_max_height + 0)
    00000C21 5F               [ 4] 2139 	ld	e, a
    00000C22 2E 00            [ 7] 2140 	ld	l, #0x00
    00000C24 55               [ 4] 2141 	ld	d, l
    00000C25 06 08            [ 7] 2142 	ld	b, #0x08
    00000C27                       2143 00900$:
    00000C27 29               [11] 2144 	add	hl, hl
    00000C28 30 01            [12] 2145 	jr	NC, 00901$
    00000C2A 19               [11] 2146 	add	hl, de
    00000C2B                       2147 00901$:
    00000C2B 10 FA            [13] 2148 	djnz	00900$
    00000C2D C1               [10] 2149 	pop	bc
    00000C2E D1               [10] 2150 	pop	de
    00000C2F 3Ar00r00         [13] 2151 	ld	a, (_g_pass_max_frames+0)
    00000C32 16 00            [ 7] 2152 	ld	d, #0x00
    00000C34 90               [ 4] 2153 	sub	a, b
    00000C35 4F               [ 4] 2154 	ld	c, a
    00000C36 7A               [ 4] 2155 	ld	a, d
    00000C37 9B               [ 4] 2156 	sbc	a, e
    00000C38 57               [ 4] 2157 	ld	d, a
    00000C39 59               [ 4] 2158 	ld	e, c
    00000C3A CDr00r00         [17] 2159 	call	__divsint
    00000C3D 3Ar00r00         [13] 2160 	ld	a, (_g_pass_max_height+0)
    00000C40 93               [ 4] 2161 	sub	a, e
    00000C41 47               [ 4] 2162 	ld	b, a
    00000C42                       2163 00114$:
                                   2164 ;E:\Dropbox\FAUSTO\SVILUPPI\MSX\CODE\C\MSXgl\projects\soccerlgMSX2/soccerlg_s15_b3.c:231: if (scale > 7) scale = 7;
    00000C42 3E 07            [ 7] 2165 	ld	a, #0x07
    00000C44 90               [ 4] 2166 	sub	a, b
    00000C45 30 02            [12] 2167 	jr	NC, 00116$
    00000C47 06 07            [ 7] 2168 	ld	b, #0x07
    00000C49                       2169 00116$:
                                   2170 ;E:\Dropbox\FAUSTO\SVILUPPI\MSX\CODE\C\MSXgl\projects\soccerlgMSX2/soccerlg_s15_b3.c:232: CallFnc_VOID_P1(SEG_DRAW, SetBallSprite, scale);
    00000C49 C5               [11] 2171 	push	bc
    00000C4A 33               [ 6] 2172 	inc	sp
    00000C4B 11r00r00         [10] 2173 	ld	de, #_SetBallSprite
    00000C4E 3E 05            [ 7] 2174 	ld	a, #0x05
    00000C50 CDr00r00         [17] 2175 	call	_CallFnc_VOID_P1
    00000C53 C3rAFr1C         [10] 2176 	jp	00263$
    00000C56                       2177 00150$:
                                   2178 ;E:\Dropbox\FAUSTO\SVILUPPI\MSX\CODE\C\MSXgl\projects\soccerlgMSX2/soccerlg_s15_b3.c:234: } else if(Ball->anim == 0) { // Attesa post-tiro
    00000C56 DD 7E FA         [19] 2179 	ld	a, -6 (ix)
    00000C59 DD B6 F9         [19] 2180 	or	a, -7 (ix)
    00000C5C C2rAFr1C         [10] 2181 	jp	NZ, 00263$
                                   2182 ;E:\Dropbox\FAUSTO\SVILUPPI\MSX\CODE\C\MSXgl\projects\soccerlgMSX2/soccerlg_s15_b3.c:235: if (*start_sec < Frms) { 
    00000C5F DD 4E 04         [19] 2183 	ld	c, 4 (ix)
    00000C62 DD 46 05         [19] 2184 	ld	b, 5 (ix)
    00000C65 0A               [ 7] 2185 	ld	a, (bc)
    00000C66 5F               [ 4] 2186 	ld	e, a
    00000C67 21r00r00         [10] 2187 	ld	hl, #_Frms
    00000C6A 7B               [ 4] 2188 	ld	a, e
    00000C6B 96               [ 7] 2189 	sub	a, (hl)
    00000C6C 30 12            [12] 2190 	jr	NC, 00123$
                                   2191 ;E:\Dropbox\FAUSTO\SVILUPPI\MSX\CODE\C\MSXgl\projects\soccerlgMSX2/soccerlg_s15_b3.c:236: if (*wait_secs > 0) (*wait_secs)--; 
    00000C6E DD 6E FB         [19] 2192 	ld	l, -5 (ix)
    00000C71 DD 66 FC         [19] 2193 	ld	h, -4 (ix)
    00000C74 7E               [ 7] 2194 	ld	a, (hl)
    00000C75 B7               [ 4] 2195 	or	a, a
    00000C76 28 08            [12] 2196 	jr	Z, 00123$
    00000C78 3D               [ 4] 2197 	dec	a
    00000C79 DD 6E FB         [19] 2198 	ld	l, -5 (ix)
    00000C7C DD 66 FC         [19] 2199 	ld	h, -4 (ix)
    00000C7F 77               [ 7] 2200 	ld	(hl), a
    00000C80                       2201 00123$:
                                   2202 ;E:\Dropbox\FAUSTO\SVILUPPI\MSX\CODE\C\MSXgl\projects\soccerlgMSX2/soccerlg_s15_b3.c:238: *start_sec = Frms;
    00000C80 3Ar00r00         [13] 2203 	ld	a, (_Frms+0)
    00000C83 02               [ 7] 2204 	ld	(bc), a
                                   2205 ;E:\Dropbox\FAUSTO\SVILUPPI\MSX\CODE\C\MSXgl\projects\soccerlgMSX2/soccerlg_s15_b3.c:240: if (*wait_secs == 0) {
    00000C84 DD 6E FB         [19] 2206 	ld	l, -5 (ix)
    00000C87 DD 66 FC         [19] 2207 	ld	h, -4 (ix)
    00000C8A 7E               [ 7] 2208 	ld	a, (hl)
    00000C8B B7               [ 4] 2209 	or	a, a
    00000C8C C2rAFr1C         [10] 2210 	jp	NZ, 00263$
                                   2211 ;E:\Dropbox\FAUSTO\SVILUPPI\MSX\CODE\C\MSXgl\projects\soccerlgMSX2/soccerlg_s15_b3.c:242: u8 shot_idx = g_penalty_shot_count[g_penalty_team];
    00000C8F 3Ar00r00         [13] 2212 	ld	a, (_g_penalty_team+0)
    00000C92 C6r00            [ 7] 2213 	add	a, #<(_g_penalty_shot_count)
    00000C94 4F               [ 4] 2214 	ld	c, a
    00000C95 3E 00            [ 7] 2215 	ld	a, #0x00
    00000C97 CEs00            [ 7] 2216 	adc	a, #>(_g_penalty_shot_count)
    00000C99 47               [ 4] 2217 	ld	b, a
    00000C9A 0A               [ 7] 2218 	ld	a, (bc)
                                   2219 ;E:\Dropbox\FAUSTO\SVILUPPI\MSX\CODE\C\MSXgl\projects\soccerlgMSX2/soccerlg_s15_b3.c:243: if (shot_idx < 5) {
    00000C9B DD 77 FF         [19] 2220 	ld	-1 (ix), a
    00000C9E D6 05            [ 7] 2221 	sub	a, #0x05
    00000CA0 D2rA5r0D         [10] 2222 	jp	NC, 00128$
                                   2223 ;E:\Dropbox\FAUSTO\SVILUPPI\MSX\CODE\C\MSXgl\projects\soccerlgMSX2/soccerlg_s15_b3.c:244: u8 spr_idx = (g_penalty_team == TEAM_1) ? (27 + shot_idx) : (32 + shot_idx);
    00000CA3 DD 7E FF         [19] 2224 	ld	a, -1 (ix)
    00000CA6 DD 77 FA         [19] 2225 	ld	-6 (ix), a
    00000CA9 3Ar00r00         [13] 2226 	ld	a, (_g_penalty_team+0)
    00000CAC B7               [ 4] 2227 	or	a, a
    00000CAD 20 0B            [12] 2228 	jr	NZ, 00269$
    00000CAF DD 7E FA         [19] 2229 	ld	a, -6 (ix)
    00000CB2 C6 1B            [ 7] 2230 	add	a, #0x1b
    00000CB4 DD 77 FA         [19] 2231 	ld	-6 (ix), a
    00000CB7 C3rC2r0C         [10] 2232 	jp	00270$
    00000CBA                       2233 00269$:
    00000CBA DD 7E FA         [19] 2234 	ld	a, -6 (ix)
    00000CBD C6 20            [ 7] 2235 	add	a, #0x20
    00000CBF DD 77 FA         [19] 2236 	ld	-6 (ix), a
    00000CC2                       2237 00270$:
                                   2238 ;E:\Dropbox\FAUSTO\SVILUPPI\MSX\CODE\C\MSXgl\projects\soccerlgMSX2/soccerlg_s15_b3.c:245: bool scored = (RestartType == RESTART_GOAL);
    00000CC2 3Ar00r00         [13] 2239 	ld	a, (_RestartType+0)
    00000CC5 D6 05            [ 7] 2240 	sub	a, #0x05
    00000CC7 3E 01            [ 7] 2241 	ld	a, #0x01
    00000CC9 28 01            [12] 2242 	jr	Z, 00903$
    00000CCB AF               [ 4] 2243 	xor	a, a
    00000CCC                       2244 00903$:
    00000CCC DD 77 F4         [19] 2245 	ld	-12 (ix), a
                                   2246 ;E:\Dropbox\FAUSTO\SVILUPPI\MSX\CODE\C\MSXgl\projects\soccerlgMSX2/soccerlg_s15_b3.c:247: SwSprite[spr_idx].lx = 32 + shot_idx * 12;
    00000CCF DD 4E FA         [19] 2247 	ld	c, -6 (ix)
    00000CD2 06 00            [ 7] 2248 	ld	b, #0x00
    00000CD4 69               [ 4] 2249 	ld	l, c
    00000CD5 60               [ 4] 2250 	ld	h, b
    00000CD6 29               [11] 2251 	add	hl, hl
    00000CD7 29               [11] 2252 	add	hl, hl
    00000CD8 09               [11] 2253 	add	hl, bc
    00000CD9 29               [11] 2254 	add	hl, hl
    00000CDA 09               [11] 2255 	add	hl, bc
    00000CDB 29               [11] 2256 	add	hl, hl
    00000CDC 09               [11] 2257 	add	hl, bc
    00000CDD DD 75 F9         [19] 2258 	ld	-7 (ix), l
    00000CE0 DD 74 FA         [19] 2259 	ld	-6 (ix), h
    00000CE3 3Er00            [ 7] 2260 	ld	a, #<(_SwSprite)
    00000CE5 DD 86 F9         [19] 2261 	add	a, -7 (ix)
    00000CE8 DD 77 F5         [19] 2262 	ld	-11 (ix), a
    00000CEB 3Es00            [ 7] 2263 	ld	a, #>(_SwSprite)
    00000CED DD 8E FA         [19] 2264 	adc	a, -6 (ix)
    00000CF0 DD 77 F6         [19] 2265 	ld	-10 (ix), a
    00000CF3 DD 7E FF         [19] 2266 	ld	a, -1 (ix)
    00000CF6 4F               [ 4] 2267 	ld	c, a
    00000CF7 87               [ 4] 2268 	add	a, a
    00000CF8 81               [ 4] 2269 	add	a, c
    00000CF9 87               [ 4] 2270 	add	a, a
    00000CFA 87               [ 4] 2271 	add	a, a
    00000CFB DD 77 FF         [19] 2272 	ld	-1 (ix), a
                                   2273 ;E:\Dropbox\FAUSTO\SVILUPPI\MSX\CODE\C\MSXgl\projects\soccerlgMSX2/soccerlg_s15_b3.c:248: SwSprite[spr_idx].ly = 16; // Dietro la porta a Y=16
    00000CFE DD 7E F5         [19] 2274 	ld	a, -11 (ix)
    00000D01 C6 04            [ 7] 2275 	add	a, #0x04
    00000D03 DD 77 F7         [19] 2276 	ld	-9 (ix), a
    00000D06 DD 7E F6         [19] 2277 	ld	a, -10 (ix)
    00000D09 CE 00            [ 7] 2278 	adc	a, #0x00
    00000D0B DD 77 F8         [19] 2279 	ld	-8 (ix), a
                                   2280 ;E:\Dropbox\FAUSTO\SVILUPPI\MSX\CODE\C\MSXgl\projects\soccerlgMSX2/soccerlg_s15_b3.c:249: SwSprite[spr_idx].frame = scored ? SPR_T1_O : SPR_T1_X;
    00000D0E DD 7E F5         [19] 2281 	ld	a, -11 (ix)
    00000D11 C6 0F            [ 7] 2282 	add	a, #0x0f
    00000D13 DD 77 F9         [19] 2283 	ld	-7 (ix), a
    00000D16 DD 7E F6         [19] 2284 	ld	a, -10 (ix)
    00000D19 CE 00            [ 7] 2285 	adc	a, #0x00
    00000D1B DD 77 FA         [19] 2286 	ld	-6 (ix), a
                                   2287 ;E:\Dropbox\FAUSTO\SVILUPPI\MSX\CODE\C\MSXgl\projects\soccerlgMSX2/soccerlg_s15_b3.c:246: if (g_penalty_team == TEAM_1) {
    00000D1E 3Ar00r00         [13] 2288 	ld	a, (_g_penalty_team+0)
    00000D21 B7               [ 4] 2289 	or	a, a
    00000D22 20 42            [12] 2290 	jr	NZ, 00125$
                                   2291 ;E:\Dropbox\FAUSTO\SVILUPPI\MSX\CODE\C\MSXgl\projects\soccerlgMSX2/soccerlg_s15_b3.c:247: SwSprite[spr_idx].lx = 32 + shot_idx * 12;
    00000D24 DD 7E FF         [19] 2292 	ld	a, -1 (ix)
    00000D27 C6 20            [ 7] 2293 	add	a, #0x20
    00000D29 DD 6E F5         [19] 2294 	ld	l, -11 (ix)
    00000D2C DD 66 F6         [19] 2295 	ld	h, -10 (ix)
    00000D2F 77               [ 7] 2296 	ld	(hl), a
                                   2297 ;E:\Dropbox\FAUSTO\SVILUPPI\MSX\CODE\C\MSXgl\projects\soccerlgMSX2/soccerlg_s15_b3.c:248: SwSprite[spr_idx].ly = 16; // Dietro la porta a Y=16
    00000D30 DD 6E F7         [19] 2298 	ld	l, -9 (ix)
    00000D33 DD 66 F8         [19] 2299 	ld	h, -8 (ix)
    00000D36 36 10            [10] 2300 	ld	(hl), #0x10
    00000D38 23               [ 6] 2301 	inc	hl
    00000D39 36 00            [10] 2302 	ld	(hl), #0x00
                                   2303 ;E:\Dropbox\FAUSTO\SVILUPPI\MSX\CODE\C\MSXgl\projects\soccerlgMSX2/soccerlg_s15_b3.c:249: SwSprite[spr_idx].frame = scored ? SPR_T1_O : SPR_T1_X;
    00000D3B DD 7E F4         [19] 2304 	ld	a, -12 (ix)
    00000D3E B7               [ 4] 2305 	or	a, a
    00000D3F 28 0B            [12] 2306 	jr	Z, 00271$
    00000D41 DD 36 F7 2F      [19] 2307 	ld	-9 (ix), #0x2f
    00000D45 DD 36 F8 00      [19] 2308 	ld	-8 (ix), #0
    00000D49 C3r54r0D         [10] 2309 	jp	00272$
    00000D4C                       2310 00271$:
    00000D4C DD 36 F7 16      [19] 2311 	ld	-9 (ix), #0x16
    00000D50 DD 36 F8 00      [19] 2312 	ld	-8 (ix), #0
    00000D54                       2313 00272$:
    00000D54 DD 4E F7         [19] 2314 	ld	c, -9 (ix)
    00000D57 DD 46 F8         [19] 2315 	ld	b, -8 (ix)
    00000D5A DD 6E F9         [19] 2316 	ld	l, -7 (ix)
    00000D5D DD 66 FA         [19] 2317 	ld	h, -6 (ix)
    00000D60 71               [ 7] 2318 	ld	(hl), c
    00000D61 23               [ 6] 2319 	inc	hl
    00000D62 70               [ 7] 2320 	ld	(hl), b
    00000D63 C3rA5r0D         [10] 2321 	jp	00128$
    00000D66                       2322 00125$:
                                   2323 ;E:\Dropbox\FAUSTO\SVILUPPI\MSX\CODE\C\MSXgl\projects\soccerlgMSX2/soccerlg_s15_b3.c:251: SwSprite[spr_idx].lx = 168 + shot_idx * 12;
    00000D66 DD 7E FF         [19] 2324 	ld	a, -1 (ix)
    00000D69 C6 A8            [ 7] 2325 	add	a, #0xa8
    00000D6B DD 6E F5         [19] 2326 	ld	l, -11 (ix)
    00000D6E DD 66 F6         [19] 2327 	ld	h, -10 (ix)
    00000D71 77               [ 7] 2328 	ld	(hl), a
                                   2329 ;E:\Dropbox\FAUSTO\SVILUPPI\MSX\CODE\C\MSXgl\projects\soccerlgMSX2/soccerlg_s15_b3.c:252: SwSprite[spr_idx].ly = 16; // Dietro la porta a Y=16
    00000D72 DD 6E F7         [19] 2330 	ld	l, -9 (ix)
    00000D75 DD 66 F8         [19] 2331 	ld	h, -8 (ix)
    00000D78 36 10            [10] 2332 	ld	(hl), #0x10
    00000D7A 23               [ 6] 2333 	inc	hl
    00000D7B 36 00            [10] 2334 	ld	(hl), #0x00
                                   2335 ;E:\Dropbox\FAUSTO\SVILUPPI\MSX\CODE\C\MSXgl\projects\soccerlgMSX2/soccerlg_s15_b3.c:253: SwSprite[spr_idx].frame = scored ? SPR_T2_O : SPR_T2_X;
    00000D7D DD 7E F4         [19] 2336 	ld	a, -12 (ix)
    00000D80 B7               [ 4] 2337 	or	a, a
    00000D81 28 0B            [12] 2338 	jr	Z, 00273$
    00000D83 DD 36 F7 9F      [19] 2339 	ld	-9 (ix), #0x9f
    00000D87 DD 36 F8 00      [19] 2340 	ld	-8 (ix), #0
    00000D8B C3r96r0D         [10] 2341 	jp	00274$
    00000D8E                       2342 00273$:
    00000D8E DD 36 F7 86      [19] 2343 	ld	-9 (ix), #0x86
    00000D92 DD 36 F8 00      [19] 2344 	ld	-8 (ix), #0
    00000D96                       2345 00274$:
    00000D96 DD 4E F7         [19] 2346 	ld	c, -9 (ix)
    00000D99 DD 46 F8         [19] 2347 	ld	b, -8 (ix)
    00000D9C DD 6E F9         [19] 2348 	ld	l, -7 (ix)
    00000D9F DD 66 FA         [19] 2349 	ld	h, -6 (ix)
    00000DA2 71               [ 7] 2350 	ld	(hl), c
    00000DA3 23               [ 6] 2351 	inc	hl
    00000DA4 70               [ 7] 2352 	ld	(hl), b
    00000DA5                       2353 00128$:
                                   2354 ;E:\Dropbox\FAUSTO\SVILUPPI\MSX\CODE\C\MSXgl\projects\soccerlgMSX2/soccerlg_s15_b3.c:257: g_penalty_shot_count[g_penalty_team]++;
    00000DA5 3Er00            [ 7] 2355 	ld	a, #<(_g_penalty_shot_count)
    00000DA7 21r00r00         [10] 2356 	ld	hl, #_g_penalty_team
    00000DAA 86               [ 7] 2357 	add	a, (hl)
    00000DAB 4F               [ 4] 2358 	ld	c, a
    00000DAC 3Es00            [ 7] 2359 	ld	a, #>(_g_penalty_shot_count)
    00000DAE CE 00            [ 7] 2360 	adc	a, #0x00
    00000DB0 47               [ 4] 2361 	ld	b, a
    00000DB1 0A               [ 7] 2362 	ld	a, (bc)
    00000DB2 3C               [ 4] 2363 	inc	a
    00000DB3 02               [ 7] 2364 	ld	(bc), a
                                   2365 ;E:\Dropbox\FAUSTO\SVILUPPI\MSX\CODE\C\MSXgl\projects\soccerlgMSX2/soccerlg_s15_b3.c:258: g_penalty_team = (g_penalty_team == TEAM_1) ? TEAM_2 : TEAM_1;
    00000DB4 3Ar00r00         [13] 2366 	ld	a, (_g_penalty_team+0)
    00000DB7 B7               [ 4] 2367 	or	a, a
    00000DB8 20 07            [12] 2368 	jr	NZ, 00275$
    00000DBA 3E 01            [ 7] 2369 	ld	a, #0x01
    00000DBC 0E 00            [ 7] 2370 	ld	c, #0x00
    00000DBE C3rC3r0D         [10] 2371 	jp	00276$
    00000DC1                       2372 00275$:
    00000DC1 AF               [ 4] 2373 	xor	a, a
    00000DC2 4F               [ 4] 2374 	ld	c, a
    00000DC3                       2375 00276$:
    00000DC3 32r00r00         [13] 2376 	ld	(_g_penalty_team+0), a
                                   2377 ;E:\Dropbox\FAUSTO\SVILUPPI\MSX\CODE\C\MSXgl\projects\soccerlgMSX2/soccerlg_s15_b3.c:261: Ball->ly = 1000;
    00000DC6 21 E8 03         [10] 2378 	ld	hl, #0x03e8
    00000DC9 22r46r01         [16] 2379 	ld	((_SwSprite + 326)), hl
                                   2380 ;E:\Dropbox\FAUSTO\SVILUPPI\MSX\CODE\C\MSXgl\projects\soccerlgMSX2/soccerlg_s15_b3.c:264: u8 p_idx = g_penalty_shooter_idx;
    00000DCC 3Ar00r00         [13] 2381 	ld	a, (_g_penalty_shooter_idx+0)
                                   2382 ;E:\Dropbox\FAUSTO\SVILUPPI\MSX\CODE\C\MSXgl\projects\soccerlgMSX2/soccerlg_s15_b3.c:265: u8 role = (p_idx < 7) ? p_idx : p_idx - 7;
    00000DCF DD 77 FA         [19] 2383 	ld	-6 (ix), a
    00000DD2 D6 07            [ 7] 2384 	sub	a, #0x07
    00000DD4 3E 00            [ 7] 2385 	ld	a, #0x00
    00000DD6 17               [ 4] 2386 	rla
    00000DD7 47               [ 4] 2387 	ld	b, a
    00000DD8 B7               [ 4] 2388 	or	a, a
    00000DD9 28 06            [12] 2389 	jr	Z, 00277$
    00000DDB DD 56 FA         [19] 2390 	ld	d, -6 (ix)
    00000DDE C3rE7r0D         [10] 2391 	jp	00278$
    00000DE1                       2392 00277$:
    00000DE1 DD 7E FA         [19] 2393 	ld	a, -6 (ix)
    00000DE4 C6 F9            [ 7] 2394 	add	a, #0xf9
    00000DE6 57               [ 4] 2395 	ld	d, a
    00000DE7                       2396 00278$:
    00000DE7 DD 72 F9         [19] 2397 	ld	-7 (ix), d
                                   2398 ;E:\Dropbox\FAUSTO\SVILUPPI\MSX\CODE\C\MSXgl\projects\soccerlgMSX2/soccerlg_s15_b3.c:266: u8 t_cx = (p_idx < 7) ? 64 : 192;
    00000DEA 78               [ 4] 2399 	ld	a, b
    00000DEB B7               [ 4] 2400 	or	a, a
    00000DEC 28 0B            [12] 2401 	jr	Z, 00279$
    00000DEE DD 36 F7 40      [19] 2402 	ld	-9 (ix), #0x40
    00000DF2 DD 36 F8 00      [19] 2403 	ld	-8 (ix), #0
    00000DF6 C3r01r0E         [10] 2404 	jp	00280$
    00000DF9                       2405 00279$:
    00000DF9 DD 36 F7 C0      [19] 2406 	ld	-9 (ix), #0xc0
    00000DFD DD 36 F8 00      [19] 2407 	ld	-8 (ix), #0
    00000E01                       2408 00280$:
    00000E01 DD 7E F7         [19] 2409 	ld	a, -9 (ix)
    00000E04 DD 77 FF         [19] 2410 	ld	-1 (ix), a
                                   2411 ;E:\Dropbox\FAUSTO\SVILUPPI\MSX\CODE\C\MSXgl\projects\soccerlgMSX2/soccerlg_s15_b3.c:267: i8 off_x = 0; i8 off_y = 0;
    00000E07 DD 36 F5 00      [19] 2412 	ld	-11 (ix), #0x00
    00000E0B DD 36 F6 00      [19] 2413 	ld	-10 (ix), #0x00
                                   2414 ;E:\Dropbox\FAUSTO\SVILUPPI\MSX\CODE\C\MSXgl\projects\soccerlgMSX2/soccerlg_s15_b3.c:268: switch(role) {
    00000E0F 3E 06            [ 7] 2415 	ld	a, #0x06
    00000E11 DD 96 F9         [19] 2416 	sub	a, -7 (ix)
    00000E14 38 6B            [12] 2417 	jr	C, 00136$
    00000E16 DD 4E F9         [19] 2418 	ld	c, -7 (ix)
    00000E19 06 00            [ 7] 2419 	ld	b, #0x00
    00000E1B 21r22r0E         [10] 2420 	ld	hl, #00904$
    00000E1E 09               [11] 2421 	add	hl, bc
    00000E1F 09               [11] 2422 	add	hl, bc
    00000E20 09               [11] 2423 	add	hl, bc
    00000E21 E9               [ 4] 2424 	jp	(hl)
    00000E22                       2425 00904$:
    00000E22 C3r37r0E         [10] 2426 	jp	00129$
    00000E25 C3r42r0E         [10] 2427 	jp	00130$
    00000E28 C3r4Dr0E         [10] 2428 	jp	00131$
    00000E2B C3r58r0E         [10] 2429 	jp	00132$
    00000E2E C3r63r0E         [10] 2430 	jp	00133$
    00000E31 C3r6Er0E         [10] 2431 	jp	00134$
    00000E34 C3r79r0E         [10] 2432 	jp	00135$
                                   2433 ;E:\Dropbox\FAUSTO\SVILUPPI\MSX\CODE\C\MSXgl\projects\soccerlgMSX2/soccerlg_s15_b3.c:269: case 0: off_x = -18; off_y = -18; break; case 1: off_x =   2; off_y = -18; break;
    00000E37                       2434 00129$:
    00000E37 DD 36 F5 EE      [19] 2435 	ld	-11 (ix), #0xee
    00000E3B DD 36 F6 EE      [19] 2436 	ld	-10 (ix), #0xee
    00000E3F C3r81r0E         [10] 2437 	jp	00136$
    00000E42                       2438 00130$:
    00000E42 DD 36 F5 02      [19] 2439 	ld	-11 (ix), #0x02
    00000E46 DD 36 F6 EE      [19] 2440 	ld	-10 (ix), #0xee
    00000E4A C3r81r0E         [10] 2441 	jp	00136$
                                   2442 ;E:\Dropbox\FAUSTO\SVILUPPI\MSX\CODE\C\MSXgl\projects\soccerlgMSX2/soccerlg_s15_b3.c:270: case 2: off_x =  22; off_y = -18; break; case 3: off_x = -22; off_y =   2; break;
    00000E4D                       2443 00131$:
    00000E4D DD 36 F5 16      [19] 2444 	ld	-11 (ix), #0x16
    00000E51 DD 36 F6 EE      [19] 2445 	ld	-10 (ix), #0xee
    00000E55 C3r81r0E         [10] 2446 	jp	00136$
    00000E58                       2447 00132$:
    00000E58 DD 36 F5 EA      [19] 2448 	ld	-11 (ix), #0xea
    00000E5C DD 36 F6 02      [19] 2449 	ld	-10 (ix), #0x02
    00000E60 C3r81r0E         [10] 2450 	jp	00136$
                                   2451 ;E:\Dropbox\FAUSTO\SVILUPPI\MSX\CODE\C\MSXgl\projects\soccerlgMSX2/soccerlg_s15_b3.c:271: case 4: off_x =  -2; off_y =   2; break; case 5: off_x =  18; off_y =   2; break;
    00000E63                       2452 00133$:
    00000E63 DD 36 F5 FE      [19] 2453 	ld	-11 (ix), #0xfe
    00000E67 DD 36 F6 02      [19] 2454 	ld	-10 (ix), #0x02
    00000E6B C3r81r0E         [10] 2455 	jp	00136$
    00000E6E                       2456 00134$:
    00000E6E DD 36 F5 12      [19] 2457 	ld	-11 (ix), #0x12
    00000E72 DD 36 F6 02      [19] 2458 	ld	-10 (ix), #0x02
    00000E76 C3r81r0E         [10] 2459 	jp	00136$
                                   2460 ;E:\Dropbox\FAUSTO\SVILUPPI\MSX\CODE\C\MSXgl\projects\soccerlgMSX2/soccerlg_s15_b3.c:272: case 6: off_x = -10; off_y =  22; break;
    00000E79                       2461 00135$:
    00000E79 DD 36 F5 F6      [19] 2462 	ld	-11 (ix), #0xf6
    00000E7D DD 36 F6 16      [19] 2463 	ld	-10 (ix), #0x16
                                   2464 ;E:\Dropbox\FAUSTO\SVILUPPI\MSX\CODE\C\MSXgl\projects\soccerlgMSX2/soccerlg_s15_b3.c:273: }
    00000E81                       2465 00136$:
                                   2466 ;E:\Dropbox\FAUSTO\SVILUPPI\MSX\CODE\C\MSXgl\projects\soccerlgMSX2/soccerlg_s15_b3.c:274: SwSprite[p_idx].tx = (u8)(t_cx + off_x); SwSprite[p_idx].ty = (u16)(256 + off_y);
    00000E81 DD 4E FA         [19] 2467 	ld	c, -6 (ix)
    00000E84 06 00            [ 7] 2468 	ld	b, #0x00
    00000E86 69               [ 4] 2469 	ld	l, c
    00000E87 60               [ 4] 2470 	ld	h, b
    00000E88 29               [11] 2471 	add	hl, hl
    00000E89 29               [11] 2472 	add	hl, hl
    00000E8A 09               [11] 2473 	add	hl, bc
    00000E8B 29               [11] 2474 	add	hl, hl
    00000E8C 09               [11] 2475 	add	hl, bc
    00000E8D 29               [11] 2476 	add	hl, hl
    00000E8E 09               [11] 2477 	add	hl, bc
    00000E8F DD 75 F9         [19] 2478 	ld	-7 (ix), l
    00000E92 DD 74 FA         [19] 2479 	ld	-6 (ix), h
    00000E95 3Er00            [ 7] 2480 	ld	a, #<(_SwSprite)
    00000E97 DD 86 F9         [19] 2481 	add	a, -7 (ix)
    00000E9A DD 77 F7         [19] 2482 	ld	-9 (ix), a
    00000E9D 3Es00            [ 7] 2483 	ld	a, #>(_SwSprite)
    00000E9F DD 8E FA         [19] 2484 	adc	a, -6 (ix)
    00000EA2 DD 77 F8         [19] 2485 	ld	-8 (ix), a
    00000EA5 DD 7E F7         [19] 2486 	ld	a, -9 (ix)
    00000EA8 C6 0C            [ 7] 2487 	add	a, #0x0c
    00000EAA DD 77 F9         [19] 2488 	ld	-7 (ix), a
    00000EAD DD 7E F8         [19] 2489 	ld	a, -8 (ix)
    00000EB0 CE 00            [ 7] 2490 	adc	a, #0x00
    00000EB2 DD 77 FA         [19] 2491 	ld	-6 (ix), a
    00000EB5 DD 7E FF         [19] 2492 	ld	a, -1 (ix)
    00000EB8 DD 86 F5         [19] 2493 	add	a, -11 (ix)
    00000EBB DD 77 FF         [19] 2494 	ld	-1 (ix), a
    00000EBE DD 6E F9         [19] 2495 	ld	l, -7 (ix)
    00000EC1 DD 66 FA         [19] 2496 	ld	h, -6 (ix)
    00000EC4 77               [ 7] 2497 	ld	(hl), a
    00000EC5 DD 7E F7         [19] 2498 	ld	a, -9 (ix)
    00000EC8 C6 0D            [ 7] 2499 	add	a, #0x0d
    00000ECA DD 77 F9         [19] 2500 	ld	-7 (ix), a
    00000ECD DD 7E F8         [19] 2501 	ld	a, -8 (ix)
    00000ED0 CE 00            [ 7] 2502 	adc	a, #0x00
    00000ED2 DD 77 FA         [19] 2503 	ld	-6 (ix), a
    00000ED5 DD 7E F6         [19] 2504 	ld	a, -10 (ix)
    00000ED8 DD 77 F3         [19] 2505 	ld	-13 (ix), a
    00000EDB 07               [ 4] 2506 	rlca
    00000EDC 9F               [ 4] 2507 	sbc	a, a
    00000EDD DD 77 F4         [19] 2508 	ld	-12 (ix), a
    00000EE0 DD 7E F3         [19] 2509 	ld	a, -13 (ix)
    00000EE3 DD 77 F7         [19] 2510 	ld	-9 (ix), a
    00000EE6 DD 7E F4         [19] 2511 	ld	a, -12 (ix)
    00000EE9 3C               [ 4] 2512 	inc	a
    00000EEA DD 77 F8         [19] 2513 	ld	-8 (ix), a
    00000EED DD 6E F9         [19] 2514 	ld	l, -7 (ix)
    00000EF0 DD 66 FA         [19] 2515 	ld	h, -6 (ix)
    00000EF3 DD 7E F7         [19] 2516 	ld	a, -9 (ix)
    00000EF6 77               [ 7] 2517 	ld	(hl), a
    00000EF7 23               [ 6] 2518 	inc	hl
    00000EF8 DD 7E F8         [19] 2519 	ld	a, -8 (ix)
    00000EFB 77               [ 7] 2520 	ld	(hl), a
                                   2521 ;E:\Dropbox\FAUSTO\SVILUPPI\MSX\CODE\C\MSXgl\projects\soccerlgMSX2/soccerlg_s15_b3.c:276: p_idx = keeper_idx;
    00000EFC DD 7E E6         [19] 2522 	ld	a, -26 (ix)
    00000EFF DD 77 FA         [19] 2523 	ld	-6 (ix), a
                                   2524 ;E:\Dropbox\FAUSTO\SVILUPPI\MSX\CODE\C\MSXgl\projects\soccerlgMSX2/soccerlg_s15_b3.c:277: role = (p_idx < 7) ? p_idx : p_idx - 7;
    00000F02 DD 7E E6         [19] 2525 	ld	a, -26 (ix)
    00000F05 D6 07            [ 7] 2526 	sub	a, #0x07
    00000F07 30 09            [12] 2527 	jr	NC, 00281$
    00000F09 DD 7E E6         [19] 2528 	ld	a, -26 (ix)
    00000F0C DD 77 FF         [19] 2529 	ld	-1 (ix), a
    00000F0F C3r1Dr0F         [10] 2530 	jp	00282$
    00000F12                       2531 00281$:
    00000F12 DD 7E E6         [19] 2532 	ld	a, -26 (ix)
    00000F15 DD 77 FF         [19] 2533 	ld	-1 (ix), a
    00000F18 C6 F9            [ 7] 2534 	add	a, #0xf9
    00000F1A DD 77 FF         [19] 2535 	ld	-1 (ix), a
    00000F1D                       2536 00282$:
                                   2537 ;E:\Dropbox\FAUSTO\SVILUPPI\MSX\CODE\C\MSXgl\projects\soccerlgMSX2/soccerlg_s15_b3.c:278: t_cx = (p_idx < 7) ? 64 : 192;
    00000F1D DD 7E FA         [19] 2538 	ld	a, -6 (ix)
    00000F20 D6 07            [ 7] 2539 	sub	a, #0x07
    00000F22 30 0B            [12] 2540 	jr	NC, 00283$
    00000F24 DD 36 F8 40      [19] 2541 	ld	-8 (ix), #0x40
    00000F28 DD 36 F9 00      [19] 2542 	ld	-7 (ix), #0
    00000F2C C3r37r0F         [10] 2543 	jp	00284$
    00000F2F                       2544 00283$:
    00000F2F DD 36 F8 C0      [19] 2545 	ld	-8 (ix), #0xc0
    00000F33 DD 36 F9 00      [19] 2546 	ld	-7 (ix), #0
    00000F37                       2547 00284$:
    00000F37 DD 4E F8         [19] 2548 	ld	c, -8 (ix)
                                   2549 ;E:\Dropbox\FAUSTO\SVILUPPI\MSX\CODE\C\MSXgl\projects\soccerlgMSX2/soccerlg_s15_b3.c:279: switch(role) {
    00000F3A 3E 06            [ 7] 2550 	ld	a, #0x06
    00000F3C DD 96 FF         [19] 2551 	sub	a, -1 (ix)
    00000F3F 38 63            [12] 2552 	jr	C, 00144$
    00000F41 DD 5E FF         [19] 2553 	ld	e, -1 (ix)
    00000F44 16 00            [ 7] 2554 	ld	d, #0x00
    00000F46 21r4Cr0F         [10] 2555 	ld	hl, #00905$
    00000F49 19               [11] 2556 	add	hl, de
    00000F4A 19               [11] 2557 	add	hl, de
                                   2558 ;E:\Dropbox\FAUSTO\SVILUPPI\MSX\CODE\C\MSXgl\projects\soccerlgMSX2/soccerlg_s15_b3.c:280: case 0: off_x = -18; off_y = -18; break; case 1: off_x =   2; off_y = -18; break;
    00000F4B E9               [ 4] 2559 	jp	(hl)
    00000F4C                       2560 00905$:
    00000F4C 18 0C            [12] 2561 	jr	00137$
    00000F4E 18 15            [12] 2562 	jr	00138$
    00000F50 18 1E            [12] 2563 	jr	00139$
    00000F52 18 27            [12] 2564 	jr	00140$
    00000F54 18 30            [12] 2565 	jr	00141$
    00000F56 18 39            [12] 2566 	jr	00142$
    00000F58 18 42            [12] 2567 	jr	00143$
    00000F5A                       2568 00137$:
    00000F5A DD 36 F5 EE      [19] 2569 	ld	-11 (ix), #0xee
    00000F5E DD 36 F6 EE      [19] 2570 	ld	-10 (ix), #0xee
    00000F62 C3rA4r0F         [10] 2571 	jp	00144$
    00000F65                       2572 00138$:
    00000F65 DD 36 F5 02      [19] 2573 	ld	-11 (ix), #0x02
    00000F69 DD 36 F6 EE      [19] 2574 	ld	-10 (ix), #0xee
    00000F6D C3rA4r0F         [10] 2575 	jp	00144$
                                   2576 ;E:\Dropbox\FAUSTO\SVILUPPI\MSX\CODE\C\MSXgl\projects\soccerlgMSX2/soccerlg_s15_b3.c:281: case 2: off_x =  22; off_y = -18; break; case 3: off_x = -22; off_y =   2; break;
    00000F70                       2577 00139$:
    00000F70 DD 36 F5 16      [19] 2578 	ld	-11 (ix), #0x16
    00000F74 DD 36 F6 EE      [19] 2579 	ld	-10 (ix), #0xee
    00000F78 C3rA4r0F         [10] 2580 	jp	00144$
    00000F7B                       2581 00140$:
    00000F7B DD 36 F5 EA      [19] 2582 	ld	-11 (ix), #0xea
    00000F7F DD 36 F6 02      [19] 2583 	ld	-10 (ix), #0x02
    00000F83 C3rA4r0F         [10] 2584 	jp	00144$
                                   2585 ;E:\Dropbox\FAUSTO\SVILUPPI\MSX\CODE\C\MSXgl\projects\soccerlgMSX2/soccerlg_s15_b3.c:282: case 4: off_x =  -2; off_y =   2; break; case 5: off_x =  18; off_y =   2; break;
    00000F86                       2586 00141$:
    00000F86 DD 36 F5 FE      [19] 2587 	ld	-11 (ix), #0xfe
    00000F8A DD 36 F6 02      [19] 2588 	ld	-10 (ix), #0x02
    00000F8E C3rA4r0F         [10] 2589 	jp	00144$
    00000F91                       2590 00142$:
    00000F91 DD 36 F5 12      [19] 2591 	ld	-11 (ix), #0x12
    00000F95 DD 36 F6 02      [19] 2592 	ld	-10 (ix), #0x02
    00000F99 C3rA4r0F         [10] 2593 	jp	00144$
                                   2594 ;E:\Dropbox\FAUSTO\SVILUPPI\MSX\CODE\C\MSXgl\projects\soccerlgMSX2/soccerlg_s15_b3.c:283: case 6: off_x = -10; off_y =  22; break;
    00000F9C                       2595 00143$:
    00000F9C DD 36 F5 F6      [19] 2596 	ld	-11 (ix), #0xf6
    00000FA0 DD 36 F6 16      [19] 2597 	ld	-10 (ix), #0x16
                                   2598 ;E:\Dropbox\FAUSTO\SVILUPPI\MSX\CODE\C\MSXgl\projects\soccerlgMSX2/soccerlg_s15_b3.c:284: }
    00000FA4                       2599 00144$:
                                   2600 ;E:\Dropbox\FAUSTO\SVILUPPI\MSX\CODE\C\MSXgl\projects\soccerlgMSX2/soccerlg_s15_b3.c:285: SwSprite[p_idx].tx = (u8)(t_cx + off_x); SwSprite[p_idx].ty = (u16)(256 + off_y);
    00000FA4 DD 5E FA         [19] 2601 	ld	e, -6 (ix)
    00000FA7 16 00            [ 7] 2602 	ld	d, #0x00
    00000FA9 6B               [ 4] 2603 	ld	l, e
    00000FAA 62               [ 4] 2604 	ld	h, d
    00000FAB 29               [11] 2605 	add	hl, hl
    00000FAC 29               [11] 2606 	add	hl, hl
    00000FAD 19               [11] 2607 	add	hl, de
    00000FAE 29               [11] 2608 	add	hl, hl
    00000FAF 19               [11] 2609 	add	hl, de
    00000FB0 29               [11] 2610 	add	hl, hl
    00000FB1 19               [11] 2611 	add	hl, de
    00000FB2 EB               [ 4] 2612 	ex	de, hl
    00000FB3 21r00r00         [10] 2613 	ld	hl, #_SwSprite
    00000FB6 19               [11] 2614 	add	hl, de
    00000FB7 EB               [ 4] 2615 	ex	de, hl
    00000FB8 21 0C 00         [10] 2616 	ld	hl, #0x000c
    00000FBB 19               [11] 2617 	add	hl, de
    00000FBC 79               [ 4] 2618 	ld	a, c
    00000FBD DD 86 F5         [19] 2619 	add	a, -11 (ix)
    00000FC0 77               [ 7] 2620 	ld	(hl), a
    00000FC1 21 0D 00         [10] 2621 	ld	hl, #0x000d
    00000FC4 19               [11] 2622 	add	hl, de
    00000FC5 DD 7E F6         [19] 2623 	ld	a, -10 (ix)
    00000FC8 4F               [ 4] 2624 	ld	c, a
    00000FC9 07               [ 4] 2625 	rlca
    00000FCA 9F               [ 4] 2626 	sbc	a, a
    00000FCB 47               [ 4] 2627 	ld	b, a
    00000FCC 3C               [ 4] 2628 	inc	a
    00000FCD 71               [ 7] 2629 	ld	(hl), c
    00000FCE 23               [ 6] 2630 	inc	hl
    00000FCF 77               [ 7] 2631 	ld	(hl), a
                                   2632 ;E:\Dropbox\FAUSTO\SVILUPPI\MSX\CODE\C\MSXgl\projects\soccerlgMSX2/soccerlg_s15_b3.c:288: SwSprite[26].tx = (u8)(128 + 24); SwSprite[26].ty = (u16)(256 - 24);
    00000FD0 21r62r02         [10] 2633 	ld	hl, #(_SwSprite + 610)
    00000FD3 36 98            [10] 2634 	ld	(hl), #0x98
    00000FD5 21 E8 00         [10] 2635 	ld	hl, #0x00e8
    00000FD8 22r63r02         [16] 2636 	ld	((_SwSprite + 611)), hl
                                   2637 ;E:\Dropbox\FAUSTO\SVILUPPI\MSX\CODE\C\MSXgl\projects\soccerlgMSX2/soccerlg_s15_b3.c:290: *game_state = 16; // Prepara ritorno a centrocampo
    00000FDB DD 6E FD         [19] 2638 	ld	l, -3 (ix)
    00000FDE DD 66 FE         [19] 2639 	ld	h, -2 (ix)
    00000FE1 36 10            [10] 2640 	ld	(hl), #0x10
    00000FE3 C3rAFr1C         [10] 2641 	jp	00263$
    00000FE6                       2642 00253$:
                                   2643 ;E:\Dropbox\FAUSTO\SVILUPPI\MSX\CODE\C\MSXgl\projects\soccerlgMSX2/soccerlg_s15_b3.c:294: else if(*game_state == 16) { // STATO 16: Ritorno a centrocampo
    00000FE6 DD 7E FF         [19] 2644 	ld	a, -1 (ix)
    00000FE9 B7               [ 4] 2645 	or	a, a
    00000FEA CAr9Fr14         [10] 2646 	jp	Z, 00250$
                                   2647 ;E:\Dropbox\FAUSTO\SVILUPPI\MSX\CODE\C\MSXgl\projects\soccerlgMSX2/soccerlg_s15_b3.c:295: bool all_in_position = TRUE;
    00000FED DD 36 E7 01      [19] 2648 	ld	-25 (ix), #0x01
                                   2649 ;E:\Dropbox\FAUSTO\SVILUPPI\MSX\CODE\C\MSXgl\projects\soccerlgMSX2/soccerlg_s15_b3.c:298: u16 cam_target = (SwSprite[keeper_idx].ly < 96) ? 0 : SwSprite[keeper_idx].ly - 96;
    00000FF1 DD 4E E6         [19] 2650 	ld	c, -26 (ix)
    00000FF4 06 00            [ 7] 2651 	ld	b, #0x00
    00000FF6 69               [ 4] 2652 	ld	l, c
    00000FF7 60               [ 4] 2653 	ld	h, b
    00000FF8 29               [11] 2654 	add	hl, hl
    00000FF9 29               [11] 2655 	add	hl, hl
    00000FFA 09               [11] 2656 	add	hl, bc
    00000FFB 29               [11] 2657 	add	hl, hl
    00000FFC 09               [11] 2658 	add	hl, bc
    00000FFD 29               [11] 2659 	add	hl, hl
    00000FFE 09               [11] 2660 	add	hl, bc
    00000FFF 11r00r00         [10] 2661 	ld	de, #_SwSprite
    00001002 19               [11] 2662 	add	hl, de
    00001003 11 04 00         [10] 2663 	ld	de, #0x0004
    00001006 19               [11] 2664 	add	hl, de
    00001007 4E               [ 7] 2665 	ld	c, (hl)
    00001008 23               [ 6] 2666 	inc	hl
    00001009 46               [ 7] 2667 	ld	b, (hl)
    0000100A 79               [ 4] 2668 	ld	a, c
    0000100B D6 60            [ 7] 2669 	sub	a, #0x60
    0000100D 78               [ 4] 2670 	ld	a, b
    0000100E DE 00            [ 7] 2671 	sbc	a, #0x00
    00001010 30 06            [12] 2672 	jr	NC, 00285$
    00001012 01 00 00         [10] 2673 	ld	bc, #0x0000
    00001015 C3r20r10         [10] 2674 	jp	00286$
    00001018                       2675 00285$:
    00001018 79               [ 4] 2676 	ld	a, c
    00001019 C6 A0            [ 7] 2677 	add	a, #0xa0
    0000101B 4F               [ 4] 2678 	ld	c, a
    0000101C 78               [ 4] 2679 	ld	a, b
    0000101D CE FF            [ 7] 2680 	adc	a, #0xff
    0000101F 47               [ 4] 2681 	ld	b, a
    00001020                       2682 00286$:
                                   2683 ;E:\Dropbox\FAUSTO\SVILUPPI\MSX\CODE\C\MSXgl\projects\soccerlgMSX2/soccerlg_s15_b3.c:299: if (cam_target > 512 - 192) cam_target = 512 - 192; // clamp visivo
    00001020 59               [ 4] 2684 	ld	e, c
    00001021 50               [ 4] 2685 	ld	d, b
    00001022 3E 40            [ 7] 2686 	ld	a, #0x40
    00001024 BB               [ 4] 2687 	cp	a, e
    00001025 3E 01            [ 7] 2688 	ld	a, #0x01
    00001027 9A               [ 4] 2689 	sbc	a, d
    00001028 30 03            [12] 2690 	jr	NC, 00153$
    0000102A 01 40 01         [10] 2691 	ld	bc, #0x0140
    0000102D                       2692 00153$:
                                   2693 ;E:\Dropbox\FAUSTO\SVILUPPI\MSX\CODE\C\MSXgl\projects\soccerlgMSX2/soccerlg_s15_b3.c:300: if (Field.ly > cam_target + 3) { Field.dy = -4; Field.ly += Field.dy; all_in_position = FALSE; }
    0000102D ED 5Br04r00      [20] 2694 	ld	de, (#(_Field + 4) + 0)
    00001031 69               [ 4] 2695 	ld	l, c
                                   2696 ;	spillPairReg hl
                                   2697 ;	spillPairReg hl
    00001032 60               [ 4] 2698 	ld	h, b
                                   2699 ;	spillPairReg hl
                                   2700 ;	spillPairReg hl
    00001033 23               [ 6] 2701 	inc	hl
    00001034 23               [ 6] 2702 	inc	hl
    00001035 23               [ 6] 2703 	inc	hl
    00001036 DD 73 F9         [19] 2704 	ld	-7 (ix), e
    00001039 DD 72 FA         [19] 2705 	ld	-6 (ix), d
    0000103C 7D               [ 4] 2706 	ld	a, l
    0000103D DD 96 F9         [19] 2707 	sub	a, -7 (ix)
    00001040 7C               [ 4] 2708 	ld	a, h
    00001041 DD 9E FA         [19] 2709 	sbc	a, -6 (ix)
    00001044 30 1D            [12] 2710 	jr	NC, 00161$
    00001046 21r12r00         [10] 2711 	ld	hl, #(_Field + 18)
    00001049 36 FC            [10] 2712 	ld	(hl), #0xfc
    0000104B ED 4Br04r00      [20] 2713 	ld	bc, (#(_Field + 4) + 0)
    0000104F 3Ar12r00         [13] 2714 	ld	a, (#(_Field + 18) + 0)
    00001052 6F               [ 4] 2715 	ld	l, a
                                   2716 ;	spillPairReg hl
                                   2717 ;	spillPairReg hl
    00001053 07               [ 4] 2718 	rlca
    00001054 9F               [ 4] 2719 	sbc	a, a
    00001055 67               [ 4] 2720 	ld	h, a
                                   2721 ;	spillPairReg hl
                                   2722 ;	spillPairReg hl
    00001056 09               [11] 2723 	add	hl, bc
    00001057 EB               [ 4] 2724 	ex	de, hl
    00001058 ED 53r04r00      [20] 2725 	ld	((_Field + 4)), de
    0000105C DD 36 E7 00      [19] 2726 	ld	-25 (ix), #0x00
    00001060 C3rABr10         [10] 2727 	jp	00422$
    00001063                       2728 00161$:
                                   2729 ;E:\Dropbox\FAUSTO\SVILUPPI\MSX\CODE\C\MSXgl\projects\soccerlgMSX2/soccerlg_s15_b3.c:301: else if (Field.ly + 3 < cam_target) { Field.dy = 4; Field.ly += Field.dy; all_in_position = FALSE; }
    00001063 DD 6E F9         [19] 2730 	ld	l, -7 (ix)
                                   2731 ;	spillPairReg hl
                                   2732 ;	spillPairReg hl
    00001066 DD 66 FA         [19] 2733 	ld	h, -6 (ix)
                                   2734 ;	spillPairReg hl
                                   2735 ;	spillPairReg hl
    00001069 23               [ 6] 2736 	inc	hl
    0000106A 23               [ 6] 2737 	inc	hl
    0000106B 23               [ 6] 2738 	inc	hl
    0000106C AF               [ 4] 2739 	xor	a, a
    0000106D ED 42            [15] 2740 	sbc	hl, bc
    0000106F 30 1D            [12] 2741 	jr	NC, 00158$
    00001071 21r12r00         [10] 2742 	ld	hl, #(_Field + 18)
    00001074 36 04            [10] 2743 	ld	(hl), #0x04
    00001076 ED 4Br04r00      [20] 2744 	ld	bc, (#(_Field + 4) + 0)
    0000107A 3Ar12r00         [13] 2745 	ld	a, (#(_Field + 18) + 0)
    0000107D 6F               [ 4] 2746 	ld	l, a
                                   2747 ;	spillPairReg hl
                                   2748 ;	spillPairReg hl
    0000107E 07               [ 4] 2749 	rlca
    0000107F 9F               [ 4] 2750 	sbc	a, a
    00001080 67               [ 4] 2751 	ld	h, a
                                   2752 ;	spillPairReg hl
                                   2753 ;	spillPairReg hl
    00001081 09               [11] 2754 	add	hl, bc
    00001082 EB               [ 4] 2755 	ex	de, hl
    00001083 ED 53r04r00      [20] 2756 	ld	((_Field + 4)), de
    00001087 DD 36 E7 00      [19] 2757 	ld	-25 (ix), #0x00
    0000108B C3rABr10         [10] 2758 	jp	00422$
    0000108E                       2759 00158$:
                                   2760 ;E:\Dropbox\FAUSTO\SVILUPPI\MSX\CODE\C\MSXgl\projects\soccerlgMSX2/soccerlg_s15_b3.c:302: else if (Field.ly != cam_target) { Field.dy = (i8)(cam_target - Field.ly); Field.ly = cam_target; all_in_position = FALSE; }
    0000108E 69               [ 4] 2761 	ld	l, c
    0000108F 60               [ 4] 2762 	ld	h, b
    00001090 BF               [ 4] 2763 	cp	a, a
    00001091 ED 52            [15] 2764 	sbc	hl, de
    00001093 28 11            [12] 2765 	jr	Z, 00155$
    00001095 79               [ 4] 2766 	ld	a, c
    00001096 93               [ 4] 2767 	sub	a, e
    00001097 21r12r00         [10] 2768 	ld	hl, #(_Field + 18)
    0000109A 77               [ 7] 2769 	ld	(hl), a
    0000109B ED 43r04r00      [20] 2770 	ld	((_Field + 4)), bc
    0000109F DD 36 E7 00      [19] 2771 	ld	-25 (ix), #0x00
    000010A3 C3rABr10         [10] 2772 	jp	00422$
    000010A6                       2773 00155$:
                                   2774 ;E:\Dropbox\FAUSTO\SVILUPPI\MSX\CODE\C\MSXgl\projects\soccerlgMSX2/soccerlg_s15_b3.c:303: else { Field.dy = 0; }
    000010A6 21r12r00         [10] 2775 	ld	hl, #(_Field + 18)
    000010A9 36 00            [10] 2776 	ld	(hl), #0x00
                                   2777 ;E:\Dropbox\FAUSTO\SVILUPPI\MSX\CODE\C\MSXgl\projects\soccerlgMSX2/soccerlg_s15_b3.c:305: for(u8 i=0; i<3; i++) {
    000010AB                       2778 00422$:
    000010AB DD 36 FF 00      [19] 2779 	ld	-1 (ix), #0x00
    000010AF                       2780 00259$:
    000010AF DD 7E FF         [19] 2781 	ld	a, -1 (ix)
    000010B2 D6 03            [ 7] 2782 	sub	a, #0x03
    000010B4 D2r85r14         [10] 2783 	jp	NC, 00194$
                                   2784 ;E:\Dropbox\FAUSTO\SVILUPPI\MSX\CODE\C\MSXgl\projects\soccerlgMSX2/soccerlg_s15_b3.c:306: u8 actor_idx = (i == 0) ? g_penalty_shooter_idx : ((i == 1) ? keeper_idx : 26);
    000010B7 DD 7E FF         [19] 2785 	ld	a, -1 (ix)
    000010BA B7               [ 4] 2786 	or	a, a
    000010BB 20 06            [12] 2787 	jr	NZ, 00287$
    000010BD 3Ar00r00         [13] 2788 	ld	a, (_g_penalty_shooter_idx+0)
    000010C0 C3rD1r10         [10] 2789 	jp	00288$
    000010C3                       2790 00287$:
    000010C3 DD 7E FF         [19] 2791 	ld	a, -1 (ix)
    000010C6 3D               [ 4] 2792 	dec	a
    000010C7 20 06            [12] 2793 	jr	NZ, 00289$
    000010C9 DD 7E E6         [19] 2794 	ld	a, -26 (ix)
    000010CC C3rD1r10         [10] 2795 	jp	00290$
    000010CF                       2796 00289$:
    000010CF 3E 1A            [ 7] 2797 	ld	a, #0x1a
    000010D1                       2798 00290$:
    000010D1                       2799 00288$:
                                   2800 ;E:\Dropbox\FAUSTO\SVILUPPI\MSX\CODE\C\MSXgl\projects\soccerlgMSX2/soccerlg_s15_b3.c:307: struct ObjectInfo* p = &SwSprite[actor_idx];
    000010D1 DD 77 E8         [19] 2801 	ld	-24 (ix), a
    000010D4 4F               [ 4] 2802 	ld	c, a
    000010D5 06 00            [ 7] 2803 	ld	b, #0x00
    000010D7 69               [ 4] 2804 	ld	l, c
    000010D8 60               [ 4] 2805 	ld	h, b
    000010D9 29               [11] 2806 	add	hl, hl
    000010DA 29               [11] 2807 	add	hl, hl
    000010DB 09               [11] 2808 	add	hl, bc
    000010DC 29               [11] 2809 	add	hl, hl
    000010DD 09               [11] 2810 	add	hl, bc
    000010DE 29               [11] 2811 	add	hl, hl
    000010DF 09               [11] 2812 	add	hl, bc
    000010E0 11r00r00         [10] 2813 	ld	de, #_SwSprite
    000010E3 19               [11] 2814 	add	hl, de
                                   2815 ;E:\Dropbox\FAUSTO\SVILUPPI\MSX\CODE\C\MSXgl\projects\soccerlgMSX2/soccerlg_s15_b3.c:308: if (p->lx != p->tx || p->ly != p->ty) {
    000010E4 DD 75 E9         [19] 2816 	ld	-23 (ix), l
    000010E7 DD 74 EA         [19] 2817 	ld	-22 (ix), h
    000010EA 7E               [ 7] 2818 	ld	a, (hl)
    000010EB DD 77 F9         [19] 2819 	ld	-7 (ix), a
    000010EE DD 4E E9         [19] 2820 	ld	c, -23 (ix)
    000010F1 DD 46 EA         [19] 2821 	ld	b, -22 (ix)
    000010F4 21 0C 00         [10] 2822 	ld	hl, #12
    000010F7 09               [11] 2823 	add	hl, bc
    000010F8 7E               [ 7] 2824 	ld	a, (hl)
    000010F9 DD 77 FA         [19] 2825 	ld	-6 (ix), a
    000010FC DD 7E E9         [19] 2826 	ld	a, -23 (ix)
    000010FF C6 04            [ 7] 2827 	add	a, #0x04
    00001101 DD 77 EB         [19] 2828 	ld	-21 (ix), a
    00001104 DD 7E EA         [19] 2829 	ld	a, -22 (ix)
    00001107 CE 00            [ 7] 2830 	adc	a, #0x00
    00001109 DD 77 EC         [19] 2831 	ld	-20 (ix), a
    0000110C DD 7E E9         [19] 2832 	ld	a, -23 (ix)
    0000110F C6 0D            [ 7] 2833 	add	a, #0x0d
    00001111 DD 77 ED         [19] 2834 	ld	-19 (ix), a
    00001114 DD 7E EA         [19] 2835 	ld	a, -22 (ix)
    00001117 CE 00            [ 7] 2836 	adc	a, #0x00
    00001119 DD 77 EE         [19] 2837 	ld	-18 (ix), a
                                   2838 ;E:\Dropbox\FAUSTO\SVILUPPI\MSX\CODE\C\MSXgl\projects\soccerlgMSX2/soccerlg_s15_b3.c:311: if (p->tx > p->lx) p->dx = (i8)((p->tx - p->lx >= 2) ? 2 : 1); 
    0000111C DD 7E E9         [19] 2839 	ld	a, -23 (ix)
    0000111F C6 11            [ 7] 2840 	add	a, #0x11
    00001121 DD 77 EF         [19] 2841 	ld	-17 (ix), a
    00001124 DD 7E EA         [19] 2842 	ld	a, -22 (ix)
    00001127 CE 00            [ 7] 2843 	adc	a, #0x00
    00001129 DD 77 F0         [19] 2844 	ld	-16 (ix), a
                                   2845 ;E:\Dropbox\FAUSTO\SVILUPPI\MSX\CODE\C\MSXgl\projects\soccerlgMSX2/soccerlg_s15_b3.c:315: if (p->ty > p->ly) p->dy = (i8)((p->ty - p->ly >= 2) ? 2 : 1); 
    0000112C DD 7E E9         [19] 2846 	ld	a, -23 (ix)
    0000112F C6 12            [ 7] 2847 	add	a, #0x12
    00001131 DD 77 F1         [19] 2848 	ld	-15 (ix), a
    00001134 DD 7E EA         [19] 2849 	ld	a, -22 (ix)
    00001137 CE 00            [ 7] 2850 	adc	a, #0x00
    00001139 DD 77 F2         [19] 2851 	ld	-14 (ix), a
                                   2852 ;E:\Dropbox\FAUSTO\SVILUPPI\MSX\CODE\C\MSXgl\projects\soccerlgMSX2/soccerlg_s15_b3.c:325: p->frame = (actor_idx < 7) ? 
    0000113C DD 7E E9         [19] 2853 	ld	a, -23 (ix)
    0000113F C6 0F            [ 7] 2854 	add	a, #0x0f
    00001141 DD 77 F3         [19] 2855 	ld	-13 (ix), a
    00001144 DD 7E EA         [19] 2856 	ld	a, -22 (ix)
    00001147 CE 00            [ 7] 2857 	adc	a, #0x00
    00001149 DD 77 F4         [19] 2858 	ld	-12 (ix), a
                                   2859 ;E:\Dropbox\FAUSTO\SVILUPPI\MSX\CODE\C\MSXgl\projects\soccerlgMSX2/soccerlg_s15_b3.c:308: if (p->lx != p->tx || p->ly != p->ty) {
    0000114C DD 7E F9         [19] 2860 	ld	a, -7 (ix)
    0000114F DD 96 FA         [19] 2861 	sub	a, -6 (ix)
    00001152 20 19            [12] 2862 	jr	NZ, 00190$
    00001154 DD 6E EB         [19] 2863 	ld	l, -21 (ix)
    00001157 DD 66 EC         [19] 2864 	ld	h, -20 (ix)
    0000115A 4E               [ 7] 2865 	ld	c, (hl)
    0000115B 23               [ 6] 2866 	inc	hl
    0000115C 46               [ 7] 2867 	ld	b, (hl)
    0000115D DD 6E ED         [19] 2868 	ld	l, -19 (ix)
    00001160 DD 66 EE         [19] 2869 	ld	h, -18 (ix)
    00001163 5E               [ 7] 2870 	ld	e, (hl)
    00001164 23               [ 6] 2871 	inc	hl
    00001165 66               [ 7] 2872 	ld	h, (hl)
                                   2873 ;	spillPairReg hl
    00001166 6B               [ 4] 2874 	ld	l, e
    00001167 BF               [ 4] 2875 	cp	a, a
    00001168 ED 42            [15] 2876 	sbc	hl, bc
    0000116A CAr22r14         [10] 2877 	jp	Z,00191$
    0000116D                       2878 00190$:
                                   2879 ;E:\Dropbox\FAUSTO\SVILUPPI\MSX\CODE\C\MSXgl\projects\soccerlgMSX2/soccerlg_s15_b3.c:309: all_in_position = FALSE;
    0000116D DD 36 E7 00      [19] 2880 	ld	-25 (ix), #0x00
                                   2881 ;E:\Dropbox\FAUSTO\SVILUPPI\MSX\CODE\C\MSXgl\projects\soccerlgMSX2/soccerlg_s15_b3.c:311: if (p->tx > p->lx) p->dx = (i8)((p->tx - p->lx >= 2) ? 2 : 1); 
    00001171 DD 7E F9         [19] 2882 	ld	a, -7 (ix)
    00001174 DD 96 FA         [19] 2883 	sub	a, -6 (ix)
    00001177 30 48            [12] 2884 	jr	NC, 00167$
    00001179 DD 7E FA         [19] 2885 	ld	a, -6 (ix)
    0000117C DD 77 F7         [19] 2886 	ld	-9 (ix), a
    0000117F DD 36 F8 00      [19] 2887 	ld	-8 (ix), #0x00
    00001183 DD 7E F9         [19] 2888 	ld	a, -7 (ix)
    00001186 DD 77 F5         [19] 2889 	ld	-11 (ix), a
    00001189 DD 36 F6 00      [19] 2890 	ld	-10 (ix), #0x00
    0000118D DD 7E F7         [19] 2891 	ld	a, -9 (ix)
    00001190 DD 96 F5         [19] 2892 	sub	a, -11 (ix)
    00001193 DD 77 F9         [19] 2893 	ld	-7 (ix), a
    00001196 DD 7E F8         [19] 2894 	ld	a, -8 (ix)
    00001199 DD 9E F6         [19] 2895 	sbc	a, -10 (ix)
    0000119C DD 77 FA         [19] 2896 	ld	-6 (ix), a
    0000119F DD 7E F9         [19] 2897 	ld	a, -7 (ix)
    000011A2 D6 02            [ 7] 2898 	sub	a, #0x02
    000011A4 DD 7E FA         [19] 2899 	ld	a, -6 (ix)
    000011A7 17               [ 4] 2900 	rla
    000011A8 3F               [ 4] 2901 	ccf
    000011A9 1F               [ 4] 2902 	rra
    000011AA DE 80            [ 7] 2903 	sbc	a, #0x80
    000011AC 38 06            [12] 2904 	jr	C, 00291$
    000011AE 11 02 00         [10] 2905 	ld	de, #0x0002
    000011B1 C3rB7r11         [10] 2906 	jp	00292$
    000011B4                       2907 00291$:
    000011B4 11 01 00         [10] 2908 	ld	de, #0x0001
    000011B7                       2909 00292$:
    000011B7 DD 6E EF         [19] 2910 	ld	l, -17 (ix)
    000011BA DD 66 F0         [19] 2911 	ld	h, -16 (ix)
    000011BD 73               [ 7] 2912 	ld	(hl), e
    000011BE C3r17r12         [10] 2913 	jp	00168$
    000011C1                       2914 00167$:
                                   2915 ;E:\Dropbox\FAUSTO\SVILUPPI\MSX\CODE\C\MSXgl\projects\soccerlgMSX2/soccerlg_s15_b3.c:312: else if (p->tx < p->lx) p->dx = (i8)((p->lx - p->tx >= 2) ? -2 : -1); 
    000011C1 DD 7E FA         [19] 2916 	ld	a, -6 (ix)
    000011C4 DD 96 F9         [19] 2917 	sub	a, -7 (ix)
    000011C7 30 46            [12] 2918 	jr	NC, 00164$
    000011C9 DD 7E F9         [19] 2919 	ld	a, -7 (ix)
    000011CC DD 77 F5         [19] 2920 	ld	-11 (ix), a
    000011CF DD 36 F6 00      [19] 2921 	ld	-10 (ix), #0x00
    000011D3 DD 7E FA         [19] 2922 	ld	a, -6 (ix)
    000011D6 DD 77 F7         [19] 2923 	ld	-9 (ix), a
    000011D9 DD 36 F8 00      [19] 2924 	ld	-8 (ix), #0x00
    000011DD DD 7E F5         [19] 2925 	ld	a, -11 (ix)
    000011E0 DD 96 F7         [19] 2926 	sub	a, -9 (ix)
    000011E3 DD 77 F9         [19] 2927 	ld	-7 (ix), a
    000011E6 DD 7E F6         [19] 2928 	ld	a, -10 (ix)
    000011E9 DD 9E F8         [19] 2929 	sbc	a, -8 (ix)
    000011EC DD 77 FA         [19] 2930 	ld	-6 (ix), a
    000011EF DD 7E F9         [19] 2931 	ld	a, -7 (ix)
    000011F2 D6 02            [ 7] 2932 	sub	a, #0x02
    000011F4 DD 7E FA         [19] 2933 	ld	a, -6 (ix)
    000011F7 17               [ 4] 2934 	rla
    000011F8 3F               [ 4] 2935 	ccf
    000011F9 1F               [ 4] 2936 	rra
    000011FA DE 80            [ 7] 2937 	sbc	a, #0x80
    000011FC 38 05            [12] 2938 	jr	C, 00293$
    000011FE 3E FE            [ 7] 2939 	ld	a, #0xfe
    00001200 C3r05r12         [10] 2940 	jp	00294$
    00001203                       2941 00293$:
    00001203 3E FF            [ 7] 2942 	ld	a, #0xff
    00001205                       2943 00294$:
    00001205 DD 6E EF         [19] 2944 	ld	l, -17 (ix)
    00001208 DD 66 F0         [19] 2945 	ld	h, -16 (ix)
    0000120B 77               [ 7] 2946 	ld	(hl), a
    0000120C C3r17r12         [10] 2947 	jp	00168$
    0000120F                       2948 00164$:
                                   2949 ;E:\Dropbox\FAUSTO\SVILUPPI\MSX\CODE\C\MSXgl\projects\soccerlgMSX2/soccerlg_s15_b3.c:313: else p->dx = 0;
    0000120F DD 6E EF         [19] 2950 	ld	l, -17 (ix)
    00001212 DD 66 F0         [19] 2951 	ld	h, -16 (ix)
    00001215 36 00            [10] 2952 	ld	(hl), #0x00
    00001217                       2953 00168$:
                                   2954 ;E:\Dropbox\FAUSTO\SVILUPPI\MSX\CODE\C\MSXgl\projects\soccerlgMSX2/soccerlg_s15_b3.c:315: if (p->ty > p->ly) p->dy = (i8)((p->ty - p->ly >= 2) ? 2 : 1); 
    00001217 DD 6E ED         [19] 2955 	ld	l, -19 (ix)
    0000121A DD 66 EE         [19] 2956 	ld	h, -18 (ix)
    0000121D 7E               [ 7] 2957 	ld	a, (hl)
    0000121E DD 77 F9         [19] 2958 	ld	-7 (ix), a
    00001221 23               [ 6] 2959 	inc	hl
    00001222 7E               [ 7] 2960 	ld	a, (hl)
    00001223 DD 77 FA         [19] 2961 	ld	-6 (ix), a
    00001226 DD 6E EB         [19] 2962 	ld	l, -21 (ix)
    00001229 DD 66 EC         [19] 2963 	ld	h, -20 (ix)
    0000122C 7E               [ 7] 2964 	ld	a, (hl)
    0000122D DD 77 F5         [19] 2965 	ld	-11 (ix), a
    00001230 23               [ 6] 2966 	inc	hl
    00001231 7E               [ 7] 2967 	ld	a, (hl)
    00001232 DD 77 F6         [19] 2968 	ld	-10 (ix), a
    00001235 DD 7E F5         [19] 2969 	ld	a, -11 (ix)
    00001238 DD 96 F9         [19] 2970 	sub	a, -7 (ix)
    0000123B DD 7E F6         [19] 2971 	ld	a, -10 (ix)
    0000123E DD 9E FA         [19] 2972 	sbc	a, -6 (ix)
    00001241 30 3D            [12] 2973 	jr	NC, 00173$
    00001243 DD 7E F9         [19] 2974 	ld	a, -7 (ix)
    00001246 DD 96 F5         [19] 2975 	sub	a, -11 (ix)
    00001249 DD 77 F7         [19] 2976 	ld	-9 (ix), a
    0000124C DD 7E FA         [19] 2977 	ld	a, -6 (ix)
    0000124F DD 9E F6         [19] 2978 	sbc	a, -10 (ix)
    00001252 DD 77 F8         [19] 2979 	ld	-8 (ix), a
    00001255 DD 7E F7         [19] 2980 	ld	a, -9 (ix)
    00001258 DD 77 F9         [19] 2981 	ld	-7 (ix), a
    0000125B DD 7E F8         [19] 2982 	ld	a, -8 (ix)
    0000125E DD 77 FA         [19] 2983 	ld	-6 (ix), a
    00001261 DD 7E F9         [19] 2984 	ld	a, -7 (ix)
    00001264 D6 02            [ 7] 2985 	sub	a, #0x02
    00001266 DD 7E FA         [19] 2986 	ld	a, -6 (ix)
    00001269 DE 00            [ 7] 2987 	sbc	a, #0x00
    0000126B 38 06            [12] 2988 	jr	C, 00295$
    0000126D 01 02 00         [10] 2989 	ld	bc, #0x0002
    00001270 C3r76r12         [10] 2990 	jp	00296$
    00001273                       2991 00295$:
    00001273 01 01 00         [10] 2992 	ld	bc, #0x0001
    00001276                       2993 00296$:
    00001276 DD 6E F1         [19] 2994 	ld	l, -15 (ix)
    00001279 DD 66 F2         [19] 2995 	ld	h, -14 (ix)
    0000127C 71               [ 7] 2996 	ld	(hl), c
    0000127D C3rBDr12         [10] 2997 	jp	00174$
    00001280                       2998 00173$:
                                   2999 ;E:\Dropbox\FAUSTO\SVILUPPI\MSX\CODE\C\MSXgl\projects\soccerlgMSX2/soccerlg_s15_b3.c:316: else if (p->ty < p->ly) p->dy = (i8)((p->ly - p->ty >= 2) ? -2 : -1); 
    00001280 DD 7E F9         [19] 3000 	ld	a, -7 (ix)
    00001283 DD 96 F5         [19] 3001 	sub	a, -11 (ix)
    00001286 DD 7E FA         [19] 3002 	ld	a, -6 (ix)
    00001289 DD 9E F6         [19] 3003 	sbc	a, -10 (ix)
    0000128C 30 27            [12] 3004 	jr	NC, 00170$
    0000128E DD 7E F5         [19] 3005 	ld	a, -11 (ix)
    00001291 DD 96 F9         [19] 3006 	sub	a, -7 (ix)
    00001294 4F               [ 4] 3007 	ld	c, a
    00001295 DD 7E F6         [19] 3008 	ld	a, -10 (ix)
    00001298 DD 9E FA         [19] 3009 	sbc	a, -6 (ix)
    0000129B 47               [ 4] 3010 	ld	b, a
    0000129C 79               [ 4] 3011 	ld	a, c
    0000129D D6 02            [ 7] 3012 	sub	a, #0x02
    0000129F 78               [ 4] 3013 	ld	a, b
    000012A0 DE 00            [ 7] 3014 	sbc	a, #0x00
    000012A2 38 05            [12] 3015 	jr	C, 00297$
    000012A4 3E FE            [ 7] 3016 	ld	a, #0xfe
    000012A6 C3rABr12         [10] 3017 	jp	00298$
    000012A9                       3018 00297$:
    000012A9 3E FF            [ 7] 3019 	ld	a, #0xff
    000012AB                       3020 00298$:
    000012AB DD 6E F1         [19] 3021 	ld	l, -15 (ix)
    000012AE DD 66 F2         [19] 3022 	ld	h, -14 (ix)
    000012B1 77               [ 7] 3023 	ld	(hl), a
    000012B2 C3rBDr12         [10] 3024 	jp	00174$
    000012B5                       3025 00170$:
                                   3026 ;E:\Dropbox\FAUSTO\SVILUPPI\MSX\CODE\C\MSXgl\projects\soccerlgMSX2/soccerlg_s15_b3.c:317: else p->dy = 0;
    000012B5 DD 6E F1         [19] 3027 	ld	l, -15 (ix)
    000012B8 DD 66 F2         [19] 3028 	ld	h, -14 (ix)
    000012BB 36 00            [10] 3029 	ld	(hl), #0x00
    000012BD                       3030 00174$:
                                   3031 ;E:\Dropbox\FAUSTO\SVILUPPI\MSX\CODE\C\MSXgl\projects\soccerlgMSX2/soccerlg_s15_b3.c:319: p->lx += p->dx; p->ly += p->dy; p->anim++;
    000012BD DD 6E E9         [19] 3032 	ld	l, -23 (ix)
    000012C0 DD 66 EA         [19] 3033 	ld	h, -22 (ix)
    000012C3 4E               [ 7] 3034 	ld	c, (hl)
    000012C4 DD 6E EF         [19] 3035 	ld	l, -17 (ix)
    000012C7 DD 66 F0         [19] 3036 	ld	h, -16 (ix)
    000012CA 7E               [ 7] 3037 	ld	a, (hl)
    000012CB 81               [ 4] 3038 	add	a, c
    000012CC DD 6E E9         [19] 3039 	ld	l, -23 (ix)
    000012CF DD 66 EA         [19] 3040 	ld	h, -22 (ix)
    000012D2 77               [ 7] 3041 	ld	(hl), a
    000012D3 DD 6E EB         [19] 3042 	ld	l, -21 (ix)
    000012D6 DD 66 EC         [19] 3043 	ld	h, -20 (ix)
    000012D9 4E               [ 7] 3044 	ld	c, (hl)
    000012DA 23               [ 6] 3045 	inc	hl
    000012DB 46               [ 7] 3046 	ld	b, (hl)
    000012DC DD 6E F1         [19] 3047 	ld	l, -15 (ix)
    000012DF DD 66 F2         [19] 3048 	ld	h, -14 (ix)
    000012E2 7E               [ 7] 3049 	ld	a, (hl)
    000012E3 6F               [ 4] 3050 	ld	l, a
                                   3051 ;	spillPairReg hl
                                   3052 ;	spillPairReg hl
    000012E4 07               [ 4] 3053 	rlca
    000012E5 9F               [ 4] 3054 	sbc	a, a
    000012E6 67               [ 4] 3055 	ld	h, a
                                   3056 ;	spillPairReg hl
                                   3057 ;	spillPairReg hl
    000012E7 09               [11] 3058 	add	hl, bc
    000012E8 EB               [ 4] 3059 	ex	de, hl
    000012E9 DD 6E EB         [19] 3060 	ld	l, -21 (ix)
    000012EC DD 66 EC         [19] 3061 	ld	h, -20 (ix)
    000012EF 73               [ 7] 3062 	ld	(hl), e
    000012F0 23               [ 6] 3063 	inc	hl
    000012F1 72               [ 7] 3064 	ld	(hl), d
    000012F2 DD 6E E9         [19] 3065 	ld	l, -23 (ix)
    000012F5 DD 66 EA         [19] 3066 	ld	h, -22 (ix)
    000012F8 11 13 00         [10] 3067 	ld	de, #0x0013
    000012FB 19               [11] 3068 	add	hl, de
    000012FC 5E               [ 7] 3069 	ld	e, (hl)
    000012FD 23               [ 6] 3070 	inc	hl
    000012FE 56               [ 7] 3071 	ld	d, (hl)
    000012FF 2B               [ 6] 3072 	dec	hl
    00001300 13               [ 6] 3073 	inc	de
    00001301 73               [ 7] 3074 	ld	(hl), e
    00001302 23               [ 6] 3075 	inc	hl
    00001303 72               [ 7] 3076 	ld	(hl), d
                                   3077 ;E:\Dropbox\FAUSTO\SVILUPPI\MSX\CODE\C\MSXgl\projects\soccerlgMSX2/soccerlg_s15_b3.c:320: const u8 walk_seq[4] = {0, 1, 2, 1};
    00001304 DD 36 E2 00      [19] 3078 	ld	-30 (ix), #0x00
    00001308 DD 36 E3 01      [19] 3079 	ld	-29 (ix), #0x01
    0000130C DD 36 E4 02      [19] 3080 	ld	-28 (ix), #0x02
    00001310 DD 36 E5 01      [19] 3081 	ld	-27 (ix), #0x01
                                   3082 ;E:\Dropbox\FAUSTO\SVILUPPI\MSX\CODE\C\MSXgl\projects\soccerlgMSX2/soccerlg_s15_b3.c:245: bool scored = (RestartType == RESTART_GOAL);
    00001314 3Ar00r00         [13] 3083 	ld	a, (_RestartType+0)
    00001317 D6 05            [ 7] 3084 	sub	a, #0x05
    00001319 3E 01            [ 7] 3085 	ld	a, #0x01
    0000131B 28 01            [12] 3086 	jr	Z, 00913$
    0000131D AF               [ 4] 3087 	xor	a, a
    0000131E                       3088 00913$:
    0000131E 4F               [ 4] 3089 	ld	c, a
                                   3090 ;E:\Dropbox\FAUSTO\SVILUPPI\MSX\CODE\C\MSXgl\projects\soccerlgMSX2/soccerlg_s15_b3.c:324: u8 step = walk_seq[(p->anim / 3) % 4];
    0000131F C5               [11] 3091 	push	bc
    00001320 EB               [ 4] 3092 	ex	de, hl
    00001321 11 03 00         [10] 3093 	ld	de, #0x0003
    00001324 CDr00r00         [17] 3094 	call	__divuint
    00001327 C1               [10] 3095 	pop	bc
    00001328 7B               [ 4] 3096 	ld	a, e
    00001329 E6 03            [ 7] 3097 	and	a, #0x03
    0000132B 5F               [ 4] 3098 	ld	e, a
    0000132C 16 00            [ 7] 3099 	ld	d, #0x00
    0000132E 21 00 00         [10] 3100 	ld	hl, #0
    00001331 39               [11] 3101 	add	hl, sp
    00001332 19               [11] 3102 	add	hl, de
    00001333 46               [ 7] 3103 	ld	b, (hl)
                                   3104 ;E:\Dropbox\FAUSTO\SVILUPPI\MSX\CODE\C\MSXgl\projects\soccerlgMSX2/soccerlg_s15_b3.c:323: if (RestartType == RESTART_GOAL && actor_idx == g_penalty_shooter_idx && p->dy > 0) {
    00001334 79               [ 4] 3105 	ld	a, c
    00001335 B7               [ 4] 3106 	or	a, a
    00001336 CArCAr13         [10] 3107 	jp	Z, 00180$
    00001339 DD 7E E8         [19] 3108 	ld	a, -24 (ix)
    0000133C FD 21r00r00      [14] 3109 	ld	iy, #_g_penalty_shooter_idx
    00001340 FD 96 00         [19] 3110 	sub	a, 0 (iy)
    00001343 C2rCAr13         [10] 3111 	jp	NZ,00180$
    00001346 DD 6E F1         [19] 3112 	ld	l, -15 (ix)
    00001349 DD 66 F2         [19] 3113 	ld	h, -14 (ix)
    0000134C 5E               [ 7] 3114 	ld	e, (hl)
    0000134D AF               [ 4] 3115 	xor	a, a
    0000134E 93               [ 4] 3116 	sub	a, e
    0000134F E2r54r13         [10] 3117 	jp	PO, 00916$
    00001352 EE 80            [ 7] 3118 	xor	a, #0x80
    00001354                       3119 00916$:
    00001354 F2rCAr13         [10] 3120 	jp	P, 00180$
                                   3121 ;E:\Dropbox\FAUSTO\SVILUPPI\MSX\CODE\C\MSXgl\projects\soccerlgMSX2/soccerlg_s15_b3.c:324: u8 step = walk_seq[(p->anim / 3) % 4];
    00001357 DD 70 FA         [19] 3122 	ld	-6 (ix), b
                                   3123 ;E:\Dropbox\FAUSTO\SVILUPPI\MSX\CODE\C\MSXgl\projects\soccerlgMSX2/soccerlg_s15_b3.c:325: p->frame = (actor_idx < 7) ? 
    0000135A DD 7E E8         [19] 3124 	ld	a, -24 (ix)
    0000135D D6 07            [ 7] 3125 	sub	a, #0x07
    0000135F 30 2D            [12] 3126 	jr	NC, 00299$
                                   3127 ;E:\Dropbox\FAUSTO\SVILUPPI\MSX\CODE\C\MSXgl\projects\soccerlgMSX2/soccerlg_s15_b3.c:326: ((step == 0) ? SPR_T1_PLAYER_HAPPY_TO_SOUTH_1 : ((step == 1) ? SPR_T1_PLAYER_HAPPY_TO_SOUTH_2 : SPR_T1_PLAYER_HAPPY_TO_SOUTH_3)) :
    00001361 DD 7E FA         [19] 3128 	ld	a, -6 (ix)
    00001364 B7               [ 4] 3129 	or	a, a
    00001365 20 0B            [12] 3130 	jr	NZ, 00301$
    00001367 DD 36 F9 3C      [19] 3131 	ld	-7 (ix), #0x3c
    0000136B DD 36 FA 00      [19] 3132 	ld	-6 (ix), #0
    0000136F C3rB8r13         [10] 3133 	jp	00300$
    00001372                       3134 00301$:
    00001372 DD 7E FA         [19] 3135 	ld	a, -6 (ix)
    00001375 3D               [ 4] 3136 	dec	a
    00001376 20 0B            [12] 3137 	jr	NZ, 00303$
    00001378 DD 36 F9 3D      [19] 3138 	ld	-7 (ix), #0x3d
    0000137C DD 36 FA 00      [19] 3139 	ld	-6 (ix), #0
    00001380 C3rB8r13         [10] 3140 	jp	00300$
    00001383                       3141 00303$:
    00001383 DD 36 F9 3E      [19] 3142 	ld	-7 (ix), #0x3e
    00001387 DD 36 FA 00      [19] 3143 	ld	-6 (ix), #0
    0000138B C3rB8r13         [10] 3144 	jp	00300$
    0000138E                       3145 00299$:
                                   3146 ;E:\Dropbox\FAUSTO\SVILUPPI\MSX\CODE\C\MSXgl\projects\soccerlgMSX2/soccerlg_s15_b3.c:327: ((step == 0) ? SPR_T2_PLAYER_HAPPY_TO_SOUTH_1 : ((step == 1) ? SPR_T2_PLAYER_HAPPY_TO_SOUTH_2 : SPR_T2_PLAYER_HAPPY_TO_SOUTH_3));
    0000138E DD 7E FA         [19] 3147 	ld	a, -6 (ix)
    00001391 B7               [ 4] 3148 	or	a, a
    00001392 20 0B            [12] 3149 	jr	NZ, 00305$
    00001394 DD 36 F9 9C      [19] 3150 	ld	-7 (ix), #0x9c
    00001398 DD 36 FA 00      [19] 3151 	ld	-6 (ix), #0
    0000139C C3rB8r13         [10] 3152 	jp	00306$
    0000139F                       3153 00305$:
    0000139F DD 7E FA         [19] 3154 	ld	a, -6 (ix)
    000013A2 3D               [ 4] 3155 	dec	a
    000013A3 20 0B            [12] 3156 	jr	NZ, 00307$
    000013A5 DD 36 F9 9D      [19] 3157 	ld	-7 (ix), #0x9d
    000013A9 DD 36 FA 00      [19] 3158 	ld	-6 (ix), #0
    000013AD C3rB8r13         [10] 3159 	jp	00308$
    000013B0                       3160 00307$:
    000013B0 DD 36 F9 9E      [19] 3161 	ld	-7 (ix), #0x9e
    000013B4 DD 36 FA 00      [19] 3162 	ld	-6 (ix), #0
    000013B8                       3163 00308$:
    000013B8                       3164 00306$:
    000013B8                       3165 00300$:
    000013B8 DD 4E F9         [19] 3166 	ld	c, -7 (ix)
    000013BB DD 46 FA         [19] 3167 	ld	b, -6 (ix)
    000013BE DD 6E F3         [19] 3168 	ld	l, -13 (ix)
    000013C1 DD 66 F4         [19] 3169 	ld	h, -12 (ix)
    000013C4 71               [ 7] 3170 	ld	(hl), c
    000013C5 23               [ 6] 3171 	inc	hl
    000013C6 70               [ 7] 3172 	ld	(hl), b
    000013C7 C3r7Fr14         [10] 3173 	jp	00260$
    000013CA                       3174 00180$:
                                   3175 ;E:\Dropbox\FAUSTO\SVILUPPI\MSX\CODE\C\MSXgl\projects\soccerlgMSX2/soccerlg_s15_b3.c:328: } else if (RestartType != RESTART_GOAL && actor_idx == keeper_idx) {
    000013CA CB 41            [ 8] 3176 	bit	0, c
    000013CC 20 29            [12] 3177 	jr	NZ, 00176$
    000013CE DD 7E E8         [19] 3178 	ld	a, -24 (ix)
    000013D1 DD 96 E6         [19] 3179 	sub	a, -26 (ix)
    000013D4 20 21            [12] 3180 	jr	NZ, 00176$
                                   3181 ;E:\Dropbox\FAUSTO\SVILUPPI\MSX\CODE\C\MSXgl\projects\soccerlgMSX2/soccerlg_s15_b3.c:329: u8 step = walk_seq[(p->anim / 3) % 4];
                                   3182 ;E:\Dropbox\FAUSTO\SVILUPPI\MSX\CODE\C\MSXgl\projects\soccerlgMSX2/soccerlg_s15_b3.c:330: p->frame = (step == 0) ? SPR_GK_PLAYER_HAPPY_1 : ((step == 1) ? SPR_GK_PLAYER_HAPPY_2 : SPR_GK_PLAYER_HAPPY_3);
    000013D6 78               [ 4] 3183 	ld	a, b
    000013D7 B7               [ 4] 3184 	or	a, a
    000013D8 20 06            [12] 3185 	jr	NZ, 00309$
    000013DA 01 FD 00         [10] 3186 	ld	bc, #0x00fd
    000013DD C3rEBr13         [10] 3187 	jp	00310$
    000013E0                       3188 00309$:
    000013E0 10 06            [13] 3189 	djnz	00311$
    000013E2 01 FE 00         [10] 3190 	ld	bc, #0x00fe
    000013E5 C3rEBr13         [10] 3191 	jp	00312$
    000013E8                       3192 00311$:
    000013E8 01 FF 00         [10] 3193 	ld	bc, #0x00ff
    000013EB                       3194 00312$:
    000013EB                       3195 00310$:
    000013EB DD 6E F3         [19] 3196 	ld	l, -13 (ix)
    000013EE DD 66 F4         [19] 3197 	ld	h, -12 (ix)
    000013F1 71               [ 7] 3198 	ld	(hl), c
    000013F2 23               [ 6] 3199 	inc	hl
    000013F3 70               [ 7] 3200 	ld	(hl), b
    000013F4 C3r7Fr14         [10] 3201 	jp	00260$
    000013F7                       3202 00176$:
                                   3203 ;E:\Dropbox\FAUSTO\SVILUPPI\MSX\CODE\C\MSXgl\projects\soccerlgMSX2/soccerlg_s15_b3.c:333: p->frame = CallFnc_U16_P4(SEG_GAMESTATE_9, GetPlayerAnimFrame, actor_idx, p->dx, p->dy, walk_seq[(p->anim / 3) % 4]); 
    000013F7 DD 6E F1         [19] 3204 	ld	l, -15 (ix)
    000013FA DD 66 F2         [19] 3205 	ld	h, -14 (ix)
    000013FD 56               [ 7] 3206 	ld	d, (hl)
    000013FE DD 6E EF         [19] 3207 	ld	l, -17 (ix)
    00001401 DD 66 F0         [19] 3208 	ld	h, -16 (ix)
    00001404 7E               [ 7] 3209 	ld	a, (hl)
    00001405 4A               [ 4] 3210 	ld	c, d
    00001406 C5               [11] 3211 	push	bc
    00001407 F5               [11] 3212 	push	af
    00001408 33               [ 6] 3213 	inc	sp
    00001409 DD 7E E8         [19] 3214 	ld	a, -24 (ix)
    0000140C F5               [11] 3215 	push	af
    0000140D 33               [ 6] 3216 	inc	sp
    0000140E 11r00r00         [10] 3217 	ld	de, #_GetPlayerAnimFrame
    00001411 3E 13            [ 7] 3218 	ld	a, #0x13
    00001413 CDr00r00         [17] 3219 	call	_CallFnc_U16_P4
    00001416 DD 6E F3         [19] 3220 	ld	l, -13 (ix)
    00001419 DD 66 F4         [19] 3221 	ld	h, -12 (ix)
    0000141C 73               [ 7] 3222 	ld	(hl), e
    0000141D 23               [ 6] 3223 	inc	hl
    0000141E 72               [ 7] 3224 	ld	(hl), d
    0000141F C3r7Fr14         [10] 3225 	jp	00260$
    00001422                       3226 00191$:
                                   3227 ;E:\Dropbox\FAUSTO\SVILUPPI\MSX\CODE\C\MSXgl\projects\soccerlgMSX2/soccerlg_s15_b3.c:336: p->dx = 0; p->dy = 0;
    00001422 DD 6E EF         [19] 3228 	ld	l, -17 (ix)
    00001425 DD 66 F0         [19] 3229 	ld	h, -16 (ix)
    00001428 36 00            [10] 3230 	ld	(hl), #0x00
    0000142A DD 6E F1         [19] 3231 	ld	l, -15 (ix)
    0000142D DD 66 F2         [19] 3232 	ld	h, -14 (ix)
                                   3233 ;E:\Dropbox\FAUSTO\SVILUPPI\MSX\CODE\C\MSXgl\projects\soccerlgMSX2/soccerlg_s15_b3.c:337: i8 look_dx = 0, look_dy = 1;
    00001430 36 00            [10] 3234 	ld	(hl), #0x00
    00001432 4E               [ 7] 3235 	ld	c, (hl)
                                   3236 ;E:\Dropbox\FAUSTO\SVILUPPI\MSX\CODE\C\MSXgl\projects\soccerlgMSX2/soccerlg_s15_b3.c:338: if (actor_idx == 26) { look_dy = 1; }
    00001433 DD 7E E8         [19] 3237 	ld	a, -24 (ix)
    00001436 D6 1A            [ 7] 3238 	sub	a, #0x1a
    00001438 20 05            [12] 3239 	jr	NZ, 00185$
    0000143A 06 01            [ 7] 3240 	ld	b, #0x01
    0000143C C3r5Fr14         [10] 3241 	jp	00186$
    0000143F                       3242 00185$:
                                   3243 ;E:\Dropbox\FAUSTO\SVILUPPI\MSX\CODE\C\MSXgl\projects\soccerlgMSX2/soccerlg_s15_b3.c:340: look_dx = (i8)((actor_idx % 3) - 1);
    0000143F DD 6E E8         [19] 3244 	ld	l, -24 (ix)
                                   3245 ;	spillPairReg hl
                                   3246 ;	spillPairReg hl
    00001442 26 00            [ 7] 3247 	ld	h, #0x00
                                   3248 ;	spillPairReg hl
                                   3249 ;	spillPairReg hl
    00001444 E5               [11] 3250 	push	hl
    00001445 11 03 00         [10] 3251 	ld	de, #0x0003
    00001448 CDr00r00         [17] 3252 	call	__modsint
    0000144B 4B               [ 4] 3253 	ld	c, e
    0000144C E1               [10] 3254 	pop	hl
    0000144D 0D               [ 4] 3255 	dec	c
                                   3256 ;E:\Dropbox\FAUSTO\SVILUPPI\MSX\CODE\C\MSXgl\projects\soccerlgMSX2/soccerlg_s15_b3.c:341: look_dy = (i8)(((actor_idx / 3) % 3) - 1);
    0000144E C5               [11] 3257 	push	bc
    0000144F 11 03 00         [10] 3258 	ld	de, #0x0003
    00001452 CDr00r00         [17] 3259 	call	__divsint
    00001455 EB               [ 4] 3260 	ex	de, hl
    00001456 11 03 00         [10] 3261 	ld	de, #0x0003
    00001459 CDr00r00         [17] 3262 	call	__modsint
    0000145C C1               [10] 3263 	pop	bc
    0000145D 43               [ 4] 3264 	ld	b, e
    0000145E 05               [ 4] 3265 	dec	b
    0000145F                       3266 00186$:
                                   3267 ;E:\Dropbox\FAUSTO\SVILUPPI\MSX\CODE\C\MSXgl\projects\soccerlgMSX2/soccerlg_s15_b3.c:343: if (look_dx == 0 && look_dy == 0) look_dy = 1;
    0000145F 79               [ 4] 3268 	ld	a, c
    00001460 B7               [ 4] 3269 	or	a,a
    00001461 20 05            [12] 3270 	jr	NZ, 00188$
    00001463 B0               [ 4] 3271 	or	a,b
    00001464 20 02            [12] 3272 	jr	NZ, 00188$
    00001466 06 01            [ 7] 3273 	ld	b, #0x01
    00001468                       3274 00188$:
                                   3275 ;E:\Dropbox\FAUSTO\SVILUPPI\MSX\CODE\C\MSXgl\projects\soccerlgMSX2/soccerlg_s15_b3.c:345: p->frame = CallFnc_U16_P3(SEG_GAMESTATE_9, GetPlayerIdleFrame, actor_idx, look_dx, look_dy);
    00001468 C5               [11] 3276 	push	bc
    00001469 DD 7E E8         [19] 3277 	ld	a, -24 (ix)
    0000146C F5               [11] 3278 	push	af
    0000146D 33               [ 6] 3279 	inc	sp
    0000146E 11r00r00         [10] 3280 	ld	de, #_GetPlayerIdleFrame
    00001471 3E 13            [ 7] 3281 	ld	a, #0x13
    00001473 CDr00r00         [17] 3282 	call	_CallFnc_U16_P3
    00001476 DD 6E F3         [19] 3283 	ld	l, -13 (ix)
    00001479 DD 66 F4         [19] 3284 	ld	h, -12 (ix)
    0000147C 73               [ 7] 3285 	ld	(hl), e
    0000147D 23               [ 6] 3286 	inc	hl
    0000147E 72               [ 7] 3287 	ld	(hl), d
    0000147F                       3288 00260$:
                                   3289 ;E:\Dropbox\FAUSTO\SVILUPPI\MSX\CODE\C\MSXgl\projects\soccerlgMSX2/soccerlg_s15_b3.c:305: for(u8 i=0; i<3; i++) {
    0000147F DD 34 FF         [23] 3290 	inc	-1 (ix)
    00001482 C3rAFr10         [10] 3291 	jp	00259$
    00001485                       3292 00194$:
                                   3293 ;E:\Dropbox\FAUSTO\SVILUPPI\MSX\CODE\C\MSXgl\projects\soccerlgMSX2/soccerlg_s15_b3.c:349: if (all_in_position) {
    00001485 DD 7E E7         [19] 3294 	ld	a, -25 (ix)
    00001488 B7               [ 4] 3295 	or	a, a
    00001489 CArAFr1C         [10] 3296 	jp	Z, 00263$
                                   3297 ;E:\Dropbox\FAUSTO\SVILUPPI\MSX\CODE\C\MSXgl\projects\soccerlgMSX2/soccerlg_s15_b3.c:350: *game_state = 12; // Inizia il prossimo rigore
    0000148C DD 6E FD         [19] 3298 	ld	l, -3 (ix)
    0000148F DD 66 FE         [19] 3299 	ld	h, -2 (ix)
    00001492 36 0C            [10] 3300 	ld	(hl), #0x0c
                                   3301 ;E:\Dropbox\FAUSTO\SVILUPPI\MSX\CODE\C\MSXgl\projects\soccerlgMSX2/soccerlg_s15_b3.c:351: RestartType = 0;  // Azzera il flag di esito per il prossimo
    00001494 FD 21r00r00      [14] 3302 	ld	iy, #_RestartType
    00001498 FD 36 00 00      [19] 3303 	ld	0 (iy), #0x00
    0000149C C3rAFr1C         [10] 3304 	jp	00263$
    0000149F                       3305 00250$:
                                   3306 ;E:\Dropbox\FAUSTO\SVILUPPI\MSX\CODE\C\MSXgl\projects\soccerlgMSX2/soccerlg_s15_b3.c:354: else if (*game_state == 17) { // STATO 17: Vittoria Rigori e Uscita Sconfitti
    0000149F DD 7E F8         [19] 3307 	ld	a, -8 (ix)
    000014A2 D6 11            [ 7] 3308 	sub	a, #0x11
    000014A4 C2rAFr1C         [10] 3309 	jp	NZ,00263$
                                   3310 ;E:\Dropbox\FAUSTO\SVILUPPI\MSX\CODE\C\MSXgl\projects\soccerlgMSX2/soccerlg_s15_b3.c:355: T1_Carrier = T2_Carrier = T1_Receiver = T2_Receiver = 0xFF; // Nessun focus durante i festeggiamenti
    000014A7 21r00r00         [10] 3311 	ld	hl, #_T2_Receiver
    000014AA 36 FF            [10] 3312 	ld	(hl), #0xff
    000014AC 21r00r00         [10] 3313 	ld	hl, #_T1_Receiver
    000014AF 36 FF            [10] 3314 	ld	(hl), #0xff
    000014B1 21r00r00         [10] 3315 	ld	hl, #_T2_Carrier
    000014B4 36 FF            [10] 3316 	ld	(hl), #0xff
    000014B6 21r00r00         [10] 3317 	ld	hl, #_T1_Carrier
    000014B9 36 FF            [10] 3318 	ld	(hl), #0xff
                                   3319 ;E:\Dropbox\FAUSTO\SVILUPPI\MSX\CODE\C\MSXgl\projects\soccerlgMSX2/soccerlg_s15_b3.c:356: u8 winning_team = (ScoreTeam1 > ScoreTeam2) ? TEAM_1 : TEAM_2;
    000014BB 3Ar00r00         [13] 3320 	ld	a, (#_ScoreTeam2)
    000014BE FD 21r00r00      [14] 3321 	ld	iy, #_ScoreTeam1
    000014C2 FD 96 00         [19] 3322 	sub	a, 0 (iy)
    000014C5 30 06            [12] 3323 	jr	NC, 00313$
    000014C7 01 00 00         [10] 3324 	ld	bc, #0x0000
    000014CA C3rD0r14         [10] 3325 	jp	00314$
    000014CD                       3326 00313$:
    000014CD 01 01 00         [10] 3327 	ld	bc, #0x0001
    000014D0                       3328 00314$:
                                   3329 ;E:\Dropbox\FAUSTO\SVILUPPI\MSX\CODE\C\MSXgl\projects\soccerlgMSX2/soccerlg_s15_b3.c:357: u8 losing_team = (winning_team == TEAM_1) ? TEAM_2 : TEAM_1;
    000014D0 DD 71 EA         [19] 3330 	ld	-22 (ix), c
    000014D3 79               [ 4] 3331 	ld	a, c
    000014D4 B7               [ 4] 3332 	or	a, a
    000014D5 20 06            [12] 3333 	jr	NZ, 00315$
    000014D7 11 01 00         [10] 3334 	ld	de, #0x0001
    000014DA C3rE0r14         [10] 3335 	jp	00316$
    000014DD                       3336 00315$:
    000014DD 11 00 00         [10] 3337 	ld	de, #0x0000
    000014E0                       3338 00316$:
    000014E0 DD 73 EB         [19] 3339 	ld	-21 (ix), e
                                   3340 ;E:\Dropbox\FAUSTO\SVILUPPI\MSX\CODE\C\MSXgl\projects\soccerlgMSX2/soccerlg_s15_b3.c:358: bool losers_offscreen = TRUE;
    000014E3 DD 36 EC 01      [19] 3341 	ld	-20 (ix), #0x01
                                   3342 ;E:\Dropbox\FAUSTO\SVILUPPI\MSX\CODE\C\MSXgl\projects\soccerlgMSX2/soccerlg_s15_b3.c:360: for (u8 i = 0; i <= 26; i++) {
    000014E7 DD 36 FF 00      [19] 3343 	ld	-1 (ix), #0x00
    000014EB                       3344 00262$:
    000014EB 3E 1A            [ 7] 3345 	ld	a, #0x1a
    000014ED DD 96 FF         [19] 3346 	sub	a, -1 (ix)
    000014F0 DAr63r1C         [10] 3347 	jp	C, 00238$
                                   3348 ;E:\Dropbox\FAUSTO\SVILUPPI\MSX\CODE\C\MSXgl\projects\soccerlgMSX2/soccerlg_s15_b3.c:361: if (i >= 14 && i < 26) continue; // Salta Palla e UI
    000014F3 DD 7E FF         [19] 3349 	ld	a, -1 (ix)
    000014F6 D6 0E            [ 7] 3350 	sub	a, #0x0e
    000014F8 3E 00            [ 7] 3351 	ld	a, #0x00
    000014FA 17               [ 4] 3352 	rla
    000014FB DD 77 F8         [19] 3353 	ld	-8 (ix), a
    000014FE DD CB F8 46      [20] 3354 	bit	0, -8 (ix)
    00001502 20 08            [12] 3355 	jr	NZ, 00198$
    00001504 DD 7E FF         [19] 3356 	ld	a, -1 (ix)
    00001507 D6 1A            [ 7] 3357 	sub	a, #0x1a
    00001509 DAr5Dr1C         [10] 3358 	jp	C, 00237$
    0000150C                       3359 00198$:
                                   3360 ;E:\Dropbox\FAUSTO\SVILUPPI\MSX\CODE\C\MSXgl\projects\soccerlgMSX2/soccerlg_s15_b3.c:363: struct ObjectInfo* p = &SwSprite[i];
    0000150C DD 4E FF         [19] 3361 	ld	c, -1 (ix)
    0000150F 06 00            [ 7] 3362 	ld	b, #0x00
    00001511 69               [ 4] 3363 	ld	l, c
    00001512 60               [ 4] 3364 	ld	h, b
    00001513 29               [11] 3365 	add	hl, hl
    00001514 29               [11] 3366 	add	hl, hl
    00001515 09               [11] 3367 	add	hl, bc
    00001516 29               [11] 3368 	add	hl, hl
    00001517 09               [11] 3369 	add	hl, bc
    00001518 29               [11] 3370 	add	hl, hl
    00001519 09               [11] 3371 	add	hl, bc
    0000151A DD 75 F6         [19] 3372 	ld	-10 (ix), l
    0000151D DD 74 F7         [19] 3373 	ld	-9 (ix), h
    00001520 3Er00            [ 7] 3374 	ld	a, #<(_SwSprite)
    00001522 DD 86 F6         [19] 3375 	add	a, -10 (ix)
    00001525 DD 77 F9         [19] 3376 	ld	-7 (ix), a
    00001528 3Es00            [ 7] 3377 	ld	a, #>(_SwSprite)
    0000152A DD 8E F7         [19] 3378 	adc	a, -9 (ix)
    0000152D DD 77 FA         [19] 3379 	ld	-6 (ix), a
    00001530 DD 7E F9         [19] 3380 	ld	a, -7 (ix)
    00001533 DD 77 ED         [19] 3381 	ld	-19 (ix), a
    00001536 DD 7E FA         [19] 3382 	ld	a, -6 (ix)
    00001539 DD 77 EE         [19] 3383 	ld	-18 (ix), a
                                   3384 ;E:\Dropbox\FAUSTO\SVILUPPI\MSX\CODE\C\MSXgl\projects\soccerlgMSX2/soccerlg_s15_b3.c:364: u8 team = (i < 7) ? TEAM_1 : ((i < 14) ? TEAM_2 : 0xFF);
    0000153C DD 7E FF         [19] 3385 	ld	a, -1 (ix)
    0000153F D6 07            [ 7] 3386 	sub	a, #0x07
    00001541 30 06            [12] 3387 	jr	NC, 00317$
    00001543 11 00 00         [10] 3388 	ld	de, #0x0000
    00001546 C3r58r15         [10] 3389 	jp	00318$
    00001549                       3390 00317$:
    00001549 DD 7E F8         [19] 3391 	ld	a, -8 (ix)
    0000154C B7               [ 4] 3392 	or	a, a
    0000154D 28 06            [12] 3393 	jr	Z, 00319$
    0000154F 11 01 00         [10] 3394 	ld	de, #0x0001
    00001552 C3r58r15         [10] 3395 	jp	00320$
    00001555                       3396 00319$:
    00001555 11 FF 00         [10] 3397 	ld	de, #0x00ff
    00001558                       3398 00320$:
    00001558                       3399 00318$:
    00001558 DD 73 EF         [19] 3400 	ld	-17 (ix), e
                                   3401 ;E:\Dropbox\FAUSTO\SVILUPPI\MSX\CODE\C\MSXgl\projects\soccerlgMSX2/soccerlg_s15_b3.c:366: if (team == losing_team || i == 26) {
    0000155B DD 7E EB         [19] 3402 	ld	a, -21 (ix)
    0000155E DD 96 EF         [19] 3403 	sub	a, -17 (ix)
    00001561 28 08            [12] 3404 	jr	Z, 00233$
    00001563 DD 7E FF         [19] 3405 	ld	a, -1 (ix)
    00001566 D6 1A            [ 7] 3406 	sub	a, #0x1a
    00001568 C2r62r17         [10] 3407 	jp	NZ,00234$
    0000156B                       3408 00233$:
                                   3409 ;E:\Dropbox\FAUSTO\SVILUPPI\MSX\CODE\C\MSXgl\projects\soccerlgMSX2/soccerlg_s15_b3.c:368: if (OnScreen(p->ly)) {
    0000156B DD 7E ED         [19] 3410 	ld	a, -19 (ix)
    0000156E C6 04            [ 7] 3411 	add	a, #0x04
    00001570 DD 77 EF         [19] 3412 	ld	-17 (ix), a
    00001573 DD 7E EE         [19] 3413 	ld	a, -18 (ix)
    00001576 CE 00            [ 7] 3414 	adc	a, #0x00
    00001578 DD 77 F0         [19] 3415 	ld	-16 (ix), a
    0000157B DD 6E EF         [19] 3416 	ld	l, -17 (ix)
    0000157E DD 66 F0         [19] 3417 	ld	h, -16 (ix)
    00001581 7E               [ 7] 3418 	ld	a, (hl)
    00001582 DD 77 F9         [19] 3419 	ld	-7 (ix), a
    00001585 23               [ 6] 3420 	inc	hl
    00001586 7E               [ 7] 3421 	ld	a, (hl)
    00001587 DD 77 FA         [19] 3422 	ld	-6 (ix), a
    0000158A DD 7E F9         [19] 3423 	ld	a, -7 (ix)
    0000158D DD 77 F7         [19] 3424 	ld	-9 (ix), a
    00001590 DD 7E FA         [19] 3425 	ld	a, -6 (ix)
    00001593 DD 77 F8         [19] 3426 	ld	-8 (ix), a
    00001596 D6 02            [ 7] 3427 	sub	a, #0x02
    00001598 D2r54r17         [10] 3428 	jp	NC, 00201$
    0000159B DD 7E F7         [19] 3429 	ld	a, -9 (ix)
    0000159E C6 0F            [ 7] 3430 	add	a, #0x0f
    000015A0 DD 77 F9         [19] 3431 	ld	-7 (ix), a
    000015A3 DD 7E F8         [19] 3432 	ld	a, -8 (ix)
    000015A6 CE 02            [ 7] 3433 	adc	a, #0x02
    000015A8 DD 77 FA         [19] 3434 	ld	-6 (ix), a
    000015AB 21r04r00         [10] 3435 	ld	hl, #(_Field + 4)
    000015AE 7E               [ 7] 3436 	ld	a, (hl)
    000015AF DD 77 F5         [19] 3437 	ld	-11 (ix), a
    000015B2 23               [ 6] 3438 	inc	hl
    000015B3 7E               [ 7] 3439 	ld	a, (hl)
    000015B4 DD 77 F6         [19] 3440 	ld	-10 (ix), a
    000015B7 DD 7E F9         [19] 3441 	ld	a, -7 (ix)
    000015BA DD 77 F7         [19] 3442 	ld	-9 (ix), a
    000015BD DD 7E FA         [19] 3443 	ld	a, -6 (ix)
    000015C0 DD 77 F8         [19] 3444 	ld	-8 (ix), a
    000015C3 DD 7E F7         [19] 3445 	ld	a, -9 (ix)
    000015C6 DD 96 F5         [19] 3446 	sub	a, -11 (ix)
    000015C9 DD 77 F9         [19] 3447 	ld	-7 (ix), a
    000015CC DD 7E F8         [19] 3448 	ld	a, -8 (ix)
    000015CF DD 9E F6         [19] 3449 	sbc	a, -10 (ix)
    000015D2 DD 77 FA         [19] 3450 	ld	-6 (ix), a
    000015D5 DD 7E F9         [19] 3451 	ld	a, -7 (ix)
    000015D8 DD 77 F7         [19] 3452 	ld	-9 (ix), a
    000015DB DD 7E FA         [19] 3453 	ld	a, -6 (ix)
    000015DE E6 01            [ 7] 3454 	and	a, #0x01
    000015E0 DD 77 F8         [19] 3455 	ld	-8 (ix), a
    000015E3 DD 7E F7         [19] 3456 	ld	a, -9 (ix)
    000015E6 D6 CF            [ 7] 3457 	sub	a, #0xcf
    000015E8 DD 7E F8         [19] 3458 	ld	a, -8 (ix)
    000015EB DE 00            [ 7] 3459 	sbc	a, #0x00
    000015ED D2r54r17         [10] 3460 	jp	NC, 00201$
                                   3461 ;E:\Dropbox\FAUSTO\SVILUPPI\MSX\CODE\C\MSXgl\projects\soccerlgMSX2/soccerlg_s15_b3.c:369: losers_offscreen = FALSE;
    000015F0 DD 36 EC 00      [19] 3462 	ld	-20 (ix), #0x00
                                   3463 ;E:\Dropbox\FAUSTO\SVILUPPI\MSX\CODE\C\MSXgl\projects\soccerlgMSX2/soccerlg_s15_b3.c:370: p->dy = 3; p->dx = 0;
    000015F4 DD 7E ED         [19] 3464 	ld	a, -19 (ix)
    000015F7 C6 12            [ 7] 3465 	add	a, #0x12
    000015F9 DD 77 F1         [19] 3466 	ld	-15 (ix), a
    000015FC DD 7E EE         [19] 3467 	ld	a, -18 (ix)
    000015FF CE 00            [ 7] 3468 	adc	a, #0x00
    00001601 DD 77 F2         [19] 3469 	ld	-14 (ix), a
    00001604 DD 6E F1         [19] 3470 	ld	l, -15 (ix)
    00001607 DD 66 F2         [19] 3471 	ld	h, -14 (ix)
    0000160A 36 03            [10] 3472 	ld	(hl), #0x03
    0000160C DD 7E ED         [19] 3473 	ld	a, -19 (ix)
    0000160F C6 11            [ 7] 3474 	add	a, #0x11
    00001611 DD 77 F3         [19] 3475 	ld	-13 (ix), a
    00001614 DD 7E EE         [19] 3476 	ld	a, -18 (ix)
    00001617 CE 00            [ 7] 3477 	adc	a, #0x00
    00001619 DD 77 F4         [19] 3478 	ld	-12 (ix), a
    0000161C DD 6E F3         [19] 3479 	ld	l, -13 (ix)
    0000161F DD 66 F4         [19] 3480 	ld	h, -12 (ix)
    00001622 36 00            [10] 3481 	ld	(hl), #0x00
                                   3482 ;E:\Dropbox\FAUSTO\SVILUPPI\MSX\CODE\C\MSXgl\projects\soccerlgMSX2/soccerlg_s15_b3.c:371: p->ly = (p->ly + p->dy) & 511; // Evita l'underflow matematico
    00001624 DD 6E EF         [19] 3483 	ld	l, -17 (ix)
    00001627 DD 66 F0         [19] 3484 	ld	h, -16 (ix)
    0000162A 7E               [ 7] 3485 	ld	a, (hl)
    0000162B DD 77 F7         [19] 3486 	ld	-9 (ix), a
    0000162E 23               [ 6] 3487 	inc	hl
    0000162F 7E               [ 7] 3488 	ld	a, (hl)
    00001630 DD 77 F8         [19] 3489 	ld	-8 (ix), a
    00001633 DD 6E F1         [19] 3490 	ld	l, -15 (ix)
    00001636 DD 66 F2         [19] 3491 	ld	h, -14 (ix)
    00001639 7E               [ 7] 3492 	ld	a, (hl)
    0000163A DD 77 FA         [19] 3493 	ld	-6 (ix), a
    0000163D DD 77 F9         [19] 3494 	ld	-7 (ix), a
    00001640 07               [ 4] 3495 	rlca
    00001641 9F               [ 4] 3496 	sbc	a, a
    00001642 DD 77 FA         [19] 3497 	ld	-6 (ix), a
    00001645 DD 7E F7         [19] 3498 	ld	a, -9 (ix)
    00001648 DD 77 F5         [19] 3499 	ld	-11 (ix), a
    0000164B DD 7E F8         [19] 3500 	ld	a, -8 (ix)
    0000164E DD 77 F6         [19] 3501 	ld	-10 (ix), a
    00001651 DD 7E F9         [19] 3502 	ld	a, -7 (ix)
    00001654 DD 77 F7         [19] 3503 	ld	-9 (ix), a
    00001657 DD 7E FA         [19] 3504 	ld	a, -6 (ix)
    0000165A DD 77 F8         [19] 3505 	ld	-8 (ix), a
    0000165D DD 7E F5         [19] 3506 	ld	a, -11 (ix)
    00001660 DD 86 F7         [19] 3507 	add	a, -9 (ix)
    00001663 DD 77 F9         [19] 3508 	ld	-7 (ix), a
    00001666 DD 7E F6         [19] 3509 	ld	a, -10 (ix)
    00001669 DD 8E F8         [19] 3510 	adc	a, -8 (ix)
    0000166C DD 77 FA         [19] 3511 	ld	-6 (ix), a
    0000166F DD 7E F9         [19] 3512 	ld	a, -7 (ix)
    00001672 DD 77 F7         [19] 3513 	ld	-9 (ix), a
    00001675 DD 7E FA         [19] 3514 	ld	a, -6 (ix)
    00001678 E6 01            [ 7] 3515 	and	a, #0x01
    0000167A DD 77 F8         [19] 3516 	ld	-8 (ix), a
    0000167D DD 7E F7         [19] 3517 	ld	a, -9 (ix)
    00001680 DD 77 F9         [19] 3518 	ld	-7 (ix), a
    00001683 DD 7E F8         [19] 3519 	ld	a, -8 (ix)
    00001686 DD 77 FA         [19] 3520 	ld	-6 (ix), a
    00001689 DD 6E EF         [19] 3521 	ld	l, -17 (ix)
    0000168C DD 66 F0         [19] 3522 	ld	h, -16 (ix)
    0000168F DD 7E F9         [19] 3523 	ld	a, -7 (ix)
    00001692 77               [ 7] 3524 	ld	(hl), a
    00001693 23               [ 6] 3525 	inc	hl
    00001694 DD 7E FA         [19] 3526 	ld	a, -6 (ix)
    00001697 77               [ 7] 3527 	ld	(hl), a
                                   3528 ;E:\Dropbox\FAUSTO\SVILUPPI\MSX\CODE\C\MSXgl\projects\soccerlgMSX2/soccerlg_s15_b3.c:372: p->anim++;
    00001698 DD 7E ED         [19] 3529 	ld	a, -19 (ix)
    0000169B C6 13            [ 7] 3530 	add	a, #0x13
    0000169D DD 77 F5         [19] 3531 	ld	-11 (ix), a
    000016A0 DD 7E EE         [19] 3532 	ld	a, -18 (ix)
    000016A3 CE 00            [ 7] 3533 	adc	a, #0x00
    000016A5 DD 77 F6         [19] 3534 	ld	-10 (ix), a
    000016A8 DD 6E F5         [19] 3535 	ld	l, -11 (ix)
    000016AB DD 66 F6         [19] 3536 	ld	h, -10 (ix)
    000016AE 7E               [ 7] 3537 	ld	a, (hl)
    000016AF DD 77 F7         [19] 3538 	ld	-9 (ix), a
    000016B2 23               [ 6] 3539 	inc	hl
    000016B3 7E               [ 7] 3540 	ld	a, (hl)
    000016B4 DD 77 F8         [19] 3541 	ld	-8 (ix), a
    000016B7 DD 7E F7         [19] 3542 	ld	a, -9 (ix)
    000016BA C6 01            [ 7] 3543 	add	a, #0x01
    000016BC DD 77 F9         [19] 3544 	ld	-7 (ix), a
    000016BF DD 7E F8         [19] 3545 	ld	a, -8 (ix)
    000016C2 CE 00            [ 7] 3546 	adc	a, #0x00
    000016C4 DD 77 FA         [19] 3547 	ld	-6 (ix), a
    000016C7 DD 6E F5         [19] 3548 	ld	l, -11 (ix)
    000016CA DD 66 F6         [19] 3549 	ld	h, -10 (ix)
    000016CD DD 7E F9         [19] 3550 	ld	a, -7 (ix)
    000016D0 77               [ 7] 3551 	ld	(hl), a
    000016D1 23               [ 6] 3552 	inc	hl
    000016D2 DD 7E FA         [19] 3553 	ld	a, -6 (ix)
    000016D5 77               [ 7] 3554 	ld	(hl), a
                                   3555 ;E:\Dropbox\FAUSTO\SVILUPPI\MSX\CODE\C\MSXgl\projects\soccerlgMSX2/soccerlg_s15_b3.c:373: const u8 walk_seq[4] = {0, 1, 2, 1};
    000016D6 DD 36 E2 00      [19] 3556 	ld	-30 (ix), #0x00
    000016DA DD 36 E3 01      [19] 3557 	ld	-29 (ix), #0x01
    000016DE DD 36 E4 02      [19] 3558 	ld	-28 (ix), #0x02
    000016E2 DD 36 E5 01      [19] 3559 	ld	-27 (ix), #0x01
                                   3560 ;E:\Dropbox\FAUSTO\SVILUPPI\MSX\CODE\C\MSXgl\projects\soccerlgMSX2/soccerlg_s15_b3.c:374: p->frame = CallFnc_U16_P4(SEG_GAMESTATE_9, GetPlayerAnimFrame, i, p->dx, p->dy, walk_seq[(p->anim / 3) % 4]);
    000016E6 DD 7E ED         [19] 3561 	ld	a, -19 (ix)
    000016E9 C6 0F            [ 7] 3562 	add	a, #0x0f
    000016EB DD 77 F7         [19] 3563 	ld	-9 (ix), a
    000016EE DD 7E EE         [19] 3564 	ld	a, -18 (ix)
    000016F1 CE 00            [ 7] 3565 	adc	a, #0x00
    000016F3 DD 77 F8         [19] 3566 	ld	-8 (ix), a
    000016F6 11 03 00         [10] 3567 	ld	de, #0x0003
    000016F9 DD 6E F9         [19] 3568 	ld	l, -7 (ix)
                                   3569 ;	spillPairReg hl
                                   3570 ;	spillPairReg hl
    000016FC DD 66 FA         [19] 3571 	ld	h, -6 (ix)
                                   3572 ;	spillPairReg hl
                                   3573 ;	spillPairReg hl
    000016FF CDr00r00         [17] 3574 	call	__divuint
    00001702 DD 73 F9         [19] 3575 	ld	-7 (ix), e
    00001705 DD 72 FA         [19] 3576 	ld	-6 (ix), d
    00001708 DD 7E F9         [19] 3577 	ld	a, -7 (ix)
    0000170B E6 03            [ 7] 3578 	and	a, #0x03
    0000170D DD 77 F5         [19] 3579 	ld	-11 (ix), a
    00001710 DD 36 F6 00      [19] 3580 	ld	-10 (ix), #0x00
    00001714 5F               [ 4] 3581 	ld	e, a
    00001715 16 00            [ 7] 3582 	ld	d, #0x00
    00001717 21 00 00         [10] 3583 	ld	hl, #0
    0000171A 39               [11] 3584 	add	hl, sp
    0000171B 19               [11] 3585 	add	hl, de
    0000171C DD 75 F9         [19] 3586 	ld	-7 (ix), l
    0000171F DD 74 FA         [19] 3587 	ld	-6 (ix), h
    00001722 7E               [ 7] 3588 	ld	a, (hl)
    00001723 DD 77 FA         [19] 3589 	ld	-6 (ix), a
    00001726 DD 6E F1         [19] 3590 	ld	l, -15 (ix)
    00001729 DD 66 F2         [19] 3591 	ld	h, -14 (ix)
    0000172C 46               [ 7] 3592 	ld	b, (hl)
    0000172D DD 6E F3         [19] 3593 	ld	l, -13 (ix)
    00001730 DD 66 F4         [19] 3594 	ld	h, -12 (ix)
    00001733 7E               [ 7] 3595 	ld	a, (hl)
    00001734 DD 66 FA         [19] 3596 	ld	h, -6 (ix)
                                   3597 ;	spillPairReg hl
                                   3598 ;	spillPairReg hl
    00001737 68               [ 4] 3599 	ld	l, b
    00001738 E5               [11] 3600 	push	hl
    00001739 F5               [11] 3601 	push	af
    0000173A 33               [ 6] 3602 	inc	sp
    0000173B DD 7E FF         [19] 3603 	ld	a, -1 (ix)
    0000173E F5               [11] 3604 	push	af
    0000173F 33               [ 6] 3605 	inc	sp
    00001740 11r00r00         [10] 3606 	ld	de, #_GetPlayerAnimFrame
    00001743 3E 13            [ 7] 3607 	ld	a, #0x13
    00001745 CDr00r00         [17] 3608 	call	_CallFnc_U16_P4
    00001748 DD 6E F7         [19] 3609 	ld	l, -9 (ix)
    0000174B DD 66 F8         [19] 3610 	ld	h, -8 (ix)
    0000174E 73               [ 7] 3611 	ld	(hl), e
    0000174F 23               [ 6] 3612 	inc	hl
    00001750 72               [ 7] 3613 	ld	(hl), d
    00001751 C3r5Dr1C         [10] 3614 	jp	00237$
    00001754                       3615 00201$:
                                   3616 ;E:\Dropbox\FAUSTO\SVILUPPI\MSX\CODE\C\MSXgl\projects\soccerlgMSX2/soccerlg_s15_b3.c:376: p->ly = 1000;
    00001754 DD 6E EF         [19] 3617 	ld	l, -17 (ix)
    00001757 DD 66 F0         [19] 3618 	ld	h, -16 (ix)
    0000175A 36 E8            [10] 3619 	ld	(hl), #0xe8
    0000175C 23               [ 6] 3620 	inc	hl
    0000175D 36 03            [10] 3621 	ld	(hl), #0x03
    0000175F C3r5Dr1C         [10] 3622 	jp	00237$
    00001762                       3623 00234$:
                                   3624 ;E:\Dropbox\FAUSTO\SVILUPPI\MSX\CODE\C\MSXgl\projects\soccerlgMSX2/soccerlg_s15_b3.c:378: } else if (team == winning_team) {
    00001762 DD 7E EF         [19] 3625 	ld	a, -17 (ix)
    00001765 DD 96 EA         [19] 3626 	sub	a, -22 (ix)
    00001768 C2r5Dr1C         [10] 3627 	jp	NZ,00237$
                                   3628 ;E:\Dropbox\FAUSTO\SVILUPPI\MSX\CODE\C\MSXgl\projects\soccerlgMSX2/soccerlg_s15_b3.c:381: u16 center_y = Field.ly + 96;
    0000176B 21r04r00         [10] 3629 	ld	hl, #(_Field + 4)
    0000176E 7E               [ 7] 3630 	ld	a, (hl)
    0000176F DD 77 F9         [19] 3631 	ld	-7 (ix), a
    00001772 23               [ 6] 3632 	inc	hl
    00001773 7E               [ 7] 3633 	ld	a, (hl)
    00001774 DD 77 FA         [19] 3634 	ld	-6 (ix), a
    00001777 DD 7E F9         [19] 3635 	ld	a, -7 (ix)
    0000177A DD 77 F7         [19] 3636 	ld	-9 (ix), a
    0000177D DD 7E FA         [19] 3637 	ld	a, -6 (ix)
    00001780 DD 77 F8         [19] 3638 	ld	-8 (ix), a
    00001783 DD 7E F7         [19] 3639 	ld	a, -9 (ix)
    00001786 C6 60            [ 7] 3640 	add	a, #0x60
    00001788 DD 77 F9         [19] 3641 	ld	-7 (ix), a
    0000178B DD 7E F8         [19] 3642 	ld	a, -8 (ix)
    0000178E CE 00            [ 7] 3643 	adc	a, #0x00
    00001790 DD 77 FA         [19] 3644 	ld	-6 (ix), a
    00001793 DD 7E F9         [19] 3645 	ld	a, -7 (ix)
    00001796 DD 77 F7         [19] 3646 	ld	-9 (ix), a
    00001799 DD 7E FA         [19] 3647 	ld	a, -6 (ix)
    0000179C DD 77 F8         [19] 3648 	ld	-8 (ix), a
                                   3649 ;E:\Dropbox\FAUSTO\SVILUPPI\MSX\CODE\C\MSXgl\projects\soccerlgMSX2/soccerlg_s15_b3.c:384: u16 t_x = center_x - 80 + ((i * 31 + Frms) % 160);
    0000179F DD 7E FF         [19] 3650 	ld	a, -1 (ix)
    000017A2 DD 77 F9         [19] 3651 	ld	-7 (ix), a
    000017A5 DD 36 FA 00      [19] 3652 	ld	-6 (ix), #0x00
    000017A9 4F               [ 4] 3653 	ld	c, a
    000017AA 06 00            [ 7] 3654 	ld	b, #0x00
    000017AC 69               [ 4] 3655 	ld	l, c
    000017AD 60               [ 4] 3656 	ld	h, b
    000017AE 29               [11] 3657 	add	hl, hl
    000017AF 09               [11] 3658 	add	hl, bc
    000017B0 29               [11] 3659 	add	hl, hl
    000017B1 09               [11] 3660 	add	hl, bc
    000017B2 29               [11] 3661 	add	hl, hl
    000017B3 09               [11] 3662 	add	hl, bc
    000017B4 29               [11] 3663 	add	hl, hl
    000017B5 09               [11] 3664 	add	hl, bc
    000017B6 DD 75 F1         [19] 3665 	ld	-15 (ix), l
    000017B9 DD 74 F2         [19] 3666 	ld	-14 (ix), h
    000017BC 3Ar00r00         [13] 3667 	ld	a, (_Frms+0)
    000017BF DD 77 F3         [19] 3668 	ld	-13 (ix), a
    000017C2 DD 36 F4 00      [19] 3669 	ld	-12 (ix), #0x00
    000017C6 DD 7E F1         [19] 3670 	ld	a, -15 (ix)
    000017C9 DD 86 F3         [19] 3671 	add	a, -13 (ix)
    000017CC DD 77 F5         [19] 3672 	ld	-11 (ix), a
    000017CF DD 7E F2         [19] 3673 	ld	a, -14 (ix)
    000017D2 DD 8E F4         [19] 3674 	adc	a, -12 (ix)
    000017D5 DD 77 F6         [19] 3675 	ld	-10 (ix), a
    000017D8 11 A0 00         [10] 3676 	ld	de, #0x00a0
    000017DB DD 6E F5         [19] 3677 	ld	l, -11 (ix)
                                   3678 ;	spillPairReg hl
                                   3679 ;	spillPairReg hl
    000017DE DD 66 F6         [19] 3680 	ld	h, -10 (ix)
                                   3681 ;	spillPairReg hl
                                   3682 ;	spillPairReg hl
    000017E1 CDr00r00         [17] 3683 	call	__modsint
    000017E4 DD 73 F5         [19] 3684 	ld	-11 (ix), e
    000017E7 DD 72 F6         [19] 3685 	ld	-10 (ix), d
    000017EA DD 7E F5         [19] 3686 	ld	a, -11 (ix)
    000017ED DD 77 F1         [19] 3687 	ld	-15 (ix), a
    000017F0 DD 7E F6         [19] 3688 	ld	a, -10 (ix)
    000017F3 DD 77 F2         [19] 3689 	ld	-14 (ix), a
    000017F6 DD 7E F1         [19] 3690 	ld	a, -15 (ix)
    000017F9 C6 30            [ 7] 3691 	add	a, #0x30
    000017FB DD 77 F5         [19] 3692 	ld	-11 (ix), a
    000017FE DD 7E F2         [19] 3693 	ld	a, -14 (ix)
    00001801 CE 00            [ 7] 3694 	adc	a, #0x00
    00001803 DD 77 F6         [19] 3695 	ld	-10 (ix), a
    00001806 DD 7E F5         [19] 3696 	ld	a, -11 (ix)
    00001809 DD 77 F0         [19] 3697 	ld	-16 (ix), a
    0000180C DD 7E F6         [19] 3698 	ld	a, -10 (ix)
    0000180F DD 77 F1         [19] 3699 	ld	-15 (ix), a
                                   3700 ;E:\Dropbox\FAUSTO\SVILUPPI\MSX\CODE\C\MSXgl\projects\soccerlgMSX2/soccerlg_s15_b3.c:385: u16 t_y = center_y - 60 + ((i * 47 + Frms) % 120);
    00001812 DD 7E F7         [19] 3701 	ld	a, -9 (ix)
    00001815 C6 C4            [ 7] 3702 	add	a, #0xc4
    00001817 DD 77 F5         [19] 3703 	ld	-11 (ix), a
    0000181A DD 7E F8         [19] 3704 	ld	a, -8 (ix)
    0000181D CE FF            [ 7] 3705 	adc	a, #0xff
    0000181F DD 77 F6         [19] 3706 	ld	-10 (ix), a
    00001822 DD 4E F9         [19] 3707 	ld	c, -7 (ix)
    00001825 DD 46 FA         [19] 3708 	ld	b, -6 (ix)
    00001828 69               [ 4] 3709 	ld	l, c
    00001829 60               [ 4] 3710 	ld	h, b
    0000182A 29               [11] 3711 	add	hl, hl
    0000182B 29               [11] 3712 	add	hl, hl
    0000182C 09               [11] 3713 	add	hl, bc
    0000182D 29               [11] 3714 	add	hl, hl
    0000182E 09               [11] 3715 	add	hl, bc
    0000182F 29               [11] 3716 	add	hl, hl
    00001830 09               [11] 3717 	add	hl, bc
    00001831 29               [11] 3718 	add	hl, hl
    00001832 09               [11] 3719 	add	hl, bc
    00001833 DD 75 F7         [19] 3720 	ld	-9 (ix), l
    00001836 DD 74 F8         [19] 3721 	ld	-8 (ix), h
    00001839 DD 7E F3         [19] 3722 	ld	a, -13 (ix)
    0000183C DD 86 F7         [19] 3723 	add	a, -9 (ix)
    0000183F DD 77 F9         [19] 3724 	ld	-7 (ix), a
    00001842 DD 7E F4         [19] 3725 	ld	a, -12 (ix)
    00001845 DD 8E F8         [19] 3726 	adc	a, -8 (ix)
    00001848 DD 77 FA         [19] 3727 	ld	-6 (ix), a
    0000184B 11 78 00         [10] 3728 	ld	de, #0x0078
    0000184E DD 6E F9         [19] 3729 	ld	l, -7 (ix)
                                   3730 ;	spillPairReg hl
                                   3731 ;	spillPairReg hl
    00001851 DD 66 FA         [19] 3732 	ld	h, -6 (ix)
                                   3733 ;	spillPairReg hl
                                   3734 ;	spillPairReg hl
    00001854 CDr00r00         [17] 3735 	call	__modsint
    00001857 DD 73 F9         [19] 3736 	ld	-7 (ix), e
    0000185A DD 72 FA         [19] 3737 	ld	-6 (ix), d
    0000185D DD 7E F9         [19] 3738 	ld	a, -7 (ix)
    00001860 DD 77 F7         [19] 3739 	ld	-9 (ix), a
    00001863 DD 7E FA         [19] 3740 	ld	a, -6 (ix)
    00001866 DD 77 F8         [19] 3741 	ld	-8 (ix), a
    00001869 DD 7E F5         [19] 3742 	ld	a, -11 (ix)
    0000186C DD 86 F7         [19] 3743 	add	a, -9 (ix)
    0000186F DD 77 F9         [19] 3744 	ld	-7 (ix), a
    00001872 DD 7E F6         [19] 3745 	ld	a, -10 (ix)
    00001875 DD 8E F8         [19] 3746 	adc	a, -8 (ix)
    00001878 DD 77 FA         [19] 3747 	ld	-6 (ix), a
                                   3748 ;E:\Dropbox\FAUSTO\SVILUPPI\MSX\CODE\C\MSXgl\projects\soccerlgMSX2/soccerlg_s15_b3.c:387: u16 dist_x = (p->lx > t_x) ? (p->lx - t_x) : (t_x - p->lx);
    0000187B DD 6E ED         [19] 3749 	ld	l, -19 (ix)
    0000187E DD 66 EE         [19] 3750 	ld	h, -18 (ix)
    00001881 7E               [ 7] 3751 	ld	a, (hl)
    00001882 DD 77 F6         [19] 3752 	ld	-10 (ix), a
    00001885 DD 77 F2         [19] 3753 	ld	-14 (ix), a
    00001888 DD 36 F3 00      [19] 3754 	ld	-13 (ix), #0x00
    0000188C DD 7E F6         [19] 3755 	ld	a, -10 (ix)
    0000188F DD 77 F4         [19] 3756 	ld	-12 (ix), a
    00001892 DD 36 F5 00      [19] 3757 	ld	-11 (ix), #0x00
    00001896 DD 7E F0         [19] 3758 	ld	a, -16 (ix)
    00001899 DD 77 F7         [19] 3759 	ld	-9 (ix), a
    0000189C DD 7E F1         [19] 3760 	ld	a, -15 (ix)
    0000189F DD 77 F8         [19] 3761 	ld	-8 (ix), a
    000018A2 DD 7E F0         [19] 3762 	ld	a, -16 (ix)
    000018A5 DD 96 F2         [19] 3763 	sub	a, -14 (ix)
    000018A8 DD 7E F1         [19] 3764 	ld	a, -15 (ix)
    000018AB DD 9E F3         [19] 3765 	sbc	a, -13 (ix)
    000018AE 30 21            [12] 3766 	jr	NC, 00321$
    000018B0 DD 7E F4         [19] 3767 	ld	a, -12 (ix)
    000018B3 DD 77 F2         [19] 3768 	ld	-14 (ix), a
    000018B6 DD 7E F5         [19] 3769 	ld	a, -11 (ix)
    000018B9 DD 77 F3         [19] 3770 	ld	-13 (ix), a
    000018BC DD 7E F2         [19] 3771 	ld	a, -14 (ix)
    000018BF DD 96 F0         [19] 3772 	sub	a, -16 (ix)
    000018C2 DD 77 F4         [19] 3773 	ld	-12 (ix), a
    000018C5 DD 7E F3         [19] 3774 	ld	a, -13 (ix)
    000018C8 DD 9E F1         [19] 3775 	sbc	a, -15 (ix)
    000018CB DD 77 F5         [19] 3776 	ld	-11 (ix), a
    000018CE C3rEFr18         [10] 3777 	jp	00322$
    000018D1                       3778 00321$:
    000018D1 DD 7E F4         [19] 3779 	ld	a, -12 (ix)
    000018D4 DD 77 F1         [19] 3780 	ld	-15 (ix), a
    000018D7 DD 7E F5         [19] 3781 	ld	a, -11 (ix)
    000018DA DD 77 F2         [19] 3782 	ld	-14 (ix), a
    000018DD DD 7E F7         [19] 3783 	ld	a, -9 (ix)
    000018E0 DD 96 F1         [19] 3784 	sub	a, -15 (ix)
    000018E3 DD 77 F4         [19] 3785 	ld	-12 (ix), a
    000018E6 DD 7E F8         [19] 3786 	ld	a, -8 (ix)
    000018E9 DD 9E F2         [19] 3787 	sbc	a, -14 (ix)
    000018EC DD 77 F5         [19] 3788 	ld	-11 (ix), a
    000018EF                       3789 00322$:
                                   3790 ;E:\Dropbox\FAUSTO\SVILUPPI\MSX\CODE\C\MSXgl\projects\soccerlgMSX2/soccerlg_s15_b3.c:388: u16 dist_y = (p->ly > t_y) ? (p->ly - t_y) : (t_y - p->ly);
    000018EF DD 7E ED         [19] 3791 	ld	a, -19 (ix)
    000018F2 C6 04            [ 7] 3792 	add	a, #0x04
    000018F4 4F               [ 4] 3793 	ld	c, a
    000018F5 DD 7E EE         [19] 3794 	ld	a, -18 (ix)
    000018F8 CE 00            [ 7] 3795 	adc	a, #0x00
    000018FA 47               [ 4] 3796 	ld	b, a
    000018FB 69               [ 4] 3797 	ld	l, c
    000018FC 60               [ 4] 3798 	ld	h, b
    000018FD 5E               [ 7] 3799 	ld	e, (hl)
    000018FE 23               [ 6] 3800 	inc	hl
    000018FF 56               [ 7] 3801 	ld	d, (hl)
    00001900 DD 7E F9         [19] 3802 	ld	a, -7 (ix)
    00001903 93               [ 4] 3803 	sub	a, e
    00001904 DD 7E FA         [19] 3804 	ld	a, -6 (ix)
    00001907 9A               [ 4] 3805 	sbc	a, d
    00001908 30 0C            [12] 3806 	jr	NC, 00323$
    0000190A 7B               [ 4] 3807 	ld	a, e
    0000190B DD 96 F9         [19] 3808 	sub	a, -7 (ix)
    0000190E 5F               [ 4] 3809 	ld	e, a
    0000190F 7A               [ 4] 3810 	ld	a, d
    00001910 DD 9E FA         [19] 3811 	sbc	a, -6 (ix)
    00001913 C3r1Fr19         [10] 3812 	jp	00324$
    00001916                       3813 00323$:
    00001916 DD 7E F9         [19] 3814 	ld	a, -7 (ix)
    00001919 93               [ 4] 3815 	sub	a, e
    0000191A 5F               [ 4] 3816 	ld	e, a
    0000191B DD 7E FA         [19] 3817 	ld	a, -6 (ix)
    0000191E 9A               [ 4] 3818 	sbc	a, d
    0000191F                       3819 00324$:
    0000191F DD 73 F2         [19] 3820 	ld	-14 (ix), e
    00001922 DD 77 F3         [19] 3821 	ld	-13 (ix), a
                                   3822 ;E:\Dropbox\FAUSTO\SVILUPPI\MSX\CODE\C\MSXgl\projects\soccerlgMSX2/soccerlg_s15_b3.c:389: u8 speed = (dist_x > 100 || dist_y > 100) ? 6 : ((dist_x > 50 || dist_y > 50) ? 4 : 2);
    00001925 3E 64            [ 7] 3823 	ld	a, #0x64
    00001927 DD BE F4         [19] 3824 	cp	a, -12 (ix)
    0000192A 3E 00            [ 7] 3825 	ld	a, #0x00
    0000192C DD 9E F5         [19] 3826 	sbc	a, -11 (ix)
    0000192F 38 0E            [12] 3827 	jr	C, 00328$
    00001931 DD 5E F2         [19] 3828 	ld	e, -14 (ix)
    00001934 DD 56 F3         [19] 3829 	ld	d, -13 (ix)
    00001937 3E 64            [ 7] 3830 	ld	a, #0x64
    00001939 BB               [ 4] 3831 	cp	a, e
    0000193A 3E 00            [ 7] 3832 	ld	a, #0x00
    0000193C 9A               [ 4] 3833 	sbc	a, d
    0000193D 30 0B            [12] 3834 	jr	NC, 00325$
    0000193F                       3835 00328$:
    0000193F DD 36 F4 06      [19] 3836 	ld	-12 (ix), #0x06
    00001943 DD 36 F5 00      [19] 3837 	ld	-11 (ix), #0
    00001947 C3r6Dr19         [10] 3838 	jp	00326$
    0000194A                       3839 00325$:
    0000194A 3E 32            [ 7] 3840 	ld	a, #0x32
    0000194C DD BE F4         [19] 3841 	cp	a, -12 (ix)
    0000194F 3E 00            [ 7] 3842 	ld	a, #0x00
    00001951 DD 9E F5         [19] 3843 	sbc	a, -11 (ix)
    00001954 38 08            [12] 3844 	jr	C, 00333$
    00001956 3E 32            [ 7] 3845 	ld	a, #0x32
    00001958 BB               [ 4] 3846 	cp	a, e
    00001959 3E 00            [ 7] 3847 	ld	a, #0x00
    0000195B 9A               [ 4] 3848 	sbc	a, d
    0000195C 30 06            [12] 3849 	jr	NC, 00330$
    0000195E                       3850 00333$:
    0000195E 11 04 00         [10] 3851 	ld	de, #0x0004
    00001961 C3r67r19         [10] 3852 	jp	00331$
    00001964                       3853 00330$:
    00001964 11 02 00         [10] 3854 	ld	de, #0x0002
    00001967                       3855 00331$:
    00001967 DD 73 F4         [19] 3856 	ld	-12 (ix), e
    0000196A DD 72 F5         [19] 3857 	ld	-11 (ix), d
    0000196D                       3858 00326$:
    0000196D DD 7E F4         [19] 3859 	ld	a, -12 (ix)
                                   3860 ;E:\Dropbox\FAUSTO\SVILUPPI\MSX\CODE\C\MSXgl\projects\soccerlgMSX2/soccerlg_s15_b3.c:391: if (p->lx < t_x - speed) p->dx = speed; else if (p->lx > t_x + speed) p->dx = -speed; else p->dx = 0;
    00001970 DD 77 F0         [19] 3861 	ld	-16 (ix), a
    00001973 1E 00            [ 7] 3862 	ld	e, #0x00
    00001975 DD 77 F1         [19] 3863 	ld	-15 (ix), a
    00001978 DD 73 F2         [19] 3864 	ld	-14 (ix), e
    0000197B DD 7E F7         [19] 3865 	ld	a, -9 (ix)
    0000197E DD 96 F1         [19] 3866 	sub	a, -15 (ix)
    00001981 6F               [ 4] 3867 	ld	l, a
                                   3868 ;	spillPairReg hl
                                   3869 ;	spillPairReg hl
    00001982 DD 7E F8         [19] 3870 	ld	a, -8 (ix)
    00001985 DD 9E F2         [19] 3871 	sbc	a, -14 (ix)
    00001988 67               [ 4] 3872 	ld	h, a
                                   3873 ;	spillPairReg hl
                                   3874 ;	spillPairReg hl
    00001989 DD 5E F6         [19] 3875 	ld	e, -10 (ix)
    0000198C 16 00            [ 7] 3876 	ld	d, #0x00
                                   3877 ;E:\Dropbox\FAUSTO\SVILUPPI\MSX\CODE\C\MSXgl\projects\soccerlgMSX2/soccerlg_s15_b3.c:370: p->dy = 3; p->dx = 0;
    0000198E DD 7E ED         [19] 3878 	ld	a, -19 (ix)
    00001991 C6 11            [ 7] 3879 	add	a, #0x11
    00001993 DD 77 F3         [19] 3880 	ld	-13 (ix), a
    00001996 DD 7E EE         [19] 3881 	ld	a, -18 (ix)
    00001999 CE 00            [ 7] 3882 	adc	a, #0x00
    0000199B DD 77 F4         [19] 3883 	ld	-12 (ix), a
                                   3884 ;E:\Dropbox\FAUSTO\SVILUPPI\MSX\CODE\C\MSXgl\projects\soccerlgMSX2/soccerlg_s15_b3.c:391: if (p->lx < t_x - speed) p->dx = speed; else if (p->lx > t_x + speed) p->dx = -speed; else p->dx = 0;
    0000199E 7B               [ 4] 3885 	ld	a, e
    0000199F 95               [ 4] 3886 	sub	a, l
    000019A0 7A               [ 4] 3887 	ld	a, d
    000019A1 9C               [ 4] 3888 	sbc	a, h
    000019A2 30 0D            [12] 3889 	jr	NC, 00208$
    000019A4 DD 6E F3         [19] 3890 	ld	l, -13 (ix)
    000019A7 DD 66 F4         [19] 3891 	ld	h, -12 (ix)
    000019AA DD 7E F0         [19] 3892 	ld	a, -16 (ix)
    000019AD 77               [ 7] 3893 	ld	(hl), a
    000019AE C3rDAr19         [10] 3894 	jp	00209$
    000019B1                       3895 00208$:
    000019B1 DD 7E F7         [19] 3896 	ld	a, -9 (ix)
    000019B4 DD 86 F1         [19] 3897 	add	a, -15 (ix)
    000019B7 6F               [ 4] 3898 	ld	l, a
                                   3899 ;	spillPairReg hl
                                   3900 ;	spillPairReg hl
    000019B8 DD 7E F8         [19] 3901 	ld	a, -8 (ix)
    000019BB DD 8E F2         [19] 3902 	adc	a, -14 (ix)
    000019BE 67               [ 4] 3903 	ld	h, a
                                   3904 ;	spillPairReg hl
                                   3905 ;	spillPairReg hl
    000019BF AF               [ 4] 3906 	xor	a, a
    000019C0 ED 52            [15] 3907 	sbc	hl, de
    000019C2 30 0E            [12] 3908 	jr	NC, 00205$
    000019C4 AF               [ 4] 3909 	xor	a, a
    000019C5 DD 96 F0         [19] 3910 	sub	a, -16 (ix)
    000019C8 DD 6E F3         [19] 3911 	ld	l, -13 (ix)
    000019CB DD 66 F4         [19] 3912 	ld	h, -12 (ix)
    000019CE 77               [ 7] 3913 	ld	(hl), a
    000019CF C3rDAr19         [10] 3914 	jp	00209$
    000019D2                       3915 00205$:
    000019D2 DD 6E F3         [19] 3916 	ld	l, -13 (ix)
    000019D5 DD 66 F4         [19] 3917 	ld	h, -12 (ix)
    000019D8 36 00            [10] 3918 	ld	(hl), #0x00
    000019DA                       3919 00209$:
                                   3920 ;E:\Dropbox\FAUSTO\SVILUPPI\MSX\CODE\C\MSXgl\projects\soccerlgMSX2/soccerlg_s15_b3.c:392: if (p->ly < t_y - speed) p->dy = speed; else if (p->ly > t_y + speed) p->dy = -speed; else p->dy = 0;
    000019DA 69               [ 4] 3921 	ld	l, c
    000019DB 60               [ 4] 3922 	ld	h, b
    000019DC 56               [ 7] 3923 	ld	d, (hl)
    000019DD 23               [ 6] 3924 	inc	hl
    000019DE 66               [ 7] 3925 	ld	h, (hl)
                                   3926 ;	spillPairReg hl
    000019DF DD 7E F9         [19] 3927 	ld	a, -7 (ix)
    000019E2 DD 77 F5         [19] 3928 	ld	-11 (ix), a
    000019E5 DD 7E FA         [19] 3929 	ld	a, -6 (ix)
    000019E8 DD 77 F6         [19] 3930 	ld	-10 (ix), a
    000019EB DD 7E F5         [19] 3931 	ld	a, -11 (ix)
    000019EE DD 96 F1         [19] 3932 	sub	a, -15 (ix)
    000019F1 5F               [ 4] 3933 	ld	e, a
    000019F2 DD 7E F6         [19] 3934 	ld	a, -10 (ix)
    000019F5 DD 9E F2         [19] 3935 	sbc	a, -14 (ix)
    000019F8 6F               [ 4] 3936 	ld	l, a
                                   3937 ;	spillPairReg hl
                                   3938 ;	spillPairReg hl
    000019F9 DD 72 F7         [19] 3939 	ld	-9 (ix), d
    000019FC DD 74 F8         [19] 3940 	ld	-8 (ix), h
                                   3941 ;E:\Dropbox\FAUSTO\SVILUPPI\MSX\CODE\C\MSXgl\projects\soccerlgMSX2/soccerlg_s15_b3.c:370: p->dy = 3; p->dx = 0;
    000019FF DD 7E ED         [19] 3942 	ld	a, -19 (ix)
    00001A02 C6 12            [ 7] 3943 	add	a, #0x12
    00001A04 DD 77 F9         [19] 3944 	ld	-7 (ix), a
    00001A07 DD 7E EE         [19] 3945 	ld	a, -18 (ix)
    00001A0A CE 00            [ 7] 3946 	adc	a, #0x00
    00001A0C DD 77 FA         [19] 3947 	ld	-6 (ix), a
                                   3948 ;E:\Dropbox\FAUSTO\SVILUPPI\MSX\CODE\C\MSXgl\projects\soccerlgMSX2/soccerlg_s15_b3.c:392: if (p->ly < t_y - speed) p->dy = speed; else if (p->ly > t_y + speed) p->dy = -speed; else p->dy = 0;
    00001A0F DD 7E F7         [19] 3949 	ld	a, -9 (ix)
    00001A12 93               [ 4] 3950 	sub	a, e
    00001A13 DD 7E F8         [19] 3951 	ld	a, -8 (ix)
    00001A16 9D               [ 4] 3952 	sbc	a, l
    00001A17 30 0D            [12] 3953 	jr	NC, 00214$
    00001A19 DD 6E F9         [19] 3954 	ld	l, -7 (ix)
    00001A1C DD 66 FA         [19] 3955 	ld	h, -6 (ix)
    00001A1F DD 7E F0         [19] 3956 	ld	a, -16 (ix)
    00001A22 77               [ 7] 3957 	ld	(hl), a
    00001A23 C3r54r1A         [10] 3958 	jp	00215$
    00001A26                       3959 00214$:
    00001A26 DD 7E F5         [19] 3960 	ld	a, -11 (ix)
    00001A29 DD 86 F1         [19] 3961 	add	a, -15 (ix)
    00001A2C 5F               [ 4] 3962 	ld	e, a
    00001A2D DD 7E F6         [19] 3963 	ld	a, -10 (ix)
    00001A30 DD 8E F2         [19] 3964 	adc	a, -14 (ix)
    00001A33 57               [ 4] 3965 	ld	d, a
    00001A34 7B               [ 4] 3966 	ld	a, e
    00001A35 DD 96 F7         [19] 3967 	sub	a, -9 (ix)
    00001A38 7A               [ 4] 3968 	ld	a, d
    00001A39 DD 9E F8         [19] 3969 	sbc	a, -8 (ix)
    00001A3C 30 0E            [12] 3970 	jr	NC, 00211$
    00001A3E AF               [ 4] 3971 	xor	a, a
    00001A3F DD 96 F0         [19] 3972 	sub	a, -16 (ix)
    00001A42 DD 6E F9         [19] 3973 	ld	l, -7 (ix)
    00001A45 DD 66 FA         [19] 3974 	ld	h, -6 (ix)
    00001A48 77               [ 7] 3975 	ld	(hl), a
    00001A49 C3r54r1A         [10] 3976 	jp	00215$
    00001A4C                       3977 00211$:
    00001A4C DD 6E F9         [19] 3978 	ld	l, -7 (ix)
    00001A4F DD 66 FA         [19] 3979 	ld	h, -6 (ix)
    00001A52 36 00            [10] 3980 	ld	(hl), #0x00
    00001A54                       3981 00215$:
                                   3982 ;E:\Dropbox\FAUSTO\SVILUPPI\MSX\CODE\C\MSXgl\projects\soccerlgMSX2/soccerlg_s15_b3.c:394: p->lx += p->dx; p->ly += p->dy; p->anim++;
    00001A54 DD 6E ED         [19] 3983 	ld	l, -19 (ix)
    00001A57 DD 66 EE         [19] 3984 	ld	h, -18 (ix)
    00001A5A 7E               [ 7] 3985 	ld	a, (hl)
    00001A5B DD 6E F3         [19] 3986 	ld	l, -13 (ix)
    00001A5E DD 66 F4         [19] 3987 	ld	h, -12 (ix)
    00001A61 5E               [ 7] 3988 	ld	e, (hl)
    00001A62 83               [ 4] 3989 	add	a, e
    00001A63 DD 6E ED         [19] 3990 	ld	l, -19 (ix)
    00001A66 DD 66 EE         [19] 3991 	ld	h, -18 (ix)
    00001A69 77               [ 7] 3992 	ld	(hl), a
    00001A6A 69               [ 4] 3993 	ld	l, c
    00001A6B 60               [ 4] 3994 	ld	h, b
    00001A6C 5E               [ 7] 3995 	ld	e, (hl)
    00001A6D 23               [ 6] 3996 	inc	hl
    00001A6E 56               [ 7] 3997 	ld	d, (hl)
    00001A6F DD 6E F9         [19] 3998 	ld	l, -7 (ix)
    00001A72 DD 66 FA         [19] 3999 	ld	h, -6 (ix)
    00001A75 7E               [ 7] 4000 	ld	a, (hl)
    00001A76 6F               [ 4] 4001 	ld	l, a
                                   4002 ;	spillPairReg hl
                                   4003 ;	spillPairReg hl
    00001A77 07               [ 4] 4004 	rlca
    00001A78 9F               [ 4] 4005 	sbc	a, a
    00001A79 67               [ 4] 4006 	ld	h, a
                                   4007 ;	spillPairReg hl
                                   4008 ;	spillPairReg hl
    00001A7A 19               [11] 4009 	add	hl, de
    00001A7B EB               [ 4] 4010 	ex	de, hl
    00001A7C 7B               [ 4] 4011 	ld	a, e
    00001A7D 02               [ 7] 4012 	ld	(bc), a
    00001A7E 03               [ 6] 4013 	inc	bc
    00001A7F 7A               [ 4] 4014 	ld	a, d
    00001A80 02               [ 7] 4015 	ld	(bc), a
    00001A81 DD 6E ED         [19] 4016 	ld	l, -19 (ix)
    00001A84 DD 66 EE         [19] 4017 	ld	h, -18 (ix)
    00001A87 11 13 00         [10] 4018 	ld	de, #0x0013
    00001A8A 19               [11] 4019 	add	hl, de
    00001A8B 4E               [ 7] 4020 	ld	c, (hl)
    00001A8C 23               [ 6] 4021 	inc	hl
    00001A8D 46               [ 7] 4022 	ld	b, (hl)
    00001A8E 2B               [ 6] 4023 	dec	hl
    00001A8F 03               [ 6] 4024 	inc	bc
    00001A90 71               [ 7] 4025 	ld	(hl), c
    00001A91 23               [ 6] 4026 	inc	hl
    00001A92 70               [ 7] 4027 	ld	(hl), b
                                   4028 ;E:\Dropbox\FAUSTO\SVILUPPI\MSX\CODE\C\MSXgl\projects\soccerlgMSX2/soccerlg_s15_b3.c:396: u8 step = (p->anim / 3) % 4;
    00001A93 DD 71 F7         [19] 4029 	ld	-9 (ix), c
    00001A96 DD 70 F8         [19] 4030 	ld	-8 (ix), b
    00001A99 11 03 00         [10] 4031 	ld	de, #0x0003
    00001A9C DD 6E F7         [19] 4032 	ld	l, -9 (ix)
                                   4033 ;	spillPairReg hl
                                   4034 ;	spillPairReg hl
    00001A9F DD 66 F8         [19] 4035 	ld	h, -8 (ix)
                                   4036 ;	spillPairReg hl
                                   4037 ;	spillPairReg hl
    00001AA2 CDr00r00         [17] 4038 	call	__divuint
    00001AA5 DD 73 F5         [19] 4039 	ld	-11 (ix), e
    00001AA8 DD 72 F6         [19] 4040 	ld	-10 (ix), d
    00001AAB DD 7E F5         [19] 4041 	ld	a, -11 (ix)
    00001AAE E6 03            [ 7] 4042 	and	a, #0x03
    00001AB0 DD 77 F7         [19] 4043 	ld	-9 (ix), a
    00001AB3 DD 36 F8 00      [19] 4044 	ld	-8 (ix), #0x00
    00001AB7 DD 7E F7         [19] 4045 	ld	a, -9 (ix)
                                   4046 ;E:\Dropbox\FAUSTO\SVILUPPI\MSX\CODE\C\MSXgl\projects\soccerlgMSX2/soccerlg_s15_b3.c:397: if (step == 3) step = 1;
    00001ABA DD 77 F8         [19] 4047 	ld	-8 (ix), a
    00001ABD D6 03            [ 7] 4048 	sub	a, #0x03
    00001ABF 20 04            [12] 4049 	jr	NZ, 00217$
    00001AC1 DD 36 F8 01      [19] 4050 	ld	-8 (ix), #0x01
    00001AC5                       4051 00217$:
                                   4052 ;E:\Dropbox\FAUSTO\SVILUPPI\MSX\CODE\C\MSXgl\projects\soccerlgMSX2/soccerlg_s15_b3.c:394: p->lx += p->dx; p->ly += p->dy; p->anim++;
    00001AC5 DD 6E F9         [19] 4053 	ld	l, -7 (ix)
    00001AC8 DD 66 FA         [19] 4054 	ld	h, -6 (ix)
    00001ACB 7E               [ 7] 4055 	ld	a, (hl)
    00001ACC DD 77 FA         [19] 4056 	ld	-6 (ix), a
                                   4057 ;E:\Dropbox\FAUSTO\SVILUPPI\MSX\CODE\C\MSXgl\projects\soccerlgMSX2/soccerlg_s15_b3.c:374: p->frame = CallFnc_U16_P4(SEG_GAMESTATE_9, GetPlayerAnimFrame, i, p->dx, p->dy, walk_seq[(p->anim / 3) % 4]);
    00001ACF DD 7E ED         [19] 4058 	ld	a, -19 (ix)
    00001AD2 C6 0F            [ 7] 4059 	add	a, #0x0f
    00001AD4 DD 77 F6         [19] 4060 	ld	-10 (ix), a
    00001AD7 DD 7E EE         [19] 4061 	ld	a, -18 (ix)
    00001ADA CE 00            [ 7] 4062 	adc	a, #0x00
    00001ADC DD 77 F7         [19] 4063 	ld	-9 (ix), a
                                   4064 ;E:\Dropbox\FAUSTO\SVILUPPI\MSX\CODE\C\MSXgl\projects\soccerlgMSX2/soccerlg_s15_b3.c:399: if (p->dy < 0 || (p->dy == 0 && (Frms % 64) < 32)) { 
    00001ADF DD CB FA 7E      [20] 4065 	bit	7, -6 (ix)
    00001AE3 20 1B            [12] 4066 	jr	NZ, 00226$
    00001AE5 DD 7E FA         [19] 4067 	ld	a, -6 (ix)
    00001AE8 B7               [ 4] 4068 	or	a, a
    00001AE9 C2rB8r1B         [10] 4069 	jp	NZ, 00227$
    00001AEC 3Ar00r00         [13] 4070 	ld	a, (_Frms+0)
    00001AEF E6 3F            [ 7] 4071 	and	a, #0x3f
    00001AF1 4F               [ 4] 4072 	ld	c, a
    00001AF2 06 00            [ 7] 4073 	ld	b, #0x00
    00001AF4 79               [ 4] 4074 	ld	a, c
    00001AF5 D6 20            [ 7] 4075 	sub	a, #0x20
    00001AF7 78               [ 4] 4076 	ld	a, b
    00001AF8 17               [ 4] 4077 	rla
    00001AF9 3F               [ 4] 4078 	ccf
    00001AFA 1F               [ 4] 4079 	rra
    00001AFB DE 80            [ 7] 4080 	sbc	a, #0x80
    00001AFD D2rB8r1B         [10] 4081 	jp	NC, 00227$
    00001B00                       4082 00226$:
                                   4083 ;E:\Dropbox\FAUSTO\SVILUPPI\MSX\CODE\C\MSXgl\projects\soccerlgMSX2/soccerlg_s15_b3.c:400: if (i == 0 || i == 7) {
    00001B00 DD 7E FF         [19] 4084 	ld	a, -1 (ix)
    00001B03 B7               [ 4] 4085 	or	a, a
    00001B04 28 07            [12] 4086 	jr	Z, 00218$
    00001B06 DD 7E FF         [19] 4087 	ld	a, -1 (ix)
    00001B09 D6 07            [ 7] 4088 	sub	a, #0x07
    00001B0B 20 3C            [12] 4089 	jr	NZ, 00219$
    00001B0D                       4090 00218$:
                                   4091 ;E:\Dropbox\FAUSTO\SVILUPPI\MSX\CODE\C\MSXgl\projects\soccerlgMSX2/soccerlg_s15_b3.c:401: p->frame = (step == 0) ? SPR_GK_PLAYER_HAPPY_1 : ((step == 1) ? SPR_GK_PLAYER_HAPPY_2 : SPR_GK_PLAYER_HAPPY_3);
    00001B0D DD 7E F8         [19] 4092 	ld	a, -8 (ix)
    00001B10 B7               [ 4] 4093 	or	a, a
    00001B11 20 0B            [12] 4094 	jr	NZ, 00335$
    00001B13 DD 36 F9 FD      [19] 4095 	ld	-7 (ix), #0xfd
    00001B17 DD 36 FA 00      [19] 4096 	ld	-6 (ix), #0
    00001B1B C3r37r1B         [10] 4097 	jp	00336$
    00001B1E                       4098 00335$:
    00001B1E DD 7E F8         [19] 4099 	ld	a, -8 (ix)
    00001B21 3D               [ 4] 4100 	dec	a
    00001B22 20 0B            [12] 4101 	jr	NZ, 00337$
    00001B24 DD 36 F9 FE      [19] 4102 	ld	-7 (ix), #0xfe
    00001B28 DD 36 FA 00      [19] 4103 	ld	-6 (ix), #0
    00001B2C C3r37r1B         [10] 4104 	jp	00338$
    00001B2F                       4105 00337$:
    00001B2F DD 36 F9 FF      [19] 4106 	ld	-7 (ix), #0xff
    00001B33 DD 36 FA 00      [19] 4107 	ld	-6 (ix), #0
    00001B37                       4108 00338$:
    00001B37                       4109 00336$:
    00001B37 DD 6E F6         [19] 4110 	ld	l, -10 (ix)
    00001B3A DD 66 F7         [19] 4111 	ld	h, -9 (ix)
    00001B3D DD 7E F9         [19] 4112 	ld	a, -7 (ix)
    00001B40 77               [ 7] 4113 	ld	(hl), a
    00001B41 23               [ 6] 4114 	inc	hl
    00001B42 DD 7E FA         [19] 4115 	ld	a, -6 (ix)
    00001B45 77               [ 7] 4116 	ld	(hl), a
    00001B46 C3r5Dr1C         [10] 4117 	jp	00237$
    00001B49                       4118 00219$:
                                   4119 ;E:\Dropbox\FAUSTO\SVILUPPI\MSX\CODE\C\MSXgl\projects\soccerlgMSX2/soccerlg_s15_b3.c:403: p->frame = (team == TEAM_1) ? 
    00001B49 DD 7E EF         [19] 4120 	ld	a, -17 (ix)
    00001B4C B7               [ 4] 4121 	or	a, a
    00001B4D 20 2D            [12] 4122 	jr	NZ, 00339$
                                   4123 ;E:\Dropbox\FAUSTO\SVILUPPI\MSX\CODE\C\MSXgl\projects\soccerlgMSX2/soccerlg_s15_b3.c:404: ((step == 0) ? SPR_T1_PLAYER_HAPPY_TO_NORTH_1 : ((step == 1) ? SPR_T1_PLAYER_HAPPY_TO_NORTH_2 : SPR_T1_PLAYER_HAPPY_TO_NORTH_3)) :
    00001B4F DD 7E F8         [19] 4124 	ld	a, -8 (ix)
    00001B52 B7               [ 4] 4125 	or	a, a
    00001B53 20 0B            [12] 4126 	jr	NZ, 00341$
    00001B55 DD 36 F9 5C      [19] 4127 	ld	-7 (ix), #0x5c
    00001B59 DD 36 FA 00      [19] 4128 	ld	-6 (ix), #0
    00001B5D C3rA6r1B         [10] 4129 	jp	00340$
    00001B60                       4130 00341$:
    00001B60 DD 7E F8         [19] 4131 	ld	a, -8 (ix)
    00001B63 3D               [ 4] 4132 	dec	a
    00001B64 20 0B            [12] 4133 	jr	NZ, 00343$
    00001B66 DD 36 F9 5D      [19] 4134 	ld	-7 (ix), #0x5d
    00001B6A DD 36 FA 00      [19] 4135 	ld	-6 (ix), #0
    00001B6E C3rA6r1B         [10] 4136 	jp	00340$
    00001B71                       4137 00343$:
    00001B71 DD 36 F9 5E      [19] 4138 	ld	-7 (ix), #0x5e
    00001B75 DD 36 FA 00      [19] 4139 	ld	-6 (ix), #0
    00001B79 C3rA6r1B         [10] 4140 	jp	00340$
    00001B7C                       4141 00339$:
                                   4142 ;E:\Dropbox\FAUSTO\SVILUPPI\MSX\CODE\C\MSXgl\projects\soccerlgMSX2/soccerlg_s15_b3.c:405: ((step == 0) ? SPR_T2_PLAYER_HAPPY_TO_NORTH_1 : ((step == 1) ? SPR_T2_PLAYER_HAPPY_TO_NORTH_2 : SPR_T2_PLAYER_HAPPY_TO_NORTH_3));
    00001B7C DD 7E F8         [19] 4143 	ld	a, -8 (ix)
    00001B7F B7               [ 4] 4144 	or	a, a
    00001B80 20 0B            [12] 4145 	jr	NZ, 00345$
    00001B82 DD 36 F9 CC      [19] 4146 	ld	-7 (ix), #0xcc
    00001B86 DD 36 FA 00      [19] 4147 	ld	-6 (ix), #0
    00001B8A C3rA6r1B         [10] 4148 	jp	00346$
    00001B8D                       4149 00345$:
    00001B8D DD 7E F8         [19] 4150 	ld	a, -8 (ix)
    00001B90 3D               [ 4] 4151 	dec	a
    00001B91 20 0B            [12] 4152 	jr	NZ, 00347$
    00001B93 DD 36 F9 CD      [19] 4153 	ld	-7 (ix), #0xcd
    00001B97 DD 36 FA 00      [19] 4154 	ld	-6 (ix), #0
    00001B9B C3rA6r1B         [10] 4155 	jp	00348$
    00001B9E                       4156 00347$:
    00001B9E DD 36 F9 CE      [19] 4157 	ld	-7 (ix), #0xce
    00001BA2 DD 36 FA 00      [19] 4158 	ld	-6 (ix), #0
    00001BA6                       4159 00348$:
    00001BA6                       4160 00346$:
    00001BA6                       4161 00340$:
    00001BA6 DD 6E F6         [19] 4162 	ld	l, -10 (ix)
    00001BA9 DD 66 F7         [19] 4163 	ld	h, -9 (ix)
    00001BAC DD 7E F9         [19] 4164 	ld	a, -7 (ix)
    00001BAF 77               [ 7] 4165 	ld	(hl), a
    00001BB0 23               [ 6] 4166 	inc	hl
    00001BB1 DD 7E FA         [19] 4167 	ld	a, -6 (ix)
    00001BB4 77               [ 7] 4168 	ld	(hl), a
    00001BB5 C3r5Dr1C         [10] 4169 	jp	00237$
    00001BB8                       4170 00227$:
                                   4171 ;E:\Dropbox\FAUSTO\SVILUPPI\MSX\CODE\C\MSXgl\projects\soccerlgMSX2/soccerlg_s15_b3.c:408: if (i == 0 || i == 7) {
    00001BB8 DD 7E FF         [19] 4172 	ld	a, -1 (ix)
    00001BBB B7               [ 4] 4173 	or	a, a
    00001BBC 28 07            [12] 4174 	jr	Z, 00222$
    00001BBE DD 7E FF         [19] 4175 	ld	a, -1 (ix)
    00001BC1 D6 07            [ 7] 4176 	sub	a, #0x07
    00001BC3 20 2C            [12] 4177 	jr	NZ, 00223$
    00001BC5                       4178 00222$:
                                   4179 ;E:\Dropbox\FAUSTO\SVILUPPI\MSX\CODE\C\MSXgl\projects\soccerlgMSX2/soccerlg_s15_b3.c:409: p->frame = CallFnc_U16_P4(SEG_GAMESTATE_9, GetPlayerAnimFrame, i, p->dx, p->dy, step);
    00001BC5 DD 6E F3         [19] 4180 	ld	l, -13 (ix)
    00001BC8 DD 66 F4         [19] 4181 	ld	h, -12 (ix)
    00001BCB 7E               [ 7] 4182 	ld	a, (hl)
    00001BCC DD 77 F9         [19] 4183 	ld	-7 (ix), a
    00001BCF DD 66 F8         [19] 4184 	ld	h, -8 (ix)
    00001BD2 DD 6E FA         [19] 4185 	ld	l, -6 (ix)
    00001BD5 E5               [11] 4186 	push	hl
    00001BD6 DD 66 F9         [19] 4187 	ld	h, -7 (ix)
    00001BD9 DD 6E FF         [19] 4188 	ld	l, -1 (ix)
    00001BDC E5               [11] 4189 	push	hl
    00001BDD 11r00r00         [10] 4190 	ld	de, #_GetPlayerAnimFrame
    00001BE0 3E 13            [ 7] 4191 	ld	a, #0x13
    00001BE2 CDr00r00         [17] 4192 	call	_CallFnc_U16_P4
    00001BE5 DD 6E F6         [19] 4193 	ld	l, -10 (ix)
    00001BE8 DD 66 F7         [19] 4194 	ld	h, -9 (ix)
    00001BEB 73               [ 7] 4195 	ld	(hl), e
    00001BEC 23               [ 6] 4196 	inc	hl
    00001BED 72               [ 7] 4197 	ld	(hl), d
    00001BEE C3r5Dr1C         [10] 4198 	jp	00237$
    00001BF1                       4199 00223$:
                                   4200 ;E:\Dropbox\FAUSTO\SVILUPPI\MSX\CODE\C\MSXgl\projects\soccerlgMSX2/soccerlg_s15_b3.c:411: p->frame = (team == TEAM_1) ? 
    00001BF1 DD 7E EF         [19] 4201 	ld	a, -17 (ix)
    00001BF4 B7               [ 4] 4202 	or	a, a
    00001BF5 20 2D            [12] 4203 	jr	NZ, 00349$
                                   4204 ;E:\Dropbox\FAUSTO\SVILUPPI\MSX\CODE\C\MSXgl\projects\soccerlgMSX2/soccerlg_s15_b3.c:412: ((step == 0) ? SPR_T1_PLAYER_HAPPY_TO_SOUTH_1 : ((step == 1) ? SPR_T1_PLAYER_HAPPY_TO_SOUTH_2 : SPR_T1_PLAYER_HAPPY_TO_SOUTH_3)) :
    00001BF7 DD 7E F8         [19] 4205 	ld	a, -8 (ix)
    00001BFA B7               [ 4] 4206 	or	a, a
    00001BFB 20 0B            [12] 4207 	jr	NZ, 00351$
    00001BFD DD 36 F9 3C      [19] 4208 	ld	-7 (ix), #0x3c
    00001C01 DD 36 FA 00      [19] 4209 	ld	-6 (ix), #0
    00001C05 C3r4Er1C         [10] 4210 	jp	00350$
    00001C08                       4211 00351$:
    00001C08 DD 7E F8         [19] 4212 	ld	a, -8 (ix)
    00001C0B 3D               [ 4] 4213 	dec	a
    00001C0C 20 0B            [12] 4214 	jr	NZ, 00353$
    00001C0E DD 36 F9 3D      [19] 4215 	ld	-7 (ix), #0x3d
    00001C12 DD 36 FA 00      [19] 4216 	ld	-6 (ix), #0
    00001C16 C3r4Er1C         [10] 4217 	jp	00350$
    00001C19                       4218 00353$:
    00001C19 DD 36 F9 3E      [19] 4219 	ld	-7 (ix), #0x3e
    00001C1D DD 36 FA 00      [19] 4220 	ld	-6 (ix), #0
    00001C21 C3r4Er1C         [10] 4221 	jp	00350$
    00001C24                       4222 00349$:
                                   4223 ;E:\Dropbox\FAUSTO\SVILUPPI\MSX\CODE\C\MSXgl\projects\soccerlgMSX2/soccerlg_s15_b3.c:413: ((step == 0) ? SPR_T2_PLAYER_HAPPY_TO_SOUTH_1 : ((step == 1) ? SPR_T2_PLAYER_HAPPY_TO_SOUTH_2 : SPR_T2_PLAYER_HAPPY_TO_SOUTH_3));
    00001C24 DD 7E F8         [19] 4224 	ld	a, -8 (ix)
    00001C27 B7               [ 4] 4225 	or	a, a
    00001C28 20 0B            [12] 4226 	jr	NZ, 00355$
    00001C2A DD 36 F9 9C      [19] 4227 	ld	-7 (ix), #0x9c
    00001C2E DD 36 FA 00      [19] 4228 	ld	-6 (ix), #0
    00001C32 C3r4Er1C         [10] 4229 	jp	00356$
    00001C35                       4230 00355$:
    00001C35 DD 7E F8         [19] 4231 	ld	a, -8 (ix)
    00001C38 3D               [ 4] 4232 	dec	a
    00001C39 20 0B            [12] 4233 	jr	NZ, 00357$
    00001C3B DD 36 F9 9D      [19] 4234 	ld	-7 (ix), #0x9d
    00001C3F DD 36 FA 00      [19] 4235 	ld	-6 (ix), #0
    00001C43 C3r4Er1C         [10] 4236 	jp	00358$
    00001C46                       4237 00357$:
    00001C46 DD 36 F9 9E      [19] 4238 	ld	-7 (ix), #0x9e
    00001C4A DD 36 FA 00      [19] 4239 	ld	-6 (ix), #0
    00001C4E                       4240 00358$:
    00001C4E                       4241 00356$:
    00001C4E                       4242 00350$:
    00001C4E DD 6E F6         [19] 4243 	ld	l, -10 (ix)
    00001C51 DD 66 F7         [19] 4244 	ld	h, -9 (ix)
    00001C54 DD 7E F9         [19] 4245 	ld	a, -7 (ix)
    00001C57 77               [ 7] 4246 	ld	(hl), a
    00001C58 23               [ 6] 4247 	inc	hl
    00001C59 DD 7E FA         [19] 4248 	ld	a, -6 (ix)
    00001C5C 77               [ 7] 4249 	ld	(hl), a
    00001C5D                       4250 00237$:
                                   4251 ;E:\Dropbox\FAUSTO\SVILUPPI\MSX\CODE\C\MSXgl\projects\soccerlgMSX2/soccerlg_s15_b3.c:360: for (u8 i = 0; i <= 26; i++) {
    00001C5D DD 34 FF         [23] 4252 	inc	-1 (ix)
    00001C60 C3rEBr14         [10] 4253 	jp	00262$
    00001C63                       4254 00238$:
                                   4255 ;E:\Dropbox\FAUSTO\SVILUPPI\MSX\CODE\C\MSXgl\projects\soccerlgMSX2/soccerlg_s15_b3.c:419: if (losers_offscreen) {
    00001C63 DD 7E EC         [19] 4256 	ld	a, -20 (ix)
    00001C66 B7               [ 4] 4257 	or	a, a
    00001C67 28 34            [12] 4258 	jr	Z, 00245$
                                   4259 ;E:\Dropbox\FAUSTO\SVILUPPI\MSX\CODE\C\MSXgl\projects\soccerlgMSX2/soccerlg_s15_b3.c:420: if (*wait_secs > 0) {
    00001C69 DD 6E FB         [19] 4260 	ld	l, -5 (ix)
    00001C6C DD 66 FC         [19] 4261 	ld	h, -4 (ix)
    00001C6F 4E               [ 7] 4262 	ld	c, (hl)
    00001C70 79               [ 4] 4263 	ld	a, c
    00001C71 B7               [ 4] 4264 	or	a, a
    00001C72 28 1E            [12] 4265 	jr	Z, 00242$
                                   4266 ;E:\Dropbox\FAUSTO\SVILUPPI\MSX\CODE\C\MSXgl\projects\soccerlgMSX2/soccerlg_s15_b3.c:421: if (*start_sec < Frms) { 
    00001C74 DD 5E 04         [19] 4267 	ld	e, 4 (ix)
    00001C77 DD 56 05         [19] 4268 	ld	d, 5 (ix)
    00001C7A 1A               [ 7] 4269 	ld	a, (de)
    00001C7B 47               [ 4] 4270 	ld	b, a
    00001C7C 21r00r00         [10] 4271 	ld	hl, #_Frms
    00001C7F 78               [ 4] 4272 	ld	a, b
    00001C80 96               [ 7] 4273 	sub	a, (hl)
    00001C81 30 08            [12] 4274 	jr	NC, 00240$
                                   4275 ;E:\Dropbox\FAUSTO\SVILUPPI\MSX\CODE\C\MSXgl\projects\soccerlgMSX2/soccerlg_s15_b3.c:422: (*wait_secs)--; 
    00001C83 0D               [ 4] 4276 	dec	c
    00001C84 DD 6E FB         [19] 4277 	ld	l, -5 (ix)
    00001C87 DD 66 FC         [19] 4278 	ld	h, -4 (ix)
    00001C8A 71               [ 7] 4279 	ld	(hl), c
    00001C8B                       4280 00240$:
                                   4281 ;E:\Dropbox\FAUSTO\SVILUPPI\MSX\CODE\C\MSXgl\projects\soccerlgMSX2/soccerlg_s15_b3.c:424: *start_sec = Frms;
    00001C8B 3Ar00r00         [13] 4282 	ld	a, (_Frms+0)
    00001C8E 12               [ 7] 4283 	ld	(de), a
    00001C8F C3rAFr1C         [10] 4284 	jp	00263$
    00001C92                       4285 00242$:
                                   4286 ;E:\Dropbox\FAUSTO\SVILUPPI\MSX\CODE\C\MSXgl\projects\soccerlgMSX2/soccerlg_s15_b3.c:426: *game_state = 255;
    00001C92 DD 6E FD         [19] 4287 	ld	l, -3 (ix)
    00001C95 DD 66 FE         [19] 4288 	ld	h, -2 (ix)
    00001C98 36 FF            [10] 4289 	ld	(hl), #0xff
    00001C9A C3rAFr1C         [10] 4290 	jp	00263$
    00001C9D                       4291 00245$:
                                   4292 ;E:\Dropbox\FAUSTO\SVILUPPI\MSX\CODE\C\MSXgl\projects\soccerlgMSX2/soccerlg_s15_b3.c:429: *wait_secs = 6; // Resetta il timer a 6 finché non sono usciti tutti gli sconfitti
    00001C9D DD 6E FB         [19] 4293 	ld	l, -5 (ix)
    00001CA0 DD 66 FC         [19] 4294 	ld	h, -4 (ix)
    00001CA3 36 06            [10] 4295 	ld	(hl), #0x06
                                   4296 ;E:\Dropbox\FAUSTO\SVILUPPI\MSX\CODE\C\MSXgl\projects\soccerlgMSX2/soccerlg_s15_b3.c:430: *start_sec = Frms;
    00001CA5 DD 4E 04         [19] 4297 	ld	c, 4 (ix)
    00001CA8 DD 46 05         [19] 4298 	ld	b, 5 (ix)
    00001CAB 3Ar00r00         [13] 4299 	ld	a, (_Frms+0)
    00001CAE 02               [ 7] 4300 	ld	(bc), a
    00001CAF                       4301 00263$:
                                   4302 ;E:\Dropbox\FAUSTO\SVILUPPI\MSX\CODE\C\MSXgl\projects\soccerlgMSX2/soccerlg_s15_b3.c:434: }
    00001CAF DD F9            [10] 4303 	ld	sp, ix
    00001CB1 DD E1            [14] 4304 	pop	ix
    00001CB3 E1               [10] 4305 	pop	hl
    00001CB4 F1               [10] 4306 	pop	af
    00001CB5 F1               [10] 4307 	pop	af
    00001CB6 E9               [ 4] 4308 	jp	(hl)
                                   4309 	.area _SEG15
                                   4310 	.area _INITIALIZER
                                   4311 	.area _CABS (ABS)
