                                      1 ;--------------------------------------------------------
                                      2 ; File Created by SDCC : free open source ANSI-C Compiler
                                      3 ; Version 4.2.0 #13081 (MINGW64)
                                      4 ;--------------------------------------------------------
                                      5 	.module soccerlg_s21_b3
                                      6 	.optsdcc -mz80
                                      7 	
                                      8 ;--------------------------------------------------------
                                      9 ; Public variables in this module
                                     10 ;--------------------------------------------------------
                                     11 	.globl _GetPlayerIdleFrame
                                     12 	.globl _GetPlayerAnimFrame
                                     13 	.globl _EventBallKicked
                                     14 	.globl _FindReceiver
                                     15 	.globl _CallFnc_U16_P4B
                                     16 	.globl _CallFnc_U16_P4
                                     17 	.globl _CallFnc_U16_P3
                                     18 	.globl _CallFnc_VOID
                                     19 	.globl _g_SLTSL
                                     20 	.globl _g_GRPACY
                                     21 	.globl _g_GRPACX
                                     22 	.globl _g_LOGOPR
                                     23 	.globl _g_CMASK
                                     24 	.globl _g_CLOC
                                     25 	.globl _g_FNKSTR
                                     26 	.globl _g_ATRBYT
                                     27 	.globl _g_BDRCLR
                                     28 	.globl _g_BAKCLR
                                     29 	.globl _g_FORCLR
                                     30 	.globl _g_CSRX
                                     31 	.globl _g_CSRY
                                     32 	.globl _g_CLIKSW
                                     33 	.globl _g_MLTPAT
                                     34 	.globl _g_MLTATR
                                     35 	.globl _g_MLTCGP
                                     36 	.globl _g_MLTCOL
                                     37 	.globl _g_MLTNAM
                                     38 	.globl _g_GRPPAT
                                     39 	.globl _g_GRPATR
                                     40 	.globl _g_GRPCGP
                                     41 	.globl _g_GRPCOL
                                     42 	.globl _g_GRPNAM
                                     43 	.globl _g_T32PAT
                                     44 	.globl _g_T32ATR
                                     45 	.globl _g_T32CGP
                                     46 	.globl _g_T32COL
                                     47 	.globl _g_T32NAM
                                     48 	.globl _g_TXTPAT
                                     49 	.globl _g_TXTATR
                                     50 	.globl _g_TXTCGP
                                     51 	.globl _g_TXTCOL
                                     52 	.globl _g_TXTNAM
                                     53 	.globl _g_CLMLST
                                     54 	.globl _g_CRTCNT
                                     55 	.globl _g_LINLEN
                                     56 	.globl _g_LINL32
                                     57 	.globl _g_LINL40
                                     58 	.globl _g_BDOS
                                     59 	.globl _g_MASTER
                                     60 	.globl _g_RAMAD3
                                     61 	.globl _g_RAMAD2
                                     62 	.globl _g_RAMAD1
                                     63 	.globl _g_RAMAD0
                                     64 	.globl _g_BREAKV
                                     65 	.globl _g_DISKVE
                                     66 	.globl _g_KANJTABLE
                                     67 	.globl _g_STRSRC
                                     68 	.globl _g_SUBRID
                                     69 	.globl _g_CHAR_16
                                     70 	.globl _g_MSXMID
                                     71 	.globl _g_MSXVER
                                     72 	.globl _g_ROMVersion
                                     73 	.globl _g_BASRVN
                                     74 	.globl _g_VDP_DW
                                     75 	.globl _g_VDP_DR
                                     76 	.globl _g_CGTABL
                                     77 	.globl _g_SVFFFD
                                     78 	.globl _g_RG27SAV
                                     79 	.globl _g_RG26SAV
                                     80 	.globl _g_RG25SAV
                                     81 	.globl _g_SVFFF8
                                     82 	.globl _g_MINROM
                                     83 	.globl _g_RG23SAV
                                     84 	.globl _g_RG22SAV
                                     85 	.globl _g_RG21SAV
                                     86 	.globl _g_RG20SAV
                                     87 	.globl _g_RG19SAV
                                     88 	.globl _g_RG18SAV
                                     89 	.globl _g_RG17SAV
                                     90 	.globl _g_RG16SAV
                                     91 	.globl _g_RG15SAV
                                     92 	.globl _g_RG14SAV
                                     93 	.globl _g_RG13SAV
                                     94 	.globl _g_RG12SAV
                                     95 	.globl _g_RG11SAV
                                     96 	.globl _g_RG10SAV
                                     97 	.globl _g_RG09SAV
                                     98 	.globl _g_RG08SAV
                                     99 	.globl _g_PROCNM
                                    100 	.globl _g_SLTWRK
                                    101 	.globl _g_SLTATR
                                    102 	.globl _g_SLTTBL
                                    103 	.globl _g_EXPTBL
                                    104 	.globl _g_MNROM
                                    105 	.globl _g_DRWANG
                                    106 	.globl _g_DRWSCL
                                    107 	.globl _g_DRWFLG
                                    108 	.globl _g_GYPOS
                                    109 	.globl _g_GXPOS
                                    110 	.globl _g_BRDATR
                                    111 	.globl _g_CASPRV
                                    112 	.globl _g_OLDSCR
                                    113 	.globl _g_SCRMOD
                                    114 	.globl _g_FLBMEM
                                    115 	.globl _g_KANAMD
                                    116 	.globl _g_KANAST
                                    117 	.globl _g_CAPST
                                    118 	.globl _g_CSTYLE
                                    119 	.globl _g_CSRSW
                                    120 	.globl _g_INSFLG
                                    121 	.globl _g_ESCCNT
                                    122 	.globl _g_GRPHED
                                    123 	.globl _g_WINWID
                                    124 	.globl _g_LOWLIM
                                    125 	.globl _g_INTCNT
                                    126 	.globl _g_INTVAL
                                    127 	.globl _g_JIFFY
                                    128 	.globl _g_PADX
                                    129 	.globl _g_PADY
                                    130 	.globl _g_INTFLG
                                    131 	.globl _g_RTYCNT
                                    132 	.globl _g_TRPTBL
                                    133 	.globl _g_HIMEM
                                    134 	.globl _g_BOTTOM
                                    135 	.globl _g_PATWRK
                                    136 	.globl _g_LINWRK
                                    137 	.globl _g_KEYBUF
                                    138 	.globl _g_NEWKEY
                                    139 	.globl _g_OLDKEY
                                    140 	.globl _g_CLIKFL
                                    141 	.globl _g_ONGSBF
                                    142 	.globl _g_FNKFLG
                                    143 	.globl _g_FNKSWI
                                    144 	.globl _g_CODSAV
                                    145 	.globl _g_FSTPOS
                                    146 	.globl _g_LINTTB
                                    147 	.globl _g_BASROM
                                    148 	.globl _g_ENSTOP
                                    149 	.globl _g_VCBC
                                    150 	.globl _g_VCBB
                                    151 	.globl _g_VCBA
                                    152 	.globl _g_PLYCNT
                                    153 	.globl _g_MUSICF
                                    154 	.globl _g_QUEUEN
                                    155 	.globl _g_MCLPTR
                                    156 	.globl _g_MCLLEN
                                    157 	.globl _g_SAVVOL
                                    158 	.globl _g_VOICEN
                                    159 	.globl _g_SAVSP
                                    160 	.globl _g_PRSCNT
                                    161 	.globl _g_LSTMOD
                                    162 	.globl _g_LSTCOM
                                    163 	.globl _g_COMMSK
                                    164 	.globl _g_ESTBLS
                                    165 	.globl _g_FLAGS
                                    166 	.globl _g_ERRORS
                                    167 	.globl _g_DATCNT
                                    168 	.globl _g_DEVNUM
                                    169 	.globl _g_OLDINT
                                    170 	.globl _g_OLDSTT
                                    171 	.globl _g_MEXBIh
                                    172 	.globl _g_RSIQLN
                                    173 	.globl _g_RSFCB
                                    174 	.globl _g_TOCNT
                                    175 	.globl _g_RSTMP
                                    176 	.globl _g_YSAVE
                                    177 	.globl _g_XSAVE
                                    178 	.globl _g_NORUSE
                                    179 	.globl _g_MODE
                                    180 	.globl _g_ROMA
                                    181 	.globl _g_CHRCNT
                                    182 	.globl _g_EXBRSA
                                    183 	.globl _g_AVCSAV
                                    184 	.globl _g_ACPAGE
                                    185 	.globl _g_DPPAGE
                                    186 	.globl _g_RS2IQ
                                    187 	.globl _g_VOICCQ
                                    188 	.globl _g_VOICBQ
                                    189 	.globl _g_VOICAQ
                                    190 	.globl _g_QUEBAK
                                    191 	.globl _g_QUETAB
                                    192 	.globl _g_ASPCT2
                                    193 	.globl _g_ASPCT1
                                    194 	.globl _g_HEADER
                                    195 	.globl _g_HIGH
                                    196 	.globl _g_LOW
                                    197 	.globl _g_CS240
                                    198 	.globl _g_CS120
                                    199 	.globl _g_GETPNT
                                    200 	.globl _g_PUTPNT
                                    201 	.globl _g_REPCNT
                                    202 	.globl _g_SCNCNT
                                    203 	.globl _g_FRCNEW
                                    204 	.globl _g_QUEUES
                                    205 	.globl _g_MINUPD
                                    206 	.globl _g_MAXUPD
                                    207 	.globl _g_TRGFLG
                                    208 	.globl _g_STATFL
                                    209 	.globl _g_RG7SAV
                                    210 	.globl _g_RG6SAV
                                    211 	.globl _g_RG5SAV
                                    212 	.globl _g_RG4SAV
                                    213 	.globl _g_RG3SAV
                                    214 	.globl _g_RG2SAV
                                    215 	.globl _g_RG1SAV
                                    216 	.globl _g_RG0SAV
                                    217 	.globl _g_CNSDFG
                                    218 	.globl _g_USRTAB
                                    219 	.globl _g_CLPRIM
                                    220 	.globl _g_WRPRIM
                                    221 	.globl _g_RDPRIM
                                    222 	.globl _PlayerAI_Movement
                                    223 ;--------------------------------------------------------
                                    224 ; special function registers
                                    225 ;--------------------------------------------------------
                         000000A8   226 _g_PortPrimarySlot	=	0x00a8
                         000000A9   227 _g_PortReadKeyboard	=	0x00a9
                         000000AA   228 _g_PortAccessKeyboard	=	0x00aa
                         000000AB   229 _g_PortControl	=	0x00ab
                         00000098   230 _g_VDP_DataPort	=	0x0098
                         00000099   231 _g_VDP_RegPort	=	0x0099
                         00000099   232 _g_VDP_AddrPort	=	0x0099
                         00000099   233 _g_VDP_StatPort	=	0x0099
                         0000009A   234 _g_VDP_PalPort	=	0x009a
                         0000009B   235 _g_VDP_IRegPort	=	0x009b
                         000000A0   236 _g_PSG_RegPort	=	0x00a0
                         000000A1   237 _g_PSG_DataPort	=	0x00a1
                         000000A2   238 _g_PSG_StatPort	=	0x00a2
                         00000010   239 _g_PSG_Ext_RegPort	=	0x0010
                         00000011   240 _g_PSG_Ext_DataPort	=	0x0011
                         00000012   241 _g_PSG_Ext_StatPort	=	0x0012
                         0000007C   242 _g_MSXMusic_IndexPort	=	0x007c
                         0000007D   243 _g_MSXMusic_DataPort	=	0x007d
                         000000C0   244 _g_MSXAudio_IndexPort	=	0x00c0
                         000000C1   245 _g_MSXAudio_DataPort	=	0x00c1
                         000000C2   246 _g_MSXAudio_IndexPort2	=	0x00c2
                         000000C3   247 _g_MSXAudio_DataPort2	=	0x00c3
                         000000B4   248 _g_RTC_AddrPort	=	0x00b4
                         000000B5   249 _g_RTC_DataPort	=	0x00b5
                                    250 ;--------------------------------------------------------
                                    251 ; ram data
                                    252 ;--------------------------------------------------------
                                    253 	.area _DATA
                         0000F3AE   254 _g_LINL40	=	0xf3ae
                         0000F3AF   255 _g_LINL32	=	0xf3af
                         0000F3B0   256 _g_LINLEN	=	0xf3b0
                         0000F3B1   257 _g_CRTCNT	=	0xf3b1
                         0000F3B2   258 _g_CLMLST	=	0xf3b2
                         0000F3B3   259 _g_TXTNAM	=	0xf3b3
                         0000F3B5   260 _g_TXTCOL	=	0xf3b5
                         0000F3B7   261 _g_TXTCGP	=	0xf3b7
                         0000F3B9   262 _g_TXTATR	=	0xf3b9
                         0000F3BB   263 _g_TXTPAT	=	0xf3bb
                         0000F3BD   264 _g_T32NAM	=	0xf3bd
                         0000F3BF   265 _g_T32COL	=	0xf3bf
                         0000F3C1   266 _g_T32CGP	=	0xf3c1
                         0000F3C3   267 _g_T32ATR	=	0xf3c3
                         0000F3C5   268 _g_T32PAT	=	0xf3c5
                         0000F3C7   269 _g_GRPNAM	=	0xf3c7
                         0000F3C9   270 _g_GRPCOL	=	0xf3c9
                         0000F3CB   271 _g_GRPCGP	=	0xf3cb
                         0000F3CD   272 _g_GRPATR	=	0xf3cd
                         0000F3CF   273 _g_GRPPAT	=	0xf3cf
                         0000F3D1   274 _g_MLTNAM	=	0xf3d1
                         0000F3D3   275 _g_MLTCOL	=	0xf3d3
                         0000F3D5   276 _g_MLTCGP	=	0xf3d5
                         0000F3D7   277 _g_MLTATR	=	0xf3d7
                         0000F3D9   278 _g_MLTPAT	=	0xf3d9
                         0000F3DB   279 _g_CLIKSW	=	0xf3db
                         0000F3DC   280 _g_CSRY	=	0xf3dc
                         0000F3DD   281 _g_CSRX	=	0xf3dd
                         0000F3E9   282 _g_FORCLR	=	0xf3e9
                         0000F3EA   283 _g_BAKCLR	=	0xf3ea
                         0000F3EB   284 _g_BDRCLR	=	0xf3eb
                         0000F3F2   285 _g_ATRBYT	=	0xf3f2
                         0000F87F   286 _g_FNKSTR	=	0xf87f
                         0000F92A   287 _g_CLOC	=	0xf92a
                         0000F92C   288 _g_CMASK	=	0xf92c
                         0000FB02   289 _g_LOGOPR	=	0xfb02
                         0000FCB7   290 _g_GRPACX	=	0xfcb7
                         0000FCB9   291 _g_GRPACY	=	0xfcb9
                         0000FFFF   292 _g_SLTSL	=	0xffff
                                    293 ;--------------------------------------------------------
                                    294 ; ram data
                                    295 ;--------------------------------------------------------
                                    296 	.area _INITIALIZED
    00000000                        297 _ai_last_dx:
    00000000                        298 	.ds 14
    0000000E                        299 _ai_last_dy:
    0000000E                        300 	.ds 14
                                    301 ;--------------------------------------------------------
                                    302 ; absolute external ram data
                                    303 ;--------------------------------------------------------
                                    304 	.area _DABS (ABS)
                                    305 ;--------------------------------------------------------
                                    306 ; global & static initialisations
                                    307 ;--------------------------------------------------------
                                    308 	.area _HOME
                                    309 	.area _GSINIT
                                    310 	.area _GSFINAL
                                    311 	.area _GSINIT
                                    312 ;--------------------------------------------------------
                                    313 ; Home
                                    314 ;--------------------------------------------------------
                                    315 	.area _HOME
                                    316 	.area _HOME
                                    317 ;--------------------------------------------------------
                                    318 ; code
                                    319 ;--------------------------------------------------------
                                    320 	.area _SEG21
                                    321 ;E:\Dropbox\FAUSTO\SVILUPPI\MSX\CODE\C\MSXgl\projects\soccerlgMSX2/soccerlg_s21_b3.c:12: void PlayerAI_Movement(u8 i) 
                                    322 ;	---------------------------------
                                    323 ; Function PlayerAI_Movement
                                    324 ; ---------------------------------
    00000000                        325 _PlayerAI_Movement::
    00000000 DD E5            [15]  326 	push	ix
    00000002 DD 21 00 00      [14]  327 	ld	ix,#0
    00000006 DD 39            [15]  328 	add	ix,sp
    00000008 21 DD FF         [10]  329 	ld	hl, #-35
    0000000B 39               [11]  330 	add	hl, sp
    0000000C F9               [ 6]  331 	ld	sp, hl
                                    332 ;E:\Dropbox\FAUSTO\SVILUPPI\MSX\CODE\C\MSXgl\projects\soccerlgMSX2/soccerlg_s21_b3.c:14: struct ObjectInfo* Ball = &SwSprite[14];
                                    333 ;E:\Dropbox\FAUSTO\SVILUPPI\MSX\CODE\C\MSXgl\projects\soccerlgMSX2/soccerlg_s21_b3.c:15: struct ObjectInfo* Player = &SwSprite[i];
    0000000D DD 77 FF         [19]  334 	ld	-1 (ix), a
    00000010 4F               [ 4]  335 	ld	c, a
    00000011 06 00            [ 7]  336 	ld	b, #0x00
    00000013 69               [ 4]  337 	ld	l, c
    00000014 60               [ 4]  338 	ld	h, b
    00000015 29               [11]  339 	add	hl, hl
    00000016 29               [11]  340 	add	hl, hl
    00000017 09               [11]  341 	add	hl, bc
    00000018 29               [11]  342 	add	hl, hl
    00000019 09               [11]  343 	add	hl, bc
    0000001A 29               [11]  344 	add	hl, hl
    0000001B 09               [11]  345 	add	hl, bc
    0000001C DD 75 FB         [19]  346 	ld	-5 (ix), l
    0000001F DD 74 FC         [19]  347 	ld	-4 (ix), h
    00000022 3Er00            [ 7]  348 	ld	a, #<(_SwSprite)
    00000024 DD 86 FB         [19]  349 	add	a, -5 (ix)
    00000027 DD 77 FD         [19]  350 	ld	-3 (ix), a
    0000002A 3Es00            [ 7]  351 	ld	a, #>(_SwSprite)
    0000002C DD 8E FC         [19]  352 	adc	a, -4 (ix)
    0000002F DD 77 FE         [19]  353 	ld	-2 (ix), a
    00000032 DD 7E FD         [19]  354 	ld	a, -3 (ix)
    00000035 DD 77 E1         [19]  355 	ld	-31 (ix), a
    00000038 DD 7E FE         [19]  356 	ld	a, -2 (ix)
    0000003B DD 77 E2         [19]  357 	ld	-30 (ix), a
                                    358 ;E:\Dropbox\FAUSTO\SVILUPPI\MSX\CODE\C\MSXgl\projects\soccerlgMSX2/soccerlg_s21_b3.c:16: u8 team = (i < 7) ? TEAM_1 : TEAM_2;
    0000003E DD 7E FF         [19]  359 	ld	a, -1 (ix)
    00000041 D6 07            [ 7]  360 	sub	a, #0x07
    00000043 30 06            [12]  361 	jr	NC, 00419$
    00000045 01 00 00         [10]  362 	ld	bc, #0x0000
    00000048 C3r4Er00         [10]  363 	jp	00420$
    0000004B                        364 00419$:
    0000004B 01 01 00         [10]  365 	ld	bc, #0x0001
    0000004E                        366 00420$:
                                    367 ;E:\Dropbox\FAUSTO\SVILUPPI\MSX\CODE\C\MSXgl\projects\soccerlgMSX2/soccerlg_s21_b3.c:21: u8 role = (team == TEAM_1) ? i : (i - 7); // 1,2: Dif, 3,4: Cen, 5,6: Att
    0000004E DD 71 E3         [19]  368 	ld	-29 (ix), c
    00000051 79               [ 4]  369 	ld	a, c
    00000052 B7               [ 4]  370 	or	a, a
    00000053 20 06            [12]  371 	jr	NZ, 00421$
    00000055 DD 7E FF         [19]  372 	ld	a, -1 (ix)
    00000058 C3r60r00         [10]  373 	jp	00422$
    0000005B                        374 00421$:
    0000005B DD 7E FF         [19]  375 	ld	a, -1 (ix)
    0000005E C6 F9            [ 7]  376 	add	a, #0xf9
    00000060                        377 00422$:
    00000060 DD 77 FE         [19]  378 	ld	-2 (ix), a
                                    379 ;E:\Dropbox\FAUSTO\SVILUPPI\MSX\CODE\C\MSXgl\projects\soccerlgMSX2/soccerlg_s21_b3.c:24: u8 closest_mate = (team == TEAM_1) ? g_closest_t1 : g_closest_t2;
    00000063 DD 7E E3         [19]  380 	ld	a, -29 (ix)
    00000066 B7               [ 4]  381 	or	a, a
    00000067 20 06            [12]  382 	jr	NZ, 00423$
    00000069 3Ar00r00         [13]  383 	ld	a, (_g_closest_t1+0)
    0000006C C3r72r00         [10]  384 	jp	00424$
    0000006F                        385 00423$:
    0000006F 3Ar00r00         [13]  386 	ld	a, (_g_closest_t2+0)
    00000072                        387 00424$:
    00000072 DD 77 E4         [19]  388 	ld	-28 (ix), a
                                    389 ;E:\Dropbox\FAUSTO\SVILUPPI\MSX\CODE\C\MSXgl\projects\soccerlgMSX2/soccerlg_s21_b3.c:27: u16 b_dist_x = (Player->lx > Ball->lx) ? (Player->lx - Ball->lx) : (Ball->lx - Player->lx);
    00000075 DD 6E E1         [19]  390 	ld	l, -31 (ix)
    00000078 DD 66 E2         [19]  391 	ld	h, -30 (ix)
    0000007B 5E               [ 7]  392 	ld	e, (hl)
    0000007C 3Ar42r01         [13]  393 	ld	a, (#(_SwSprite + 322) + 0)
    0000007F DD 77 E5         [19]  394 	ld	-27 (ix), a
    00000082 4B               [ 4]  395 	ld	c, e
    00000083 06 00            [ 7]  396 	ld	b, #0x00
    00000085 DD 7E E5         [19]  397 	ld	a, -27 (ix)
    00000088 DD 77 E6         [19]  398 	ld	-26 (ix), a
    0000008B DD 36 E7 00      [19]  399 	ld	-25 (ix), #0x00
    0000008F DD 7E E5         [19]  400 	ld	a, -27 (ix)
    00000092 93               [ 4]  401 	sub	a, e
    00000093 30 0C            [12]  402 	jr	NC, 00425$
    00000095 79               [ 4]  403 	ld	a, c
    00000096 DD 96 E6         [19]  404 	sub	a, -26 (ix)
    00000099 4F               [ 4]  405 	ld	c, a
    0000009A 78               [ 4]  406 	ld	a, b
    0000009B DD 9E E7         [19]  407 	sbc	a, -25 (ix)
    0000009E C3rAAr00         [10]  408 	jp	00426$
    000000A1                        409 00425$:
    000000A1 DD 7E E6         [19]  410 	ld	a, -26 (ix)
    000000A4 91               [ 4]  411 	sub	a, c
    000000A5 4F               [ 4]  412 	ld	c, a
    000000A6 DD 7E E7         [19]  413 	ld	a, -25 (ix)
    000000A9 98               [ 4]  414 	sbc	a, b
    000000AA                        415 00426$:
    000000AA DD 71 E8         [19]  416 	ld	-24 (ix), c
    000000AD DD 77 E9         [19]  417 	ld	-23 (ix), a
                                    418 ;E:\Dropbox\FAUSTO\SVILUPPI\MSX\CODE\C\MSXgl\projects\soccerlgMSX2/soccerlg_s21_b3.c:28: u16 b_dist_y = (Player->ly > Ball->ly) ? (Player->ly - Ball->ly) : (Ball->ly - Player->ly);
    000000B0 DD 7E E1         [19]  419 	ld	a, -31 (ix)
    000000B3 C6 04            [ 7]  420 	add	a, #0x04
    000000B5 DD 77 EA         [19]  421 	ld	-22 (ix), a
    000000B8 DD 7E E2         [19]  422 	ld	a, -30 (ix)
    000000BB CE 00            [ 7]  423 	adc	a, #0x00
    000000BD DD 77 EB         [19]  424 	ld	-21 (ix), a
    000000C0 DD 6E EA         [19]  425 	ld	l, -22 (ix)
    000000C3 DD 66 EB         [19]  426 	ld	h, -21 (ix)
    000000C6 7E               [ 7]  427 	ld	a, (hl)
    000000C7 DD 77 EC         [19]  428 	ld	-20 (ix), a
    000000CA 23               [ 6]  429 	inc	hl
    000000CB 7E               [ 7]  430 	ld	a, (hl)
    000000CC DD 77 ED         [19]  431 	ld	-19 (ix), a
    000000CF 21r46r01         [10]  432 	ld	hl, #(_SwSprite + 326)
    000000D2 7E               [ 7]  433 	ld	a, (hl)
    000000D3 DD 77 EE         [19]  434 	ld	-18 (ix), a
    000000D6 23               [ 6]  435 	inc	hl
    000000D7 7E               [ 7]  436 	ld	a, (hl)
    000000D8 DD 77 EF         [19]  437 	ld	-17 (ix), a
    000000DB DD 7E EE         [19]  438 	ld	a, -18 (ix)
    000000DE DD 96 EC         [19]  439 	sub	a, -20 (ix)
    000000E1 DD 7E EF         [19]  440 	ld	a, -17 (ix)
    000000E4 DD 9E ED         [19]  441 	sbc	a, -19 (ix)
    000000E7 30 10            [12]  442 	jr	NC, 00427$
    000000E9 DD 7E EC         [19]  443 	ld	a, -20 (ix)
    000000EC DD 96 EE         [19]  444 	sub	a, -18 (ix)
    000000EF 5F               [ 4]  445 	ld	e, a
    000000F0 DD 7E ED         [19]  446 	ld	a, -19 (ix)
    000000F3 DD 9E EF         [19]  447 	sbc	a, -17 (ix)
    000000F6 C3r06r01         [10]  448 	jp	00428$
    000000F9                        449 00427$:
    000000F9 DD 7E EE         [19]  450 	ld	a, -18 (ix)
    000000FC DD 96 EC         [19]  451 	sub	a, -20 (ix)
    000000FF 5F               [ 4]  452 	ld	e, a
    00000100 DD 7E EF         [19]  453 	ld	a, -17 (ix)
    00000103 DD 9E ED         [19]  454 	sbc	a, -19 (ix)
    00000106                        455 00428$:
    00000106 DD 73 F0         [19]  456 	ld	-16 (ix), e
    00000109 DD 77 F1         [19]  457 	ld	-15 (ix), a
                                    458 ;E:\Dropbox\FAUSTO\SVILUPPI\MSX\CODE\C\MSXgl\projects\soccerlgMSX2/soccerlg_s21_b3.c:32: bool ball_free_nearby = (!g_is_ball_carried && b_dist_x <= 48 && b_dist_y <= 48);
    0000010C 3Ar00r00         [13]  459 	ld	a, (_g_is_ball_carried+0)
    0000010F B7               [ 4]  460 	or	a, a
    00000110 20 1C            [12]  461 	jr	NZ, 00429$
    00000112 DD 4E E8         [19]  462 	ld	c, -24 (ix)
    00000115 DD 46 E9         [19]  463 	ld	b, -23 (ix)
    00000118 3E 30            [ 7]  464 	ld	a, #0x30
    0000011A B9               [ 4]  465 	cp	a, c
    0000011B 3E 00            [ 7]  466 	ld	a, #0x00
    0000011D 98               [ 4]  467 	sbc	a, b
    0000011E 38 0E            [12]  468 	jr	C, 00429$
    00000120 DD 4E F0         [19]  469 	ld	c, -16 (ix)
    00000123 DD 46 F1         [19]  470 	ld	b, -15 (ix)
    00000126 3E 30            [ 7]  471 	ld	a, #0x30
    00000128 B9               [ 4]  472 	cp	a, c
    00000129 3E 00            [ 7]  473 	ld	a, #0x00
    0000012B 98               [ 4]  474 	sbc	a, b
    0000012C 30 04            [12]  475 	jr	NC, 00430$
    0000012E                        476 00429$:
    0000012E AF               [ 4]  477 	xor	a, a
    0000012F C3r34r01         [10]  478 	jp	00431$
    00000132                        479 00430$:
    00000132 3E 01            [ 7]  480 	ld	a, #0x01
    00000134                        481 00431$:
    00000134 DD 77 F2         [19]  482 	ld	-14 (ix), a
                                    483 ;E:\Dropbox\FAUSTO\SVILUPPI\MSX\CODE\C\MSXgl\projects\soccerlgMSX2/soccerlg_s21_b3.c:33: if (Ball->anim == 5 && LastTouchTeam == team) ball_free_nearby = FALSE; // Non disturbare i propri passaggi
    00000137 2Ar55r01         [16]  484 	ld	hl, (#(_SwSprite + 341) + 0)
    0000013A DD 75 F3         [19]  485 	ld	-13 (ix), l
    0000013D DD 74 F4         [19]  486 	ld	-12 (ix), h
    00000140 DD 7E F3         [19]  487 	ld	a, -13 (ix)
    00000143 D6 05            [ 7]  488 	sub	a, #0x05
    00000145 DD B6 F4         [19]  489 	or	a, -12 (ix)
    00000148 20 0C            [12]  490 	jr	NZ, 00102$
    0000014A 3Ar00r00         [13]  491 	ld	a, (_LastTouchTeam+0)
    0000014D DD 96 E3         [19]  492 	sub	a, -29 (ix)
    00000150 20 04            [12]  493 	jr	NZ, 00102$
    00000152 DD 36 F2 00      [19]  494 	ld	-14 (ix), #0x00
    00000156                        495 00102$:
                                    496 ;E:\Dropbox\FAUSTO\SVILUPPI\MSX\CODE\C\MSXgl\projects\soccerlgMSX2/soccerlg_s21_b3.c:34: if (ball_free_nearby) {
    00000156 DD 7E F2         [19]  497 	ld	a, -14 (ix)
    00000159 B7               [ 4]  498 	or	a, a
    0000015A 28 19            [12]  499 	jr	Z, 00219$
                                    500 ;E:\Dropbox\FAUSTO\SVILUPPI\MSX\CODE\C\MSXgl\projects\soccerlgMSX2/soccerlg_s21_b3.c:35: target_x = Ball->lx;
    0000015C DD 7E E5         [19]  501 	ld	a, -27 (ix)
    0000015F DD 77 FA         [19]  502 	ld	-6 (ix), a
    00000162 DD 36 FB 00      [19]  503 	ld	-5 (ix), #0x00
                                    504 ;E:\Dropbox\FAUSTO\SVILUPPI\MSX\CODE\C\MSXgl\projects\soccerlgMSX2/soccerlg_s21_b3.c:36: target_y = Ball->ly;
    00000166 DD 7E EE         [19]  505 	ld	a, -18 (ix)
    00000169 DD 4E EF         [19]  506 	ld	c, -17 (ix)
    0000016C DD 77 FC         [19]  507 	ld	-4 (ix), a
    0000016F DD 71 FD         [19]  508 	ld	-3 (ix), c
    00000172 C3rADr0A         [10]  509 	jp	00220$
    00000175                        510 00219$:
                                    511 ;E:\Dropbox\FAUSTO\SVILUPPI\MSX\CODE\C\MSXgl\projects\soccerlgMSX2/soccerlg_s21_b3.c:33: if (Ball->anim == 5 && LastTouchTeam == team) ball_free_nearby = FALSE; // Non disturbare i propri passaggi
    00000175 3Ar00r00         [13]  512 	ld	a, (_LastTouchTeam+0)
    00000178 DD 96 E3         [19]  513 	sub	a, -29 (ix)
    0000017B 3E 01            [ 7]  514 	ld	a, #0x01
    0000017D 28 01            [12]  515 	jr	Z, 01790$
    0000017F AF               [ 4]  516 	xor	a, a
    00000180                        517 01790$:
                                    518 ;E:\Dropbox\FAUSTO\SVILUPPI\MSX\CODE\C\MSXgl\projects\soccerlgMSX2/soccerlg_s21_b3.c:38: if (LastTouchTeam == team) {
    00000180 DD 77 FD         [19]  519 	ld	-3 (ix), a
    00000183 B7               [ 4]  520 	or	a, a
    00000184 CAr65r06         [10]  521 	jp	Z, 00216$
                                    522 ;E:\Dropbox\FAUSTO\SVILUPPI\MSX\CODE\C\MSXgl\projects\soccerlgMSX2/soccerlg_s21_b3.c:40: u8 run_dist = g_ActiveStats[team].aggro_attack * 10; 
    00000187 01r00r00         [10]  523 	ld	bc, #_g_ActiveStats+0
    0000018A DD 5E E3         [19]  524 	ld	e, -29 (ix)
    0000018D 16 00            [ 7]  525 	ld	d, #0x00
    0000018F 6B               [ 4]  526 	ld	l, e
    00000190 62               [ 4]  527 	ld	h, d
    00000191 29               [11]  528 	add	hl, hl
    00000192 19               [11]  529 	add	hl, de
    00000193 29               [11]  530 	add	hl, hl
    00000194 19               [11]  531 	add	hl, de
    00000195 09               [11]  532 	add	hl, bc
    00000196 11 05 00         [10]  533 	ld	de, #0x0005
    00000199 19               [11]  534 	add	hl, de
    0000019A 7E               [ 7]  535 	ld	a, (hl)
    0000019B 4F               [ 4]  536 	ld	c, a
    0000019C 87               [ 4]  537 	add	a, a
    0000019D 87               [ 4]  538 	add	a, a
    0000019E 81               [ 4]  539 	add	a, c
    0000019F 87               [ 4]  540 	add	a, a
    000001A0 DD 77 FD         [19]  541 	ld	-3 (ix), a
                                    542 ;E:\Dropbox\FAUSTO\SVILUPPI\MSX\CODE\C\MSXgl\projects\soccerlgMSX2/soccerlg_s21_b3.c:45: if (team == TEAM_1) {
    000001A3 DD 7E E3         [19]  543 	ld	a, -29 (ix)
    000001A6 B7               [ 4]  544 	or	a, a
    000001A7 20 59            [12]  545 	jr	NZ, 00109$
                                    546 ;E:\Dropbox\FAUSTO\SVILUPPI\MSX\CODE\C\MSXgl\projects\soccerlgMSX2/soccerlg_s21_b3.c:46: offside_line = (SwSprite[8].ly > SwSprite[9].ly) ? SwSprite[8].ly : SwSprite[9].ly;
    000001A9 21rBCr00         [10]  547 	ld	hl, #_SwSprite + 188
    000001AC 7E               [ 7]  548 	ld	a, (hl)
    000001AD DD 77 F8         [19]  549 	ld	-8 (ix), a
    000001B0 23               [ 6]  550 	inc	hl
    000001B1 7E               [ 7]  551 	ld	a, (hl)
    000001B2 DD 77 F9         [19]  552 	ld	-7 (ix), a
    000001B5 21rD3r00         [10]  553 	ld	hl, #_SwSprite + 211
    000001B8 7E               [ 7]  554 	ld	a, (hl)
    000001B9 DD 77 FB         [19]  555 	ld	-5 (ix), a
    000001BC 23               [ 6]  556 	inc	hl
    000001BD 7E               [ 7]  557 	ld	a, (hl)
    000001BE DD 77 FC         [19]  558 	ld	-4 (ix), a
    000001C1 DD 7E FB         [19]  559 	ld	a, -5 (ix)
    000001C4 DD 96 F8         [19]  560 	sub	a, -8 (ix)
    000001C7 DD 7E FC         [19]  561 	ld	a, -4 (ix)
    000001CA DD 9E F9         [19]  562 	sbc	a, -7 (ix)
    000001CD 30 0C            [12]  563 	jr	NC, 00435$
    000001CF DD 7E F8         [19]  564 	ld	a, -8 (ix)
    000001D2 DD 77 FB         [19]  565 	ld	-5 (ix), a
    000001D5 DD 7E F9         [19]  566 	ld	a, -7 (ix)
    000001D8 DD 77 FC         [19]  567 	ld	-4 (ix), a
    000001DB                        568 00435$:
    000001DB DD 7E FB         [19]  569 	ld	a, -5 (ix)
    000001DE DD 77 F8         [19]  570 	ld	-8 (ix), a
    000001E1 DD 7E FC         [19]  571 	ld	a, -4 (ix)
    000001E4 DD 77 F9         [19]  572 	ld	-7 (ix), a
                                    573 ;E:\Dropbox\FAUSTO\SVILUPPI\MSX\CODE\C\MSXgl\projects\soccerlgMSX2/soccerlg_s21_b3.c:47: if (offside_line < 256) offside_line = 256; // Il fuorigioco esiste solo nella metà campo offensiva
    000001E7 DD 7E F8         [19]  574 	ld	a, -8 (ix)
    000001EA DD 77 FB         [19]  575 	ld	-5 (ix), a
    000001ED DD 7E F9         [19]  576 	ld	a, -7 (ix)
    000001F0 DD 77 FC         [19]  577 	ld	-4 (ix), a
    000001F3 D6 01            [ 7]  578 	sub	a, #0x01
    000001F5 30 32            [12]  579 	jr	NC, 00110$
    000001F7 DD 36 F8 00      [19]  580 	ld	-8 (ix), #0x00
    000001FB DD 36 F9 01      [19]  581 	ld	-7 (ix), #0x01
    000001FF C3r29r02         [10]  582 	jp	00110$
    00000202                        583 00109$:
                                    584 ;E:\Dropbox\FAUSTO\SVILUPPI\MSX\CODE\C\MSXgl\projects\soccerlgMSX2/soccerlg_s21_b3.c:49: offside_line = (SwSprite[1].ly < SwSprite[2].ly) ? SwSprite[1].ly : SwSprite[2].ly;
    00000202 ED 4Br1Br00      [20]  585 	ld	bc, (#_SwSprite + 27)
    00000206 ED 5Br32r00      [20]  586 	ld	de, (#_SwSprite + 50)
    0000020A 79               [ 4]  587 	ld	a, c
    0000020B 93               [ 4]  588 	sub	a, e
    0000020C 78               [ 4]  589 	ld	a, b
    0000020D 9A               [ 4]  590 	sbc	a, d
    0000020E 30 02            [12]  591 	jr	NC, 00437$
    00000210 59               [ 4]  592 	ld	e, c
    00000211 50               [ 4]  593 	ld	d, b
    00000212                        594 00437$:
                                    595 ;E:\Dropbox\FAUSTO\SVILUPPI\MSX\CODE\C\MSXgl\projects\soccerlgMSX2/soccerlg_s21_b3.c:50: if (offside_line > 256) offside_line = 256;
    00000212 DD 73 F8         [19]  596 	ld	-8 (ix), e
    00000215 DD 72 F9         [19]  597 	ld	-7 (ix), d
    00000218 4B               [ 4]  598 	ld	c, e
    00000219 42               [ 4]  599 	ld	b, d
    0000021A AF               [ 4]  600 	xor	a, a
    0000021B B9               [ 4]  601 	cp	a, c
    0000021C 3E 01            [ 7]  602 	ld	a, #0x01
    0000021E 98               [ 4]  603 	sbc	a, b
    0000021F 30 08            [12]  604 	jr	NC, 00110$
    00000221 DD 36 F8 00      [19]  605 	ld	-8 (ix), #0x00
    00000225 DD 36 F9 01      [19]  606 	ld	-7 (ix), #0x01
    00000229                        607 00110$:
                                    608 ;E:\Dropbox\FAUSTO\SVILUPPI\MSX\CODE\C\MSXgl\projects\soccerlgMSX2/soccerlg_s21_b3.c:53: if (role >= 5) { // Attaccanti (Ali)
    00000229 DD 7E FE         [19]  609 	ld	a, -2 (ix)
    0000022C D6 05            [ 7]  610 	sub	a, #0x05
    0000022E DArE5r02         [10]  611 	jp	C, 00124$
                                    612 ;E:\Dropbox\FAUSTO\SVILUPPI\MSX\CODE\C\MSXgl\projects\soccerlgMSX2/soccerlg_s21_b3.c:54: target_y = Ball->ly + ((team == TEAM_1) ? (60 + run_dist) : -(60 + run_dist));
    00000231 DD 7E EE         [19]  613 	ld	a, -18 (ix)
    00000234 DD 77 FA         [19]  614 	ld	-6 (ix), a
    00000237 DD 7E EF         [19]  615 	ld	a, -17 (ix)
    0000023A DD 77 FB         [19]  616 	ld	-5 (ix), a
    0000023D DD 7E FD         [19]  617 	ld	a, -3 (ix)
    00000240 DD 77 FC         [19]  618 	ld	-4 (ix), a
    00000243 DD 36 FD 00      [19]  619 	ld	-3 (ix), #0x00
    00000247 DD 7E FC         [19]  620 	ld	a, -4 (ix)
    0000024A C6 3C            [ 7]  621 	add	a, #0x3c
    0000024C DD 77 F6         [19]  622 	ld	-10 (ix), a
    0000024F DD 7E FD         [19]  623 	ld	a, -3 (ix)
    00000252 CE 00            [ 7]  624 	adc	a, #0x00
    00000254 DD 77 F7         [19]  625 	ld	-9 (ix), a
    00000257 DD 7E E3         [19]  626 	ld	a, -29 (ix)
    0000025A B7               [ 4]  627 	or	a, a
    0000025B 20 0F            [12]  628 	jr	NZ, 00439$
    0000025D DD 7E F6         [19]  629 	ld	a, -10 (ix)
    00000260 DD 77 FC         [19]  630 	ld	-4 (ix), a
    00000263 DD 7E F7         [19]  631 	ld	a, -9 (ix)
    00000266 DD 77 FD         [19]  632 	ld	-3 (ix), a
    00000269 C3r7Ar02         [10]  633 	jp	00440$
    0000026C                        634 00439$:
    0000026C AF               [ 4]  635 	xor	a, a
    0000026D DD 96 F6         [19]  636 	sub	a, -10 (ix)
    00000270 DD 77 FC         [19]  637 	ld	-4 (ix), a
    00000273 9F               [ 4]  638 	sbc	a, a
    00000274 DD 96 F7         [19]  639 	sub	a, -9 (ix)
    00000277 DD 77 FD         [19]  640 	ld	-3 (ix), a
    0000027A                        641 00440$:
    0000027A DD 7E FA         [19]  642 	ld	a, -6 (ix)
    0000027D DD 77 F6         [19]  643 	ld	-10 (ix), a
    00000280 DD 7E FB         [19]  644 	ld	a, -5 (ix)
    00000283 DD 77 F7         [19]  645 	ld	-9 (ix), a
    00000286 DD 7E FC         [19]  646 	ld	a, -4 (ix)
    00000289 DD 77 FA         [19]  647 	ld	-6 (ix), a
    0000028C DD 7E FD         [19]  648 	ld	a, -3 (ix)
    0000028F DD 77 FB         [19]  649 	ld	-5 (ix), a
    00000292 DD 7E FA         [19]  650 	ld	a, -6 (ix)
    00000295 DD 86 F6         [19]  651 	add	a, -10 (ix)
    00000298 DD 77 FC         [19]  652 	ld	-4 (ix), a
    0000029B DD 7E FB         [19]  653 	ld	a, -5 (ix)
    0000029E DD 8E F7         [19]  654 	adc	a, -9 (ix)
    000002A1 DD 77 FD         [19]  655 	ld	-3 (ix), a
                                    656 ;E:\Dropbox\FAUSTO\SVILUPPI\MSX\CODE\C\MSXgl\projects\soccerlgMSX2/soccerlg_s21_b3.c:56: if (role == 5) {
    000002A4 DD 7E FE         [19]  657 	ld	a, -2 (ix)
    000002A7 D6 05            [ 7]  658 	sub	a, #0x05
    000002A9 20 1D            [12]  659 	jr	NZ, 00112$
                                    660 ;E:\Dropbox\FAUSTO\SVILUPPI\MSX\CODE\C\MSXgl\projects\soccerlgMSX2/soccerlg_s21_b3.c:57: target_x = (Ball->lx > 180) ? 100 : 36; // Ala Sx (si accentra solo se palla a estrema dx)
    000002AB 3E B4            [ 7]  661 	ld	a, #0xb4
    000002AD DD 96 E5         [19]  662 	sub	a, -27 (ix)
    000002B0 30 0B            [12]  663 	jr	NC, 00441$
    000002B2 DD 36 FA 64      [19]  664 	ld	-6 (ix), #0x64
    000002B6 DD 36 FB 00      [19]  665 	ld	-5 (ix), #0
    000002BA C3rD8r03         [10]  666 	jp	00125$
    000002BD                        667 00441$:
    000002BD DD 36 FA 24      [19]  668 	ld	-6 (ix), #0x24
    000002C1 DD 36 FB 00      [19]  669 	ld	-5 (ix), #0
    000002C5 C3rD8r03         [10]  670 	jp	00125$
    000002C8                        671 00112$:
                                    672 ;E:\Dropbox\FAUSTO\SVILUPPI\MSX\CODE\C\MSXgl\projects\soccerlgMSX2/soccerlg_s21_b3.c:59: target_x = (Ball->lx < 76) ? 156 : 220; // Ala Dx (si accentra solo se palla a estrema sx)
    000002C8 DD 7E E5         [19]  673 	ld	a, -27 (ix)
    000002CB D6 4C            [ 7]  674 	sub	a, #0x4c
    000002CD 30 0B            [12]  675 	jr	NC, 00443$
    000002CF DD 36 FA 9C      [19]  676 	ld	-6 (ix), #0x9c
    000002D3 DD 36 FB 00      [19]  677 	ld	-5 (ix), #0
    000002D7 C3rD8r03         [10]  678 	jp	00125$
    000002DA                        679 00443$:
    000002DA DD 36 FA DC      [19]  680 	ld	-6 (ix), #0xdc
    000002DE DD 36 FB 00      [19]  681 	ld	-5 (ix), #0
    000002E2 C3rD8r03         [10]  682 	jp	00125$
    000002E5                        683 00124$:
                                    684 ;E:\Dropbox\FAUSTO\SVILUPPI\MSX\CODE\C\MSXgl\projects\soccerlgMSX2/soccerlg_s21_b3.c:61: } else if (role >= 3) { // Centrocampisti a supporto
    000002E5 DD 7E FE         [19]  685 	ld	a, -2 (ix)
    000002E8 D6 03            [ 7]  686 	sub	a, #0x03
    000002EA 38 68            [12]  687 	jr	C, 00121$
                                    688 ;E:\Dropbox\FAUSTO\SVILUPPI\MSX\CODE\C\MSXgl\projects\soccerlgMSX2/soccerlg_s21_b3.c:62: target_y = Ball->ly + ((team == TEAM_1) ? 24 : -24);
    000002EC DD 7E EE         [19]  689 	ld	a, -18 (ix)
    000002EF DD 77 FA         [19]  690 	ld	-6 (ix), a
    000002F2 DD 7E EF         [19]  691 	ld	a, -17 (ix)
    000002F5 DD 77 FB         [19]  692 	ld	-5 (ix), a
    000002F8 DD 7E E3         [19]  693 	ld	a, -29 (ix)
    000002FB B7               [ 4]  694 	or	a, a
    000002FC 20 0B            [12]  695 	jr	NZ, 00445$
    000002FE DD 36 FC 18      [19]  696 	ld	-4 (ix), #0x18
    00000302 DD 36 FD 00      [19]  697 	ld	-3 (ix), #0
    00000306 C3r11r03         [10]  698 	jp	00446$
    00000309                        699 00445$:
    00000309 DD 36 FC E8      [19]  700 	ld	-4 (ix), #0xe8
    0000030D DD 36 FD FF      [19]  701 	ld	-3 (ix), #0xff
    00000311                        702 00446$:
    00000311 DD 7E FA         [19]  703 	ld	a, -6 (ix)
    00000314 DD 77 F6         [19]  704 	ld	-10 (ix), a
    00000317 DD 7E FB         [19]  705 	ld	a, -5 (ix)
    0000031A DD 77 F7         [19]  706 	ld	-9 (ix), a
    0000031D DD 7E FC         [19]  707 	ld	a, -4 (ix)
    00000320 DD 77 FA         [19]  708 	ld	-6 (ix), a
    00000323 DD 7E FD         [19]  709 	ld	a, -3 (ix)
    00000326 DD 77 FB         [19]  710 	ld	-5 (ix), a
    00000329 DD 7E FA         [19]  711 	ld	a, -6 (ix)
    0000032C DD 86 F6         [19]  712 	add	a, -10 (ix)
    0000032F DD 77 FC         [19]  713 	ld	-4 (ix), a
    00000332 DD 7E FB         [19]  714 	ld	a, -5 (ix)
    00000335 DD 8E F7         [19]  715 	adc	a, -9 (ix)
    00000338 DD 77 FD         [19]  716 	ld	-3 (ix), a
                                    717 ;E:\Dropbox\FAUSTO\SVILUPPI\MSX\CODE\C\MSXgl\projects\soccerlgMSX2/soccerlg_s21_b3.c:63: target_x = (role == 3) ? 64 : 192; // Più larghi per coprire le fasce
    0000033B DD 7E FE         [19]  718 	ld	a, -2 (ix)
    0000033E D6 03            [ 7]  719 	sub	a, #0x03
    00000340 20 06            [12]  720 	jr	NZ, 00447$
    00000342 11 40 00         [10]  721 	ld	de, #0x0040
    00000345 C3r4Br03         [10]  722 	jp	00448$
    00000348                        723 00447$:
    00000348 11 C0 00         [10]  724 	ld	de, #0x00c0
    0000034B                        725 00448$:
    0000034B DD 73 FA         [19]  726 	ld	-6 (ix), e
    0000034E DD 72 FB         [19]  727 	ld	-5 (ix), d
    00000351 C3rD8r03         [10]  728 	jp	00125$
    00000354                        729 00121$:
                                    730 ;E:\Dropbox\FAUSTO\SVILUPPI\MSX\CODE\C\MSXgl\projects\soccerlgMSX2/soccerlg_s21_b3.c:65: target_y = Ball->ly + ((team == TEAM_1) ? -64 : 64);
    00000354 DD 7E EE         [19]  731 	ld	a, -18 (ix)
    00000357 DD 77 FA         [19]  732 	ld	-6 (ix), a
    0000035A DD 7E EF         [19]  733 	ld	a, -17 (ix)
    0000035D DD 77 FB         [19]  734 	ld	-5 (ix), a
    00000360 DD 7E E3         [19]  735 	ld	a, -29 (ix)
    00000363 B7               [ 4]  736 	or	a, a
    00000364 20 0B            [12]  737 	jr	NZ, 00449$
    00000366 DD 36 FC C0      [19]  738 	ld	-4 (ix), #0xc0
    0000036A DD 36 FD FF      [19]  739 	ld	-3 (ix), #0xff
    0000036E C3r79r03         [10]  740 	jp	00450$
    00000371                        741 00449$:
    00000371 DD 36 FC 40      [19]  742 	ld	-4 (ix), #0x40
    00000375 DD 36 FD 00      [19]  743 	ld	-3 (ix), #0
    00000379                        744 00450$:
    00000379 DD 4E FA         [19]  745 	ld	c, -6 (ix)
    0000037C DD 46 FB         [19]  746 	ld	b, -5 (ix)
    0000037F DD 6E FC         [19]  747 	ld	l, -4 (ix)
                                    748 ;	spillPairReg hl
                                    749 ;	spillPairReg hl
    00000382 DD 66 FD         [19]  750 	ld	h, -3 (ix)
                                    751 ;	spillPairReg hl
                                    752 ;	spillPairReg hl
    00000385 09               [11]  753 	add	hl, bc
    00000386 DD 75 FC         [19]  754 	ld	-4 (ix), l
    00000389 DD 74 FD         [19]  755 	ld	-3 (ix), h
                                    756 ;E:\Dropbox\FAUSTO\SVILUPPI\MSX\CODE\C\MSXgl\projects\soccerlgMSX2/soccerlg_s21_b3.c:66: target_x = (role == 1) ? 80 : 144;
    0000038C DD 7E FE         [19]  757 	ld	a, -2 (ix)
    0000038F 3D               [ 4]  758 	dec	a
    00000390 20 06            [12]  759 	jr	NZ, 00451$
    00000392 01 50 00         [10]  760 	ld	bc, #0x0050
    00000395 C3r9Br03         [10]  761 	jp	00452$
    00000398                        762 00451$:
    00000398 01 90 00         [10]  763 	ld	bc, #0x0090
    0000039B                        764 00452$:
    0000039B DD 71 FA         [19]  765 	ld	-6 (ix), c
    0000039E DD 70 FB         [19]  766 	ld	-5 (ix), b
                                    767 ;E:\Dropbox\FAUSTO\SVILUPPI\MSX\CODE\C\MSXgl\projects\soccerlgMSX2/soccerlg_s21_b3.c:68: if (team == TEAM_1 && target_y > 192) target_y = 192;
    000003A1 DD 7E E3         [19]  768 	ld	a, -29 (ix)
    000003A4 B7               [ 4]  769 	or	a, a
    000003A5 20 16            [12]  770 	jr	NZ, 00115$
    000003A7 DD 4E FC         [19]  771 	ld	c, -4 (ix)
    000003AA DD 46 FD         [19]  772 	ld	b, -3 (ix)
    000003AD 3E C0            [ 7]  773 	ld	a, #0xc0
    000003AF B9               [ 4]  774 	cp	a, c
    000003B0 3E 00            [ 7]  775 	ld	a, #0x00
    000003B2 98               [ 4]  776 	sbc	a, b
    000003B3 30 08            [12]  777 	jr	NC, 00115$
    000003B5 DD 36 FC C0      [19]  778 	ld	-4 (ix), #0xc0
    000003B9 DD 36 FD 00      [19]  779 	ld	-3 (ix), #0
    000003BD                        780 00115$:
                                    781 ;E:\Dropbox\FAUSTO\SVILUPPI\MSX\CODE\C\MSXgl\projects\soccerlgMSX2/soccerlg_s21_b3.c:69: if (team == TEAM_2 && target_y < 320) target_y = 320;
    000003BD DD 7E E3         [19]  782 	ld	a, -29 (ix)
    000003C0 3D               [ 4]  783 	dec	a
    000003C1 20 15            [12]  784 	jr	NZ, 00125$
    000003C3 DD 7E FC         [19]  785 	ld	a, -4 (ix)
    000003C6 DD 46 FD         [19]  786 	ld	b, -3 (ix)
    000003C9 D6 40            [ 7]  787 	sub	a, #0x40
    000003CB 78               [ 4]  788 	ld	a, b
    000003CC DE 01            [ 7]  789 	sbc	a, #0x01
    000003CE 30 08            [12]  790 	jr	NC, 00125$
    000003D0 DD 36 FC 40      [19]  791 	ld	-4 (ix), #0x40
    000003D4 DD 36 FD 01      [19]  792 	ld	-3 (ix), #0x01
    000003D8                        793 00125$:
                                    794 ;E:\Dropbox\FAUSTO\SVILUPPI\MSX\CODE\C\MSXgl\projects\soccerlgMSX2/soccerlg_s21_b3.c:47: if (offside_line < 256) offside_line = 256; // Il fuorigioco esiste solo nella metà campo offensiva
    000003D8 DD 4E F8         [19]  795 	ld	c, -8 (ix)
    000003DB DD 46 F9         [19]  796 	ld	b, -7 (ix)
                                    797 ;E:\Dropbox\FAUSTO\SVILUPPI\MSX\CODE\C\MSXgl\projects\soccerlgMSX2/soccerlg_s21_b3.c:75: u16 max_y = (role == 6 && (Secs % 5) == 0) ? offside_line + 16 : offside_line - 12;
    000003DE DD 7E FE         [19]  798 	ld	a, -2 (ix)
    000003E1 D6 06            [ 7]  799 	sub	a, #0x06
    000003E3 3E 01            [ 7]  800 	ld	a, #0x01
    000003E5 28 01            [12]  801 	jr	Z, 01800$
    000003E7 AF               [ 4]  802 	xor	a, a
    000003E8                        803 01800$:
    000003E8 DD 77 F9         [19]  804 	ld	-7 (ix), a
                                    805 ;E:\Dropbox\FAUSTO\SVILUPPI\MSX\CODE\C\MSXgl\projects\soccerlgMSX2/soccerlg_s21_b3.c:73: if (team == TEAM_1) {
    000003EB DD 7E E3         [19]  806 	ld	a, -29 (ix)
    000003EE B7               [ 4]  807 	or	a, a
    000003EF 20 50            [12]  808 	jr	NZ, 00135$
                                    809 ;E:\Dropbox\FAUSTO\SVILUPPI\MSX\CODE\C\MSXgl\projects\soccerlgMSX2/soccerlg_s21_b3.c:75: u16 max_y = (role == 6 && (Secs % 5) == 0) ? offside_line + 16 : offside_line - 12;
    000003F1 DD CB F9 46      [20]  810 	bit	0, -7 (ix)
    000003F5 28 19            [12]  811 	jr	Z, 00453$
    000003F7 3Ar00r00         [13]  812 	ld	a, (_Secs+0)
    000003FA 6F               [ 4]  813 	ld	l, a
                                    814 ;	spillPairReg hl
                                    815 ;	spillPairReg hl
    000003FB 26 00            [ 7]  816 	ld	h, #0x00
                                    817 ;	spillPairReg hl
                                    818 ;	spillPairReg hl
    000003FD C5               [11]  819 	push	bc
    000003FE 11 05 00         [10]  820 	ld	de, #0x0005
    00000401 CDr00r00         [17]  821 	call	__modsint
    00000404 C1               [10]  822 	pop	bc
    00000405 7A               [ 4]  823 	ld	a, d
    00000406 B3               [ 4]  824 	or	a, e
    00000407 20 07            [12]  825 	jr	NZ, 00453$
    00000409 21 10 00         [10]  826 	ld	hl, #0x0010
    0000040C 09               [11]  827 	add	hl, bc
    0000040D C3r18r04         [10]  828 	jp	00454$
    00000410                        829 00453$:
    00000410 79               [ 4]  830 	ld	a, c
    00000411 C6 F4            [ 7]  831 	add	a, #0xf4
    00000413 6F               [ 4]  832 	ld	l, a
                                    833 ;	spillPairReg hl
                                    834 ;	spillPairReg hl
    00000414 78               [ 4]  835 	ld	a, b
    00000415 CE FF            [ 7]  836 	adc	a, #0xff
    00000417 67               [ 4]  837 	ld	h, a
                                    838 ;	spillPairReg hl
                                    839 ;	spillPairReg hl
    00000418                        840 00454$:
                                    841 ;E:\Dropbox\FAUSTO\SVILUPPI\MSX\CODE\C\MSXgl\projects\soccerlgMSX2/soccerlg_s21_b3.c:76: if (target_y > max_y) target_y = max_y;
    00000418 7D               [ 4]  842 	ld	a, l
    00000419 DD 96 FC         [19]  843 	sub	a, -4 (ix)
    0000041C 7C               [ 4]  844 	ld	a, h
    0000041D DD 9E FD         [19]  845 	sbc	a, -3 (ix)
    00000420 30 06            [12]  846 	jr	NC, 00127$
    00000422 DD 75 FC         [19]  847 	ld	-4 (ix), l
    00000425 DD 74 FD         [19]  848 	ld	-3 (ix), h
    00000428                        849 00127$:
                                    850 ;E:\Dropbox\FAUSTO\SVILUPPI\MSX\CODE\C\MSXgl\projects\soccerlgMSX2/soccerlg_s21_b3.c:77: if (target_y > 440) target_y = 440; // Evita di schiacciarsi sulla linea di fondo avversaria
    00000428 DD 4E FC         [19]  851 	ld	c, -4 (ix)
    0000042B DD 46 FD         [19]  852 	ld	b, -3 (ix)
    0000042E 3E B8            [ 7]  853 	ld	a, #0xb8
    00000430 B9               [ 4]  854 	cp	a, c
    00000431 3E 01            [ 7]  855 	ld	a, #0x01
    00000433 98               [ 4]  856 	sbc	a, b
    00000434 30 58            [12]  857 	jr	NC, 00136$
    00000436 DD 36 FC B8      [19]  858 	ld	-4 (ix), #0xb8
    0000043A DD 36 FD 01      [19]  859 	ld	-3 (ix), #0x01
    0000043E C3r8Er04         [10]  860 	jp	00136$
    00000441                        861 00135$:
                                    862 ;E:\Dropbox\FAUSTO\SVILUPPI\MSX\CODE\C\MSXgl\projects\soccerlgMSX2/soccerlg_s21_b3.c:80: u16 min_y = (role == 6 && (Secs % 5) == 0) ? offside_line - 16 : offside_line + 12;
    00000441 DD CB F9 46      [20]  863 	bit	0, -7 (ix)
    00000445 28 1D            [12]  864 	jr	Z, 00458$
    00000447 3Ar00r00         [13]  865 	ld	a, (_Secs+0)
    0000044A 6F               [ 4]  866 	ld	l, a
                                    867 ;	spillPairReg hl
                                    868 ;	spillPairReg hl
    0000044B 26 00            [ 7]  869 	ld	h, #0x00
                                    870 ;	spillPairReg hl
                                    871 ;	spillPairReg hl
    0000044D C5               [11]  872 	push	bc
    0000044E 11 05 00         [10]  873 	ld	de, #0x0005
    00000451 CDr00r00         [17]  874 	call	__modsint
    00000454 C1               [10]  875 	pop	bc
    00000455 7A               [ 4]  876 	ld	a, d
    00000456 B3               [ 4]  877 	or	a, e
    00000457 20 0B            [12]  878 	jr	NZ, 00458$
    00000459 79               [ 4]  879 	ld	a, c
    0000045A C6 F0            [ 7]  880 	add	a, #0xf0
    0000045C 5F               [ 4]  881 	ld	e, a
    0000045D 78               [ 4]  882 	ld	a, b
    0000045E CE FF            [ 7]  883 	adc	a, #0xff
    00000460 57               [ 4]  884 	ld	d, a
    00000461 C3r69r04         [10]  885 	jp	00459$
    00000464                        886 00458$:
    00000464 21 0C 00         [10]  887 	ld	hl, #0x000c
    00000467 09               [11]  888 	add	hl, bc
    00000468 EB               [ 4]  889 	ex	de, hl
    00000469                        890 00459$:
                                    891 ;E:\Dropbox\FAUSTO\SVILUPPI\MSX\CODE\C\MSXgl\projects\soccerlgMSX2/soccerlg_s21_b3.c:81: if (target_y < min_y) target_y = min_y;
    00000469 DD 7E FC         [19]  892 	ld	a, -4 (ix)
    0000046C 93               [ 4]  893 	sub	a, e
    0000046D DD 7E FD         [19]  894 	ld	a, -3 (ix)
    00000470 9A               [ 4]  895 	sbc	a, d
    00000471 30 06            [12]  896 	jr	NC, 00131$
    00000473 DD 73 FC         [19]  897 	ld	-4 (ix), e
    00000476 DD 72 FD         [19]  898 	ld	-3 (ix), d
    00000479                        899 00131$:
                                    900 ;E:\Dropbox\FAUSTO\SVILUPPI\MSX\CODE\C\MSXgl\projects\soccerlgMSX2/soccerlg_s21_b3.c:82: if (target_y < 72) target_y = 72; // Evita di schiacciarsi sulla linea di fondo avversaria
    00000479 DD 7E FC         [19]  901 	ld	a, -4 (ix)
    0000047C DD 46 FD         [19]  902 	ld	b, -3 (ix)
    0000047F D6 48            [ 7]  903 	sub	a, #0x48
    00000481 78               [ 4]  904 	ld	a, b
    00000482 DE 00            [ 7]  905 	sbc	a, #0x00
    00000484 30 08            [12]  906 	jr	NC, 00136$
    00000486 DD 36 FC 48      [19]  907 	ld	-4 (ix), #0x48
    0000048A DD 36 FD 00      [19]  908 	ld	-3 (ix), #0
    0000048E                        909 00136$:
                                    910 ;E:\Dropbox\FAUSTO\SVILUPPI\MSX\CODE\C\MSXgl\projects\soccerlgMSX2/soccerlg_s21_b3.c:86: if (LastTouchPlayer != 0xFF && LastTouchPlayer != i) {
    0000048E 3Ar00r00         [13]  911 	ld	a, (_LastTouchPlayer+0)
    00000491 3C               [ 4]  912 	inc	a
    00000492 CAr59r05         [10]  913 	jp	Z,00141$
    00000495 3Ar00r00         [13]  914 	ld	a, (_LastTouchPlayer+0)
    00000498 DD 96 FF         [19]  915 	sub	a, -1 (ix)
    0000049B CAr59r05         [10]  916 	jp	Z,00141$
                                    917 ;E:\Dropbox\FAUSTO\SVILUPPI\MSX\CODE\C\MSXgl\projects\soccerlgMSX2/soccerlg_s21_b3.c:87: u16 dist_c_x = (SwSprite[LastTouchPlayer].lx > target_x) ? (SwSprite[LastTouchPlayer].lx - target_x) : (target_x - SwSprite[LastTouchPlayer].lx);
    0000049E ED 4Br00r00      [20]  918 	ld	bc, (_LastTouchPlayer)
    000004A2 06 00            [ 7]  919 	ld	b, #0x00
    000004A4 69               [ 4]  920 	ld	l, c
    000004A5 60               [ 4]  921 	ld	h, b
    000004A6 29               [11]  922 	add	hl, hl
    000004A7 29               [11]  923 	add	hl, hl
    000004A8 09               [11]  924 	add	hl, bc
    000004A9 29               [11]  925 	add	hl, hl
    000004AA 09               [11]  926 	add	hl, bc
    000004AB 29               [11]  927 	add	hl, hl
    000004AC 09               [11]  928 	add	hl, bc
    000004AD 11r00r00         [10]  929 	ld	de, #_SwSprite
    000004B0 19               [11]  930 	add	hl, de
    000004B1 DD 75 F6         [19]  931 	ld	-10 (ix), l
    000004B4 DD 74 F7         [19]  932 	ld	-9 (ix), h
    000004B7 5E               [ 7]  933 	ld	e, (hl)
    000004B8 6B               [ 4]  934 	ld	l, e
                                    935 ;	spillPairReg hl
                                    936 ;	spillPairReg hl
                                    937 ;	spillPairReg hl
                                    938 ;	spillPairReg hl
    000004B9 26 00            [ 7]  939 	ld	h, #0x00
    000004BB 54               [ 4]  940 	ld	d, h
    000004BC DD 4E FA         [19]  941 	ld	c, -6 (ix)
    000004BF DD 46 FB         [19]  942 	ld	b, -5 (ix)
    000004C2 DD 7E FA         [19]  943 	ld	a, -6 (ix)
    000004C5 95               [ 4]  944 	sub	a, l
    000004C6 DD 7E FB         [19]  945 	ld	a, -5 (ix)
    000004C9 9C               [ 4]  946 	sbc	a, h
    000004CA 30 0C            [12]  947 	jr	NC, 00463$
    000004CC 7B               [ 4]  948 	ld	a, e
    000004CD DD 96 FA         [19]  949 	sub	a, -6 (ix)
    000004D0 5F               [ 4]  950 	ld	e, a
    000004D1 7A               [ 4]  951 	ld	a, d
    000004D2 DD 9E FB         [19]  952 	sbc	a, -5 (ix)
    000004D5 C3rDDr04         [10]  953 	jp	00464$
    000004D8                        954 00463$:
    000004D8 79               [ 4]  955 	ld	a, c
    000004D9 93               [ 4]  956 	sub	a, e
    000004DA 5F               [ 4]  957 	ld	e, a
    000004DB 78               [ 4]  958 	ld	a, b
    000004DC 9A               [ 4]  959 	sbc	a, d
    000004DD                        960 00464$:
    000004DD DD 73 F8         [19]  961 	ld	-8 (ix), e
    000004E0 DD 77 F9         [19]  962 	ld	-7 (ix), a
                                    963 ;E:\Dropbox\FAUSTO\SVILUPPI\MSX\CODE\C\MSXgl\projects\soccerlgMSX2/soccerlg_s21_b3.c:88: u16 dist_c_y = (SwSprite[LastTouchPlayer].ly > target_y) ? (SwSprite[LastTouchPlayer].ly - target_y) : (target_y - SwSprite[LastTouchPlayer].ly);
    000004E3 DD 5E F6         [19]  964 	ld	e, -10 (ix)
    000004E6 DD 56 F7         [19]  965 	ld	d, -9 (ix)
    000004E9 21 04 00         [10]  966 	ld	hl, #4
    000004EC 19               [11]  967 	add	hl, de
    000004ED 5E               [ 7]  968 	ld	e, (hl)
    000004EE 23               [ 6]  969 	inc	hl
    000004EF 56               [ 7]  970 	ld	d, (hl)
    000004F0 DD 7E FC         [19]  971 	ld	a, -4 (ix)
    000004F3 93               [ 4]  972 	sub	a, e
    000004F4 DD 7E FD         [19]  973 	ld	a, -3 (ix)
    000004F7 9A               [ 4]  974 	sbc	a, d
    000004F8 30 0C            [12]  975 	jr	NC, 00465$
    000004FA 7B               [ 4]  976 	ld	a, e
    000004FB DD 96 FC         [19]  977 	sub	a, -4 (ix)
    000004FE 5F               [ 4]  978 	ld	e, a
    000004FF 7A               [ 4]  979 	ld	a, d
    00000500 DD 9E FD         [19]  980 	sbc	a, -3 (ix)
    00000503 C3r0Fr05         [10]  981 	jp	00466$
    00000506                        982 00465$:
    00000506 DD 7E FC         [19]  983 	ld	a, -4 (ix)
    00000509 93               [ 4]  984 	sub	a, e
    0000050A 5F               [ 4]  985 	ld	e, a
    0000050B DD 7E FD         [19]  986 	ld	a, -3 (ix)
    0000050E 9A               [ 4]  987 	sbc	a, d
    0000050F                        988 00466$:
    0000050F 57               [ 4]  989 	ld	d, a
                                    990 ;E:\Dropbox\FAUSTO\SVILUPPI\MSX\CODE\C\MSXgl\projects\soccerlgMSX2/soccerlg_s21_b3.c:89: if (dist_c_x < 48 && dist_c_y < 48) {
                                    991 ;	spillPairReg hl
                                    992 ;	spillPairReg hl
                                    993 ;	spillPairReg hl
                                    994 ;	spillPairReg hl
    00000510 DD 7E F8         [19]  995 	ld	a, -8 (ix)
    00000513 DD 66 F9         [19]  996 	ld	h, -7 (ix)
    00000516 D6 30            [ 7]  997 	sub	a, #0x30
    00000518 7C               [ 4]  998 	ld	a, h
    00000519 DE 00            [ 7]  999 	sbc	a, #0x00
    0000051B 30 3C            [12] 1000 	jr	NC, 00141$
    0000051D 7B               [ 4] 1001 	ld	a, e
    0000051E D6 30            [ 7] 1002 	sub	a, #0x30
    00000520 7A               [ 4] 1003 	ld	a, d
    00000521 DE 00            [ 7] 1004 	sbc	a, #0x00
    00000523 30 34            [12] 1005 	jr	NC, 00141$
                                   1006 ;E:\Dropbox\FAUSTO\SVILUPPI\MSX\CODE\C\MSXgl\projects\soccerlgMSX2/soccerlg_s21_b3.c:90: target_x += (target_x > 112) ? 48 : -48;
    00000525 3E 70            [ 7] 1007 	ld	a, #0x70
    00000527 B9               [ 4] 1008 	cp	a, c
    00000528 3E 00            [ 7] 1009 	ld	a, #0x00
    0000052A 98               [ 4] 1010 	sbc	a, b
    0000052B 30 06            [12] 1011 	jr	NC, 00467$
    0000052D 21 30 00         [10] 1012 	ld	hl, #0x0030
    00000530 C3r36r05         [10] 1013 	jp	00468$
    00000533                       1014 00467$:
    00000533 21 D0 FF         [10] 1015 	ld	hl, #0xffd0
    00000536                       1016 00468$:
    00000536 09               [11] 1017 	add	hl, bc
    00000537 DD 75 FA         [19] 1018 	ld	-6 (ix), l
    0000053A DD 74 FB         [19] 1019 	ld	-5 (ix), h
                                   1020 ;E:\Dropbox\FAUSTO\SVILUPPI\MSX\CODE\C\MSXgl\projects\soccerlgMSX2/soccerlg_s21_b3.c:91: target_y += (team == TEAM_1) ? 32 : -32; 
    0000053D DD 7E E3         [19] 1021 	ld	a, -29 (ix)
    00000540 B7               [ 4] 1022 	or	a, a
    00000541 20 06            [12] 1023 	jr	NZ, 00469$
    00000543 21 20 00         [10] 1024 	ld	hl, #0x0020
    00000546 C3r4Cr05         [10] 1025 	jp	00470$
    00000549                       1026 00469$:
    00000549 21 E0 FF         [10] 1027 	ld	hl, #0xffe0
    0000054C                       1028 00470$:
    0000054C DD 4E FC         [19] 1029 	ld	c, -4 (ix)
    0000054F DD 46 FD         [19] 1030 	ld	b, -3 (ix)
    00000552 09               [11] 1031 	add	hl, bc
    00000553 DD 75 FC         [19] 1032 	ld	-4 (ix), l
    00000556 DD 74 FD         [19] 1033 	ld	-3 (ix), h
    00000559                       1034 00141$:
                                   1035 ;E:\Dropbox\FAUSTO\SVILUPPI\MSX\CODE\C\MSXgl\projects\soccerlgMSX2/soccerlg_s21_b3.c:96: u8 twin_role = (role % 2 == 1) ? role + 1 : role - 1;
    00000559 DD 7E FE         [19] 1036 	ld	a, -2 (ix)
    0000055C E6 01            [ 7] 1037 	and	a, #0x01
    0000055E 47               [ 4] 1038 	ld	b, a
    0000055F 1E 00            [ 7] 1039 	ld	e, #0x00
    00000561 DD 4E FE         [19] 1040 	ld	c, -2 (ix)
    00000564 78               [ 4] 1041 	ld	a, b
    00000565 3D               [ 4] 1042 	dec	a
    00000566 B3               [ 4] 1043 	or	a, e
    00000567 20 04            [12] 1044 	jr	NZ, 00471$
    00000569 0C               [ 4] 1045 	inc	c
    0000056A C3r6Er05         [10] 1046 	jp	00472$
    0000056D                       1047 00471$:
    0000056D 0D               [ 4] 1048 	dec	c
    0000056E                       1049 00472$:
                                   1050 ;E:\Dropbox\FAUSTO\SVILUPPI\MSX\CODE\C\MSXgl\projects\soccerlgMSX2/soccerlg_s21_b3.c:97: u8 twin_idx = (team == TEAM_1) ? twin_role : twin_role + 7;
    0000056E DD 7E E3         [19] 1051 	ld	a, -29 (ix)
    00000571 B7               [ 4] 1052 	or	a, a
    00000572 28 04            [12] 1053 	jr	Z, 00474$
    00000574 79               [ 4] 1054 	ld	a, c
    00000575 C6 07            [ 7] 1055 	add	a, #0x07
    00000577 4F               [ 4] 1056 	ld	c, a
    00000578                       1057 00474$:
                                   1058 ;E:\Dropbox\FAUSTO\SVILUPPI\MSX\CODE\C\MSXgl\projects\soccerlgMSX2/soccerlg_s21_b3.c:98: if (twin_idx != LastTouchPlayer && twin_idx != i) {
    00000578 3Ar00r00         [13] 1059 	ld	a, (_LastTouchPlayer+0)
    0000057B 91               [ 4] 1060 	sub	a, c
    0000057C CAr36r06         [10] 1061 	jp	Z,00147$
    0000057F DD 7E FF         [19] 1062 	ld	a, -1 (ix)
    00000582 91               [ 4] 1063 	sub	a, c
    00000583 CAr36r06         [10] 1064 	jp	Z,00147$
                                   1065 ;E:\Dropbox\FAUSTO\SVILUPPI\MSX\CODE\C\MSXgl\projects\soccerlgMSX2/soccerlg_s21_b3.c:99: u16 d_mx = (SwSprite[twin_idx].lx > target_x) ? (SwSprite[twin_idx].lx - target_x) : (target_x - SwSprite[twin_idx].lx);
    00000586 06 00            [ 7] 1066 	ld	b, #0x00
    00000588 69               [ 4] 1067 	ld	l, c
    00000589 60               [ 4] 1068 	ld	h, b
    0000058A 29               [11] 1069 	add	hl, hl
    0000058B 29               [11] 1070 	add	hl, hl
    0000058C 09               [11] 1071 	add	hl, bc
    0000058D 29               [11] 1072 	add	hl, hl
    0000058E 09               [11] 1073 	add	hl, bc
    0000058F 29               [11] 1074 	add	hl, hl
    00000590 09               [11] 1075 	add	hl, bc
    00000591 11r00r00         [10] 1076 	ld	de, #_SwSprite
    00000594 19               [11] 1077 	add	hl, de
    00000595 DD 75 F8         [19] 1078 	ld	-8 (ix), l
    00000598 DD 74 F9         [19] 1079 	ld	-7 (ix), h
    0000059B 5E               [ 7] 1080 	ld	e, (hl)
    0000059C DD 73 F6         [19] 1081 	ld	-10 (ix), e
    0000059F DD 36 F7 00      [19] 1082 	ld	-9 (ix), #0x00
                                   1083 ;E:\Dropbox\FAUSTO\SVILUPPI\MSX\CODE\C\MSXgl\projects\soccerlgMSX2/soccerlg_s21_b3.c:87: u16 dist_c_x = (SwSprite[LastTouchPlayer].lx > target_x) ? (SwSprite[LastTouchPlayer].lx - target_x) : (target_x - SwSprite[LastTouchPlayer].lx);
    000005A3 DD 4E FA         [19] 1084 	ld	c, -6 (ix)
    000005A6 DD 46 FB         [19] 1085 	ld	b, -5 (ix)
                                   1086 ;E:\Dropbox\FAUSTO\SVILUPPI\MSX\CODE\C\MSXgl\projects\soccerlgMSX2/soccerlg_s21_b3.c:99: u16 d_mx = (SwSprite[twin_idx].lx > target_x) ? (SwSprite[twin_idx].lx - target_x) : (target_x - SwSprite[twin_idx].lx);
    000005A9 16 00            [ 7] 1087 	ld	d, #0x00
    000005AB DD 7E FA         [19] 1088 	ld	a, -6 (ix)
    000005AE DD 96 F6         [19] 1089 	sub	a, -10 (ix)
    000005B1 DD 7E FB         [19] 1090 	ld	a, -5 (ix)
    000005B4 DD 9E F7         [19] 1091 	sbc	a, -9 (ix)
    000005B7 30 0C            [12] 1092 	jr	NC, 00475$
    000005B9 7B               [ 4] 1093 	ld	a, e
    000005BA DD 96 FA         [19] 1094 	sub	a, -6 (ix)
    000005BD 5F               [ 4] 1095 	ld	e, a
    000005BE 7A               [ 4] 1096 	ld	a, d
    000005BF DD 9E FB         [19] 1097 	sbc	a, -5 (ix)
    000005C2 C3rCAr05         [10] 1098 	jp	00476$
    000005C5                       1099 00475$:
    000005C5 79               [ 4] 1100 	ld	a, c
    000005C6 93               [ 4] 1101 	sub	a, e
    000005C7 5F               [ 4] 1102 	ld	e, a
    000005C8 78               [ 4] 1103 	ld	a, b
    000005C9 9A               [ 4] 1104 	sbc	a, d
    000005CA                       1105 00476$:
    000005CA 57               [ 4] 1106 	ld	d, a
                                   1107 ;E:\Dropbox\FAUSTO\SVILUPPI\MSX\CODE\C\MSXgl\projects\soccerlgMSX2/soccerlg_s21_b3.c:100: u16 d_my = (SwSprite[twin_idx].ly > target_y) ? (SwSprite[twin_idx].ly - target_y) : (target_y - SwSprite[twin_idx].ly);
    000005CB DD 6E F8         [19] 1108 	ld	l, -8 (ix)
                                   1109 ;	spillPairReg hl
                                   1110 ;	spillPairReg hl
    000005CE DD 66 F9         [19] 1111 	ld	h, -7 (ix)
                                   1112 ;	spillPairReg hl
                                   1113 ;	spillPairReg hl
    000005D1 23               [ 6] 1114 	inc	hl
    000005D2 23               [ 6] 1115 	inc	hl
    000005D3 23               [ 6] 1116 	inc	hl
    000005D4 23               [ 6] 1117 	inc	hl
    000005D5 7E               [ 7] 1118 	ld	a, (hl)
    000005D6 23               [ 6] 1119 	inc	hl
    000005D7 66               [ 7] 1120 	ld	h, (hl)
                                   1121 ;	spillPairReg hl
    000005D8 6F               [ 4] 1122 	ld	l, a
                                   1123 ;	spillPairReg hl
                                   1124 ;	spillPairReg hl
    000005D9 DD 7E FC         [19] 1125 	ld	a, -4 (ix)
    000005DC 95               [ 4] 1126 	sub	a, l
    000005DD DD 7E FD         [19] 1127 	ld	a, -3 (ix)
    000005E0 9C               [ 4] 1128 	sbc	a, h
    000005E1 30 11            [12] 1129 	jr	NC, 00477$
    000005E3 7D               [ 4] 1130 	ld	a, l
    000005E4 DD 96 FC         [19] 1131 	sub	a, -4 (ix)
    000005E7 DD 77 F8         [19] 1132 	ld	-8 (ix), a
    000005EA 7C               [ 4] 1133 	ld	a, h
    000005EB DD 9E FD         [19] 1134 	sbc	a, -3 (ix)
    000005EE DD 77 F9         [19] 1135 	ld	-7 (ix), a
    000005F1 C3r02r06         [10] 1136 	jp	00478$
    000005F4                       1137 00477$:
    000005F4 DD 7E FC         [19] 1138 	ld	a, -4 (ix)
    000005F7 95               [ 4] 1139 	sub	a, l
    000005F8 DD 77 F8         [19] 1140 	ld	-8 (ix), a
    000005FB DD 7E FD         [19] 1141 	ld	a, -3 (ix)
    000005FE 9C               [ 4] 1142 	sbc	a, h
    000005FF DD 77 F9         [19] 1143 	ld	-7 (ix), a
    00000602                       1144 00478$:
    00000602 DD 6E F8         [19] 1145 	ld	l, -8 (ix)
                                   1146 ;	spillPairReg hl
                                   1147 ;	spillPairReg hl
    00000605 DD 66 F9         [19] 1148 	ld	h, -7 (ix)
                                   1149 ;	spillPairReg hl
                                   1150 ;	spillPairReg hl
                                   1151 ;E:\Dropbox\FAUSTO\SVILUPPI\MSX\CODE\C\MSXgl\projects\soccerlgMSX2/soccerlg_s21_b3.c:101: if (d_mx < 40 && d_my < 40) {
    00000608 7B               [ 4] 1152 	ld	a, e
    00000609 D6 28            [ 7] 1153 	sub	a, #0x28
    0000060B 7A               [ 4] 1154 	ld	a, d
    0000060C DE 00            [ 7] 1155 	sbc	a, #0x00
    0000060E 30 26            [12] 1156 	jr	NC, 00147$
    00000610 11 28 00         [10] 1157 	ld	de, #0x0028
    00000613 BF               [ 4] 1158 	cp	a, a
    00000614 ED 52            [15] 1159 	sbc	hl, de
    00000616 30 1E            [12] 1160 	jr	NC, 00147$
                                   1161 ;E:\Dropbox\FAUSTO\SVILUPPI\MSX\CODE\C\MSXgl\projects\soccerlgMSX2/soccerlg_s21_b3.c:102: target_x += (target_x > SwSprite[twin_idx].lx) ? 24 : -24;
    00000618 DD 7E F6         [19] 1162 	ld	a, -10 (ix)
    0000061B DD 96 FA         [19] 1163 	sub	a, -6 (ix)
    0000061E DD 7E F7         [19] 1164 	ld	a, -9 (ix)
    00000621 DD 9E FB         [19] 1165 	sbc	a, -5 (ix)
    00000624 30 06            [12] 1166 	jr	NC, 00479$
    00000626 21 18 00         [10] 1167 	ld	hl, #0x0018
    00000629 C3r2Fr06         [10] 1168 	jp	00480$
    0000062C                       1169 00479$:
    0000062C 21 E8 FF         [10] 1170 	ld	hl, #0xffe8
    0000062F                       1171 00480$:
    0000062F 09               [11] 1172 	add	hl, bc
    00000630 DD 75 FA         [19] 1173 	ld	-6 (ix), l
    00000633 DD 74 FB         [19] 1174 	ld	-5 (ix), h
    00000636                       1175 00147$:
                                   1176 ;E:\Dropbox\FAUSTO\SVILUPPI\MSX\CODE\C\MSXgl\projects\soccerlgMSX2/soccerlg_s21_b3.c:107: if (target_x < 36) target_x = 36;
    00000636 DD 7E FA         [19] 1177 	ld	a, -6 (ix)
    00000639 DD 46 FB         [19] 1178 	ld	b, -5 (ix)
    0000063C D6 24            [ 7] 1179 	sub	a, #0x24
    0000063E 78               [ 4] 1180 	ld	a, b
    0000063F DE 00            [ 7] 1181 	sbc	a, #0x00
    00000641 30 08            [12] 1182 	jr	NC, 00150$
    00000643 DD 36 FA 24      [19] 1183 	ld	-6 (ix), #0x24
    00000647 DD 36 FB 00      [19] 1184 	ld	-5 (ix), #0
    0000064B                       1185 00150$:
                                   1186 ;E:\Dropbox\FAUSTO\SVILUPPI\MSX\CODE\C\MSXgl\projects\soccerlgMSX2/soccerlg_s21_b3.c:108: if (target_x > 204) target_x = 204;
    0000064B DD 4E FA         [19] 1187 	ld	c, -6 (ix)
    0000064E DD 46 FB         [19] 1188 	ld	b, -5 (ix)
    00000651 3E CC            [ 7] 1189 	ld	a, #0xcc
    00000653 B9               [ 4] 1190 	cp	a, c
    00000654 3E 00            [ 7] 1191 	ld	a, #0x00
    00000656 98               [ 4] 1192 	sbc	a, b
    00000657 D2rADr0A         [10] 1193 	jp	NC, 00220$
    0000065A DD 36 FA CC      [19] 1194 	ld	-6 (ix), #0xcc
    0000065E DD 36 FB 00      [19] 1195 	ld	-5 (ix), #0
    00000662 C3rADr0A         [10] 1196 	jp	00220$
    00000665                       1197 00216$:
                                   1198 ;E:\Dropbox\FAUSTO\SVILUPPI\MSX\CODE\C\MSXgl\projects\soccerlgMSX2/soccerlg_s21_b3.c:109: } else if (LastTouchTeam != 0xFF) {
    00000665 3Ar00r00         [13] 1199 	ld	a, (_LastTouchTeam+0)
    00000668 3C               [ 4] 1200 	inc	a
    00000669 CAr0Cr0A         [10] 1201 	jp	Z,00213$
                                   1202 ;E:\Dropbox\FAUSTO\SVILUPPI\MSX\CODE\C\MSXgl\projects\soccerlgMSX2/soccerlg_s21_b3.c:111: if (role >= 5) { // Attaccanti alti
    0000066C DD 7E FE         [19] 1203 	ld	a, -2 (ix)
    0000066F D6 05            [ 7] 1204 	sub	a, #0x05
    00000671 38 68            [12] 1205 	jr	C, 00194$
                                   1206 ;E:\Dropbox\FAUSTO\SVILUPPI\MSX\CODE\C\MSXgl\projects\soccerlgMSX2/soccerlg_s21_b3.c:112: target_y = Ball->ly + ((team == TEAM_1) ? -40 : 40);
    00000673 DD 7E EE         [19] 1207 	ld	a, -18 (ix)
    00000676 DD 77 FA         [19] 1208 	ld	-6 (ix), a
    00000679 DD 7E EF         [19] 1209 	ld	a, -17 (ix)
    0000067C DD 77 FB         [19] 1210 	ld	-5 (ix), a
    0000067F DD 7E E3         [19] 1211 	ld	a, -29 (ix)
    00000682 B7               [ 4] 1212 	or	a, a
    00000683 20 0B            [12] 1213 	jr	NZ, 00481$
    00000685 DD 36 FC D8      [19] 1214 	ld	-4 (ix), #0xd8
    00000689 DD 36 FD FF      [19] 1215 	ld	-3 (ix), #0xff
    0000068D C3r98r06         [10] 1216 	jp	00482$
    00000690                       1217 00481$:
    00000690 DD 36 FC 28      [19] 1218 	ld	-4 (ix), #0x28
    00000694 DD 36 FD 00      [19] 1219 	ld	-3 (ix), #0
    00000698                       1220 00482$:
    00000698 DD 7E FA         [19] 1221 	ld	a, -6 (ix)
    0000069B DD 77 F8         [19] 1222 	ld	-8 (ix), a
    0000069E DD 7E FB         [19] 1223 	ld	a, -5 (ix)
    000006A1 DD 77 F9         [19] 1224 	ld	-7 (ix), a
    000006A4 DD 7E FC         [19] 1225 	ld	a, -4 (ix)
    000006A7 DD 77 FA         [19] 1226 	ld	-6 (ix), a
    000006AA DD 7E FD         [19] 1227 	ld	a, -3 (ix)
    000006AD DD 77 FB         [19] 1228 	ld	-5 (ix), a
    000006B0 DD 7E FA         [19] 1229 	ld	a, -6 (ix)
    000006B3 DD 86 F8         [19] 1230 	add	a, -8 (ix)
    000006B6 DD 77 FC         [19] 1231 	ld	-4 (ix), a
    000006B9 DD 7E FB         [19] 1232 	ld	a, -5 (ix)
    000006BC DD 8E F9         [19] 1233 	adc	a, -7 (ix)
    000006BF DD 77 FD         [19] 1234 	ld	-3 (ix), a
                                   1235 ;E:\Dropbox\FAUSTO\SVILUPPI\MSX\CODE\C\MSXgl\projects\soccerlgMSX2/soccerlg_s21_b3.c:113: target_x = (role == 5) ? 80 : 144;
    000006C2 DD 7E FE         [19] 1236 	ld	a, -2 (ix)
    000006C5 D6 05            [ 7] 1237 	sub	a, #0x05
    000006C7 20 06            [12] 1238 	jr	NZ, 00483$
    000006C9 01 50 00         [10] 1239 	ld	bc, #0x0050
    000006CC C3rD2r06         [10] 1240 	jp	00484$
    000006CF                       1241 00483$:
    000006CF 01 90 00         [10] 1242 	ld	bc, #0x0090
    000006D2                       1243 00484$:
    000006D2 DD 71 FA         [19] 1244 	ld	-6 (ix), c
    000006D5 DD 70 FB         [19] 1245 	ld	-5 (ix), b
    000006D8 C3rDDr09         [10] 1246 	jp	00195$
    000006DB                       1247 00194$:
                                   1248 ;E:\Dropbox\FAUSTO\SVILUPPI\MSX\CODE\C\MSXgl\projects\soccerlgMSX2/soccerlg_s21_b3.c:114: } else if (role >= 3) { // Centrocampisti chiudono il centro
    000006DB DD 7E FE         [19] 1249 	ld	a, -2 (ix)
    000006DE D6 03            [ 7] 1250 	sub	a, #0x03
    000006E0 38 4C            [12] 1251 	jr	C, 00191$
                                   1252 ;E:\Dropbox\FAUSTO\SVILUPPI\MSX\CODE\C\MSXgl\projects\soccerlgMSX2/soccerlg_s21_b3.c:115: target_y = Ball->ly + ((team == TEAM_1) ? 32 : -32);
    000006E2 DD 4E EE         [19] 1253 	ld	c, -18 (ix)
    000006E5 DD 46 EF         [19] 1254 	ld	b, -17 (ix)
    000006E8 DD 7E E3         [19] 1255 	ld	a, -29 (ix)
    000006EB B7               [ 4] 1256 	or	a, a
    000006EC 20 06            [12] 1257 	jr	NZ, 00485$
    000006EE 21 20 00         [10] 1258 	ld	hl, #0x0020
    000006F1 C3rF7r06         [10] 1259 	jp	00486$
    000006F4                       1260 00485$:
    000006F4 21 E0 FF         [10] 1261 	ld	hl, #0xffe0
    000006F7                       1262 00486$:
    000006F7 09               [11] 1263 	add	hl, bc
    000006F8 DD 75 FC         [19] 1264 	ld	-4 (ix), l
    000006FB DD 74 FD         [19] 1265 	ld	-3 (ix), h
                                   1266 ;E:\Dropbox\FAUSTO\SVILUPPI\MSX\CODE\C\MSXgl\projects\soccerlgMSX2/soccerlg_s21_b3.c:116: target_x = Ball->lx + ((role == 3) ? -32 : 32);
    000006FE DD 7E FE         [19] 1267 	ld	a, -2 (ix)
    00000701 D6 03            [ 7] 1268 	sub	a, #0x03
    00000703 20 0B            [12] 1269 	jr	NZ, 00487$
    00000705 DD 36 FA E0      [19] 1270 	ld	-6 (ix), #0xe0
    00000709 DD 36 FB FF      [19] 1271 	ld	-5 (ix), #0xff
    0000070D C3r18r07         [10] 1272 	jp	00488$
    00000710                       1273 00487$:
    00000710 DD 36 FA 20      [19] 1274 	ld	-6 (ix), #0x20
    00000714 DD 36 FB 00      [19] 1275 	ld	-5 (ix), #0
    00000718                       1276 00488$:
    00000718 DD 7E E6         [19] 1277 	ld	a, -26 (ix)
    0000071B DD 86 FA         [19] 1278 	add	a, -6 (ix)
    0000071E 4F               [ 4] 1279 	ld	c, a
    0000071F DD 7E E7         [19] 1280 	ld	a, -25 (ix)
    00000722 DD 8E FB         [19] 1281 	adc	a, -5 (ix)
    00000725 DD 71 FA         [19] 1282 	ld	-6 (ix), c
    00000728 DD 77 FB         [19] 1283 	ld	-5 (ix), a
    0000072B C3rDDr09         [10] 1284 	jp	00195$
    0000072E                       1285 00191$:
                                   1286 ;E:\Dropbox\FAUSTO\SVILUPPI\MSX\CODE\C\MSXgl\projects\soccerlgMSX2/soccerlg_s21_b3.c:120: bool ball_in_own_area = (team == TEAM_1) ? (Ball->ly < 140) : (Ball->ly > 372);
    0000072E DD 7E EE         [19] 1287 	ld	a, -18 (ix)
    00000731 DD 77 FA         [19] 1288 	ld	-6 (ix), a
    00000734 DD 7E EF         [19] 1289 	ld	a, -17 (ix)
    00000737 DD 77 FB         [19] 1290 	ld	-5 (ix), a
    0000073A DD 7E E3         [19] 1291 	ld	a, -29 (ix)
    0000073D B7               [ 4] 1292 	or	a, a
    0000073E 20 13            [12] 1293 	jr	NZ, 00489$
    00000740 DD 7E FA         [19] 1294 	ld	a, -6 (ix)
    00000743 D6 8C            [ 7] 1295 	sub	a, #0x8c
    00000745 DD 7E FB         [19] 1296 	ld	a, -5 (ix)
    00000748 DE 00            [ 7] 1297 	sbc	a, #0x00
    0000074A 3E 00            [ 7] 1298 	ld	a, #0x00
    0000074C 17               [ 4] 1299 	rla
    0000074D DD 77 FC         [19] 1300 	ld	-4 (ix), a
    00000750 C3r63r07         [10] 1301 	jp	00490$
    00000753                       1302 00489$:
    00000753 3E 74            [ 7] 1303 	ld	a, #0x74
    00000755 DD BE FA         [19] 1304 	cp	a, -6 (ix)
    00000758 3E 01            [ 7] 1305 	ld	a, #0x01
    0000075A DD 9E FB         [19] 1306 	sbc	a, -5 (ix)
    0000075D 3E 00            [ 7] 1307 	ld	a, #0x00
    0000075F 17               [ 4] 1308 	rla
    00000760 DD 77 FC         [19] 1309 	ld	-4 (ix), a
    00000763                       1310 00490$:
    00000763 DD 7E FC         [19] 1311 	ld	a, -4 (ix)
    00000766 DD 77 F5         [19] 1312 	ld	-11 (ix), a
                                   1313 ;E:\Dropbox\FAUSTO\SVILUPPI\MSX\CODE\C\MSXgl\projects\soccerlgMSX2/soccerlg_s21_b3.c:121: bool side_presses = (role == 1) ? (Ball->lx < 128) : (Ball->lx >= 128);
    00000769 DD 7E FE         [19] 1314 	ld	a, -2 (ix)
    0000076C 3D               [ 4] 1315 	dec	a
    0000076D 3E 01            [ 7] 1316 	ld	a, #0x01
    0000076F 28 01            [12] 1317 	jr	Z, 01813$
    00000771 AF               [ 4] 1318 	xor	a, a
    00000772                       1319 01813$:
    00000772 DD 77 F6         [19] 1320 	ld	-10 (ix), a
    00000775 DD 7E E5         [19] 1321 	ld	a, -27 (ix)
    00000778 D6 80            [ 7] 1322 	sub	a, #0x80
    0000077A 3E 00            [ 7] 1323 	ld	a, #0x00
    0000077C 17               [ 4] 1324 	rla
    0000077D DD 77 FE         [19] 1325 	ld	-2 (ix), a
    00000780 DD 7E F6         [19] 1326 	ld	a, -10 (ix)
    00000783 B7               [ 4] 1327 	or	a, a
    00000784 20 08            [12] 1328 	jr	NZ, 00492$
    00000786 DD 7E FE         [19] 1329 	ld	a, -2 (ix)
    00000789 EE 01            [ 7] 1330 	xor	a, #0x01
    0000078B DD 77 FE         [19] 1331 	ld	-2 (ix), a
    0000078E                       1332 00492$:
    0000078E DD 7E FE         [19] 1333 	ld	a, -2 (ix)
    00000791 DD 77 F7         [19] 1334 	ld	-9 (ix), a
                                   1335 ;E:\Dropbox\FAUSTO\SVILUPPI\MSX\CODE\C\MSXgl\projects\soccerlgMSX2/soccerlg_s21_b3.c:124: bool carrier_is_threat = FALSE;
    00000794 DD 36 FE 00      [19] 1336 	ld	-2 (ix), #0x00
                                   1337 ;E:\Dropbox\FAUSTO\SVILUPPI\MSX\CODE\C\MSXgl\projects\soccerlgMSX2/soccerlg_s21_b3.c:125: if (g_is_ball_carried && LastTouchTeam != team && LastTouchPlayer != 0xFF) {
    00000798 3Ar00r00         [13] 1338 	ld	a, (_g_is_ball_carried+0)
    0000079B B7               [ 4] 1339 	or	a, a
    0000079C CAr2Ar08         [10] 1340 	jp	Z, 00163$
    0000079F DD CB FD 46      [20] 1341 	bit	0, -3 (ix)
    000007A3 C2r2Ar08         [10] 1342 	jp	NZ, 00163$
    000007A6 3Ar00r00         [13] 1343 	ld	a, (_LastTouchPlayer+0)
    000007A9 3C               [ 4] 1344 	inc	a
    000007AA CAr2Ar08         [10] 1345 	jp	Z,00163$
                                   1346 ;E:\Dropbox\FAUSTO\SVILUPPI\MSX\CODE\C\MSXgl\projects\soccerlgMSX2/soccerlg_s21_b3.c:126: struct ObjectInfo* carrier = &SwSprite[LastTouchPlayer];
    000007AD ED 4Br00r00      [20] 1347 	ld	bc, (_LastTouchPlayer)
    000007B1 06 00            [ 7] 1348 	ld	b, #0x00
    000007B3 69               [ 4] 1349 	ld	l, c
    000007B4 60               [ 4] 1350 	ld	h, b
    000007B5 29               [11] 1351 	add	hl, hl
    000007B6 29               [11] 1352 	add	hl, hl
    000007B7 09               [11] 1353 	add	hl, bc
    000007B8 29               [11] 1354 	add	hl, hl
    000007B9 09               [11] 1355 	add	hl, bc
    000007BA 29               [11] 1356 	add	hl, hl
    000007BB 09               [11] 1357 	add	hl, bc
    000007BC DD 75 F8         [19] 1358 	ld	-8 (ix), l
    000007BF DD 74 F9         [19] 1359 	ld	-7 (ix), h
    000007C2 3Er00            [ 7] 1360 	ld	a, #<(_SwSprite)
    000007C4 DD 86 F8         [19] 1361 	add	a, -8 (ix)
    000007C7 DD 77 FC         [19] 1362 	ld	-4 (ix), a
    000007CA 3Es00            [ 7] 1363 	ld	a, #>(_SwSprite)
    000007CC DD 8E F9         [19] 1364 	adc	a, -7 (ix)
    000007CF DD 77 FD         [19] 1365 	ld	-3 (ix), a
                                   1366 ;E:\Dropbox\FAUSTO\SVILUPPI\MSX\CODE\C\MSXgl\projects\soccerlgMSX2/soccerlg_s21_b3.c:128: if (team == TEAM_1 && carrier->dy < 0 && Ball->ly < 256) { // Team 1 difende Nord (Y<256), attaccante va verso Y basso
    000007D2 DD 7E E3         [19] 1367 	ld	a, -29 (ix)
    000007D5 B7               [ 4] 1368 	or	a, a
    000007D6 20 28            [12] 1369 	jr	NZ, 00158$
    000007D8 DD 7E FC         [19] 1370 	ld	a, -4 (ix)
    000007DB DD 77 F8         [19] 1371 	ld	-8 (ix), a
    000007DE DD 7E FD         [19] 1372 	ld	a, -3 (ix)
    000007E1 DD 77 F9         [19] 1373 	ld	-7 (ix), a
    000007E4 DD 6E F8         [19] 1374 	ld	l, -8 (ix)
    000007E7 DD 66 F9         [19] 1375 	ld	h, -7 (ix)
    000007EA 11 12 00         [10] 1376 	ld	de, #0x0012
    000007ED 19               [11] 1377 	add	hl, de
    000007EE CB 7E            [12] 1378 	bit	7, (hl)
    000007F0 28 0E            [12] 1379 	jr	Z, 00158$
    000007F2 DD 7E FB         [19] 1380 	ld	a, -5 (ix)
    000007F5 D6 01            [ 7] 1381 	sub	a, #0x01
    000007F7 30 07            [12] 1382 	jr	NC, 00158$
                                   1383 ;E:\Dropbox\FAUSTO\SVILUPPI\MSX\CODE\C\MSXgl\projects\soccerlgMSX2/soccerlg_s21_b3.c:129: carrier_is_threat = TRUE;
    000007F9 DD 36 FE 01      [19] 1384 	ld	-2 (ix), #0x01
    000007FD C3r2Ar08         [10] 1385 	jp	00163$
    00000800                       1386 00158$:
                                   1387 ;E:\Dropbox\FAUSTO\SVILUPPI\MSX\CODE\C\MSXgl\projects\soccerlgMSX2/soccerlg_s21_b3.c:130: } else if (team == TEAM_2 && carrier->dy > 0 && Ball->ly > 256) { // Team 2 difende Sud (Y>256), attaccante va verso Y alto
    00000800 DD 7E E3         [19] 1388 	ld	a, -29 (ix)
    00000803 3D               [ 4] 1389 	dec	a
    00000804 20 24            [12] 1390 	jr	NZ, 00163$
    00000806 DD 6E FC         [19] 1391 	ld	l, -4 (ix)
    00000809 DD 66 FD         [19] 1392 	ld	h, -3 (ix)
    0000080C 11 12 00         [10] 1393 	ld	de, #0x0012
    0000080F 19               [11] 1394 	add	hl, de
    00000810 4E               [ 7] 1395 	ld	c, (hl)
    00000811 AF               [ 4] 1396 	xor	a, a
    00000812 91               [ 4] 1397 	sub	a, c
    00000813 E2r18r08         [10] 1398 	jp	PO, 01817$
    00000816 EE 80            [ 7] 1399 	xor	a, #0x80
    00000818                       1400 01817$:
    00000818 F2r2Ar08         [10] 1401 	jp	P, 00163$
    0000081B AF               [ 4] 1402 	xor	a, a
    0000081C DD BE FA         [19] 1403 	cp	a, -6 (ix)
    0000081F 3E 01            [ 7] 1404 	ld	a, #0x01
    00000821 DD 9E FB         [19] 1405 	sbc	a, -5 (ix)
    00000824 30 04            [12] 1406 	jr	NC, 00163$
                                   1407 ;E:\Dropbox\FAUSTO\SVILUPPI\MSX\CODE\C\MSXgl\projects\soccerlgMSX2/soccerlg_s21_b3.c:131: carrier_is_threat = TRUE;
    00000826 DD 36 FE 01      [19] 1408 	ld	-2 (ix), #0x01
    0000082A                       1409 00163$:
                                   1410 ;E:\Dropbox\FAUSTO\SVILUPPI\MSX\CODE\C\MSXgl\projects\soccerlgMSX2/soccerlg_s21_b3.c:136: u8 press_chance = g_ActiveStats[team].aggro_defense * 15; // da 15% (stat 1) a 75% (stat 5)
    0000082A DD 4E E3         [19] 1411 	ld	c, -29 (ix)
    0000082D 06 00            [ 7] 1412 	ld	b, #0x00
    0000082F 69               [ 4] 1413 	ld	l, c
    00000830 60               [ 4] 1414 	ld	h, b
    00000831 29               [11] 1415 	add	hl, hl
    00000832 09               [11] 1416 	add	hl, bc
    00000833 29               [11] 1417 	add	hl, hl
    00000834 09               [11] 1418 	add	hl, bc
    00000835 DD 75 FA         [19] 1419 	ld	-6 (ix), l
    00000838 DD 74 FB         [19] 1420 	ld	-5 (ix), h
    0000083B 3Er00            [ 7] 1421 	ld	a, #<(_g_ActiveStats)
    0000083D DD 86 FA         [19] 1422 	add	a, -6 (ix)
    00000840 DD 77 FC         [19] 1423 	ld	-4 (ix), a
    00000843 3Es00            [ 7] 1424 	ld	a, #>(_g_ActiveStats)
    00000845 DD 8E FB         [19] 1425 	adc	a, -5 (ix)
    00000848 DD 77 FD         [19] 1426 	ld	-3 (ix), a
    0000084B DD 6E FC         [19] 1427 	ld	l, -4 (ix)
    0000084E DD 66 FD         [19] 1428 	ld	h, -3 (ix)
    00000851 11 04 00         [10] 1429 	ld	de, #0x0004
    00000854 19               [11] 1430 	add	hl, de
    00000855 7E               [ 7] 1431 	ld	a, (hl)
    00000856 DD 77 FD         [19] 1432 	ld	-3 (ix), a
    00000859 4F               [ 4] 1433 	ld	c, a
    0000085A 87               [ 4] 1434 	add	a, a
    0000085B 87               [ 4] 1435 	add	a, a
    0000085C 87               [ 4] 1436 	add	a, a
    0000085D 87               [ 4] 1437 	add	a, a
    0000085E 91               [ 4] 1438 	sub	a, c
    0000085F DD 77 F8         [19] 1439 	ld	-8 (ix), a
                                   1440 ;E:\Dropbox\FAUSTO\SVILUPPI\MSX\CODE\C\MSXgl\projects\soccerlgMSX2/soccerlg_s21_b3.c:137: if (carrier_is_threat && i != closest_mate && (Frms + i*5) % 100 < press_chance) {
    00000862 DD 7E FE         [19] 1441 	ld	a, -2 (ix)
    00000865 B7               [ 4] 1442 	or	a, a
    00000866 28 72            [12] 1443 	jr	Z, 00186$
    00000868 DD 7E FF         [19] 1444 	ld	a, -1 (ix)
    0000086B DD 96 E4         [19] 1445 	sub	a, -28 (ix)
    0000086E 28 6A            [12] 1446 	jr	Z, 00186$
    00000870 3Ar00r00         [13] 1447 	ld	a, (_Frms+0)
    00000873 DD 77 F9         [19] 1448 	ld	-7 (ix), a
    00000876 DD 36 FA 00      [19] 1449 	ld	-6 (ix), #0x00
    0000087A DD 7E FF         [19] 1450 	ld	a, -1 (ix)
    0000087D DD 77 FD         [19] 1451 	ld	-3 (ix), a
    00000880 DD 36 FE 00      [19] 1452 	ld	-2 (ix), #0x00
    00000884 4F               [ 4] 1453 	ld	c, a
    00000885 06 00            [ 7] 1454 	ld	b, #0x00
    00000887 69               [ 4] 1455 	ld	l, c
    00000888 60               [ 4] 1456 	ld	h, b
    00000889 29               [11] 1457 	add	hl, hl
    0000088A 29               [11] 1458 	add	hl, hl
    0000088B 09               [11] 1459 	add	hl, bc
    0000088C DD 75 FB         [19] 1460 	ld	-5 (ix), l
    0000088F DD 74 FC         [19] 1461 	ld	-4 (ix), h
    00000892 DD 7E F9         [19] 1462 	ld	a, -7 (ix)
    00000895 DD 86 FB         [19] 1463 	add	a, -5 (ix)
    00000898 DD 77 FD         [19] 1464 	ld	-3 (ix), a
    0000089B DD 7E FA         [19] 1465 	ld	a, -6 (ix)
    0000089E DD 8E FC         [19] 1466 	adc	a, -4 (ix)
    000008A1 DD 77 FE         [19] 1467 	ld	-2 (ix), a
    000008A4 11 64 00         [10] 1468 	ld	de, #0x0064
    000008A7 DD 6E FD         [19] 1469 	ld	l, -3 (ix)
                                   1470 ;	spillPairReg hl
                                   1471 ;	spillPairReg hl
    000008AA DD 66 FE         [19] 1472 	ld	h, -2 (ix)
                                   1473 ;	spillPairReg hl
                                   1474 ;	spillPairReg hl
    000008AD CDr00r00         [17] 1475 	call	__modsint
    000008B0 DD 4E F8         [19] 1476 	ld	c, -8 (ix)
    000008B3 06 00            [ 7] 1477 	ld	b, #0x00
    000008B5 7B               [ 4] 1478 	ld	a, e
    000008B6 91               [ 4] 1479 	sub	a, c
    000008B7 7A               [ 4] 1480 	ld	a, d
    000008B8 98               [ 4] 1481 	sbc	a, b
    000008B9 E2rBEr08         [10] 1482 	jp	PO, 01819$
    000008BC EE 80            [ 7] 1483 	xor	a, #0x80
    000008BE                       1484 01819$:
    000008BE F2rDAr08         [10] 1485 	jp	P, 00186$
                                   1486 ;E:\Dropbox\FAUSTO\SVILUPPI\MSX\CODE\C\MSXgl\projects\soccerlgMSX2/soccerlg_s21_b3.c:138: target_x = Ball->lx;
    000008C1 DD 7E E5         [19] 1487 	ld	a, -27 (ix)
    000008C4 DD 77 FA         [19] 1488 	ld	-6 (ix), a
    000008C7 DD 36 FB 00      [19] 1489 	ld	-5 (ix), #0x00
                                   1490 ;E:\Dropbox\FAUSTO\SVILUPPI\MSX\CODE\C\MSXgl\projects\soccerlgMSX2/soccerlg_s21_b3.c:139: target_y = Ball->ly;
    000008CB DD 7E EE         [19] 1491 	ld	a, -18 (ix)
    000008CE DD 4E EF         [19] 1492 	ld	c, -17 (ix)
    000008D1 DD 77 FC         [19] 1493 	ld	-4 (ix), a
    000008D4 DD 71 FD         [19] 1494 	ld	-3 (ix), c
    000008D7 C3rDDr09         [10] 1495 	jp	00195$
    000008DA                       1496 00186$:
                                   1497 ;E:\Dropbox\FAUSTO\SVILUPPI\MSX\CODE\C\MSXgl\projects\soccerlgMSX2/soccerlg_s21_b3.c:140: } else if (ball_in_own_area && side_presses) {
    000008DA DD 7E F5         [19] 1498 	ld	a, -11 (ix)
    000008DD B7               [ 4] 1499 	or	a, a
    000008DE 28 1F            [12] 1500 	jr	Z, 00182$
    000008E0 DD 7E F7         [19] 1501 	ld	a, -9 (ix)
    000008E3 B7               [ 4] 1502 	or	a, a
    000008E4 28 19            [12] 1503 	jr	Z, 00182$
                                   1504 ;E:\Dropbox\FAUSTO\SVILUPPI\MSX\CODE\C\MSXgl\projects\soccerlgMSX2/soccerlg_s21_b3.c:142: target_x = Ball->lx;
    000008E6 DD 7E E5         [19] 1505 	ld	a, -27 (ix)
    000008E9 DD 77 FA         [19] 1506 	ld	-6 (ix), a
    000008EC DD 36 FB 00      [19] 1507 	ld	-5 (ix), #0x00
                                   1508 ;E:\Dropbox\FAUSTO\SVILUPPI\MSX\CODE\C\MSXgl\projects\soccerlgMSX2/soccerlg_s21_b3.c:143: target_y = Ball->ly;
    000008F0 DD 7E EE         [19] 1509 	ld	a, -18 (ix)
    000008F3 DD 4E EF         [19] 1510 	ld	c, -17 (ix)
    000008F6 DD 77 FC         [19] 1511 	ld	-4 (ix), a
    000008F9 DD 71 FD         [19] 1512 	ld	-3 (ix), c
    000008FC C3rDDr09         [10] 1513 	jp	00195$
    000008FF                       1514 00182$:
                                   1515 ;E:\Dropbox\FAUSTO\SVILUPPI\MSX\CODE\C\MSXgl\projects\soccerlgMSX2/soccerlg_s21_b3.c:144: } else if (ball_in_own_area) {
    000008FF DD 7E F5         [19] 1516 	ld	a, -11 (ix)
    00000902 B7               [ 4] 1517 	or	a, a
    00000903 28 2D            [12] 1518 	jr	Z, 00179$
                                   1519 ;E:\Dropbox\FAUSTO\SVILUPPI\MSX\CODE\C\MSXgl\projects\soccerlgMSX2/soccerlg_s21_b3.c:146: target_x = (role == 1) ? 80 : 144;
    00000905 DD 7E F6         [19] 1520 	ld	a, -10 (ix)
    00000908 B7               [ 4] 1521 	or	a, a
    00000909 28 06            [12] 1522 	jr	Z, 00493$
    0000090B 01 50 00         [10] 1523 	ld	bc, #0x0050
    0000090E C3r14r09         [10] 1524 	jp	00494$
    00000911                       1525 00493$:
    00000911 01 90 00         [10] 1526 	ld	bc, #0x0090
    00000914                       1527 00494$:
    00000914 DD 71 FA         [19] 1528 	ld	-6 (ix), c
    00000917 DD 70 FB         [19] 1529 	ld	-5 (ix), b
                                   1530 ;E:\Dropbox\FAUSTO\SVILUPPI\MSX\CODE\C\MSXgl\projects\soccerlgMSX2/soccerlg_s21_b3.c:147: target_y = (team == TEAM_1) ? 88 : 424;
    0000091A DD 7E E3         [19] 1531 	ld	a, -29 (ix)
    0000091D B7               [ 4] 1532 	or	a, a
    0000091E 20 06            [12] 1533 	jr	NZ, 00495$
    00000920 01 58 00         [10] 1534 	ld	bc, #0x0058
    00000923 C3r29r09         [10] 1535 	jp	00496$
    00000926                       1536 00495$:
    00000926 01 A8 01         [10] 1537 	ld	bc, #0x01a8
    00000929                       1538 00496$:
    00000929 DD 71 FC         [19] 1539 	ld	-4 (ix), c
    0000092C DD 70 FD         [19] 1540 	ld	-3 (ix), b
    0000092F C3rDDr09         [10] 1541 	jp	00195$
    00000932                       1542 00179$:
                                   1543 ;E:\Dropbox\FAUSTO\SVILUPPI\MSX\CODE\C\MSXgl\projects\soccerlgMSX2/soccerlg_s21_b3.c:149: target_y = Ball->ly + ((team == TEAM_1) ? 80 : -80);
    00000932 DD 4E EE         [19] 1544 	ld	c, -18 (ix)
    00000935 DD 46 EF         [19] 1545 	ld	b, -17 (ix)
    00000938 DD 7E E3         [19] 1546 	ld	a, -29 (ix)
    0000093B B7               [ 4] 1547 	or	a, a
    0000093C 20 06            [12] 1548 	jr	NZ, 00497$
    0000093E 21 50 00         [10] 1549 	ld	hl, #0x0050
    00000941 C3r47r09         [10] 1550 	jp	00498$
    00000944                       1551 00497$:
    00000944 21 B0 FF         [10] 1552 	ld	hl, #0xffb0
    00000947                       1553 00498$:
    00000947 09               [11] 1554 	add	hl, bc
    00000948 DD 75 FC         [19] 1555 	ld	-4 (ix), l
    0000094B DD 74 FD         [19] 1556 	ld	-3 (ix), h
                                   1557 ;E:\Dropbox\FAUSTO\SVILUPPI\MSX\CODE\C\MSXgl\projects\soccerlgMSX2/soccerlg_s21_b3.c:150: target_x = Ball->lx + ((role == 1) ? -24 : 24);
    0000094E DD 7E F6         [19] 1558 	ld	a, -10 (ix)
    00000951 B7               [ 4] 1559 	or	a, a
    00000952 28 06            [12] 1560 	jr	Z, 00499$
    00000954 01 E8 FF         [10] 1561 	ld	bc, #0xffe8
    00000957 C3r5Dr09         [10] 1562 	jp	00500$
    0000095A                       1563 00499$:
    0000095A 01 18 00         [10] 1564 	ld	bc, #0x0018
    0000095D                       1565 00500$:
    0000095D DD 6E E6         [19] 1566 	ld	l, -26 (ix)
    00000960 DD 66 E7         [19] 1567 	ld	h, -25 (ix)
    00000963 09               [11] 1568 	add	hl, bc
    00000964 DD 75 FA         [19] 1569 	ld	-6 (ix), l
    00000967 DD 74 FB         [19] 1570 	ld	-5 (ix), h
                                   1571 ;E:\Dropbox\FAUSTO\SVILUPPI\MSX\CODE\C\MSXgl\projects\soccerlgMSX2/soccerlg_s21_b3.c:152: if (team == TEAM_1 && target_y < 72) target_y = 72;
    0000096A DD 7E E3         [19] 1572 	ld	a, -29 (ix)
    0000096D B7               [ 4] 1573 	or	a, a
    0000096E 20 15            [12] 1574 	jr	NZ, 00167$
    00000970 DD 7E FC         [19] 1575 	ld	a, -4 (ix)
    00000973 DD 46 FD         [19] 1576 	ld	b, -3 (ix)
    00000976 D6 48            [ 7] 1577 	sub	a, #0x48
    00000978 78               [ 4] 1578 	ld	a, b
    00000979 DE 00            [ 7] 1579 	sbc	a, #0x00
    0000097B 30 08            [12] 1580 	jr	NC, 00167$
    0000097D DD 36 FC 48      [19] 1581 	ld	-4 (ix), #0x48
    00000981 DD 36 FD 00      [19] 1582 	ld	-3 (ix), #0
    00000985                       1583 00167$:
                                   1584 ;E:\Dropbox\FAUSTO\SVILUPPI\MSX\CODE\C\MSXgl\projects\soccerlgMSX2/soccerlg_s21_b3.c:153: if (team == TEAM_2 && target_y > 440) target_y = 440;
    00000985 DD 7E E3         [19] 1585 	ld	a, -29 (ix)
    00000988 3D               [ 4] 1586 	dec	a
    00000989 3E 01            [ 7] 1587 	ld	a, #0x01
    0000098B 28 01            [12] 1588 	jr	Z, 01821$
    0000098D AF               [ 4] 1589 	xor	a, a
    0000098E                       1590 01821$:
                                   1591 ;	spillPairReg hl
                                   1592 ;	spillPairReg hl
    0000098E 6F               [ 4] 1593 	ld	l, a
    0000098F B7               [ 4] 1594 	or	a, a
    00000990 28 16            [12] 1595 	jr	Z, 00170$
    00000992 DD 4E FC         [19] 1596 	ld	c, -4 (ix)
    00000995 DD 46 FD         [19] 1597 	ld	b, -3 (ix)
    00000998 3E B8            [ 7] 1598 	ld	a, #0xb8
    0000099A B9               [ 4] 1599 	cp	a, c
    0000099B 3E 01            [ 7] 1600 	ld	a, #0x01
    0000099D 98               [ 4] 1601 	sbc	a, b
    0000099E 30 08            [12] 1602 	jr	NC, 00170$
    000009A0 DD 36 FC B8      [19] 1603 	ld	-4 (ix), #0xb8
    000009A4 DD 36 FD 01      [19] 1604 	ld	-3 (ix), #0x01
    000009A8                       1605 00170$:
                                   1606 ;E:\Dropbox\FAUSTO\SVILUPPI\MSX\CODE\C\MSXgl\projects\soccerlgMSX2/soccerlg_s21_b3.c:155: if (team == TEAM_1 && target_y > 192) target_y = 192;
    000009A8 DD 7E E3         [19] 1607 	ld	a, -29 (ix)
    000009AB B7               [ 4] 1608 	or	a, a
    000009AC 20 16            [12] 1609 	jr	NZ, 00173$
    000009AE DD 4E FC         [19] 1610 	ld	c, -4 (ix)
    000009B1 DD 46 FD         [19] 1611 	ld	b, -3 (ix)
    000009B4 3E C0            [ 7] 1612 	ld	a, #0xc0
    000009B6 B9               [ 4] 1613 	cp	a, c
    000009B7 3E 00            [ 7] 1614 	ld	a, #0x00
    000009B9 98               [ 4] 1615 	sbc	a, b
    000009BA 30 08            [12] 1616 	jr	NC, 00173$
    000009BC DD 36 FC C0      [19] 1617 	ld	-4 (ix), #0xc0
    000009C0 DD 36 FD 00      [19] 1618 	ld	-3 (ix), #0
    000009C4                       1619 00173$:
                                   1620 ;E:\Dropbox\FAUSTO\SVILUPPI\MSX\CODE\C\MSXgl\projects\soccerlgMSX2/soccerlg_s21_b3.c:156: if (team == TEAM_2 && target_y < 320) target_y = 320;
    000009C4 7D               [ 4] 1621 	ld	a, l
    000009C5 B7               [ 4] 1622 	or	a, a
    000009C6 28 15            [12] 1623 	jr	Z, 00195$
    000009C8 DD 7E FC         [19] 1624 	ld	a, -4 (ix)
    000009CB DD 46 FD         [19] 1625 	ld	b, -3 (ix)
    000009CE D6 40            [ 7] 1626 	sub	a, #0x40
    000009D0 78               [ 4] 1627 	ld	a, b
    000009D1 DE 01            [ 7] 1628 	sbc	a, #0x01
    000009D3 30 08            [12] 1629 	jr	NC, 00195$
    000009D5 DD 36 FC 40      [19] 1630 	ld	-4 (ix), #0x40
    000009D9 DD 36 FD 01      [19] 1631 	ld	-3 (ix), #0x01
    000009DD                       1632 00195$:
                                   1633 ;E:\Dropbox\FAUSTO\SVILUPPI\MSX\CODE\C\MSXgl\projects\soccerlgMSX2/soccerlg_s21_b3.c:161: if (target_x < 36) target_x = 36;
    000009DD DD 7E FA         [19] 1634 	ld	a, -6 (ix)
    000009E0 DD 46 FB         [19] 1635 	ld	b, -5 (ix)
    000009E3 D6 24            [ 7] 1636 	sub	a, #0x24
    000009E5 78               [ 4] 1637 	ld	a, b
    000009E6 DE 00            [ 7] 1638 	sbc	a, #0x00
    000009E8 30 08            [12] 1639 	jr	NC, 00197$
    000009EA DD 36 FA 24      [19] 1640 	ld	-6 (ix), #0x24
    000009EE DD 36 FB 00      [19] 1641 	ld	-5 (ix), #0
    000009F2                       1642 00197$:
                                   1643 ;E:\Dropbox\FAUSTO\SVILUPPI\MSX\CODE\C\MSXgl\projects\soccerlgMSX2/soccerlg_s21_b3.c:162: if (target_x > 204) target_x = 204;
    000009F2 DD 4E FA         [19] 1644 	ld	c, -6 (ix)
    000009F5 DD 46 FB         [19] 1645 	ld	b, -5 (ix)
    000009F8 3E CC            [ 7] 1646 	ld	a, #0xcc
    000009FA B9               [ 4] 1647 	cp	a, c
    000009FB 3E 00            [ 7] 1648 	ld	a, #0x00
    000009FD 98               [ 4] 1649 	sbc	a, b
    000009FE D2rADr0A         [10] 1650 	jp	NC, 00220$
    00000A01 DD 36 FA CC      [19] 1651 	ld	-6 (ix), #0xcc
    00000A05 DD 36 FB 00      [19] 1652 	ld	-5 (ix), #0
    00000A09 C3rADr0A         [10] 1653 	jp	00220$
    00000A0C                       1654 00213$:
                                   1655 ;E:\Dropbox\FAUSTO\SVILUPPI\MSX\CODE\C\MSXgl\projects\soccerlgMSX2/soccerlg_s21_b3.c:165: target_x = (role % 2 == 1) ? 80 : 144;
    00000A0C DD 7E FE         [19] 1656 	ld	a, -2 (ix)
    00000A0F E6 01            [ 7] 1657 	and	a, #0x01
    00000A11 4F               [ 4] 1658 	ld	c, a
    00000A12 06 00            [ 7] 1659 	ld	b, #0x00
    00000A14 79               [ 4] 1660 	ld	a, c
    00000A15 3D               [ 4] 1661 	dec	a
    00000A16 B0               [ 4] 1662 	or	a, b
    00000A17 20 06            [12] 1663 	jr	NZ, 00501$
    00000A19 01 50 00         [10] 1664 	ld	bc, #0x0050
    00000A1C C3r22r0A         [10] 1665 	jp	00502$
    00000A1F                       1666 00501$:
    00000A1F 01 90 00         [10] 1667 	ld	bc, #0x0090
    00000A22                       1668 00502$:
    00000A22 DD 71 FA         [19] 1669 	ld	-6 (ix), c
    00000A25 DD 70 FB         [19] 1670 	ld	-5 (ix), b
                                   1671 ;E:\Dropbox\FAUSTO\SVILUPPI\MSX\CODE\C\MSXgl\projects\soccerlgMSX2/soccerlg_s21_b3.c:166: target_y = Ball->ly + ((team == TEAM_1) ? -32 : 32);
    00000A28 DD 4E EE         [19] 1672 	ld	c, -18 (ix)
    00000A2B DD 46 EF         [19] 1673 	ld	b, -17 (ix)
    00000A2E DD 7E E3         [19] 1674 	ld	a, -29 (ix)
    00000A31 B7               [ 4] 1675 	or	a, a
    00000A32 20 06            [12] 1676 	jr	NZ, 00503$
    00000A34 21 E0 FF         [10] 1677 	ld	hl, #0xffe0
    00000A37 C3r3Dr0A         [10] 1678 	jp	00504$
    00000A3A                       1679 00503$:
    00000A3A 21 20 00         [10] 1680 	ld	hl, #0x0020
    00000A3D                       1681 00504$:
    00000A3D 09               [11] 1682 	add	hl, bc
    00000A3E DD 75 FC         [19] 1683 	ld	-4 (ix), l
    00000A41 DD 74 FD         [19] 1684 	ld	-3 (ix), h
                                   1685 ;E:\Dropbox\FAUSTO\SVILUPPI\MSX\CODE\C\MSXgl\projects\soccerlgMSX2/soccerlg_s21_b3.c:168: if (role <= 2) {
    00000A44 3E 02            [ 7] 1686 	ld	a, #0x02
    00000A46 DD 96 FE         [19] 1687 	sub	a, -2 (ix)
    00000A49 38 37            [12] 1688 	jr	C, 00207$
                                   1689 ;E:\Dropbox\FAUSTO\SVILUPPI\MSX\CODE\C\MSXgl\projects\soccerlgMSX2/soccerlg_s21_b3.c:169: if (team == TEAM_1 && target_y > 192) target_y = 192;
    00000A4B DD 7E E3         [19] 1690 	ld	a, -29 (ix)
    00000A4E B7               [ 4] 1691 	or	a, a
    00000A4F 20 16            [12] 1692 	jr	NZ, 00201$
    00000A51 DD 4E FC         [19] 1693 	ld	c, -4 (ix)
    00000A54 DD 46 FD         [19] 1694 	ld	b, -3 (ix)
    00000A57 3E C0            [ 7] 1695 	ld	a, #0xc0
    00000A59 B9               [ 4] 1696 	cp	a, c
    00000A5A 3E 00            [ 7] 1697 	ld	a, #0x00
    00000A5C 98               [ 4] 1698 	sbc	a, b
    00000A5D 30 08            [12] 1699 	jr	NC, 00201$
    00000A5F DD 36 FC C0      [19] 1700 	ld	-4 (ix), #0xc0
    00000A63 DD 36 FD 00      [19] 1701 	ld	-3 (ix), #0
    00000A67                       1702 00201$:
                                   1703 ;E:\Dropbox\FAUSTO\SVILUPPI\MSX\CODE\C\MSXgl\projects\soccerlgMSX2/soccerlg_s21_b3.c:170: if (team == TEAM_2 && target_y < 320) target_y = 320;
    00000A67 DD 7E E3         [19] 1704 	ld	a, -29 (ix)
    00000A6A 3D               [ 4] 1705 	dec	a
    00000A6B 20 15            [12] 1706 	jr	NZ, 00207$
    00000A6D DD 7E FC         [19] 1707 	ld	a, -4 (ix)
    00000A70 DD 46 FD         [19] 1708 	ld	b, -3 (ix)
    00000A73 D6 40            [ 7] 1709 	sub	a, #0x40
    00000A75 78               [ 4] 1710 	ld	a, b
    00000A76 DE 01            [ 7] 1711 	sbc	a, #0x01
    00000A78 30 08            [12] 1712 	jr	NC, 00207$
    00000A7A DD 36 FC 40      [19] 1713 	ld	-4 (ix), #0x40
    00000A7E DD 36 FD 01      [19] 1714 	ld	-3 (ix), #0x01
    00000A82                       1715 00207$:
                                   1716 ;E:\Dropbox\FAUSTO\SVILUPPI\MSX\CODE\C\MSXgl\projects\soccerlgMSX2/soccerlg_s21_b3.c:174: if (target_x < 36) target_x = 36;
    00000A82 DD 7E FA         [19] 1717 	ld	a, -6 (ix)
    00000A85 DD 46 FB         [19] 1718 	ld	b, -5 (ix)
    00000A88 D6 24            [ 7] 1719 	sub	a, #0x24
    00000A8A 78               [ 4] 1720 	ld	a, b
    00000A8B DE 00            [ 7] 1721 	sbc	a, #0x00
    00000A8D 30 08            [12] 1722 	jr	NC, 00209$
    00000A8F DD 36 FA 24      [19] 1723 	ld	-6 (ix), #0x24
    00000A93 DD 36 FB 00      [19] 1724 	ld	-5 (ix), #0
    00000A97                       1725 00209$:
                                   1726 ;E:\Dropbox\FAUSTO\SVILUPPI\MSX\CODE\C\MSXgl\projects\soccerlgMSX2/soccerlg_s21_b3.c:175: if (target_x > 204) target_x = 204;
    00000A97 DD 4E FA         [19] 1727 	ld	c, -6 (ix)
    00000A9A DD 46 FB         [19] 1728 	ld	b, -5 (ix)
    00000A9D 3E CC            [ 7] 1729 	ld	a, #0xcc
    00000A9F B9               [ 4] 1730 	cp	a, c
    00000AA0 3E 00            [ 7] 1731 	ld	a, #0x00
    00000AA2 98               [ 4] 1732 	sbc	a, b
    00000AA3 30 08            [12] 1733 	jr	NC, 00220$
    00000AA5 DD 36 FA CC      [19] 1734 	ld	-6 (ix), #0xcc
    00000AA9 DD 36 FB 00      [19] 1735 	ld	-5 (ix), #0
    00000AAD                       1736 00220$:
                                   1737 ;E:\Dropbox\FAUSTO\SVILUPPI\MSX\CODE\C\MSXgl\projects\soccerlgMSX2/soccerlg_s21_b3.c:181: if ((ball_free_nearby || (LastTouchTeam != team) || (!g_is_ball_carried && (Ball->anim < 5 || LastTouchTeam != team))) && i == closest_mate) {
    00000AAD DD 7E F2         [19] 1738 	ld	a, -14 (ix)
    00000AB0 B7               [ 4] 1739 	or	a, a
    00000AB1 20 28            [12] 1740 	jr	NZ, 00313$
    00000AB3 3Ar00r00         [13] 1741 	ld	a, (_LastTouchTeam+0)
    00000AB6 DD 96 E3         [19] 1742 	sub	a, -29 (ix)
    00000AB9 3E 01            [ 7] 1743 	ld	a, #0x01
    00000ABB 28 01            [12] 1744 	jr	Z, 01827$
    00000ABD AF               [ 4] 1745 	xor	a, a
    00000ABE                       1746 01827$:
    00000ABE 4F               [ 4] 1747 	ld	c, a
    00000ABF CB 41            [ 8] 1748 	bit	0, c
    00000AC1 28 18            [12] 1749 	jr	Z, 00313$
    00000AC3 3Ar00r00         [13] 1750 	ld	a, (_g_is_ball_carried+0)
    00000AC6 B7               [ 4] 1751 	or	a, a
    00000AC7 C2r45r0E         [10] 1752 	jp	NZ, 00308$
    00000ACA DD 7E F3         [19] 1753 	ld	a, -13 (ix)
    00000ACD D6 05            [ 7] 1754 	sub	a, #0x05
    00000ACF DD 7E F4         [19] 1755 	ld	a, -12 (ix)
    00000AD2 DE 00            [ 7] 1756 	sbc	a, #0x00
    00000AD4 38 05            [12] 1757 	jr	C, 00313$
    00000AD6 CB 41            [ 8] 1758 	bit	0, c
    00000AD8 C2r45r0E         [10] 1759 	jp	NZ, 00308$
    00000ADB                       1760 00313$:
    00000ADB DD 7E FF         [19] 1761 	ld	a, -1 (ix)
    00000ADE DD 96 E4         [19] 1762 	sub	a, -28 (ix)
    00000AE1 C2r45r0E         [10] 1763 	jp	NZ,00308$
                                   1764 ;E:\Dropbox\FAUSTO\SVILUPPI\MSX\CODE\C\MSXgl\projects\soccerlgMSX2/soccerlg_s21_b3.c:183: u16 press_radius = 24 + (g_ActiveStats[team].aggro_defense * 8);
    00000AE4 DD 4E E3         [19] 1765 	ld	c, -29 (ix)
    00000AE7 06 00            [ 7] 1766 	ld	b, #0x00
    00000AE9 69               [ 4] 1767 	ld	l, c
    00000AEA 60               [ 4] 1768 	ld	h, b
    00000AEB 29               [11] 1769 	add	hl, hl
    00000AEC 09               [11] 1770 	add	hl, bc
    00000AED 29               [11] 1771 	add	hl, hl
    00000AEE 09               [11] 1772 	add	hl, bc
    00000AEF 11r00r00         [10] 1773 	ld	de, #_g_ActiveStats
    00000AF2 19               [11] 1774 	add	hl, de
    00000AF3 11 04 00         [10] 1775 	ld	de, #0x0004
    00000AF6 19               [11] 1776 	add	hl, de
    00000AF7 5E               [ 7] 1777 	ld	e, (hl)
    00000AF8 6B               [ 4] 1778 	ld	l, e
                                   1779 ;	spillPairReg hl
                                   1780 ;	spillPairReg hl
    00000AF9 26 00            [ 7] 1781 	ld	h, #0x00
                                   1782 ;	spillPairReg hl
                                   1783 ;	spillPairReg hl
    00000AFB 29               [11] 1784 	add	hl, hl
    00000AFC 29               [11] 1785 	add	hl, hl
    00000AFD 29               [11] 1786 	add	hl, hl
    00000AFE 01 18 00         [10] 1787 	ld	bc, #0x0018
    00000B01 09               [11] 1788 	add	hl, bc
    00000B02 4D               [ 4] 1789 	ld	c, l
    00000B03 44               [ 4] 1790 	ld	b, h
                                   1791 ;E:\Dropbox\FAUSTO\SVILUPPI\MSX\CODE\C\MSXgl\projects\soccerlgMSX2/soccerlg_s21_b3.c:109: } else if (LastTouchTeam != 0xFF) {
    00000B04 3Ar00r00         [13] 1792 	ld	a, (_LastTouchTeam+0)
    00000B07 3C               [ 4] 1793 	inc	a
    00000B08 3E 01            [ 7] 1794 	ld	a, #0x01
    00000B0A 28 01            [12] 1795 	jr	Z, 01831$
    00000B0C AF               [ 4] 1796 	xor	a, a
    00000B0D                       1797 01831$:
                                   1798 ;E:\Dropbox\FAUSTO\SVILUPPI\MSX\CODE\C\MSXgl\projects\soccerlgMSX2/soccerlg_s21_b3.c:184: if (LastTouchTeam == 0xFF || !g_is_ball_carried) press_radius = 500; // Palla libera o non controllata: vai a prenderla!
    00000B0D DD 77 F9         [19] 1799 	ld	-7 (ix), a
    00000B10 B7               [ 4] 1800 	or	a, a
    00000B11 20 06            [12] 1801 	jr	NZ, 00221$
    00000B13 3Ar00r00         [13] 1802 	ld	a, (_g_is_ball_carried+0)
    00000B16 B7               [ 4] 1803 	or	a, a
    00000B17 20 03            [12] 1804 	jr	NZ, 00222$
    00000B19                       1805 00221$:
    00000B19 01 F4 01         [10] 1806 	ld	bc, #0x01f4
    00000B1C                       1807 00222$:
                                   1808 ;E:\Dropbox\FAUSTO\SVILUPPI\MSX\CODE\C\MSXgl\projects\soccerlgMSX2/soccerlg_s21_b3.c:186: bool is_human_team = FALSE;
    00000B1C 2E 00            [ 7] 1809 	ld	l, #0x00
                                   1810 ;	spillPairReg hl
                                   1811 ;	spillPairReg hl
                                   1812 ;E:\Dropbox\FAUSTO\SVILUPPI\MSX\CODE\C\MSXgl\projects\soccerlgMSX2/soccerlg_s21_b3.c:187: if (team == TEAM_2) is_human_team = TRUE;
    00000B1E DD 7E E3         [19] 1813 	ld	a, -29 (ix)
    00000B21 3D               [ 4] 1814 	dec	a
    00000B22 3E 01            [ 7] 1815 	ld	a, #0x01
    00000B24 28 01            [12] 1816 	jr	Z, 01833$
    00000B26 AF               [ 4] 1817 	xor	a, a
    00000B27                       1818 01833$:
    00000B27 DD 77 FE         [19] 1819 	ld	-2 (ix), a
    00000B2A B7               [ 4] 1820 	or	a, a
    00000B2B 28 05            [12] 1821 	jr	Z, 00228$
    00000B2D 2E 01            [ 7] 1822 	ld	l, #0x01
                                   1823 ;	spillPairReg hl
                                   1824 ;	spillPairReg hl
    00000B2F C3r40r0B         [10] 1825 	jp	00229$
    00000B32                       1826 00228$:
                                   1827 ;E:\Dropbox\FAUSTO\SVILUPPI\MSX\CODE\C\MSXgl\projects\soccerlgMSX2/soccerlg_s21_b3.c:188: else if (team == TEAM_1 && GameMode == GAMEMODE_P1_VS_P2) is_human_team = TRUE;
    00000B32 DD 7E E3         [19] 1828 	ld	a, -29 (ix)
    00000B35 B7               [ 4] 1829 	or	a, a
    00000B36 20 08            [12] 1830 	jr	NZ, 00229$
    00000B38 3Ar00r00         [13] 1831 	ld	a, (_GameMode+0)
    00000B3B 3D               [ 4] 1832 	dec	a
    00000B3C 20 02            [12] 1833 	jr	NZ, 00229$
    00000B3E 2E 01            [ 7] 1834 	ld	l, #0x01
                                   1835 ;	spillPairReg hl
                                   1836 ;	spillPairReg hl
    00000B40                       1837 00229$:
                                   1838 ;E:\Dropbox\FAUSTO\SVILUPPI\MSX\CODE\C\MSXgl\projects\soccerlgMSX2/soccerlg_s21_b3.c:190: bool should_press = TRUE;
    00000B40 16 01            [ 7] 1839 	ld	d, #0x01
                                   1840 ;E:\Dropbox\FAUSTO\SVILUPPI\MSX\CODE\C\MSXgl\projects\soccerlgMSX2/soccerlg_s21_b3.c:192: if (LastTouchTeam != 0xFF) {
    00000B42 DD CB F9 46      [20] 1841 	bit	0, -7 (ix)
    00000B46 C2rCCr0B         [10] 1842 	jp	NZ, 00254$
                                   1843 ;E:\Dropbox\FAUSTO\SVILUPPI\MSX\CODE\C\MSXgl\projects\soccerlgMSX2/soccerlg_s21_b3.c:193: if (is_human_team && g_is_ball_carried) {
    00000B49 7D               [ 4] 1844 	ld	a, l
    00000B4A B7               [ 4] 1845 	or	a, a
    00000B4B 28 0B            [12] 1846 	jr	Z, 00250$
    00000B4D 3Ar00r00         [13] 1847 	ld	a, (_g_is_ball_carried+0)
    00000B50 B7               [ 4] 1848 	or	a, a
    00000B51 28 05            [12] 1849 	jr	Z, 00250$
                                   1850 ;E:\Dropbox\FAUSTO\SVILUPPI\MSX\CODE\C\MSXgl\projects\soccerlgMSX2/soccerlg_s21_b3.c:197: should_press = FALSE;
    00000B53 16 00            [ 7] 1851 	ld	d, #0x00
    00000B55 C3rCCr0B         [10] 1852 	jp	00254$
    00000B58                       1853 00250$:
                                   1854 ;E:\Dropbox\FAUSTO\SVILUPPI\MSX\CODE\C\MSXgl\projects\soccerlgMSX2/soccerlg_s21_b3.c:200: if (GameMode == GAMEMODE_P1_VS_CPU && team == TEAM_1) press_radius = 500;
    00000B58 3Ar00r00         [13] 1855 	ld	a, (_GameMode+0)
    00000B5B B7               [ 4] 1856 	or	a, a
    00000B5C 20 0C            [12] 1857 	jr	NZ, 00246$
    00000B5E DD 7E E3         [19] 1858 	ld	a, -29 (ix)
    00000B61 B7               [ 4] 1859 	or	a, a
    00000B62 20 06            [12] 1860 	jr	NZ, 00246$
    00000B64 01 F4 01         [10] 1861 	ld	bc, #0x01f4
    00000B67 C3rCCr0B         [10] 1862 	jp	00254$
    00000B6A                       1863 00246$:
                                   1864 ;E:\Dropbox\FAUSTO\SVILUPPI\MSX\CODE\C\MSXgl\projects\soccerlgMSX2/soccerlg_s21_b3.c:202: else if (team == TEAM_1 && Ball->ly < 220) press_radius = 500; // Pressing asfissiante in trequarti
    00000B6A DD 7E E3         [19] 1865 	ld	a, -29 (ix)
    00000B6D B7               [ 4] 1866 	or	a, a
    00000B6E 20 13            [12] 1867 	jr	NZ, 00242$
                                   1868 ;	spillPairReg hl
                                   1869 ;	spillPairReg hl
                                   1870 ;	spillPairReg hl
                                   1871 ;	spillPairReg hl
    00000B70 DD 7E EE         [19] 1872 	ld	a, -18 (ix)
    00000B73 DD 66 EF         [19] 1873 	ld	h, -17 (ix)
    00000B76 D6 DC            [ 7] 1874 	sub	a, #0xdc
    00000B78 7C               [ 4] 1875 	ld	a, h
    00000B79 DE 00            [ 7] 1876 	sbc	a, #0x00
    00000B7B 30 06            [12] 1877 	jr	NC, 00242$
    00000B7D 01 F4 01         [10] 1878 	ld	bc, #0x01f4
    00000B80 C3rCCr0B         [10] 1879 	jp	00254$
    00000B83                       1880 00242$:
                                   1881 ;E:\Dropbox\FAUSTO\SVILUPPI\MSX\CODE\C\MSXgl\projects\soccerlgMSX2/soccerlg_s21_b3.c:203: else if (team == TEAM_2 && Ball->ly > 292) press_radius = 500;
    00000B83 DD 7E FE         [19] 1882 	ld	a, -2 (ix)
    00000B86 B7               [ 4] 1883 	or	a, a
    00000B87 28 14            [12] 1884 	jr	Z, 00238$
    00000B89 DD 6E EE         [19] 1885 	ld	l, -18 (ix)
                                   1886 ;	spillPairReg hl
                                   1887 ;	spillPairReg hl
    00000B8C DD 66 EF         [19] 1888 	ld	h, -17 (ix)
                                   1889 ;	spillPairReg hl
                                   1890 ;	spillPairReg hl
    00000B8F 3E 24            [ 7] 1891 	ld	a, #0x24
    00000B91 BD               [ 4] 1892 	cp	a, l
    00000B92 3E 01            [ 7] 1893 	ld	a, #0x01
    00000B94 9C               [ 4] 1894 	sbc	a, h
    00000B95 30 06            [12] 1895 	jr	NC, 00238$
    00000B97 01 F4 01         [10] 1896 	ld	bc, #0x01f4
    00000B9A C3rCCr0B         [10] 1897 	jp	00254$
    00000B9D                       1898 00238$:
                                   1899 ;E:\Dropbox\FAUSTO\SVILUPPI\MSX\CODE\C\MSXgl\projects\soccerlgMSX2/soccerlg_s21_b3.c:204: else if (team == TEAM_1 && Ball->ly < 256) press_radius += 48; // Inizia il pressing nella propria metà campo
    00000B9D DD 7E E3         [19] 1900 	ld	a, -29 (ix)
    00000BA0 B7               [ 4] 1901 	or	a, a
    00000BA1 20 10            [12] 1902 	jr	NZ, 00234$
                                   1903 ;	spillPairReg hl
                                   1904 ;	spillPairReg hl
                                   1905 ;	spillPairReg hl
                                   1906 ;	spillPairReg hl
    00000BA3 DD 7E EF         [19] 1907 	ld	a, -17 (ix)
    00000BA6 D6 01            [ 7] 1908 	sub	a, #0x01
    00000BA8 30 09            [12] 1909 	jr	NC, 00234$
    00000BAA 21 30 00         [10] 1910 	ld	hl, #0x0030
    00000BAD 09               [11] 1911 	add	hl, bc
    00000BAE 4D               [ 4] 1912 	ld	c, l
    00000BAF 44               [ 4] 1913 	ld	b, h
    00000BB0 C3rCCr0B         [10] 1914 	jp	00254$
    00000BB3                       1915 00234$:
                                   1916 ;E:\Dropbox\FAUSTO\SVILUPPI\MSX\CODE\C\MSXgl\projects\soccerlgMSX2/soccerlg_s21_b3.c:205: else if (team == TEAM_2 && Ball->ly > 256) press_radius += 48;
    00000BB3 DD 7E FE         [19] 1917 	ld	a, -2 (ix)
    00000BB6 B7               [ 4] 1918 	or	a, a
    00000BB7 28 13            [12] 1919 	jr	Z, 00254$
    00000BB9 DD 6E EE         [19] 1920 	ld	l, -18 (ix)
                                   1921 ;	spillPairReg hl
                                   1922 ;	spillPairReg hl
    00000BBC DD 66 EF         [19] 1923 	ld	h, -17 (ix)
                                   1924 ;	spillPairReg hl
                                   1925 ;	spillPairReg hl
    00000BBF AF               [ 4] 1926 	xor	a, a
    00000BC0 BD               [ 4] 1927 	cp	a, l
    00000BC1 3E 01            [ 7] 1928 	ld	a, #0x01
    00000BC3 9C               [ 4] 1929 	sbc	a, h
    00000BC4 30 06            [12] 1930 	jr	NC, 00254$
    00000BC6 21 30 00         [10] 1931 	ld	hl, #0x0030
    00000BC9 09               [11] 1932 	add	hl, bc
    00000BCA 4D               [ 4] 1933 	ld	c, l
    00000BCB 44               [ 4] 1934 	ld	b, h
    00000BCC                       1935 00254$:
                                   1936 ;E:\Dropbox\FAUSTO\SVILUPPI\MSX\CODE\C\MSXgl\projects\soccerlgMSX2/soccerlg_s21_b3.c:209: if (should_press && b_dist_x < press_radius && b_dist_y < press_radius) {
    00000BCC 7A               [ 4] 1937 	ld	a, d
    00000BCD B7               [ 4] 1938 	or	a, a
    00000BCE CAr45r0E         [10] 1939 	jp	Z, 00308$
    00000BD1 DD 7E E8         [19] 1940 	ld	a, -24 (ix)
    00000BD4 91               [ 4] 1941 	sub	a, c
    00000BD5 DD 7E E9         [19] 1942 	ld	a, -23 (ix)
    00000BD8 98               [ 4] 1943 	sbc	a, b
    00000BD9 D2r45r0E         [10] 1944 	jp	NC, 00308$
    00000BDC DD 7E F0         [19] 1945 	ld	a, -16 (ix)
    00000BDF 91               [ 4] 1946 	sub	a, c
    00000BE0 DD 7E F1         [19] 1947 	ld	a, -15 (ix)
    00000BE3 98               [ 4] 1948 	sbc	a, b
    00000BE4 D2r45r0E         [10] 1949 	jp	NC, 00308$
                                   1950 ;E:\Dropbox\FAUSTO\SVILUPPI\MSX\CODE\C\MSXgl\projects\soccerlgMSX2/soccerlg_s21_b3.c:210: target_x = Ball->lx;
    00000BE7 DD 7E E5         [19] 1951 	ld	a, -27 (ix)
    00000BEA DD 77 FA         [19] 1952 	ld	-6 (ix), a
    00000BED DD 36 FB 00      [19] 1953 	ld	-5 (ix), #0x00
                                   1954 ;E:\Dropbox\FAUSTO\SVILUPPI\MSX\CODE\C\MSXgl\projects\soccerlgMSX2/soccerlg_s21_b3.c:211: target_y = Ball->ly;
    00000BF1 DD 7E EE         [19] 1955 	ld	a, -18 (ix)
    00000BF4 DD 4E EF         [19] 1956 	ld	c, -17 (ix)
    00000BF7 DD 77 FC         [19] 1957 	ld	-4 (ix), a
    00000BFA DD 71 FD         [19] 1958 	ld	-3 (ix), c
                                   1959 ;E:\Dropbox\FAUSTO\SVILUPPI\MSX\CODE\C\MSXgl\projects\soccerlgMSX2/soccerlg_s21_b3.c:214: if (g_is_ball_carried && LastTouchTeam != team && b_dist_x <= 32 && b_dist_y <= 16 && Player->count == 0 && RestartType == 0 && Ball->count == 0) {
    00000BFD 3Ar00r00         [13] 1960 	ld	a, (_g_is_ball_carried+0)
    00000C00 B7               [ 4] 1961 	or	a, a
    00000C01 CArBFr0C         [10] 1962 	jp	Z, 00258$
    00000C04 3Ar00r00         [13] 1963 	ld	a, (_LastTouchTeam+0)
    00000C07 DD 96 E3         [19] 1964 	sub	a, -29 (ix)
    00000C0A CArBFr0C         [10] 1965 	jp	Z,00258$
    00000C0D DD 4E E8         [19] 1966 	ld	c, -24 (ix)
    00000C10 DD 46 E9         [19] 1967 	ld	b, -23 (ix)
    00000C13 3E 20            [ 7] 1968 	ld	a, #0x20
    00000C15 B9               [ 4] 1969 	cp	a, c
    00000C16 3E 00            [ 7] 1970 	ld	a, #0x00
    00000C18 98               [ 4] 1971 	sbc	a, b
    00000C19 DArBFr0C         [10] 1972 	jp	C, 00258$
    00000C1C DD 4E F0         [19] 1973 	ld	c, -16 (ix)
    00000C1F DD 46 F1         [19] 1974 	ld	b, -15 (ix)
    00000C22 3E 10            [ 7] 1975 	ld	a, #0x10
    00000C24 B9               [ 4] 1976 	cp	a, c
    00000C25 3E 00            [ 7] 1977 	ld	a, #0x00
    00000C27 98               [ 4] 1978 	sbc	a, b
    00000C28 DArBFr0C         [10] 1979 	jp	C, 00258$
    00000C2B DD 7E E1         [19] 1980 	ld	a, -31 (ix)
    00000C2E C6 15            [ 7] 1981 	add	a, #0x15
    00000C30 4F               [ 4] 1982 	ld	c, a
    00000C31 DD 7E E2         [19] 1983 	ld	a, -30 (ix)
    00000C34 CE 00            [ 7] 1984 	adc	a, #0x00
    00000C36 47               [ 4] 1985 	ld	b, a
    00000C37 69               [ 4] 1986 	ld	l, c
    00000C38 60               [ 4] 1987 	ld	h, b
    00000C39 56               [ 7] 1988 	ld	d, (hl)
    00000C3A 23               [ 6] 1989 	inc	hl
    00000C3B 7E               [ 7] 1990 	ld	a, (hl)
    00000C3C B2               [ 4] 1991 	or	a, d
    00000C3D C2rBFr0C         [10] 1992 	jp	NZ, 00258$
    00000C40 3Ar00r00         [13] 1993 	ld	a, (_RestartType+0)
    00000C43 B7               [ 4] 1994 	or	a, a
    00000C44 20 79            [12] 1995 	jr	NZ, 00258$
    00000C46 2Ar57r01         [16] 1996 	ld	hl, (#(_SwSprite + 322) + 21)
    00000C49 7C               [ 4] 1997 	ld	a, h
    00000C4A B5               [ 4] 1998 	or	a, l
    00000C4B 20 72            [12] 1999 	jr	NZ, 00258$
                                   2000 ;E:\Dropbox\FAUSTO\SVILUPPI\MSX\CODE\C\MSXgl\projects\soccerlgMSX2/soccerlg_s21_b3.c:215: u8 slide_chance = 20 + (g_ActiveStats[team].aggro_defense * 15); 
    00000C4D 7B               [ 4] 2001 	ld	a, e
    00000C4E 87               [ 4] 2002 	add	a, a
    00000C4F 87               [ 4] 2003 	add	a, a
    00000C50 87               [ 4] 2004 	add	a, a
    00000C51 87               [ 4] 2005 	add	a, a
    00000C52 93               [ 4] 2006 	sub	a, e
    00000C53 C6 14            [ 7] 2007 	add	a, #0x14
    00000C55 DD 77 FE         [19] 2008 	ld	-2 (ix), a
                                   2009 ;E:\Dropbox\FAUSTO\SVILUPPI\MSX\CODE\C\MSXgl\projects\soccerlgMSX2/soccerlg_s21_b3.c:216: if ((Frms + i * 7) % 100 < slide_chance) {
    00000C58 3Ar00r00         [13] 2010 	ld	a, (_Frms+0)
    00000C5B 5F               [ 4] 2011 	ld	e, a
    00000C5C 16 00            [ 7] 2012 	ld	d, #0x00
    00000C5E DD 6E FF         [19] 2013 	ld	l, -1 (ix)
                                   2014 ;	spillPairReg hl
                                   2015 ;	spillPairReg hl
    00000C61 26 00            [ 7] 2016 	ld	h, #0x00
                                   2017 ;	spillPairReg hl
                                   2018 ;	spillPairReg hl
    00000C63 D5               [11] 2019 	push	de
    00000C64 5D               [ 4] 2020 	ld	e, l
    00000C65 54               [ 4] 2021 	ld	d, h
    00000C66 29               [11] 2022 	add	hl, hl
    00000C67 19               [11] 2023 	add	hl, de
    00000C68 29               [11] 2024 	add	hl, hl
    00000C69 19               [11] 2025 	add	hl, de
    00000C6A D1               [10] 2026 	pop	de
    00000C6B 19               [11] 2027 	add	hl, de
    00000C6C C5               [11] 2028 	push	bc
    00000C6D 11 64 00         [10] 2029 	ld	de, #0x0064
    00000C70 CDr00r00         [17] 2030 	call	__modsint
    00000C73 C1               [10] 2031 	pop	bc
    00000C74 DD 6E FE         [19] 2032 	ld	l, -2 (ix)
                                   2033 ;	spillPairReg hl
                                   2034 ;	spillPairReg hl
    00000C77 26 00            [ 7] 2035 	ld	h, #0x00
                                   2036 ;	spillPairReg hl
                                   2037 ;	spillPairReg hl
    00000C79 7B               [ 4] 2038 	ld	a, e
    00000C7A 95               [ 4] 2039 	sub	a, l
    00000C7B 7A               [ 4] 2040 	ld	a, d
    00000C7C 9C               [ 4] 2041 	sbc	a, h
    00000C7D E2r82r0C         [10] 2042 	jp	PO, 01837$
    00000C80 EE 80            [ 7] 2043 	xor	a, #0x80
    00000C82                       2044 01837$:
    00000C82 F2rBFr0C         [10] 2045 	jp	P, 00258$
                                   2046 ;E:\Dropbox\FAUSTO\SVILUPPI\MSX\CODE\C\MSXgl\projects\soccerlgMSX2/soccerlg_s21_b3.c:217: Player->count = 30; // durata scivolata + cooldown per penalità se manca la palla
    00000C85 3E 1E            [ 7] 2047 	ld	a, #0x1e
    00000C87 02               [ 7] 2048 	ld	(bc), a
    00000C88 03               [ 6] 2049 	inc	bc
    00000C89 AF               [ 4] 2050 	xor	a, a
    00000C8A 02               [ 7] 2051 	ld	(bc), a
                                   2052 ;E:\Dropbox\FAUSTO\SVILUPPI\MSX\CODE\C\MSXgl\projects\soccerlgMSX2/soccerlg_s21_b3.c:218: Player->dx = (Ball->lx > Player->lx) ? 4 : -4;
    00000C8B DD 7E E1         [19] 2053 	ld	a, -31 (ix)
    00000C8E C6 11            [ 7] 2054 	add	a, #0x11
    00000C90 4F               [ 4] 2055 	ld	c, a
    00000C91 DD 7E E2         [19] 2056 	ld	a, -30 (ix)
    00000C94 CE 00            [ 7] 2057 	adc	a, #0x00
    00000C96 47               [ 4] 2058 	ld	b, a
    00000C97 21r42r01         [10] 2059 	ld	hl, #(_SwSprite + 322)
    00000C9A 5E               [ 7] 2060 	ld	e, (hl)
    00000C9B DD 6E E1         [19] 2061 	ld	l, -31 (ix)
    00000C9E DD 66 E2         [19] 2062 	ld	h, -30 (ix)
    00000CA1 7E               [ 7] 2063 	ld	a, (hl)
    00000CA2 93               [ 4] 2064 	sub	a, e
    00000CA3 30 06            [12] 2065 	jr	NC, 00505$
    00000CA5 11 04 00         [10] 2066 	ld	de, #0x0004
    00000CA8 C3rAEr0C         [10] 2067 	jp	00506$
    00000CAB                       2068 00505$:
    00000CAB 11 FC FF         [10] 2069 	ld	de, #0xfffc
    00000CAE                       2070 00506$:
    00000CAE 7B               [ 4] 2071 	ld	a, e
    00000CAF 02               [ 7] 2072 	ld	(bc), a
                                   2073 ;E:\Dropbox\FAUSTO\SVILUPPI\MSX\CODE\C\MSXgl\projects\soccerlgMSX2/soccerlg_s21_b3.c:219: Player->dy = 0; // Solo scivolata orizzontale
    00000CB0 DD 6E E1         [19] 2074 	ld	l, -31 (ix)
    00000CB3 DD 66 E2         [19] 2075 	ld	h, -30 (ix)
    00000CB6 11 12 00         [10] 2076 	ld	de, #0x0012
    00000CB9 19               [11] 2077 	add	hl, de
    00000CBA 36 00            [10] 2078 	ld	(hl), #0x00
                                   2079 ;E:\Dropbox\FAUSTO\SVILUPPI\MSX\CODE\C\MSXgl\projects\soccerlgMSX2/soccerlg_s21_b3.c:220: return; // Esce e inizia la scivolata dal prossimo frame
    00000CBC C3rA0r1C         [10] 2080 	jp	00417$
    00000CBF                       2081 00258$:
                                   2082 ;E:\Dropbox\FAUSTO\SVILUPPI\MSX\CODE\C\MSXgl\projects\soccerlgMSX2/soccerlg_s21_b3.c:225: bool is_free_ball = (!g_is_ball_carried);
    00000CBF 3Ar00r00         [13] 2083 	ld	a, (_g_is_ball_carried+0)
    00000CC2 D6 01            [ 7] 2084 	sub	a,#0x01
    00000CC4 3E 00            [ 7] 2085 	ld	a, #0x00
    00000CC6 17               [ 4] 2086 	rla
    00000CC7 DD 77 FE         [19] 2087 	ld	-2 (ix), a
                                   2088 ;E:\Dropbox\FAUSTO\SVILUPPI\MSX\CODE\C\MSXgl\projects\soccerlgMSX2/soccerlg_s21_b3.c:226: bool can_steal_standing = FALSE;
    00000CCA 0E 00            [ 7] 2089 	ld	c, #0x00
                                   2090 ;E:\Dropbox\FAUSTO\SVILUPPI\MSX\CODE\C\MSXgl\projects\soccerlgMSX2/soccerlg_s21_b3.c:228: if (is_free_ball || (LastTouchTeam == team && LastTouchPlayer != i)) {
    00000CCC DD 7E FE         [19] 2091 	ld	a, -2 (ix)
    00000CCF B7               [ 4] 2092 	or	a, a
    00000CD0 20 17            [12] 2093 	jr	NZ, 00282$
                                   2094 ;E:\Dropbox\FAUSTO\SVILUPPI\MSX\CODE\C\MSXgl\projects\soccerlgMSX2/soccerlg_s21_b3.c:33: if (Ball->anim == 5 && LastTouchTeam == team) ball_free_nearby = FALSE; // Non disturbare i propri passaggi
    00000CD2 3Ar00r00         [13] 2095 	ld	a, (_LastTouchTeam+0)
    00000CD5 DD 96 E3         [19] 2096 	sub	a, -29 (ix)
    00000CD8 3E 01            [ 7] 2097 	ld	a, #0x01
    00000CDA 28 01            [12] 2098 	jr	Z, 01839$
    00000CDC AF               [ 4] 2099 	xor	a, a
    00000CDD                       2100 01839$:
                                   2101 ;E:\Dropbox\FAUSTO\SVILUPPI\MSX\CODE\C\MSXgl\projects\soccerlgMSX2/soccerlg_s21_b3.c:228: if (is_free_ball || (LastTouchTeam == team && LastTouchPlayer != i)) {
    00000CDD 47               [ 4] 2102 	ld	b, a
    00000CDE B7               [ 4] 2103 	or	a, a
    00000CDF 28 2B            [12] 2104 	jr	Z, 00283$
    00000CE1 3Ar00r00         [13] 2105 	ld	a, (_LastTouchPlayer+0)
    00000CE4 DD 96 FF         [19] 2106 	sub	a, -1 (ix)
    00000CE7 28 23            [12] 2107 	jr	Z, 00283$
    00000CE9                       2108 00282$:
                                   2109 ;E:\Dropbox\FAUSTO\SVILUPPI\MSX\CODE\C\MSXgl\projects\soccerlgMSX2/soccerlg_s21_b3.c:230: if (b_dist_x <= 20 && b_dist_y <= 20) can_steal_standing = TRUE;
    00000CE9 DD 46 E8         [19] 2110 	ld	b, -24 (ix)
    00000CEC DD 5E E9         [19] 2111 	ld	e, -23 (ix)
    00000CEF 3E 14            [ 7] 2112 	ld	a, #0x14
    00000CF1 B8               [ 4] 2113 	cp	a, b
    00000CF2 3E 00            [ 7] 2114 	ld	a, #0x00
    00000CF4 9B               [ 4] 2115 	sbc	a, e
    00000CF5 DAr97r0D         [10] 2116 	jp	C, 00284$
    00000CF8 DD 46 F0         [19] 2117 	ld	b, -16 (ix)
    00000CFB DD 5E F1         [19] 2118 	ld	e, -15 (ix)
    00000CFE 3E 14            [ 7] 2119 	ld	a, #0x14
    00000D00 B8               [ 4] 2120 	cp	a, b
    00000D01 3E 00            [ 7] 2121 	ld	a, #0x00
    00000D03 9B               [ 4] 2122 	sbc	a, e
    00000D04 DAr97r0D         [10] 2123 	jp	C, 00284$
    00000D07 0E 01            [ 7] 2124 	ld	c, #0x01
    00000D09 C3r97r0D         [10] 2125 	jp	00284$
    00000D0C                       2126 00283$:
                                   2127 ;E:\Dropbox\FAUSTO\SVILUPPI\MSX\CODE\C\MSXgl\projects\soccerlgMSX2/soccerlg_s21_b3.c:231: } else if (LastTouchTeam != team && LastTouchTeam != 0xFF) {
    00000D0C CB 40            [ 8] 2128 	bit	0, b
    00000D0E C2r97r0D         [10] 2129 	jp	NZ, 00284$
    00000D11 DD CB F9 46      [20] 2130 	bit	0, -7 (ix)
    00000D15 C2r97r0D         [10] 2131 	jp	NZ, 00284$
                                   2132 ;E:\Dropbox\FAUSTO\SVILUPPI\MSX\CODE\C\MSXgl\projects\soccerlgMSX2/soccerlg_s21_b3.c:233: u8 opp_idx = LastTouchPlayer;
    00000D18 3Ar00r00         [13] 2133 	ld	a, (_LastTouchPlayer+0)
                                   2134 ;E:\Dropbox\FAUSTO\SVILUPPI\MSX\CODE\C\MSXgl\projects\soccerlgMSX2/soccerlg_s21_b3.c:234: struct ObjectInfo* Opponent = &SwSprite[opp_idx];
    00000D1B 5F               [ 4] 2135 	ld	e, a
    00000D1C 16 00            [ 7] 2136 	ld	d, #0x00
    00000D1E 6B               [ 4] 2137 	ld	l, e
    00000D1F 62               [ 4] 2138 	ld	h, d
    00000D20 29               [11] 2139 	add	hl, hl
    00000D21 29               [11] 2140 	add	hl, hl
    00000D22 19               [11] 2141 	add	hl, de
    00000D23 29               [11] 2142 	add	hl, hl
    00000D24 19               [11] 2143 	add	hl, de
    00000D25 29               [11] 2144 	add	hl, hl
    00000D26 19               [11] 2145 	add	hl, de
    00000D27 11r00r00         [10] 2146 	ld	de, #_SwSprite
    00000D2A 19               [11] 2147 	add	hl, de
                                   2148 ;E:\Dropbox\FAUSTO\SVILUPPI\MSX\CODE\C\MSXgl\projects\soccerlgMSX2/soccerlg_s21_b3.c:236: bool is_in_front = FALSE;
    00000D2B DD 36 F7 00      [19] 2149 	ld	-9 (ix), #0x00
                                   2150 ;E:\Dropbox\FAUSTO\SVILUPPI\MSX\CODE\C\MSXgl\projects\soccerlgMSX2/soccerlg_s21_b3.c:238: if (Player->ly > Opponent->ly - 4) is_in_front = TRUE; // Difensore (Team 2) deve essere "sotto"
    00000D2F DD 7E EC         [19] 2151 	ld	a, -20 (ix)
    00000D32 DD 77 F8         [19] 2152 	ld	-8 (ix), a
    00000D35 DD 7E ED         [19] 2153 	ld	a, -19 (ix)
    00000D38 DD 77 F9         [19] 2154 	ld	-7 (ix), a
    00000D3B 11 04 00         [10] 2155 	ld	de, #0x0004
    00000D3E 19               [11] 2156 	add	hl, de
    00000D3F 5E               [ 7] 2157 	ld	e, (hl)
    00000D40 23               [ 6] 2158 	inc	hl
    00000D41 56               [ 7] 2159 	ld	d, (hl)
                                   2160 ;E:\Dropbox\FAUSTO\SVILUPPI\MSX\CODE\C\MSXgl\projects\soccerlgMSX2/soccerlg_s21_b3.c:237: if (LastTouchTeam == TEAM_1) { // Avversario (Team 1) attacca verso Sud (Y crescente)
    00000D42 3Ar00r00         [13] 2161 	ld	a, (_LastTouchTeam+0)
    00000D45 B7               [ 4] 2162 	or	a, a
    00000D46 20 19            [12] 2163 	jr	NZ, 00273$
                                   2164 ;E:\Dropbox\FAUSTO\SVILUPPI\MSX\CODE\C\MSXgl\projects\soccerlgMSX2/soccerlg_s21_b3.c:238: if (Player->ly > Opponent->ly - 4) is_in_front = TRUE; // Difensore (Team 2) deve essere "sotto"
    00000D48 7B               [ 4] 2165 	ld	a, e
    00000D49 C6 FC            [ 7] 2166 	add	a, #0xfc
    00000D4B 47               [ 4] 2167 	ld	b, a
    00000D4C 7A               [ 4] 2168 	ld	a, d
    00000D4D CE FF            [ 7] 2169 	adc	a, #0xff
    00000D4F 5F               [ 4] 2170 	ld	e, a
    00000D50 78               [ 4] 2171 	ld	a, b
    00000D51 DD 96 F8         [19] 2172 	sub	a, -8 (ix)
    00000D54 7B               [ 4] 2173 	ld	a, e
    00000D55 DD 9E F9         [19] 2174 	sbc	a, -7 (ix)
    00000D58 30 19            [12] 2175 	jr	NC, 00274$
    00000D5A DD 36 F7 01      [19] 2176 	ld	-9 (ix), #0x01
    00000D5E C3r73r0D         [10] 2177 	jp	00274$
    00000D61                       2178 00273$:
                                   2179 ;E:\Dropbox\FAUSTO\SVILUPPI\MSX\CODE\C\MSXgl\projects\soccerlgMSX2/soccerlg_s21_b3.c:240: if (Player->ly < Opponent->ly + 4) is_in_front = TRUE; // Difensore (Team 1) deve essere "sopra"
    00000D61 13               [ 6] 2180 	inc	de
    00000D62 13               [ 6] 2181 	inc	de
    00000D63 13               [ 6] 2182 	inc	de
    00000D64 13               [ 6] 2183 	inc	de
    00000D65 DD 7E F8         [19] 2184 	ld	a, -8 (ix)
    00000D68 93               [ 4] 2185 	sub	a, e
    00000D69 DD 7E F9         [19] 2186 	ld	a, -7 (ix)
    00000D6C 9A               [ 4] 2187 	sbc	a, d
    00000D6D 30 04            [12] 2188 	jr	NC, 00274$
    00000D6F DD 36 F7 01      [19] 2189 	ld	-9 (ix), #0x01
    00000D73                       2190 00274$:
                                   2191 ;E:\Dropbox\FAUSTO\SVILUPPI\MSX\CODE\C\MSXgl\projects\soccerlgMSX2/soccerlg_s21_b3.c:243: if (is_in_front && b_dist_x <= 14 && b_dist_y <= 14) {
    00000D73 DD 7E F7         [19] 2192 	ld	a, -9 (ix)
    00000D76 B7               [ 4] 2193 	or	a, a
    00000D77 28 1E            [12] 2194 	jr	Z, 00284$
    00000D79 DD 46 E8         [19] 2195 	ld	b, -24 (ix)
    00000D7C DD 5E E9         [19] 2196 	ld	e, -23 (ix)
    00000D7F 3E 0E            [ 7] 2197 	ld	a, #0x0e
    00000D81 B8               [ 4] 2198 	cp	a, b
    00000D82 3E 00            [ 7] 2199 	ld	a, #0x00
    00000D84 9B               [ 4] 2200 	sbc	a, e
    00000D85 38 10            [12] 2201 	jr	C, 00284$
    00000D87 DD 46 F0         [19] 2202 	ld	b, -16 (ix)
    00000D8A DD 5E F1         [19] 2203 	ld	e, -15 (ix)
    00000D8D 3E 0E            [ 7] 2204 	ld	a, #0x0e
    00000D8F B8               [ 4] 2205 	cp	a, b
    00000D90 3E 00            [ 7] 2206 	ld	a, #0x00
    00000D92 9B               [ 4] 2207 	sbc	a, e
    00000D93 38 02            [12] 2208 	jr	C, 00284$
                                   2209 ;E:\Dropbox\FAUSTO\SVILUPPI\MSX\CODE\C\MSXgl\projects\soccerlgMSX2/soccerlg_s21_b3.c:244: can_steal_standing = TRUE;
    00000D95 0E 01            [ 7] 2210 	ld	c, #0x01
    00000D97                       2211 00284$:
                                   2212 ;E:\Dropbox\FAUSTO\SVILUPPI\MSX\CODE\C\MSXgl\projects\soccerlgMSX2/soccerlg_s21_b3.c:248: if (can_steal_standing && Ball->anim < 5 && Ball->count == 0 && RestartType == 0) {
    00000D97 79               [ 4] 2213 	ld	a, c
    00000D98 B7               [ 4] 2214 	or	a, a
    00000D99 CAr45r0E         [10] 2215 	jp	Z, 00308$
    00000D9C DD 7E F3         [19] 2216 	ld	a, -13 (ix)
    00000D9F D6 05            [ 7] 2217 	sub	a, #0x05
    00000DA1 DD 7E F4         [19] 2218 	ld	a, -12 (ix)
    00000DA4 DE 00            [ 7] 2219 	sbc	a, #0x00
    00000DA6 D2r45r0E         [10] 2220 	jp	NC, 00308$
    00000DA9 2Ar57r01         [16] 2221 	ld	hl, (#(_SwSprite + 343) + 0)
    00000DAC 7C               [ 4] 2222 	ld	a, h
    00000DAD B5               [ 4] 2223 	or	a, l
    00000DAE C2r45r0E         [10] 2224 	jp	NZ, 00308$
    00000DB1 3Ar00r00         [13] 2225 	ld	a, (_RestartType+0)
    00000DB4 B7               [ 4] 2226 	or	a, a
    00000DB5 C2r45r0E         [10] 2227 	jp	NZ, 00308$
                                   2228 ;E:\Dropbox\FAUSTO\SVILUPPI\MSX\CODE\C\MSXgl\projects\soccerlgMSX2/soccerlg_s21_b3.c:33: if (Ball->anim == 5 && LastTouchTeam == team) ball_free_nearby = FALSE; // Non disturbare i propri passaggi
    00000DB8 3Ar00r00         [13] 2229 	ld	a, (_LastTouchTeam+0)
    00000DBB DD 96 E3         [19] 2230 	sub	a, -29 (ix)
    00000DBE 3E 01            [ 7] 2231 	ld	a, #0x01
    00000DC0 28 01            [12] 2232 	jr	Z, 01842$
    00000DC2 AF               [ 4] 2233 	xor	a, a
    00000DC3                       2234 01842$:
    00000DC3 4F               [ 4] 2235 	ld	c, a
                                   2236 ;E:\Dropbox\FAUSTO\SVILUPPI\MSX\CODE\C\MSXgl\projects\soccerlgMSX2/soccerlg_s21_b3.c:249: if (LastTouchTeam != team) { // Solo se furto da avversario o palla libera
    00000DC4 41               [ 4] 2237 	ld	b, c
    00000DC5 CB 40            [ 8] 2238 	bit	0, b
    00000DC7 20 42            [12] 2239 	jr	NZ, 00296$
                                   2240 ;E:\Dropbox\FAUSTO\SVILUPPI\MSX\CODE\C\MSXgl\projects\soccerlgMSX2/soccerlg_s21_b3.c:250: Ball->count = is_free_ball ? 10 : 30;
    00000DC9 11r57r01         [10] 2241 	ld	de, #(_SwSprite + 343)
    00000DCC DD 7E FE         [19] 2242 	ld	a, -2 (ix)
    00000DCF B7               [ 4] 2243 	or	a, a
    00000DD0 28 06            [12] 2244 	jr	Z, 00507$
    00000DD2 01 0A 00         [10] 2245 	ld	bc, #0x000a
    00000DD5 C3rDBr0D         [10] 2246 	jp	00508$
    00000DD8                       2247 00507$:
    00000DD8 01 1E 00         [10] 2248 	ld	bc, #0x001e
    00000DDB                       2249 00508$:
    00000DDB 79               [ 4] 2250 	ld	a, c
    00000DDC 12               [ 7] 2251 	ld	(de), a
    00000DDD 13               [ 6] 2252 	inc	de
    00000DDE 78               [ 4] 2253 	ld	a, b
    00000DDF 12               [ 7] 2254 	ld	(de), a
                                   2255 ;E:\Dropbox\FAUSTO\SVILUPPI\MSX\CODE\C\MSXgl\projects\soccerlgMSX2/soccerlg_s21_b3.c:251: LastTouchTeam = team;
    00000DE0 DD 7E E3         [19] 2256 	ld	a, -29 (ix)
    00000DE3 32r00r00         [13] 2257 	ld	(_LastTouchTeam+0), a
                                   2258 ;E:\Dropbox\FAUSTO\SVILUPPI\MSX\CODE\C\MSXgl\projects\soccerlgMSX2/soccerlg_s21_b3.c:252: LastTouchPlayer = i;
    00000DE6 DD 7E FF         [19] 2259 	ld	a, -1 (ix)
    00000DE9 32r00r00         [13] 2260 	ld	(_LastTouchPlayer+0), a
                                   2261 ;E:\Dropbox\FAUSTO\SVILUPPI\MSX\CODE\C\MSXgl\projects\soccerlgMSX2/soccerlg_s21_b3.c:253: g_pass_receiver = 0xFF;
    00000DEC 21r00r00         [10] 2262 	ld	hl, #_g_pass_receiver
    00000DEF 36 FF            [10] 2263 	ld	(hl), #0xff
                                   2264 ;E:\Dropbox\FAUSTO\SVILUPPI\MSX\CODE\C\MSXgl\projects\soccerlgMSX2/soccerlg_s21_b3.c:254: if (Ball->anim > 3) Ball->anim = 3; 
    00000DF1 2Ar55r01         [16] 2265 	ld	hl, (#(_SwSprite + 341) + 0)
    00000DF4 3E 03            [ 7] 2266 	ld	a, #0x03
    00000DF6 BD               [ 4] 2267 	cp	a, l
    00000DF7 3E 00            [ 7] 2268 	ld	a, #0x00
    00000DF9 9C               [ 4] 2269 	sbc	a, h
    00000DFA 30 06            [12] 2270 	jr	NC, 00288$
    00000DFC 21 03 00         [10] 2271 	ld	hl, #0x0003
    00000DFF 22r55r01         [16] 2272 	ld	((_SwSprite + 341)), hl
    00000E02                       2273 00288$:
                                   2274 ;E:\Dropbox\FAUSTO\SVILUPPI\MSX\CODE\C\MSXgl\projects\soccerlgMSX2/soccerlg_s21_b3.c:255: Ball->frame = SPR_BALL_SIZE_1;
    00000E02 21 60 00         [10] 2275 	ld	hl, #0x0060
    00000E05 22r51r01         [16] 2276 	ld	((_SwSprite + 337)), hl
    00000E08 C3r45r0E         [10] 2277 	jp	00308$
    00000E0B                       2278 00296$:
                                   2279 ;E:\Dropbox\FAUSTO\SVILUPPI\MSX\CODE\C\MSXgl\projects\soccerlgMSX2/soccerlg_s21_b3.c:256: } else if (is_free_ball && LastTouchTeam == team && LastTouchPlayer != i) {
    00000E0B DD 7E FE         [19] 2280 	ld	a, -2 (ix)
    00000E0E B7               [ 4] 2281 	or	a, a
    00000E0F 28 34            [12] 2282 	jr	Z, 00308$
    00000E11 79               [ 4] 2283 	ld	a, c
    00000E12 B7               [ 4] 2284 	or	a, a
    00000E13 28 30            [12] 2285 	jr	Z, 00308$
    00000E15 3Ar00r00         [13] 2286 	ld	a, (_LastTouchPlayer+0)
    00000E18 DD 96 FF         [19] 2287 	sub	a, -1 (ix)
    00000E1B 28 28            [12] 2288 	jr	Z, 00308$
                                   2289 ;E:\Dropbox\FAUSTO\SVILUPPI\MSX\CODE\C\MSXgl\projects\soccerlgMSX2/soccerlg_s21_b3.c:258: Ball->count = 20; // Immunità alla ricezione
    00000E1D 21 14 00         [10] 2290 	ld	hl, #0x0014
    00000E20 22r57r01         [16] 2291 	ld	((_SwSprite + 343)), hl
                                   2292 ;E:\Dropbox\FAUSTO\SVILUPPI\MSX\CODE\C\MSXgl\projects\soccerlgMSX2/soccerlg_s21_b3.c:259: LastTouchPlayer = i;
    00000E23 DD 7E FF         [19] 2293 	ld	a, -1 (ix)
    00000E26 32r00r00         [13] 2294 	ld	(_LastTouchPlayer+0), a
                                   2295 ;E:\Dropbox\FAUSTO\SVILUPPI\MSX\CODE\C\MSXgl\projects\soccerlgMSX2/soccerlg_s21_b3.c:260: g_pass_receiver = 0xFF;
    00000E29 21r00r00         [10] 2296 	ld	hl, #_g_pass_receiver
    00000E2C 36 FF            [10] 2297 	ld	(hl), #0xff
                                   2298 ;E:\Dropbox\FAUSTO\SVILUPPI\MSX\CODE\C\MSXgl\projects\soccerlgMSX2/soccerlg_s21_b3.c:261: if (Ball->anim > 3) Ball->anim = 3; 
    00000E2E 2Ar55r01         [16] 2299 	ld	hl, (#(_SwSprite + 341) + 0)
    00000E31 3E 03            [ 7] 2300 	ld	a, #0x03
    00000E33 BD               [ 4] 2301 	cp	a, l
    00000E34 3E 00            [ 7] 2302 	ld	a, #0x00
    00000E36 9C               [ 4] 2303 	sbc	a, h
    00000E37 30 06            [12] 2304 	jr	NC, 00290$
    00000E39 21 03 00         [10] 2305 	ld	hl, #0x0003
    00000E3C 22r55r01         [16] 2306 	ld	((_SwSprite + 341)), hl
    00000E3F                       2307 00290$:
                                   2308 ;E:\Dropbox\FAUSTO\SVILUPPI\MSX\CODE\C\MSXgl\projects\soccerlgMSX2/soccerlg_s21_b3.c:262: Ball->frame = SPR_BALL_SIZE_1;
    00000E3F 21 60 00         [10] 2309 	ld	hl, #0x0060
    00000E42 22r51r01         [16] 2310 	ld	((_SwSprite + 337)), hl
    00000E45                       2311 00308$:
                                   2312 ;E:\Dropbox\FAUSTO\SVILUPPI\MSX\CODE\C\MSXgl\projects\soccerlgMSX2/soccerlg_s21_b3.c:269: bool is_cpu_team = (GameMode == GAMEMODE_P1_VS_CPU && team == TEAM_1);
    00000E45 3Ar00r00         [13] 2313 	ld	a, (_GameMode+0)
    00000E48 B7               [ 4] 2314 	or	a, a
    00000E49 20 06            [12] 2315 	jr	NZ, 00509$
    00000E4B DD 7E E3         [19] 2316 	ld	a, -29 (ix)
    00000E4E B7               [ 4] 2317 	or	a, a
    00000E4F 28 05            [12] 2318 	jr	Z, 00510$
    00000E51                       2319 00509$:
    00000E51 0E 00            [ 7] 2320 	ld	c, #0x00
    00000E53 C3r58r0E         [10] 2321 	jp	00511$
    00000E56                       2322 00510$:
    00000E56 0E 01            [ 7] 2323 	ld	c, #0x01
    00000E58                       2324 00511$:
                                   2325 ;E:\Dropbox\FAUSTO\SVILUPPI\MSX\CODE\C\MSXgl\projects\soccerlgMSX2/soccerlg_s21_b3.c:270: if (is_cpu_team && i == closest_mate && LastTouchTeam == team && g_is_ball_carried) {
    00000E58 DD 71 FE         [19] 2326 	ld	-2 (ix), c
    00000E5B 79               [ 4] 2327 	ld	a, c
    00000E5C B7               [ 4] 2328 	or	a, a
    00000E5D CArC7r17         [10] 2329 	jp	Z, 00383$
    00000E60 DD 7E E4         [19] 2330 	ld	a, -28 (ix)
    00000E63 DD 96 FF         [19] 2331 	sub	a, -1 (ix)
    00000E66 C2rC7r17         [10] 2332 	jp	NZ,00383$
    00000E69 3Ar00r00         [13] 2333 	ld	a, (_LastTouchTeam+0)
    00000E6C DD 96 E3         [19] 2334 	sub	a, -29 (ix)
    00000E6F C2rC7r17         [10] 2335 	jp	NZ,00383$
    00000E72 3Ar00r00         [13] 2336 	ld	a, (_g_is_ball_carried+0)
    00000E75 B7               [ 4] 2337 	or	a, a
    00000E76 CArC7r17         [10] 2338 	jp	Z, 00383$
                                   2339 ;E:\Dropbox\FAUSTO\SVILUPPI\MSX\CODE\C\MSXgl\projects\soccerlgMSX2/soccerlg_s21_b3.c:271: u16 d_bx = (Player->lx > Ball->lx) ? (Player->lx - Ball->lx) : (Ball->lx - Player->lx);
    00000E79 DD 6E E1         [19] 2340 	ld	l, -31 (ix)
    00000E7C DD 66 E2         [19] 2341 	ld	h, -30 (ix)
    00000E7F 7E               [ 7] 2342 	ld	a, (hl)
    00000E80 DD 77 EC         [19] 2343 	ld	-20 (ix), a
    00000E83 3Ar42r01         [13] 2344 	ld	a, (#(_SwSprite + 322) + 0)
    00000E86 DD 77 FC         [19] 2345 	ld	-4 (ix), a
    00000E89 DD 7E EC         [19] 2346 	ld	a, -20 (ix)
    00000E8C DD 77 F6         [19] 2347 	ld	-10 (ix), a
    00000E8F DD 36 F7 00      [19] 2348 	ld	-9 (ix), #0x00
    00000E93 DD 7E FC         [19] 2349 	ld	a, -4 (ix)
    00000E96 DD 77 FA         [19] 2350 	ld	-6 (ix), a
    00000E99 DD 36 FB 00      [19] 2351 	ld	-5 (ix), #0x00
    00000E9D DD 7E FC         [19] 2352 	ld	a, -4 (ix)
    00000EA0 DD 96 EC         [19] 2353 	sub	a, -20 (ix)
    00000EA3 30 15            [12] 2354 	jr	NC, 00512$
    00000EA5 DD 7E F6         [19] 2355 	ld	a, -10 (ix)
    00000EA8 DD 96 FA         [19] 2356 	sub	a, -6 (ix)
    00000EAB DD 77 FD         [19] 2357 	ld	-3 (ix), a
    00000EAE DD 7E F7         [19] 2358 	ld	a, -9 (ix)
    00000EB1 DD 9E FB         [19] 2359 	sbc	a, -5 (ix)
    00000EB4 DD 77 FE         [19] 2360 	ld	-2 (ix), a
    00000EB7 C3rCCr0E         [10] 2361 	jp	00513$
    00000EBA                       2362 00512$:
    00000EBA DD 7E FA         [19] 2363 	ld	a, -6 (ix)
    00000EBD DD 96 F6         [19] 2364 	sub	a, -10 (ix)
    00000EC0 DD 77 FD         [19] 2365 	ld	-3 (ix), a
    00000EC3 DD 7E FB         [19] 2366 	ld	a, -5 (ix)
    00000EC6 DD 9E F7         [19] 2367 	sbc	a, -9 (ix)
    00000EC9 DD 77 FE         [19] 2368 	ld	-2 (ix), a
    00000ECC                       2369 00513$:
    00000ECC DD 7E FD         [19] 2370 	ld	a, -3 (ix)
    00000ECF DD 77 F2         [19] 2371 	ld	-14 (ix), a
    00000ED2 DD 7E FE         [19] 2372 	ld	a, -2 (ix)
    00000ED5 DD 77 F3         [19] 2373 	ld	-13 (ix), a
                                   2374 ;E:\Dropbox\FAUSTO\SVILUPPI\MSX\CODE\C\MSXgl\projects\soccerlgMSX2/soccerlg_s21_b3.c:272: u16 d_by = (Player->ly > Ball->ly) ? (Player->ly - Ball->ly) : (Ball->ly - Player->ly);
    00000ED8 DD 6E EA         [19] 2375 	ld	l, -22 (ix)
    00000EDB DD 66 EB         [19] 2376 	ld	h, -21 (ix)
    00000EDE 7E               [ 7] 2377 	ld	a, (hl)
    00000EDF DD 77 F8         [19] 2378 	ld	-8 (ix), a
    00000EE2 23               [ 6] 2379 	inc	hl
    00000EE3 7E               [ 7] 2380 	ld	a, (hl)
    00000EE4 DD 77 F9         [19] 2381 	ld	-7 (ix), a
    00000EE7 21r46r01         [10] 2382 	ld	hl, #(_SwSprite + 326)
    00000EEA 7E               [ 7] 2383 	ld	a, (hl)
    00000EEB DD 77 FD         [19] 2384 	ld	-3 (ix), a
    00000EEE 23               [ 6] 2385 	inc	hl
    00000EEF 7E               [ 7] 2386 	ld	a, (hl)
    00000EF0 DD 77 FE         [19] 2387 	ld	-2 (ix), a
    00000EF3 DD 7E FD         [19] 2388 	ld	a, -3 (ix)
    00000EF6 DD 96 F8         [19] 2389 	sub	a, -8 (ix)
    00000EF9 DD 7E FE         [19] 2390 	ld	a, -2 (ix)
    00000EFC DD 9E F9         [19] 2391 	sbc	a, -7 (ix)
    00000EFF 30 15            [12] 2392 	jr	NC, 00514$
    00000F01 DD 7E F8         [19] 2393 	ld	a, -8 (ix)
    00000F04 DD 96 FD         [19] 2394 	sub	a, -3 (ix)
    00000F07 DD 77 FA         [19] 2395 	ld	-6 (ix), a
    00000F0A DD 7E F9         [19] 2396 	ld	a, -7 (ix)
    00000F0D DD 9E FE         [19] 2397 	sbc	a, -2 (ix)
    00000F10 DD 77 FB         [19] 2398 	ld	-5 (ix), a
    00000F13 C3r28r0F         [10] 2399 	jp	00515$
    00000F16                       2400 00514$:
    00000F16 DD 7E FD         [19] 2401 	ld	a, -3 (ix)
    00000F19 DD 96 F8         [19] 2402 	sub	a, -8 (ix)
    00000F1C DD 77 FA         [19] 2403 	ld	-6 (ix), a
    00000F1F DD 7E FE         [19] 2404 	ld	a, -2 (ix)
    00000F22 DD 9E F9         [19] 2405 	sbc	a, -7 (ix)
    00000F25 DD 77 FB         [19] 2406 	ld	-5 (ix), a
    00000F28                       2407 00515$:
    00000F28 DD 7E FA         [19] 2408 	ld	a, -6 (ix)
    00000F2B DD 77 F4         [19] 2409 	ld	-12 (ix), a
    00000F2E DD 7E FB         [19] 2410 	ld	a, -5 (ix)
    00000F31 DD 77 F5         [19] 2411 	ld	-11 (ix), a
                                   2412 ;E:\Dropbox\FAUSTO\SVILUPPI\MSX\CODE\C\MSXgl\projects\soccerlgMSX2/soccerlg_s21_b3.c:273: if (d_bx + d_by <= 26) {
    00000F34 DD 7E F4         [19] 2413 	ld	a, -12 (ix)
    00000F37 DD 86 F2         [19] 2414 	add	a, -14 (ix)
    00000F3A DD 77 FA         [19] 2415 	ld	-6 (ix), a
    00000F3D DD 7E F5         [19] 2416 	ld	a, -11 (ix)
    00000F40 DD 8E F3         [19] 2417 	adc	a, -13 (ix)
    00000F43 DD 77 FB         [19] 2418 	ld	-5 (ix), a
    00000F46 3E 1A            [ 7] 2419 	ld	a, #0x1a
    00000F48 DD BE FA         [19] 2420 	cp	a, -6 (ix)
    00000F4B 3E 00            [ 7] 2421 	ld	a, #0x00
    00000F4D DD 9E FB         [19] 2422 	sbc	a, -5 (ix)
    00000F50 3E 00            [ 7] 2423 	ld	a, #0x00
    00000F52 17               [ 4] 2424 	rla
    00000F53 DD 77 ED         [19] 2425 	ld	-19 (ix), a
    00000F56 DD CB ED 46      [20] 2426 	bit	0, -19 (ix)
    00000F5A C2rB1r17         [10] 2427 	jp	NZ, 00380$
                                   2428 ;E:\Dropbox\FAUSTO\SVILUPPI\MSX\CODE\C\MSXgl\projects\soccerlgMSX2/soccerlg_s21_b3.c:275: target_x = 128; 
    00000F5D DD 36 FA 80      [19] 2429 	ld	-6 (ix), #0x80
    00000F61 DD 36 FB 00      [19] 2430 	ld	-5 (ix), #0
                                   2431 ;E:\Dropbox\FAUSTO\SVILUPPI\MSX\CODE\C\MSXgl\projects\soccerlgMSX2/soccerlg_s21_b3.c:276: target_y = 480; 
    00000F65 DD 36 FC E0      [19] 2432 	ld	-4 (ix), #0xe0
    00000F69 DD 36 FD 01      [19] 2433 	ld	-3 (ix), #0x01
                                   2434 ;E:\Dropbox\FAUSTO\SVILUPPI\MSX\CODE\C\MSXgl\projects\soccerlgMSX2/soccerlg_s21_b3.c:279: u8 closest_opp = 0xFF;
    00000F6D DD 36 EE FF      [19] 2435 	ld	-18 (ix), #0xff
                                   2436 ;E:\Dropbox\FAUSTO\SVILUPPI\MSX\CODE\C\MSXgl\projects\soccerlgMSX2/soccerlg_s21_b3.c:280: u16 min_opp_dist = 0xFFFF;
    00000F71 DD 36 E8 FF      [19] 2437 	ld	-24 (ix), #0xff
    00000F75 DD 36 E9 FF      [19] 2438 	ld	-23 (ix), #0xff
                                   2439 ;E:\Dropbox\FAUSTO\SVILUPPI\MSX\CODE\C\MSXgl\projects\soccerlgMSX2/soccerlg_s21_b3.c:281: for (u8 j = 7; j < 14; j++) {
    00000F79 DD 36 FE 07      [19] 2440 	ld	-2 (ix), #0x07
    00000F7D                       2441 00415$:
    00000F7D DD 7E FE         [19] 2442 	ld	a, -2 (ix)
    00000F80 D6 0E            [ 7] 2443 	sub	a, #0x0e
    00000F82 D2r71r10         [10] 2444 	jp	NC, 00316$
                                   2445 ;E:\Dropbox\FAUSTO\SVILUPPI\MSX\CODE\C\MSXgl\projects\soccerlgMSX2/soccerlg_s21_b3.c:282: u16 odx = (SwSprite[j].lx > Player->lx) ? (SwSprite[j].lx - Player->lx) : (Player->lx - SwSprite[j].lx);
    00000F85 DD 4E FE         [19] 2446 	ld	c, -2 (ix)
    00000F88 06 00            [ 7] 2447 	ld	b, #0x00
    00000F8A 69               [ 4] 2448 	ld	l, c
    00000F8B 60               [ 4] 2449 	ld	h, b
    00000F8C 29               [11] 2450 	add	hl, hl
    00000F8D 29               [11] 2451 	add	hl, hl
    00000F8E 09               [11] 2452 	add	hl, bc
    00000F8F 29               [11] 2453 	add	hl, hl
    00000F90 09               [11] 2454 	add	hl, bc
    00000F91 29               [11] 2455 	add	hl, hl
    00000F92 09               [11] 2456 	add	hl, bc
    00000F93 DD 75 F2         [19] 2457 	ld	-14 (ix), l
    00000F96 DD 74 F3         [19] 2458 	ld	-13 (ix), h
    00000F99 DD 7E F2         [19] 2459 	ld	a, -14 (ix)
    00000F9C C6r00            [ 7] 2460 	add	a, #<(_SwSprite)
    00000F9E DD 77 F4         [19] 2461 	ld	-12 (ix), a
    00000FA1 DD 7E F3         [19] 2462 	ld	a, -13 (ix)
    00000FA4 CEs00            [ 7] 2463 	adc	a, #>(_SwSprite)
    00000FA6 DD 77 F5         [19] 2464 	ld	-11 (ix), a
    00000FA9 DD 6E F4         [19] 2465 	ld	l, -12 (ix)
    00000FAC DD 66 F5         [19] 2466 	ld	h, -11 (ix)
    00000FAF 4E               [ 7] 2467 	ld	c, (hl)
    00000FB0 DD 71 F0         [19] 2468 	ld	-16 (ix), c
    00000FB3 DD 36 F1 00      [19] 2469 	ld	-15 (ix), #0x00
    00000FB7 DD 7E EC         [19] 2470 	ld	a, -20 (ix)
    00000FBA 91               [ 4] 2471 	sub	a, c
    00000FBB 30 15            [12] 2472 	jr	NC, 00516$
    00000FBD DD 7E F0         [19] 2473 	ld	a, -16 (ix)
    00000FC0 DD 96 F6         [19] 2474 	sub	a, -10 (ix)
    00000FC3 DD 77 F2         [19] 2475 	ld	-14 (ix), a
    00000FC6 DD 7E F1         [19] 2476 	ld	a, -15 (ix)
    00000FC9 DD 9E F7         [19] 2477 	sbc	a, -9 (ix)
    00000FCC DD 77 F3         [19] 2478 	ld	-13 (ix), a
    00000FCF C3rE4r0F         [10] 2479 	jp	00517$
    00000FD2                       2480 00516$:
    00000FD2 DD 7E F6         [19] 2481 	ld	a, -10 (ix)
    00000FD5 DD 96 F0         [19] 2482 	sub	a, -16 (ix)
    00000FD8 DD 77 F2         [19] 2483 	ld	-14 (ix), a
    00000FDB DD 7E F7         [19] 2484 	ld	a, -9 (ix)
    00000FDE DD 9E F1         [19] 2485 	sbc	a, -15 (ix)
    00000FE1 DD 77 F3         [19] 2486 	ld	-13 (ix), a
    00000FE4                       2487 00517$:
    00000FE4 DD 7E F2         [19] 2488 	ld	a, -14 (ix)
    00000FE7 DD 77 F0         [19] 2489 	ld	-16 (ix), a
    00000FEA DD 7E F3         [19] 2490 	ld	a, -13 (ix)
    00000FED DD 77 F1         [19] 2491 	ld	-15 (ix), a
                                   2492 ;E:\Dropbox\FAUSTO\SVILUPPI\MSX\CODE\C\MSXgl\projects\soccerlgMSX2/soccerlg_s21_b3.c:283: u16 ody = (SwSprite[j].ly > Player->ly) ? (SwSprite[j].ly - Player->ly) : (Player->ly - SwSprite[j].ly);
    00000FF0 DD 6E F4         [19] 2493 	ld	l, -12 (ix)
    00000FF3 DD 66 F5         [19] 2494 	ld	h, -11 (ix)
    00000FF6 11 04 00         [10] 2495 	ld	de, #0x0004
    00000FF9 19               [11] 2496 	add	hl, de
    00000FFA 7E               [ 7] 2497 	ld	a, (hl)
    00000FFB DD 77 F2         [19] 2498 	ld	-14 (ix), a
    00000FFE 23               [ 6] 2499 	inc	hl
    00000FFF 7E               [ 7] 2500 	ld	a, (hl)
    00001000 DD 77 F3         [19] 2501 	ld	-13 (ix), a
    00001003 DD 7E F8         [19] 2502 	ld	a, -8 (ix)
    00001006 DD 96 F2         [19] 2503 	sub	a, -14 (ix)
    00001009 DD 7E F9         [19] 2504 	ld	a, -7 (ix)
    0000100C DD 9E F3         [19] 2505 	sbc	a, -13 (ix)
    0000100F 30 15            [12] 2506 	jr	NC, 00518$
    00001011 DD 7E F2         [19] 2507 	ld	a, -14 (ix)
    00001014 DD 96 F8         [19] 2508 	sub	a, -8 (ix)
    00001017 DD 77 F4         [19] 2509 	ld	-12 (ix), a
    0000101A DD 7E F3         [19] 2510 	ld	a, -13 (ix)
    0000101D DD 9E F9         [19] 2511 	sbc	a, -7 (ix)
    00001020 DD 77 F5         [19] 2512 	ld	-11 (ix), a
    00001023 C3r38r10         [10] 2513 	jp	00519$
    00001026                       2514 00518$:
    00001026 DD 7E F8         [19] 2515 	ld	a, -8 (ix)
    00001029 DD 96 F2         [19] 2516 	sub	a, -14 (ix)
    0000102C DD 77 F4         [19] 2517 	ld	-12 (ix), a
    0000102F DD 7E F9         [19] 2518 	ld	a, -7 (ix)
    00001032 DD 9E F3         [19] 2519 	sbc	a, -13 (ix)
    00001035 DD 77 F5         [19] 2520 	ld	-11 (ix), a
    00001038                       2521 00519$:
    00001038 DD 7E F4         [19] 2522 	ld	a, -12 (ix)
    0000103B DD 4E F5         [19] 2523 	ld	c, -11 (ix)
                                   2524 ;E:\Dropbox\FAUSTO\SVILUPPI\MSX\CODE\C\MSXgl\projects\soccerlgMSX2/soccerlg_s21_b3.c:284: if (odx + ody < min_opp_dist) {
    0000103E DD 86 F0         [19] 2525 	add	a, -16 (ix)
    00001041 DD 77 F4         [19] 2526 	ld	-12 (ix), a
    00001044 79               [ 4] 2527 	ld	a, c
    00001045 DD 8E F1         [19] 2528 	adc	a, -15 (ix)
    00001048 DD 77 F5         [19] 2529 	ld	-11 (ix), a
    0000104B DD 7E F4         [19] 2530 	ld	a, -12 (ix)
    0000104E DD 96 E8         [19] 2531 	sub	a, -24 (ix)
    00001051 DD 7E F5         [19] 2532 	ld	a, -11 (ix)
    00001054 DD 9E E9         [19] 2533 	sbc	a, -23 (ix)
    00001057 30 12            [12] 2534 	jr	NC, 00416$
                                   2535 ;E:\Dropbox\FAUSTO\SVILUPPI\MSX\CODE\C\MSXgl\projects\soccerlgMSX2/soccerlg_s21_b3.c:285: min_opp_dist = odx + ody;
    00001059 DD 7E F4         [19] 2536 	ld	a, -12 (ix)
    0000105C DD 77 E8         [19] 2537 	ld	-24 (ix), a
    0000105F DD 7E F5         [19] 2538 	ld	a, -11 (ix)
    00001062 DD 77 E9         [19] 2539 	ld	-23 (ix), a
                                   2540 ;E:\Dropbox\FAUSTO\SVILUPPI\MSX\CODE\C\MSXgl\projects\soccerlgMSX2/soccerlg_s21_b3.c:286: closest_opp = j;
    00001065 DD 7E FE         [19] 2541 	ld	a, -2 (ix)
    00001068 DD 77 EE         [19] 2542 	ld	-18 (ix), a
    0000106B                       2543 00416$:
                                   2544 ;E:\Dropbox\FAUSTO\SVILUPPI\MSX\CODE\C\MSXgl\projects\soccerlgMSX2/soccerlg_s21_b3.c:281: for (u8 j = 7; j < 14; j++) {
    0000106B DD 34 FE         [23] 2545 	inc	-2 (ix)
    0000106E C3r7Dr0F         [10] 2546 	jp	00415$
    00001071                       2547 00316$:
                                   2548 ;E:\Dropbox\FAUSTO\SVILUPPI\MSX\CODE\C\MSXgl\projects\soccerlgMSX2/soccerlg_s21_b3.c:289: bool under_pressure = (min_opp_dist < 40);
    00001071 DD 7E E8         [19] 2549 	ld	a, -24 (ix)
    00001074 DD 46 E9         [19] 2550 	ld	b, -23 (ix)
    00001077 D6 28            [ 7] 2551 	sub	a, #0x28
    00001079 78               [ 4] 2552 	ld	a, b
    0000107A DE 00            [ 7] 2553 	sbc	a, #0x00
    0000107C 3E 00            [ 7] 2554 	ld	a, #0x00
    0000107E 17               [ 4] 2555 	rla
    0000107F DD 77 F5         [19] 2556 	ld	-11 (ix), a
    00001082 DD 77 FE         [19] 2557 	ld	-2 (ix), a
                                   2558 ;E:\Dropbox\FAUSTO\SVILUPPI\MSX\CODE\C\MSXgl\projects\soccerlgMSX2/soccerlg_s21_b3.c:292: if (under_pressure) {
    00001085 DD 7E F5         [19] 2559 	ld	a, -11 (ix)
    00001088 B7               [ 4] 2560 	or	a, a
    00001089 CArE1r11         [10] 2561 	jp	Z, 00320$
                                   2562 ;E:\Dropbox\FAUSTO\SVILUPPI\MSX\CODE\C\MSXgl\projects\soccerlgMSX2/soccerlg_s21_b3.c:293: u8 evade_chance = g_ActiveStats[team].dribble_variation * 15; // Da 15% a 75%
    0000108C DD 4E E3         [19] 2563 	ld	c, -29 (ix)
    0000108F 06 00            [ 7] 2564 	ld	b, #0x00
    00001091 69               [ 4] 2565 	ld	l, c
    00001092 60               [ 4] 2566 	ld	h, b
    00001093 29               [11] 2567 	add	hl, hl
    00001094 09               [11] 2568 	add	hl, bc
    00001095 29               [11] 2569 	add	hl, hl
    00001096 09               [11] 2570 	add	hl, bc
    00001097 DD 75 F2         [19] 2571 	ld	-14 (ix), l
    0000109A DD 74 F3         [19] 2572 	ld	-13 (ix), h
    0000109D 3Er00            [ 7] 2573 	ld	a, #<(_g_ActiveStats)
    0000109F DD 86 F2         [19] 2574 	add	a, -14 (ix)
    000010A2 DD 77 F4         [19] 2575 	ld	-12 (ix), a
    000010A5 3Es00            [ 7] 2576 	ld	a, #>(_g_ActiveStats)
    000010A7 DD 8E F3         [19] 2577 	adc	a, -13 (ix)
    000010AA DD 77 F5         [19] 2578 	ld	-11 (ix), a
    000010AD DD 6E F4         [19] 2579 	ld	l, -12 (ix)
    000010B0 DD 66 F5         [19] 2580 	ld	h, -11 (ix)
    000010B3 23               [ 6] 2581 	inc	hl
    000010B4 23               [ 6] 2582 	inc	hl
    000010B5 23               [ 6] 2583 	inc	hl
    000010B6 7E               [ 7] 2584 	ld	a, (hl)
    000010B7 DD 77 F5         [19] 2585 	ld	-11 (ix), a
    000010BA 4F               [ 4] 2586 	ld	c, a
    000010BB 87               [ 4] 2587 	add	a, a
    000010BC 87               [ 4] 2588 	add	a, a
    000010BD 87               [ 4] 2589 	add	a, a
    000010BE 87               [ 4] 2590 	add	a, a
    000010BF 91               [ 4] 2591 	sub	a, c
    000010C0 DD 77 EF         [19] 2592 	ld	-17 (ix), a
                                   2593 ;E:\Dropbox\FAUSTO\SVILUPPI\MSX\CODE\C\MSXgl\projects\soccerlgMSX2/soccerlg_s21_b3.c:294: u8 rand_evade = ((i * 17) + (Frms / 16) * 13) % 100; // Mantiene la stessa decisione (sterzata) per ~0.25 sec
    000010C3 DD 7E FF         [19] 2594 	ld	a, -1 (ix)
    000010C6 DD 77 F4         [19] 2595 	ld	-12 (ix), a
    000010C9 DD 36 F5 00      [19] 2596 	ld	-11 (ix), #0x00
    000010CD 4F               [ 4] 2597 	ld	c, a
    000010CE 06 00            [ 7] 2598 	ld	b, #0x00
    000010D0 69               [ 4] 2599 	ld	l, c
    000010D1 60               [ 4] 2600 	ld	h, b
    000010D2 29               [11] 2601 	add	hl, hl
    000010D3 29               [11] 2602 	add	hl, hl
    000010D4 29               [11] 2603 	add	hl, hl
    000010D5 29               [11] 2604 	add	hl, hl
    000010D6 09               [11] 2605 	add	hl, bc
    000010D7 DD 75 F0         [19] 2606 	ld	-16 (ix), l
    000010DA DD 74 F1         [19] 2607 	ld	-15 (ix), h
    000010DD 3Ar00r00         [13] 2608 	ld	a, (_Frms+0)
    000010E0 DD 77 F2         [19] 2609 	ld	-14 (ix), a
    000010E3 DD 36 F3 00      [19] 2610 	ld	-13 (ix), #0x00
    000010E7 DD 7E F2         [19] 2611 	ld	a, -14 (ix)
    000010EA DD 77 F4         [19] 2612 	ld	-12 (ix), a
    000010ED DD 7E F3         [19] 2613 	ld	a, -13 (ix)
    000010F0 DD 77 F5         [19] 2614 	ld	-11 (ix), a
    000010F3 DD CB F3 7E      [20] 2615 	bit	7, -13 (ix)
    000010F7 28 10            [12] 2616 	jr	Z, 00520$
    000010F9 DD 7E F2         [19] 2617 	ld	a, -14 (ix)
    000010FC C6 0F            [ 7] 2618 	add	a, #0x0f
    000010FE DD 77 F4         [19] 2619 	ld	-12 (ix), a
    00001101 DD 7E F3         [19] 2620 	ld	a, -13 (ix)
    00001104 CE 00            [ 7] 2621 	adc	a, #0x00
    00001106 DD 77 F5         [19] 2622 	ld	-11 (ix), a
    00001109                       2623 00520$:
    00001109 DD CB F5 2E      [23] 2624 	sra	-11 (ix)
    0000110D DD CB F4 1E      [23] 2625 	rr	-12 (ix)
    00001111 DD CB F5 2E      [23] 2626 	sra	-11 (ix)
    00001115 DD CB F4 1E      [23] 2627 	rr	-12 (ix)
    00001119 DD CB F5 2E      [23] 2628 	sra	-11 (ix)
    0000111D DD CB F4 1E      [23] 2629 	rr	-12 (ix)
    00001121 DD CB F5 2E      [23] 2630 	sra	-11 (ix)
    00001125 DD CB F4 1E      [23] 2631 	rr	-12 (ix)
    00001129 DD 4E F4         [19] 2632 	ld	c, -12 (ix)
    0000112C DD 46 F5         [19] 2633 	ld	b, -11 (ix)
    0000112F 69               [ 4] 2634 	ld	l, c
    00001130 60               [ 4] 2635 	ld	h, b
    00001131 29               [11] 2636 	add	hl, hl
    00001132 09               [11] 2637 	add	hl, bc
    00001133 29               [11] 2638 	add	hl, hl
    00001134 29               [11] 2639 	add	hl, hl
    00001135 09               [11] 2640 	add	hl, bc
    00001136 DD 75 F2         [19] 2641 	ld	-14 (ix), l
    00001139 DD 74 F3         [19] 2642 	ld	-13 (ix), h
    0000113C DD 7E F0         [19] 2643 	ld	a, -16 (ix)
    0000113F DD 86 F2         [19] 2644 	add	a, -14 (ix)
    00001142 DD 77 F4         [19] 2645 	ld	-12 (ix), a
    00001145 DD 7E F1         [19] 2646 	ld	a, -15 (ix)
    00001148 DD 8E F3         [19] 2647 	adc	a, -13 (ix)
    0000114B DD 77 F5         [19] 2648 	ld	-11 (ix), a
    0000114E 11 64 00         [10] 2649 	ld	de, #0x0064
    00001151 DD 6E F4         [19] 2650 	ld	l, -12 (ix)
                                   2651 ;	spillPairReg hl
                                   2652 ;	spillPairReg hl
    00001154 DD 66 F5         [19] 2653 	ld	h, -11 (ix)
                                   2654 ;	spillPairReg hl
                                   2655 ;	spillPairReg hl
    00001157 CDr00r00         [17] 2656 	call	__modsint
    0000115A DD 73 F4         [19] 2657 	ld	-12 (ix), e
    0000115D DD 72 F5         [19] 2658 	ld	-11 (ix), d
                                   2659 ;E:\Dropbox\FAUSTO\SVILUPPI\MSX\CODE\C\MSXgl\projects\soccerlgMSX2/soccerlg_s21_b3.c:295: if (rand_evade < evade_chance) {
    00001160 DD 7E F4         [19] 2660 	ld	a, -12 (ix)
    00001163 DD 96 EF         [19] 2661 	sub	a, -17 (ix)
    00001166 30 79            [12] 2662 	jr	NC, 00320$
                                   2663 ;E:\Dropbox\FAUSTO\SVILUPPI\MSX\CODE\C\MSXgl\projects\soccerlgMSX2/soccerlg_s21_b3.c:296: target_x = (SwSprite[closest_opp].lx > Player->lx) ? ((Player->lx > 48) ? Player->lx - 48 : 24) : ((Player->lx < 208) ? Player->lx + 48 : 232);
    00001168 DD 4E EE         [19] 2664 	ld	c, -18 (ix)
    0000116B 06 00            [ 7] 2665 	ld	b, #0x00
    0000116D 69               [ 4] 2666 	ld	l, c
    0000116E 60               [ 4] 2667 	ld	h, b
    0000116F 29               [11] 2668 	add	hl, hl
    00001170 29               [11] 2669 	add	hl, hl
    00001171 09               [11] 2670 	add	hl, bc
    00001172 29               [11] 2671 	add	hl, hl
    00001173 09               [11] 2672 	add	hl, bc
    00001174 29               [11] 2673 	add	hl, hl
    00001175 09               [11] 2674 	add	hl, bc
    00001176 DD 75 FA         [19] 2675 	ld	-6 (ix), l
    00001179 DD 74 FB         [19] 2676 	ld	-5 (ix), h
    0000117C 3Er00            [ 7] 2677 	ld	a, #<(_SwSprite)
    0000117E DD 86 FA         [19] 2678 	add	a, -6 (ix)
    00001181 DD 77 F4         [19] 2679 	ld	-12 (ix), a
    00001184 3Es00            [ 7] 2680 	ld	a, #>(_SwSprite)
    00001186 DD 8E FB         [19] 2681 	adc	a, -5 (ix)
    00001189 DD 77 F5         [19] 2682 	ld	-11 (ix), a
    0000118C DD 6E F4         [19] 2683 	ld	l, -12 (ix)
    0000118F DD 66 F5         [19] 2684 	ld	h, -11 (ix)
    00001192 DD 7E EC         [19] 2685 	ld	a,-20 (ix)
    00001195 96               [ 7] 2686 	sub	a,(hl)
    00001196 30 1B            [12] 2687 	jr	NC, 00521$
    00001198 3E 30            [ 7] 2688 	ld	a, #0x30
    0000119A DD 96 EC         [19] 2689 	sub	a, -20 (ix)
    0000119D 30 0E            [12] 2690 	jr	NC, 00523$
    0000119F DD 7E F6         [19] 2691 	ld	a, -10 (ix)
    000011A2 C6 D0            [ 7] 2692 	add	a, #0xd0
    000011A4 4F               [ 4] 2693 	ld	c, a
    000011A5 DD 7E F7         [19] 2694 	ld	a, -9 (ix)
    000011A8 CE FF            [ 7] 2695 	adc	a, #0xff
    000011AA C3rDBr11         [10] 2696 	jp	00522$
    000011AD                       2697 00523$:
    000011AD 0E 18            [ 7] 2698 	ld	c, #0x18
    000011AF AF               [ 4] 2699 	xor	a, a
    000011B0 C3rDBr11         [10] 2700 	jp	00522$
    000011B3                       2701 00521$:
    000011B3 DD 7E EC         [19] 2702 	ld	a, -20 (ix)
    000011B6 D6 D0            [ 7] 2703 	sub	a, #0xd0
    000011B8 30 13            [12] 2704 	jr	NC, 00525$
    000011BA DD 7E F6         [19] 2705 	ld	a, -10 (ix)
    000011BD C6 30            [ 7] 2706 	add	a, #0x30
    000011BF DD 77 FA         [19] 2707 	ld	-6 (ix), a
    000011C2 DD 7E F7         [19] 2708 	ld	a, -9 (ix)
    000011C5 CE 00            [ 7] 2709 	adc	a, #0x00
    000011C7 DD 77 FB         [19] 2710 	ld	-5 (ix), a
    000011CA C3rD5r11         [10] 2711 	jp	00526$
    000011CD                       2712 00525$:
    000011CD DD 36 FA E8      [19] 2713 	ld	-6 (ix), #0xe8
    000011D1 DD 36 FB 00      [19] 2714 	ld	-5 (ix), #0
    000011D5                       2715 00526$:
    000011D5 DD 4E FA         [19] 2716 	ld	c, -6 (ix)
    000011D8 DD 7E FB         [19] 2717 	ld	a, -5 (ix)
    000011DB                       2718 00522$:
    000011DB DD 71 FA         [19] 2719 	ld	-6 (ix), c
    000011DE DD 77 FB         [19] 2720 	ld	-5 (ix), a
    000011E1                       2721 00320$:
                                   2722 ;E:\Dropbox\FAUSTO\SVILUPPI\MSX\CODE\C\MSXgl\projects\soccerlgMSX2/soccerlg_s21_b3.c:301: if (d_bx + d_by <= 26 && Ball->anim == 0) {
    000011E1 DD CB ED 46      [20] 2723 	bit	0, -19 (ix)
    000011E5 C2rC7r17         [10] 2724 	jp	NZ, 00383$
    000011E8 2Ar55r01         [16] 2725 	ld	hl, (#(_SwSprite + 341) + 0)
    000011EB 7C               [ 4] 2726 	ld	a, h
    000011EC B5               [ 4] 2727 	or	a, l
    000011ED C2rC7r17         [10] 2728 	jp	NZ, 00383$
                                   2729 ;E:\Dropbox\FAUSTO\SVILUPPI\MSX\CODE\C\MSXgl\projects\soccerlgMSX2/soccerlg_s21_b3.c:302: bool action_taken = FALSE;
    000011F0 DD 36 EC 00      [19] 2730 	ld	-20 (ix), #0x00
                                   2731 ;E:\Dropbox\FAUSTO\SVILUPPI\MSX\CODE\C\MSXgl\projects\soccerlgMSX2/soccerlg_s21_b3.c:306: if (Player->ly > 258 && Field.ly == 320) {
    000011F4 3E 02            [ 7] 2732 	ld	a, #0x02
    000011F6 DD BE F8         [19] 2733 	cp	a, -8 (ix)
    000011F9 3E 01            [ 7] 2734 	ld	a, #0x01
    000011FB DD 9E F9         [19] 2735 	sbc	a, -7 (ix)
    000011FE D2r00r14         [10] 2736 	jp	NC, 00337$
    00001201 21r04r00         [10] 2737 	ld	hl, #(_Field + 4)
    00001204 7E               [ 7] 2738 	ld	a, (hl)
    00001205 DD 77 F4         [19] 2739 	ld	-12 (ix), a
    00001208 23               [ 6] 2740 	inc	hl
    00001209 7E               [ 7] 2741 	ld	a, (hl)
    0000120A DD 77 F5         [19] 2742 	ld	-11 (ix), a
    0000120D DD 7E F4         [19] 2743 	ld	a, -12 (ix)
    00001210 D6 40            [ 7] 2744 	sub	a, #0x40
    00001212 C2r00r14         [10] 2745 	jp	NZ,00337$
    00001215 DD 7E F5         [19] 2746 	ld	a, -11 (ix)
    00001218 3D               [ 4] 2747 	dec	a
    00001219 C2r00r14         [10] 2748 	jp	NZ,00337$
                                   2749 ;E:\Dropbox\FAUSTO\SVILUPPI\MSX\CODE\C\MSXgl\projects\soccerlgMSX2/soccerlg_s21_b3.c:307: u8 rand_shot = (Player->lx + Frms) % 100;
    0000121C 3Ar00r00         [13] 2750 	ld	a, (_Frms+0)
    0000121F 4F               [ 4] 2751 	ld	c, a
    00001220 06 00            [ 7] 2752 	ld	b, #0x00
    00001222 DD 6E F6         [19] 2753 	ld	l, -10 (ix)
    00001225 DD 66 F7         [19] 2754 	ld	h, -9 (ix)
    00001228 09               [11] 2755 	add	hl, bc
    00001229 11 64 00         [10] 2756 	ld	de, #0x0064
    0000122C CDr00r00         [17] 2757 	call	__modsint
    0000122F DD 73 F7         [19] 2758 	ld	-9 (ix), e
                                   2759 ;E:\Dropbox\FAUSTO\SVILUPPI\MSX\CODE\C\MSXgl\projects\soccerlgMSX2/soccerlg_s21_b3.c:308: u8 shot_prob = 0;
    00001232 DD 36 F6 00      [19] 2760 	ld	-10 (ix), #0x00
                                   2761 ;E:\Dropbox\FAUSTO\SVILUPPI\MSX\CODE\C\MSXgl\projects\soccerlgMSX2/soccerlg_s21_b3.c:309: if (Player->ly > 380) {
    00001236 3E 7C            [ 7] 2762 	ld	a, #0x7c
    00001238 DD BE F8         [19] 2763 	cp	a, -8 (ix)
    0000123B 3E 01            [ 7] 2764 	ld	a, #0x01
    0000123D DD 9E F9         [19] 2765 	sbc	a, -7 (ix)
    00001240 30 38            [12] 2766 	jr	NC, 00327$
                                   2767 ;E:\Dropbox\FAUSTO\SVILUPPI\MSX\CODE\C\MSXgl\projects\soccerlgMSX2/soccerlg_s21_b3.c:311: shot_prob = 50 + (g_ActiveStats[team].aggro_attack * 6); // 56-80%
    00001242 DD 4E E3         [19] 2768 	ld	c, -29 (ix)
    00001245 06 00            [ 7] 2769 	ld	b, #0x00
    00001247 69               [ 4] 2770 	ld	l, c
    00001248 60               [ 4] 2771 	ld	h, b
    00001249 29               [11] 2772 	add	hl, hl
    0000124A 09               [11] 2773 	add	hl, bc
    0000124B 29               [11] 2774 	add	hl, hl
    0000124C 09               [11] 2775 	add	hl, bc
    0000124D DD 75 F5         [19] 2776 	ld	-11 (ix), l
    00001250 DD 74 F6         [19] 2777 	ld	-10 (ix), h
    00001253 3Er00            [ 7] 2778 	ld	a, #<(_g_ActiveStats)
    00001255 DD 86 F5         [19] 2779 	add	a, -11 (ix)
    00001258 DD 77 F8         [19] 2780 	ld	-8 (ix), a
    0000125B 3Es00            [ 7] 2781 	ld	a, #>(_g_ActiveStats)
    0000125D DD 8E F6         [19] 2782 	adc	a, -10 (ix)
    00001260 DD 77 F9         [19] 2783 	ld	-7 (ix), a
    00001263 DD 6E F8         [19] 2784 	ld	l, -8 (ix)
    00001266 DD 66 F9         [19] 2785 	ld	h, -7 (ix)
    00001269 11 05 00         [10] 2786 	ld	de, #0x0005
    0000126C 19               [11] 2787 	add	hl, de
    0000126D 7E               [ 7] 2788 	ld	a, (hl)
    0000126E 4F               [ 4] 2789 	ld	c, a
    0000126F 87               [ 4] 2790 	add	a, a
    00001270 81               [ 4] 2791 	add	a, c
    00001271 87               [ 4] 2792 	add	a, a
    00001272 C6 32            [ 7] 2793 	add	a, #0x32
    00001274 DD 77 F6         [19] 2794 	ld	-10 (ix), a
    00001277 C3r01r13         [10] 2795 	jp	00328$
    0000127A                       2796 00327$:
                                   2797 ;E:\Dropbox\FAUSTO\SVILUPPI\MSX\CODE\C\MSXgl\projects\soccerlgMSX2/soccerlg_s21_b3.c:312: } else if (Player->ly > 300) {
    0000127A 3E 2C            [ 7] 2798 	ld	a, #0x2c
    0000127C DD BE F8         [19] 2799 	cp	a, -8 (ix)
    0000127F 3E 01            [ 7] 2800 	ld	a, #0x01
    00001281 DD 9E F9         [19] 2801 	sbc	a, -7 (ix)
    00001284 30 3B            [12] 2802 	jr	NC, 00324$
                                   2803 ;E:\Dropbox\FAUSTO\SVILUPPI\MSX\CODE\C\MSXgl\projects\soccerlgMSX2/soccerlg_s21_b3.c:314: shot_prob = 18 + (g_ActiveStats[team].aggro_attack * 5); // 23-43%
    00001286 DD 4E E3         [19] 2804 	ld	c, -29 (ix)
    00001289 06 00            [ 7] 2805 	ld	b, #0x00
    0000128B 69               [ 4] 2806 	ld	l, c
    0000128C 60               [ 4] 2807 	ld	h, b
    0000128D 29               [11] 2808 	add	hl, hl
    0000128E 09               [11] 2809 	add	hl, bc
    0000128F 29               [11] 2810 	add	hl, hl
    00001290 09               [11] 2811 	add	hl, bc
    00001291 DD 75 F5         [19] 2812 	ld	-11 (ix), l
    00001294 DD 74 F6         [19] 2813 	ld	-10 (ix), h
    00001297 3Er00            [ 7] 2814 	ld	a, #<(_g_ActiveStats)
    00001299 DD 86 F5         [19] 2815 	add	a, -11 (ix)
    0000129C DD 77 F8         [19] 2816 	ld	-8 (ix), a
    0000129F 3Es00            [ 7] 2817 	ld	a, #>(_g_ActiveStats)
    000012A1 DD 8E F6         [19] 2818 	adc	a, -10 (ix)
    000012A4 DD 77 F9         [19] 2819 	ld	-7 (ix), a
    000012A7 DD 6E F8         [19] 2820 	ld	l, -8 (ix)
    000012AA DD 66 F9         [19] 2821 	ld	h, -7 (ix)
    000012AD 11 05 00         [10] 2822 	ld	de, #0x0005
    000012B0 19               [11] 2823 	add	hl, de
    000012B1 7E               [ 7] 2824 	ld	a, (hl)
    000012B2 DD 77 F9         [19] 2825 	ld	-7 (ix), a
    000012B5 4F               [ 4] 2826 	ld	c, a
    000012B6 87               [ 4] 2827 	add	a, a
    000012B7 87               [ 4] 2828 	add	a, a
    000012B8 81               [ 4] 2829 	add	a, c
    000012B9 C6 12            [ 7] 2830 	add	a, #0x12
    000012BB DD 77 F6         [19] 2831 	ld	-10 (ix), a
    000012BE C3r01r13         [10] 2832 	jp	00328$
    000012C1                       2833 00324$:
                                   2834 ;E:\Dropbox\FAUSTO\SVILUPPI\MSX\CODE\C\MSXgl\projects\soccerlgMSX2/soccerlg_s21_b3.c:315: } else if (Player->ly > 260) {
    000012C1 3E 04            [ 7] 2835 	ld	a, #0x04
    000012C3 DD BE F8         [19] 2836 	cp	a, -8 (ix)
    000012C6 3E 01            [ 7] 2837 	ld	a, #0x01
    000012C8 DD 9E F9         [19] 2838 	sbc	a, -7 (ix)
    000012CB 30 34            [12] 2839 	jr	NC, 00328$
                                   2840 ;E:\Dropbox\FAUSTO\SVILUPPI\MSX\CODE\C\MSXgl\projects\soccerlgMSX2/soccerlg_s21_b3.c:317: shot_prob = 6 + (g_ActiveStats[team].aggro_attack * 3); // 9-21%
    000012CD DD 4E E3         [19] 2841 	ld	c, -29 (ix)
    000012D0 06 00            [ 7] 2842 	ld	b, #0x00
    000012D2 69               [ 4] 2843 	ld	l, c
    000012D3 60               [ 4] 2844 	ld	h, b
    000012D4 29               [11] 2845 	add	hl, hl
    000012D5 09               [11] 2846 	add	hl, bc
    000012D6 29               [11] 2847 	add	hl, hl
    000012D7 09               [11] 2848 	add	hl, bc
    000012D8 DD 75 F5         [19] 2849 	ld	-11 (ix), l
    000012DB DD 74 F6         [19] 2850 	ld	-10 (ix), h
    000012DE 3Er00            [ 7] 2851 	ld	a, #<(_g_ActiveStats)
    000012E0 DD 86 F5         [19] 2852 	add	a, -11 (ix)
    000012E3 DD 77 F8         [19] 2853 	ld	-8 (ix), a
    000012E6 3Es00            [ 7] 2854 	ld	a, #>(_g_ActiveStats)
    000012E8 DD 8E F6         [19] 2855 	adc	a, -10 (ix)
    000012EB DD 77 F9         [19] 2856 	ld	-7 (ix), a
    000012EE DD 6E F8         [19] 2857 	ld	l, -8 (ix)
    000012F1 DD 66 F9         [19] 2858 	ld	h, -7 (ix)
    000012F4 11 05 00         [10] 2859 	ld	de, #0x0005
    000012F7 19               [11] 2860 	add	hl, de
    000012F8 7E               [ 7] 2861 	ld	a, (hl)
    000012F9 4F               [ 4] 2862 	ld	c, a
    000012FA 87               [ 4] 2863 	add	a, a
    000012FB 81               [ 4] 2864 	add	a, c
    000012FC C6 06            [ 7] 2865 	add	a, #0x06
    000012FE DD 77 F6         [19] 2866 	ld	-10 (ix), a
    00001301                       2867 00328$:
                                   2868 ;E:\Dropbox\FAUSTO\SVILUPPI\MSX\CODE\C\MSXgl\projects\soccerlgMSX2/soccerlg_s21_b3.c:319: if (shot_prob > 0 && rand_shot < shot_prob) {
    00001301 DD 7E F6         [19] 2869 	ld	a, -10 (ix)
    00001304 B7               [ 4] 2870 	or	a, a
    00001305 CAr00r14         [10] 2871 	jp	Z, 00337$
    00001308 DD 7E F7         [19] 2872 	ld	a, -9 (ix)
    0000130B DD 96 F6         [19] 2873 	sub	a, -10 (ix)
    0000130E D2r00r14         [10] 2874 	jp	NC, 00337$
                                   2875 ;E:\Dropbox\FAUSTO\SVILUPPI\MSX\CODE\C\MSXgl\projects\soccerlgMSX2/soccerlg_s21_b3.c:320: action_taken = TRUE;
    00001311 DD 36 EC 01      [19] 2876 	ld	-20 (ix), #0x01
                                   2877 ;E:\Dropbox\FAUSTO\SVILUPPI\MSX\CODE\C\MSXgl\projects\soccerlgMSX2/soccerlg_s21_b3.c:321: Ball->anim = 0; Ball->count = 0;
    00001315 21 00 00         [10] 2878 	ld	hl, #0x0000
    00001318 22r55r01         [16] 2879 	ld	((_SwSprite + 341)), hl
    0000131B 22r57r01         [16] 2880 	ld	((_SwSprite + 343)), hl
                                   2881 ;E:\Dropbox\FAUSTO\SVILUPPI\MSX\CODE\C\MSXgl\projects\soccerlgMSX2/soccerlg_s21_b3.c:322: g_pass_receiver = 0xFF;
    0000131E 21r00r00         [10] 2882 	ld	hl, #_g_pass_receiver
    00001321 36 FF            [10] 2883 	ld	(hl), #0xff
                                   2884 ;E:\Dropbox\FAUSTO\SVILUPPI\MSX\CODE\C\MSXgl\projects\soccerlgMSX2/soccerlg_s21_b3.c:323: g_pass_start_x = Player->lx;
    00001323 DD 6E E1         [19] 2885 	ld	l, -31 (ix)
    00001326 DD 66 E2         [19] 2886 	ld	h, -30 (ix)
    00001329 7E               [ 7] 2887 	ld	a, (hl)
    0000132A 32r00r00         [13] 2888 	ld	(_g_pass_start_x+0), a
    0000132D 21r01r00         [10] 2889 	ld	hl, #_g_pass_start_x + 1
    00001330 36 00            [10] 2890 	ld	(hl), #0x00
                                   2891 ;E:\Dropbox\FAUSTO\SVILUPPI\MSX\CODE\C\MSXgl\projects\soccerlgMSX2/soccerlg_s21_b3.c:324: g_pass_start_y = Player->ly;
    00001332 DD 6E EA         [19] 2892 	ld	l, -22 (ix)
    00001335 DD 66 EB         [19] 2893 	ld	h, -21 (ix)
    00001338 7E               [ 7] 2894 	ld	a, (hl)
    00001339 23               [ 6] 2895 	inc	hl
    0000133A 32r00r00         [13] 2896 	ld	(_g_pass_start_y+0), a
    0000133D 7E               [ 7] 2897 	ld	a, (hl)
    0000133E 32r01r00         [13] 2898 	ld	(_g_pass_start_y+1), a
                                   2899 ;E:\Dropbox\FAUSTO\SVILUPPI\MSX\CODE\C\MSXgl\projects\soccerlgMSX2/soccerlg_s21_b3.c:325: g_pass_target_x = g_h_arrow_x; // Freccia non visibile ma oscilla come quella umana
    00001341 2Ar00r00         [16] 2900 	ld	hl, (_g_h_arrow_x)
    00001344 22r00r00         [16] 2901 	ld	(_g_pass_target_x), hl
                                   2902 ;E:\Dropbox\FAUSTO\SVILUPPI\MSX\CODE\C\MSXgl\projects\soccerlgMSX2/soccerlg_s21_b3.c:326: g_pass_target_y = 496; // Dentro la porta Sud
    00001347 21 F0 01         [10] 2903 	ld	hl, #0x01f0
    0000134A 22r00r00         [16] 2904 	ld	(_g_pass_target_y), hl
                                   2905 ;E:\Dropbox\FAUSTO\SVILUPPI\MSX\CODE\C\MSXgl\projects\soccerlgMSX2/soccerlg_s21_b3.c:328: u16 r_dx = (g_pass_target_x > g_pass_start_x) ? (g_pass_target_x - g_pass_start_x) : (g_pass_start_x - g_pass_target_x);
    0000134D 21r00r00         [10] 2906 	ld	hl, #_g_pass_start_x
    00001350 7E               [ 7] 2907 	ld	a, (hl)
    00001351 FD 21r00r00      [14] 2908 	ld	iy, #_g_pass_target_x
    00001355 FD 96 00         [19] 2909 	sub	a, 0 (iy)
    00001358 23               [ 6] 2910 	inc	hl
    00001359 7E               [ 7] 2911 	ld	a, (hl)
    0000135A FD 9E 01         [19] 2912 	sbc	a, 1 (iy)
    0000135D 30 11            [12] 2913 	jr	NC, 00527$
    0000135F 21r00r00         [10] 2914 	ld	hl, #_g_pass_start_x
    00001362 3Ar00r00         [13] 2915 	ld	a, (_g_pass_target_x+0)
    00001365 96               [ 7] 2916 	sub	a, (hl)
    00001366 23               [ 6] 2917 	inc	hl
    00001367 5F               [ 4] 2918 	ld	e, a
    00001368 3Ar01r00         [13] 2919 	ld	a, (_g_pass_target_x+1)
    0000136B 9E               [ 7] 2920 	sbc	a, (hl)
    0000136C 57               [ 4] 2921 	ld	d, a
    0000136D C3r7Er13         [10] 2922 	jp	00528$
    00001370                       2923 00527$:
    00001370 21r00r00         [10] 2924 	ld	hl, #_g_pass_target_x
    00001373 3Ar00r00         [13] 2925 	ld	a, (_g_pass_start_x+0)
    00001376 96               [ 7] 2926 	sub	a, (hl)
    00001377 23               [ 6] 2927 	inc	hl
    00001378 5F               [ 4] 2928 	ld	e, a
    00001379 3Ar01r00         [13] 2929 	ld	a, (_g_pass_start_x+1)
    0000137C 9E               [ 7] 2930 	sbc	a, (hl)
    0000137D 57               [ 4] 2931 	ld	d, a
    0000137E                       2932 00528$:
    0000137E DD 73 F6         [19] 2933 	ld	-10 (ix), e
    00001381 DD 72 F7         [19] 2934 	ld	-9 (ix), d
                                   2935 ;E:\Dropbox\FAUSTO\SVILUPPI\MSX\CODE\C\MSXgl\projects\soccerlgMSX2/soccerlg_s21_b3.c:329: u16 r_dy = (g_pass_target_y > g_pass_start_y) ? (g_pass_target_y - g_pass_start_y) : (g_pass_start_y - g_pass_target_y);
    00001384 21r00r00         [10] 2936 	ld	hl, #_g_pass_start_y
    00001387 7E               [ 7] 2937 	ld	a, (hl)
    00001388 23               [ 6] 2938 	inc	hl
    00001389 D6 F0            [ 7] 2939 	sub	a, #0xf0
    0000138B 7E               [ 7] 2940 	ld	a, (hl)
    0000138C DE 01            [ 7] 2941 	sbc	a, #0x01
    0000138E 30 13            [12] 2942 	jr	NC, 00529$
    00001390 21r00r00         [10] 2943 	ld	hl, #_g_pass_start_y
    00001393 3E F0            [ 7] 2944 	ld	a, #0xf0
    00001395 96               [ 7] 2945 	sub	a, (hl)
    00001396 DD 77 F8         [19] 2946 	ld	-8 (ix), a
    00001399 23               [ 6] 2947 	inc	hl
    0000139A 3E 01            [ 7] 2948 	ld	a, #0x01
    0000139C 9E               [ 7] 2949 	sbc	a, (hl)
    0000139D DD 77 F9         [19] 2950 	ld	-7 (ix), a
    000013A0 C3rB3r13         [10] 2951 	jp	00530$
    000013A3                       2952 00529$:
    000013A3 3Ar00r00         [13] 2953 	ld	a, (_g_pass_start_y+0)
    000013A6 C6 10            [ 7] 2954 	add	a, #0x10
    000013A8 DD 77 F8         [19] 2955 	ld	-8 (ix), a
    000013AB 3Ar01r00         [13] 2956 	ld	a, (_g_pass_start_y+1)
    000013AE CE FE            [ 7] 2957 	adc	a, #0xfe
    000013B0 DD 77 F9         [19] 2958 	ld	-7 (ix), a
    000013B3                       2959 00530$:
    000013B3 DD 4E F8         [19] 2960 	ld	c, -8 (ix)
    000013B6 DD 46 F9         [19] 2961 	ld	b, -7 (ix)
                                   2962 ;E:\Dropbox\FAUSTO\SVILUPPI\MSX\CODE\C\MSXgl\projects\soccerlgMSX2/soccerlg_s21_b3.c:331: g_pass_max_frames = (r_dx + r_dy) / 8; // Tiro potente
    000013B9 DD 6E F6         [19] 2963 	ld	l, -10 (ix)
    000013BC DD 66 F7         [19] 2964 	ld	h, -9 (ix)
    000013BF 09               [11] 2965 	add	hl, bc
    000013C0 CB 3C            [ 8] 2966 	srl	h
    000013C2 CB 1D            [ 8] 2967 	rr	l
    000013C4 CB 3C            [ 8] 2968 	srl	h
    000013C6 CB 1D            [ 8] 2969 	rr	l
    000013C8 CB 3C            [ 8] 2970 	srl	h
    000013CA CB 1D            [ 8] 2971 	rr	l
    000013CC FD 21r00r00      [14] 2972 	ld	iy, #_g_pass_max_frames
    000013D0 FD 75 00         [19] 2973 	ld	0 (iy), l
                                   2974 ;E:\Dropbox\FAUSTO\SVILUPPI\MSX\CODE\C\MSXgl\projects\soccerlgMSX2/soccerlg_s21_b3.c:332: if (g_pass_max_frames < 10) g_pass_max_frames = 10;
    000013D3 3Ar00r00         [13] 2975 	ld	a, (_g_pass_max_frames+0)
    000013D6 D6 0A            [ 7] 2976 	sub	a, #0x0a
    000013D8 30 04            [12] 2977 	jr	NC, 00330$
    000013DA FD 36 00 0A      [19] 2978 	ld	0 (iy), #0x0a
    000013DE                       2979 00330$:
                                   2980 ;E:\Dropbox\FAUSTO\SVILUPPI\MSX\CODE\C\MSXgl\projects\soccerlgMSX2/soccerlg_s21_b3.c:333: if (g_pass_max_frames > 25) g_pass_max_frames = 25;
    000013DE 3E 19            [ 7] 2981 	ld	a, #0x19
    000013E0 FD 21r00r00      [14] 2982 	ld	iy, #_g_pass_max_frames
    000013E4 FD 96 00         [19] 2983 	sub	a, 0 (iy)
    000013E7 30 04            [12] 2984 	jr	NC, 00332$
    000013E9 FD 36 00 19      [19] 2985 	ld	0 (iy), #0x19
    000013ED                       2986 00332$:
                                   2987 ;E:\Dropbox\FAUSTO\SVILUPPI\MSX\CODE\C\MSXgl\projects\soccerlgMSX2/soccerlg_s21_b3.c:334: g_pass_max_height = 2; // Tiro rasoterra e limitato
    000013ED 21r00r00         [10] 2988 	ld	hl, #_g_pass_max_height
    000013F0 36 02            [10] 2989 	ld	(hl), #0x02
                                   2990 ;E:\Dropbox\FAUSTO\SVILUPPI\MSX\CODE\C\MSXgl\projects\soccerlgMSX2/soccerlg_s21_b3.c:336: Ball->anim = 5;
    000013F2 21 05 00         [10] 2991 	ld	hl, #0x0005
    000013F5 22r55r01         [16] 2992 	ld	((_SwSprite + 341)), hl
                                   2993 ;E:\Dropbox\FAUSTO\SVILUPPI\MSX\CODE\C\MSXgl\projects\soccerlgMSX2/soccerlg_s21_b3.c:337: CallFnc_VOID(SEG_EVENTS, EventBallKicked);
    000013F8 11r00r00         [10] 2994 	ld	de, #_EventBallKicked
    000013FB 3E 08            [ 7] 2995 	ld	a, #0x08
    000013FD CDr00r00         [17] 2996 	call	_CallFnc_VOID
    00001400                       2997 00337$:
                                   2998 ;E:\Dropbox\FAUSTO\SVILUPPI\MSX\CODE\C\MSXgl\projects\soccerlgMSX2/soccerlg_s21_b3.c:342: if (!action_taken && Frms % 16 == 0) {
    00001400 DD 7E EC         [19] 2999 	ld	a, -20 (ix)
    00001403 B7               [ 4] 3000 	or	a, a
    00001404 C2rD4r16         [10] 3001 	jp	NZ, 00361$
    00001407 3Ar00r00         [13] 3002 	ld	a, (_Frms+0)
    0000140A 4F               [ 4] 3003 	ld	c, a
    0000140B 06 00            [ 7] 3004 	ld	b, #0x00
    0000140D 79               [ 4] 3005 	ld	a, c
    0000140E E6 0F            [ 7] 3006 	and	a, #0x0f
    00001410 C2rD4r16         [10] 3007 	jp	NZ,00361$
                                   3008 ;E:\Dropbox\FAUSTO\SVILUPPI\MSX\CODE\C\MSXgl\projects\soccerlgMSX2/soccerlg_s21_b3.c:343: u8 rand_pass = (Player->lx * 5 + Player->ly * 3 + Frms) % 100;
    00001413 DD 6E E1         [19] 3009 	ld	l, -31 (ix)
    00001416 DD 66 E2         [19] 3010 	ld	h, -30 (ix)
    00001419 5E               [ 7] 3011 	ld	e, (hl)
    0000141A 16 00            [ 7] 3012 	ld	d, #0x00
    0000141C 6B               [ 4] 3013 	ld	l, e
    0000141D 62               [ 4] 3014 	ld	h, d
    0000141E 29               [11] 3015 	add	hl, hl
    0000141F 29               [11] 3016 	add	hl, hl
    00001420 19               [11] 3017 	add	hl, de
    00001421 EB               [ 4] 3018 	ex	de, hl
    00001422 DD 6E EA         [19] 3019 	ld	l, -22 (ix)
    00001425 DD 66 EB         [19] 3020 	ld	h, -21 (ix)
    00001428 7E               [ 7] 3021 	ld	a, (hl)
    00001429 23               [ 6] 3022 	inc	hl
    0000142A 66               [ 7] 3023 	ld	h, (hl)
                                   3024 ;	spillPairReg hl
    0000142B 6F               [ 4] 3025 	ld	l, a
                                   3026 ;	spillPairReg hl
                                   3027 ;	spillPairReg hl
    0000142C D5               [11] 3028 	push	de
    0000142D 5D               [ 4] 3029 	ld	e, l
    0000142E 54               [ 4] 3030 	ld	d, h
    0000142F 29               [11] 3031 	add	hl, hl
    00001430 19               [11] 3032 	add	hl, de
    00001431 D1               [10] 3033 	pop	de
    00001432 19               [11] 3034 	add	hl, de
    00001433 09               [11] 3035 	add	hl, bc
    00001434 11 64 00         [10] 3036 	ld	de, #0x0064
    00001437 CDr00r00         [17] 3037 	call	__moduint
    0000143A DD 73 F9         [19] 3038 	ld	-7 (ix), e
                                   3039 ;E:\Dropbox\FAUSTO\SVILUPPI\MSX\CODE\C\MSXgl\projects\soccerlgMSX2/soccerlg_s21_b3.c:346: u8 pass_prob = 10 + (g_ActiveStats[team].pass_tendency * 10);
    0000143D 01r00r00         [10] 3040 	ld	bc, #_g_ActiveStats+0
    00001440 DD 5E E3         [19] 3041 	ld	e, -29 (ix)
    00001443 16 00            [ 7] 3042 	ld	d, #0x00
    00001445 6B               [ 4] 3043 	ld	l, e
    00001446 62               [ 4] 3044 	ld	h, d
    00001447 29               [11] 3045 	add	hl, hl
    00001448 19               [11] 3046 	add	hl, de
    00001449 29               [11] 3047 	add	hl, hl
    0000144A 19               [11] 3048 	add	hl, de
    0000144B 09               [11] 3049 	add	hl, bc
    0000144C 23               [ 6] 3050 	inc	hl
    0000144D 23               [ 6] 3051 	inc	hl
    0000144E 4E               [ 7] 3052 	ld	c, (hl)
    0000144F 79               [ 4] 3053 	ld	a, c
    00001450 87               [ 4] 3054 	add	a, a
    00001451 87               [ 4] 3055 	add	a, a
    00001452 81               [ 4] 3056 	add	a, c
    00001453 87               [ 4] 3057 	add	a, a
    00001454 C6 0A            [ 7] 3058 	add	a, #0x0a
    00001456 5F               [ 4] 3059 	ld	e, a
                                   3060 ;E:\Dropbox\FAUSTO\SVILUPPI\MSX\CODE\C\MSXgl\projects\soccerlgMSX2/soccerlg_s21_b3.c:349: if (under_pressure) {
    00001457 DD 7E FE         [19] 3061 	ld	a, -2 (ix)
    0000145A B7               [ 4] 3062 	or	a, a
    0000145B 28 08            [12] 3063 	jr	Z, 00340$
                                   3064 ;E:\Dropbox\FAUSTO\SVILUPPI\MSX\CODE\C\MSXgl\projects\soccerlgMSX2/soccerlg_s21_b3.c:350: pass_prob += 15 + (g_ActiveStats[team].pass_tendency * 5);
    0000145D 79               [ 4] 3065 	ld	a, c
    0000145E 87               [ 4] 3066 	add	a, a
    0000145F 87               [ 4] 3067 	add	a, a
    00001460 81               [ 4] 3068 	add	a, c
    00001461 C6 0F            [ 7] 3069 	add	a, #0x0f
    00001463 83               [ 4] 3070 	add	a, e
    00001464 5F               [ 4] 3071 	ld	e, a
    00001465                       3072 00340$:
                                   3073 ;E:\Dropbox\FAUSTO\SVILUPPI\MSX\CODE\C\MSXgl\projects\soccerlgMSX2/soccerlg_s21_b3.c:353: if (rand_pass < pass_prob) {
    00001465 DD 7E F9         [19] 3074 	ld	a, -7 (ix)
    00001468 93               [ 4] 3075 	sub	a, e
    00001469 D2rD4r16         [10] 3076 	jp	NC, 00361$
                                   3077 ;E:\Dropbox\FAUSTO\SVILUPPI\MSX\CODE\C\MSXgl\projects\soccerlgMSX2/soccerlg_s21_b3.c:356: i8 pass_dx = (ai_last_dx[i] > 0) ? 1 : ((ai_last_dx[i] < 0) ? -1 : 0);
    0000146C 01r00r00         [10] 3078 	ld	bc, #_ai_last_dx+0
    0000146F DD 6E FF         [19] 3079 	ld	l, -1 (ix)
    00001472 26 00            [ 7] 3080 	ld	h, #0x00
    00001474 09               [11] 3081 	add	hl, bc
    00001475 4E               [ 7] 3082 	ld	c, (hl)
    00001476 AF               [ 4] 3083 	xor	a, a
    00001477 91               [ 4] 3084 	sub	a, c
    00001478 E2r7Dr14         [10] 3085 	jp	PO, 01852$
    0000147B EE 80            [ 7] 3086 	xor	a, #0x80
    0000147D                       3087 01852$:
    0000147D F2r86r14         [10] 3088 	jp	P, 00531$
    00001480 11 01 00         [10] 3089 	ld	de, #0x0001
    00001483 C3r93r14         [10] 3090 	jp	00532$
    00001486                       3091 00531$:
    00001486 CB 79            [ 8] 3092 	bit	7, c
    00001488 28 06            [12] 3093 	jr	Z, 00533$
    0000148A 11 FF FF         [10] 3094 	ld	de, #0xffff
    0000148D C3r93r14         [10] 3095 	jp	00534$
    00001490                       3096 00533$:
    00001490 11 00 00         [10] 3097 	ld	de, #0x0000
    00001493                       3098 00534$:
    00001493                       3099 00532$:
    00001493 7B               [ 4] 3100 	ld	a, e
                                   3101 ;E:\Dropbox\FAUSTO\SVILUPPI\MSX\CODE\C\MSXgl\projects\soccerlgMSX2/soccerlg_s21_b3.c:358: u8 receiver = (u8)CallFnc_U16_P4B(SEG_HELPERS, FindReceiver, i, 0xFF, pass_dx, pass_dy);
    00001494 26 01            [ 7] 3102 	ld	h, #0x01
                                   3103 ;	spillPairReg hl
                                   3104 ;	spillPairReg hl
    00001496 E5               [11] 3105 	push	hl
    00001497 33               [ 6] 3106 	inc	sp
    00001498 67               [ 4] 3107 	ld	h, a
    00001499 2E FF            [ 7] 3108 	ld	l, #0xff
    0000149B E5               [11] 3109 	push	hl
    0000149C DD 7E FF         [19] 3110 	ld	a, -1 (ix)
    0000149F F5               [11] 3111 	push	af
    000014A0 33               [ 6] 3112 	inc	sp
    000014A1 11r00r00         [10] 3113 	ld	de, #_FindReceiver
    000014A4 3E 14            [ 7] 3114 	ld	a, #0x14
    000014A6 CDr00r00         [17] 3115 	call	_CallFnc_U16_P4B
                                   3116 ;E:\Dropbox\FAUSTO\SVILUPPI\MSX\CODE\C\MSXgl\projects\soccerlgMSX2/soccerlg_s21_b3.c:359: if (receiver != 0xFF) {
    000014A9 DD 73 F7         [19] 3117 	ld	-9 (ix), e
    000014AC 7B               [ 4] 3118 	ld	a, e
    000014AD 3C               [ 4] 3119 	inc	a
    000014AE CArD4r16         [10] 3120 	jp	Z,00361$
                                   3121 ;E:\Dropbox\FAUSTO\SVILUPPI\MSX\CODE\C\MSXgl\projects\soccerlgMSX2/soccerlg_s21_b3.c:361: if (SwSprite[receiver].ly > Player->ly - 16) {
    000014B1 DD 4E F7         [19] 3122 	ld	c, -9 (ix)
    000014B4 06 00            [ 7] 3123 	ld	b, #0x00
    000014B6 69               [ 4] 3124 	ld	l, c
    000014B7 60               [ 4] 3125 	ld	h, b
    000014B8 29               [11] 3126 	add	hl, hl
    000014B9 29               [11] 3127 	add	hl, hl
    000014BA 09               [11] 3128 	add	hl, bc
    000014BB 29               [11] 3129 	add	hl, hl
    000014BC 09               [11] 3130 	add	hl, bc
    000014BD 29               [11] 3131 	add	hl, hl
    000014BE 09               [11] 3132 	add	hl, bc
    000014BF EB               [ 4] 3133 	ex	de, hl
    000014C0 21r00r00         [10] 3134 	ld	hl, #_SwSprite
    000014C3 19               [11] 3135 	add	hl, de
    000014C4 DD 75 E8         [19] 3136 	ld	-24 (ix), l
    000014C7 DD 74 E9         [19] 3137 	ld	-23 (ix), h
    000014CA DD 7E E8         [19] 3138 	ld	a, -24 (ix)
    000014CD C6 04            [ 7] 3139 	add	a, #0x04
    000014CF DD 77 ED         [19] 3140 	ld	-19 (ix), a
    000014D2 DD 7E E9         [19] 3141 	ld	a, -23 (ix)
    000014D5 CE 00            [ 7] 3142 	adc	a, #0x00
    000014D7 DD 77 EE         [19] 3143 	ld	-18 (ix), a
    000014DA DD 6E ED         [19] 3144 	ld	l, -19 (ix)
    000014DD DD 66 EE         [19] 3145 	ld	h, -18 (ix)
    000014E0 7E               [ 7] 3146 	ld	a, (hl)
    000014E1 DD 77 E6         [19] 3147 	ld	-26 (ix), a
    000014E4 23               [ 6] 3148 	inc	hl
    000014E5 7E               [ 7] 3149 	ld	a, (hl)
    000014E6 DD 77 E7         [19] 3150 	ld	-25 (ix), a
    000014E9 DD 6E EA         [19] 3151 	ld	l, -22 (ix)
    000014EC DD 66 EB         [19] 3152 	ld	h, -21 (ix)
    000014EF 7E               [ 7] 3153 	ld	a, (hl)
    000014F0 DD 77 EF         [19] 3154 	ld	-17 (ix), a
    000014F3 23               [ 6] 3155 	inc	hl
    000014F4 7E               [ 7] 3156 	ld	a, (hl)
    000014F5 DD 77 F0         [19] 3157 	ld	-16 (ix), a
    000014F8 DD 7E EF         [19] 3158 	ld	a, -17 (ix)
    000014FB DD 77 F5         [19] 3159 	ld	-11 (ix), a
    000014FE DD 7E F0         [19] 3160 	ld	a, -16 (ix)
    00001501 DD 77 F6         [19] 3161 	ld	-10 (ix), a
    00001504 DD 7E F5         [19] 3162 	ld	a, -11 (ix)
    00001507 C6 F0            [ 7] 3163 	add	a, #0xf0
    00001509 DD 77 F8         [19] 3164 	ld	-8 (ix), a
    0000150C DD 7E F6         [19] 3165 	ld	a, -10 (ix)
    0000150F CE FF            [ 7] 3166 	adc	a, #0xff
    00001511 DD 77 F9         [19] 3167 	ld	-7 (ix), a
    00001514 DD 7E E6         [19] 3168 	ld	a, -26 (ix)
    00001517 DD 77 F1         [19] 3169 	ld	-15 (ix), a
    0000151A DD 7E E7         [19] 3170 	ld	a, -25 (ix)
    0000151D DD 77 F2         [19] 3171 	ld	-14 (ix), a
    00001520 DD 7E F8         [19] 3172 	ld	a, -8 (ix)
    00001523 DD 96 F1         [19] 3173 	sub	a, -15 (ix)
    00001526 DD 7E F9         [19] 3174 	ld	a, -7 (ix)
    00001529 DD 9E F2         [19] 3175 	sbc	a, -14 (ix)
    0000152C D2rD4r16         [10] 3176 	jp	NC, 00361$
                                   3177 ;E:\Dropbox\FAUSTO\SVILUPPI\MSX\CODE\C\MSXgl\projects\soccerlgMSX2/soccerlg_s21_b3.c:362: u16 r_dx = (SwSprite[receiver].lx > Player->lx) ? (SwSprite[receiver].lx - Player->lx) : (Player->lx - SwSprite[receiver].lx);
    0000152F DD 6E E8         [19] 3178 	ld	l, -24 (ix)
    00001532 DD 66 E9         [19] 3179 	ld	h, -23 (ix)
    00001535 7E               [ 7] 3180 	ld	a, (hl)
    00001536 DD 77 F4         [19] 3181 	ld	-12 (ix), a
    00001539 DD 6E E1         [19] 3182 	ld	l, -31 (ix)
    0000153C DD 66 E2         [19] 3183 	ld	h, -30 (ix)
    0000153F 7E               [ 7] 3184 	ld	a, (hl)
    00001540 DD 77 FE         [19] 3185 	ld	-2 (ix), a
    00001543 DD 7E F4         [19] 3186 	ld	a, -12 (ix)
    00001546 DD 77 F5         [19] 3187 	ld	-11 (ix), a
    00001549 DD 36 F6 00      [19] 3188 	ld	-10 (ix), #0x00
    0000154D DD 7E FE         [19] 3189 	ld	a, -2 (ix)
    00001550 DD 77 F8         [19] 3190 	ld	-8 (ix), a
    00001553 DD 36 F9 00      [19] 3191 	ld	-7 (ix), #0x00
    00001557 DD 7E FE         [19] 3192 	ld	a, -2 (ix)
    0000155A DD 96 F4         [19] 3193 	sub	a, -12 (ix)
    0000155D 30 15            [12] 3194 	jr	NC, 00535$
    0000155F DD 7E F5         [19] 3195 	ld	a, -11 (ix)
    00001562 DD 96 F8         [19] 3196 	sub	a, -8 (ix)
    00001565 DD 77 F3         [19] 3197 	ld	-13 (ix), a
    00001568 DD 7E F6         [19] 3198 	ld	a, -10 (ix)
    0000156B DD 9E F9         [19] 3199 	sbc	a, -7 (ix)
    0000156E DD 77 F4         [19] 3200 	ld	-12 (ix), a
    00001571 C3r86r15         [10] 3201 	jp	00536$
    00001574                       3202 00535$:
    00001574 DD 7E F8         [19] 3203 	ld	a, -8 (ix)
    00001577 DD 96 F5         [19] 3204 	sub	a, -11 (ix)
    0000157A DD 77 F3         [19] 3205 	ld	-13 (ix), a
    0000157D DD 7E F9         [19] 3206 	ld	a, -7 (ix)
    00001580 DD 9E F6         [19] 3207 	sbc	a, -10 (ix)
    00001583 DD 77 F4         [19] 3208 	ld	-12 (ix), a
    00001586                       3209 00536$:
    00001586 DD 4E F3         [19] 3210 	ld	c, -13 (ix)
    00001589 DD 46 F4         [19] 3211 	ld	b, -12 (ix)
                                   3212 ;E:\Dropbox\FAUSTO\SVILUPPI\MSX\CODE\C\MSXgl\projects\soccerlgMSX2/soccerlg_s21_b3.c:363: u16 r_dy = (SwSprite[receiver].ly > Player->ly) ? (SwSprite[receiver].ly - Player->ly) : (Player->ly - SwSprite[receiver].ly);
    0000158C DD 7E EF         [19] 3213 	ld	a, -17 (ix)
    0000158F DD 96 E6         [19] 3214 	sub	a, -26 (ix)
    00001592 DD 7E F0         [19] 3215 	ld	a, -16 (ix)
    00001595 DD 9E E7         [19] 3216 	sbc	a, -25 (ix)
    00001598 30 10            [12] 3217 	jr	NC, 00537$
    0000159A DD 7E E6         [19] 3218 	ld	a, -26 (ix)
    0000159D DD 96 EF         [19] 3219 	sub	a, -17 (ix)
    000015A0 5F               [ 4] 3220 	ld	e, a
    000015A1 DD 7E E7         [19] 3221 	ld	a, -25 (ix)
    000015A4 DD 9E F0         [19] 3222 	sbc	a, -16 (ix)
    000015A7 C3rB7r15         [10] 3223 	jp	00538$
    000015AA                       3224 00537$:
    000015AA DD 7E EF         [19] 3225 	ld	a, -17 (ix)
    000015AD DD 96 E6         [19] 3226 	sub	a, -26 (ix)
    000015B0 5F               [ 4] 3227 	ld	e, a
    000015B1 DD 7E F0         [19] 3228 	ld	a, -16 (ix)
    000015B4 DD 9E E7         [19] 3229 	sbc	a, -25 (ix)
    000015B7                       3230 00538$:
    000015B7 6B               [ 4] 3231 	ld	l, e
                                   3232 ;	spillPairReg hl
                                   3233 ;	spillPairReg hl
    000015B8 67               [ 4] 3234 	ld	h, a
                                   3235 ;	spillPairReg hl
                                   3236 ;	spillPairReg hl
                                   3237 ;E:\Dropbox\FAUSTO\SVILUPPI\MSX\CODE\C\MSXgl\projects\soccerlgMSX2/soccerlg_s21_b3.c:365: if (r_dx + r_dy >= 48) {
    000015B9 09               [11] 3238 	add	hl, bc
    000015BA DD 75 F3         [19] 3239 	ld	-13 (ix), l
    000015BD DD 74 F4         [19] 3240 	ld	-12 (ix), h
    000015C0 DD 7E F3         [19] 3241 	ld	a, -13 (ix)
    000015C3 D6 30            [ 7] 3242 	sub	a, #0x30
    000015C5 DD 7E F4         [19] 3243 	ld	a, -12 (ix)
    000015C8 DE 00            [ 7] 3244 	sbc	a, #0x00
    000015CA DArD4r16         [10] 3245 	jp	C, 00361$
                                   3246 ;E:\Dropbox\FAUSTO\SVILUPPI\MSX\CODE\C\MSXgl\projects\soccerlgMSX2/soccerlg_s21_b3.c:366: action_taken = TRUE;
    000015CD DD 36 EC 01      [19] 3247 	ld	-20 (ix), #0x01
                                   3248 ;E:\Dropbox\FAUSTO\SVILUPPI\MSX\CODE\C\MSXgl\projects\soccerlgMSX2/soccerlg_s21_b3.c:369: bool is_offside = FALSE;
    000015D1 DD 36 FE 00      [19] 3249 	ld	-2 (ix), #0x00
                                   3250 ;E:\Dropbox\FAUSTO\SVILUPPI\MSX\CODE\C\MSXgl\projects\soccerlgMSX2/soccerlg_s21_b3.c:370: if (team == TEAM_1) {
    000015D5 DD 7E E3         [19] 3251 	ld	a, -29 (ix)
    000015D8 B7               [ 4] 3252 	or	a, a
    000015D9 20 65            [12] 3253 	jr	NZ, 00347$
                                   3254 ;E:\Dropbox\FAUSTO\SVILUPPI\MSX\CODE\C\MSXgl\projects\soccerlgMSX2/soccerlg_s21_b3.c:371: u16 offside_line = (SwSprite[8].ly > SwSprite[9].ly) ? SwSprite[8].ly : SwSprite[9].ly;
    000015DB 21rBCr00         [10] 3255 	ld	hl, #_SwSprite + 188
    000015DE 7E               [ 7] 3256 	ld	a, (hl)
    000015DF DD 77 F5         [19] 3257 	ld	-11 (ix), a
    000015E2 23               [ 6] 3258 	inc	hl
    000015E3 7E               [ 7] 3259 	ld	a, (hl)
    000015E4 DD 77 F6         [19] 3260 	ld	-10 (ix), a
    000015E7 21rD3r00         [10] 3261 	ld	hl, #_SwSprite + 211
    000015EA 7E               [ 7] 3262 	ld	a, (hl)
    000015EB DD 77 F8         [19] 3263 	ld	-8 (ix), a
    000015EE 23               [ 6] 3264 	inc	hl
    000015EF 7E               [ 7] 3265 	ld	a, (hl)
    000015F0 DD 77 F9         [19] 3266 	ld	-7 (ix), a
    000015F3 DD 7E F8         [19] 3267 	ld	a, -8 (ix)
    000015F6 DD 96 F5         [19] 3268 	sub	a, -11 (ix)
    000015F9 DD 7E F9         [19] 3269 	ld	a, -7 (ix)
    000015FC DD 9E F6         [19] 3270 	sbc	a, -10 (ix)
    000015FF 30 0C            [12] 3271 	jr	NC, 00539$
    00001601 DD 7E F5         [19] 3272 	ld	a, -11 (ix)
    00001604 DD 77 F8         [19] 3273 	ld	-8 (ix), a
    00001607 DD 7E F6         [19] 3274 	ld	a, -10 (ix)
    0000160A DD 77 F9         [19] 3275 	ld	-7 (ix), a
    0000160D                       3276 00539$:
    0000160D DD 4E F8         [19] 3277 	ld	c, -8 (ix)
    00001610 DD 46 F9         [19] 3278 	ld	b, -7 (ix)
                                   3279 ;E:\Dropbox\FAUSTO\SVILUPPI\MSX\CODE\C\MSXgl\projects\soccerlgMSX2/soccerlg_s21_b3.c:372: if (Player->ly > offside_line) offside_line = Player->ly;
    00001613 79               [ 4] 3280 	ld	a, c
    00001614 DD 96 EF         [19] 3281 	sub	a, -17 (ix)
    00001617 78               [ 4] 3282 	ld	a, b
    00001618 DD 9E F0         [19] 3283 	sbc	a, -16 (ix)
    0000161B 30 06            [12] 3284 	jr	NC, 00342$
    0000161D DD 4E EF         [19] 3285 	ld	c, -17 (ix)
    00001620 DD 46 F0         [19] 3286 	ld	b, -16 (ix)
    00001623                       3287 00342$:
                                   3288 ;E:\Dropbox\FAUSTO\SVILUPPI\MSX\CODE\C\MSXgl\projects\soccerlgMSX2/soccerlg_s21_b3.c:373: if (SwSprite[receiver].ly > offside_line + 8 && SwSprite[receiver].ly > 256) is_offside = TRUE;
    00001623 21 08 00         [10] 3289 	ld	hl, #0x0008
    00001626 09               [11] 3290 	add	hl, bc
    00001627 7D               [ 4] 3291 	ld	a, l
    00001628 DD 96 F1         [19] 3292 	sub	a, -15 (ix)
    0000162B 7C               [ 4] 3293 	ld	a, h
    0000162C DD 9E F2         [19] 3294 	sbc	a, -14 (ix)
    0000162F 30 0F            [12] 3295 	jr	NC, 00347$
    00001631 AF               [ 4] 3296 	xor	a, a
    00001632 DD BE F1         [19] 3297 	cp	a, -15 (ix)
    00001635 3E 01            [ 7] 3298 	ld	a, #0x01
    00001637 DD 9E F2         [19] 3299 	sbc	a, -14 (ix)
    0000163A 30 04            [12] 3300 	jr	NC, 00347$
    0000163C DD 36 FE 01      [19] 3301 	ld	-2 (ix), #0x01
    00001640                       3302 00347$:
                                   3303 ;E:\Dropbox\FAUSTO\SVILUPPI\MSX\CODE\C\MSXgl\projects\soccerlgMSX2/soccerlg_s21_b3.c:376: Ball->anim = 0; Ball->count = 0;
    00001640 21 00 00         [10] 3304 	ld	hl, #0x0000
    00001643 22r55r01         [16] 3305 	ld	((_SwSprite + 341)), hl
    00001646 22r57r01         [16] 3306 	ld	((_SwSprite + 343)), hl
                                   3307 ;E:\Dropbox\FAUSTO\SVILUPPI\MSX\CODE\C\MSXgl\projects\soccerlgMSX2/soccerlg_s21_b3.c:377: g_pass_receiver = receiver | (is_offside ? 0x80 : 0);
    00001649 DD 7E FE         [19] 3308 	ld	a, -2 (ix)
    0000164C B7               [ 4] 3309 	or	a, a
    0000164D 3E 80            [ 7] 3310 	ld	a, #0x80
    0000164F 20 01            [12] 3311 	jr	NZ, 00542$
    00001651 AF               [ 4] 3312 	xor	a, a
    00001652                       3313 00542$:
    00001652 DD B6 F7         [19] 3314 	or	a, -9 (ix)
    00001655 32r00r00         [13] 3315 	ld	(_g_pass_receiver+0), a
                                   3316 ;E:\Dropbox\FAUSTO\SVILUPPI\MSX\CODE\C\MSXgl\projects\soccerlgMSX2/soccerlg_s21_b3.c:378: g_pass_start_x = Player->lx;
    00001658 DD 6E E1         [19] 3317 	ld	l, -31 (ix)
    0000165B DD 66 E2         [19] 3318 	ld	h, -30 (ix)
    0000165E 7E               [ 7] 3319 	ld	a, (hl)
    0000165F 32r00r00         [13] 3320 	ld	(_g_pass_start_x+0), a
    00001662 21r01r00         [10] 3321 	ld	hl, #_g_pass_start_x + 1
    00001665 36 00            [10] 3322 	ld	(hl), #0x00
                                   3323 ;E:\Dropbox\FAUSTO\SVILUPPI\MSX\CODE\C\MSXgl\projects\soccerlgMSX2/soccerlg_s21_b3.c:379: g_pass_start_y = Player->ly;
    00001667 DD 6E EA         [19] 3324 	ld	l, -22 (ix)
    0000166A DD 66 EB         [19] 3325 	ld	h, -21 (ix)
    0000166D 7E               [ 7] 3326 	ld	a, (hl)
    0000166E 23               [ 6] 3327 	inc	hl
    0000166F 32r00r00         [13] 3328 	ld	(_g_pass_start_y+0), a
    00001672 7E               [ 7] 3329 	ld	a, (hl)
    00001673 32r01r00         [13] 3330 	ld	(_g_pass_start_y+1), a
                                   3331 ;E:\Dropbox\FAUSTO\SVILUPPI\MSX\CODE\C\MSXgl\projects\soccerlgMSX2/soccerlg_s21_b3.c:380: g_pass_target_x = SwSprite[receiver].lx;
    00001676 DD 6E E8         [19] 3332 	ld	l, -24 (ix)
    00001679 DD 66 E9         [19] 3333 	ld	h, -23 (ix)
    0000167C 7E               [ 7] 3334 	ld	a, (hl)
    0000167D 32r00r00         [13] 3335 	ld	(_g_pass_target_x+0), a
    00001680 21r01r00         [10] 3336 	ld	hl, #_g_pass_target_x + 1
    00001683 36 00            [10] 3337 	ld	(hl), #0x00
                                   3338 ;E:\Dropbox\FAUSTO\SVILUPPI\MSX\CODE\C\MSXgl\projects\soccerlgMSX2/soccerlg_s21_b3.c:381: g_pass_target_y = SwSprite[receiver].ly;
    00001685 DD 6E ED         [19] 3339 	ld	l, -19 (ix)
    00001688 DD 66 EE         [19] 3340 	ld	h, -18 (ix)
    0000168B 7E               [ 7] 3341 	ld	a, (hl)
    0000168C 23               [ 6] 3342 	inc	hl
    0000168D 32r00r00         [13] 3343 	ld	(_g_pass_target_y+0), a
    00001690 7E               [ 7] 3344 	ld	a, (hl)
    00001691 32r01r00         [13] 3345 	ld	(_g_pass_target_y+1), a
                                   3346 ;E:\Dropbox\FAUSTO\SVILUPPI\MSX\CODE\C\MSXgl\projects\soccerlgMSX2/soccerlg_s21_b3.c:382: g_pass_max_frames = (r_dx + r_dy) / 5;
    00001694 11 05 00         [10] 3347 	ld	de, #0x0005
    00001697 DD 6E F3         [19] 3348 	ld	l, -13 (ix)
                                   3349 ;	spillPairReg hl
                                   3350 ;	spillPairReg hl
    0000169A DD 66 F4         [19] 3351 	ld	h, -12 (ix)
                                   3352 ;	spillPairReg hl
                                   3353 ;	spillPairReg hl
    0000169D CDr00r00         [17] 3354 	call	__divuint
    000016A0 FD 21r00r00      [14] 3355 	ld	iy, #_g_pass_max_frames
    000016A4 FD 73 00         [19] 3356 	ld	0 (iy), e
                                   3357 ;E:\Dropbox\FAUSTO\SVILUPPI\MSX\CODE\C\MSXgl\projects\soccerlgMSX2/soccerlg_s21_b3.c:383: if (g_pass_max_frames < 8) g_pass_max_frames = 8;
    000016A7 3Ar00r00         [13] 3358 	ld	a, (_g_pass_max_frames+0)
    000016AA D6 08            [ 7] 3359 	sub	a, #0x08
    000016AC 30 04            [12] 3360 	jr	NC, 00349$
    000016AE FD 36 00 08      [19] 3361 	ld	0 (iy), #0x08
    000016B2                       3362 00349$:
                                   3363 ;E:\Dropbox\FAUSTO\SVILUPPI\MSX\CODE\C\MSXgl\projects\soccerlgMSX2/soccerlg_s21_b3.c:384: if (g_pass_max_frames > 34) g_pass_max_frames = 34;
    000016B2 3E 22            [ 7] 3364 	ld	a, #0x22
    000016B4 FD 21r00r00      [14] 3365 	ld	iy, #_g_pass_max_frames
    000016B8 FD 96 00         [19] 3366 	sub	a, 0 (iy)
    000016BB 30 04            [12] 3367 	jr	NC, 00351$
    000016BD FD 36 00 22      [19] 3368 	ld	0 (iy), #0x22
    000016C1                       3369 00351$:
                                   3370 ;E:\Dropbox\FAUSTO\SVILUPPI\MSX\CODE\C\MSXgl\projects\soccerlgMSX2/soccerlg_s21_b3.c:385: g_pass_max_height = 7;
    000016C1 21r00r00         [10] 3371 	ld	hl, #_g_pass_max_height
    000016C4 36 07            [10] 3372 	ld	(hl), #0x07
                                   3373 ;E:\Dropbox\FAUSTO\SVILUPPI\MSX\CODE\C\MSXgl\projects\soccerlgMSX2/soccerlg_s21_b3.c:387: Ball->anim = 5;
    000016C6 21 05 00         [10] 3374 	ld	hl, #0x0005
    000016C9 22r55r01         [16] 3375 	ld	((_SwSprite + 341)), hl
                                   3376 ;E:\Dropbox\FAUSTO\SVILUPPI\MSX\CODE\C\MSXgl\projects\soccerlgMSX2/soccerlg_s21_b3.c:388: CallFnc_VOID(SEG_EVENTS, EventBallKicked);
    000016CC 11r00r00         [10] 3377 	ld	de, #_EventBallKicked
    000016CF 3E 08            [ 7] 3378 	ld	a, #0x08
    000016D1 CDr00r00         [17] 3379 	call	_CallFnc_VOID
    000016D4                       3380 00361$:
                                   3381 ;E:\Dropbox\FAUSTO\SVILUPPI\MSX\CODE\C\MSXgl\projects\soccerlgMSX2/soccerlg_s21_b3.c:396: if (!action_taken) {
    000016D4 DD 7E EC         [19] 3382 	ld	a, -20 (ix)
    000016D7 B7               [ 4] 3383 	or	a, a
    000016D8 C2rC7r17         [10] 3384 	jp	NZ, 00383$
                                   3385 ;E:\Dropbox\FAUSTO\SVILUPPI\MSX\CODE\C\MSXgl\projects\soccerlgMSX2/soccerlg_s21_b3.c:397: i8 move_dx = (Player->dx > 0) ? 1 : ((Player->dx < 0) ? -1 : 0);
    000016DB DD 4E E1         [19] 3386 	ld	c, -31 (ix)
    000016DE DD 46 E2         [19] 3387 	ld	b, -30 (ix)
    000016E1 21 11 00         [10] 3388 	ld	hl, #17
    000016E4 09               [11] 3389 	add	hl, bc
    000016E5 4E               [ 7] 3390 	ld	c, (hl)
    000016E6 AF               [ 4] 3391 	xor	a, a
    000016E7 91               [ 4] 3392 	sub	a, c
    000016E8 E2rEDr16         [10] 3393 	jp	PO, 01854$
    000016EB EE 80            [ 7] 3394 	xor	a, #0x80
    000016ED                       3395 01854$:
    000016ED F2rF6r16         [10] 3396 	jp	P, 00543$
    000016F0 11 01 00         [10] 3397 	ld	de, #0x0001
    000016F3 C3r03r17         [10] 3398 	jp	00544$
    000016F6                       3399 00543$:
    000016F6 CB 79            [ 8] 3400 	bit	7, c
    000016F8 28 06            [12] 3401 	jr	Z, 00545$
    000016FA 11 FF FF         [10] 3402 	ld	de, #0xffff
    000016FD C3r03r17         [10] 3403 	jp	00546$
    00001700                       3404 00545$:
    00001700 11 00 00         [10] 3405 	ld	de, #0x0000
    00001703                       3406 00546$:
    00001703                       3407 00544$:
                                   3408 ;E:\Dropbox\FAUSTO\SVILUPPI\MSX\CODE\C\MSXgl\projects\soccerlgMSX2/soccerlg_s21_b3.c:400: if (Player->ly > 450) {
    00001703 DD 6E EA         [19] 3409 	ld	l, -22 (ix)
    00001706 DD 66 EB         [19] 3410 	ld	h, -21 (ix)
    00001709 4E               [ 7] 3411 	ld	c, (hl)
    0000170A 23               [ 6] 3412 	inc	hl
    0000170B 46               [ 7] 3413 	ld	b, (hl)
                                   3414 ;E:\Dropbox\FAUSTO\SVILUPPI\MSX\CODE\C\MSXgl\projects\soccerlgMSX2/soccerlg_s21_b3.c:401: Ball->dx = 0; Ball->dy = 0;
                                   3415 ;E:\Dropbox\FAUSTO\SVILUPPI\MSX\CODE\C\MSXgl\projects\soccerlgMSX2/soccerlg_s21_b3.c:400: if (Player->ly > 450) {
    0000170C 3E C2            [ 7] 3416 	ld	a, #0xc2
    0000170E B9               [ 4] 3417 	cp	a, c
    0000170F 3E 01            [ 7] 3418 	ld	a, #0x01
    00001711 98               [ 4] 3419 	sbc	a, b
    00001712 30 13            [12] 3420 	jr	NC, 00372$
                                   3421 ;E:\Dropbox\FAUSTO\SVILUPPI\MSX\CODE\C\MSXgl\projects\soccerlgMSX2/soccerlg_s21_b3.c:401: Ball->dx = 0; Ball->dy = 0;
    00001714 21r53r01         [10] 3422 	ld	hl, #(_SwSprite + 339)
    00001717 36 00            [10] 3423 	ld	(hl), #0x00
    00001719 21r54r01         [10] 3424 	ld	hl, #(_SwSprite + 340)
    0000171C 36 00            [10] 3425 	ld	(hl), #0x00
                                   3426 ;E:\Dropbox\FAUSTO\SVILUPPI\MSX\CODE\C\MSXgl\projects\soccerlgMSX2/soccerlg_s21_b3.c:402: Ball->anim = 0;
    0000171E 21 00 00         [10] 3427 	ld	hl, #0x0000
    00001721 22r55r01         [16] 3428 	ld	((_SwSprite + 341)), hl
    00001724 C3rC7r17         [10] 3429 	jp	00383$
    00001727                       3430 00372$:
                                   3431 ;E:\Dropbox\FAUSTO\SVILUPPI\MSX\CODE\C\MSXgl\projects\soccerlgMSX2/soccerlg_s21_b3.c:404: i8 off_x = 0;
    00001727 0E 00            [ 7] 3432 	ld	c, #0x00
                                   3433 ;E:\Dropbox\FAUSTO\SVILUPPI\MSX\CODE\C\MSXgl\projects\soccerlgMSX2/soccerlg_s21_b3.c:405: i8 off_y = (move_dx != 0) ? 11 : 8;
    00001729 7B               [ 4] 3434 	ld	a, e
    0000172A B7               [ 4] 3435 	or	a, a
    0000172B 28 06            [12] 3436 	jr	Z, 00547$
    0000172D 21 0B 00         [10] 3437 	ld	hl, #0x000b
    00001730 C3r36r17         [10] 3438 	jp	00548$
    00001733                       3439 00547$:
    00001733 21 08 00         [10] 3440 	ld	hl, #0x0008
    00001736                       3441 00548$:
    00001736 55               [ 4] 3442 	ld	d, l
                                   3443 ;E:\Dropbox\FAUSTO\SVILUPPI\MSX\CODE\C\MSXgl\projects\soccerlgMSX2/soccerlg_s21_b3.c:406: if (move_dx > 0) off_x = 3; else if (move_dx < 0) off_x = -3;
    00001737 AF               [ 4] 3444 	xor	a, a
    00001738 93               [ 4] 3445 	sub	a, e
    00001739 E2r3Er17         [10] 3446 	jp	PO, 01855$
    0000173C EE 80            [ 7] 3447 	xor	a, #0x80
    0000173E                       3448 01855$:
    0000173E F2r46r17         [10] 3449 	jp	P, 00366$
    00001741 0E 03            [ 7] 3450 	ld	c, #0x03
    00001743 C3r4Cr17         [10] 3451 	jp	00367$
    00001746                       3452 00366$:
    00001746 CB 7B            [ 8] 3453 	bit	7, e
    00001748 28 02            [12] 3454 	jr	Z, 00367$
    0000174A 0E FD            [ 7] 3455 	ld	c, #0xfd
    0000174C                       3456 00367$:
                                   3457 ;E:\Dropbox\FAUSTO\SVILUPPI\MSX\CODE\C\MSXgl\projects\soccerlgMSX2/soccerlg_s21_b3.c:408: Ball->lx = (u8)((i16)Player->lx + off_x);
    0000174C DD 6E E1         [19] 3458 	ld	l, -31 (ix)
    0000174F DD 66 E2         [19] 3459 	ld	h, -30 (ix)
    00001752 7E               [ 7] 3460 	ld	a, (hl)
    00001753 81               [ 4] 3461 	add	a, c
    00001754 32r42r01         [13] 3462 	ld	(#(_SwSprite + 322)),a
                                   3463 ;E:\Dropbox\FAUSTO\SVILUPPI\MSX\CODE\C\MSXgl\projects\soccerlgMSX2/soccerlg_s21_b3.c:409: Ball->ly = (u16)((i16)Player->ly + off_y) & 511;
    00001757 DD 6E EA         [19] 3464 	ld	l, -22 (ix)
    0000175A DD 66 EB         [19] 3465 	ld	h, -21 (ix)
    0000175D 4E               [ 7] 3466 	ld	c, (hl)
    0000175E 23               [ 6] 3467 	inc	hl
    0000175F 46               [ 7] 3468 	ld	b, (hl)
    00001760 7A               [ 4] 3469 	ld	a, d
    00001761 6F               [ 4] 3470 	ld	l, a
                                   3471 ;	spillPairReg hl
                                   3472 ;	spillPairReg hl
    00001762 07               [ 4] 3473 	rlca
    00001763 9F               [ 4] 3474 	sbc	a, a
    00001764 67               [ 4] 3475 	ld	h, a
                                   3476 ;	spillPairReg hl
                                   3477 ;	spillPairReg hl
    00001765 09               [11] 3478 	add	hl, bc
    00001766 4D               [ 4] 3479 	ld	c, l
    00001767 7C               [ 4] 3480 	ld	a, h
    00001768 E6 01            [ 7] 3481 	and	a, #0x01
    0000176A 47               [ 4] 3482 	ld	b, a
    0000176B ED 43r46r01      [20] 3483 	ld	((_SwSprite + 326)), bc
                                   3484 ;E:\Dropbox\FAUSTO\SVILUPPI\MSX\CODE\C\MSXgl\projects\soccerlgMSX2/soccerlg_s21_b3.c:214: if (g_is_ball_carried && LastTouchTeam != team && b_dist_x <= 32 && b_dist_y <= 16 && Player->count == 0 && RestartType == 0 && Ball->count == 0) {
                                   3485 ;E:\Dropbox\FAUSTO\SVILUPPI\MSX\CODE\C\MSXgl\projects\soccerlgMSX2/soccerlg_s21_b3.c:411: if (move_dx == 0) {
    0000176F 7B               [ 4] 3486 	ld	a, e
    00001770 B7               [ 4] 3487 	or	a, a
    00001771 20 1F            [12] 3488 	jr	NZ, 00369$
                                   3489 ;E:\Dropbox\FAUSTO\SVILUPPI\MSX\CODE\C\MSXgl\projects\soccerlgMSX2/soccerlg_s21_b3.c:413: Ball->dx = 0; Ball->dy = 1;
    00001773 21r53r01         [10] 3490 	ld	hl, #(_SwSprite + 339)
    00001776 36 00            [10] 3491 	ld	(hl), #0x00
    00001778 21r54r01         [10] 3492 	ld	hl, #(_SwSprite + 340)
    0000177B 36 01            [10] 3493 	ld	(hl), #0x01
                                   3494 ;E:\Dropbox\FAUSTO\SVILUPPI\MSX\CODE\C\MSXgl\projects\soccerlgMSX2/soccerlg_s21_b3.c:414: Ball->anim = 4; Ball->count = 0;
    0000177D 21 04 00         [10] 3495 	ld	hl, #0x0004
    00001780 22r55r01         [16] 3496 	ld	((_SwSprite + 341)), hl
    00001783 6C               [ 4] 3497 	ld	l, h
    00001784 22r57r01         [16] 3498 	ld	((_SwSprite + 343)), hl
                                   3499 ;E:\Dropbox\FAUSTO\SVILUPPI\MSX\CODE\C\MSXgl\projects\soccerlgMSX2/soccerlg_s21_b3.c:415: CallFnc_VOID(SEG_EVENTS, EventBallKicked);
    00001787 11r00r00         [10] 3500 	ld	de, #_EventBallKicked
    0000178A 3E 08            [ 7] 3501 	ld	a, #0x08
    0000178C CDr00r00         [17] 3502 	call	_CallFnc_VOID
    0000178F C3rC7r17         [10] 3503 	jp	00383$
    00001792                       3504 00369$:
                                   3505 ;E:\Dropbox\FAUSTO\SVILUPPI\MSX\CODE\C\MSXgl\projects\soccerlgMSX2/soccerlg_s21_b3.c:418: Ball->dx = move_dx; Ball->dy = 1;
    00001792 21r53r01         [10] 3506 	ld	hl, #(_SwSprite + 339)
    00001795 73               [ 7] 3507 	ld	(hl), e
    00001796 21r54r01         [10] 3508 	ld	hl, #(_SwSprite + 340)
    00001799 36 01            [10] 3509 	ld	(hl), #0x01
                                   3510 ;E:\Dropbox\FAUSTO\SVILUPPI\MSX\CODE\C\MSXgl\projects\soccerlgMSX2/soccerlg_s21_b3.c:419: Ball->anim = 2; Ball->count = 12; // Immunità durante il cambio di direzione
    0000179B 21 02 00         [10] 3511 	ld	hl, #0x0002
    0000179E 22r55r01         [16] 3512 	ld	((_SwSprite + 341)), hl
    000017A1 2E 0C            [ 7] 3513 	ld	l, #0x0c
    000017A3 22r57r01         [16] 3514 	ld	((_SwSprite + 343)), hl
                                   3515 ;E:\Dropbox\FAUSTO\SVILUPPI\MSX\CODE\C\MSXgl\projects\soccerlgMSX2/soccerlg_s21_b3.c:420: CallFnc_VOID(SEG_EVENTS, EventBallKicked);
    000017A6 11r00r00         [10] 3516 	ld	de, #_EventBallKicked
    000017A9 3E 08            [ 7] 3517 	ld	a, #0x08
    000017AB CDr00r00         [17] 3518 	call	_CallFnc_VOID
    000017AE C3rC7r17         [10] 3519 	jp	00383$
    000017B1                       3520 00380$:
                                   3521 ;E:\Dropbox\FAUSTO\SVILUPPI\MSX\CODE\C\MSXgl\projects\soccerlgMSX2/soccerlg_s21_b3.c:427: target_x = Ball->lx;
    000017B1 DD 7E FC         [19] 3522 	ld	a, -4 (ix)
    000017B4 DD 77 FA         [19] 3523 	ld	-6 (ix), a
    000017B7 DD 36 FB 00      [19] 3524 	ld	-5 (ix), #0x00
                                   3525 ;E:\Dropbox\FAUSTO\SVILUPPI\MSX\CODE\C\MSXgl\projects\soccerlgMSX2/soccerlg_s21_b3.c:428: target_y = Ball->ly;
    000017BB DD 7E FD         [19] 3526 	ld	a, -3 (ix)
    000017BE DD 4E FE         [19] 3527 	ld	c, -2 (ix)
    000017C1 DD 77 FC         [19] 3528 	ld	-4 (ix), a
    000017C4 DD 71 FD         [19] 3529 	ld	-3 (ix), c
    000017C7                       3530 00383$:
                                   3531 ;E:\Dropbox\FAUSTO\SVILUPPI\MSX\CODE\C\MSXgl\projects\soccerlgMSX2/soccerlg_s21_b3.c:433: if (target_x < 16) target_x = 16; 
    000017C7 DD 7E FA         [19] 3532 	ld	a, -6 (ix)
    000017CA DD 46 FB         [19] 3533 	ld	b, -5 (ix)
    000017CD D6 10            [ 7] 3534 	sub	a, #0x10
    000017CF 78               [ 4] 3535 	ld	a, b
    000017D0 DE 00            [ 7] 3536 	sbc	a, #0x00
    000017D2 30 08            [12] 3537 	jr	NC, 00388$
    000017D4 DD 36 FA 10      [19] 3538 	ld	-6 (ix), #0x10
    000017D8 DD 36 FB 00      [19] 3539 	ld	-5 (ix), #0
    000017DC                       3540 00388$:
                                   3541 ;E:\Dropbox\FAUSTO\SVILUPPI\MSX\CODE\C\MSXgl\projects\soccerlgMSX2/soccerlg_s21_b3.c:434: if (target_x > 224) target_x = 224;
    000017DC DD 4E FA         [19] 3542 	ld	c, -6 (ix)
    000017DF DD 46 FB         [19] 3543 	ld	b, -5 (ix)
    000017E2 3E E0            [ 7] 3544 	ld	a, #0xe0
    000017E4 B9               [ 4] 3545 	cp	a, c
    000017E5 3E 00            [ 7] 3546 	ld	a, #0x00
    000017E7 98               [ 4] 3547 	sbc	a, b
    000017E8 30 08            [12] 3548 	jr	NC, 00390$
    000017EA DD 36 FA E0      [19] 3549 	ld	-6 (ix), #0xe0
    000017EE DD 36 FB 00      [19] 3550 	ld	-5 (ix), #0
    000017F2                       3551 00390$:
                                   3552 ;E:\Dropbox\FAUSTO\SVILUPPI\MSX\CODE\C\MSXgl\projects\soccerlgMSX2/soccerlg_s21_b3.c:435: if (target_y < 24) target_y = 24;
    000017F2 DD 7E FC         [19] 3553 	ld	a, -4 (ix)
    000017F5 DD 46 FD         [19] 3554 	ld	b, -3 (ix)
    000017F8 D6 18            [ 7] 3555 	sub	a, #0x18
    000017FA 78               [ 4] 3556 	ld	a, b
    000017FB DE 00            [ 7] 3557 	sbc	a, #0x00
    000017FD 30 08            [12] 3558 	jr	NC, 00392$
    000017FF DD 36 FC 18      [19] 3559 	ld	-4 (ix), #0x18
    00001803 DD 36 FD 00      [19] 3560 	ld	-3 (ix), #0
    00001807                       3561 00392$:
                                   3562 ;E:\Dropbox\FAUSTO\SVILUPPI\MSX\CODE\C\MSXgl\projects\soccerlgMSX2/soccerlg_s21_b3.c:436: if (target_y > 478) target_y = 478;
    00001807 DD 4E FC         [19] 3563 	ld	c, -4 (ix)
    0000180A DD 46 FD         [19] 3564 	ld	b, -3 (ix)
    0000180D 3E DE            [ 7] 3565 	ld	a, #0xde
    0000180F B9               [ 4] 3566 	cp	a, c
    00001810 3E 01            [ 7] 3567 	ld	a, #0x01
    00001812 98               [ 4] 3568 	sbc	a, b
    00001813 30 08            [12] 3569 	jr	NC, 00394$
    00001815 DD 36 FC DE      [19] 3570 	ld	-4 (ix), #0xde
    00001819 DD 36 FD 01      [19] 3571 	ld	-3 (ix), #0x01
    0000181D                       3572 00394$:
                                   3573 ;E:\Dropbox\FAUSTO\SVILUPPI\MSX\CODE\C\MSXgl\projects\soccerlgMSX2/soccerlg_s21_b3.c:440: u16 dist_x = (target_x > Player->lx) ? (target_x - Player->lx) : (Player->lx - target_x);
    0000181D DD 6E E1         [19] 3574 	ld	l, -31 (ix)
    00001820 DD 66 E2         [19] 3575 	ld	h, -30 (ix)
    00001823 7E               [ 7] 3576 	ld	a, (hl)
    00001824 4F               [ 4] 3577 	ld	c, a
    00001825 06 00            [ 7] 3578 	ld	b, #0x00
    00001827 DD 77 F8         [19] 3579 	ld	-8 (ix), a
    0000182A DD 36 F9 00      [19] 3580 	ld	-7 (ix), #0x00
    0000182E 79               [ 4] 3581 	ld	a, c
    0000182F DD 96 FA         [19] 3582 	sub	a, -6 (ix)
    00001832 78               [ 4] 3583 	ld	a, b
    00001833 DD 9E FB         [19] 3584 	sbc	a, -5 (ix)
    00001836 30 2D            [12] 3585 	jr	NC, 00549$
    00001838 DD 7E FA         [19] 3586 	ld	a, -6 (ix)
    0000183B DD 77 F4         [19] 3587 	ld	-12 (ix), a
    0000183E DD 7E FB         [19] 3588 	ld	a, -5 (ix)
    00001841 DD 77 F5         [19] 3589 	ld	-11 (ix), a
    00001844 DD 7E F8         [19] 3590 	ld	a, -8 (ix)
    00001847 DD 77 F6         [19] 3591 	ld	-10 (ix), a
    0000184A DD 7E F9         [19] 3592 	ld	a, -7 (ix)
    0000184D DD 77 F7         [19] 3593 	ld	-9 (ix), a
    00001850 DD 7E F4         [19] 3594 	ld	a, -12 (ix)
    00001853 DD 96 F6         [19] 3595 	sub	a, -10 (ix)
    00001856 DD 77 F8         [19] 3596 	ld	-8 (ix), a
    00001859 DD 7E F5         [19] 3597 	ld	a, -11 (ix)
    0000185C DD 9E F7         [19] 3598 	sbc	a, -9 (ix)
    0000185F DD 77 F9         [19] 3599 	ld	-7 (ix), a
    00001862 C3r78r18         [10] 3600 	jp	00550$
    00001865                       3601 00549$:
    00001865 DD 7E F8         [19] 3602 	ld	a, -8 (ix)
    00001868 DD 4E F9         [19] 3603 	ld	c, -7 (ix)
    0000186B DD 96 FA         [19] 3604 	sub	a, -6 (ix)
    0000186E DD 77 F8         [19] 3605 	ld	-8 (ix), a
    00001871 79               [ 4] 3606 	ld	a, c
    00001872 DD 9E FB         [19] 3607 	sbc	a, -5 (ix)
    00001875 DD 77 F9         [19] 3608 	ld	-7 (ix), a
    00001878                       3609 00550$:
    00001878 DD 7E F8         [19] 3610 	ld	a, -8 (ix)
    0000187B DD 77 F6         [19] 3611 	ld	-10 (ix), a
    0000187E DD 7E F9         [19] 3612 	ld	a, -7 (ix)
    00001881 DD 77 F7         [19] 3613 	ld	-9 (ix), a
                                   3614 ;E:\Dropbox\FAUSTO\SVILUPPI\MSX\CODE\C\MSXgl\projects\soccerlgMSX2/soccerlg_s21_b3.c:441: u16 dist_y = (target_y > Player->ly) ? (target_y - Player->ly) : (Player->ly - target_y);
    00001884 DD 6E EA         [19] 3615 	ld	l, -22 (ix)
    00001887 DD 66 EB         [19] 3616 	ld	h, -21 (ix)
    0000188A 7E               [ 7] 3617 	ld	a, (hl)
    0000188B DD 77 F4         [19] 3618 	ld	-12 (ix), a
    0000188E 23               [ 6] 3619 	inc	hl
    0000188F 7E               [ 7] 3620 	ld	a, (hl)
    00001890 DD 77 F5         [19] 3621 	ld	-11 (ix), a
    00001893 DD 7E F4         [19] 3622 	ld	a, -12 (ix)
    00001896 DD 96 FC         [19] 3623 	sub	a, -4 (ix)
    00001899 DD 7E F5         [19] 3624 	ld	a, -11 (ix)
    0000189C DD 9E FD         [19] 3625 	sbc	a, -3 (ix)
    0000189F 30 15            [12] 3626 	jr	NC, 00551$
    000018A1 DD 7E FC         [19] 3627 	ld	a, -4 (ix)
    000018A4 DD 96 F4         [19] 3628 	sub	a, -12 (ix)
    000018A7 DD 77 F8         [19] 3629 	ld	-8 (ix), a
    000018AA DD 7E FD         [19] 3630 	ld	a, -3 (ix)
    000018AD DD 9E F5         [19] 3631 	sbc	a, -11 (ix)
    000018B0 DD 77 F9         [19] 3632 	ld	-7 (ix), a
    000018B3 C3rC8r18         [10] 3633 	jp	00552$
    000018B6                       3634 00551$:
    000018B6 DD 7E F4         [19] 3635 	ld	a, -12 (ix)
    000018B9 DD 96 FC         [19] 3636 	sub	a, -4 (ix)
    000018BC DD 77 F8         [19] 3637 	ld	-8 (ix), a
    000018BF DD 7E F5         [19] 3638 	ld	a, -11 (ix)
    000018C2 DD 9E FD         [19] 3639 	sbc	a, -3 (ix)
    000018C5 DD 77 F9         [19] 3640 	ld	-7 (ix), a
    000018C8                       3641 00552$:
                                   3642 ;E:\Dropbox\FAUSTO\SVILUPPI\MSX\CODE\C\MSXgl\projects\soccerlgMSX2/soccerlg_s21_b3.c:444: u8 speed = 1;
    000018C8 DD 36 FE 01      [19] 3643 	ld	-2 (ix), #0x01
                                   3644 ;E:\Dropbox\FAUSTO\SVILUPPI\MSX\CODE\C\MSXgl\projects\soccerlgMSX2/soccerlg_s21_b3.c:446: if (dist_x > 24 || dist_y > 24 || (LastTouchTeam == team && i == closest_mate) || (!g_is_ball_carried && Ball->anim < 5 && i == closest_mate)) speed = 2;
    000018CC DD 4E F6         [19] 3645 	ld	c, -10 (ix)
    000018CF DD 46 F7         [19] 3646 	ld	b, -9 (ix)
    000018D2 3E 18            [ 7] 3647 	ld	a, #0x18
    000018D4 B9               [ 4] 3648 	cp	a, c
    000018D5 3E 00            [ 7] 3649 	ld	a, #0x00
    000018D7 98               [ 4] 3650 	sbc	a, b
    000018D8 38 4E            [12] 3651 	jr	C, 00395$
    000018DA DD 7E F8         [19] 3652 	ld	a, -8 (ix)
    000018DD DD 77 F4         [19] 3653 	ld	-12 (ix), a
    000018E0 DD 7E F9         [19] 3654 	ld	a, -7 (ix)
    000018E3 DD 77 F5         [19] 3655 	ld	-11 (ix), a
    000018E6 3E 18            [ 7] 3656 	ld	a, #0x18
    000018E8 DD BE F4         [19] 3657 	cp	a, -12 (ix)
    000018EB 3E 00            [ 7] 3658 	ld	a, #0x00
    000018ED DD 9E F5         [19] 3659 	sbc	a, -11 (ix)
    000018F0 38 36            [12] 3660 	jr	C, 00395$
    000018F2 3Ar00r00         [13] 3661 	ld	a, (_LastTouchTeam+0)
    000018F5 DD 96 E3         [19] 3662 	sub	a, -29 (ix)
    000018F8 20 08            [12] 3663 	jr	NZ, 00402$
    000018FA DD 7E FF         [19] 3664 	ld	a, -1 (ix)
    000018FD DD 96 E4         [19] 3665 	sub	a, -28 (ix)
    00001900 28 26            [12] 3666 	jr	Z, 00395$
    00001902                       3667 00402$:
    00001902 3Ar00r00         [13] 3668 	ld	a, (_g_is_ball_carried+0)
    00001905 B7               [ 4] 3669 	or	a, a
    00001906 20 24            [12] 3670 	jr	NZ, 00396$
    00001908 21r55r01         [10] 3671 	ld	hl, #(_SwSprite + 341)
    0000190B 7E               [ 7] 3672 	ld	a, (hl)
    0000190C DD 77 F4         [19] 3673 	ld	-12 (ix), a
    0000190F 23               [ 6] 3674 	inc	hl
    00001910 7E               [ 7] 3675 	ld	a, (hl)
    00001911 DD 77 F5         [19] 3676 	ld	-11 (ix), a
    00001914 DD 7E F4         [19] 3677 	ld	a, -12 (ix)
    00001917 D6 05            [ 7] 3678 	sub	a, #0x05
    00001919 DD 7E F5         [19] 3679 	ld	a, -11 (ix)
    0000191C DE 00            [ 7] 3680 	sbc	a, #0x00
    0000191E 30 0C            [12] 3681 	jr	NC, 00396$
    00001920 DD 7E FF         [19] 3682 	ld	a, -1 (ix)
    00001923 DD 96 E4         [19] 3683 	sub	a, -28 (ix)
    00001926 20 04            [12] 3684 	jr	NZ, 00396$
    00001928                       3685 00395$:
    00001928 DD 36 FE 02      [19] 3686 	ld	-2 (ix), #0x02
    0000192C                       3687 00396$:
                                   3688 ;E:\Dropbox\FAUSTO\SVILUPPI\MSX\CODE\C\MSXgl\projects\soccerlgMSX2/soccerlg_s21_b3.c:448: Player->dx = 0; Player->dy = 0;
    0000192C DD 7E E1         [19] 3689 	ld	a, -31 (ix)
    0000192F C6 11            [ 7] 3690 	add	a, #0x11
    00001931 DD 77 EE         [19] 3691 	ld	-18 (ix), a
    00001934 DD 7E E2         [19] 3692 	ld	a, -30 (ix)
    00001937 CE 00            [ 7] 3693 	adc	a, #0x00
    00001939 DD 77 EF         [19] 3694 	ld	-17 (ix), a
    0000193C DD 6E EE         [19] 3695 	ld	l, -18 (ix)
    0000193F DD 66 EF         [19] 3696 	ld	h, -17 (ix)
    00001942 36 00            [10] 3697 	ld	(hl), #0x00
    00001944 DD 7E E1         [19] 3698 	ld	a, -31 (ix)
    00001947 C6 12            [ 7] 3699 	add	a, #0x12
    00001949 DD 77 F0         [19] 3700 	ld	-16 (ix), a
    0000194C DD 7E E2         [19] 3701 	ld	a, -30 (ix)
    0000194F CE 00            [ 7] 3702 	adc	a, #0x00
    00001951 DD 77 F1         [19] 3703 	ld	-15 (ix), a
    00001954 DD 6E F0         [19] 3704 	ld	l, -16 (ix)
    00001957 DD 66 F1         [19] 3705 	ld	h, -15 (ix)
    0000195A 36 00            [10] 3706 	ld	(hl), #0x00
                                   3707 ;E:\Dropbox\FAUSTO\SVILUPPI\MSX\CODE\C\MSXgl\projects\soccerlgMSX2/soccerlg_s21_b3.c:450: if (dist_x > speed) Player->dx = (target_x > Player->lx) ? speed : -speed;
    0000195C DD 7E FE         [19] 3708 	ld	a, -2 (ix)
    0000195F DD 77 F2         [19] 3709 	ld	-14 (ix), a
    00001962 DD 36 F3 00      [19] 3710 	ld	-13 (ix), #0x00
    00001966 DD 7E F2         [19] 3711 	ld	a, -14 (ix)
    00001969 DD 96 F6         [19] 3712 	sub	a, -10 (ix)
    0000196C DD 7E F3         [19] 3713 	ld	a, -13 (ix)
    0000196F DD 9E F7         [19] 3714 	sbc	a, -9 (ix)
    00001972 30 45            [12] 3715 	jr	NC, 00404$
    00001974 DD 7E EE         [19] 3716 	ld	a, -18 (ix)
    00001977 DD 77 F4         [19] 3717 	ld	-12 (ix), a
    0000197A DD 7E EF         [19] 3718 	ld	a, -17 (ix)
    0000197D DD 77 F5         [19] 3719 	ld	-11 (ix), a
    00001980 DD 6E E1         [19] 3720 	ld	l, -31 (ix)
    00001983 DD 66 E2         [19] 3721 	ld	h, -30 (ix)
    00001986 7E               [ 7] 3722 	ld	a, (hl)
    00001987 DD 77 F7         [19] 3723 	ld	-9 (ix), a
    0000198A DD 77 F6         [19] 3724 	ld	-10 (ix), a
    0000198D DD 36 F7 00      [19] 3725 	ld	-9 (ix), #0x00
    00001991 DD 7E F6         [19] 3726 	ld	a, -10 (ix)
    00001994 DD 96 FA         [19] 3727 	sub	a, -6 (ix)
    00001997 DD 7E F7         [19] 3728 	ld	a, -9 (ix)
    0000199A DD 9E FB         [19] 3729 	sbc	a, -5 (ix)
    0000199D 30 09            [12] 3730 	jr	NC, 00553$
    0000199F DD 7E FE         [19] 3731 	ld	a, -2 (ix)
    000019A2 DD 77 FB         [19] 3732 	ld	-5 (ix), a
    000019A5 C3rAFr19         [10] 3733 	jp	00554$
    000019A8                       3734 00553$:
    000019A8 AF               [ 4] 3735 	xor	a, a
    000019A9 DD 96 FE         [19] 3736 	sub	a, -2 (ix)
    000019AC DD 77 FB         [19] 3737 	ld	-5 (ix), a
    000019AF                       3738 00554$:
    000019AF DD 6E F4         [19] 3739 	ld	l, -12 (ix)
    000019B2 DD 66 F5         [19] 3740 	ld	h, -11 (ix)
    000019B5 DD 7E FB         [19] 3741 	ld	a, -5 (ix)
    000019B8 77               [ 7] 3742 	ld	(hl), a
    000019B9                       3743 00404$:
                                   3744 ;E:\Dropbox\FAUSTO\SVILUPPI\MSX\CODE\C\MSXgl\projects\soccerlgMSX2/soccerlg_s21_b3.c:451: if (dist_y > speed) Player->dy = (target_y > Player->ly) ? speed : -speed;
    000019B9 DD 7E F2         [19] 3745 	ld	a, -14 (ix)
    000019BC DD 96 F8         [19] 3746 	sub	a, -8 (ix)
    000019BF DD 7E F3         [19] 3747 	ld	a, -13 (ix)
    000019C2 DD 9E F9         [19] 3748 	sbc	a, -7 (ix)
    000019C5 30 30            [12] 3749 	jr	NC, 00406$
    000019C7 DD 7E F0         [19] 3750 	ld	a, -16 (ix)
    000019CA DD 77 FA         [19] 3751 	ld	-6 (ix), a
    000019CD DD 7E F1         [19] 3752 	ld	a, -15 (ix)
    000019D0 DD 77 FB         [19] 3753 	ld	-5 (ix), a
    000019D3 DD 6E EA         [19] 3754 	ld	l, -22 (ix)
    000019D6 DD 66 EB         [19] 3755 	ld	h, -21 (ix)
    000019D9 4E               [ 7] 3756 	ld	c, (hl)
    000019DA 23               [ 6] 3757 	inc	hl
    000019DB 46               [ 7] 3758 	ld	b, (hl)
    000019DC 79               [ 4] 3759 	ld	a, c
    000019DD DD 96 FC         [19] 3760 	sub	a, -4 (ix)
    000019E0 78               [ 4] 3761 	ld	a, b
    000019E1 DD 9E FD         [19] 3762 	sbc	a, -3 (ix)
    000019E4 30 06            [12] 3763 	jr	NC, 00555$
    000019E6 DD 7E FE         [19] 3764 	ld	a, -2 (ix)
    000019E9 C3rF0r19         [10] 3765 	jp	00556$
    000019EC                       3766 00555$:
    000019EC AF               [ 4] 3767 	xor	a, a
    000019ED DD 96 FE         [19] 3768 	sub	a, -2 (ix)
    000019F0                       3769 00556$:
    000019F0 DD 6E FA         [19] 3770 	ld	l, -6 (ix)
    000019F3 DD 66 FB         [19] 3771 	ld	h, -5 (ix)
    000019F6 77               [ 7] 3772 	ld	(hl), a
    000019F7                       3773 00406$:
                                   3774 ;E:\Dropbox\FAUSTO\SVILUPPI\MSX\CODE\C\MSXgl\projects\soccerlgMSX2/soccerlg_s21_b3.c:453: if (Player->dx != 0 || Player->dy != 0) {
    000019F7 DD 6E EE         [19] 3775 	ld	l, -18 (ix)
    000019FA DD 66 EF         [19] 3776 	ld	h, -17 (ix)
    000019FD 7E               [ 7] 3777 	ld	a, (hl)
    000019FE DD 77 FC         [19] 3778 	ld	-4 (ix), a
                                   3779 ;E:\Dropbox\FAUSTO\SVILUPPI\MSX\CODE\C\MSXgl\projects\soccerlgMSX2/soccerlg_s21_b3.c:462: Player->frame = CallFnc_U16_P4(SEG_GAMESTATE_9, GetPlayerAnimFrame, i, Player->dx, Player->dy, walk_seq[(Player->anim / 3) % 4]);
    00001A01 DD 7E E1         [19] 3780 	ld	a, -31 (ix)
    00001A04 C6 0F            [ 7] 3781 	add	a, #0x0f
    00001A06 DD 77 FD         [19] 3782 	ld	-3 (ix), a
    00001A09 DD 7E E2         [19] 3783 	ld	a, -30 (ix)
    00001A0C CE 00            [ 7] 3784 	adc	a, #0x00
    00001A0E DD 77 FE         [19] 3785 	ld	-2 (ix), a
                                   3786 ;E:\Dropbox\FAUSTO\SVILUPPI\MSX\CODE\C\MSXgl\projects\soccerlgMSX2/soccerlg_s21_b3.c:453: if (Player->dx != 0 || Player->dy != 0) {
    00001A11 DD 7E FC         [19] 3787 	ld	a, -4 (ix)
    00001A14 B7               [ 4] 3788 	or	a, a
    00001A15 20 0B            [12] 3789 	jr	NZ, 00410$
    00001A17 DD 6E F0         [19] 3790 	ld	l, -16 (ix)
    00001A1A DD 66 F1         [19] 3791 	ld	h, -15 (ix)
    00001A1D 7E               [ 7] 3792 	ld	a, (hl)
    00001A1E B7               [ 4] 3793 	or	a, a
    00001A1F CAr4Fr1B         [10] 3794 	jp	Z, 00411$
    00001A22                       3795 00410$:
                                   3796 ;E:\Dropbox\FAUSTO\SVILUPPI\MSX\CODE\C\MSXgl\projects\soccerlgMSX2/soccerlg_s21_b3.c:454: ai_last_dx[i] = Player->dx;
    00001A22 3Er00            [ 7] 3797 	ld	a, #<(_ai_last_dx)
    00001A24 DD 86 FF         [19] 3798 	add	a, -1 (ix)
    00001A27 DD 77 FA         [19] 3799 	ld	-6 (ix), a
    00001A2A 3Es00            [ 7] 3800 	ld	a, #>(_ai_last_dx)
    00001A2C CE 00            [ 7] 3801 	adc	a, #0x00
    00001A2E DD 77 FB         [19] 3802 	ld	-5 (ix), a
    00001A31 DD 6E FA         [19] 3803 	ld	l, -6 (ix)
    00001A34 DD 66 FB         [19] 3804 	ld	h, -5 (ix)
    00001A37 DD 7E FC         [19] 3805 	ld	a, -4 (ix)
    00001A3A 77               [ 7] 3806 	ld	(hl), a
                                   3807 ;E:\Dropbox\FAUSTO\SVILUPPI\MSX\CODE\C\MSXgl\projects\soccerlgMSX2/soccerlg_s21_b3.c:455: ai_last_dy[i] = Player->dy;
    00001A3B 3Er0E            [ 7] 3808 	ld	a, #<(_ai_last_dy)
    00001A3D DD 86 FF         [19] 3809 	add	a, -1 (ix)
    00001A40 4F               [ 4] 3810 	ld	c, a
    00001A41 3Es00            [ 7] 3811 	ld	a, #>(_ai_last_dy)
    00001A43 CE 00            [ 7] 3812 	adc	a, #0x00
    00001A45 47               [ 4] 3813 	ld	b, a
    00001A46 DD 6E F0         [19] 3814 	ld	l, -16 (ix)
    00001A49 DD 66 F1         [19] 3815 	ld	h, -15 (ix)
    00001A4C 7E               [ 7] 3816 	ld	a, (hl)
    00001A4D 02               [ 7] 3817 	ld	(bc), a
                                   3818 ;E:\Dropbox\FAUSTO\SVILUPPI\MSX\CODE\C\MSXgl\projects\soccerlgMSX2/soccerlg_s21_b3.c:457: Player->lx += Player->dx;
    00001A4E DD 6E E1         [19] 3819 	ld	l, -31 (ix)
    00001A51 DD 66 E2         [19] 3820 	ld	h, -30 (ix)
    00001A54 7E               [ 7] 3821 	ld	a, (hl)
    00001A55 DD 6E EE         [19] 3822 	ld	l, -18 (ix)
    00001A58 DD 66 EF         [19] 3823 	ld	h, -17 (ix)
    00001A5B 4E               [ 7] 3824 	ld	c, (hl)
    00001A5C 81               [ 4] 3825 	add	a, c
    00001A5D DD 6E E1         [19] 3826 	ld	l, -31 (ix)
    00001A60 DD 66 E2         [19] 3827 	ld	h, -30 (ix)
    00001A63 77               [ 7] 3828 	ld	(hl), a
                                   3829 ;E:\Dropbox\FAUSTO\SVILUPPI\MSX\CODE\C\MSXgl\projects\soccerlgMSX2/soccerlg_s21_b3.c:458: Player->ly += Player->dy;
    00001A64 DD 6E EA         [19] 3830 	ld	l, -22 (ix)
    00001A67 DD 66 EB         [19] 3831 	ld	h, -21 (ix)
    00001A6A 7E               [ 7] 3832 	ld	a, (hl)
    00001A6B DD 77 F9         [19] 3833 	ld	-7 (ix), a
    00001A6E 23               [ 6] 3834 	inc	hl
    00001A6F 7E               [ 7] 3835 	ld	a, (hl)
    00001A70 DD 77 FA         [19] 3836 	ld	-6 (ix), a
    00001A73 DD 6E F0         [19] 3837 	ld	l, -16 (ix)
    00001A76 DD 66 F1         [19] 3838 	ld	h, -15 (ix)
    00001A79 7E               [ 7] 3839 	ld	a, (hl)
    00001A7A DD 77 FB         [19] 3840 	ld	-5 (ix), a
    00001A7D 07               [ 4] 3841 	rlca
    00001A7E 9F               [ 4] 3842 	sbc	a, a
    00001A7F DD 77 FC         [19] 3843 	ld	-4 (ix), a
    00001A82 DD 7E F9         [19] 3844 	ld	a, -7 (ix)
    00001A85 DD 77 F7         [19] 3845 	ld	-9 (ix), a
    00001A88 DD 7E FA         [19] 3846 	ld	a, -6 (ix)
    00001A8B DD 77 F8         [19] 3847 	ld	-8 (ix), a
    00001A8E DD 7E FB         [19] 3848 	ld	a, -5 (ix)
    00001A91 DD 77 F9         [19] 3849 	ld	-7 (ix), a
    00001A94 DD 7E FC         [19] 3850 	ld	a, -4 (ix)
    00001A97 DD 77 FA         [19] 3851 	ld	-6 (ix), a
    00001A9A DD 7E F7         [19] 3852 	ld	a, -9 (ix)
    00001A9D DD 86 F9         [19] 3853 	add	a, -7 (ix)
    00001AA0 DD 77 FB         [19] 3854 	ld	-5 (ix), a
    00001AA3 DD 7E F8         [19] 3855 	ld	a, -8 (ix)
    00001AA6 DD 8E FA         [19] 3856 	adc	a, -6 (ix)
    00001AA9 DD 77 FC         [19] 3857 	ld	-4 (ix), a
    00001AAC DD 6E EA         [19] 3858 	ld	l, -22 (ix)
    00001AAF DD 66 EB         [19] 3859 	ld	h, -21 (ix)
    00001AB2 DD 7E FB         [19] 3860 	ld	a, -5 (ix)
    00001AB5 77               [ 7] 3861 	ld	(hl), a
    00001AB6 23               [ 6] 3862 	inc	hl
    00001AB7 DD 7E FC         [19] 3863 	ld	a, -4 (ix)
    00001ABA 77               [ 7] 3864 	ld	(hl), a
                                   3865 ;E:\Dropbox\FAUSTO\SVILUPPI\MSX\CODE\C\MSXgl\projects\soccerlgMSX2/soccerlg_s21_b3.c:460: Player->anim++;
    00001ABB DD 6E E1         [19] 3866 	ld	l, -31 (ix)
    00001ABE DD 66 E2         [19] 3867 	ld	h, -30 (ix)
    00001AC1 11 13 00         [10] 3868 	ld	de, #0x0013
    00001AC4 19               [11] 3869 	add	hl, de
    00001AC5 4E               [ 7] 3870 	ld	c, (hl)
    00001AC6 23               [ 6] 3871 	inc	hl
    00001AC7 46               [ 7] 3872 	ld	b, (hl)
    00001AC8 2B               [ 6] 3873 	dec	hl
    00001AC9 03               [ 6] 3874 	inc	bc
    00001ACA DD 71 FB         [19] 3875 	ld	-5 (ix), c
    00001ACD DD 70 FC         [19] 3876 	ld	-4 (ix), b
    00001AD0 DD 7E FB         [19] 3877 	ld	a, -5 (ix)
    00001AD3 77               [ 7] 3878 	ld	(hl), a
    00001AD4 23               [ 6] 3879 	inc	hl
    00001AD5 DD 7E FC         [19] 3880 	ld	a, -4 (ix)
    00001AD8 77               [ 7] 3881 	ld	(hl), a
                                   3882 ;E:\Dropbox\FAUSTO\SVILUPPI\MSX\CODE\C\MSXgl\projects\soccerlgMSX2/soccerlg_s21_b3.c:461: const u8 walk_seq[4] = {0, 1, 2, 1};
    00001AD9 DD 36 DD 00      [19] 3883 	ld	-35 (ix), #0x00
    00001ADD DD 36 DE 01      [19] 3884 	ld	-34 (ix), #0x01
    00001AE1 DD 36 DF 02      [19] 3885 	ld	-33 (ix), #0x02
    00001AE5 DD 36 E0 01      [19] 3886 	ld	-32 (ix), #0x01
                                   3887 ;E:\Dropbox\FAUSTO\SVILUPPI\MSX\CODE\C\MSXgl\projects\soccerlgMSX2/soccerlg_s21_b3.c:462: Player->frame = CallFnc_U16_P4(SEG_GAMESTATE_9, GetPlayerAnimFrame, i, Player->dx, Player->dy, walk_seq[(Player->anim / 3) % 4]);
    00001AE9 11 03 00         [10] 3888 	ld	de, #0x0003
    00001AEC DD 6E FB         [19] 3889 	ld	l, -5 (ix)
                                   3890 ;	spillPairReg hl
                                   3891 ;	spillPairReg hl
    00001AEF DD 66 FC         [19] 3892 	ld	h, -4 (ix)
                                   3893 ;	spillPairReg hl
                                   3894 ;	spillPairReg hl
    00001AF2 CDr00r00         [17] 3895 	call	__divuint
    00001AF5 DD 73 F9         [19] 3896 	ld	-7 (ix), e
    00001AF8 DD 72 FA         [19] 3897 	ld	-6 (ix), d
    00001AFB DD 7E F9         [19] 3898 	ld	a, -7 (ix)
    00001AFE E6 03            [ 7] 3899 	and	a, #0x03
    00001B00 DD 77 FB         [19] 3900 	ld	-5 (ix), a
    00001B03 DD 36 FC 00      [19] 3901 	ld	-4 (ix), #0x00
    00001B07 5F               [ 4] 3902 	ld	e, a
    00001B08 16 00            [ 7] 3903 	ld	d, #0x00
    00001B0A 21 00 00         [10] 3904 	ld	hl, #0
    00001B0D 39               [11] 3905 	add	hl, sp
    00001B0E 19               [11] 3906 	add	hl, de
    00001B0F DD 75 F8         [19] 3907 	ld	-8 (ix), l
    00001B12 DD 74 F9         [19] 3908 	ld	-7 (ix), h
    00001B15 7E               [ 7] 3909 	ld	a, (hl)
    00001B16 DD 77 FB         [19] 3910 	ld	-5 (ix), a
    00001B19 DD 6E F0         [19] 3911 	ld	l, -16 (ix)
    00001B1C DD 66 F1         [19] 3912 	ld	h, -15 (ix)
    00001B1F 7E               [ 7] 3913 	ld	a, (hl)
    00001B20 DD 77 FC         [19] 3914 	ld	-4 (ix), a
    00001B23 DD 6E EE         [19] 3915 	ld	l, -18 (ix)
    00001B26 DD 66 EF         [19] 3916 	ld	h, -17 (ix)
    00001B29 7E               [ 7] 3917 	ld	a, (hl)
    00001B2A DD 77 FA         [19] 3918 	ld	-6 (ix), a
    00001B2D DD 66 FB         [19] 3919 	ld	h, -5 (ix)
    00001B30 DD 6E FC         [19] 3920 	ld	l, -4 (ix)
    00001B33 E5               [11] 3921 	push	hl
    00001B34 DD 66 FA         [19] 3922 	ld	h, -6 (ix)
    00001B37 DD 6E FF         [19] 3923 	ld	l, -1 (ix)
    00001B3A E5               [11] 3924 	push	hl
    00001B3B 11r00r00         [10] 3925 	ld	de, #_GetPlayerAnimFrame
    00001B3E 3E 13            [ 7] 3926 	ld	a, #0x13
    00001B40 CDr00r00         [17] 3927 	call	_CallFnc_U16_P4
    00001B43 DD 6E FD         [19] 3928 	ld	l, -3 (ix)
    00001B46 DD 66 FE         [19] 3929 	ld	h, -2 (ix)
    00001B49 73               [ 7] 3930 	ld	(hl), e
    00001B4A 23               [ 6] 3931 	inc	hl
    00001B4B 72               [ 7] 3932 	ld	(hl), d
    00001B4C C3rA0r1C         [10] 3933 	jp	00417$
    00001B4F                       3934 00411$:
                                   3935 ;E:\Dropbox\FAUSTO\SVILUPPI\MSX\CODE\C\MSXgl\projects\soccerlgMSX2/soccerlg_s21_b3.c:27: u16 b_dist_x = (Player->lx > Ball->lx) ? (Player->lx - Ball->lx) : (Ball->lx - Player->lx);
    00001B4F 21r42r01         [10] 3936 	ld	hl, #(_SwSprite + 322)
    00001B52 4E               [ 7] 3937 	ld	c, (hl)
                                   3938 ;E:\Dropbox\FAUSTO\SVILUPPI\MSX\CODE\C\MSXgl\projects\soccerlgMSX2/soccerlg_s21_b3.c:465: i8 dir_x = (Ball->lx > Player->lx + 4) ? 1 : ((Ball->lx < Player->lx - 4) ? -1 : 0);
    00001B53 DD 6E E1         [19] 3939 	ld	l, -31 (ix)
    00001B56 DD 66 E2         [19] 3940 	ld	h, -30 (ix)
    00001B59 7E               [ 7] 3941 	ld	a, (hl)
    00001B5A DD 77 F7         [19] 3942 	ld	-9 (ix), a
    00001B5D DD 36 F8 00      [19] 3943 	ld	-8 (ix), #0x00
    00001B61 6F               [ 4] 3944 	ld	l, a
    00001B62 26 00            [ 7] 3945 	ld	h, #0x00
    00001B64 11 04 00         [10] 3946 	ld	de, #0x0004
    00001B67 19               [11] 3947 	add	hl, de
    00001B68 DD 71 F9         [19] 3948 	ld	-7 (ix), c
    00001B6B DD 36 FA 00      [19] 3949 	ld	-6 (ix), #0x00
    00001B6F 7D               [ 4] 3950 	ld	a, l
    00001B70 DD 96 F9         [19] 3951 	sub	a, -7 (ix)
    00001B73 7C               [ 4] 3952 	ld	a, h
    00001B74 DD 9E FA         [19] 3953 	sbc	a, -6 (ix)
    00001B77 E2r7Cr1B         [10] 3954 	jp	PO, 01861$
    00001B7A EE 80            [ 7] 3955 	xor	a, #0x80
    00001B7C                       3956 01861$:
    00001B7C F2r8Ar1B         [10] 3957 	jp	P, 00557$
    00001B7F DD 36 FB 01      [19] 3958 	ld	-5 (ix), #0x01
    00001B83 DD 36 FC 00      [19] 3959 	ld	-4 (ix), #0
    00001B87 C3rC0r1B         [10] 3960 	jp	00558$
    00001B8A                       3961 00557$:
    00001B8A DD 7E F7         [19] 3962 	ld	a, -9 (ix)
    00001B8D C6 FC            [ 7] 3963 	add	a, #0xfc
    00001B8F DD 77 FB         [19] 3964 	ld	-5 (ix), a
    00001B92 DD 7E F8         [19] 3965 	ld	a, -8 (ix)
    00001B95 CE FF            [ 7] 3966 	adc	a, #0xff
    00001B97 DD 77 FC         [19] 3967 	ld	-4 (ix), a
    00001B9A DD 7E F9         [19] 3968 	ld	a, -7 (ix)
    00001B9D DD 96 FB         [19] 3969 	sub	a, -5 (ix)
    00001BA0 DD 7E FA         [19] 3970 	ld	a, -6 (ix)
    00001BA3 DD 9E FC         [19] 3971 	sbc	a, -4 (ix)
    00001BA6 E2rABr1B         [10] 3972 	jp	PO, 01862$
    00001BA9 EE 80            [ 7] 3973 	xor	a, #0x80
    00001BAB                       3974 01862$:
    00001BAB F2rB9r1B         [10] 3975 	jp	P, 00559$
    00001BAE DD 36 FB FF      [19] 3976 	ld	-5 (ix), #0xff
    00001BB2 DD 36 FC FF      [19] 3977 	ld	-4 (ix), #0xff
    00001BB6 C3rC0r1B         [10] 3978 	jp	00560$
    00001BB9                       3979 00559$:
    00001BB9 AF               [ 4] 3980 	xor	a, a
    00001BBA DD 77 FB         [19] 3981 	ld	-5 (ix), a
    00001BBD DD 77 FC         [19] 3982 	ld	-4 (ix), a
    00001BC0                       3983 00560$:
    00001BC0                       3984 00558$:
    00001BC0 DD 7E FB         [19] 3985 	ld	a, -5 (ix)
    00001BC3 DD 77 FA         [19] 3986 	ld	-6 (ix), a
                                   3987 ;E:\Dropbox\FAUSTO\SVILUPPI\MSX\CODE\C\MSXgl\projects\soccerlgMSX2/soccerlg_s21_b3.c:28: u16 b_dist_y = (Player->ly > Ball->ly) ? (Player->ly - Ball->ly) : (Ball->ly - Player->ly);
    00001BC6 21r46r01         [10] 3988 	ld	hl, #(_SwSprite + 326)
    00001BC9 7E               [ 7] 3989 	ld	a, (hl)
    00001BCA DD 77 FB         [19] 3990 	ld	-5 (ix), a
    00001BCD 23               [ 6] 3991 	inc	hl
    00001BCE 7E               [ 7] 3992 	ld	a, (hl)
    00001BCF DD 77 FC         [19] 3993 	ld	-4 (ix), a
                                   3994 ;E:\Dropbox\FAUSTO\SVILUPPI\MSX\CODE\C\MSXgl\projects\soccerlgMSX2/soccerlg_s21_b3.c:466: i8 dir_y = (Ball->ly > Player->ly + 4) ? 1 : ((Ball->ly < Player->ly - 4) ? -1 : 0);
    00001BD2 DD 6E EA         [19] 3995 	ld	l, -22 (ix)
    00001BD5 DD 66 EB         [19] 3996 	ld	h, -21 (ix)
    00001BD8 7E               [ 7] 3997 	ld	a, (hl)
    00001BD9 DD 77 F8         [19] 3998 	ld	-8 (ix), a
    00001BDC 23               [ 6] 3999 	inc	hl
    00001BDD 7E               [ 7] 4000 	ld	a, (hl)
    00001BDE DD 77 F9         [19] 4001 	ld	-7 (ix), a
    00001BE1 DD 7E F8         [19] 4002 	ld	a, -8 (ix)
    00001BE4 DD 77 F6         [19] 4003 	ld	-10 (ix), a
    00001BE7 DD 7E F9         [19] 4004 	ld	a, -7 (ix)
    00001BEA DD 77 F7         [19] 4005 	ld	-9 (ix), a
    00001BED DD 7E F6         [19] 4006 	ld	a, -10 (ix)
    00001BF0 C6 04            [ 7] 4007 	add	a, #0x04
    00001BF2 DD 77 F8         [19] 4008 	ld	-8 (ix), a
    00001BF5 DD 7E F7         [19] 4009 	ld	a, -9 (ix)
    00001BF8 CE 00            [ 7] 4010 	adc	a, #0x00
    00001BFA DD 77 F9         [19] 4011 	ld	-7 (ix), a
    00001BFD DD 7E F8         [19] 4012 	ld	a, -8 (ix)
    00001C00 DD 96 FB         [19] 4013 	sub	a, -5 (ix)
    00001C03 DD 7E F9         [19] 4014 	ld	a, -7 (ix)
    00001C06 DD 9E FC         [19] 4015 	sbc	a, -4 (ix)
    00001C09 30 0B            [12] 4016 	jr	NC, 00561$
    00001C0B DD 36 FB 01      [19] 4017 	ld	-5 (ix), #0x01
    00001C0F DD 36 FC 00      [19] 4018 	ld	-4 (ix), #0
    00001C13 C3r46r1C         [10] 4019 	jp	00562$
    00001C16                       4020 00561$:
    00001C16 DD 7E F6         [19] 4021 	ld	a, -10 (ix)
    00001C19 C6 FC            [ 7] 4022 	add	a, #0xfc
    00001C1B DD 77 F8         [19] 4023 	ld	-8 (ix), a
    00001C1E DD 7E F7         [19] 4024 	ld	a, -9 (ix)
    00001C21 CE FF            [ 7] 4025 	adc	a, #0xff
    00001C23 DD 77 F9         [19] 4026 	ld	-7 (ix), a
    00001C26 DD 7E FB         [19] 4027 	ld	a, -5 (ix)
    00001C29 DD 96 F8         [19] 4028 	sub	a, -8 (ix)
    00001C2C DD 7E FC         [19] 4029 	ld	a, -4 (ix)
    00001C2F DD 9E F9         [19] 4030 	sbc	a, -7 (ix)
    00001C32 30 0B            [12] 4031 	jr	NC, 00563$
    00001C34 DD 36 FB FF      [19] 4032 	ld	-5 (ix), #0xff
    00001C38 DD 36 FC FF      [19] 4033 	ld	-4 (ix), #0xff
    00001C3C C3r46r1C         [10] 4034 	jp	00564$
    00001C3F                       4035 00563$:
    00001C3F AF               [ 4] 4036 	xor	a, a
    00001C40 DD 77 FB         [19] 4037 	ld	-5 (ix), a
    00001C43 DD 77 FC         [19] 4038 	ld	-4 (ix), a
    00001C46                       4039 00564$:
    00001C46                       4040 00562$:
    00001C46 DD 7E FB         [19] 4041 	ld	a, -5 (ix)
    00001C49 DD 77 FC         [19] 4042 	ld	-4 (ix), a
                                   4043 ;E:\Dropbox\FAUSTO\SVILUPPI\MSX\CODE\C\MSXgl\projects\soccerlgMSX2/soccerlg_s21_b3.c:467: if (dir_x == 0 && dir_y == 0) {
    00001C4C DD 7E FA         [19] 4044 	ld	a, -6 (ix)
    00001C4F B7               [ 4] 4045 	or	a, a
    00001C50 20 25            [12] 4046 	jr	NZ, 00408$
    00001C52 DD 7E FC         [19] 4047 	ld	a, -4 (ix)
    00001C55 B7               [ 4] 4048 	or	a, a
    00001C56 20 1F            [12] 4049 	jr	NZ, 00408$
                                   4050 ;E:\Dropbox\FAUSTO\SVILUPPI\MSX\CODE\C\MSXgl\projects\soccerlgMSX2/soccerlg_s21_b3.c:468: dir_y = (team == TEAM_1) ? 1 : -1;
    00001C58 DD 7E E3         [19] 4051 	ld	a, -29 (ix)
    00001C5B B7               [ 4] 4052 	or	a, a
    00001C5C 20 0B            [12] 4053 	jr	NZ, 00565$
    00001C5E DD 36 FB 01      [19] 4054 	ld	-5 (ix), #0x01
    00001C62 DD 36 FC 00      [19] 4055 	ld	-4 (ix), #0
    00001C66 C3r71r1C         [10] 4056 	jp	00566$
    00001C69                       4057 00565$:
    00001C69 DD 36 FB FF      [19] 4058 	ld	-5 (ix), #0xff
    00001C6D DD 36 FC FF      [19] 4059 	ld	-4 (ix), #0xff
    00001C71                       4060 00566$:
    00001C71 DD 7E FB         [19] 4061 	ld	a, -5 (ix)
    00001C74 DD 77 FC         [19] 4062 	ld	-4 (ix), a
    00001C77                       4063 00408$:
                                   4064 ;E:\Dropbox\FAUSTO\SVILUPPI\MSX\CODE\C\MSXgl\projects\soccerlgMSX2/soccerlg_s21_b3.c:470: Player->frame = CallFnc_U16_P3(SEG_GAMESTATE_9, GetPlayerIdleFrame, i, dir_x, dir_y);
    00001C77 DD 66 FC         [19] 4065 	ld	h, -4 (ix)
    00001C7A DD 6E FA         [19] 4066 	ld	l, -6 (ix)
    00001C7D E5               [11] 4067 	push	hl
    00001C7E DD 7E FF         [19] 4068 	ld	a, -1 (ix)
    00001C81 F5               [11] 4069 	push	af
    00001C82 33               [ 6] 4070 	inc	sp
    00001C83 11r00r00         [10] 4071 	ld	de, #_GetPlayerIdleFrame
    00001C86 3E 13            [ 7] 4072 	ld	a, #0x13
    00001C88 CDr00r00         [17] 4073 	call	_CallFnc_U16_P3
    00001C8B DD 73 FB         [19] 4074 	ld	-5 (ix), e
    00001C8E DD 72 FC         [19] 4075 	ld	-4 (ix), d
    00001C91 DD 6E FD         [19] 4076 	ld	l, -3 (ix)
    00001C94 DD 66 FE         [19] 4077 	ld	h, -2 (ix)
    00001C97 DD 7E FB         [19] 4078 	ld	a, -5 (ix)
    00001C9A 77               [ 7] 4079 	ld	(hl), a
    00001C9B 23               [ 6] 4080 	inc	hl
    00001C9C DD 7E FC         [19] 4081 	ld	a, -4 (ix)
    00001C9F 77               [ 7] 4082 	ld	(hl), a
    00001CA0                       4083 00417$:
                                   4084 ;E:\Dropbox\FAUSTO\SVILUPPI\MSX\CODE\C\MSXgl\projects\soccerlgMSX2/soccerlg_s21_b3.c:472: }
    00001CA0 DD F9            [10] 4085 	ld	sp, ix
    00001CA2 DD E1            [14] 4086 	pop	ix
    00001CA4 C9               [10] 4087 	ret
                         0000F380  4088 _g_RDPRIM	=	0xf380
                         0000F385  4089 _g_WRPRIM	=	0xf385
                         0000F38C  4090 _g_CLPRIM	=	0xf38c
                         0000F39A  4091 _g_USRTAB	=	0xf39a
                         0000F3DE  4092 _g_CNSDFG	=	0xf3de
                         0000F3DF  4093 _g_RG0SAV	=	0xf3df
                         0000F3E0  4094 _g_RG1SAV	=	0xf3e0
                         0000F3E1  4095 _g_RG2SAV	=	0xf3e1
                         0000F3E2  4096 _g_RG3SAV	=	0xf3e2
                         0000F3E3  4097 _g_RG4SAV	=	0xf3e3
                         0000F3E4  4098 _g_RG5SAV	=	0xf3e4
                         0000F3E5  4099 _g_RG6SAV	=	0xf3e5
                         0000F3E6  4100 _g_RG7SAV	=	0xf3e6
                         0000F3E7  4101 _g_STATFL	=	0xf3e7
                         0000F3E8  4102 _g_TRGFLG	=	0xf3e8
                         0000F3EC  4103 _g_MAXUPD	=	0xf3ec
                         0000F3EF  4104 _g_MINUPD	=	0xf3ef
                         0000F3F3  4105 _g_QUEUES	=	0xf3f3
                         0000F3F5  4106 _g_FRCNEW	=	0xf3f5
                         0000F3F6  4107 _g_SCNCNT	=	0xf3f6
                         0000F3F7  4108 _g_REPCNT	=	0xf3f7
                         0000F3F8  4109 _g_PUTPNT	=	0xf3f8
                         0000F3FA  4110 _g_GETPNT	=	0xf3fa
                         0000F3FC  4111 _g_CS120	=	0xf3fc
                         0000F401  4112 _g_CS240	=	0xf401
                         0000F406  4113 _g_LOW	=	0xf406
                         0000F408  4114 _g_HIGH	=	0xf408
                         0000F40A  4115 _g_HEADER	=	0xf40a
                         0000F40B  4116 _g_ASPCT1	=	0xf40b
                         0000F40D  4117 _g_ASPCT2	=	0xf40d
                         0000F959  4118 _g_QUETAB	=	0xf959
                         0000F971  4119 _g_QUEBAK	=	0xf971
                         0000F975  4120 _g_VOICAQ	=	0xf975
                         0000F9F5  4121 _g_VOICBQ	=	0xf9f5
                         0000FA75  4122 _g_VOICCQ	=	0xfa75
                         0000FAF5  4123 _g_RS2IQ	=	0xfaf5
                         0000FAF5  4124 _g_DPPAGE	=	0xfaf5
                         0000FAF6  4125 _g_ACPAGE	=	0xfaf6
                         0000FAF7  4126 _g_AVCSAV	=	0xfaf7
                         0000FAF8  4127 _g_EXBRSA	=	0xfaf8
                         0000FAF9  4128 _g_CHRCNT	=	0xfaf9
                         0000FAFA  4129 _g_ROMA	=	0xfafa
                         0000FAFC  4130 _g_MODE	=	0xfafc
                         0000FAFD  4131 _g_NORUSE	=	0xfafd
                         0000FAFE  4132 _g_XSAVE	=	0xfafe
                         0000FB00  4133 _g_YSAVE	=	0xfb00
                         0000FB03  4134 _g_RSTMP	=	0xfb03
                         0000FB03  4135 _g_TOCNT	=	0xfb03
                         0000FB04  4136 _g_RSFCB	=	0xfb04
                         0000FB06  4137 _g_RSIQLN	=	0xfb06
                         0000FB07  4138 _g_MEXBIh	=	0xfb07
                         0000FB0C  4139 _g_OLDSTT	=	0xfb0c
                         0000FB0C  4140 _g_OLDINT	=	0xfb0c
                         0000FB16  4141 _g_DEVNUM	=	0xfb16
                         0000FB17  4142 _g_DATCNT	=	0xfb17
                         0000FB1A  4143 _g_ERRORS	=	0xfb1a
                         0000FB1B  4144 _g_FLAGS	=	0xfb1b
                         0000FB1C  4145 _g_ESTBLS	=	0xfb1c
                         0000FB1D  4146 _g_COMMSK	=	0xfb1d
                         0000FB1E  4147 _g_LSTCOM	=	0xfb1e
                         0000FB1F  4148 _g_LSTMOD	=	0xfb1f
                         0000FB35  4149 _g_PRSCNT	=	0xfb35
                         0000FB36  4150 _g_SAVSP	=	0xfb36
                         0000FB38  4151 _g_VOICEN	=	0xfb38
                         0000FB39  4152 _g_SAVVOL	=	0xfb39
                         0000FB3B  4153 _g_MCLLEN	=	0xfb3b
                         0000FB3C  4154 _g_MCLPTR	=	0xfb3c
                         0000FB3E  4155 _g_QUEUEN	=	0xfb3e
                         0000FB3F  4156 _g_MUSICF	=	0xfb3f
                         0000FB40  4157 _g_PLYCNT	=	0xfb40
                         0000FB41  4158 _g_VCBA	=	0xfb41
                         0000FB66  4159 _g_VCBB	=	0xfb66
                         0000FB8B  4160 _g_VCBC	=	0xfb8b
                         0000FBB0  4161 _g_ENSTOP	=	0xfbb0
                         0000FBB1  4162 _g_BASROM	=	0xfbb1
                         0000FBB2  4163 _g_LINTTB	=	0xfbb2
                         0000FBCA  4164 _g_FSTPOS	=	0xfbca
                         0000FBCC  4165 _g_CODSAV	=	0xfbcc
                         0000FBCD  4166 _g_FNKSWI	=	0xfbcd
                         0000FBCE  4167 _g_FNKFLG	=	0xfbce
                         0000FBD8  4168 _g_ONGSBF	=	0xfbd8
                         0000FBD9  4169 _g_CLIKFL	=	0xfbd9
                         0000FBDA  4170 _g_OLDKEY	=	0xfbda
                         0000FBE5  4171 _g_NEWKEY	=	0xfbe5
                         0000FBF0  4172 _g_KEYBUF	=	0xfbf0
                         0000FC18  4173 _g_LINWRK	=	0xfc18
                         0000FC40  4174 _g_PATWRK	=	0xfc40
                         0000FC48  4175 _g_BOTTOM	=	0xfc48
                         0000FC4A  4176 _g_HIMEM	=	0xfc4a
                         0000FC4C  4177 _g_TRPTBL	=	0xfc4c
                         0000FC9A  4178 _g_RTYCNT	=	0xfc9a
                         0000FC9B  4179 _g_INTFLG	=	0xfc9b
                         0000FC9C  4180 _g_PADY	=	0xfc9c
                         0000FC9D  4181 _g_PADX	=	0xfc9d
                         0000FC9E  4182 _g_JIFFY	=	0xfc9e
                         0000FCA0  4183 _g_INTVAL	=	0xfca0
                         0000FCA2  4184 _g_INTCNT	=	0xfca2
                         0000FCA4  4185 _g_LOWLIM	=	0xfca4
                         0000FCA5  4186 _g_WINWID	=	0xfca5
                         0000FCA6  4187 _g_GRPHED	=	0xfca6
                         0000FCA7  4188 _g_ESCCNT	=	0xfca7
                         0000FCA8  4189 _g_INSFLG	=	0xfca8
                         0000FCA9  4190 _g_CSRSW	=	0xfca9
                         0000FCAA  4191 _g_CSTYLE	=	0xfcaa
                         0000FCAB  4192 _g_CAPST	=	0xfcab
                         0000FCAC  4193 _g_KANAST	=	0xfcac
                         0000FCAD  4194 _g_KANAMD	=	0xfcad
                         0000FCAE  4195 _g_FLBMEM	=	0xfcae
                         0000FCAF  4196 _g_SCRMOD	=	0xfcaf
                         0000FCB0  4197 _g_OLDSCR	=	0xfcb0
                         0000FCB1  4198 _g_CASPRV	=	0xfcb1
                         0000FCB2  4199 _g_BRDATR	=	0xfcb2
                         0000FCB3  4200 _g_GXPOS	=	0xfcb3
                         0000FCB5  4201 _g_GYPOS	=	0xfcb5
                         0000FCBB  4202 _g_DRWFLG	=	0xfcbb
                         0000FCBC  4203 _g_DRWSCL	=	0xfcbc
                         0000FCBD  4204 _g_DRWANG	=	0xfcbd
                         0000FCC1  4205 _g_MNROM	=	0xfcc1
                         0000FCC1  4206 _g_EXPTBL	=	0xfcc1
                         0000FCC5  4207 _g_SLTTBL	=	0xfcc5
                         0000FCC9  4208 _g_SLTATR	=	0xfcc9
                         0000FD09  4209 _g_SLTWRK	=	0xfd09
                         0000FD89  4210 _g_PROCNM	=	0xfd89
                         0000FFE7  4211 _g_RG08SAV	=	0xffe7
                         0000FFE8  4212 _g_RG09SAV	=	0xffe8
                         0000FFE9  4213 _g_RG10SAV	=	0xffe9
                         0000FFEA  4214 _g_RG11SAV	=	0xffea
                         0000FFEB  4215 _g_RG12SAV	=	0xffeb
                         0000FFEC  4216 _g_RG13SAV	=	0xffec
                         0000FFED  4217 _g_RG14SAV	=	0xffed
                         0000FFEE  4218 _g_RG15SAV	=	0xffee
                         0000FFEF  4219 _g_RG16SAV	=	0xffef
                         0000FFF0  4220 _g_RG17SAV	=	0xfff0
                         0000FFF1  4221 _g_RG18SAV	=	0xfff1
                         0000FFF2  4222 _g_RG19SAV	=	0xfff2
                         0000FFF3  4223 _g_RG20SAV	=	0xfff3
                         0000FFF4  4224 _g_RG21SAV	=	0xfff4
                         0000FFF5  4225 _g_RG22SAV	=	0xfff5
                         0000FFF6  4226 _g_RG23SAV	=	0xfff6
                         0000FFF7  4227 _g_MINROM	=	0xfff7
                         0000FFF8  4228 _g_SVFFF8	=	0xfff8
                         0000FFFA  4229 _g_RG25SAV	=	0xfffa
                         0000FFFB  4230 _g_RG26SAV	=	0xfffb
                         0000FFFC  4231 _g_RG27SAV	=	0xfffc
                         0000FFFD  4232 _g_SVFFFD	=	0xfffd
                         00000004  4233 _g_CGTABL	=	0x0004
                         00000006  4234 _g_VDP_DR	=	0x0006
                         00000007  4235 _g_VDP_DW	=	0x0007
                         0000002B  4236 _g_BASRVN	=	0x002b
                         0000002B  4237 _g_ROMVersion	=	0x002b
                         0000002D  4238 _g_MSXVER	=	0x002d
                         0000002E  4239 _g_MSXMID	=	0x002e
                         00000034  4240 _g_CHAR_16	=	0x0034
                         00000000  4241 _g_SUBRID	=	0x0000
                         00000002  4242 _g_STRSRC	=	0x0002
                         0000F30F  4243 _g_KANJTABLE	=	0xf30f
                         0000F323  4244 _g_DISKVE	=	0xf323
                         0000F325  4245 _g_BREAKV	=	0xf325
                         0000F341  4246 _g_RAMAD0	=	0xf341
                         0000F342  4247 _g_RAMAD1	=	0xf342
                         0000F343  4248 _g_RAMAD2	=	0xf343
                         0000F344  4249 _g_RAMAD3	=	0xf344
                         0000F348  4250 _g_MASTER	=	0xf348
                         0000F37D  4251 _g_BDOS	=	0xf37d
                                   4252 	.area _SEG21
                                   4253 	.area _INITIALIZER
    00000000                       4254 __xinit__ai_last_dx:
    00000000 00                    4255 	.db #0x00	;  0
    00000001 00                    4256 	.db #0x00	;  0
    00000002 00                    4257 	.db #0x00	;  0
    00000003 00                    4258 	.db #0x00	;  0
    00000004 00                    4259 	.db #0x00	;  0
    00000005 00                    4260 	.db #0x00	;  0
    00000006 00                    4261 	.db #0x00	;  0
    00000007 00                    4262 	.db #0x00	;  0
    00000008 00                    4263 	.db #0x00	;  0
    00000009 00                    4264 	.db #0x00	;  0
    0000000A 00                    4265 	.db #0x00	;  0
    0000000B 00                    4266 	.db #0x00	;  0
    0000000C 00                    4267 	.db #0x00	;  0
    0000000D 00                    4268 	.db #0x00	;  0
    0000000E                       4269 __xinit__ai_last_dy:
    0000000E 01                    4270 	.db #0x01	;  1
    0000000F 01                    4271 	.db #0x01	;  1
    00000010 01                    4272 	.db #0x01	;  1
    00000011 01                    4273 	.db #0x01	;  1
    00000012 01                    4274 	.db #0x01	;  1
    00000013 01                    4275 	.db #0x01	;  1
    00000014 01                    4276 	.db #0x01	;  1
    00000015 FF                    4277 	.db #0xff	; -1
    00000016 FF                    4278 	.db #0xff	; -1
    00000017 FF                    4279 	.db #0xff	; -1
    00000018 FF                    4280 	.db #0xff	; -1
    00000019 FF                    4281 	.db #0xff	; -1
    0000001A FF                    4282 	.db #0xff	; -1
    0000001B FF                    4283 	.db #0xff	; -1
                                   4284 	.area _CABS (ABS)
