                                      1 ;--------------------------------------------------------
                                      2 ; File Created by SDCC : free open source ANSI-C Compiler
                                      3 ; Version 4.2.0 #13081 (MINGW64)
                                      4 ;--------------------------------------------------------
                                      5 	.module soccerlg_s6_b3
                                      6 	.optsdcc -mz80
                                      7 	
                                      8 ;--------------------------------------------------------
                                      9 ; Public variables in this module
                                     10 ;--------------------------------------------------------
                                     11 	.globl _GetPlayerIdleFrame
                                     12 	.globl _GetPlayerAnimFrame
                                     13 	.globl _EventBallKicked
                                     14 	.globl _CallFnc_U16_P4
                                     15 	.globl _CallFnc_U16_P3
                                     16 	.globl _CallFnc_VOID
                                     17 	.globl _g_SLTSL
                                     18 	.globl _g_GRPACY
                                     19 	.globl _g_GRPACX
                                     20 	.globl _g_LOGOPR
                                     21 	.globl _g_CMASK
                                     22 	.globl _g_CLOC
                                     23 	.globl _g_FNKSTR
                                     24 	.globl _g_ATRBYT
                                     25 	.globl _g_BDRCLR
                                     26 	.globl _g_BAKCLR
                                     27 	.globl _g_FORCLR
                                     28 	.globl _g_CSRX
                                     29 	.globl _g_CSRY
                                     30 	.globl _g_CLIKSW
                                     31 	.globl _g_MLTPAT
                                     32 	.globl _g_MLTATR
                                     33 	.globl _g_MLTCGP
                                     34 	.globl _g_MLTCOL
                                     35 	.globl _g_MLTNAM
                                     36 	.globl _g_GRPPAT
                                     37 	.globl _g_GRPATR
                                     38 	.globl _g_GRPCGP
                                     39 	.globl _g_GRPCOL
                                     40 	.globl _g_GRPNAM
                                     41 	.globl _g_T32PAT
                                     42 	.globl _g_T32ATR
                                     43 	.globl _g_T32CGP
                                     44 	.globl _g_T32COL
                                     45 	.globl _g_T32NAM
                                     46 	.globl _g_TXTPAT
                                     47 	.globl _g_TXTATR
                                     48 	.globl _g_TXTCGP
                                     49 	.globl _g_TXTCOL
                                     50 	.globl _g_TXTNAM
                                     51 	.globl _g_CLMLST
                                     52 	.globl _g_CRTCNT
                                     53 	.globl _g_LINLEN
                                     54 	.globl _g_LINL32
                                     55 	.globl _g_LINL40
                                     56 	.globl _g_BDOS
                                     57 	.globl _g_MASTER
                                     58 	.globl _g_RAMAD3
                                     59 	.globl _g_RAMAD2
                                     60 	.globl _g_RAMAD1
                                     61 	.globl _g_RAMAD0
                                     62 	.globl _g_BREAKV
                                     63 	.globl _g_DISKVE
                                     64 	.globl _g_KANJTABLE
                                     65 	.globl _g_STRSRC
                                     66 	.globl _g_SUBRID
                                     67 	.globl _g_CHAR_16
                                     68 	.globl _g_MSXMID
                                     69 	.globl _g_MSXVER
                                     70 	.globl _g_ROMVersion
                                     71 	.globl _g_BASRVN
                                     72 	.globl _g_VDP_DW
                                     73 	.globl _g_VDP_DR
                                     74 	.globl _g_CGTABL
                                     75 	.globl _g_SVFFFD
                                     76 	.globl _g_RG27SAV
                                     77 	.globl _g_RG26SAV
                                     78 	.globl _g_RG25SAV
                                     79 	.globl _g_SVFFF8
                                     80 	.globl _g_MINROM
                                     81 	.globl _g_RG23SAV
                                     82 	.globl _g_RG22SAV
                                     83 	.globl _g_RG21SAV
                                     84 	.globl _g_RG20SAV
                                     85 	.globl _g_RG19SAV
                                     86 	.globl _g_RG18SAV
                                     87 	.globl _g_RG17SAV
                                     88 	.globl _g_RG16SAV
                                     89 	.globl _g_RG15SAV
                                     90 	.globl _g_RG14SAV
                                     91 	.globl _g_RG13SAV
                                     92 	.globl _g_RG12SAV
                                     93 	.globl _g_RG11SAV
                                     94 	.globl _g_RG10SAV
                                     95 	.globl _g_RG09SAV
                                     96 	.globl _g_RG08SAV
                                     97 	.globl _g_PROCNM
                                     98 	.globl _g_SLTWRK
                                     99 	.globl _g_SLTATR
                                    100 	.globl _g_SLTTBL
                                    101 	.globl _g_EXPTBL
                                    102 	.globl _g_MNROM
                                    103 	.globl _g_DRWANG
                                    104 	.globl _g_DRWSCL
                                    105 	.globl _g_DRWFLG
                                    106 	.globl _g_GYPOS
                                    107 	.globl _g_GXPOS
                                    108 	.globl _g_BRDATR
                                    109 	.globl _g_CASPRV
                                    110 	.globl _g_OLDSCR
                                    111 	.globl _g_SCRMOD
                                    112 	.globl _g_FLBMEM
                                    113 	.globl _g_KANAMD
                                    114 	.globl _g_KANAST
                                    115 	.globl _g_CAPST
                                    116 	.globl _g_CSTYLE
                                    117 	.globl _g_CSRSW
                                    118 	.globl _g_INSFLG
                                    119 	.globl _g_ESCCNT
                                    120 	.globl _g_GRPHED
                                    121 	.globl _g_WINWID
                                    122 	.globl _g_LOWLIM
                                    123 	.globl _g_INTCNT
                                    124 	.globl _g_INTVAL
                                    125 	.globl _g_JIFFY
                                    126 	.globl _g_PADX
                                    127 	.globl _g_PADY
                                    128 	.globl _g_INTFLG
                                    129 	.globl _g_RTYCNT
                                    130 	.globl _g_TRPTBL
                                    131 	.globl _g_HIMEM
                                    132 	.globl _g_BOTTOM
                                    133 	.globl _g_PATWRK
                                    134 	.globl _g_LINWRK
                                    135 	.globl _g_KEYBUF
                                    136 	.globl _g_NEWKEY
                                    137 	.globl _g_OLDKEY
                                    138 	.globl _g_CLIKFL
                                    139 	.globl _g_ONGSBF
                                    140 	.globl _g_FNKFLG
                                    141 	.globl _g_FNKSWI
                                    142 	.globl _g_CODSAV
                                    143 	.globl _g_FSTPOS
                                    144 	.globl _g_LINTTB
                                    145 	.globl _g_BASROM
                                    146 	.globl _g_ENSTOP
                                    147 	.globl _g_VCBC
                                    148 	.globl _g_VCBB
                                    149 	.globl _g_VCBA
                                    150 	.globl _g_PLYCNT
                                    151 	.globl _g_MUSICF
                                    152 	.globl _g_QUEUEN
                                    153 	.globl _g_MCLPTR
                                    154 	.globl _g_MCLLEN
                                    155 	.globl _g_SAVVOL
                                    156 	.globl _g_VOICEN
                                    157 	.globl _g_SAVSP
                                    158 	.globl _g_PRSCNT
                                    159 	.globl _g_LSTMOD
                                    160 	.globl _g_LSTCOM
                                    161 	.globl _g_COMMSK
                                    162 	.globl _g_ESTBLS
                                    163 	.globl _g_FLAGS
                                    164 	.globl _g_ERRORS
                                    165 	.globl _g_DATCNT
                                    166 	.globl _g_DEVNUM
                                    167 	.globl _g_OLDINT
                                    168 	.globl _g_OLDSTT
                                    169 	.globl _g_MEXBIh
                                    170 	.globl _g_RSIQLN
                                    171 	.globl _g_RSFCB
                                    172 	.globl _g_TOCNT
                                    173 	.globl _g_RSTMP
                                    174 	.globl _g_YSAVE
                                    175 	.globl _g_XSAVE
                                    176 	.globl _g_NORUSE
                                    177 	.globl _g_MODE
                                    178 	.globl _g_ROMA
                                    179 	.globl _g_CHRCNT
                                    180 	.globl _g_EXBRSA
                                    181 	.globl _g_AVCSAV
                                    182 	.globl _g_ACPAGE
                                    183 	.globl _g_DPPAGE
                                    184 	.globl _g_RS2IQ
                                    185 	.globl _g_VOICCQ
                                    186 	.globl _g_VOICBQ
                                    187 	.globl _g_VOICAQ
                                    188 	.globl _g_QUEBAK
                                    189 	.globl _g_QUETAB
                                    190 	.globl _g_ASPCT2
                                    191 	.globl _g_ASPCT1
                                    192 	.globl _g_HEADER
                                    193 	.globl _g_HIGH
                                    194 	.globl _g_LOW
                                    195 	.globl _g_CS240
                                    196 	.globl _g_CS120
                                    197 	.globl _g_GETPNT
                                    198 	.globl _g_PUTPNT
                                    199 	.globl _g_REPCNT
                                    200 	.globl _g_SCNCNT
                                    201 	.globl _g_FRCNEW
                                    202 	.globl _g_QUEUES
                                    203 	.globl _g_MINUPD
                                    204 	.globl _g_MAXUPD
                                    205 	.globl _g_TRGFLG
                                    206 	.globl _g_STATFL
                                    207 	.globl _g_RG7SAV
                                    208 	.globl _g_RG6SAV
                                    209 	.globl _g_RG5SAV
                                    210 	.globl _g_RG4SAV
                                    211 	.globl _g_RG3SAV
                                    212 	.globl _g_RG2SAV
                                    213 	.globl _g_RG1SAV
                                    214 	.globl _g_RG0SAV
                                    215 	.globl _g_CNSDFG
                                    216 	.globl _g_USRTAB
                                    217 	.globl _g_CLPRIM
                                    218 	.globl _g_WRPRIM
                                    219 	.globl _g_RDPRIM
                                    220 	.globl _PlayerAI
                                    221 	.globl _FindReceiver
                                    222 ;--------------------------------------------------------
                                    223 ; special function registers
                                    224 ;--------------------------------------------------------
                         000000A8   225 _g_PortPrimarySlot	=	0x00a8
                         000000A9   226 _g_PortReadKeyboard	=	0x00a9
                         000000AA   227 _g_PortAccessKeyboard	=	0x00aa
                         000000AB   228 _g_PortControl	=	0x00ab
                         00000098   229 _g_VDP_DataPort	=	0x0098
                         00000099   230 _g_VDP_RegPort	=	0x0099
                         00000099   231 _g_VDP_AddrPort	=	0x0099
                         00000099   232 _g_VDP_StatPort	=	0x0099
                         0000009A   233 _g_VDP_PalPort	=	0x009a
                         0000009B   234 _g_VDP_IRegPort	=	0x009b
                         000000A0   235 _g_PSG_RegPort	=	0x00a0
                         000000A1   236 _g_PSG_DataPort	=	0x00a1
                         000000A2   237 _g_PSG_StatPort	=	0x00a2
                         00000010   238 _g_PSG_Ext_RegPort	=	0x0010
                         00000011   239 _g_PSG_Ext_DataPort	=	0x0011
                         00000012   240 _g_PSG_Ext_StatPort	=	0x0012
                         0000007C   241 _g_MSXMusic_IndexPort	=	0x007c
                         0000007D   242 _g_MSXMusic_DataPort	=	0x007d
                         000000C0   243 _g_MSXAudio_IndexPort	=	0x00c0
                         000000C1   244 _g_MSXAudio_DataPort	=	0x00c1
                         000000C2   245 _g_MSXAudio_IndexPort2	=	0x00c2
                         000000C3   246 _g_MSXAudio_DataPort2	=	0x00c3
                         000000B4   247 _g_RTC_AddrPort	=	0x00b4
                         000000B5   248 _g_RTC_DataPort	=	0x00b5
                                    249 ;--------------------------------------------------------
                                    250 ; ram data
                                    251 ;--------------------------------------------------------
                                    252 	.area _DATA
                         0000F3AE   253 _g_LINL40	=	0xf3ae
                         0000F3AF   254 _g_LINL32	=	0xf3af
                         0000F3B0   255 _g_LINLEN	=	0xf3b0
                         0000F3B1   256 _g_CRTCNT	=	0xf3b1
                         0000F3B2   257 _g_CLMLST	=	0xf3b2
                         0000F3B3   258 _g_TXTNAM	=	0xf3b3
                         0000F3B5   259 _g_TXTCOL	=	0xf3b5
                         0000F3B7   260 _g_TXTCGP	=	0xf3b7
                         0000F3B9   261 _g_TXTATR	=	0xf3b9
                         0000F3BB   262 _g_TXTPAT	=	0xf3bb
                         0000F3BD   263 _g_T32NAM	=	0xf3bd
                         0000F3BF   264 _g_T32COL	=	0xf3bf
                         0000F3C1   265 _g_T32CGP	=	0xf3c1
                         0000F3C3   266 _g_T32ATR	=	0xf3c3
                         0000F3C5   267 _g_T32PAT	=	0xf3c5
                         0000F3C7   268 _g_GRPNAM	=	0xf3c7
                         0000F3C9   269 _g_GRPCOL	=	0xf3c9
                         0000F3CB   270 _g_GRPCGP	=	0xf3cb
                         0000F3CD   271 _g_GRPATR	=	0xf3cd
                         0000F3CF   272 _g_GRPPAT	=	0xf3cf
                         0000F3D1   273 _g_MLTNAM	=	0xf3d1
                         0000F3D3   274 _g_MLTCOL	=	0xf3d3
                         0000F3D5   275 _g_MLTCGP	=	0xf3d5
                         0000F3D7   276 _g_MLTATR	=	0xf3d7
                         0000F3D9   277 _g_MLTPAT	=	0xf3d9
                         0000F3DB   278 _g_CLIKSW	=	0xf3db
                         0000F3DC   279 _g_CSRY	=	0xf3dc
                         0000F3DD   280 _g_CSRX	=	0xf3dd
                         0000F3E9   281 _g_FORCLR	=	0xf3e9
                         0000F3EA   282 _g_BAKCLR	=	0xf3ea
                         0000F3EB   283 _g_BDRCLR	=	0xf3eb
                         0000F3F2   284 _g_ATRBYT	=	0xf3f2
                         0000F87F   285 _g_FNKSTR	=	0xf87f
                         0000F92A   286 _g_CLOC	=	0xf92a
                         0000F92C   287 _g_CMASK	=	0xf92c
                         0000FB02   288 _g_LOGOPR	=	0xfb02
                         0000FCB7   289 _g_GRPACX	=	0xfcb7
                         0000FCB9   290 _g_GRPACY	=	0xfcb9
                         0000FFFF   291 _g_SLTSL	=	0xffff
                                    292 ;--------------------------------------------------------
                                    293 ; ram data
                                    294 ;--------------------------------------------------------
                                    295 	.area _INITIALIZED
    00000000                        296 _ai_last_dx:
    00000000                        297 	.ds 14
    0000000E                        298 _ai_last_dy:
    0000000E                        299 	.ds 14
                                    300 ;--------------------------------------------------------
                                    301 ; absolute external ram data
                                    302 ;--------------------------------------------------------
                                    303 	.area _DABS (ABS)
                                    304 ;--------------------------------------------------------
                                    305 ; global & static initialisations
                                    306 ;--------------------------------------------------------
                                    307 	.area _HOME
                                    308 	.area _GSINIT
                                    309 	.area _GSFINAL
                                    310 	.area _GSINIT
                                    311 ;--------------------------------------------------------
                                    312 ; Home
                                    313 ;--------------------------------------------------------
                                    314 	.area _HOME
                                    315 	.area _HOME
                                    316 ;--------------------------------------------------------
                                    317 ; code
                                    318 ;--------------------------------------------------------
                                    319 	.area _SEG6
                                    320 ;E:\Dropbox\FAUSTO\SVILUPPI\MSX\CODE\C\MSXgl\projects\soccerlgMSX2/soccerlg_s6_b3.c:12: void PlayerAI(u8 i) 
                                    321 ;	---------------------------------
                                    322 ; Function PlayerAI
                                    323 ; ---------------------------------
    00000000                        324 _PlayerAI::
    00000000 DD E5            [15]  325 	push	ix
    00000002 DD 21 00 00      [14]  326 	ld	ix,#0
    00000006 DD 39            [15]  327 	add	ix,sp
    00000008 21 E6 FF         [10]  328 	ld	hl, #-26
    0000000B 39               [11]  329 	add	hl, sp
    0000000C F9               [ 6]  330 	ld	sp, hl
    0000000D DD 77 FF         [19]  331 	ld	-1 (ix), a
                                    332 ;E:\Dropbox\FAUSTO\SVILUPPI\MSX\CODE\C\MSXgl\projects\soccerlgMSX2/soccerlg_s6_b3.c:15: if (GameMode == GAMEMODE_P1_VS_CPU) {
    00000010 3Ar00r00         [13]  333 	ld	a, (_GameMode+0)
    00000013 B7               [ 4]  334 	or	a, a
    00000014 20 0C            [12]  335 	jr	NZ, 00107$
                                    336 ;E:\Dropbox\FAUSTO\SVILUPPI\MSX\CODE\C\MSXgl\projects\soccerlgMSX2/soccerlg_s6_b3.c:16: if (i == T2_Carrier) return;
    00000016 3Ar00r00         [13]  337 	ld	a, (_T2_Carrier+0)
    00000019 DD 96 FF         [19]  338 	sub	a, -1 (ix)
    0000001C CAr18r0D         [10]  339 	jp	Z,00214$
    0000001F C3r34r00         [10]  340 	jp	00108$
    00000022                        341 00107$:
                                    342 ;E:\Dropbox\FAUSTO\SVILUPPI\MSX\CODE\C\MSXgl\projects\soccerlgMSX2/soccerlg_s6_b3.c:18: if (i == T1_Carrier || i == T2_Carrier) return;
    00000022 3Ar00r00         [13]  343 	ld	a, (_T1_Carrier+0)
    00000025 DD 96 FF         [19]  344 	sub	a, -1 (ix)
    00000028 CAr18r0D         [10]  345 	jp	Z,00214$
    0000002B 3Ar00r00         [13]  346 	ld	a, (_T2_Carrier+0)
    0000002E DD 96 FF         [19]  347 	sub	a, -1 (ix)
    00000031 CAr18r0D         [10]  348 	jp	Z,00214$
    00000034                        349 00108$:
                                    350 ;E:\Dropbox\FAUSTO\SVILUPPI\MSX\CODE\C\MSXgl\projects\soccerlgMSX2/soccerlg_s6_b3.c:21: struct ObjectInfo* Player = &SwSprite[i];
    00000034 DD 4E FF         [19]  351 	ld	c, -1 (ix)
    00000037 06 00            [ 7]  352 	ld	b, #0x00
    00000039 69               [ 4]  353 	ld	l, c
    0000003A 60               [ 4]  354 	ld	h, b
    0000003B 29               [11]  355 	add	hl, hl
    0000003C 29               [11]  356 	add	hl, hl
    0000003D 09               [11]  357 	add	hl, bc
    0000003E 29               [11]  358 	add	hl, hl
    0000003F 09               [11]  359 	add	hl, bc
    00000040 29               [11]  360 	add	hl, hl
    00000041 09               [11]  361 	add	hl, bc
    00000042 DD 75 FB         [19]  362 	ld	-5 (ix), l
    00000045 DD 74 FC         [19]  363 	ld	-4 (ix), h
    00000048 3Er00            [ 7]  364 	ld	a, #<(_SwSprite)
    0000004A DD 86 FB         [19]  365 	add	a, -5 (ix)
    0000004D DD 77 FD         [19]  366 	ld	-3 (ix), a
    00000050 3Es00            [ 7]  367 	ld	a, #>(_SwSprite)
    00000052 DD 8E FC         [19]  368 	adc	a, -4 (ix)
    00000055 DD 77 FE         [19]  369 	ld	-2 (ix), a
    00000058 DD 7E FD         [19]  370 	ld	a, -3 (ix)
    0000005B DD 77 EA         [19]  371 	ld	-22 (ix), a
    0000005E DD 7E FE         [19]  372 	ld	a, -2 (ix)
    00000061 DD 77 EB         [19]  373 	ld	-21 (ix), a
                                    374 ;E:\Dropbox\FAUSTO\SVILUPPI\MSX\CODE\C\MSXgl\projects\soccerlgMSX2/soccerlg_s6_b3.c:22: struct ObjectInfo* Ball = &SwSprite[14];
                                    375 ;E:\Dropbox\FAUSTO\SVILUPPI\MSX\CODE\C\MSXgl\projects\soccerlgMSX2/soccerlg_s6_b3.c:24: u8 team = (i < 7) ? TEAM_1 : TEAM_2;
    00000064 DD 7E FF         [19]  376 	ld	a, -1 (ix)
    00000067 D6 07            [ 7]  377 	sub	a, #0x07
    00000069 30 06            [12]  378 	jr	NC, 00216$
    0000006B 01 00 00         [10]  379 	ld	bc, #0x0000
    0000006E C3r74r00         [10]  380 	jp	00217$
    00000071                        381 00216$:
    00000071 01 01 00         [10]  382 	ld	bc, #0x0001
    00000074                        383 00217$:
    00000074 DD 71 EC         [19]  384 	ld	-20 (ix), c
                                    385 ;E:\Dropbox\FAUSTO\SVILUPPI\MSX\CODE\C\MSXgl\projects\soccerlgMSX2/soccerlg_s6_b3.c:25: bool is_gk = (i == 0 || i == 7);
    00000077 DD 7E FF         [19]  386 	ld	a, -1 (ix)
    0000007A B7               [ 4]  387 	or	a, a
    0000007B 28 09            [12]  388 	jr	Z, 00219$
    0000007D DD 7E FF         [19]  389 	ld	a, -1 (ix)
    00000080 D6 07            [ 7]  390 	sub	a, #0x07
    00000082 0E 00            [ 7]  391 	ld	c, #0x00
    00000084 20 02            [12]  392 	jr	NZ, 00220$
    00000086                        393 00219$:
    00000086 0E 01            [ 7]  394 	ld	c, #0x01
    00000088                        395 00220$:
                                    396 ;E:\Dropbox\FAUSTO\SVILUPPI\MSX\CODE\C\MSXgl\projects\soccerlgMSX2/soccerlg_s6_b3.c:33: if (Ball->lx > Player->lx + 4) target_x = Player->lx + 2;
    00000088 3Ar42r01         [13]  397 	ld	a, (#(_SwSprite + 322) + 0)
    0000008B DD 77 F7         [19]  398 	ld	-9 (ix), a
                                    399 ;E:\Dropbox\FAUSTO\SVILUPPI\MSX\CODE\C\MSXgl\projects\soccerlgMSX2/soccerlg_s6_b3.c:32: if (is_gk) {
    0000008E 79               [ 4]  400 	ld	a, c
    0000008F B7               [ 4]  401 	or	a, a
    00000090 CArFFr01         [10]  402 	jp	Z, 00126$
                                    403 ;E:\Dropbox\FAUSTO\SVILUPPI\MSX\CODE\C\MSXgl\projects\soccerlgMSX2/soccerlg_s6_b3.c:33: if (Ball->lx > Player->lx + 4) target_x = Player->lx + 2;
    00000093 DD 6E EA         [19]  404 	ld	l, -22 (ix)
    00000096 DD 66 EB         [19]  405 	ld	h, -21 (ix)
    00000099 7E               [ 7]  406 	ld	a, (hl)
    0000009A DD 77 FE         [19]  407 	ld	-2 (ix), a
    0000009D 4F               [ 4]  408 	ld	c, a
    0000009E 06 00            [ 7]  409 	ld	b, #0x00
    000000A0 21 04 00         [10]  410 	ld	hl, #0x0004
    000000A3 09               [11]  411 	add	hl, bc
    000000A4 DD 5E F7         [19]  412 	ld	e, -9 (ix)
    000000A7 16 00            [ 7]  413 	ld	d, #0x00
    000000A9 7D               [ 4]  414 	ld	a, l
    000000AA 93               [ 4]  415 	sub	a, e
    000000AB 7C               [ 4]  416 	ld	a, h
    000000AC 9A               [ 4]  417 	sbc	a, d
    000000AD E2rB2r00         [10]  418 	jp	PO, 00750$
    000000B0 EE 80            [ 7]  419 	xor	a, #0x80
    000000B2                        420 00750$:
    000000B2 F2rBAr00         [10]  421 	jp	P, 00113$
    000000B5 03               [ 6]  422 	inc	bc
    000000B6 03               [ 6]  423 	inc	bc
    000000B7 C3rD8r00         [10]  424 	jp	00114$
    000000BA                        425 00113$:
                                    426 ;E:\Dropbox\FAUSTO\SVILUPPI\MSX\CODE\C\MSXgl\projects\soccerlgMSX2/soccerlg_s6_b3.c:34: else if (Ball->lx < Player->lx - 4) target_x = Player->lx - 2;
    000000BA 79               [ 4]  427 	ld	a, c
    000000BB C6 FC            [ 7]  428 	add	a, #0xfc
    000000BD 6F               [ 4]  429 	ld	l, a
                                    430 ;	spillPairReg hl
                                    431 ;	spillPairReg hl
    000000BE 78               [ 4]  432 	ld	a, b
    000000BF CE FF            [ 7]  433 	adc	a, #0xff
    000000C1 67               [ 4]  434 	ld	h, a
                                    435 ;	spillPairReg hl
                                    436 ;	spillPairReg hl
    000000C2 7B               [ 4]  437 	ld	a, e
    000000C3 95               [ 4]  438 	sub	a, l
    000000C4 7A               [ 4]  439 	ld	a, d
    000000C5 9C               [ 4]  440 	sbc	a, h
    000000C6 E2rCBr00         [10]  441 	jp	PO, 00751$
    000000C9 EE 80            [ 7]  442 	xor	a, #0x80
    000000CB                        443 00751$:
    000000CB F2rD3r00         [10]  444 	jp	P, 00110$
    000000CE 0B               [ 6]  445 	dec	bc
    000000CF 0B               [ 6]  446 	dec	bc
    000000D0 C3rD8r00         [10]  447 	jp	00114$
    000000D3                        448 00110$:
                                    449 ;E:\Dropbox\FAUSTO\SVILUPPI\MSX\CODE\C\MSXgl\projects\soccerlgMSX2/soccerlg_s6_b3.c:35: else target_x = Ball->lx;
    000000D3 DD 4E F7         [19]  450 	ld	c, -9 (ix)
    000000D6 06 00            [ 7]  451 	ld	b, #0x00
    000000D8                        452 00114$:
                                    453 ;E:\Dropbox\FAUSTO\SVILUPPI\MSX\CODE\C\MSXgl\projects\soccerlgMSX2/soccerlg_s6_b3.c:38: if (target_x < 104) target_x = 104;
    000000D8 59               [ 4]  454 	ld	e, c
    000000D9 50               [ 4]  455 	ld	d, b
    000000DA 7B               [ 4]  456 	ld	a, e
    000000DB D6 68            [ 7]  457 	sub	a, #0x68
    000000DD 7A               [ 4]  458 	ld	a, d
    000000DE DE 00            [ 7]  459 	sbc	a, #0x00
    000000E0 30 03            [12]  460 	jr	NC, 00116$
    000000E2 01 68 00         [10]  461 	ld	bc, #0x0068
    000000E5                        462 00116$:
                                    463 ;E:\Dropbox\FAUSTO\SVILUPPI\MSX\CODE\C\MSXgl\projects\soccerlgMSX2/soccerlg_s6_b3.c:39: if (target_x > 152) target_x = 152;
    000000E5 59               [ 4]  464 	ld	e, c
    000000E6 50               [ 4]  465 	ld	d, b
    000000E7 3E 98            [ 7]  466 	ld	a, #0x98
    000000E9 BB               [ 4]  467 	cp	a, e
    000000EA 3E 00            [ 7]  468 	ld	a, #0x00
    000000EC 9A               [ 4]  469 	sbc	a, d
    000000ED 30 03            [12]  470 	jr	NC, 00118$
    000000EF 01 98 00         [10]  471 	ld	bc, #0x0098
    000000F2                        472 00118$:
                                    473 ;E:\Dropbox\FAUSTO\SVILUPPI\MSX\CODE\C\MSXgl\projects\soccerlgMSX2/soccerlg_s6_b3.c:41: target_y = (team == TEAM_1) ? 32 : 480;
    000000F2 DD 7E EC         [19]  474 	ld	a, -20 (ix)
    000000F5 B7               [ 4]  475 	or	a, a
    000000F6 20 06            [12]  476 	jr	NZ, 00221$
    000000F8 11 20 00         [10]  477 	ld	de, #0x0020
    000000FB C3r01r01         [10]  478 	jp	00222$
    000000FE                        479 00221$:
    000000FE 11 E0 01         [10]  480 	ld	de, #0x01e0
    00000101                        481 00222$:
    00000101 DD 73 FA         [19]  482 	ld	-6 (ix), e
    00000104 DD 72 FB         [19]  483 	ld	-5 (ix), d
                                    484 ;E:\Dropbox\FAUSTO\SVILUPPI\MSX\CODE\C\MSXgl\projects\soccerlgMSX2/soccerlg_s6_b3.c:43: Player->dx = (target_x > Player->lx) ? 1 : ((target_x < Player->lx) ? -1 : 0);
    00000107 DD 7E EA         [19]  485 	ld	a, -22 (ix)
    0000010A C6 11            [ 7]  486 	add	a, #0x11
    0000010C DD 77 FC         [19]  487 	ld	-4 (ix), a
    0000010F DD 7E EB         [19]  488 	ld	a, -21 (ix)
    00000112 CE 00            [ 7]  489 	adc	a, #0x00
    00000114 DD 77 FD         [19]  490 	ld	-3 (ix), a
    00000117 DD 5E FE         [19]  491 	ld	e, -2 (ix)
    0000011A 16 00            [ 7]  492 	ld	d, #0x00
    0000011C 7B               [ 4]  493 	ld	a, e
    0000011D 91               [ 4]  494 	sub	a, c
    0000011E 7A               [ 4]  495 	ld	a, d
    0000011F 98               [ 4]  496 	sbc	a, b
    00000120 30 06            [12]  497 	jr	NC, 00223$
    00000122 01 01 00         [10]  498 	ld	bc, #0x0001
    00000125 C3r37r01         [10]  499 	jp	00224$
    00000128                        500 00223$:
    00000128 79               [ 4]  501 	ld	a, c
    00000129 93               [ 4]  502 	sub	a, e
    0000012A 78               [ 4]  503 	ld	a, b
    0000012B 9A               [ 4]  504 	sbc	a, d
    0000012C 30 06            [12]  505 	jr	NC, 00225$
    0000012E 01 FF FF         [10]  506 	ld	bc, #0xffff
    00000131 C3r37r01         [10]  507 	jp	00226$
    00000134                        508 00225$:
    00000134 01 00 00         [10]  509 	ld	bc, #0x0000
    00000137                        510 00226$:
    00000137                        511 00224$:
    00000137 59               [ 4]  512 	ld	e, c
    00000138 DD 6E FC         [19]  513 	ld	l, -4 (ix)
    0000013B DD 66 FD         [19]  514 	ld	h, -3 (ix)
    0000013E 73               [ 7]  515 	ld	(hl), e
                                    516 ;E:\Dropbox\FAUSTO\SVILUPPI\MSX\CODE\C\MSXgl\projects\soccerlgMSX2/soccerlg_s6_b3.c:44: Player->dy = 0;
    0000013F DD 6E EA         [19]  517 	ld	l, -22 (ix)
    00000142 DD 66 EB         [19]  518 	ld	h, -21 (ix)
    00000145 01 12 00         [10]  519 	ld	bc, #0x0012
    00000148 09               [11]  520 	add	hl, bc
    00000149 36 00            [10]  521 	ld	(hl), #0x00
                                    522 ;E:\Dropbox\FAUSTO\SVILUPPI\MSX\CODE\C\MSXgl\projects\soccerlgMSX2/soccerlg_s6_b3.c:46: Player->lx += Player->dx;
    0000014B DD 6E EA         [19]  523 	ld	l, -22 (ix)
    0000014E DD 66 EB         [19]  524 	ld	h, -21 (ix)
    00000151 7E               [ 7]  525 	ld	a, (hl)
    00000152 83               [ 4]  526 	add	a, e
    00000153 DD 6E EA         [19]  527 	ld	l, -22 (ix)
    00000156 DD 66 EB         [19]  528 	ld	h, -21 (ix)
    00000159 77               [ 7]  529 	ld	(hl), a
                                    530 ;E:\Dropbox\FAUSTO\SVILUPPI\MSX\CODE\C\MSXgl\projects\soccerlgMSX2/soccerlg_s6_b3.c:47: Player->ly = target_y; // Forza la Y corretta
    0000015A DD 6E EA         [19]  531 	ld	l, -22 (ix)
    0000015D DD 66 EB         [19]  532 	ld	h, -21 (ix)
    00000160 01 04 00         [10]  533 	ld	bc, #0x0004
    00000163 09               [11]  534 	add	hl, bc
    00000164 DD 7E FA         [19]  535 	ld	a, -6 (ix)
    00000167 77               [ 7]  536 	ld	(hl), a
    00000168 23               [ 6]  537 	inc	hl
    00000169 DD 7E FB         [19]  538 	ld	a, -5 (ix)
    0000016C 77               [ 7]  539 	ld	(hl), a
                                    540 ;E:\Dropbox\FAUSTO\SVILUPPI\MSX\CODE\C\MSXgl\projects\soccerlgMSX2/soccerlg_s6_b3.c:49: Player->anim++;
    0000016D DD 7E EA         [19]  541 	ld	a, -22 (ix)
    00000170 C6 13            [ 7]  542 	add	a, #0x13
    00000172 DD 77 FD         [19]  543 	ld	-3 (ix), a
    00000175 DD 7E EB         [19]  544 	ld	a, -21 (ix)
    00000178 CE 00            [ 7]  545 	adc	a, #0x00
    0000017A DD 77 FE         [19]  546 	ld	-2 (ix), a
    0000017D DD 6E FD         [19]  547 	ld	l, -3 (ix)
    00000180 DD 66 FE         [19]  548 	ld	h, -2 (ix)
    00000183 4E               [ 7]  549 	ld	c, (hl)
    00000184 23               [ 6]  550 	inc	hl
    00000185 46               [ 7]  551 	ld	b, (hl)
    00000186 03               [ 6]  552 	inc	bc
    00000187 DD 6E FD         [19]  553 	ld	l, -3 (ix)
    0000018A DD 66 FE         [19]  554 	ld	h, -2 (ix)
    0000018D 71               [ 7]  555 	ld	(hl), c
    0000018E 23               [ 6]  556 	inc	hl
    0000018F 70               [ 7]  557 	ld	(hl), b
                                    558 ;E:\Dropbox\FAUSTO\SVILUPPI\MSX\CODE\C\MSXgl\projects\soccerlgMSX2/soccerlg_s6_b3.c:51: if (team == TEAM_1) Player->frame = ((Player->anim / 6) % 2 == 0) ? SPR_GK_PLAYER_SOUTH_1 : SPR_GK_PLAYER_SOUTH_2;
    00000190 DD 7E EA         [19]  559 	ld	a, -22 (ix)
    00000193 C6 0F            [ 7]  560 	add	a, #0x0f
    00000195 4F               [ 4]  561 	ld	c, a
    00000196 DD 7E EB         [19]  562 	ld	a, -21 (ix)
    00000199 CE 00            [ 7]  563 	adc	a, #0x00
    0000019B 47               [ 4]  564 	ld	b, a
                                    565 ;E:\Dropbox\FAUSTO\SVILUPPI\MSX\CODE\C\MSXgl\projects\soccerlgMSX2/soccerlg_s6_b3.c:50: if (Player->dx != 0) {
    0000019C 7B               [ 4]  566 	ld	a, e
    0000019D B7               [ 4]  567 	or	a, a
    0000019E 28 48            [12]  568 	jr	Z, 00123$
                                    569 ;E:\Dropbox\FAUSTO\SVILUPPI\MSX\CODE\C\MSXgl\projects\soccerlgMSX2/soccerlg_s6_b3.c:49: Player->anim++;
    000001A0 DD 6E FD         [19]  570 	ld	l, -3 (ix)
    000001A3 DD 66 FE         [19]  571 	ld	h, -2 (ix)
    000001A6 5E               [ 7]  572 	ld	e, (hl)
    000001A7 23               [ 6]  573 	inc	hl
    000001A8 56               [ 7]  574 	ld	d, (hl)
                                    575 ;E:\Dropbox\FAUSTO\SVILUPPI\MSX\CODE\C\MSXgl\projects\soccerlgMSX2/soccerlg_s6_b3.c:51: if (team == TEAM_1) Player->frame = ((Player->anim / 6) % 2 == 0) ? SPR_GK_PLAYER_SOUTH_1 : SPR_GK_PLAYER_SOUTH_2;
    000001A9 C5               [11]  576 	push	bc
    000001AA EB               [ 4]  577 	ex	de, hl
    000001AB 11 06 00         [10]  578 	ld	de, #0x0006
    000001AE CDr00r00         [17]  579 	call	__divuint
    000001B1 C1               [10]  580 	pop	bc
    000001B2 7B               [ 4]  581 	ld	a, e
    000001B3 E6 01            [ 7]  582 	and	a, #0x01
    000001B5 5F               [ 4]  583 	ld	e, a
    000001B6 16 00            [ 7]  584 	ld	d, #0x00
    000001B8 DD 7E EC         [19]  585 	ld	a, -20 (ix)
    000001BB B7               [ 4]  586 	or	a, a
    000001BC 20 15            [12]  587 	jr	NZ, 00120$
    000001BE 7A               [ 4]  588 	ld	a, d
    000001BF B3               [ 4]  589 	or	a, e
    000001C0 20 06            [12]  590 	jr	NZ, 00227$
    000001C2 11 F2 00         [10]  591 	ld	de, #0x00f2
    000001C5 C3rCBr01         [10]  592 	jp	00228$
    000001C8                        593 00227$:
    000001C8 11 F5 00         [10]  594 	ld	de, #0x00f5
    000001CB                        595 00228$:
    000001CB 7B               [ 4]  596 	ld	a, e
    000001CC 02               [ 7]  597 	ld	(bc), a
    000001CD 03               [ 6]  598 	inc	bc
    000001CE 7A               [ 4]  599 	ld	a, d
    000001CF 02               [ 7]  600 	ld	(bc), a
    000001D0 C3r18r0D         [10]  601 	jp	00214$
    000001D3                        602 00120$:
                                    603 ;E:\Dropbox\FAUSTO\SVILUPPI\MSX\CODE\C\MSXgl\projects\soccerlgMSX2/soccerlg_s6_b3.c:52: else                Player->frame = ((Player->anim / 6) % 2 == 0) ? SPR_GK_PLAYER_NORTH_1 : SPR_GK_PLAYER_NORTH_2;
    000001D3 7A               [ 4]  604 	ld	a, d
    000001D4 B3               [ 4]  605 	or	a, e
    000001D5 20 06            [12]  606 	jr	NZ, 00229$
    000001D7 11 F3 00         [10]  607 	ld	de, #0x00f3
    000001DA C3rE0r01         [10]  608 	jp	00230$
    000001DD                        609 00229$:
    000001DD 11 F4 00         [10]  610 	ld	de, #0x00f4
    000001E0                        611 00230$:
    000001E0 7B               [ 4]  612 	ld	a, e
    000001E1 02               [ 7]  613 	ld	(bc), a
    000001E2 03               [ 6]  614 	inc	bc
    000001E3 7A               [ 4]  615 	ld	a, d
    000001E4 02               [ 7]  616 	ld	(bc), a
    000001E5 C3r18r0D         [10]  617 	jp	00214$
    000001E8                        618 00123$:
                                    619 ;E:\Dropbox\FAUSTO\SVILUPPI\MSX\CODE\C\MSXgl\projects\soccerlgMSX2/soccerlg_s6_b3.c:54: Player->frame = (team == TEAM_1) ? SPR_GK_PLAYER_FACE_TO_SOUTH : SPR_GK_PLAYER_FACE_TO_NORTH;
    000001E8 DD 7E EC         [19]  620 	ld	a, -20 (ix)
    000001EB B7               [ 4]  621 	or	a, a
    000001EC 20 06            [12]  622 	jr	NZ, 00231$
    000001EE 11 D5 00         [10]  623 	ld	de, #0x00d5
    000001F1 C3rF7r01         [10]  624 	jp	00232$
    000001F4                        625 00231$:
    000001F4 11 D6 00         [10]  626 	ld	de, #0x00d6
    000001F7                        627 00232$:
    000001F7 7B               [ 4]  628 	ld	a, e
    000001F8 02               [ 7]  629 	ld	(bc), a
    000001F9 03               [ 6]  630 	inc	bc
    000001FA 7A               [ 4]  631 	ld	a, d
    000001FB 02               [ 7]  632 	ld	(bc), a
                                    633 ;E:\Dropbox\FAUSTO\SVILUPPI\MSX\CODE\C\MSXgl\projects\soccerlgMSX2/soccerlg_s6_b3.c:56: return;
    000001FC C3r18r0D         [10]  634 	jp	00214$
    000001FF                        635 00126$:
                                    636 ;E:\Dropbox\FAUSTO\SVILUPPI\MSX\CODE\C\MSXgl\projects\soccerlgMSX2/soccerlg_s6_b3.c:61: u8 role = (team == TEAM_1) ? i : (i - 7); // 1,2: Dif, 3,4: Cen, 5,6: Att
    000001FF DD 7E EC         [19]  637 	ld	a, -20 (ix)
    00000202 B7               [ 4]  638 	or	a, a
    00000203 20 06            [12]  639 	jr	NZ, 00233$
    00000205 DD 7E FF         [19]  640 	ld	a, -1 (ix)
    00000208 C3r10r02         [10]  641 	jp	00234$
    0000020B                        642 00233$:
    0000020B DD 7E FF         [19]  643 	ld	a, -1 (ix)
    0000020E C6 F9            [ 7]  644 	add	a, #0xf9
    00000210                        645 00234$:
    00000210 DD 77 FE         [19]  646 	ld	-2 (ix), a
                                    647 ;E:\Dropbox\FAUSTO\SVILUPPI\MSX\CODE\C\MSXgl\projects\soccerlgMSX2/soccerlg_s6_b3.c:63: u16 base_x = 128;
    00000213 DD 36 F3 80      [19]  648 	ld	-13 (ix), #0x80
    00000217 DD 36 F4 00      [19]  649 	ld	-12 (ix), #0
                                    650 ;E:\Dropbox\FAUSTO\SVILUPPI\MSX\CODE\C\MSXgl\projects\soccerlgMSX2/soccerlg_s6_b3.c:64: u16 base_y = 256;
    0000021B DD 36 F5 00      [19]  651 	ld	-11 (ix), #0x00
    0000021F DD 36 F6 01      [19]  652 	ld	-10 (ix), #0x01
                                    653 ;E:\Dropbox\FAUSTO\SVILUPPI\MSX\CODE\C\MSXgl\projects\soccerlgMSX2/soccerlg_s6_b3.c:67: if (role == 1) { base_x = 64;  base_y = (team == TEAM_1) ? 120 : 392; } // Difensore sx
    00000223 DD 7E FE         [19]  654 	ld	a, -2 (ix)
    00000226 3D               [ 4]  655 	dec	a
    00000227 20 30            [12]  656 	jr	NZ, 00142$
    00000229 DD 36 F3 40      [19]  657 	ld	-13 (ix), #0x40
    0000022D DD 36 F4 00      [19]  658 	ld	-12 (ix), #0
    00000231 DD 7E EC         [19]  659 	ld	a, -20 (ix)
    00000234 B7               [ 4]  660 	or	a, a
    00000235 20 0B            [12]  661 	jr	NZ, 00235$
    00000237 DD 36 FD 78      [19]  662 	ld	-3 (ix), #0x78
    0000023B DD 36 FE 00      [19]  663 	ld	-2 (ix), #0
    0000023F C3r4Ar02         [10]  664 	jp	00236$
    00000242                        665 00235$:
    00000242 DD 36 FD 88      [19]  666 	ld	-3 (ix), #0x88
    00000246 DD 36 FE 01      [19]  667 	ld	-2 (ix), #0x01
    0000024A                        668 00236$:
    0000024A DD 7E FD         [19]  669 	ld	a, -3 (ix)
    0000024D DD 77 F5         [19]  670 	ld	-11 (ix), a
    00000250 DD 7E FE         [19]  671 	ld	a, -2 (ix)
    00000253 DD 77 F6         [19]  672 	ld	-10 (ix), a
    00000256 C3r69r03         [10]  673 	jp	00143$
    00000259                        674 00142$:
                                    675 ;E:\Dropbox\FAUSTO\SVILUPPI\MSX\CODE\C\MSXgl\projects\soccerlgMSX2/soccerlg_s6_b3.c:68: else if (role == 2) { base_x = 192; base_y = (team == TEAM_1) ? 120 : 392; } // Difensore dx
    00000259 DD 7E FE         [19]  676 	ld	a, -2 (ix)
    0000025C D6 02            [ 7]  677 	sub	a, #0x02
    0000025E 20 30            [12]  678 	jr	NZ, 00139$
    00000260 DD 36 F3 C0      [19]  679 	ld	-13 (ix), #0xc0
    00000264 DD 36 F4 00      [19]  680 	ld	-12 (ix), #0
    00000268 DD 7E EC         [19]  681 	ld	a, -20 (ix)
    0000026B B7               [ 4]  682 	or	a, a
    0000026C 20 0B            [12]  683 	jr	NZ, 00237$
    0000026E DD 36 FD 78      [19]  684 	ld	-3 (ix), #0x78
    00000272 DD 36 FE 00      [19]  685 	ld	-2 (ix), #0
    00000276 C3r81r02         [10]  686 	jp	00238$
    00000279                        687 00237$:
    00000279 DD 36 FD 88      [19]  688 	ld	-3 (ix), #0x88
    0000027D DD 36 FE 01      [19]  689 	ld	-2 (ix), #0x01
    00000281                        690 00238$:
    00000281 DD 7E FD         [19]  691 	ld	a, -3 (ix)
    00000284 DD 77 F5         [19]  692 	ld	-11 (ix), a
    00000287 DD 7E FE         [19]  693 	ld	a, -2 (ix)
    0000028A DD 77 F6         [19]  694 	ld	-10 (ix), a
    0000028D C3r69r03         [10]  695 	jp	00143$
    00000290                        696 00139$:
                                    697 ;E:\Dropbox\FAUSTO\SVILUPPI\MSX\CODE\C\MSXgl\projects\soccerlgMSX2/soccerlg_s6_b3.c:69: else if (role == 3) { base_x = 64;  base_y = (team == TEAM_1) ? 200 : 312; } // Centro sx
    00000290 DD 7E FE         [19]  698 	ld	a, -2 (ix)
    00000293 D6 03            [ 7]  699 	sub	a, #0x03
    00000295 20 30            [12]  700 	jr	NZ, 00136$
    00000297 DD 36 F3 40      [19]  701 	ld	-13 (ix), #0x40
    0000029B DD 36 F4 00      [19]  702 	ld	-12 (ix), #0
    0000029F DD 7E EC         [19]  703 	ld	a, -20 (ix)
    000002A2 B7               [ 4]  704 	or	a, a
    000002A3 20 0B            [12]  705 	jr	NZ, 00239$
    000002A5 DD 36 FD C8      [19]  706 	ld	-3 (ix), #0xc8
    000002A9 DD 36 FE 00      [19]  707 	ld	-2 (ix), #0
    000002AD C3rB8r02         [10]  708 	jp	00240$
    000002B0                        709 00239$:
    000002B0 DD 36 FD 38      [19]  710 	ld	-3 (ix), #0x38
    000002B4 DD 36 FE 01      [19]  711 	ld	-2 (ix), #0x01
    000002B8                        712 00240$:
    000002B8 DD 7E FD         [19]  713 	ld	a, -3 (ix)
    000002BB DD 77 F5         [19]  714 	ld	-11 (ix), a
    000002BE DD 7E FE         [19]  715 	ld	a, -2 (ix)
    000002C1 DD 77 F6         [19]  716 	ld	-10 (ix), a
    000002C4 C3r69r03         [10]  717 	jp	00143$
    000002C7                        718 00136$:
                                    719 ;E:\Dropbox\FAUSTO\SVILUPPI\MSX\CODE\C\MSXgl\projects\soccerlgMSX2/soccerlg_s6_b3.c:70: else if (role == 4) { base_x = 192; base_y = (team == TEAM_1) ? 200 : 312; } // Centro dx
    000002C7 DD 7E FE         [19]  720 	ld	a, -2 (ix)
    000002CA D6 04            [ 7]  721 	sub	a, #0x04
    000002CC 20 30            [12]  722 	jr	NZ, 00133$
    000002CE DD 36 F3 C0      [19]  723 	ld	-13 (ix), #0xc0
    000002D2 DD 36 F4 00      [19]  724 	ld	-12 (ix), #0
    000002D6 DD 7E EC         [19]  725 	ld	a, -20 (ix)
    000002D9 B7               [ 4]  726 	or	a, a
    000002DA 20 0B            [12]  727 	jr	NZ, 00241$
    000002DC DD 36 FD C8      [19]  728 	ld	-3 (ix), #0xc8
    000002E0 DD 36 FE 00      [19]  729 	ld	-2 (ix), #0
    000002E4 C3rEFr02         [10]  730 	jp	00242$
    000002E7                        731 00241$:
    000002E7 DD 36 FD 38      [19]  732 	ld	-3 (ix), #0x38
    000002EB DD 36 FE 01      [19]  733 	ld	-2 (ix), #0x01
    000002EF                        734 00242$:
    000002EF DD 7E FD         [19]  735 	ld	a, -3 (ix)
    000002F2 DD 77 F5         [19]  736 	ld	-11 (ix), a
    000002F5 DD 7E FE         [19]  737 	ld	a, -2 (ix)
    000002F8 DD 77 F6         [19]  738 	ld	-10 (ix), a
    000002FB C3r69r03         [10]  739 	jp	00143$
    000002FE                        740 00133$:
                                    741 ;E:\Dropbox\FAUSTO\SVILUPPI\MSX\CODE\C\MSXgl\projects\soccerlgMSX2/soccerlg_s6_b3.c:71: else if (role == 5) { base_x = 80;  base_y = (team == TEAM_1) ? 280 : 232; } // Attaccante sx
    000002FE DD 7E FE         [19]  742 	ld	a, -2 (ix)
    00000301 D6 05            [ 7]  743 	sub	a, #0x05
    00000303 20 30            [12]  744 	jr	NZ, 00130$
    00000305 DD 36 F3 50      [19]  745 	ld	-13 (ix), #0x50
    00000309 DD 36 F4 00      [19]  746 	ld	-12 (ix), #0
    0000030D DD 7E EC         [19]  747 	ld	a, -20 (ix)
    00000310 B7               [ 4]  748 	or	a, a
    00000311 20 0B            [12]  749 	jr	NZ, 00243$
    00000313 DD 36 FD 18      [19]  750 	ld	-3 (ix), #0x18
    00000317 DD 36 FE 01      [19]  751 	ld	-2 (ix), #0x01
    0000031B C3r26r03         [10]  752 	jp	00244$
    0000031E                        753 00243$:
    0000031E DD 36 FD E8      [19]  754 	ld	-3 (ix), #0xe8
    00000322 DD 36 FE 00      [19]  755 	ld	-2 (ix), #0
    00000326                        756 00244$:
    00000326 DD 7E FD         [19]  757 	ld	a, -3 (ix)
    00000329 DD 77 F5         [19]  758 	ld	-11 (ix), a
    0000032C DD 7E FE         [19]  759 	ld	a, -2 (ix)
    0000032F DD 77 F6         [19]  760 	ld	-10 (ix), a
    00000332 C3r69r03         [10]  761 	jp	00143$
    00000335                        762 00130$:
                                    763 ;E:\Dropbox\FAUSTO\SVILUPPI\MSX\CODE\C\MSXgl\projects\soccerlgMSX2/soccerlg_s6_b3.c:72: else if (role == 6) { base_x = 176; base_y = (team == TEAM_1) ? 280 : 232; } // Attaccante dx
    00000335 DD 7E FE         [19]  764 	ld	a, -2 (ix)
    00000338 D6 06            [ 7]  765 	sub	a, #0x06
    0000033A 20 2D            [12]  766 	jr	NZ, 00143$
    0000033C DD 36 F3 B0      [19]  767 	ld	-13 (ix), #0xb0
    00000340 DD 36 F4 00      [19]  768 	ld	-12 (ix), #0
    00000344 DD 7E EC         [19]  769 	ld	a, -20 (ix)
    00000347 B7               [ 4]  770 	or	a, a
    00000348 20 0B            [12]  771 	jr	NZ, 00245$
    0000034A DD 36 FD 18      [19]  772 	ld	-3 (ix), #0x18
    0000034E DD 36 FE 01      [19]  773 	ld	-2 (ix), #0x01
    00000352 C3r5Dr03         [10]  774 	jp	00246$
    00000355                        775 00245$:
    00000355 DD 36 FD E8      [19]  776 	ld	-3 (ix), #0xe8
    00000359 DD 36 FE 00      [19]  777 	ld	-2 (ix), #0
    0000035D                        778 00246$:
    0000035D DD 7E FD         [19]  779 	ld	a, -3 (ix)
    00000360 DD 77 F5         [19]  780 	ld	-11 (ix), a
    00000363 DD 7E FE         [19]  781 	ld	a, -2 (ix)
    00000366 DD 77 F6         [19]  782 	ld	-10 (ix), a
    00000369                        783 00143$:
                                    784 ;E:\Dropbox\FAUSTO\SVILUPPI\MSX\CODE\C\MSXgl\projects\soccerlgMSX2/soccerlg_s6_b3.c:75: i16 ball_offset_x = (i16)Ball->lx - 128;
    00000369 DD 7E F7         [19]  785 	ld	a, -9 (ix)
    0000036C DD 77 F8         [19]  786 	ld	-8 (ix), a
    0000036F DD 7E F7         [19]  787 	ld	a, -9 (ix)
    00000372 DD 77 FD         [19]  788 	ld	-3 (ix), a
    00000375 DD 36 FE 00      [19]  789 	ld	-2 (ix), #0x00
    00000379 DD 7E FD         [19]  790 	ld	a, -3 (ix)
    0000037C DD 77 FB         [19]  791 	ld	-5 (ix), a
    0000037F DD 7E FE         [19]  792 	ld	a, -2 (ix)
    00000382 DD 77 FC         [19]  793 	ld	-4 (ix), a
    00000385 DD 7E FB         [19]  794 	ld	a, -5 (ix)
    00000388 C6 80            [ 7]  795 	add	a, #0x80
    0000038A DD 77 FD         [19]  796 	ld	-3 (ix), a
    0000038D DD 7E FC         [19]  797 	ld	a, -4 (ix)
    00000390 CE FF            [ 7]  798 	adc	a, #0xff
    00000392 DD 77 FE         [19]  799 	ld	-2 (ix), a
                                    800 ;E:\Dropbox\FAUSTO\SVILUPPI\MSX\CODE\C\MSXgl\projects\soccerlgMSX2/soccerlg_s6_b3.c:76: i16 ball_offset_y = (i16)Ball->ly - 256;
    00000395 21r46r01         [10]  801 	ld	hl, #(_SwSprite + 326)
    00000398 7E               [ 7]  802 	ld	a, (hl)
    00000399 DD 77 F9         [19]  803 	ld	-7 (ix), a
    0000039C 23               [ 6]  804 	inc	hl
    0000039D 7E               [ 7]  805 	ld	a, (hl)
    0000039E DD 77 FA         [19]  806 	ld	-6 (ix), a
    000003A1 DD 7E F9         [19]  807 	ld	a, -7 (ix)
    000003A4 DD 77 FB         [19]  808 	ld	-5 (ix), a
    000003A7 DD 7E FA         [19]  809 	ld	a, -6 (ix)
    000003AA DD 77 FC         [19]  810 	ld	-4 (ix), a
    000003AD DD 7E FB         [19]  811 	ld	a, -5 (ix)
    000003B0 DD 77 F1         [19]  812 	ld	-15 (ix), a
    000003B3 DD 7E FC         [19]  813 	ld	a, -4 (ix)
    000003B6 DD 77 F2         [19]  814 	ld	-14 (ix), a
    000003B9 DD 7E F1         [19]  815 	ld	a, -15 (ix)
    000003BC C6 00            [ 7]  816 	add	a, #0x00
    000003BE DD 77 FB         [19]  817 	ld	-5 (ix), a
    000003C1 DD 7E F2         [19]  818 	ld	a, -14 (ix)
    000003C4 CE FF            [ 7]  819 	adc	a, #0xff
    000003C6 DD 77 FC         [19]  820 	ld	-4 (ix), a
                                    821 ;E:\Dropbox\FAUSTO\SVILUPPI\MSX\CODE\C\MSXgl\projects\soccerlgMSX2/soccerlg_s6_b3.c:78: target_x = base_x + (ball_offset_x / 2);
    000003C9 DD 7E FD         [19]  822 	ld	a, -3 (ix)
    000003CC DD 77 F1         [19]  823 	ld	-15 (ix), a
    000003CF DD 7E FE         [19]  824 	ld	a, -2 (ix)
    000003D2 DD 77 F2         [19]  825 	ld	-14 (ix), a
    000003D5 DD 7E F1         [19]  826 	ld	a, -15 (ix)
    000003D8 DD 77 FD         [19]  827 	ld	-3 (ix), a
    000003DB DD 7E F2         [19]  828 	ld	a, -14 (ix)
    000003DE DD 77 FE         [19]  829 	ld	-2 (ix), a
    000003E1 DD CB F2 7E      [20]  830 	bit	7, -14 (ix)
    000003E5 28 10            [12]  831 	jr	Z, 00247$
    000003E7 DD 7E F1         [19]  832 	ld	a, -15 (ix)
    000003EA C6 01            [ 7]  833 	add	a, #0x01
    000003EC DD 77 FD         [19]  834 	ld	-3 (ix), a
    000003EF DD 7E F2         [19]  835 	ld	a, -14 (ix)
    000003F2 CE 00            [ 7]  836 	adc	a, #0x00
    000003F4 DD 77 FE         [19]  837 	ld	-2 (ix), a
    000003F7                        838 00247$:
    000003F7 DD CB FE 2E      [23]  839 	sra	-2 (ix)
    000003FB DD CB FD 1E      [23]  840 	rr	-3 (ix)
    000003FF DD 7E F3         [19]  841 	ld	a, -13 (ix)
    00000402 DD 77 F1         [19]  842 	ld	-15 (ix), a
    00000405 DD 7E F4         [19]  843 	ld	a, -12 (ix)
    00000408 DD 77 F2         [19]  844 	ld	-14 (ix), a
    0000040B DD 7E FD         [19]  845 	ld	a, -3 (ix)
    0000040E DD 77 F3         [19]  846 	ld	-13 (ix), a
    00000411 DD 7E FE         [19]  847 	ld	a, -2 (ix)
    00000414 DD 77 F4         [19]  848 	ld	-12 (ix), a
    00000417 DD 7E F1         [19]  849 	ld	a, -15 (ix)
    0000041A DD 86 F3         [19]  850 	add	a, -13 (ix)
    0000041D DD 77 FD         [19]  851 	ld	-3 (ix), a
    00000420 DD 7E F2         [19]  852 	ld	a, -14 (ix)
    00000423 DD 8E F4         [19]  853 	adc	a, -12 (ix)
    00000426 DD 77 FE         [19]  854 	ld	-2 (ix), a
    00000429 DD 7E FD         [19]  855 	ld	a, -3 (ix)
    0000042C DD 77 ED         [19]  856 	ld	-19 (ix), a
    0000042F DD 7E FE         [19]  857 	ld	a, -2 (ix)
    00000432 DD 77 EE         [19]  858 	ld	-18 (ix), a
                                    859 ;E:\Dropbox\FAUSTO\SVILUPPI\MSX\CODE\C\MSXgl\projects\soccerlgMSX2/soccerlg_s6_b3.c:79: target_y = base_y + (ball_offset_y / 3);
    00000435 DD 7E FB         [19]  860 	ld	a, -5 (ix)
    00000438 DD 77 FD         [19]  861 	ld	-3 (ix), a
    0000043B DD 7E FC         [19]  862 	ld	a, -4 (ix)
    0000043E DD 77 FE         [19]  863 	ld	-2 (ix), a
    00000441 11 03 00         [10]  864 	ld	de, #0x0003
    00000444 DD 6E FD         [19]  865 	ld	l, -3 (ix)
                                    866 ;	spillPairReg hl
                                    867 ;	spillPairReg hl
    00000447 DD 66 FE         [19]  868 	ld	h, -2 (ix)
                                    869 ;	spillPairReg hl
                                    870 ;	spillPairReg hl
    0000044A CDr00r00         [17]  871 	call	__divsint
    0000044D DD 6E F5         [19]  872 	ld	l, -11 (ix)
                                    873 ;	spillPairReg hl
                                    874 ;	spillPairReg hl
    00000450 DD 66 F6         [19]  875 	ld	h, -10 (ix)
                                    876 ;	spillPairReg hl
                                    877 ;	spillPairReg hl
    00000453 19               [11]  878 	add	hl, de
    00000454 DD 75 EF         [19]  879 	ld	-17 (ix), l
    00000457 DD 74 F0         [19]  880 	ld	-16 (ix), h
                                    881 ;E:\Dropbox\FAUSTO\SVILUPPI\MSX\CODE\C\MSXgl\projects\soccerlgMSX2/soccerlg_s6_b3.c:82: if (LastTouchTeam == team) {
    0000045A 3Ar00r00         [13]  882 	ld	a, (_LastTouchTeam+0)
    0000045D DD 96 EC         [19]  883 	sub	a, -20 (ix)
    00000460 20 52            [12]  884 	jr	NZ, 00160$
                                    885 ;E:\Dropbox\FAUSTO\SVILUPPI\MSX\CODE\C\MSXgl\projects\soccerlgMSX2/soccerlg_s6_b3.c:83: target_y += (team == TEAM_1) ? 40 : -40; // Fase offensiva
    00000462 DD 7E EC         [19]  886 	ld	a, -20 (ix)
    00000465 B7               [ 4]  887 	or	a, a
    00000466 20 0B            [12]  888 	jr	NZ, 00248$
    00000468 DD 36 FD 28      [19]  889 	ld	-3 (ix), #0x28
    0000046C DD 36 FE 00      [19]  890 	ld	-2 (ix), #0
    00000470 C3r7Br04         [10]  891 	jp	00249$
    00000473                        892 00248$:
    00000473 DD 36 FD D8      [19]  893 	ld	-3 (ix), #0xd8
    00000477 DD 36 FE FF      [19]  894 	ld	-2 (ix), #0xff
    0000047B                        895 00249$:
    0000047B DD 7E EF         [19]  896 	ld	a, -17 (ix)
    0000047E DD 77 FB         [19]  897 	ld	-5 (ix), a
    00000481 DD 7E F0         [19]  898 	ld	a, -16 (ix)
    00000484 DD 77 FC         [19]  899 	ld	-4 (ix), a
    00000487 DD 7E FD         [19]  900 	ld	a, -3 (ix)
    0000048A DD 77 F6         [19]  901 	ld	-10 (ix), a
    0000048D DD 7E FE         [19]  902 	ld	a, -2 (ix)
    00000490 DD 77 F7         [19]  903 	ld	-9 (ix), a
    00000493 DD 7E F6         [19]  904 	ld	a, -10 (ix)
    00000496 DD 86 FB         [19]  905 	add	a, -5 (ix)
    00000499 DD 77 FD         [19]  906 	ld	-3 (ix), a
    0000049C DD 7E F7         [19]  907 	ld	a, -9 (ix)
    0000049F DD 8E FC         [19]  908 	adc	a, -4 (ix)
    000004A2 DD 77 FE         [19]  909 	ld	-2 (ix), a
    000004A5 DD 7E FD         [19]  910 	ld	a, -3 (ix)
    000004A8 DD 77 EF         [19]  911 	ld	-17 (ix), a
    000004AB DD 7E FE         [19]  912 	ld	a, -2 (ix)
    000004AE DD 77 F0         [19]  913 	ld	-16 (ix), a
    000004B1 C3r94r06         [10]  914 	jp	00161$
    000004B4                        915 00160$:
                                    916 ;E:\Dropbox\FAUSTO\SVILUPPI\MSX\CODE\C\MSXgl\projects\soccerlgMSX2/soccerlg_s6_b3.c:84: } else if (LastTouchTeam != 0xFF) {
    000004B4 3Ar00r00         [13]  917 	ld	a, (_LastTouchTeam+0)
    000004B7 3C               [ 4]  918 	inc	a
    000004B8 CAr94r06         [10]  919 	jp	Z,00161$
                                    920 ;E:\Dropbox\FAUSTO\SVILUPPI\MSX\CODE\C\MSXgl\projects\soccerlgMSX2/soccerlg_s6_b3.c:85: target_y += (team == TEAM_1) ? -24 : 24; // Fase difensiva (ripiegamento controllato)
    000004BB DD 7E EC         [19]  921 	ld	a, -20 (ix)
    000004BE B7               [ 4]  922 	or	a, a
    000004BF 20 0B            [12]  923 	jr	NZ, 00250$
    000004C1 DD 36 FD E8      [19]  924 	ld	-3 (ix), #0xe8
    000004C5 DD 36 FE FF      [19]  925 	ld	-2 (ix), #0xff
    000004C9 C3rD4r04         [10]  926 	jp	00251$
    000004CC                        927 00250$:
    000004CC DD 36 FD 18      [19]  928 	ld	-3 (ix), #0x18
    000004D0 DD 36 FE 00      [19]  929 	ld	-2 (ix), #0
    000004D4                        930 00251$:
    000004D4 DD 7E EF         [19]  931 	ld	a, -17 (ix)
    000004D7 DD 77 FB         [19]  932 	ld	-5 (ix), a
    000004DA DD 7E F0         [19]  933 	ld	a, -16 (ix)
    000004DD DD 77 FC         [19]  934 	ld	-4 (ix), a
    000004E0 DD 7E FD         [19]  935 	ld	a, -3 (ix)
    000004E3 DD 77 F5         [19]  936 	ld	-11 (ix), a
    000004E6 DD 7E FE         [19]  937 	ld	a, -2 (ix)
    000004E9 DD 77 F6         [19]  938 	ld	-10 (ix), a
    000004EC DD 7E F5         [19]  939 	ld	a, -11 (ix)
    000004EF DD 86 FB         [19]  940 	add	a, -5 (ix)
    000004F2 DD 77 FD         [19]  941 	ld	-3 (ix), a
    000004F5 DD 7E F6         [19]  942 	ld	a, -10 (ix)
    000004F8 DD 8E FC         [19]  943 	adc	a, -4 (ix)
    000004FB DD 77 FE         [19]  944 	ld	-2 (ix), a
    000004FE DD 7E FD         [19]  945 	ld	a, -3 (ix)
    00000501 DD 77 EF         [19]  946 	ld	-17 (ix), a
    00000504 DD 7E FE         [19]  947 	ld	a, -2 (ix)
    00000507 DD 77 F0         [19]  948 	ld	-16 (ix), a
                                    949 ;E:\Dropbox\FAUSTO\SVILUPPI\MSX\CODE\C\MSXgl\projects\soccerlgMSX2/soccerlg_s6_b3.c:83: target_y += (team == TEAM_1) ? 40 : -40; // Fase offensiva
    0000050A DD 7E EF         [19]  950 	ld	a, -17 (ix)
    0000050D DD 77 FB         [19]  951 	ld	-5 (ix), a
    00000510 DD 7E F0         [19]  952 	ld	a, -16 (ix)
    00000513 DD 77 FC         [19]  953 	ld	-4 (ix), a
                                    954 ;E:\Dropbox\FAUSTO\SVILUPPI\MSX\CODE\C\MSXgl\projects\soccerlgMSX2/soccerlg_s6_b3.c:90: if (target_y < 72 && Ball->ly > 72) target_y = 72;
    00000516 DD 7E F9         [19]  955 	ld	a, -7 (ix)
    00000519 DD 77 FD         [19]  956 	ld	-3 (ix), a
    0000051C DD 7E FA         [19]  957 	ld	a, -6 (ix)
    0000051F DD 77 FE         [19]  958 	ld	-2 (ix), a
                                    959 ;E:\Dropbox\FAUSTO\SVILUPPI\MSX\CODE\C\MSXgl\projects\soccerlgMSX2/soccerlg_s6_b3.c:88: if (team == TEAM_1) {
    00000522 DD 7E EC         [19]  960 	ld	a, -20 (ix)
    00000525 B7               [ 4]  961 	or	a, a
    00000526 C2rDEr05         [10]  962 	jp	NZ, 00155$
                                    963 ;E:\Dropbox\FAUSTO\SVILUPPI\MSX\CODE\C\MSXgl\projects\soccerlgMSX2/soccerlg_s6_b3.c:90: if (target_y < 72 && Ball->ly > 72) target_y = 72;
    00000529 DD 7E FB         [19]  964 	ld	a, -5 (ix)
    0000052C D6 48            [ 7]  965 	sub	a, #0x48
    0000052E DD 7E FC         [19]  966 	ld	a, -4 (ix)
    00000531 DE 00            [ 7]  967 	sbc	a, #0x00
    00000533 30 14            [12]  968 	jr	NC, 00145$
    00000535 3E 48            [ 7]  969 	ld	a, #0x48
    00000537 DD BE FD         [19]  970 	cp	a, -3 (ix)
    0000053A 3E 00            [ 7]  971 	ld	a, #0x00
    0000053C DD 9E FE         [19]  972 	sbc	a, -2 (ix)
    0000053F 30 08            [12]  973 	jr	NC, 00145$
    00000541 DD 36 EF 48      [19]  974 	ld	-17 (ix), #0x48
    00000545 DD 36 F0 00      [19]  975 	ld	-16 (ix), #0
    00000549                        976 00145$:
                                    977 ;E:\Dropbox\FAUSTO\SVILUPPI\MSX\CODE\C\MSXgl\projects\soccerlgMSX2/soccerlg_s6_b3.c:92: if (Ball->ly < 256) {
    00000549 DD 7E FE         [19]  978 	ld	a, -2 (ix)
    0000054C D6 01            [ 7]  979 	sub	a, #0x01
    0000054E D2r94r06         [10]  980 	jp	NC, 00161$
                                    981 ;E:\Dropbox\FAUSTO\SVILUPPI\MSX\CODE\C\MSXgl\projects\soccerlgMSX2/soccerlg_s6_b3.c:93: target_y = (target_y + Ball->ly - 16) / 2;
    00000551 DD 7E F9         [19]  982 	ld	a, -7 (ix)
    00000554 DD 86 EF         [19]  983 	add	a, -17 (ix)
    00000557 DD 77 FD         [19]  984 	ld	-3 (ix), a
    0000055A DD 7E FA         [19]  985 	ld	a, -6 (ix)
    0000055D DD 8E F0         [19]  986 	adc	a, -16 (ix)
    00000560 DD 77 FE         [19]  987 	ld	-2 (ix), a
    00000563 DD 7E FD         [19]  988 	ld	a, -3 (ix)
    00000566 DD 77 FB         [19]  989 	ld	-5 (ix), a
    00000569 DD 7E FE         [19]  990 	ld	a, -2 (ix)
    0000056C DD 77 FC         [19]  991 	ld	-4 (ix), a
    0000056F DD 7E FB         [19]  992 	ld	a, -5 (ix)
    00000572 C6 F0            [ 7]  993 	add	a, #0xf0
    00000574 DD 77 FD         [19]  994 	ld	-3 (ix), a
    00000577 DD 7E FC         [19]  995 	ld	a, -4 (ix)
    0000057A CE FF            [ 7]  996 	adc	a, #0xff
    0000057C DD 77 FE         [19]  997 	ld	-2 (ix), a
    0000057F DD CB FE 3E      [23]  998 	srl	-2 (ix)
    00000583 DD CB FD 1E      [23]  999 	rr	-3 (ix)
    00000587 DD 7E FD         [19] 1000 	ld	a, -3 (ix)
    0000058A DD 77 EF         [19] 1001 	ld	-17 (ix), a
    0000058D DD 7E FE         [19] 1002 	ld	a, -2 (ix)
    00000590 DD 77 F0         [19] 1003 	ld	-16 (ix), a
                                   1004 ;E:\Dropbox\FAUSTO\SVILUPPI\MSX\CODE\C\MSXgl\projects\soccerlgMSX2/soccerlg_s6_b3.c:94: target_x = (target_x + Ball->lx) / 2;
    00000593 DD 7E F7         [19] 1005 	ld	a, -9 (ix)
    00000596 DD 77 FD         [19] 1006 	ld	-3 (ix), a
    00000599 DD 36 FE 00      [19] 1007 	ld	-2 (ix), #0x00
    0000059D DD 7E ED         [19] 1008 	ld	a, -19 (ix)
    000005A0 DD 77 FB         [19] 1009 	ld	-5 (ix), a
    000005A3 DD 7E EE         [19] 1010 	ld	a, -18 (ix)
    000005A6 DD 77 FC         [19] 1011 	ld	-4 (ix), a
    000005A9 DD 7E FD         [19] 1012 	ld	a, -3 (ix)
    000005AC DD 86 FB         [19] 1013 	add	a, -5 (ix)
    000005AF DD 77 F6         [19] 1014 	ld	-10 (ix), a
    000005B2 DD 7E FE         [19] 1015 	ld	a, -2 (ix)
    000005B5 DD 8E FC         [19] 1016 	adc	a, -4 (ix)
    000005B8 DD 77 F7         [19] 1017 	ld	-9 (ix), a
    000005BB DD 7E F6         [19] 1018 	ld	a, -10 (ix)
    000005BE DD 77 FD         [19] 1019 	ld	-3 (ix), a
    000005C1 DD 7E F7         [19] 1020 	ld	a, -9 (ix)
    000005C4 DD 77 FE         [19] 1021 	ld	-2 (ix), a
    000005C7 DD CB FE 3E      [23] 1022 	srl	-2 (ix)
    000005CB DD CB FD 1E      [23] 1023 	rr	-3 (ix)
    000005CF DD 7E FD         [19] 1024 	ld	a, -3 (ix)
    000005D2 DD 77 ED         [19] 1025 	ld	-19 (ix), a
    000005D5 DD 7E FE         [19] 1026 	ld	a, -2 (ix)
    000005D8 DD 77 EE         [19] 1027 	ld	-18 (ix), a
    000005DB C3r94r06         [10] 1028 	jp	00161$
    000005DE                       1029 00155$:
                                   1030 ;E:\Dropbox\FAUSTO\SVILUPPI\MSX\CODE\C\MSXgl\projects\soccerlgMSX2/soccerlg_s6_b3.c:98: if (target_y > 440 && Ball->ly < 440) target_y = 440;
    000005DE 3E B8            [ 7] 1031 	ld	a, #0xb8
    000005E0 DD BE FB         [19] 1032 	cp	a, -5 (ix)
    000005E3 3E 01            [ 7] 1033 	ld	a, #0x01
    000005E5 DD 9E FC         [19] 1034 	sbc	a, -4 (ix)
    000005E8 30 14            [12] 1035 	jr	NC, 00150$
    000005EA DD 7E FD         [19] 1036 	ld	a, -3 (ix)
    000005ED D6 B8            [ 7] 1037 	sub	a, #0xb8
    000005EF DD 7E FE         [19] 1038 	ld	a, -2 (ix)
    000005F2 DE 01            [ 7] 1039 	sbc	a, #0x01
    000005F4 30 08            [12] 1040 	jr	NC, 00150$
    000005F6 DD 36 EF B8      [19] 1041 	ld	-17 (ix), #0xb8
    000005FA DD 36 F0 01      [19] 1042 	ld	-16 (ix), #0x01
    000005FE                       1043 00150$:
                                   1044 ;E:\Dropbox\FAUSTO\SVILUPPI\MSX\CODE\C\MSXgl\projects\soccerlgMSX2/soccerlg_s6_b3.c:100: if (Ball->ly > 256) {
    000005FE AF               [ 4] 1045 	xor	a, a
    000005FF DD BE FD         [19] 1046 	cp	a, -3 (ix)
    00000602 3E 01            [ 7] 1047 	ld	a, #0x01
    00000604 DD 9E FE         [19] 1048 	sbc	a, -2 (ix)
    00000607 D2r94r06         [10] 1049 	jp	NC, 00161$
                                   1050 ;E:\Dropbox\FAUSTO\SVILUPPI\MSX\CODE\C\MSXgl\projects\soccerlgMSX2/soccerlg_s6_b3.c:101: target_y = (target_y + Ball->ly + 16) / 2;
    0000060A DD 7E F9         [19] 1051 	ld	a, -7 (ix)
    0000060D DD 86 EF         [19] 1052 	add	a, -17 (ix)
    00000610 DD 77 FD         [19] 1053 	ld	-3 (ix), a
    00000613 DD 7E FA         [19] 1054 	ld	a, -6 (ix)
    00000616 DD 8E F0         [19] 1055 	adc	a, -16 (ix)
    00000619 DD 77 FE         [19] 1056 	ld	-2 (ix), a
    0000061C DD 7E FD         [19] 1057 	ld	a, -3 (ix)
    0000061F DD 77 FB         [19] 1058 	ld	-5 (ix), a
    00000622 DD 7E FE         [19] 1059 	ld	a, -2 (ix)
    00000625 DD 77 FC         [19] 1060 	ld	-4 (ix), a
    00000628 DD 7E FB         [19] 1061 	ld	a, -5 (ix)
    0000062B C6 10            [ 7] 1062 	add	a, #0x10
    0000062D DD 77 FD         [19] 1063 	ld	-3 (ix), a
    00000630 DD 7E FC         [19] 1064 	ld	a, -4 (ix)
    00000633 CE 00            [ 7] 1065 	adc	a, #0x00
    00000635 DD 77 FE         [19] 1066 	ld	-2 (ix), a
    00000638 DD CB FE 3E      [23] 1067 	srl	-2 (ix)
    0000063C DD CB FD 1E      [23] 1068 	rr	-3 (ix)
    00000640 DD 7E FD         [19] 1069 	ld	a, -3 (ix)
    00000643 DD 77 EF         [19] 1070 	ld	-17 (ix), a
    00000646 DD 7E FE         [19] 1071 	ld	a, -2 (ix)
    00000649 DD 77 F0         [19] 1072 	ld	-16 (ix), a
                                   1073 ;E:\Dropbox\FAUSTO\SVILUPPI\MSX\CODE\C\MSXgl\projects\soccerlgMSX2/soccerlg_s6_b3.c:102: target_x = (target_x + Ball->lx) / 2;
    0000064C DD 7E F7         [19] 1074 	ld	a, -9 (ix)
    0000064F DD 77 FD         [19] 1075 	ld	-3 (ix), a
    00000652 DD 36 FE 00      [19] 1076 	ld	-2 (ix), #0x00
    00000656 DD 7E ED         [19] 1077 	ld	a, -19 (ix)
    00000659 DD 77 FB         [19] 1078 	ld	-5 (ix), a
    0000065C DD 7E EE         [19] 1079 	ld	a, -18 (ix)
    0000065F DD 77 FC         [19] 1080 	ld	-4 (ix), a
    00000662 DD 7E FD         [19] 1081 	ld	a, -3 (ix)
    00000665 DD 86 FB         [19] 1082 	add	a, -5 (ix)
    00000668 DD 77 F6         [19] 1083 	ld	-10 (ix), a
    0000066B DD 7E FE         [19] 1084 	ld	a, -2 (ix)
    0000066E DD 8E FC         [19] 1085 	adc	a, -4 (ix)
    00000671 DD 77 F7         [19] 1086 	ld	-9 (ix), a
    00000674 DD 7E F6         [19] 1087 	ld	a, -10 (ix)
    00000677 DD 77 FD         [19] 1088 	ld	-3 (ix), a
    0000067A DD 7E F7         [19] 1089 	ld	a, -9 (ix)
    0000067D DD 77 FE         [19] 1090 	ld	-2 (ix), a
    00000680 DD CB FE 3E      [23] 1091 	srl	-2 (ix)
    00000684 DD CB FD 1E      [23] 1092 	rr	-3 (ix)
    00000688 DD 7E FD         [19] 1093 	ld	a, -3 (ix)
    0000068B DD 77 ED         [19] 1094 	ld	-19 (ix), a
    0000068E DD 7E FE         [19] 1095 	ld	a, -2 (ix)
    00000691 DD 77 EE         [19] 1096 	ld	-18 (ix), a
    00000694                       1097 00161$:
                                   1098 ;E:\Dropbox\FAUSTO\SVILUPPI\MSX\CODE\C\MSXgl\projects\soccerlgMSX2/soccerlg_s6_b3.c:108: bool is_cpu_team = (GameMode == GAMEMODE_P1_VS_CPU && team == TEAM_1);
    00000694 3Ar00r00         [13] 1099 	ld	a, (_GameMode+0)
    00000697 B7               [ 4] 1100 	or	a, a
    00000698 20 06            [12] 1101 	jr	NZ, 00252$
    0000069A DD 7E EC         [19] 1102 	ld	a, -20 (ix)
    0000069D B7               [ 4] 1103 	or	a, a
    0000069E 28 04            [12] 1104 	jr	Z, 00253$
    000006A0                       1105 00252$:
    000006A0 AF               [ 4] 1106 	xor	a, a
    000006A1 C3rA6r06         [10] 1107 	jp	00254$
    000006A4                       1108 00253$:
    000006A4 3E 01            [ 7] 1109 	ld	a, #0x01
    000006A6                       1110 00254$:
                                   1111 ;E:\Dropbox\FAUSTO\SVILUPPI\MSX\CODE\C\MSXgl\projects\soccerlgMSX2/soccerlg_s6_b3.c:110: if (is_cpu_team) {
    000006A6 B7               [ 4] 1112 	or	a, a
    000006A7 CArFFr08         [10] 1113 	jp	Z, 00183$
                                   1114 ;E:\Dropbox\FAUSTO\SVILUPPI\MSX\CODE\C\MSXgl\projects\soccerlgMSX2/soccerlg_s6_b3.c:112: u8 closest_cpu = 0xFF;
    000006AA 0E FF            [ 7] 1115 	ld	c, #0xff
                                   1116 ;E:\Dropbox\FAUSTO\SVILUPPI\MSX\CODE\C\MSXgl\projects\soccerlgMSX2/soccerlg_s6_b3.c:113: u16 min_dist = 0xFFFF;
    000006AC DD 36 FB FF      [19] 1117 	ld	-5 (ix), #0xff
    000006B0 DD 36 FC FF      [19] 1118 	ld	-4 (ix), #0xff
                                   1119 ;E:\Dropbox\FAUSTO\SVILUPPI\MSX\CODE\C\MSXgl\projects\soccerlgMSX2/soccerlg_s6_b3.c:117: for (u8 j = start_cpu; j < end_cpu; j++) {
    000006B4 06 01            [ 7] 1120 	ld	b, #0x01
    000006B6                       1121 00212$:
    000006B6 78               [ 4] 1122 	ld	a, b
    000006B7 D6 07            [ 7] 1123 	sub	a, #0x07
    000006B9 30 73            [12] 1124 	jr	NC, 00164$
                                   1125 ;E:\Dropbox\FAUSTO\SVILUPPI\MSX\CODE\C\MSXgl\projects\soccerlgMSX2/soccerlg_s6_b3.c:118: u8 dx_diff = (u8)(SwSprite[j].lx - Ball->lx);
    000006BB 58               [ 4] 1126 	ld	e, b
    000006BC 16 00            [ 7] 1127 	ld	d, #0x00
    000006BE 6B               [ 4] 1128 	ld	l, e
    000006BF 62               [ 4] 1129 	ld	h, d
    000006C0 29               [11] 1130 	add	hl, hl
    000006C1 29               [11] 1131 	add	hl, hl
    000006C2 19               [11] 1132 	add	hl, de
    000006C3 29               [11] 1133 	add	hl, hl
    000006C4 19               [11] 1134 	add	hl, de
    000006C5 29               [11] 1135 	add	hl, hl
    000006C6 19               [11] 1136 	add	hl, de
    000006C7 11r00r00         [10] 1137 	ld	de, #_SwSprite
    000006CA 19               [11] 1138 	add	hl, de
    000006CB DD 75 FD         [19] 1139 	ld	-3 (ix), l
    000006CE DD 74 FE         [19] 1140 	ld	-2 (ix), h
    000006D1 7E               [ 7] 1141 	ld	a, (hl)
    000006D2 DD 96 F8         [19] 1142 	sub	a, -8 (ix)
                                   1143 ;E:\Dropbox\FAUSTO\SVILUPPI\MSX\CODE\C\MSXgl\projects\soccerlgMSX2/soccerlg_s6_b3.c:119: u16 dx = (dx_diff < 128) ? dx_diff : (256 - dx_diff);
    000006D5 5F               [ 4] 1144 	ld	e, a
    000006D6 16 00            [ 7] 1145 	ld	d, #0x00
    000006D8 D6 80            [ 7] 1146 	sub	a, #0x80
    000006DA 38 07            [12] 1147 	jr	C, 00256$
    000006DC 21 00 01         [10] 1148 	ld	hl, #0x0100
    000006DF BF               [ 4] 1149 	cp	a, a
    000006E0 ED 52            [15] 1150 	sbc	hl, de
    000006E2 EB               [ 4] 1151 	ex	de, hl
    000006E3                       1152 00256$:
                                   1153 ;E:\Dropbox\FAUSTO\SVILUPPI\MSX\CODE\C\MSXgl\projects\soccerlgMSX2/soccerlg_s6_b3.c:120: u16 dy_diff = (u16)(SwSprite[j].ly - Ball->ly) & 511;
    000006E3 DD 6E FD         [19] 1154 	ld	l, -3 (ix)
                                   1155 ;	spillPairReg hl
                                   1156 ;	spillPairReg hl
    000006E6 DD 66 FE         [19] 1157 	ld	h, -2 (ix)
                                   1158 ;	spillPairReg hl
                                   1159 ;	spillPairReg hl
    000006E9 23               [ 6] 1160 	inc	hl
    000006EA 23               [ 6] 1161 	inc	hl
    000006EB 23               [ 6] 1162 	inc	hl
    000006EC 23               [ 6] 1163 	inc	hl
    000006ED 7E               [ 7] 1164 	ld	a, (hl)
    000006EE 23               [ 6] 1165 	inc	hl
    000006EF 66               [ 7] 1166 	ld	h, (hl)
                                   1167 ;	spillPairReg hl
                                   1168 ;	spillPairReg hl
                                   1169 ;	spillPairReg hl
    000006F0 DD 96 F9         [19] 1170 	sub	a, -7 (ix)
    000006F3 6F               [ 4] 1171 	ld	l, a
                                   1172 ;	spillPairReg hl
                                   1173 ;	spillPairReg hl
    000006F4 7C               [ 4] 1174 	ld	a, h
    000006F5 DD 9E FA         [19] 1175 	sbc	a, -6 (ix)
    000006F8 E6 01            [ 7] 1176 	and	a, #0x01
    000006FA DD 75 FD         [19] 1177 	ld	-3 (ix), l
                                   1178 ;E:\Dropbox\FAUSTO\SVILUPPI\MSX\CODE\C\MSXgl\projects\soccerlgMSX2/soccerlg_s6_b3.c:121: u16 dy = (dy_diff < 256) ? dy_diff : (512 - dy_diff);
                                   1179 ;	spillPairReg hl
                                   1180 ;	spillPairReg hl
                                   1181 ;	spillPairReg hl
                                   1182 ;	spillPairReg hl
    000006FD DD 77 FE         [19] 1183 	ld	-2 (ix), a
    00000700 D6 01            [ 7] 1184 	sub	a, #0x01
    00000702 30 09            [12] 1185 	jr	NC, 00257$
    00000704 DD 6E FD         [19] 1186 	ld	l, -3 (ix)
                                   1187 ;	spillPairReg hl
                                   1188 ;	spillPairReg hl
    00000707 DD 66 FE         [19] 1189 	ld	h, -2 (ix)
                                   1190 ;	spillPairReg hl
                                   1191 ;	spillPairReg hl
    0000070A C3r18r07         [10] 1192 	jp	00258$
    0000070D                       1193 00257$:
    0000070D AF               [ 4] 1194 	xor	a, a
    0000070E DD 96 FD         [19] 1195 	sub	a, -3 (ix)
    00000711 6F               [ 4] 1196 	ld	l, a
                                   1197 ;	spillPairReg hl
                                   1198 ;	spillPairReg hl
    00000712 3E 02            [ 7] 1199 	ld	a, #0x02
    00000714 DD 9E FE         [19] 1200 	sbc	a, -2 (ix)
    00000717 67               [ 4] 1201 	ld	h, a
                                   1202 ;	spillPairReg hl
                                   1203 ;	spillPairReg hl
    00000718                       1204 00258$:
                                   1205 ;E:\Dropbox\FAUSTO\SVILUPPI\MSX\CODE\C\MSXgl\projects\soccerlgMSX2/soccerlg_s6_b3.c:122: if (dx + dy < min_dist) {
    00000718 19               [11] 1206 	add	hl, de
    00000719 7D               [ 4] 1207 	ld	a, l
    0000071A DD 96 FB         [19] 1208 	sub	a, -5 (ix)
    0000071D 7C               [ 4] 1209 	ld	a, h
    0000071E DD 9E FC         [19] 1210 	sbc	a, -4 (ix)
    00000721 30 07            [12] 1211 	jr	NC, 00213$
                                   1212 ;E:\Dropbox\FAUSTO\SVILUPPI\MSX\CODE\C\MSXgl\projects\soccerlgMSX2/soccerlg_s6_b3.c:123: min_dist = dx + dy;
    00000723 DD 75 FB         [19] 1213 	ld	-5 (ix), l
    00000726 DD 74 FC         [19] 1214 	ld	-4 (ix), h
                                   1215 ;E:\Dropbox\FAUSTO\SVILUPPI\MSX\CODE\C\MSXgl\projects\soccerlgMSX2/soccerlg_s6_b3.c:124: closest_cpu = j;
    00000729 48               [ 4] 1216 	ld	c, b
    0000072A                       1217 00213$:
                                   1218 ;E:\Dropbox\FAUSTO\SVILUPPI\MSX\CODE\C\MSXgl\projects\soccerlgMSX2/soccerlg_s6_b3.c:117: for (u8 j = start_cpu; j < end_cpu; j++) {
    0000072A 04               [ 4] 1219 	inc	b
    0000072B C3rB6r06         [10] 1220 	jp	00212$
    0000072E                       1221 00164$:
                                   1222 ;E:\Dropbox\FAUSTO\SVILUPPI\MSX\CODE\C\MSXgl\projects\soccerlgMSX2/soccerlg_s6_b3.c:128: if (i == closest_cpu) {
    0000072E DD 7E FF         [19] 1223 	ld	a, -1 (ix)
    00000731 91               [ 4] 1224 	sub	a, c
    00000732 C2rFFr08         [10] 1225 	jp	NZ,00183$
                                   1226 ;E:\Dropbox\FAUSTO\SVILUPPI\MSX\CODE\C\MSXgl\projects\soccerlgMSX2/soccerlg_s6_b3.c:129: if (LastTouchTeam != team) {
    00000735 3Ar00r00         [13] 1227 	ld	a, (_LastTouchTeam+0)
    00000738 DD 96 EC         [19] 1228 	sub	a, -20 (ix)
    0000073B 28 19            [12] 1229 	jr	Z, 00178$
                                   1230 ;E:\Dropbox\FAUSTO\SVILUPPI\MSX\CODE\C\MSXgl\projects\soccerlgMSX2/soccerlg_s6_b3.c:131: target_x = Ball->lx;
    0000073D DD 7E F8         [19] 1231 	ld	a, -8 (ix)
    00000740 DD 77 ED         [19] 1232 	ld	-19 (ix), a
    00000743 DD 36 EE 00      [19] 1233 	ld	-18 (ix), #0x00
                                   1234 ;E:\Dropbox\FAUSTO\SVILUPPI\MSX\CODE\C\MSXgl\projects\soccerlgMSX2/soccerlg_s6_b3.c:132: target_y = Ball->ly;
    00000747 DD 7E F9         [19] 1235 	ld	a, -7 (ix)
    0000074A DD 4E FA         [19] 1236 	ld	c, -6 (ix)
    0000074D DD 77 EF         [19] 1237 	ld	-17 (ix), a
    00000750 DD 71 F0         [19] 1238 	ld	-16 (ix), c
    00000753 C3rFFr08         [10] 1239 	jp	00183$
    00000756                       1240 00178$:
                                   1241 ;E:\Dropbox\FAUSTO\SVILUPPI\MSX\CODE\C\MSXgl\projects\soccerlgMSX2/soccerlg_s6_b3.c:135: if (min_dist <= 24) {
    00000756 DD 4E FB         [19] 1242 	ld	c, -5 (ix)
    00000759 DD 6E FC         [19] 1243 	ld	l, -4 (ix)
                                   1244 ;	spillPairReg hl
                                   1245 ;	spillPairReg hl
    0000075C 3E 18            [ 7] 1246 	ld	a, #0x18
    0000075E B9               [ 4] 1247 	cp	a, c
    0000075F 3E 00            [ 7] 1248 	ld	a, #0x00
    00000761 9D               [ 4] 1249 	sbc	a, l
    00000762 DArE9r08         [10] 1250 	jp	C, 00175$
                                   1251 ;E:\Dropbox\FAUSTO\SVILUPPI\MSX\CODE\C\MSXgl\projects\soccerlgMSX2/soccerlg_s6_b3.c:137: target_x = 128; 
    00000765 DD 36 ED 80      [19] 1252 	ld	-19 (ix), #0x80
    00000769 DD 36 EE 00      [19] 1253 	ld	-18 (ix), #0
                                   1254 ;E:\Dropbox\FAUSTO\SVILUPPI\MSX\CODE\C\MSXgl\projects\soccerlgMSX2/soccerlg_s6_b3.c:138: target_y = 480; 
    0000076D DD 36 EF E0      [19] 1255 	ld	-17 (ix), #0xe0
    00000771 DD 36 F0 01      [19] 1256 	ld	-16 (ix), #0x01
                                   1257 ;E:\Dropbox\FAUSTO\SVILUPPI\MSX\CODE\C\MSXgl\projects\soccerlgMSX2/soccerlg_s6_b3.c:47: Player->ly = target_y; // Forza la Y corretta
    00000775 DD 7E EA         [19] 1258 	ld	a, -22 (ix)
    00000778 C6 04            [ 7] 1259 	add	a, #0x04
    0000077A DD 77 FB         [19] 1260 	ld	-5 (ix), a
    0000077D DD 7E EB         [19] 1261 	ld	a, -21 (ix)
    00000780 CE 00            [ 7] 1262 	adc	a, #0x00
    00000782 DD 77 FC         [19] 1263 	ld	-4 (ix), a
                                   1264 ;E:\Dropbox\FAUSTO\SVILUPPI\MSX\CODE\C\MSXgl\projects\soccerlgMSX2/soccerlg_s6_b3.c:141: if (min_dist <= 12 && Ball->anim == 0) {
    00000785 3E 0C            [ 7] 1265 	ld	a, #0x0c
    00000787 B9               [ 4] 1266 	cp	a, c
    00000788 3E 00            [ 7] 1267 	ld	a, #0x00
    0000078A 9D               [ 4] 1268 	sbc	a, l
    0000078B DAr5Er08         [10] 1269 	jp	C, 00169$
    0000078E 2Ar55r01         [16] 1270 	ld	hl, (#(_SwSprite + 341) + 0)
    00000791 7C               [ 4] 1271 	ld	a, h
    00000792 B5               [ 4] 1272 	or	a, l
    00000793 C2r5Er08         [10] 1273 	jp	NZ, 00169$
                                   1274 ;E:\Dropbox\FAUSTO\SVILUPPI\MSX\CODE\C\MSXgl\projects\soccerlgMSX2/soccerlg_s6_b3.c:142: Ball->dx = (Player->dx > 0) ? 1 : ((Player->dx < 0) ? -1 : 0);
    00000796 DD 4E EA         [19] 1275 	ld	c, -22 (ix)
    00000799 DD 46 EB         [19] 1276 	ld	b, -21 (ix)
    0000079C 21 11 00         [10] 1277 	ld	hl, #17
    0000079F 09               [11] 1278 	add	hl, bc
    000007A0 7E               [ 7] 1279 	ld	a, (hl)
    000007A1 DD 77 FE         [19] 1280 	ld	-2 (ix), a
    000007A4 AF               [ 4] 1281 	xor	a, a
    000007A5 DD 96 FE         [19] 1282 	sub	a, -2 (ix)
    000007A8 E2rADr07         [10] 1283 	jp	PO, 00770$
    000007AB EE 80            [ 7] 1284 	xor	a, #0x80
    000007AD                       1285 00770$:
    000007AD F2rBBr07         [10] 1286 	jp	P, 00259$
    000007B0 DD 36 FD 01      [19] 1287 	ld	-3 (ix), #0x01
    000007B4 DD 36 FE 00      [19] 1288 	ld	-2 (ix), #0
    000007B8 C3rD3r07         [10] 1289 	jp	00260$
    000007BB                       1290 00259$:
    000007BB DD CB FE 7E      [20] 1291 	bit	7, -2 (ix)
    000007BF 28 0B            [12] 1292 	jr	Z, 00261$
    000007C1 DD 36 FD FF      [19] 1293 	ld	-3 (ix), #0xff
    000007C5 DD 36 FE FF      [19] 1294 	ld	-2 (ix), #0xff
    000007C9 C3rD3r07         [10] 1295 	jp	00262$
    000007CC                       1296 00261$:
    000007CC AF               [ 4] 1297 	xor	a, a
    000007CD DD 77 FD         [19] 1298 	ld	-3 (ix), a
    000007D0 DD 77 FE         [19] 1299 	ld	-2 (ix), a
    000007D3                       1300 00262$:
    000007D3                       1301 00260$:
    000007D3 DD 7E FD         [19] 1302 	ld	a, -3 (ix)
    000007D6 32r53r01         [13] 1303 	ld	(#(_SwSprite + 339)),a
                                   1304 ;E:\Dropbox\FAUSTO\SVILUPPI\MSX\CODE\C\MSXgl\projects\soccerlgMSX2/soccerlg_s6_b3.c:143: Ball->dy = (Player->dy > 0) ? 1 : ((Player->dy < 0) ? -1 : 0);
    000007D9 DD 4E EA         [19] 1305 	ld	c, -22 (ix)
    000007DC DD 46 EB         [19] 1306 	ld	b, -21 (ix)
    000007DF 21 12 00         [10] 1307 	ld	hl, #18
    000007E2 09               [11] 1308 	add	hl, bc
    000007E3 4E               [ 7] 1309 	ld	c, (hl)
    000007E4 AF               [ 4] 1310 	xor	a, a
    000007E5 91               [ 4] 1311 	sub	a, c
    000007E6 E2rEBr07         [10] 1312 	jp	PO, 00771$
    000007E9 EE 80            [ 7] 1313 	xor	a, #0x80
    000007EB                       1314 00771$:
    000007EB F2rF4r07         [10] 1315 	jp	P, 00263$
    000007EE 01 01 00         [10] 1316 	ld	bc, #0x0001
    000007F1 C3r0Dr08         [10] 1317 	jp	00264$
    000007F4                       1318 00263$:
    000007F4 CB 79            [ 8] 1319 	bit	7, c
    000007F6 28 0B            [12] 1320 	jr	Z, 00265$
    000007F8 DD 36 FD FF      [19] 1321 	ld	-3 (ix), #0xff
    000007FC DD 36 FE FF      [19] 1322 	ld	-2 (ix), #0xff
    00000800 C3r0Ar08         [10] 1323 	jp	00266$
    00000803                       1324 00265$:
    00000803 AF               [ 4] 1325 	xor	a, a
    00000804 DD 77 FD         [19] 1326 	ld	-3 (ix), a
    00000807 DD 77 FE         [19] 1327 	ld	-2 (ix), a
    0000080A                       1328 00266$:
    0000080A DD 4E FD         [19] 1329 	ld	c, -3 (ix)
    0000080D                       1330 00264$:
    0000080D 21r54r01         [10] 1331 	ld	hl, #(_SwSprite + 340)
    00000810 71               [ 7] 1332 	ld	(hl), c
                                   1333 ;E:\Dropbox\FAUSTO\SVILUPPI\MSX\CODE\C\MSXgl\projects\soccerlgMSX2/soccerlg_s6_b3.c:144: if (Ball->dx == 0 && Ball->dy == 0) Ball->dy = 1; // Avanza verso Sud
    00000811 3Ar53r01         [13] 1334 	ld	a, (#(_SwSprite + 339) + 0)
    00000814 B7               [ 4] 1335 	or	a, a
    00000815 20 08            [12] 1336 	jr	NZ, 00166$
    00000817 3Ar54r01         [13] 1337 	ld	a, (#(_SwSprite + 340) + 0)
    0000081A B7               [ 4] 1338 	or	a, a
    0000081B 20 02            [12] 1339 	jr	NZ, 00166$
    0000081D 36 01            [10] 1340 	ld	(hl), #0x01
    0000081F                       1341 00166$:
                                   1342 ;E:\Dropbox\FAUSTO\SVILUPPI\MSX\CODE\C\MSXgl\projects\soccerlgMSX2/soccerlg_s6_b3.c:146: Ball->lx = Player->lx + (Ball->dx * 6);
    0000081F DD 6E EA         [19] 1343 	ld	l, -22 (ix)
    00000822 DD 66 EB         [19] 1344 	ld	h, -21 (ix)
    00000825 4E               [ 7] 1345 	ld	c, (hl)
    00000826 3Ar53r01         [13] 1346 	ld	a, (#(_SwSprite + 339) + 0)
    00000829 5F               [ 4] 1347 	ld	e, a
    0000082A 87               [ 4] 1348 	add	a, a
    0000082B 83               [ 4] 1349 	add	a, e
    0000082C 87               [ 4] 1350 	add	a, a
    0000082D 81               [ 4] 1351 	add	a, c
    0000082E 32r42r01         [13] 1352 	ld	(#(_SwSprite + 322)),a
                                   1353 ;E:\Dropbox\FAUSTO\SVILUPPI\MSX\CODE\C\MSXgl\projects\soccerlgMSX2/soccerlg_s6_b3.c:147: Ball->ly = (Player->ly + (Ball->dy * 6)) & 511;
    00000831 DD 6E FB         [19] 1354 	ld	l, -5 (ix)
    00000834 DD 66 FC         [19] 1355 	ld	h, -4 (ix)
    00000837 4E               [ 7] 1356 	ld	c, (hl)
    00000838 23               [ 6] 1357 	inc	hl
    00000839 46               [ 7] 1358 	ld	b, (hl)
    0000083A 3Ar54r01         [13] 1359 	ld	a, (#(_SwSprite + 340) + 0)
    0000083D 5F               [ 4] 1360 	ld	e, a
    0000083E 07               [ 4] 1361 	rlca
    0000083F 9F               [ 4] 1362 	sbc	a, a
    00000840 57               [ 4] 1363 	ld	d, a
    00000841 6B               [ 4] 1364 	ld	l, e
    00000842 62               [ 4] 1365 	ld	h, d
    00000843 29               [11] 1366 	add	hl, hl
    00000844 19               [11] 1367 	add	hl, de
    00000845 29               [11] 1368 	add	hl, hl
    00000846 09               [11] 1369 	add	hl, bc
    00000847 4D               [ 4] 1370 	ld	c, l
    00000848 7C               [ 4] 1371 	ld	a, h
    00000849 E6 01            [ 7] 1372 	and	a, #0x01
    0000084B 47               [ 4] 1373 	ld	b, a
    0000084C ED 43r46r01      [20] 1374 	ld	((_SwSprite + 326)), bc
                                   1375 ;E:\Dropbox\FAUSTO\SVILUPPI\MSX\CODE\C\MSXgl\projects\soccerlgMSX2/soccerlg_s6_b3.c:148: Ball->anim = 4;
    00000850 21 04 00         [10] 1376 	ld	hl, #0x0004
    00000853 22r55r01         [16] 1377 	ld	((_SwSprite + 341)), hl
                                   1378 ;E:\Dropbox\FAUSTO\SVILUPPI\MSX\CODE\C\MSXgl\projects\soccerlgMSX2/soccerlg_s6_b3.c:149: CallFnc_VOID(SEG_EVENTS, EventBallKicked);
    00000856 11r00r00         [10] 1379 	ld	de, #_EventBallKicked
    00000859 3E 08            [ 7] 1380 	ld	a, #0x08
    0000085B CDr00r00         [17] 1381 	call	_CallFnc_VOID
    0000085E                       1382 00169$:
                                   1383 ;E:\Dropbox\FAUSTO\SVILUPPI\MSX\CODE\C\MSXgl\projects\soccerlgMSX2/soccerlg_s6_b3.c:153: if (Player->ly > 380 && Ball->anim == 0) {
    0000085E DD 6E FB         [19] 1384 	ld	l, -5 (ix)
    00000861 DD 66 FC         [19] 1385 	ld	h, -4 (ix)
    00000864 4E               [ 7] 1386 	ld	c, (hl)
    00000865 23               [ 6] 1387 	inc	hl
    00000866 46               [ 7] 1388 	ld	b, (hl)
    00000867 3E 7C            [ 7] 1389 	ld	a, #0x7c
    00000869 B9               [ 4] 1390 	cp	a, c
    0000086A 3E 01            [ 7] 1391 	ld	a, #0x01
    0000086C 98               [ 4] 1392 	sbc	a, b
    0000086D D2rFFr08         [10] 1393 	jp	NC, 00183$
    00000870 2Ar55r01         [16] 1394 	ld	hl, (#(_SwSprite + 341) + 0)
    00000873 7C               [ 4] 1395 	ld	a, h
    00000874 B5               [ 4] 1396 	or	a, l
    00000875 C2rFFr08         [10] 1397 	jp	NZ, 00183$
                                   1398 ;E:\Dropbox\FAUSTO\SVILUPPI\MSX\CODE\C\MSXgl\projects\soccerlgMSX2/soccerlg_s6_b3.c:154: Ball->dx = (Player->lx < 110) ? 1 : ((Player->lx > 146) ? -1 : 0);
    00000878 DD 6E EA         [19] 1399 	ld	l, -22 (ix)
    0000087B DD 66 EB         [19] 1400 	ld	h, -21 (ix)
    0000087E 7E               [ 7] 1401 	ld	a, (hl)
    0000087F DD 77 FE         [19] 1402 	ld	-2 (ix), a
    00000882 D6 6E            [ 7] 1403 	sub	a, #0x6e
    00000884 30 06            [12] 1404 	jr	NC, 00267$
    00000886 01 01 00         [10] 1405 	ld	bc, #0x0001
    00000889 C3r9Cr08         [10] 1406 	jp	00268$
    0000088C                       1407 00267$:
    0000088C 3E 92            [ 7] 1408 	ld	a, #0x92
    0000088E DD 96 FE         [19] 1409 	sub	a, -2 (ix)
    00000891 30 06            [12] 1410 	jr	NC, 00269$
    00000893 01 FF FF         [10] 1411 	ld	bc, #0xffff
    00000896 C3r9Cr08         [10] 1412 	jp	00270$
    00000899                       1413 00269$:
    00000899 01 00 00         [10] 1414 	ld	bc, #0x0000
    0000089C                       1415 00270$:
    0000089C                       1416 00268$:
    0000089C 21r53r01         [10] 1417 	ld	hl, #(_SwSprite + 339)
    0000089F 71               [ 7] 1418 	ld	(hl), c
                                   1419 ;E:\Dropbox\FAUSTO\SVILUPPI\MSX\CODE\C\MSXgl\projects\soccerlgMSX2/soccerlg_s6_b3.c:155: Ball->dy = 1;
    000008A0 21r54r01         [10] 1420 	ld	hl, #(_SwSprite + 340)
    000008A3 36 01            [10] 1421 	ld	(hl), #0x01
                                   1422 ;E:\Dropbox\FAUSTO\SVILUPPI\MSX\CODE\C\MSXgl\projects\soccerlgMSX2/soccerlg_s6_b3.c:156: Ball->lx = Player->lx + (Ball->dx * 6);
    000008A5 DD 6E EA         [19] 1423 	ld	l, -22 (ix)
    000008A8 DD 66 EB         [19] 1424 	ld	h, -21 (ix)
    000008AB 5E               [ 7] 1425 	ld	e, (hl)
    000008AC 79               [ 4] 1426 	ld	a, c
    000008AD 87               [ 4] 1427 	add	a, a
    000008AE 81               [ 4] 1428 	add	a, c
    000008AF 87               [ 4] 1429 	add	a, a
    000008B0 83               [ 4] 1430 	add	a, e
    000008B1 32r42r01         [13] 1431 	ld	(#(_SwSprite + 322)),a
                                   1432 ;E:\Dropbox\FAUSTO\SVILUPPI\MSX\CODE\C\MSXgl\projects\soccerlgMSX2/soccerlg_s6_b3.c:157: Ball->ly = (Player->ly + (Ball->dy * 6)) & 511;
    000008B4 DD 6E FB         [19] 1433 	ld	l, -5 (ix)
    000008B7 DD 66 FC         [19] 1434 	ld	h, -4 (ix)
    000008BA 4E               [ 7] 1435 	ld	c, (hl)
    000008BB 23               [ 6] 1436 	inc	hl
    000008BC 46               [ 7] 1437 	ld	b, (hl)
    000008BD 3Ar54r01         [13] 1438 	ld	a, (#(_SwSprite + 340) + 0)
    000008C0 5F               [ 4] 1439 	ld	e, a
    000008C1 07               [ 4] 1440 	rlca
    000008C2 9F               [ 4] 1441 	sbc	a, a
    000008C3 57               [ 4] 1442 	ld	d, a
    000008C4 6B               [ 4] 1443 	ld	l, e
    000008C5 62               [ 4] 1444 	ld	h, d
    000008C6 29               [11] 1445 	add	hl, hl
    000008C7 19               [11] 1446 	add	hl, de
    000008C8 29               [11] 1447 	add	hl, hl
    000008C9 09               [11] 1448 	add	hl, bc
    000008CA EB               [ 4] 1449 	ex	de, hl
    000008CB 7A               [ 4] 1450 	ld	a, d
    000008CC E6 01            [ 7] 1451 	and	a, #0x01
    000008CE 57               [ 4] 1452 	ld	d, a
    000008CF ED 53r46r01      [20] 1453 	ld	((_SwSprite + 326)), de
                                   1454 ;E:\Dropbox\FAUSTO\SVILUPPI\MSX\CODE\C\MSXgl\projects\soccerlgMSX2/soccerlg_s6_b3.c:158: Ball->anim = 8; // Tiro potente
    000008D3 21 08 00         [10] 1455 	ld	hl, #0x0008
    000008D6 22r55r01         [16] 1456 	ld	((_SwSprite + 341)), hl
                                   1457 ;E:\Dropbox\FAUSTO\SVILUPPI\MSX\CODE\C\MSXgl\projects\soccerlgMSX2/soccerlg_s6_b3.c:159: CallFnc_VOID(SEG_EVENTS, EventBallKicked);
    000008D9 11r00r00         [10] 1458 	ld	de, #_EventBallKicked
    000008DC 3E 08            [ 7] 1459 	ld	a, #0x08
    000008DE CDr00r00         [17] 1460 	call	_CallFnc_VOID
                                   1461 ;E:\Dropbox\FAUSTO\SVILUPPI\MSX\CODE\C\MSXgl\projects\soccerlgMSX2/soccerlg_s6_b3.c:160: LastTouchTeam = 0xFF;
    000008E1 21r00r00         [10] 1462 	ld	hl, #_LastTouchTeam
    000008E4 36 FF            [10] 1463 	ld	(hl), #0xff
    000008E6 C3rFFr08         [10] 1464 	jp	00183$
    000008E9                       1465 00175$:
                                   1466 ;E:\Dropbox\FAUSTO\SVILUPPI\MSX\CODE\C\MSXgl\projects\soccerlgMSX2/soccerlg_s6_b3.c:164: target_x = Ball->lx;
    000008E9 DD 7E F8         [19] 1467 	ld	a, -8 (ix)
    000008EC DD 77 ED         [19] 1468 	ld	-19 (ix), a
    000008EF DD 36 EE 00      [19] 1469 	ld	-18 (ix), #0x00
                                   1470 ;E:\Dropbox\FAUSTO\SVILUPPI\MSX\CODE\C\MSXgl\projects\soccerlgMSX2/soccerlg_s6_b3.c:165: target_y = Ball->ly;
    000008F3 DD 7E F9         [19] 1471 	ld	a, -7 (ix)
    000008F6 DD 4E FA         [19] 1472 	ld	c, -6 (ix)
    000008F9 DD 77 EF         [19] 1473 	ld	-17 (ix), a
    000008FC DD 71 F0         [19] 1474 	ld	-16 (ix), c
    000008FF                       1475 00183$:
                                   1476 ;E:\Dropbox\FAUSTO\SVILUPPI\MSX\CODE\C\MSXgl\projects\soccerlgMSX2/soccerlg_s6_b3.c:33: if (Ball->lx > Player->lx + 4) target_x = Player->lx + 2;
    000008FF DD 6E EA         [19] 1477 	ld	l, -22 (ix)
    00000902 DD 66 EB         [19] 1478 	ld	h, -21 (ix)
    00000905 7E               [ 7] 1479 	ld	a, (hl)
    00000906 DD 77 F1         [19] 1480 	ld	-15 (ix), a
                                   1481 ;E:\Dropbox\FAUSTO\SVILUPPI\MSX\CODE\C\MSXgl\projects\soccerlgMSX2/soccerlg_s6_b3.c:47: Player->ly = target_y; // Forza la Y corretta
    00000909 DD 7E EA         [19] 1482 	ld	a, -22 (ix)
    0000090C C6 04            [ 7] 1483 	add	a, #0x04
    0000090E DD 77 F2         [19] 1484 	ld	-14 (ix), a
    00000911 DD 7E EB         [19] 1485 	ld	a, -21 (ix)
    00000914 CE 00            [ 7] 1486 	adc	a, #0x00
    00000916 DD 77 F3         [19] 1487 	ld	-13 (ix), a
                                   1488 ;E:\Dropbox\FAUSTO\SVILUPPI\MSX\CODE\C\MSXgl\projects\soccerlgMSX2/soccerlg_s6_b3.c:153: if (Player->ly > 380 && Ball->anim == 0) {
    00000919 DD 6E F2         [19] 1489 	ld	l, -14 (ix)
    0000091C DD 66 F3         [19] 1490 	ld	h, -13 (ix)
    0000091F 7E               [ 7] 1491 	ld	a, (hl)
    00000920 DD 77 F4         [19] 1492 	ld	-12 (ix), a
    00000923 23               [ 6] 1493 	inc	hl
    00000924 7E               [ 7] 1494 	ld	a, (hl)
    00000925 DD 77 F5         [19] 1495 	ld	-11 (ix), a
                                   1496 ;E:\Dropbox\FAUSTO\SVILUPPI\MSX\CODE\C\MSXgl\projects\soccerlgMSX2/soccerlg_s6_b3.c:173: if (LastTouchTeam != team) {
    00000928 3Ar00r00         [13] 1497 	ld	a, (_LastTouchTeam+0)
    0000092B DD 96 EC         [19] 1498 	sub	a, -20 (ix)
    0000092E CArC9r09         [10] 1499 	jp	Z,00188$
                                   1500 ;E:\Dropbox\FAUSTO\SVILUPPI\MSX\CODE\C\MSXgl\projects\soccerlgMSX2/soccerlg_s6_b3.c:33: if (Ball->lx > Player->lx + 4) target_x = Player->lx + 2;
    00000931 3Ar42r01         [13] 1501 	ld	a, (#(_SwSprite + 322) + 0)
    00000934 DD 77 F6         [19] 1502 	ld	-10 (ix), a
                                   1503 ;E:\Dropbox\FAUSTO\SVILUPPI\MSX\CODE\C\MSXgl\projects\soccerlgMSX2/soccerlg_s6_b3.c:174: u8 b_dx_diff = (u8)(Player->lx - Ball->lx);
    00000937 DD 7E F1         [19] 1504 	ld	a, -15 (ix)
    0000093A DD 96 F6         [19] 1505 	sub	a, -10 (ix)
                                   1506 ;E:\Dropbox\FAUSTO\SVILUPPI\MSX\CODE\C\MSXgl\projects\soccerlgMSX2/soccerlg_s6_b3.c:175: u16 b_dist_x = (b_dx_diff < 128) ? b_dx_diff : (256 - b_dx_diff);
    0000093D 4F               [ 4] 1507 	ld	c, a
    0000093E 06 00            [ 7] 1508 	ld	b, #0x00
    00000940 D6 80            [ 7] 1509 	sub	a, #0x80
    00000942 30 04            [12] 1510 	jr	NC, 00271$
    00000944 78               [ 4] 1511 	ld	a, b
    00000945 C3r4Er09         [10] 1512 	jp	00272$
    00000948                       1513 00271$:
    00000948 AF               [ 4] 1514 	xor	a, a
    00000949 91               [ 4] 1515 	sub	a, c
    0000094A 4F               [ 4] 1516 	ld	c, a
    0000094B 3E 01            [ 7] 1517 	ld	a, #0x01
    0000094D 98               [ 4] 1518 	sbc	a, b
    0000094E                       1519 00272$:
    0000094E DD 71 F7         [19] 1520 	ld	-9 (ix), c
    00000951 DD 77 F8         [19] 1521 	ld	-8 (ix), a
                                   1522 ;E:\Dropbox\FAUSTO\SVILUPPI\MSX\CODE\C\MSXgl\projects\soccerlgMSX2/soccerlg_s6_b3.c:76: i16 ball_offset_y = (i16)Ball->ly - 256;
    00000954 21r46r01         [10] 1523 	ld	hl, #(_SwSprite + 326)
    00000957 7E               [ 7] 1524 	ld	a, (hl)
    00000958 DD 77 F9         [19] 1525 	ld	-7 (ix), a
    0000095B 23               [ 6] 1526 	inc	hl
    0000095C 7E               [ 7] 1527 	ld	a, (hl)
    0000095D DD 77 FA         [19] 1528 	ld	-6 (ix), a
                                   1529 ;E:\Dropbox\FAUSTO\SVILUPPI\MSX\CODE\C\MSXgl\projects\soccerlgMSX2/soccerlg_s6_b3.c:176: u16 b_dy_diff = (u16)(Player->ly - Ball->ly) & 511;
    00000960 DD 7E F4         [19] 1530 	ld	a, -12 (ix)
    00000963 DD 96 F9         [19] 1531 	sub	a, -7 (ix)
    00000966 4F               [ 4] 1532 	ld	c, a
    00000967 DD 7E F5         [19] 1533 	ld	a, -11 (ix)
    0000096A DD 9E FA         [19] 1534 	sbc	a, -6 (ix)
    0000096D E6 01            [ 7] 1535 	and	a, #0x01
    0000096F DD 71 FB         [19] 1536 	ld	-5 (ix), c
                                   1537 ;E:\Dropbox\FAUSTO\SVILUPPI\MSX\CODE\C\MSXgl\projects\soccerlgMSX2/soccerlg_s6_b3.c:177: u16 b_dist_y = (b_dy_diff < 256) ? b_dy_diff : (512 - b_dy_diff);
    00000972 DD 77 FC         [19] 1538 	ld	-4 (ix), a
    00000975 D6 01            [ 7] 1539 	sub	a, #0x01
    00000977 30 0F            [12] 1540 	jr	NC, 00273$
    00000979 DD 7E FB         [19] 1541 	ld	a, -5 (ix)
    0000097C DD 77 FD         [19] 1542 	ld	-3 (ix), a
    0000097F DD 7E FC         [19] 1543 	ld	a, -4 (ix)
    00000982 DD 77 FE         [19] 1544 	ld	-2 (ix), a
    00000985 C3r97r09         [10] 1545 	jp	00274$
    00000988                       1546 00273$:
    00000988 AF               [ 4] 1547 	xor	a, a
    00000989 DD 96 FB         [19] 1548 	sub	a, -5 (ix)
    0000098C DD 77 FD         [19] 1549 	ld	-3 (ix), a
    0000098F 3E 02            [ 7] 1550 	ld	a, #0x02
    00000991 DD 9E FC         [19] 1551 	sbc	a, -4 (ix)
    00000994 DD 77 FE         [19] 1552 	ld	-2 (ix), a
    00000997                       1553 00274$:
    00000997 DD 4E FD         [19] 1554 	ld	c, -3 (ix)
    0000099A DD 46 FE         [19] 1555 	ld	b, -2 (ix)
                                   1556 ;E:\Dropbox\FAUSTO\SVILUPPI\MSX\CODE\C\MSXgl\projects\soccerlgMSX2/soccerlg_s6_b3.c:179: if (b_dist_x < 32 && b_dist_y < 32) {
    0000099D DD 5E F7         [19] 1557 	ld	e, -9 (ix)
    000009A0 DD 56 F8         [19] 1558 	ld	d, -8 (ix)
    000009A3 7B               [ 4] 1559 	ld	a, e
    000009A4 D6 20            [ 7] 1560 	sub	a, #0x20
    000009A6 7A               [ 4] 1561 	ld	a, d
    000009A7 DE 00            [ 7] 1562 	sbc	a, #0x00
    000009A9 30 1E            [12] 1563 	jr	NC, 00188$
    000009AB 79               [ 4] 1564 	ld	a, c
    000009AC D6 20            [ 7] 1565 	sub	a, #0x20
    000009AE 78               [ 4] 1566 	ld	a, b
    000009AF DE 00            [ 7] 1567 	sbc	a, #0x00
    000009B1 30 16            [12] 1568 	jr	NC, 00188$
                                   1569 ;E:\Dropbox\FAUSTO\SVILUPPI\MSX\CODE\C\MSXgl\projects\soccerlgMSX2/soccerlg_s6_b3.c:180: target_x = Ball->lx;
    000009B3 DD 7E F6         [19] 1570 	ld	a, -10 (ix)
    000009B6 DD 77 ED         [19] 1571 	ld	-19 (ix), a
    000009B9 DD 36 EE 00      [19] 1572 	ld	-18 (ix), #0x00
                                   1573 ;E:\Dropbox\FAUSTO\SVILUPPI\MSX\CODE\C\MSXgl\projects\soccerlgMSX2/soccerlg_s6_b3.c:181: target_y = Ball->ly;
    000009BD DD 7E F9         [19] 1574 	ld	a, -7 (ix)
    000009C0 DD 77 EF         [19] 1575 	ld	-17 (ix), a
    000009C3 DD 7E FA         [19] 1576 	ld	a, -6 (ix)
    000009C6 DD 77 F0         [19] 1577 	ld	-16 (ix), a
    000009C9                       1578 00188$:
                                   1579 ;E:\Dropbox\FAUSTO\SVILUPPI\MSX\CODE\C\MSXgl\projects\soccerlgMSX2/soccerlg_s6_b3.c:186: if (target_x < 16) target_x = 16; 
    000009C9 DD 7E ED         [19] 1580 	ld	a, -19 (ix)
    000009CC DD 46 EE         [19] 1581 	ld	b, -18 (ix)
    000009CF D6 10            [ 7] 1582 	sub	a, #0x10
    000009D1 78               [ 4] 1583 	ld	a, b
    000009D2 DE 00            [ 7] 1584 	sbc	a, #0x00
    000009D4 30 08            [12] 1585 	jr	NC, 00190$
    000009D6 DD 36 ED 10      [19] 1586 	ld	-19 (ix), #0x10
    000009DA DD 36 EE 00      [19] 1587 	ld	-18 (ix), #0
    000009DE                       1588 00190$:
                                   1589 ;E:\Dropbox\FAUSTO\SVILUPPI\MSX\CODE\C\MSXgl\projects\soccerlgMSX2/soccerlg_s6_b3.c:187: if (target_x > 240) target_x = 240;
    000009DE DD 4E ED         [19] 1590 	ld	c, -19 (ix)
    000009E1 DD 46 EE         [19] 1591 	ld	b, -18 (ix)
    000009E4 3E F0            [ 7] 1592 	ld	a, #0xf0
    000009E6 B9               [ 4] 1593 	cp	a, c
    000009E7 3E 00            [ 7] 1594 	ld	a, #0x00
    000009E9 98               [ 4] 1595 	sbc	a, b
    000009EA 30 08            [12] 1596 	jr	NC, 00192$
    000009EC DD 36 ED F0      [19] 1597 	ld	-19 (ix), #0xf0
    000009F0 DD 36 EE 00      [19] 1598 	ld	-18 (ix), #0
    000009F4                       1599 00192$:
                                   1600 ;E:\Dropbox\FAUSTO\SVILUPPI\MSX\CODE\C\MSXgl\projects\soccerlgMSX2/soccerlg_s6_b3.c:188: if (target_y < 24) target_y = 24;
    000009F4 DD 7E EF         [19] 1601 	ld	a, -17 (ix)
    000009F7 DD 46 F0         [19] 1602 	ld	b, -16 (ix)
    000009FA D6 18            [ 7] 1603 	sub	a, #0x18
    000009FC 78               [ 4] 1604 	ld	a, b
    000009FD DE 00            [ 7] 1605 	sbc	a, #0x00
    000009FF 30 08            [12] 1606 	jr	NC, 00194$
    00000A01 DD 36 EF 18      [19] 1607 	ld	-17 (ix), #0x18
    00000A05 DD 36 F0 00      [19] 1608 	ld	-16 (ix), #0
    00000A09                       1609 00194$:
                                   1610 ;E:\Dropbox\FAUSTO\SVILUPPI\MSX\CODE\C\MSXgl\projects\soccerlgMSX2/soccerlg_s6_b3.c:189: if (target_y > 488) target_y = 488;
    00000A09 DD 4E EF         [19] 1611 	ld	c, -17 (ix)
    00000A0C DD 46 F0         [19] 1612 	ld	b, -16 (ix)
    00000A0F 3E E8            [ 7] 1613 	ld	a, #0xe8
    00000A11 B9               [ 4] 1614 	cp	a, c
    00000A12 3E 01            [ 7] 1615 	ld	a, #0x01
    00000A14 98               [ 4] 1616 	sbc	a, b
    00000A15 30 08            [12] 1617 	jr	NC, 00196$
    00000A17 DD 36 EF E8      [19] 1618 	ld	-17 (ix), #0xe8
    00000A1B DD 36 F0 01      [19] 1619 	ld	-16 (ix), #0x01
    00000A1F                       1620 00196$:
                                   1621 ;E:\Dropbox\FAUSTO\SVILUPPI\MSX\CODE\C\MSXgl\projects\soccerlgMSX2/soccerlg_s6_b3.c:193: u8 dx_diff = (u8)(target_x - Player->lx);
    00000A1F DD 7E ED         [19] 1622 	ld	a, -19 (ix)
    00000A22 DD 96 F1         [19] 1623 	sub	a, -15 (ix)
                                   1624 ;E:\Dropbox\FAUSTO\SVILUPPI\MSX\CODE\C\MSXgl\projects\soccerlgMSX2/soccerlg_s6_b3.c:194: u16 dist_x = (dx_diff < 128) ? dx_diff : (256 - dx_diff);
    00000A25 4F               [ 4] 1625 	ld	c, a
    00000A26 D6 80            [ 7] 1626 	sub	a, #0x80
    00000A28 3E 00            [ 7] 1627 	ld	a, #0x00
    00000A2A 17               [ 4] 1628 	rla
    00000A2B DD 77 FC         [19] 1629 	ld	-4 (ix), a
    00000A2E DD 71 FD         [19] 1630 	ld	-3 (ix), c
    00000A31 DD 36 FE 00      [19] 1631 	ld	-2 (ix), #0x00
    00000A35 DD 7E FC         [19] 1632 	ld	a, -4 (ix)
    00000A38 B7               [ 4] 1633 	or	a, a
    00000A39 28 09            [12] 1634 	jr	Z, 00275$
    00000A3B DD 5E FD         [19] 1635 	ld	e, -3 (ix)
    00000A3E DD 7E FE         [19] 1636 	ld	a, -2 (ix)
    00000A41 C3r4Er0A         [10] 1637 	jp	00276$
    00000A44                       1638 00275$:
    00000A44 AF               [ 4] 1639 	xor	a, a
    00000A45 DD 96 FD         [19] 1640 	sub	a, -3 (ix)
    00000A48 5F               [ 4] 1641 	ld	e, a
    00000A49 3E 01            [ 7] 1642 	ld	a, #0x01
    00000A4B DD 9E FE         [19] 1643 	sbc	a, -2 (ix)
    00000A4E                       1644 00276$:
    00000A4E DD 73 FD         [19] 1645 	ld	-3 (ix), e
    00000A51 DD 77 FE         [19] 1646 	ld	-2 (ix), a
                                   1647 ;E:\Dropbox\FAUSTO\SVILUPPI\MSX\CODE\C\MSXgl\projects\soccerlgMSX2/soccerlg_s6_b3.c:195: u16 dy_diff = (u16)(target_y - Player->ly) & 511;
    00000A54 DD 7E EF         [19] 1648 	ld	a, -17 (ix)
    00000A57 DD 96 F4         [19] 1649 	sub	a, -12 (ix)
    00000A5A 4F               [ 4] 1650 	ld	c, a
    00000A5B DD 7E F0         [19] 1651 	ld	a, -16 (ix)
    00000A5E DD 9E F5         [19] 1652 	sbc	a, -11 (ix)
    00000A61 E6 01            [ 7] 1653 	and	a, #0x01
    00000A63 47               [ 4] 1654 	ld	b, a
    00000A64 DD 71 F8         [19] 1655 	ld	-8 (ix), c
                                   1656 ;E:\Dropbox\FAUSTO\SVILUPPI\MSX\CODE\C\MSXgl\projects\soccerlgMSX2/soccerlg_s6_b3.c:196: u16 dist_y = (dy_diff < 256) ? dy_diff : (512 - dy_diff);
    00000A67 DD 70 F9         [19] 1657 	ld	-7 (ix), b
    00000A6A 78               [ 4] 1658 	ld	a, b
    00000A6B D6 01            [ 7] 1659 	sub	a, #0x01
    00000A6D 3E 00            [ 7] 1660 	ld	a, #0x00
    00000A6F 17               [ 4] 1661 	rla
    00000A70 DD 77 F4         [19] 1662 	ld	-12 (ix), a
    00000A73 B7               [ 4] 1663 	or	a, a
    00000A74 28 0F            [12] 1664 	jr	Z, 00277$
    00000A76 DD 7E F8         [19] 1665 	ld	a, -8 (ix)
    00000A79 DD 77 FA         [19] 1666 	ld	-6 (ix), a
    00000A7C DD 7E F9         [19] 1667 	ld	a, -7 (ix)
    00000A7F DD 77 FB         [19] 1668 	ld	-5 (ix), a
    00000A82 C3r94r0A         [10] 1669 	jp	00278$
    00000A85                       1670 00277$:
    00000A85 AF               [ 4] 1671 	xor	a, a
    00000A86 DD 96 F8         [19] 1672 	sub	a, -8 (ix)
    00000A89 DD 77 FA         [19] 1673 	ld	-6 (ix), a
    00000A8C 3E 02            [ 7] 1674 	ld	a, #0x02
    00000A8E DD 9E F9         [19] 1675 	sbc	a, -7 (ix)
    00000A91 DD 77 FB         [19] 1676 	ld	-5 (ix), a
    00000A94                       1677 00278$:
    00000A94 DD 7E FA         [19] 1678 	ld	a, -6 (ix)
    00000A97 DD 77 F0         [19] 1679 	ld	-16 (ix), a
    00000A9A DD 7E FB         [19] 1680 	ld	a, -5 (ix)
    00000A9D DD 77 F1         [19] 1681 	ld	-15 (ix), a
                                   1682 ;E:\Dropbox\FAUSTO\SVILUPPI\MSX\CODE\C\MSXgl\projects\soccerlgMSX2/soccerlg_s6_b3.c:199: u8 speed = 1;
    00000AA0 DD 36 F5 01      [19] 1683 	ld	-11 (ix), #0x01
                                   1684 ;E:\Dropbox\FAUSTO\SVILUPPI\MSX\CODE\C\MSXgl\projects\soccerlgMSX2/soccerlg_s6_b3.c:200: if (dist_x > 24 || dist_y > 24) speed = 2;
    00000AA4 DD 4E FD         [19] 1685 	ld	c, -3 (ix)
    00000AA7 DD 46 FE         [19] 1686 	ld	b, -2 (ix)
    00000AAA 3E 18            [ 7] 1687 	ld	a, #0x18
    00000AAC B9               [ 4] 1688 	cp	a, c
    00000AAD 3E 00            [ 7] 1689 	ld	a, #0x00
    00000AAF 98               [ 4] 1690 	sbc	a, b
    00000AB0 38 18            [12] 1691 	jr	C, 00197$
    00000AB2 DD 7E F0         [19] 1692 	ld	a, -16 (ix)
    00000AB5 DD 77 FA         [19] 1693 	ld	-6 (ix), a
    00000AB8 DD 7E F1         [19] 1694 	ld	a, -15 (ix)
    00000ABB DD 77 FB         [19] 1695 	ld	-5 (ix), a
    00000ABE 3E 18            [ 7] 1696 	ld	a, #0x18
    00000AC0 DD BE FA         [19] 1697 	cp	a, -6 (ix)
    00000AC3 3E 00            [ 7] 1698 	ld	a, #0x00
    00000AC5 DD 9E FB         [19] 1699 	sbc	a, -5 (ix)
    00000AC8 30 04            [12] 1700 	jr	NC, 00198$
    00000ACA                       1701 00197$:
    00000ACA DD 36 F5 02      [19] 1702 	ld	-11 (ix), #0x02
    00000ACE                       1703 00198$:
                                   1704 ;E:\Dropbox\FAUSTO\SVILUPPI\MSX\CODE\C\MSXgl\projects\soccerlgMSX2/soccerlg_s6_b3.c:202: Player->dx = 0; Player->dy = 0;
    00000ACE DD 7E EA         [19] 1705 	ld	a, -22 (ix)
    00000AD1 C6 11            [ 7] 1706 	add	a, #0x11
    00000AD3 DD 77 F6         [19] 1707 	ld	-10 (ix), a
    00000AD6 DD 7E EB         [19] 1708 	ld	a, -21 (ix)
    00000AD9 CE 00            [ 7] 1709 	adc	a, #0x00
    00000ADB DD 77 F7         [19] 1710 	ld	-9 (ix), a
    00000ADE DD 6E F6         [19] 1711 	ld	l, -10 (ix)
    00000AE1 DD 66 F7         [19] 1712 	ld	h, -9 (ix)
    00000AE4 36 00            [10] 1713 	ld	(hl), #0x00
    00000AE6 DD 7E EA         [19] 1714 	ld	a, -22 (ix)
    00000AE9 C6 12            [ 7] 1715 	add	a, #0x12
    00000AEB DD 77 F8         [19] 1716 	ld	-8 (ix), a
    00000AEE DD 7E EB         [19] 1717 	ld	a, -21 (ix)
    00000AF1 CE 00            [ 7] 1718 	adc	a, #0x00
    00000AF3 DD 77 F9         [19] 1719 	ld	-7 (ix), a
    00000AF6 DD 6E F8         [19] 1720 	ld	l, -8 (ix)
    00000AF9 DD 66 F9         [19] 1721 	ld	h, -7 (ix)
    00000AFC 36 00            [10] 1722 	ld	(hl), #0x00
                                   1723 ;E:\Dropbox\FAUSTO\SVILUPPI\MSX\CODE\C\MSXgl\projects\soccerlgMSX2/soccerlg_s6_b3.c:204: if (dist_x > speed) Player->dx = (dx_diff < 128) ? speed : -speed;
    00000AFE DD 7E F5         [19] 1724 	ld	a, -11 (ix)
    00000B01 DD 77 FA         [19] 1725 	ld	-6 (ix), a
    00000B04 DD 36 FB 00      [19] 1726 	ld	-5 (ix), #0x00
    00000B08 DD 7E FA         [19] 1727 	ld	a, -6 (ix)
    00000B0B DD 96 FD         [19] 1728 	sub	a, -3 (ix)
    00000B0E DD 7E FB         [19] 1729 	ld	a, -5 (ix)
    00000B11 DD 9E FE         [19] 1730 	sbc	a, -2 (ix)
    00000B14 30 23            [12] 1731 	jr	NC, 00201$
    00000B16 DD 7E F6         [19] 1732 	ld	a, -10 (ix)
    00000B19 DD 77 FD         [19] 1733 	ld	-3 (ix), a
    00000B1C DD 7E F7         [19] 1734 	ld	a, -9 (ix)
    00000B1F DD 77 FE         [19] 1735 	ld	-2 (ix), a
    00000B22 DD 7E FC         [19] 1736 	ld	a, -4 (ix)
    00000B25 B7               [ 4] 1737 	or	a, a
    00000B26 28 06            [12] 1738 	jr	Z, 00279$
    00000B28 DD 7E F5         [19] 1739 	ld	a, -11 (ix)
    00000B2B C3r32r0B         [10] 1740 	jp	00280$
    00000B2E                       1741 00279$:
    00000B2E AF               [ 4] 1742 	xor	a, a
    00000B2F DD 96 F5         [19] 1743 	sub	a, -11 (ix)
    00000B32                       1744 00280$:
    00000B32 DD 6E FD         [19] 1745 	ld	l, -3 (ix)
    00000B35 DD 66 FE         [19] 1746 	ld	h, -2 (ix)
    00000B38 77               [ 7] 1747 	ld	(hl), a
    00000B39                       1748 00201$:
                                   1749 ;E:\Dropbox\FAUSTO\SVILUPPI\MSX\CODE\C\MSXgl\projects\soccerlgMSX2/soccerlg_s6_b3.c:205: if (dist_y > speed) Player->dy = (dy_diff < 256) ? speed : -speed;
    00000B39 DD 7E FA         [19] 1750 	ld	a, -6 (ix)
    00000B3C DD 96 F0         [19] 1751 	sub	a, -16 (ix)
    00000B3F DD 7E FB         [19] 1752 	ld	a, -5 (ix)
    00000B42 DD 9E F1         [19] 1753 	sbc	a, -15 (ix)
    00000B45 30 19            [12] 1754 	jr	NC, 00203$
    00000B47 DD 46 F8         [19] 1755 	ld	b, -8 (ix)
    00000B4A DD 5E F9         [19] 1756 	ld	e, -7 (ix)
    00000B4D DD 7E F4         [19] 1757 	ld	a, -12 (ix)
    00000B50 B7               [ 4] 1758 	or	a, a
    00000B51 28 06            [12] 1759 	jr	Z, 00281$
    00000B53 DD 7E F5         [19] 1760 	ld	a, -11 (ix)
    00000B56 C3r5Dr0B         [10] 1761 	jp	00282$
    00000B59                       1762 00281$:
    00000B59 AF               [ 4] 1763 	xor	a, a
    00000B5A DD 96 F5         [19] 1764 	sub	a, -11 (ix)
    00000B5D                       1765 00282$:
    00000B5D 68               [ 4] 1766 	ld	l, b
    00000B5E 63               [ 4] 1767 	ld	h, e
    00000B5F 77               [ 7] 1768 	ld	(hl), a
    00000B60                       1769 00203$:
                                   1770 ;E:\Dropbox\FAUSTO\SVILUPPI\MSX\CODE\C\MSXgl\projects\soccerlgMSX2/soccerlg_s6_b3.c:207: if (Player->dx != 0 || Player->dy != 0) {
    00000B60 DD 6E F6         [19] 1771 	ld	l, -10 (ix)
    00000B63 DD 66 F7         [19] 1772 	ld	h, -9 (ix)
    00000B66 5E               [ 7] 1773 	ld	e, (hl)
                                   1774 ;E:\Dropbox\FAUSTO\SVILUPPI\MSX\CODE\C\MSXgl\projects\soccerlgMSX2/soccerlg_s6_b3.c:51: if (team == TEAM_1) Player->frame = ((Player->anim / 6) % 2 == 0) ? SPR_GK_PLAYER_SOUTH_1 : SPR_GK_PLAYER_SOUTH_2;
    00000B67 DD 7E EA         [19] 1775 	ld	a, -22 (ix)
    00000B6A C6 0F            [ 7] 1776 	add	a, #0x0f
    00000B6C 4F               [ 4] 1777 	ld	c, a
    00000B6D DD 7E EB         [19] 1778 	ld	a, -21 (ix)
    00000B70 CE 00            [ 7] 1779 	adc	a, #0x00
    00000B72 47               [ 4] 1780 	ld	b, a
                                   1781 ;E:\Dropbox\FAUSTO\SVILUPPI\MSX\CODE\C\MSXgl\projects\soccerlgMSX2/soccerlg_s6_b3.c:207: if (Player->dx != 0 || Player->dy != 0) {
    00000B73 7B               [ 4] 1782 	ld	a, e
    00000B74 B7               [ 4] 1783 	or	a, a
    00000B75 20 0B            [12] 1784 	jr	NZ, 00207$
    00000B77 DD 6E F8         [19] 1785 	ld	l, -8 (ix)
    00000B7A DD 66 F9         [19] 1786 	ld	h, -7 (ix)
    00000B7D 7E               [ 7] 1787 	ld	a, (hl)
    00000B7E B7               [ 4] 1788 	or	a, a
    00000B7F CAr39r0C         [10] 1789 	jp	Z, 00208$
    00000B82                       1790 00207$:
                                   1791 ;E:\Dropbox\FAUSTO\SVILUPPI\MSX\CODE\C\MSXgl\projects\soccerlgMSX2/soccerlg_s6_b3.c:208: ai_last_dx[i] = Player->dx;
    00000B82 3Er00            [ 7] 1792 	ld	a, #<(_ai_last_dx)
    00000B84 DD 86 FF         [19] 1793 	add	a, -1 (ix)
    00000B87 6F               [ 4] 1794 	ld	l, a
                                   1795 ;	spillPairReg hl
                                   1796 ;	spillPairReg hl
    00000B88 3Es00            [ 7] 1797 	ld	a, #>(_ai_last_dx)
    00000B8A CE 00            [ 7] 1798 	adc	a, #0x00
    00000B8C 67               [ 4] 1799 	ld	h, a
    00000B8D 73               [ 7] 1800 	ld	(hl), e
                                   1801 ;E:\Dropbox\FAUSTO\SVILUPPI\MSX\CODE\C\MSXgl\projects\soccerlgMSX2/soccerlg_s6_b3.c:209: ai_last_dy[i] = Player->dy;
    00000B8E 3Er0E            [ 7] 1802 	ld	a, #<(_ai_last_dy)
    00000B90 DD 86 FF         [19] 1803 	add	a, -1 (ix)
    00000B93 5F               [ 4] 1804 	ld	e, a
    00000B94 3Es00            [ 7] 1805 	ld	a, #>(_ai_last_dy)
    00000B96 CE 00            [ 7] 1806 	adc	a, #0x00
    00000B98 57               [ 4] 1807 	ld	d, a
    00000B99 DD 6E F8         [19] 1808 	ld	l, -8 (ix)
    00000B9C DD 66 F9         [19] 1809 	ld	h, -7 (ix)
    00000B9F 7E               [ 7] 1810 	ld	a, (hl)
    00000BA0 12               [ 7] 1811 	ld	(de), a
                                   1812 ;E:\Dropbox\FAUSTO\SVILUPPI\MSX\CODE\C\MSXgl\projects\soccerlgMSX2/soccerlg_s6_b3.c:211: Player->lx += Player->dx;
    00000BA1 DD 6E EA         [19] 1813 	ld	l, -22 (ix)
    00000BA4 DD 66 EB         [19] 1814 	ld	h, -21 (ix)
    00000BA7 7E               [ 7] 1815 	ld	a, (hl)
    00000BA8 DD 6E F6         [19] 1816 	ld	l, -10 (ix)
    00000BAB DD 66 F7         [19] 1817 	ld	h, -9 (ix)
    00000BAE 5E               [ 7] 1818 	ld	e, (hl)
    00000BAF 83               [ 4] 1819 	add	a, e
    00000BB0 DD 6E EA         [19] 1820 	ld	l, -22 (ix)
    00000BB3 DD 66 EB         [19] 1821 	ld	h, -21 (ix)
    00000BB6 77               [ 7] 1822 	ld	(hl), a
                                   1823 ;E:\Dropbox\FAUSTO\SVILUPPI\MSX\CODE\C\MSXgl\projects\soccerlgMSX2/soccerlg_s6_b3.c:212: Player->ly += Player->dy;
    00000BB7 DD 6E F2         [19] 1824 	ld	l, -14 (ix)
    00000BBA DD 66 F3         [19] 1825 	ld	h, -13 (ix)
    00000BBD 5E               [ 7] 1826 	ld	e, (hl)
    00000BBE 23               [ 6] 1827 	inc	hl
    00000BBF 56               [ 7] 1828 	ld	d, (hl)
    00000BC0 DD 6E F8         [19] 1829 	ld	l, -8 (ix)
    00000BC3 DD 66 F9         [19] 1830 	ld	h, -7 (ix)
    00000BC6 7E               [ 7] 1831 	ld	a, (hl)
    00000BC7 6F               [ 4] 1832 	ld	l, a
                                   1833 ;	spillPairReg hl
                                   1834 ;	spillPairReg hl
    00000BC8 07               [ 4] 1835 	rlca
    00000BC9 9F               [ 4] 1836 	sbc	a, a
    00000BCA 67               [ 4] 1837 	ld	h, a
                                   1838 ;	spillPairReg hl
                                   1839 ;	spillPairReg hl
    00000BCB 19               [11] 1840 	add	hl, de
    00000BCC EB               [ 4] 1841 	ex	de, hl
    00000BCD DD 6E F2         [19] 1842 	ld	l, -14 (ix)
    00000BD0 DD 66 F3         [19] 1843 	ld	h, -13 (ix)
    00000BD3 73               [ 7] 1844 	ld	(hl), e
    00000BD4 23               [ 6] 1845 	inc	hl
    00000BD5 72               [ 7] 1846 	ld	(hl), d
                                   1847 ;E:\Dropbox\FAUSTO\SVILUPPI\MSX\CODE\C\MSXgl\projects\soccerlgMSX2/soccerlg_s6_b3.c:214: Player->anim++;
    00000BD6 DD 6E EA         [19] 1848 	ld	l, -22 (ix)
    00000BD9 DD 66 EB         [19] 1849 	ld	h, -21 (ix)
    00000BDC 11 13 00         [10] 1850 	ld	de, #0x0013
    00000BDF 19               [11] 1851 	add	hl, de
    00000BE0 5E               [ 7] 1852 	ld	e, (hl)
    00000BE1 23               [ 6] 1853 	inc	hl
    00000BE2 56               [ 7] 1854 	ld	d, (hl)
    00000BE3 2B               [ 6] 1855 	dec	hl
    00000BE4 13               [ 6] 1856 	inc	de
    00000BE5 73               [ 7] 1857 	ld	(hl), e
    00000BE6 23               [ 6] 1858 	inc	hl
    00000BE7 72               [ 7] 1859 	ld	(hl), d
                                   1860 ;E:\Dropbox\FAUSTO\SVILUPPI\MSX\CODE\C\MSXgl\projects\soccerlgMSX2/soccerlg_s6_b3.c:215: const u8 walk_seq[4] = {0, 1, 2, 1};
    00000BE8 DD 36 E6 00      [19] 1861 	ld	-26 (ix), #0x00
    00000BEC DD 36 E7 01      [19] 1862 	ld	-25 (ix), #0x01
    00000BF0 DD 36 E8 02      [19] 1863 	ld	-24 (ix), #0x02
    00000BF4 DD 36 E9 01      [19] 1864 	ld	-23 (ix), #0x01
                                   1865 ;E:\Dropbox\FAUSTO\SVILUPPI\MSX\CODE\C\MSXgl\projects\soccerlgMSX2/soccerlg_s6_b3.c:216: Player->frame = CallFnc_U16_P4(SEG_GAMESTATE, GetPlayerAnimFrame, i, Player->dx, Player->dy, walk_seq[(Player->anim / 3) % 4]);
    00000BF8 C5               [11] 1866 	push	bc
    00000BF9 EB               [ 4] 1867 	ex	de, hl
    00000BFA 11 03 00         [10] 1868 	ld	de, #0x0003
    00000BFD CDr00r00         [17] 1869 	call	__divuint
    00000C00 C1               [10] 1870 	pop	bc
    00000C01 7B               [ 4] 1871 	ld	a, e
    00000C02 E6 03            [ 7] 1872 	and	a, #0x03
    00000C04 5F               [ 4] 1873 	ld	e, a
    00000C05 16 00            [ 7] 1874 	ld	d, #0x00
    00000C07 21 00 00         [10] 1875 	ld	hl, #0
    00000C0A 39               [11] 1876 	add	hl, sp
    00000C0B 19               [11] 1877 	add	hl, de
    00000C0C 7E               [ 7] 1878 	ld	a, (hl)
    00000C0D DD 6E F8         [19] 1879 	ld	l, -8 (ix)
    00000C10 DD 66 F9         [19] 1880 	ld	h, -7 (ix)
    00000C13 5E               [ 7] 1881 	ld	e, (hl)
    00000C14 DD 6E F6         [19] 1882 	ld	l, -10 (ix)
    00000C17 DD 66 F7         [19] 1883 	ld	h, -9 (ix)
    00000C1A 56               [ 7] 1884 	ld	d, (hl)
    00000C1B C5               [11] 1885 	push	bc
    00000C1C F5               [11] 1886 	push	af
    00000C1D 33               [ 6] 1887 	inc	sp
    00000C1E 7B               [ 4] 1888 	ld	a, e
    00000C1F F5               [11] 1889 	push	af
    00000C20 33               [ 6] 1890 	inc	sp
    00000C21 D5               [11] 1891 	push	de
    00000C22 33               [ 6] 1892 	inc	sp
    00000C23 DD 7E FF         [19] 1893 	ld	a, -1 (ix)
    00000C26 F5               [11] 1894 	push	af
    00000C27 33               [ 6] 1895 	inc	sp
    00000C28 11r00r00         [10] 1896 	ld	de, #_GetPlayerAnimFrame
    00000C2B 3E 09            [ 7] 1897 	ld	a, #0x09
    00000C2D CDr00r00         [17] 1898 	call	_CallFnc_U16_P4
    00000C30 C1               [10] 1899 	pop	bc
    00000C31 7B               [ 4] 1900 	ld	a, e
    00000C32 02               [ 7] 1901 	ld	(bc), a
    00000C33 03               [ 6] 1902 	inc	bc
    00000C34 7A               [ 4] 1903 	ld	a, d
    00000C35 02               [ 7] 1904 	ld	(bc), a
    00000C36 C3r18r0D         [10] 1905 	jp	00214$
    00000C39                       1906 00208$:
                                   1907 ;E:\Dropbox\FAUSTO\SVILUPPI\MSX\CODE\C\MSXgl\projects\soccerlgMSX2/soccerlg_s6_b3.c:33: if (Ball->lx > Player->lx + 4) target_x = Player->lx + 2;
    00000C39 21r42r01         [10] 1908 	ld	hl, #(_SwSprite + 322)
    00000C3C 5E               [ 7] 1909 	ld	e, (hl)
                                   1910 ;E:\Dropbox\FAUSTO\SVILUPPI\MSX\CODE\C\MSXgl\projects\soccerlgMSX2/soccerlg_s6_b3.c:219: i8 dir_x = (Ball->lx > Player->lx + 4) ? 1 : ((Ball->lx < Player->lx - 4) ? -1 : 0);
    00000C3D DD 6E EA         [19] 1911 	ld	l, -22 (ix)
    00000C40 DD 66 EB         [19] 1912 	ld	h, -21 (ix)
    00000C43 7E               [ 7] 1913 	ld	a, (hl)
    00000C44 DD 77 FB         [19] 1914 	ld	-5 (ix), a
    00000C47 DD 36 FC 00      [19] 1915 	ld	-4 (ix), #0x00
    00000C4B DD 7E FB         [19] 1916 	ld	a, -5 (ix)
    00000C4E C6 04            [ 7] 1917 	add	a, #0x04
    00000C50 57               [ 4] 1918 	ld	d, a
    00000C51 DD 7E FC         [19] 1919 	ld	a, -4 (ix)
    00000C54 CE 00            [ 7] 1920 	adc	a, #0x00
    00000C56 6F               [ 4] 1921 	ld	l, a
                                   1922 ;	spillPairReg hl
                                   1923 ;	spillPairReg hl
                                   1924 ;E:\Dropbox\FAUSTO\SVILUPPI\MSX\CODE\C\MSXgl\projects\soccerlgMSX2/soccerlg_s6_b3.c:94: target_x = (target_x + Ball->lx) / 2;
    00000C57 DD 73 FD         [19] 1925 	ld	-3 (ix), e
    00000C5A DD 36 FE 00      [19] 1926 	ld	-2 (ix), #0x00
                                   1927 ;E:\Dropbox\FAUSTO\SVILUPPI\MSX\CODE\C\MSXgl\projects\soccerlgMSX2/soccerlg_s6_b3.c:219: i8 dir_x = (Ball->lx > Player->lx + 4) ? 1 : ((Ball->lx < Player->lx - 4) ? -1 : 0);
    00000C5E 7A               [ 4] 1928 	ld	a, d
    00000C5F DD 96 FD         [19] 1929 	sub	a, -3 (ix)
    00000C62 7D               [ 4] 1930 	ld	a, l
    00000C63 DD 9E FE         [19] 1931 	sbc	a, -2 (ix)
    00000C66 E2r6Br0C         [10] 1932 	jp	PO, 00773$
    00000C69 EE 80            [ 7] 1933 	xor	a, #0x80
    00000C6B                       1934 00773$:
    00000C6B F2r74r0C         [10] 1935 	jp	P, 00283$
    00000C6E 11 01 00         [10] 1936 	ld	de, #0x0001
    00000C71 C3r99r0C         [10] 1937 	jp	00284$
    00000C74                       1938 00283$:
    00000C74 DD 7E FB         [19] 1939 	ld	a, -5 (ix)
    00000C77 C6 FC            [ 7] 1940 	add	a, #0xfc
    00000C79 5F               [ 4] 1941 	ld	e, a
    00000C7A DD 7E FC         [19] 1942 	ld	a, -4 (ix)
    00000C7D CE FF            [ 7] 1943 	adc	a, #0xff
    00000C7F 57               [ 4] 1944 	ld	d, a
    00000C80 DD 7E FD         [19] 1945 	ld	a, -3 (ix)
    00000C83 93               [ 4] 1946 	sub	a, e
    00000C84 DD 7E FE         [19] 1947 	ld	a, -2 (ix)
    00000C87 9A               [ 4] 1948 	sbc	a, d
    00000C88 E2r8Dr0C         [10] 1949 	jp	PO, 00774$
    00000C8B EE 80            [ 7] 1950 	xor	a, #0x80
    00000C8D                       1951 00774$:
    00000C8D F2r96r0C         [10] 1952 	jp	P, 00285$
    00000C90 11 FF FF         [10] 1953 	ld	de, #0xffff
    00000C93 C3r99r0C         [10] 1954 	jp	00286$
    00000C96                       1955 00285$:
    00000C96 11 00 00         [10] 1956 	ld	de, #0x0000
    00000C99                       1957 00286$:
    00000C99                       1958 00284$:
    00000C99 DD 73 FE         [19] 1959 	ld	-2 (ix), e
                                   1960 ;E:\Dropbox\FAUSTO\SVILUPPI\MSX\CODE\C\MSXgl\projects\soccerlgMSX2/soccerlg_s6_b3.c:76: i16 ball_offset_y = (i16)Ball->ly - 256;
    00000C9C ED 5Br46r01      [20] 1961 	ld	de, (#(_SwSprite + 326) + 0)
                                   1962 ;E:\Dropbox\FAUSTO\SVILUPPI\MSX\CODE\C\MSXgl\projects\soccerlgMSX2/soccerlg_s6_b3.c:220: i8 dir_y = (Ball->ly > Player->ly + 4) ? 1 : ((Ball->ly < Player->ly - 4) ? -1 : 0);
    00000CA0 DD 6E F2         [19] 1963 	ld	l, -14 (ix)
    00000CA3 DD 66 F3         [19] 1964 	ld	h, -13 (ix)
    00000CA6 7E               [ 7] 1965 	ld	a, (hl)
    00000CA7 23               [ 6] 1966 	inc	hl
    00000CA8 66               [ 7] 1967 	ld	h, (hl)
                                   1968 ;	spillPairReg hl
                                   1969 ;	spillPairReg hl
                                   1970 ;	spillPairReg hl
    00000CA9 6F               [ 4] 1971 	ld	l, a
    00000CAA C6 04            [ 7] 1972 	add	a, #0x04
    00000CAC DD 77 FA         [19] 1973 	ld	-6 (ix), a
    00000CAF 7C               [ 4] 1974 	ld	a, h
    00000CB0 CE 00            [ 7] 1975 	adc	a, #0x00
    00000CB2 DD 77 FB         [19] 1976 	ld	-5 (ix), a
    00000CB5 DD 73 FC         [19] 1977 	ld	-4 (ix), e
    00000CB8 DD 72 FD         [19] 1978 	ld	-3 (ix), d
    00000CBB DD 7E FA         [19] 1979 	ld	a, -6 (ix)
    00000CBE DD 96 FC         [19] 1980 	sub	a, -4 (ix)
    00000CC1 DD 7E FB         [19] 1981 	ld	a, -5 (ix)
    00000CC4 DD 9E FD         [19] 1982 	sbc	a, -3 (ix)
    00000CC7 30 06            [12] 1983 	jr	NC, 00287$
    00000CC9 11 01 00         [10] 1984 	ld	de, #0x0001
    00000CCC C3rE7r0C         [10] 1985 	jp	00288$
    00000CCF                       1986 00287$:
    00000CCF 11 FC FF         [10] 1987 	ld	de, #0xfffc
    00000CD2 19               [11] 1988 	add	hl, de
    00000CD3 EB               [ 4] 1989 	ex	de,hl
    00000CD4 DD 7E FC         [19] 1990 	ld	a, -4 (ix)
    00000CD7 93               [ 4] 1991 	sub	a, e
    00000CD8 DD 7E FD         [19] 1992 	ld	a, -3 (ix)
    00000CDB 9A               [ 4] 1993 	sbc	a, d
    00000CDC 30 06            [12] 1994 	jr	NC, 00289$
    00000CDE 11 FF FF         [10] 1995 	ld	de, #0xffff
    00000CE1 C3rE7r0C         [10] 1996 	jp	00290$
    00000CE4                       1997 00289$:
    00000CE4 11 00 00         [10] 1998 	ld	de, #0x0000
    00000CE7                       1999 00290$:
    00000CE7                       2000 00288$:
                                   2001 ;E:\Dropbox\FAUSTO\SVILUPPI\MSX\CODE\C\MSXgl\projects\soccerlgMSX2/soccerlg_s6_b3.c:221: if (dir_x == 0 && dir_y == 0) {
    00000CE7 DD 7E FE         [19] 2002 	ld	a, -2 (ix)
    00000CEA B7               [ 4] 2003 	or	a,a
    00000CEB 20 12            [12] 2004 	jr	NZ, 00205$
    00000CED B3               [ 4] 2005 	or	a,e
    00000CEE 20 0F            [12] 2006 	jr	NZ, 00205$
                                   2007 ;E:\Dropbox\FAUSTO\SVILUPPI\MSX\CODE\C\MSXgl\projects\soccerlgMSX2/soccerlg_s6_b3.c:222: dir_y = (team == TEAM_1) ? 1 : -1;
    00000CF0 DD 7E EC         [19] 2008 	ld	a, -20 (ix)
    00000CF3 B7               [ 4] 2009 	or	a, a
    00000CF4 20 06            [12] 2010 	jr	NZ, 00291$
    00000CF6 11 01 00         [10] 2011 	ld	de, #0x0001
    00000CF9 C3rFFr0C         [10] 2012 	jp	00292$
    00000CFC                       2013 00291$:
    00000CFC 11 FF FF         [10] 2014 	ld	de, #0xffff
    00000CFF                       2015 00292$:
    00000CFF                       2016 00205$:
                                   2017 ;E:\Dropbox\FAUSTO\SVILUPPI\MSX\CODE\C\MSXgl\projects\soccerlgMSX2/soccerlg_s6_b3.c:224: Player->frame = CallFnc_U16_P3(SEG_GAMESTATE, GetPlayerIdleFrame, i, dir_x, dir_y);
    00000CFF C5               [11] 2018 	push	bc
    00000D00 63               [ 4] 2019 	ld	h, e
    00000D01 DD 6E FE         [19] 2020 	ld	l, -2 (ix)
    00000D04 E5               [11] 2021 	push	hl
    00000D05 DD 7E FF         [19] 2022 	ld	a, -1 (ix)
    00000D08 F5               [11] 2023 	push	af
    00000D09 33               [ 6] 2024 	inc	sp
    00000D0A 11r00r00         [10] 2025 	ld	de, #_GetPlayerIdleFrame
    00000D0D 3E 09            [ 7] 2026 	ld	a, #0x09
    00000D0F CDr00r00         [17] 2027 	call	_CallFnc_U16_P3
    00000D12 C1               [10] 2028 	pop	bc
    00000D13 7B               [ 4] 2029 	ld	a, e
    00000D14 02               [ 7] 2030 	ld	(bc), a
    00000D15 03               [ 6] 2031 	inc	bc
    00000D16 7A               [ 4] 2032 	ld	a, d
    00000D17 02               [ 7] 2033 	ld	(bc), a
    00000D18                       2034 00214$:
                                   2035 ;E:\Dropbox\FAUSTO\SVILUPPI\MSX\CODE\C\MSXgl\projects\soccerlgMSX2/soccerlg_s6_b3.c:226: }
    00000D18 DD F9            [10] 2036 	ld	sp, ix
    00000D1A DD E1            [14] 2037 	pop	ix
    00000D1C C9               [10] 2038 	ret
                         0000F380  2039 _g_RDPRIM	=	0xf380
                         0000F385  2040 _g_WRPRIM	=	0xf385
                         0000F38C  2041 _g_CLPRIM	=	0xf38c
                         0000F39A  2042 _g_USRTAB	=	0xf39a
                         0000F3DE  2043 _g_CNSDFG	=	0xf3de
                         0000F3DF  2044 _g_RG0SAV	=	0xf3df
                         0000F3E0  2045 _g_RG1SAV	=	0xf3e0
                         0000F3E1  2046 _g_RG2SAV	=	0xf3e1
                         0000F3E2  2047 _g_RG3SAV	=	0xf3e2
                         0000F3E3  2048 _g_RG4SAV	=	0xf3e3
                         0000F3E4  2049 _g_RG5SAV	=	0xf3e4
                         0000F3E5  2050 _g_RG6SAV	=	0xf3e5
                         0000F3E6  2051 _g_RG7SAV	=	0xf3e6
                         0000F3E7  2052 _g_STATFL	=	0xf3e7
                         0000F3E8  2053 _g_TRGFLG	=	0xf3e8
                         0000F3EC  2054 _g_MAXUPD	=	0xf3ec
                         0000F3EF  2055 _g_MINUPD	=	0xf3ef
                         0000F3F3  2056 _g_QUEUES	=	0xf3f3
                         0000F3F5  2057 _g_FRCNEW	=	0xf3f5
                         0000F3F6  2058 _g_SCNCNT	=	0xf3f6
                         0000F3F7  2059 _g_REPCNT	=	0xf3f7
                         0000F3F8  2060 _g_PUTPNT	=	0xf3f8
                         0000F3FA  2061 _g_GETPNT	=	0xf3fa
                         0000F3FC  2062 _g_CS120	=	0xf3fc
                         0000F401  2063 _g_CS240	=	0xf401
                         0000F406  2064 _g_LOW	=	0xf406
                         0000F408  2065 _g_HIGH	=	0xf408
                         0000F40A  2066 _g_HEADER	=	0xf40a
                         0000F40B  2067 _g_ASPCT1	=	0xf40b
                         0000F40D  2068 _g_ASPCT2	=	0xf40d
                         0000F959  2069 _g_QUETAB	=	0xf959
                         0000F971  2070 _g_QUEBAK	=	0xf971
                         0000F975  2071 _g_VOICAQ	=	0xf975
                         0000F9F5  2072 _g_VOICBQ	=	0xf9f5
                         0000FA75  2073 _g_VOICCQ	=	0xfa75
                         0000FAF5  2074 _g_RS2IQ	=	0xfaf5
                         0000FAF5  2075 _g_DPPAGE	=	0xfaf5
                         0000FAF6  2076 _g_ACPAGE	=	0xfaf6
                         0000FAF7  2077 _g_AVCSAV	=	0xfaf7
                         0000FAF8  2078 _g_EXBRSA	=	0xfaf8
                         0000FAF9  2079 _g_CHRCNT	=	0xfaf9
                         0000FAFA  2080 _g_ROMA	=	0xfafa
                         0000FAFC  2081 _g_MODE	=	0xfafc
                         0000FAFD  2082 _g_NORUSE	=	0xfafd
                         0000FAFE  2083 _g_XSAVE	=	0xfafe
                         0000FB00  2084 _g_YSAVE	=	0xfb00
                         0000FB03  2085 _g_RSTMP	=	0xfb03
                         0000FB03  2086 _g_TOCNT	=	0xfb03
                         0000FB04  2087 _g_RSFCB	=	0xfb04
                         0000FB06  2088 _g_RSIQLN	=	0xfb06
                         0000FB07  2089 _g_MEXBIh	=	0xfb07
                         0000FB0C  2090 _g_OLDSTT	=	0xfb0c
                         0000FB0C  2091 _g_OLDINT	=	0xfb0c
                         0000FB16  2092 _g_DEVNUM	=	0xfb16
                         0000FB17  2093 _g_DATCNT	=	0xfb17
                         0000FB1A  2094 _g_ERRORS	=	0xfb1a
                         0000FB1B  2095 _g_FLAGS	=	0xfb1b
                         0000FB1C  2096 _g_ESTBLS	=	0xfb1c
                         0000FB1D  2097 _g_COMMSK	=	0xfb1d
                         0000FB1E  2098 _g_LSTCOM	=	0xfb1e
                         0000FB1F  2099 _g_LSTMOD	=	0xfb1f
                         0000FB35  2100 _g_PRSCNT	=	0xfb35
                         0000FB36  2101 _g_SAVSP	=	0xfb36
                         0000FB38  2102 _g_VOICEN	=	0xfb38
                         0000FB39  2103 _g_SAVVOL	=	0xfb39
                         0000FB3B  2104 _g_MCLLEN	=	0xfb3b
                         0000FB3C  2105 _g_MCLPTR	=	0xfb3c
                         0000FB3E  2106 _g_QUEUEN	=	0xfb3e
                         0000FB3F  2107 _g_MUSICF	=	0xfb3f
                         0000FB40  2108 _g_PLYCNT	=	0xfb40
                         0000FB41  2109 _g_VCBA	=	0xfb41
                         0000FB66  2110 _g_VCBB	=	0xfb66
                         0000FB8B  2111 _g_VCBC	=	0xfb8b
                         0000FBB0  2112 _g_ENSTOP	=	0xfbb0
                         0000FBB1  2113 _g_BASROM	=	0xfbb1
                         0000FBB2  2114 _g_LINTTB	=	0xfbb2
                         0000FBCA  2115 _g_FSTPOS	=	0xfbca
                         0000FBCC  2116 _g_CODSAV	=	0xfbcc
                         0000FBCD  2117 _g_FNKSWI	=	0xfbcd
                         0000FBCE  2118 _g_FNKFLG	=	0xfbce
                         0000FBD8  2119 _g_ONGSBF	=	0xfbd8
                         0000FBD9  2120 _g_CLIKFL	=	0xfbd9
                         0000FBDA  2121 _g_OLDKEY	=	0xfbda
                         0000FBE5  2122 _g_NEWKEY	=	0xfbe5
                         0000FBF0  2123 _g_KEYBUF	=	0xfbf0
                         0000FC18  2124 _g_LINWRK	=	0xfc18
                         0000FC40  2125 _g_PATWRK	=	0xfc40
                         0000FC48  2126 _g_BOTTOM	=	0xfc48
                         0000FC4A  2127 _g_HIMEM	=	0xfc4a
                         0000FC4C  2128 _g_TRPTBL	=	0xfc4c
                         0000FC9A  2129 _g_RTYCNT	=	0xfc9a
                         0000FC9B  2130 _g_INTFLG	=	0xfc9b
                         0000FC9C  2131 _g_PADY	=	0xfc9c
                         0000FC9D  2132 _g_PADX	=	0xfc9d
                         0000FC9E  2133 _g_JIFFY	=	0xfc9e
                         0000FCA0  2134 _g_INTVAL	=	0xfca0
                         0000FCA2  2135 _g_INTCNT	=	0xfca2
                         0000FCA4  2136 _g_LOWLIM	=	0xfca4
                         0000FCA5  2137 _g_WINWID	=	0xfca5
                         0000FCA6  2138 _g_GRPHED	=	0xfca6
                         0000FCA7  2139 _g_ESCCNT	=	0xfca7
                         0000FCA8  2140 _g_INSFLG	=	0xfca8
                         0000FCA9  2141 _g_CSRSW	=	0xfca9
                         0000FCAA  2142 _g_CSTYLE	=	0xfcaa
                         0000FCAB  2143 _g_CAPST	=	0xfcab
                         0000FCAC  2144 _g_KANAST	=	0xfcac
                         0000FCAD  2145 _g_KANAMD	=	0xfcad
                         0000FCAE  2146 _g_FLBMEM	=	0xfcae
                         0000FCAF  2147 _g_SCRMOD	=	0xfcaf
                         0000FCB0  2148 _g_OLDSCR	=	0xfcb0
                         0000FCB1  2149 _g_CASPRV	=	0xfcb1
                         0000FCB2  2150 _g_BRDATR	=	0xfcb2
                         0000FCB3  2151 _g_GXPOS	=	0xfcb3
                         0000FCB5  2152 _g_GYPOS	=	0xfcb5
                         0000FCBB  2153 _g_DRWFLG	=	0xfcbb
                         0000FCBC  2154 _g_DRWSCL	=	0xfcbc
                         0000FCBD  2155 _g_DRWANG	=	0xfcbd
                         0000FCC1  2156 _g_MNROM	=	0xfcc1
                         0000FCC1  2157 _g_EXPTBL	=	0xfcc1
                         0000FCC5  2158 _g_SLTTBL	=	0xfcc5
                         0000FCC9  2159 _g_SLTATR	=	0xfcc9
                         0000FD09  2160 _g_SLTWRK	=	0xfd09
                         0000FD89  2161 _g_PROCNM	=	0xfd89
                         0000FFE7  2162 _g_RG08SAV	=	0xffe7
                         0000FFE8  2163 _g_RG09SAV	=	0xffe8
                         0000FFE9  2164 _g_RG10SAV	=	0xffe9
                         0000FFEA  2165 _g_RG11SAV	=	0xffea
                         0000FFEB  2166 _g_RG12SAV	=	0xffeb
                         0000FFEC  2167 _g_RG13SAV	=	0xffec
                         0000FFED  2168 _g_RG14SAV	=	0xffed
                         0000FFEE  2169 _g_RG15SAV	=	0xffee
                         0000FFEF  2170 _g_RG16SAV	=	0xffef
                         0000FFF0  2171 _g_RG17SAV	=	0xfff0
                         0000FFF1  2172 _g_RG18SAV	=	0xfff1
                         0000FFF2  2173 _g_RG19SAV	=	0xfff2
                         0000FFF3  2174 _g_RG20SAV	=	0xfff3
                         0000FFF4  2175 _g_RG21SAV	=	0xfff4
                         0000FFF5  2176 _g_RG22SAV	=	0xfff5
                         0000FFF6  2177 _g_RG23SAV	=	0xfff6
                         0000FFF7  2178 _g_MINROM	=	0xfff7
                         0000FFF8  2179 _g_SVFFF8	=	0xfff8
                         0000FFFA  2180 _g_RG25SAV	=	0xfffa
                         0000FFFB  2181 _g_RG26SAV	=	0xfffb
                         0000FFFC  2182 _g_RG27SAV	=	0xfffc
                         0000FFFD  2183 _g_SVFFFD	=	0xfffd
                         00000004  2184 _g_CGTABL	=	0x0004
                         00000006  2185 _g_VDP_DR	=	0x0006
                         00000007  2186 _g_VDP_DW	=	0x0007
                         0000002B  2187 _g_BASRVN	=	0x002b
                         0000002B  2188 _g_ROMVersion	=	0x002b
                         0000002D  2189 _g_MSXVER	=	0x002d
                         0000002E  2190 _g_MSXMID	=	0x002e
                         00000034  2191 _g_CHAR_16	=	0x0034
                         00000000  2192 _g_SUBRID	=	0x0000
                         00000002  2193 _g_STRSRC	=	0x0002
                         0000F30F  2194 _g_KANJTABLE	=	0xf30f
                         0000F323  2195 _g_DISKVE	=	0xf323
                         0000F325  2196 _g_BREAKV	=	0xf325
                         0000F341  2197 _g_RAMAD0	=	0xf341
                         0000F342  2198 _g_RAMAD1	=	0xf342
                         0000F343  2199 _g_RAMAD2	=	0xf343
                         0000F344  2200 _g_RAMAD3	=	0xf344
                         0000F348  2201 _g_MASTER	=	0xf348
                         0000F37D  2202 _g_BDOS	=	0xf37d
                                   2203 ;E:\Dropbox\FAUSTO\SVILUPPI\MSX\CODE\C\MSXgl\projects\soccerlgMSX2/soccerlg_s6_b3.c:229: u16 FindReceiver(u8 carrier, u8 ignore_player, i8 c_dx, i8 c_dy) 
                                   2204 ;	---------------------------------
                                   2205 ; Function FindReceiver
                                   2206 ; ---------------------------------
    00000D1D                       2207 _FindReceiver::
    00000D1D DD E5            [15] 2208 	push	ix
    00000D1F DD 21 00 00      [14] 2209 	ld	ix,#0
    00000D23 DD 39            [15] 2210 	add	ix,sp
    00000D25 FD 21 E6 FF      [14] 2211 	ld	iy, #-26
    00000D29 FD 39            [15] 2212 	add	iy, sp
    00000D2B FD F9            [10] 2213 	ld	sp, iy
    00000D2D DD 77 FE         [19] 2214 	ld	-2 (ix), a
    00000D30 DD 75 FD         [19] 2215 	ld	-3 (ix), l
                                   2216 ;E:\Dropbox\FAUSTO\SVILUPPI\MSX\CODE\C\MSXgl\projects\soccerlgMSX2/soccerlg_s6_b3.c:231: u8 start_idx = (carrier < 7) ? 1 : 8; // Esclude i portieri
    00000D33 DD 7E FE         [19] 2217 	ld	a, -2 (ix)
    00000D36 D6 07            [ 7] 2218 	sub	a, #0x07
    00000D38 30 06            [12] 2219 	jr	NC, 00155$
    00000D3A 01 01 00         [10] 2220 	ld	bc, #0x0001
    00000D3D C3r43r0D         [10] 2221 	jp	00156$
    00000D40                       2222 00155$:
    00000D40 01 08 00         [10] 2223 	ld	bc, #0x0008
    00000D43                       2224 00156$:
                                   2225 ;E:\Dropbox\FAUSTO\SVILUPPI\MSX\CODE\C\MSXgl\projects\soccerlgMSX2/soccerlg_s6_b3.c:232: u8 end_idx = start_idx + 6;
    00000D43 DD 71 E6         [19] 2226 	ld	-26 (ix), c
    00000D46 79               [ 4] 2227 	ld	a, c
    00000D47 C6 06            [ 7] 2228 	add	a, #0x06
    00000D49 DD 77 E7         [19] 2229 	ld	-25 (ix), a
                                   2230 ;E:\Dropbox\FAUSTO\SVILUPPI\MSX\CODE\C\MSXgl\projects\soccerlgMSX2/soccerlg_s6_b3.c:233: u8 best_match = 0xFF;
    00000D4C DD 36 E8 FF      [19] 2231 	ld	-24 (ix), #0xff
                                   2232 ;E:\Dropbox\FAUSTO\SVILUPPI\MSX\CODE\C\MSXgl\projects\soccerlgMSX2/soccerlg_s6_b3.c:234: u16 min_dist = 0xFFFF;
    00000D50 DD 36 E9 FF      [19] 2233 	ld	-23 (ix), #0xff
    00000D54 DD 36 EA FF      [19] 2234 	ld	-22 (ix), #0xff
                                   2235 ;E:\Dropbox\FAUSTO\SVILUPPI\MSX\CODE\C\MSXgl\projects\soccerlgMSX2/soccerlg_s6_b3.c:238: for (u8 i = start_idx; i < end_idx; i++) {
    00000D58 DD 4E FE         [19] 2236 	ld	c, -2 (ix)
    00000D5B 06 00            [ 7] 2237 	ld	b, #0x00
    00000D5D 69               [ 4] 2238 	ld	l, c
    00000D5E 60               [ 4] 2239 	ld	h, b
    00000D5F 29               [11] 2240 	add	hl, hl
    00000D60 29               [11] 2241 	add	hl, hl
    00000D61 09               [11] 2242 	add	hl, bc
    00000D62 29               [11] 2243 	add	hl, hl
    00000D63 09               [11] 2244 	add	hl, bc
    00000D64 29               [11] 2245 	add	hl, hl
    00000D65 09               [11] 2246 	add	hl, bc
    00000D66 DD 75 EB         [19] 2247 	ld	-21 (ix), l
    00000D69 DD 74 EC         [19] 2248 	ld	-20 (ix), h
    00000D6C 3Er00            [ 7] 2249 	ld	a, #<(_SwSprite)
    00000D6E DD 86 EB         [19] 2250 	add	a, -21 (ix)
    00000D71 4F               [ 4] 2251 	ld	c, a
    00000D72 3Es00            [ 7] 2252 	ld	a, #>(_SwSprite)
    00000D74 DD 8E EC         [19] 2253 	adc	a, -20 (ix)
    00000D77 47               [ 4] 2254 	ld	b, a
    00000D78 0A               [ 7] 2255 	ld	a, (bc)
    00000D79 DD 77 ED         [19] 2256 	ld	-19 (ix), a
    00000D7C DD 71 EE         [19] 2257 	ld	-18 (ix), c
    00000D7F DD 70 EF         [19] 2258 	ld	-17 (ix), b
    00000D82 AF               [ 4] 2259 	xor	a, a
    00000D83 DD 96 05         [19] 2260 	sub	a, 5 (ix)
    00000D86 E2r8Br0D         [10] 2261 	jp	PO, 00342$
    00000D89 EE 80            [ 7] 2262 	xor	a, #0x80
    00000D8B                       2263 00342$:
    00000D8B 07               [ 4] 2264 	rlca
    00000D8C E6 01            [ 7] 2265 	and	a,#0x01
    00000D8E DD 77 F0         [19] 2266 	ld	-16 (ix), a
    00000D91 AF               [ 4] 2267 	xor	a, a
    00000D92 DD 96 04         [19] 2268 	sub	a, 4 (ix)
    00000D95 E2r9Ar0D         [10] 2269 	jp	PO, 00343$
    00000D98 EE 80            [ 7] 2270 	xor	a, #0x80
    00000D9A                       2271 00343$:
    00000D9A 07               [ 4] 2272 	rlca
    00000D9B E6 01            [ 7] 2273 	and	a,#0x01
    00000D9D DD 77 F1         [19] 2274 	ld	-15 (ix), a
    00000DA0 DD 7E 04         [19] 2275 	ld	a, 4 (ix)
    00000DA3 07               [ 4] 2276 	rlca
    00000DA4 E6 01            [ 7] 2277 	and	a,#0x01
    00000DA6 DD 77 F2         [19] 2278 	ld	-14 (ix), a
    00000DA9 DD 7E 05         [19] 2279 	ld	a, 5 (ix)
    00000DAC 07               [ 4] 2280 	rlca
    00000DAD E6 01            [ 7] 2281 	and	a,#0x01
    00000DAF DD 77 F3         [19] 2282 	ld	-13 (ix), a
    00000DB2 DD 7E E6         [19] 2283 	ld	a, -26 (ix)
    00000DB5 DD 77 FF         [19] 2284 	ld	-1 (ix), a
    00000DB8                       2285 00148$:
    00000DB8 DD 7E FF         [19] 2286 	ld	a, -1 (ix)
    00000DBB DD 96 E7         [19] 2287 	sub	a, -25 (ix)
    00000DBE D2r21r0F         [10] 2288 	jp	NC, 00127$
                                   2289 ;E:\Dropbox\FAUSTO\SVILUPPI\MSX\CODE\C\MSXgl\projects\soccerlgMSX2/soccerlg_s6_b3.c:239: if (i == carrier || i == ignore_player) continue; 
    00000DC1 DD 7E FE         [19] 2290 	ld	a, -2 (ix)
    00000DC4 DD 96 FF         [19] 2291 	sub	a, -1 (ix)
    00000DC7 CAr1Br0F         [10] 2292 	jp	Z,00126$
    00000DCA DD 7E FD         [19] 2293 	ld	a, -3 (ix)
    00000DCD DD 96 FF         [19] 2294 	sub	a, -1 (ix)
    00000DD0 CAr1Br0F         [10] 2295 	jp	Z,00126$
                                   2296 ;E:\Dropbox\FAUSTO\SVILUPPI\MSX\CODE\C\MSXgl\projects\soccerlgMSX2/soccerlg_s6_b3.c:241: u8 dx_diff = (u8)(SwSprite[i].lx - SwSprite[carrier].lx);
    00000DD3 DD 4E FF         [19] 2297 	ld	c, -1 (ix)
    00000DD6 06 00            [ 7] 2298 	ld	b, #0x00
    00000DD8 69               [ 4] 2299 	ld	l, c
    00000DD9 60               [ 4] 2300 	ld	h, b
    00000DDA 29               [11] 2301 	add	hl, hl
    00000DDB 29               [11] 2302 	add	hl, hl
    00000DDC 09               [11] 2303 	add	hl, bc
    00000DDD 29               [11] 2304 	add	hl, hl
    00000DDE 09               [11] 2305 	add	hl, bc
    00000DDF 29               [11] 2306 	add	hl, hl
    00000DE0 09               [11] 2307 	add	hl, bc
    00000DE1 11r00r00         [10] 2308 	ld	de, #_SwSprite
    00000DE4 19               [11] 2309 	add	hl, de
    00000DE5 DD 75 F9         [19] 2310 	ld	-7 (ix), l
    00000DE8 DD 74 FA         [19] 2311 	ld	-6 (ix), h
    00000DEB 7E               [ 7] 2312 	ld	a, (hl)
    00000DEC DD 96 ED         [19] 2313 	sub	a, -19 (ix)
                                   2314 ;E:\Dropbox\FAUSTO\SVILUPPI\MSX\CODE\C\MSXgl\projects\soccerlgMSX2/soccerlg_s6_b3.c:242: u16 dx = (dx_diff < 128) ? dx_diff : (256 - dx_diff);
    00000DEF DD 77 F4         [19] 2315 	ld	-12 (ix), a
    00000DF2 D6 80            [ 7] 2316 	sub	a, #0x80
    00000DF4 3E 00            [ 7] 2317 	ld	a, #0x00
    00000DF6 17               [ 4] 2318 	rla
    00000DF7 DD 77 F5         [19] 2319 	ld	-11 (ix), a
    00000DFA DD 7E F4         [19] 2320 	ld	a, -12 (ix)
    00000DFD DD 77 F7         [19] 2321 	ld	-9 (ix), a
    00000E00 DD 36 F8 00      [19] 2322 	ld	-8 (ix), #0x00
    00000E04 DD 7E F5         [19] 2323 	ld	a, -11 (ix)
    00000E07 B7               [ 4] 2324 	or	a, a
    00000E08 28 0F            [12] 2325 	jr	Z, 00157$
    00000E0A DD 7E F7         [19] 2326 	ld	a, -9 (ix)
    00000E0D DD 77 FB         [19] 2327 	ld	-5 (ix), a
    00000E10 DD 7E F8         [19] 2328 	ld	a, -8 (ix)
    00000E13 DD 77 FC         [19] 2329 	ld	-4 (ix), a
    00000E16 C3r28r0E         [10] 2330 	jp	00158$
    00000E19                       2331 00157$:
    00000E19 AF               [ 4] 2332 	xor	a, a
    00000E1A DD 96 F7         [19] 2333 	sub	a, -9 (ix)
    00000E1D DD 77 FB         [19] 2334 	ld	-5 (ix), a
    00000E20 3E 01            [ 7] 2335 	ld	a, #0x01
    00000E22 DD 9E F8         [19] 2336 	sbc	a, -8 (ix)
    00000E25 DD 77 FC         [19] 2337 	ld	-4 (ix), a
    00000E28                       2338 00158$:
    00000E28 DD 7E FB         [19] 2339 	ld	a, -5 (ix)
    00000E2B DD 77 F6         [19] 2340 	ld	-10 (ix), a
    00000E2E DD 7E FC         [19] 2341 	ld	a, -4 (ix)
    00000E31 DD 77 F7         [19] 2342 	ld	-9 (ix), a
                                   2343 ;E:\Dropbox\FAUSTO\SVILUPPI\MSX\CODE\C\MSXgl\projects\soccerlgMSX2/soccerlg_s6_b3.c:243: u16 dy_diff_16 = (u16)(SwSprite[i].ly - SwSprite[carrier].ly) & 511;
    00000E34 DD 4E F9         [19] 2344 	ld	c, -7 (ix)
    00000E37 DD 46 FA         [19] 2345 	ld	b, -6 (ix)
    00000E3A 21 04 00         [10] 2346 	ld	hl, #4
    00000E3D 09               [11] 2347 	add	hl, bc
    00000E3E 4E               [ 7] 2348 	ld	c, (hl)
    00000E3F 23               [ 6] 2349 	inc	hl
    00000E40 46               [ 7] 2350 	ld	b, (hl)
    00000E41 DD 6E EE         [19] 2351 	ld	l, -18 (ix)
    00000E44 DD 66 EF         [19] 2352 	ld	h, -17 (ix)
    00000E47 11 04 00         [10] 2353 	ld	de, #0x0004
    00000E4A 19               [11] 2354 	add	hl, de
    00000E4B 5E               [ 7] 2355 	ld	e, (hl)
    00000E4C 23               [ 6] 2356 	inc	hl
    00000E4D 56               [ 7] 2357 	ld	d, (hl)
    00000E4E 79               [ 4] 2358 	ld	a, c
    00000E4F 93               [ 4] 2359 	sub	a, e
    00000E50 4F               [ 4] 2360 	ld	c, a
    00000E51 78               [ 4] 2361 	ld	a, b
    00000E52 9A               [ 4] 2362 	sbc	a, d
    00000E53 E6 01            [ 7] 2363 	and	a, #0x01
                                   2364 ;E:\Dropbox\FAUSTO\SVILUPPI\MSX\CODE\C\MSXgl\projects\soccerlgMSX2/soccerlg_s6_b3.c:244: u16 dy = (dy_diff_16 < 256) ? dy_diff_16 : (512 - dy_diff_16);
    00000E55 DD 71 F9         [19] 2365 	ld	-7 (ix), c
    00000E58 DD 77 FA         [19] 2366 	ld	-6 (ix), a
    00000E5B 47               [ 4] 2367 	ld	b, a
    00000E5C D6 01            [ 7] 2368 	sub	a, #0x01
    00000E5E 3E 00            [ 7] 2369 	ld	a, #0x00
    00000E60 17               [ 4] 2370 	rla
    00000E61 DD 77 F8         [19] 2371 	ld	-8 (ix), a
    00000E64 B7               [ 4] 2372 	or	a, a
    00000E65 28 0F            [12] 2373 	jr	Z, 00159$
    00000E67 DD 7E F9         [19] 2374 	ld	a, -7 (ix)
    00000E6A DD 77 FB         [19] 2375 	ld	-5 (ix), a
    00000E6D DD 7E FA         [19] 2376 	ld	a, -6 (ix)
    00000E70 DD 77 FC         [19] 2377 	ld	-4 (ix), a
    00000E73 C3r85r0E         [10] 2378 	jp	00160$
    00000E76                       2379 00159$:
    00000E76 AF               [ 4] 2380 	xor	a, a
    00000E77 DD 96 F9         [19] 2381 	sub	a, -7 (ix)
    00000E7A DD 77 FB         [19] 2382 	ld	-5 (ix), a
    00000E7D 3E 02            [ 7] 2383 	ld	a, #0x02
    00000E7F DD 9E FA         [19] 2384 	sbc	a, -6 (ix)
    00000E82 DD 77 FC         [19] 2385 	ld	-4 (ix), a
    00000E85                       2386 00160$:
    00000E85 DD 7E FB         [19] 2387 	ld	a, -5 (ix)
    00000E88 DD 77 F9         [19] 2388 	ld	-7 (ix), a
    00000E8B DD 7E FC         [19] 2389 	ld	a, -4 (ix)
    00000E8E DD 77 FA         [19] 2390 	ld	-6 (ix), a
                                   2391 ;E:\Dropbox\FAUSTO\SVILUPPI\MSX\CODE\C\MSXgl\projects\soccerlgMSX2/soccerlg_s6_b3.c:245: u16 dist = dx + dy; 
    00000E91 DD 7E F9         [19] 2392 	ld	a, -7 (ix)
    00000E94 DD 86 F6         [19] 2393 	add	a, -10 (ix)
    00000E97 DD 77 FB         [19] 2394 	ld	-5 (ix), a
    00000E9A DD 7E FA         [19] 2395 	ld	a, -6 (ix)
    00000E9D DD 8E F7         [19] 2396 	adc	a, -9 (ix)
    00000EA0 DD 77 FC         [19] 2397 	ld	-4 (ix), a
                                   2398 ;E:\Dropbox\FAUSTO\SVILUPPI\MSX\CODE\C\MSXgl\projects\soccerlgMSX2/soccerlg_s6_b3.c:248: if (dist > max_dist) continue;
    00000EA3 3E 82            [ 7] 2399 	ld	a, #0x82
    00000EA5 DD BE FB         [19] 2400 	cp	a, -5 (ix)
    00000EA8 3E 00            [ 7] 2401 	ld	a, #0x00
    00000EAA DD 9E FC         [19] 2402 	sbc	a, -4 (ix)
    00000EAD 38 6C            [12] 2403 	jr	C, 00126$
                                   2404 ;E:\Dropbox\FAUSTO\SVILUPPI\MSX\CODE\C\MSXgl\projects\soccerlgMSX2/soccerlg_s6_b3.c:253: if (c_dy != 0) {
    00000EAF DD 7E 05         [19] 2405 	ld	a, 5 (ix)
    00000EB2 B7               [ 4] 2406 	or	a, a
    00000EB3 28 21            [12] 2407 	jr	Z, 00122$
                                   2408 ;E:\Dropbox\FAUSTO\SVILUPPI\MSX\CODE\C\MSXgl\projects\soccerlgMSX2/soccerlg_s6_b3.c:255: bool is_south = (dy_diff_16 < 256);
    00000EB5 DD 7E F8         [19] 2409 	ld	a, -8 (ix)
    00000EB8 DD 77 FA         [19] 2410 	ld	-6 (ix), a
                                   2411 ;E:\Dropbox\FAUSTO\SVILUPPI\MSX\CODE\C\MSXgl\projects\soccerlgMSX2/soccerlg_s6_b3.c:256: if (c_dy > 0 && !is_south) continue; // Cerca a SUD, ma 'i' è a NORD
    00000EBB DD 7E F0         [19] 2412 	ld	a, -16 (ix)
    00000EBE B7               [ 4] 2413 	or	a, a
    00000EBF 28 06            [12] 2414 	jr	Z, 00107$
    00000EC1 DD 7E FA         [19] 2415 	ld	a, -6 (ix)
    00000EC4 B7               [ 4] 2416 	or	a, a
    00000EC5 28 54            [12] 2417 	jr	Z, 00126$
    00000EC7                       2418 00107$:
                                   2419 ;E:\Dropbox\FAUSTO\SVILUPPI\MSX\CODE\C\MSXgl\projects\soccerlgMSX2/soccerlg_s6_b3.c:257: if (c_dy < 0 && is_south) continue; // Cerca a NORD, ma 'i' è a SUD
    00000EC7 DD 7E F3         [19] 2420 	ld	a, -13 (ix)
    00000ECA B7               [ 4] 2421 	or	a, a
    00000ECB 28 2E            [12] 2422 	jr	Z, 00123$
    00000ECD DD 7E FA         [19] 2423 	ld	a, -6 (ix)
    00000ED0 B7               [ 4] 2424 	or	a, a
    00000ED1 28 28            [12] 2425 	jr	Z, 00123$
    00000ED3 C3r1Br0F         [10] 2426 	jp	00126$
    00000ED6                       2427 00122$:
                                   2428 ;E:\Dropbox\FAUSTO\SVILUPPI\MSX\CODE\C\MSXgl\projects\soccerlgMSX2/soccerlg_s6_b3.c:258: } else if (c_dx != 0) {
    00000ED6 DD 7E 04         [19] 2429 	ld	a, 4 (ix)
    00000ED9 B7               [ 4] 2430 	or	a, a
    00000EDA 28 1F            [12] 2431 	jr	Z, 00123$
                                   2432 ;E:\Dropbox\FAUSTO\SVILUPPI\MSX\CODE\C\MSXgl\projects\soccerlgMSX2/soccerlg_s6_b3.c:260: if (c_dx > 0 && dx_diff > 128) continue; // Cerca a DX, ma 'i' è a SX
    00000EDC DD 7E F1         [19] 2433 	ld	a, -15 (ix)
    00000EDF B7               [ 4] 2434 	or	a, a
    00000EE0 28 07            [12] 2435 	jr	Z, 00113$
    00000EE2 3E 80            [ 7] 2436 	ld	a, #0x80
    00000EE4 DD 96 F4         [19] 2437 	sub	a, -12 (ix)
    00000EE7 38 32            [12] 2438 	jr	C, 00126$
    00000EE9                       2439 00113$:
                                   2440 ;E:\Dropbox\FAUSTO\SVILUPPI\MSX\CODE\C\MSXgl\projects\soccerlgMSX2/soccerlg_s6_b3.c:261: if (c_dx < 0 && dx_diff < 128 && dx_diff != 0) continue; // Cerca a SX, ma 'i' è a DX
    00000EE9 DD 7E F2         [19] 2441 	ld	a, -14 (ix)
    00000EEC B7               [ 4] 2442 	or	a, a
    00000EED 28 0C            [12] 2443 	jr	Z, 00123$
    00000EEF DD 7E F5         [19] 2444 	ld	a, -11 (ix)
    00000EF2 B7               [ 4] 2445 	or	a, a
    00000EF3 28 06            [12] 2446 	jr	Z, 00123$
    00000EF5 DD 7E F4         [19] 2447 	ld	a, -12 (ix)
    00000EF8 B7               [ 4] 2448 	or	a, a
    00000EF9 20 20            [12] 2449 	jr	NZ, 00126$
    00000EFB                       2450 00123$:
                                   2451 ;E:\Dropbox\FAUSTO\SVILUPPI\MSX\CODE\C\MSXgl\projects\soccerlgMSX2/soccerlg_s6_b3.c:266: if (dist < min_dist) {
    00000EFB DD 7E FB         [19] 2452 	ld	a, -5 (ix)
    00000EFE DD 96 E9         [19] 2453 	sub	a, -23 (ix)
    00000F01 DD 7E FC         [19] 2454 	ld	a, -4 (ix)
    00000F04 DD 9E EA         [19] 2455 	sbc	a, -22 (ix)
    00000F07 30 12            [12] 2456 	jr	NC, 00126$
                                   2457 ;E:\Dropbox\FAUSTO\SVILUPPI\MSX\CODE\C\MSXgl\projects\soccerlgMSX2/soccerlg_s6_b3.c:267: min_dist = dist;
    00000F09 DD 7E FB         [19] 2458 	ld	a, -5 (ix)
    00000F0C DD 77 E9         [19] 2459 	ld	-23 (ix), a
    00000F0F DD 7E FC         [19] 2460 	ld	a, -4 (ix)
    00000F12 DD 77 EA         [19] 2461 	ld	-22 (ix), a
                                   2462 ;E:\Dropbox\FAUSTO\SVILUPPI\MSX\CODE\C\MSXgl\projects\soccerlgMSX2/soccerlg_s6_b3.c:268: best_match = i;
    00000F15 DD 7E FF         [19] 2463 	ld	a, -1 (ix)
    00000F18 DD 77 E8         [19] 2464 	ld	-24 (ix), a
    00000F1B                       2465 00126$:
                                   2466 ;E:\Dropbox\FAUSTO\SVILUPPI\MSX\CODE\C\MSXgl\projects\soccerlgMSX2/soccerlg_s6_b3.c:238: for (u8 i = start_idx; i < end_idx; i++) {
    00000F1B DD 34 FF         [23] 2467 	inc	-1 (ix)
    00000F1E C3rB8r0D         [10] 2468 	jp	00148$
    00000F21                       2469 00127$:
                                   2470 ;E:\Dropbox\FAUSTO\SVILUPPI\MSX\CODE\C\MSXgl\projects\soccerlgMSX2/soccerlg_s6_b3.c:273: if (best_match == 0xFF) {
    00000F21 DD 7E E8         [19] 2471 	ld	a, -24 (ix)
    00000F24 3C               [ 4] 2472 	inc	a
    00000F25 C2r02r10         [10] 2473 	jp	NZ,00137$
                                   2474 ;E:\Dropbox\FAUSTO\SVILUPPI\MSX\CODE\C\MSXgl\projects\soccerlgMSX2/soccerlg_s6_b3.c:274: for (u8 i = start_idx; i < end_idx; i++) {
                                   2475 ;E:\Dropbox\FAUSTO\SVILUPPI\MSX\CODE\C\MSXgl\projects\soccerlgMSX2/soccerlg_s6_b3.c:238: for (u8 i = start_idx; i < end_idx; i++) {
    00000F28 3Er00            [ 7] 2476 	ld	a, #<(_SwSprite)
    00000F2A DD 86 EB         [19] 2477 	add	a, -21 (ix)
    00000F2D 4F               [ 4] 2478 	ld	c, a
    00000F2E 3Es00            [ 7] 2479 	ld	a, #>(_SwSprite)
    00000F30 DD 8E EC         [19] 2480 	adc	a, -20 (ix)
    00000F33 47               [ 4] 2481 	ld	b, a
                                   2482 ;E:\Dropbox\FAUSTO\SVILUPPI\MSX\CODE\C\MSXgl\projects\soccerlgMSX2/soccerlg_s6_b3.c:274: for (u8 i = start_idx; i < end_idx; i++) {
    00000F34 0A               [ 7] 2483 	ld	a, (bc)
    00000F35 DD 77 F4         [19] 2484 	ld	-12 (ix), a
    00000F38 DD 71 F5         [19] 2485 	ld	-11 (ix), c
    00000F3B DD 70 F6         [19] 2486 	ld	-10 (ix), b
    00000F3E DD 7E E6         [19] 2487 	ld	a, -26 (ix)
    00000F41 DD 77 FF         [19] 2488 	ld	-1 (ix), a
    00000F44                       2489 00150$:
    00000F44 DD 7E FF         [19] 2490 	ld	a, -1 (ix)
    00000F47 DD 96 E7         [19] 2491 	sub	a, -25 (ix)
    00000F4A D2r02r10         [10] 2492 	jp	NC, 00137$
                                   2493 ;E:\Dropbox\FAUSTO\SVILUPPI\MSX\CODE\C\MSXgl\projects\soccerlgMSX2/soccerlg_s6_b3.c:275: if (i == carrier || i == ignore_player) continue;
    00000F4D DD 7E FF         [19] 2494 	ld	a, -1 (ix)
    00000F50 DD 96 FE         [19] 2495 	sub	a, -2 (ix)
    00000F53 CArFCr0F         [10] 2496 	jp	Z,00134$
    00000F56 DD 7E FD         [19] 2497 	ld	a, -3 (ix)
    00000F59 DD 96 FF         [19] 2498 	sub	a, -1 (ix)
    00000F5C CArFCr0F         [10] 2499 	jp	Z,00134$
                                   2500 ;E:\Dropbox\FAUSTO\SVILUPPI\MSX\CODE\C\MSXgl\projects\soccerlgMSX2/soccerlg_s6_b3.c:276: u8 dx_diff = (u8)(SwSprite[i].lx - SwSprite[carrier].lx);
    00000F5F DD 4E FF         [19] 2501 	ld	c, -1 (ix)
    00000F62 06 00            [ 7] 2502 	ld	b, #0x00
    00000F64 69               [ 4] 2503 	ld	l, c
    00000F65 60               [ 4] 2504 	ld	h, b
    00000F66 29               [11] 2505 	add	hl, hl
    00000F67 29               [11] 2506 	add	hl, hl
    00000F68 09               [11] 2507 	add	hl, bc
    00000F69 29               [11] 2508 	add	hl, hl
    00000F6A 09               [11] 2509 	add	hl, bc
    00000F6B 29               [11] 2510 	add	hl, hl
    00000F6C 09               [11] 2511 	add	hl, bc
    00000F6D 11r00r00         [10] 2512 	ld	de, #_SwSprite
    00000F70 19               [11] 2513 	add	hl, de
    00000F71 4D               [ 4] 2514 	ld	c, l
    00000F72 44               [ 4] 2515 	ld	b, h
    00000F73 0A               [ 7] 2516 	ld	a, (bc)
    00000F74 DD 96 F4         [19] 2517 	sub	a, -12 (ix)
                                   2518 ;E:\Dropbox\FAUSTO\SVILUPPI\MSX\CODE\C\MSXgl\projects\soccerlgMSX2/soccerlg_s6_b3.c:277: u16 dx = (dx_diff < 128) ? dx_diff : (256 - dx_diff);
    00000F77 5F               [ 4] 2519 	ld	e, a
    00000F78 16 00            [ 7] 2520 	ld	d, #0x00
    00000F7A D6 80            [ 7] 2521 	sub	a, #0x80
    00000F7C 30 04            [12] 2522 	jr	NC, 00161$
    00000F7E 7A               [ 4] 2523 	ld	a, d
    00000F7F C3r88r0F         [10] 2524 	jp	00162$
    00000F82                       2525 00161$:
    00000F82 AF               [ 4] 2526 	xor	a, a
    00000F83 93               [ 4] 2527 	sub	a, e
    00000F84 5F               [ 4] 2528 	ld	e, a
    00000F85 3E 01            [ 7] 2529 	ld	a, #0x01
    00000F87 9A               [ 4] 2530 	sbc	a, d
    00000F88                       2531 00162$:
    00000F88 DD 73 F7         [19] 2532 	ld	-9 (ix), e
    00000F8B DD 77 F8         [19] 2533 	ld	-8 (ix), a
                                   2534 ;E:\Dropbox\FAUSTO\SVILUPPI\MSX\CODE\C\MSXgl\projects\soccerlgMSX2/soccerlg_s6_b3.c:278: u16 dy_diff_16 = (u16)(SwSprite[i].ly - SwSprite[carrier].ly) & 511;
    00000F8E 21 04 00         [10] 2535 	ld	hl, #4
    00000F91 09               [11] 2536 	add	hl, bc
    00000F92 4E               [ 7] 2537 	ld	c, (hl)
    00000F93 23               [ 6] 2538 	inc	hl
    00000F94 46               [ 7] 2539 	ld	b, (hl)
    00000F95 DD 6E F5         [19] 2540 	ld	l, -11 (ix)
    00000F98 DD 66 F6         [19] 2541 	ld	h, -10 (ix)
    00000F9B 11 04 00         [10] 2542 	ld	de, #0x0004
    00000F9E 19               [11] 2543 	add	hl, de
    00000F9F 5E               [ 7] 2544 	ld	e, (hl)
    00000FA0 23               [ 6] 2545 	inc	hl
    00000FA1 56               [ 7] 2546 	ld	d, (hl)
    00000FA2 79               [ 4] 2547 	ld	a, c
    00000FA3 93               [ 4] 2548 	sub	a, e
    00000FA4 4F               [ 4] 2549 	ld	c, a
    00000FA5 78               [ 4] 2550 	ld	a, b
    00000FA6 9A               [ 4] 2551 	sbc	a, d
    00000FA7 E6 01            [ 7] 2552 	and	a, #0x01
    00000FA9 DD 71 F9         [19] 2553 	ld	-7 (ix), c
                                   2554 ;E:\Dropbox\FAUSTO\SVILUPPI\MSX\CODE\C\MSXgl\projects\soccerlgMSX2/soccerlg_s6_b3.c:279: u16 dy = (dy_diff_16 < 256) ? dy_diff_16 : (512 - dy_diff_16);
    00000FAC DD 77 FA         [19] 2555 	ld	-6 (ix), a
    00000FAF D6 01            [ 7] 2556 	sub	a, #0x01
    00000FB1 30 0F            [12] 2557 	jr	NC, 00163$
    00000FB3 DD 7E F9         [19] 2558 	ld	a, -7 (ix)
    00000FB6 DD 77 FB         [19] 2559 	ld	-5 (ix), a
    00000FB9 DD 7E FA         [19] 2560 	ld	a, -6 (ix)
    00000FBC DD 77 FC         [19] 2561 	ld	-4 (ix), a
    00000FBF C3rD1r0F         [10] 2562 	jp	00164$
    00000FC2                       2563 00163$:
    00000FC2 AF               [ 4] 2564 	xor	a, a
    00000FC3 DD 96 F9         [19] 2565 	sub	a, -7 (ix)
    00000FC6 DD 77 FB         [19] 2566 	ld	-5 (ix), a
    00000FC9 3E 02            [ 7] 2567 	ld	a, #0x02
    00000FCB DD 9E FA         [19] 2568 	sbc	a, -6 (ix)
    00000FCE DD 77 FC         [19] 2569 	ld	-4 (ix), a
    00000FD1                       2570 00164$:
    00000FD1 DD 4E FB         [19] 2571 	ld	c, -5 (ix)
    00000FD4 DD 46 FC         [19] 2572 	ld	b, -4 (ix)
                                   2573 ;E:\Dropbox\FAUSTO\SVILUPPI\MSX\CODE\C\MSXgl\projects\soccerlgMSX2/soccerlg_s6_b3.c:280: u16 dist = dx + dy;
    00000FD7 DD 6E F7         [19] 2574 	ld	l, -9 (ix)
    00000FDA DD 66 F8         [19] 2575 	ld	h, -8 (ix)
    00000FDD 09               [11] 2576 	add	hl, bc
                                   2577 ;E:\Dropbox\FAUSTO\SVILUPPI\MSX\CODE\C\MSXgl\projects\soccerlgMSX2/soccerlg_s6_b3.c:281: if (dist <= max_dist && dist < min_dist) {
    00000FDE 3E 82            [ 7] 2578 	ld	a, #0x82
    00000FE0 BD               [ 4] 2579 	cp	a, l
    00000FE1 3E 00            [ 7] 2580 	ld	a, #0x00
    00000FE3 9C               [ 4] 2581 	sbc	a, h
    00000FE4 38 16            [12] 2582 	jr	C, 00134$
    00000FE6 7D               [ 4] 2583 	ld	a, l
    00000FE7 DD 96 E9         [19] 2584 	sub	a, -23 (ix)
    00000FEA 7C               [ 4] 2585 	ld	a, h
    00000FEB DD 9E EA         [19] 2586 	sbc	a, -22 (ix)
    00000FEE 30 0C            [12] 2587 	jr	NC, 00134$
                                   2588 ;E:\Dropbox\FAUSTO\SVILUPPI\MSX\CODE\C\MSXgl\projects\soccerlgMSX2/soccerlg_s6_b3.c:282: min_dist = dist;
    00000FF0 DD 75 E9         [19] 2589 	ld	-23 (ix), l
    00000FF3 DD 74 EA         [19] 2590 	ld	-22 (ix), h
                                   2591 ;E:\Dropbox\FAUSTO\SVILUPPI\MSX\CODE\C\MSXgl\projects\soccerlgMSX2/soccerlg_s6_b3.c:283: best_match = i;
    00000FF6 DD 7E FF         [19] 2592 	ld	a, -1 (ix)
    00000FF9 DD 77 E8         [19] 2593 	ld	-24 (ix), a
    00000FFC                       2594 00134$:
                                   2595 ;E:\Dropbox\FAUSTO\SVILUPPI\MSX\CODE\C\MSXgl\projects\soccerlgMSX2/soccerlg_s6_b3.c:274: for (u8 i = start_idx; i < end_idx; i++) {
    00000FFC DD 34 FF         [23] 2596 	inc	-1 (ix)
    00000FFF C3r44r0F         [10] 2597 	jp	00150$
    00001002                       2598 00137$:
                                   2599 ;E:\Dropbox\FAUSTO\SVILUPPI\MSX\CODE\C\MSXgl\projects\soccerlgMSX2/soccerlg_s6_b3.c:289: if (best_match == 0xFF) {
    00001002 DD 7E E8         [19] 2600 	ld	a, -24 (ix)
    00001005 3C               [ 4] 2601 	inc	a
    00001006 C2rDBr10         [10] 2602 	jp	NZ,00146$
                                   2603 ;E:\Dropbox\FAUSTO\SVILUPPI\MSX\CODE\C\MSXgl\projects\soccerlgMSX2/soccerlg_s6_b3.c:290: for (u8 i = start_idx; i < end_idx; i++) {
                                   2604 ;E:\Dropbox\FAUSTO\SVILUPPI\MSX\CODE\C\MSXgl\projects\soccerlgMSX2/soccerlg_s6_b3.c:238: for (u8 i = start_idx; i < end_idx; i++) {
    00001009 3Er00            [ 7] 2605 	ld	a, #<(_SwSprite)
    0000100B DD 86 EB         [19] 2606 	add	a, -21 (ix)
    0000100E 4F               [ 4] 2607 	ld	c, a
    0000100F 3Es00            [ 7] 2608 	ld	a, #>(_SwSprite)
    00001011 DD 8E EC         [19] 2609 	adc	a, -20 (ix)
    00001014 47               [ 4] 2610 	ld	b, a
                                   2611 ;E:\Dropbox\FAUSTO\SVILUPPI\MSX\CODE\C\MSXgl\projects\soccerlgMSX2/soccerlg_s6_b3.c:290: for (u8 i = start_idx; i < end_idx; i++) {
    00001015 0A               [ 7] 2612 	ld	a, (bc)
    00001016 DD 77 FA         [19] 2613 	ld	-6 (ix), a
    00001019 DD 71 FB         [19] 2614 	ld	-5 (ix), c
    0000101C DD 70 FC         [19] 2615 	ld	-4 (ix), b
    0000101F DD 7E E6         [19] 2616 	ld	a, -26 (ix)
    00001022 DD 77 FF         [19] 2617 	ld	-1 (ix), a
    00001025                       2618 00152$:
    00001025 DD 7E FF         [19] 2619 	ld	a, -1 (ix)
    00001028 DD 96 E7         [19] 2620 	sub	a, -25 (ix)
    0000102B D2rDBr10         [10] 2621 	jp	NC, 00146$
                                   2622 ;E:\Dropbox\FAUSTO\SVILUPPI\MSX\CODE\C\MSXgl\projects\soccerlgMSX2/soccerlg_s6_b3.c:291: if (i == carrier || i == ignore_player) continue;
    0000102E DD 7E FF         [19] 2623 	ld	a, -1 (ix)
    00001031 DD 96 FE         [19] 2624 	sub	a, -2 (ix)
    00001034 CArD5r10         [10] 2625 	jp	Z,00143$
    00001037 DD 7E FD         [19] 2626 	ld	a, -3 (ix)
    0000103A DD 96 FF         [19] 2627 	sub	a, -1 (ix)
    0000103D CArD5r10         [10] 2628 	jp	Z,00143$
                                   2629 ;E:\Dropbox\FAUSTO\SVILUPPI\MSX\CODE\C\MSXgl\projects\soccerlgMSX2/soccerlg_s6_b3.c:292: u8 dx_diff = (u8)(SwSprite[i].lx - SwSprite[carrier].lx);
    00001040 DD 4E FF         [19] 2630 	ld	c, -1 (ix)
    00001043 06 00            [ 7] 2631 	ld	b, #0x00
    00001045 69               [ 4] 2632 	ld	l, c
    00001046 60               [ 4] 2633 	ld	h, b
    00001047 29               [11] 2634 	add	hl, hl
    00001048 29               [11] 2635 	add	hl, hl
    00001049 09               [11] 2636 	add	hl, bc
    0000104A 29               [11] 2637 	add	hl, hl
    0000104B 09               [11] 2638 	add	hl, bc
    0000104C 29               [11] 2639 	add	hl, hl
    0000104D 09               [11] 2640 	add	hl, bc
    0000104E 11r00r00         [10] 2641 	ld	de, #_SwSprite
    00001051 19               [11] 2642 	add	hl, de
    00001052 4D               [ 4] 2643 	ld	c, l
    00001053 44               [ 4] 2644 	ld	b, h
    00001054 0A               [ 7] 2645 	ld	a, (bc)
    00001055 DD 96 FA         [19] 2646 	sub	a, -6 (ix)
                                   2647 ;E:\Dropbox\FAUSTO\SVILUPPI\MSX\CODE\C\MSXgl\projects\soccerlgMSX2/soccerlg_s6_b3.c:293: u16 dx = (dx_diff < 128) ? dx_diff : (256 - dx_diff);
    00001058 5F               [ 4] 2648 	ld	e, a
    00001059 16 00            [ 7] 2649 	ld	d, #0x00
    0000105B D6 80            [ 7] 2650 	sub	a, #0x80
    0000105D 30 04            [12] 2651 	jr	NC, 00165$
    0000105F 7A               [ 4] 2652 	ld	a, d
    00001060 C3r69r10         [10] 2653 	jp	00166$
    00001063                       2654 00165$:
    00001063 AF               [ 4] 2655 	xor	a, a
    00001064 93               [ 4] 2656 	sub	a, e
    00001065 5F               [ 4] 2657 	ld	e, a
    00001066 3E 01            [ 7] 2658 	ld	a, #0x01
    00001068 9A               [ 4] 2659 	sbc	a, d
    00001069                       2660 00166$:
    00001069 DD 73 F4         [19] 2661 	ld	-12 (ix), e
    0000106C DD 77 F5         [19] 2662 	ld	-11 (ix), a
                                   2663 ;E:\Dropbox\FAUSTO\SVILUPPI\MSX\CODE\C\MSXgl\projects\soccerlgMSX2/soccerlg_s6_b3.c:294: u16 dy_diff_16 = (u16)(SwSprite[i].ly - SwSprite[carrier].ly) & 511;
    0000106F 21 04 00         [10] 2664 	ld	hl, #4
    00001072 09               [11] 2665 	add	hl, bc
    00001073 4E               [ 7] 2666 	ld	c, (hl)
    00001074 23               [ 6] 2667 	inc	hl
    00001075 46               [ 7] 2668 	ld	b, (hl)
    00001076 DD 6E FB         [19] 2669 	ld	l, -5 (ix)
    00001079 DD 66 FC         [19] 2670 	ld	h, -4 (ix)
    0000107C 11 04 00         [10] 2671 	ld	de, #0x0004
    0000107F 19               [11] 2672 	add	hl, de
    00001080 5E               [ 7] 2673 	ld	e, (hl)
    00001081 23               [ 6] 2674 	inc	hl
    00001082 56               [ 7] 2675 	ld	d, (hl)
    00001083 79               [ 4] 2676 	ld	a, c
    00001084 93               [ 4] 2677 	sub	a, e
    00001085 4F               [ 4] 2678 	ld	c, a
    00001086 78               [ 4] 2679 	ld	a, b
    00001087 9A               [ 4] 2680 	sbc	a, d
    00001088 E6 01            [ 7] 2681 	and	a, #0x01
    0000108A DD 71 F6         [19] 2682 	ld	-10 (ix), c
                                   2683 ;E:\Dropbox\FAUSTO\SVILUPPI\MSX\CODE\C\MSXgl\projects\soccerlgMSX2/soccerlg_s6_b3.c:295: u16 dy = (dy_diff_16 < 256) ? dy_diff_16 : (512 - dy_diff_16);
    0000108D DD 77 F7         [19] 2684 	ld	-9 (ix), a
    00001090 D6 01            [ 7] 2685 	sub	a, #0x01
    00001092 30 0F            [12] 2686 	jr	NC, 00167$
    00001094 DD 7E F6         [19] 2687 	ld	a, -10 (ix)
    00001097 DD 77 F8         [19] 2688 	ld	-8 (ix), a
    0000109A DD 7E F7         [19] 2689 	ld	a, -9 (ix)
    0000109D DD 77 F9         [19] 2690 	ld	-7 (ix), a
    000010A0 C3rB2r10         [10] 2691 	jp	00168$
    000010A3                       2692 00167$:
    000010A3 AF               [ 4] 2693 	xor	a, a
    000010A4 DD 96 F6         [19] 2694 	sub	a, -10 (ix)
    000010A7 DD 77 F8         [19] 2695 	ld	-8 (ix), a
    000010AA 3E 02            [ 7] 2696 	ld	a, #0x02
    000010AC DD 9E F7         [19] 2697 	sbc	a, -9 (ix)
    000010AF DD 77 F9         [19] 2698 	ld	-7 (ix), a
    000010B2                       2699 00168$:
    000010B2 DD 4E F8         [19] 2700 	ld	c, -8 (ix)
    000010B5 DD 46 F9         [19] 2701 	ld	b, -7 (ix)
                                   2702 ;E:\Dropbox\FAUSTO\SVILUPPI\MSX\CODE\C\MSXgl\projects\soccerlgMSX2/soccerlg_s6_b3.c:296: u16 dist = dx + dy;
    000010B8 DD 6E F4         [19] 2703 	ld	l, -12 (ix)
    000010BB DD 66 F5         [19] 2704 	ld	h, -11 (ix)
    000010BE 09               [11] 2705 	add	hl, bc
                                   2706 ;E:\Dropbox\FAUSTO\SVILUPPI\MSX\CODE\C\MSXgl\projects\soccerlgMSX2/soccerlg_s6_b3.c:297: if (dist < min_dist) {
    000010BF 7D               [ 4] 2707 	ld	a, l
    000010C0 DD 96 E9         [19] 2708 	sub	a, -23 (ix)
    000010C3 7C               [ 4] 2709 	ld	a, h
    000010C4 DD 9E EA         [19] 2710 	sbc	a, -22 (ix)
    000010C7 30 0C            [12] 2711 	jr	NC, 00143$
                                   2712 ;E:\Dropbox\FAUSTO\SVILUPPI\MSX\CODE\C\MSXgl\projects\soccerlgMSX2/soccerlg_s6_b3.c:298: min_dist = dist;
    000010C9 DD 75 E9         [19] 2713 	ld	-23 (ix), l
    000010CC DD 74 EA         [19] 2714 	ld	-22 (ix), h
                                   2715 ;E:\Dropbox\FAUSTO\SVILUPPI\MSX\CODE\C\MSXgl\projects\soccerlgMSX2/soccerlg_s6_b3.c:299: best_match = i;
    000010CF DD 7E FF         [19] 2716 	ld	a, -1 (ix)
    000010D2 DD 77 E8         [19] 2717 	ld	-24 (ix), a
    000010D5                       2718 00143$:
                                   2719 ;E:\Dropbox\FAUSTO\SVILUPPI\MSX\CODE\C\MSXgl\projects\soccerlgMSX2/soccerlg_s6_b3.c:290: for (u8 i = start_idx; i < end_idx; i++) {
    000010D5 DD 34 FF         [23] 2720 	inc	-1 (ix)
    000010D8 C3r25r10         [10] 2721 	jp	00152$
    000010DB                       2722 00146$:
                                   2723 ;E:\Dropbox\FAUSTO\SVILUPPI\MSX\CODE\C\MSXgl\projects\soccerlgMSX2/soccerlg_s6_b3.c:304: return best_match;
    000010DB DD 5E E8         [19] 2724 	ld	e, -24 (ix)
    000010DE 16 00            [ 7] 2725 	ld	d, #0x00
                                   2726 ;E:\Dropbox\FAUSTO\SVILUPPI\MSX\CODE\C\MSXgl\projects\soccerlgMSX2/soccerlg_s6_b3.c:305: }
    000010E0 DD F9            [10] 2727 	ld	sp, ix
    000010E2 DD E1            [14] 2728 	pop	ix
    000010E4 E1               [10] 2729 	pop	hl
    000010E5 F1               [10] 2730 	pop	af
    000010E6 E9               [ 4] 2731 	jp	(hl)
                                   2732 	.area _SEG6
                                   2733 	.area _INITIALIZER
    00000000                       2734 __xinit__ai_last_dx:
    00000000 00                    2735 	.db #0x00	;  0
    00000001 00                    2736 	.db #0x00	;  0
    00000002 00                    2737 	.db #0x00	;  0
    00000003 00                    2738 	.db #0x00	;  0
    00000004 00                    2739 	.db #0x00	;  0
    00000005 00                    2740 	.db #0x00	;  0
    00000006 00                    2741 	.db #0x00	;  0
    00000007 00                    2742 	.db #0x00	;  0
    00000008 00                    2743 	.db #0x00	;  0
    00000009 00                    2744 	.db #0x00	;  0
    0000000A 00                    2745 	.db #0x00	;  0
    0000000B 00                    2746 	.db #0x00	;  0
    0000000C 00                    2747 	.db #0x00	;  0
    0000000D 00                    2748 	.db #0x00	;  0
    0000000E                       2749 __xinit__ai_last_dy:
    0000000E 01                    2750 	.db #0x01	;  1
    0000000F 01                    2751 	.db #0x01	;  1
    00000010 01                    2752 	.db #0x01	;  1
    00000011 01                    2753 	.db #0x01	;  1
    00000012 01                    2754 	.db #0x01	;  1
    00000013 01                    2755 	.db #0x01	;  1
    00000014 01                    2756 	.db #0x01	;  1
    00000015 FF                    2757 	.db #0xff	; -1
    00000016 FF                    2758 	.db #0xff	; -1
    00000017 FF                    2759 	.db #0xff	; -1
    00000018 FF                    2760 	.db #0xff	; -1
    00000019 FF                    2761 	.db #0xff	; -1
    0000001A FF                    2762 	.db #0xff	; -1
    0000001B FF                    2763 	.db #0xff	; -1
                                   2764 	.area _CABS (ABS)
