                                      1 ;--------------------------------------------------------
                                      2 ; File Created by SDCC : free open source ANSI-C Compiler
                                      3 ; Version 4.2.0 #13081 (MINGW64)
                                      4 ;--------------------------------------------------------
                                      5 	.module soccerlg_s4_b3
                                      6 	.optsdcc -mz80
                                      7 	
                                      8 ;--------------------------------------------------------
                                      9 ; Public variables in this module
                                     10 ;--------------------------------------------------------
                                     11 	.globl _UpdateGameState
                                     12 	.globl _EventStartPresentationScrollig
                                     13 	.globl _IsBallForeground
                                     14 	.globl _PrintScoreBoardRight
                                     15 	.globl _RemoveScoreBoardRight
                                     16 	.globl _PrintScoreBoardLeft
                                     17 	.globl _RemoveScoreBoardLeft
                                     18 	.globl _RemoveSwSprite
                                     19 	.globl _SetTeamColors
                                     20 	.globl _AddLines
                                     21 	.globl _CallFnc_BOOL
                                     22 	.globl _CallFnc_VOID_3PTR_U16
                                     23 	.globl _CallFnc_VOID_U8U16U16
                                     24 	.globl _CallFnc_VOID
                                     25 	.globl _CallSpriteFrame
                                     26 	.globl _Print_DrawFormat
                                     27 	.globl _VDP_SetPage
                                     28 	.globl _VDP_RegWrite
                                     29 	.globl _g_SLTSL
                                     30 	.globl _g_GRPACY
                                     31 	.globl _g_GRPACX
                                     32 	.globl _g_LOGOPR
                                     33 	.globl _g_CMASK
                                     34 	.globl _g_CLOC
                                     35 	.globl _g_FNKSTR
                                     36 	.globl _g_ATRBYT
                                     37 	.globl _g_BDRCLR
                                     38 	.globl _g_BAKCLR
                                     39 	.globl _g_FORCLR
                                     40 	.globl _g_CSRX
                                     41 	.globl _g_CSRY
                                     42 	.globl _g_CLIKSW
                                     43 	.globl _g_MLTPAT
                                     44 	.globl _g_MLTATR
                                     45 	.globl _g_MLTCGP
                                     46 	.globl _g_MLTCOL
                                     47 	.globl _g_MLTNAM
                                     48 	.globl _g_GRPPAT
                                     49 	.globl _g_GRPATR
                                     50 	.globl _g_GRPCGP
                                     51 	.globl _g_GRPCOL
                                     52 	.globl _g_GRPNAM
                                     53 	.globl _g_T32PAT
                                     54 	.globl _g_T32ATR
                                     55 	.globl _g_T32CGP
                                     56 	.globl _g_T32COL
                                     57 	.globl _g_T32NAM
                                     58 	.globl _g_TXTPAT
                                     59 	.globl _g_TXTATR
                                     60 	.globl _g_TXTCGP
                                     61 	.globl _g_TXTCOL
                                     62 	.globl _g_TXTNAM
                                     63 	.globl _g_CLMLST
                                     64 	.globl _g_CRTCNT
                                     65 	.globl _g_LINLEN
                                     66 	.globl _g_LINL32
                                     67 	.globl _g_LINL40
                                     68 	.globl _g_Fonts
                                     69 	.globl _g_BDOS
                                     70 	.globl _g_MASTER
                                     71 	.globl _g_RAMAD3
                                     72 	.globl _g_RAMAD2
                                     73 	.globl _g_RAMAD1
                                     74 	.globl _g_RAMAD0
                                     75 	.globl _g_BREAKV
                                     76 	.globl _g_DISKVE
                                     77 	.globl _g_KANJTABLE
                                     78 	.globl _g_STRSRC
                                     79 	.globl _g_SUBRID
                                     80 	.globl _g_CHAR_16
                                     81 	.globl _g_MSXMID
                                     82 	.globl _g_MSXVER
                                     83 	.globl _g_ROMVersion
                                     84 	.globl _g_BASRVN
                                     85 	.globl _g_VDP_DW
                                     86 	.globl _g_VDP_DR
                                     87 	.globl _g_CGTABL
                                     88 	.globl _g_SVFFFD
                                     89 	.globl _g_RG27SAV
                                     90 	.globl _g_RG26SAV
                                     91 	.globl _g_RG25SAV
                                     92 	.globl _g_SVFFF8
                                     93 	.globl _g_MINROM
                                     94 	.globl _g_RG23SAV
                                     95 	.globl _g_RG22SAV
                                     96 	.globl _g_RG21SAV
                                     97 	.globl _g_RG20SAV
                                     98 	.globl _g_RG19SAV
                                     99 	.globl _g_RG18SAV
                                    100 	.globl _g_RG17SAV
                                    101 	.globl _g_RG16SAV
                                    102 	.globl _g_RG15SAV
                                    103 	.globl _g_RG14SAV
                                    104 	.globl _g_RG13SAV
                                    105 	.globl _g_RG12SAV
                                    106 	.globl _g_RG11SAV
                                    107 	.globl _g_RG10SAV
                                    108 	.globl _g_RG09SAV
                                    109 	.globl _g_RG08SAV
                                    110 	.globl _g_PROCNM
                                    111 	.globl _g_SLTWRK
                                    112 	.globl _g_SLTATR
                                    113 	.globl _g_SLTTBL
                                    114 	.globl _g_EXPTBL
                                    115 	.globl _g_MNROM
                                    116 	.globl _g_DRWANG
                                    117 	.globl _g_DRWSCL
                                    118 	.globl _g_DRWFLG
                                    119 	.globl _g_GYPOS
                                    120 	.globl _g_GXPOS
                                    121 	.globl _g_BRDATR
                                    122 	.globl _g_CASPRV
                                    123 	.globl _g_OLDSCR
                                    124 	.globl _g_SCRMOD
                                    125 	.globl _g_FLBMEM
                                    126 	.globl _g_KANAMD
                                    127 	.globl _g_KANAST
                                    128 	.globl _g_CAPST
                                    129 	.globl _g_CSTYLE
                                    130 	.globl _g_CSRSW
                                    131 	.globl _g_INSFLG
                                    132 	.globl _g_ESCCNT
                                    133 	.globl _g_GRPHED
                                    134 	.globl _g_WINWID
                                    135 	.globl _g_LOWLIM
                                    136 	.globl _g_INTCNT
                                    137 	.globl _g_INTVAL
                                    138 	.globl _g_JIFFY
                                    139 	.globl _g_PADX
                                    140 	.globl _g_PADY
                                    141 	.globl _g_INTFLG
                                    142 	.globl _g_RTYCNT
                                    143 	.globl _g_TRPTBL
                                    144 	.globl _g_HIMEM
                                    145 	.globl _g_BOTTOM
                                    146 	.globl _g_PATWRK
                                    147 	.globl _g_LINWRK
                                    148 	.globl _g_KEYBUF
                                    149 	.globl _g_NEWKEY
                                    150 	.globl _g_OLDKEY
                                    151 	.globl _g_CLIKFL
                                    152 	.globl _g_ONGSBF
                                    153 	.globl _g_FNKFLG
                                    154 	.globl _g_FNKSWI
                                    155 	.globl _g_CODSAV
                                    156 	.globl _g_FSTPOS
                                    157 	.globl _g_LINTTB
                                    158 	.globl _g_BASROM
                                    159 	.globl _g_ENSTOP
                                    160 	.globl _g_VCBC
                                    161 	.globl _g_VCBB
                                    162 	.globl _g_VCBA
                                    163 	.globl _g_PLYCNT
                                    164 	.globl _g_MUSICF
                                    165 	.globl _g_QUEUEN
                                    166 	.globl _g_MCLPTR
                                    167 	.globl _g_MCLLEN
                                    168 	.globl _g_SAVVOL
                                    169 	.globl _g_VOICEN
                                    170 	.globl _g_SAVSP
                                    171 	.globl _g_PRSCNT
                                    172 	.globl _g_LSTMOD
                                    173 	.globl _g_LSTCOM
                                    174 	.globl _g_COMMSK
                                    175 	.globl _g_ESTBLS
                                    176 	.globl _g_FLAGS
                                    177 	.globl _g_ERRORS
                                    178 	.globl _g_DATCNT
                                    179 	.globl _g_DEVNUM
                                    180 	.globl _g_OLDINT
                                    181 	.globl _g_OLDSTT
                                    182 	.globl _g_MEXBIh
                                    183 	.globl _g_RSIQLN
                                    184 	.globl _g_RSFCB
                                    185 	.globl _g_TOCNT
                                    186 	.globl _g_RSTMP
                                    187 	.globl _g_YSAVE
                                    188 	.globl _g_XSAVE
                                    189 	.globl _g_NORUSE
                                    190 	.globl _g_MODE
                                    191 	.globl _g_ROMA
                                    192 	.globl _g_CHRCNT
                                    193 	.globl _g_EXBRSA
                                    194 	.globl _g_AVCSAV
                                    195 	.globl _g_ACPAGE
                                    196 	.globl _g_DPPAGE
                                    197 	.globl _g_RS2IQ
                                    198 	.globl _g_VOICCQ
                                    199 	.globl _g_VOICBQ
                                    200 	.globl _g_VOICAQ
                                    201 	.globl _g_QUEBAK
                                    202 	.globl _g_QUETAB
                                    203 	.globl _g_ASPCT2
                                    204 	.globl _g_ASPCT1
                                    205 	.globl _g_HEADER
                                    206 	.globl _g_HIGH
                                    207 	.globl _g_LOW
                                    208 	.globl _g_CS240
                                    209 	.globl _g_CS120
                                    210 	.globl _g_GETPNT
                                    211 	.globl _g_PUTPNT
                                    212 	.globl _g_REPCNT
                                    213 	.globl _g_SCNCNT
                                    214 	.globl _g_FRCNEW
                                    215 	.globl _g_QUEUES
                                    216 	.globl _g_MINUPD
                                    217 	.globl _g_MAXUPD
                                    218 	.globl _g_TRGFLG
                                    219 	.globl _g_STATFL
                                    220 	.globl _g_RG7SAV
                                    221 	.globl _g_RG6SAV
                                    222 	.globl _g_RG5SAV
                                    223 	.globl _g_RG4SAV
                                    224 	.globl _g_RG3SAV
                                    225 	.globl _g_RG2SAV
                                    226 	.globl _g_RG1SAV
                                    227 	.globl _g_RG0SAV
                                    228 	.globl _g_CNSDFG
                                    229 	.globl _g_USRTAB
                                    230 	.globl _g_CLPRIM
                                    231 	.globl _g_WRPRIM
                                    232 	.globl _g_RDPRIM
                                    233 	.globl _GetDrawFrame
                                    234 	.globl _MainLoop
                                    235 ;--------------------------------------------------------
                                    236 ; special function registers
                                    237 ;--------------------------------------------------------
                         000000A8   238 _g_PortPrimarySlot	=	0x00a8
                         000000A9   239 _g_PortReadKeyboard	=	0x00a9
                         000000AA   240 _g_PortAccessKeyboard	=	0x00aa
                         000000AB   241 _g_PortControl	=	0x00ab
                         00000098   242 _g_VDP_DataPort	=	0x0098
                         00000099   243 _g_VDP_RegPort	=	0x0099
                         00000099   244 _g_VDP_AddrPort	=	0x0099
                         00000099   245 _g_VDP_StatPort	=	0x0099
                         0000009A   246 _g_VDP_PalPort	=	0x009a
                         0000009B   247 _g_VDP_IRegPort	=	0x009b
                         000000A0   248 _g_PSG_RegPort	=	0x00a0
                         000000A1   249 _g_PSG_DataPort	=	0x00a1
                         000000A2   250 _g_PSG_StatPort	=	0x00a2
                         00000010   251 _g_PSG_Ext_RegPort	=	0x0010
                         00000011   252 _g_PSG_Ext_DataPort	=	0x0011
                         00000012   253 _g_PSG_Ext_StatPort	=	0x0012
                         0000007C   254 _g_MSXMusic_IndexPort	=	0x007c
                         0000007D   255 _g_MSXMusic_DataPort	=	0x007d
                         000000C0   256 _g_MSXAudio_IndexPort	=	0x00c0
                         000000C1   257 _g_MSXAudio_DataPort	=	0x00c1
                         000000C2   258 _g_MSXAudio_IndexPort2	=	0x00c2
                         000000C3   259 _g_MSXAudio_DataPort2	=	0x00c3
                         000000B4   260 _g_RTC_AddrPort	=	0x00b4
                         000000B5   261 _g_RTC_DataPort	=	0x00b5
                                    262 ;--------------------------------------------------------
                                    263 ; ram data
                                    264 ;--------------------------------------------------------
                                    265 	.area _DATA
                         0000F3AE   266 _g_LINL40	=	0xf3ae
                         0000F3AF   267 _g_LINL32	=	0xf3af
                         0000F3B0   268 _g_LINLEN	=	0xf3b0
                         0000F3B1   269 _g_CRTCNT	=	0xf3b1
                         0000F3B2   270 _g_CLMLST	=	0xf3b2
                         0000F3B3   271 _g_TXTNAM	=	0xf3b3
                         0000F3B5   272 _g_TXTCOL	=	0xf3b5
                         0000F3B7   273 _g_TXTCGP	=	0xf3b7
                         0000F3B9   274 _g_TXTATR	=	0xf3b9
                         0000F3BB   275 _g_TXTPAT	=	0xf3bb
                         0000F3BD   276 _g_T32NAM	=	0xf3bd
                         0000F3BF   277 _g_T32COL	=	0xf3bf
                         0000F3C1   278 _g_T32CGP	=	0xf3c1
                         0000F3C3   279 _g_T32ATR	=	0xf3c3
                         0000F3C5   280 _g_T32PAT	=	0xf3c5
                         0000F3C7   281 _g_GRPNAM	=	0xf3c7
                         0000F3C9   282 _g_GRPCOL	=	0xf3c9
                         0000F3CB   283 _g_GRPCGP	=	0xf3cb
                         0000F3CD   284 _g_GRPATR	=	0xf3cd
                         0000F3CF   285 _g_GRPPAT	=	0xf3cf
                         0000F3D1   286 _g_MLTNAM	=	0xf3d1
                         0000F3D3   287 _g_MLTCOL	=	0xf3d3
                         0000F3D5   288 _g_MLTCGP	=	0xf3d5
                         0000F3D7   289 _g_MLTATR	=	0xf3d7
                         0000F3D9   290 _g_MLTPAT	=	0xf3d9
                         0000F3DB   291 _g_CLIKSW	=	0xf3db
                         0000F3DC   292 _g_CSRY	=	0xf3dc
                         0000F3DD   293 _g_CSRX	=	0xf3dd
                         0000F3E9   294 _g_FORCLR	=	0xf3e9
                         0000F3EA   295 _g_BAKCLR	=	0xf3ea
                         0000F3EB   296 _g_BDRCLR	=	0xf3eb
                         0000F3F2   297 _g_ATRBYT	=	0xf3f2
                         0000F87F   298 _g_FNKSTR	=	0xf87f
                         0000F92A   299 _g_CLOC	=	0xf92a
                         0000F92C   300 _g_CMASK	=	0xf92c
                         0000FB02   301 _g_LOGOPR	=	0xfb02
                         0000FCB7   302 _g_GRPACX	=	0xfcb7
                         0000FCB9   303 _g_GRPACY	=	0xfcb9
                         0000FFFF   304 _g_SLTSL	=	0xffff
                                    305 ;--------------------------------------------------------
                                    306 ; ram data
                                    307 ;--------------------------------------------------------
                                    308 	.area _INITIALIZED
                                    309 ;--------------------------------------------------------
                                    310 ; absolute external ram data
                                    311 ;--------------------------------------------------------
                                    312 	.area _DABS (ABS)
                                    313 ;--------------------------------------------------------
                                    314 ; global & static initialisations
                                    315 ;--------------------------------------------------------
                                    316 	.area _HOME
                                    317 	.area _GSINIT
                                    318 	.area _GSFINAL
                                    319 	.area _GSINIT
                                    320 ;--------------------------------------------------------
                                    321 ; Home
                                    322 ;--------------------------------------------------------
                                    323 	.area _HOME
                                    324 	.area _HOME
                                    325 ;--------------------------------------------------------
                                    326 ; code
                                    327 ;--------------------------------------------------------
                                    328 	.area _SEG4
                                    329 ;E:\Dropbox\FAUSTO\SVILUPPI\MSX\CODE\C\MSXgl\projects\soccerlgMSX2/soccerlg_s4_b3.c:1002: u16 GetDrawFrame(u8 i) {
                                    330 ;	---------------------------------
                                    331 ; Function GetDrawFrame
                                    332 ; ---------------------------------
    00000000                        333 _GetDrawFrame::
    00000000 4F               [ 4]  334 	ld	c, a
                                    335 ;E:\Dropbox\FAUSTO\SVILUPPI\MSX\CODE\C\MSXgl\projects\soccerlgMSX2/soccerlg_s4_b3.c:1003: u16 f = SwSprite[i].frame;
    00000001 11r00r00         [10]  336 	ld	de, #_SwSprite+0
    00000004 06 00            [ 7]  337 	ld	b, #0x00
    00000006 69               [ 4]  338 	ld	l, c
    00000007 60               [ 4]  339 	ld	h, b
    00000008 29               [11]  340 	add	hl, hl
    00000009 29               [11]  341 	add	hl, hl
    0000000A 09               [11]  342 	add	hl, bc
    0000000B 29               [11]  343 	add	hl, hl
    0000000C 09               [11]  344 	add	hl, bc
    0000000D 29               [11]  345 	add	hl, hl
    0000000E 09               [11]  346 	add	hl, bc
    0000000F 19               [11]  347 	add	hl, de
    00000010 11 0F 00         [10]  348 	ld	de, #0x000f
    00000013 19               [11]  349 	add	hl, de
    00000014 5E               [ 7]  350 	ld	e, (hl)
    00000015 23               [ 6]  351 	inc	hl
    00000016 56               [ 7]  352 	ld	d, (hl)
                                    353 ;E:\Dropbox\FAUSTO\SVILUPPI\MSX\CODE\C\MSXgl\projects\soccerlgMSX2/soccerlg_s4_b3.c:1004: if (i >= 7) { // P1 controls Team 2
    00000017 79               [ 4]  354 	ld	a, c
    00000018 D6 07            [ 7]  355 	sub	a, #0x07
    0000001A 38 11            [12]  356 	jr	C, 00110$
                                    357 ;E:\Dropbox\FAUSTO\SVILUPPI\MSX\CODE\C\MSXgl\projects\soccerlgMSX2/soccerlg_s4_b3.c:1005: if (i == T2_Carrier || i == T2_Receiver) return f + SPRITE_FOCUSED_PLAYER_OFFSET;
    0000001C 3Ar00r00         [13]  358 	ld	a, (_T2_Carrier+0)
    0000001F 91               [ 4]  359 	sub	a, c
    00000020 28 05            [12]  360 	jr	Z, 00101$
    00000022 3Ar00r00         [13]  361 	ld	a, (_T2_Receiver+0)
    00000025 91               [ 4]  362 	sub	a, c
    00000026 C0               [11]  363 	ret	NZ
    00000027                        364 00101$:
    00000027 21 30 00         [10]  365 	ld	hl, #0x0030
    0000002A 19               [11]  366 	add	hl, de
    0000002B EB               [ 4]  367 	ex	de, hl
    0000002C C9               [10]  368 	ret
    0000002D                        369 00110$:
                                    370 ;E:\Dropbox\FAUSTO\SVILUPPI\MSX\CODE\C\MSXgl\projects\soccerlgMSX2/soccerlg_s4_b3.c:1006: } else if (GameMode == GAMEMODE_P1_VS_P2) { // P2 controls Team 1
    0000002D 3Ar00r00         [13]  371 	ld	a, (_GameMode+0)
    00000030 3D               [ 4]  372 	dec	a
    00000031 C0               [11]  373 	ret	NZ
                                    374 ;E:\Dropbox\FAUSTO\SVILUPPI\MSX\CODE\C\MSXgl\projects\soccerlgMSX2/soccerlg_s4_b3.c:1007: if (i == T1_Carrier || i == T1_Receiver) return f + SPRITE_FOCUSED_PLAYER_OFFSET;
    00000032 3Ar00r00         [13]  375 	ld	a, (_T1_Carrier+0)
    00000035 91               [ 4]  376 	sub	a, c
    00000036 28 05            [12]  377 	jr	Z, 00104$
    00000038 3Ar00r00         [13]  378 	ld	a, (_T1_Receiver+0)
    0000003B 91               [ 4]  379 	sub	a, c
    0000003C C0               [11]  380 	ret	NZ
    0000003D                        381 00104$:
    0000003D 21 30 00         [10]  382 	ld	hl, #0x0030
    00000040 19               [11]  383 	add	hl, de
    00000041 EB               [ 4]  384 	ex	de, hl
                                    385 ;E:\Dropbox\FAUSTO\SVILUPPI\MSX\CODE\C\MSXgl\projects\soccerlgMSX2/soccerlg_s4_b3.c:1009: return f;
                                    386 ;E:\Dropbox\FAUSTO\SVILUPPI\MSX\CODE\C\MSXgl\projects\soccerlgMSX2/soccerlg_s4_b3.c:1010: }
    00000042 C9               [10]  387 	ret
                         0000F380   388 _g_RDPRIM	=	0xf380
                         0000F385   389 _g_WRPRIM	=	0xf385
                         0000F38C   390 _g_CLPRIM	=	0xf38c
                         0000F39A   391 _g_USRTAB	=	0xf39a
                         0000F3DE   392 _g_CNSDFG	=	0xf3de
                         0000F3DF   393 _g_RG0SAV	=	0xf3df
                         0000F3E0   394 _g_RG1SAV	=	0xf3e0
                         0000F3E1   395 _g_RG2SAV	=	0xf3e1
                         0000F3E2   396 _g_RG3SAV	=	0xf3e2
                         0000F3E3   397 _g_RG4SAV	=	0xf3e3
                         0000F3E4   398 _g_RG5SAV	=	0xf3e4
                         0000F3E5   399 _g_RG6SAV	=	0xf3e5
                         0000F3E6   400 _g_RG7SAV	=	0xf3e6
                         0000F3E7   401 _g_STATFL	=	0xf3e7
                         0000F3E8   402 _g_TRGFLG	=	0xf3e8
                         0000F3EC   403 _g_MAXUPD	=	0xf3ec
                         0000F3EF   404 _g_MINUPD	=	0xf3ef
                         0000F3F3   405 _g_QUEUES	=	0xf3f3
                         0000F3F5   406 _g_FRCNEW	=	0xf3f5
                         0000F3F6   407 _g_SCNCNT	=	0xf3f6
                         0000F3F7   408 _g_REPCNT	=	0xf3f7
                         0000F3F8   409 _g_PUTPNT	=	0xf3f8
                         0000F3FA   410 _g_GETPNT	=	0xf3fa
                         0000F3FC   411 _g_CS120	=	0xf3fc
                         0000F401   412 _g_CS240	=	0xf401
                         0000F406   413 _g_LOW	=	0xf406
                         0000F408   414 _g_HIGH	=	0xf408
                         0000F40A   415 _g_HEADER	=	0xf40a
                         0000F40B   416 _g_ASPCT1	=	0xf40b
                         0000F40D   417 _g_ASPCT2	=	0xf40d
                         0000F959   418 _g_QUETAB	=	0xf959
                         0000F971   419 _g_QUEBAK	=	0xf971
                         0000F975   420 _g_VOICAQ	=	0xf975
                         0000F9F5   421 _g_VOICBQ	=	0xf9f5
                         0000FA75   422 _g_VOICCQ	=	0xfa75
                         0000FAF5   423 _g_RS2IQ	=	0xfaf5
                         0000FAF5   424 _g_DPPAGE	=	0xfaf5
                         0000FAF6   425 _g_ACPAGE	=	0xfaf6
                         0000FAF7   426 _g_AVCSAV	=	0xfaf7
                         0000FAF8   427 _g_EXBRSA	=	0xfaf8
                         0000FAF9   428 _g_CHRCNT	=	0xfaf9
                         0000FAFA   429 _g_ROMA	=	0xfafa
                         0000FAFC   430 _g_MODE	=	0xfafc
                         0000FAFD   431 _g_NORUSE	=	0xfafd
                         0000FAFE   432 _g_XSAVE	=	0xfafe
                         0000FB00   433 _g_YSAVE	=	0xfb00
                         0000FB03   434 _g_RSTMP	=	0xfb03
                         0000FB03   435 _g_TOCNT	=	0xfb03
                         0000FB04   436 _g_RSFCB	=	0xfb04
                         0000FB06   437 _g_RSIQLN	=	0xfb06
                         0000FB07   438 _g_MEXBIh	=	0xfb07
                         0000FB0C   439 _g_OLDSTT	=	0xfb0c
                         0000FB0C   440 _g_OLDINT	=	0xfb0c
                         0000FB16   441 _g_DEVNUM	=	0xfb16
                         0000FB17   442 _g_DATCNT	=	0xfb17
                         0000FB1A   443 _g_ERRORS	=	0xfb1a
                         0000FB1B   444 _g_FLAGS	=	0xfb1b
                         0000FB1C   445 _g_ESTBLS	=	0xfb1c
                         0000FB1D   446 _g_COMMSK	=	0xfb1d
                         0000FB1E   447 _g_LSTCOM	=	0xfb1e
                         0000FB1F   448 _g_LSTMOD	=	0xfb1f
                         0000FB35   449 _g_PRSCNT	=	0xfb35
                         0000FB36   450 _g_SAVSP	=	0xfb36
                         0000FB38   451 _g_VOICEN	=	0xfb38
                         0000FB39   452 _g_SAVVOL	=	0xfb39
                         0000FB3B   453 _g_MCLLEN	=	0xfb3b
                         0000FB3C   454 _g_MCLPTR	=	0xfb3c
                         0000FB3E   455 _g_QUEUEN	=	0xfb3e
                         0000FB3F   456 _g_MUSICF	=	0xfb3f
                         0000FB40   457 _g_PLYCNT	=	0xfb40
                         0000FB41   458 _g_VCBA	=	0xfb41
                         0000FB66   459 _g_VCBB	=	0xfb66
                         0000FB8B   460 _g_VCBC	=	0xfb8b
                         0000FBB0   461 _g_ENSTOP	=	0xfbb0
                         0000FBB1   462 _g_BASROM	=	0xfbb1
                         0000FBB2   463 _g_LINTTB	=	0xfbb2
                         0000FBCA   464 _g_FSTPOS	=	0xfbca
                         0000FBCC   465 _g_CODSAV	=	0xfbcc
                         0000FBCD   466 _g_FNKSWI	=	0xfbcd
                         0000FBCE   467 _g_FNKFLG	=	0xfbce
                         0000FBD8   468 _g_ONGSBF	=	0xfbd8
                         0000FBD9   469 _g_CLIKFL	=	0xfbd9
                         0000FBDA   470 _g_OLDKEY	=	0xfbda
                         0000FBE5   471 _g_NEWKEY	=	0xfbe5
                         0000FBF0   472 _g_KEYBUF	=	0xfbf0
                         0000FC18   473 _g_LINWRK	=	0xfc18
                         0000FC40   474 _g_PATWRK	=	0xfc40
                         0000FC48   475 _g_BOTTOM	=	0xfc48
                         0000FC4A   476 _g_HIMEM	=	0xfc4a
                         0000FC4C   477 _g_TRPTBL	=	0xfc4c
                         0000FC9A   478 _g_RTYCNT	=	0xfc9a
                         0000FC9B   479 _g_INTFLG	=	0xfc9b
                         0000FC9C   480 _g_PADY	=	0xfc9c
                         0000FC9D   481 _g_PADX	=	0xfc9d
                         0000FC9E   482 _g_JIFFY	=	0xfc9e
                         0000FCA0   483 _g_INTVAL	=	0xfca0
                         0000FCA2   484 _g_INTCNT	=	0xfca2
                         0000FCA4   485 _g_LOWLIM	=	0xfca4
                         0000FCA5   486 _g_WINWID	=	0xfca5
                         0000FCA6   487 _g_GRPHED	=	0xfca6
                         0000FCA7   488 _g_ESCCNT	=	0xfca7
                         0000FCA8   489 _g_INSFLG	=	0xfca8
                         0000FCA9   490 _g_CSRSW	=	0xfca9
                         0000FCAA   491 _g_CSTYLE	=	0xfcaa
                         0000FCAB   492 _g_CAPST	=	0xfcab
                         0000FCAC   493 _g_KANAST	=	0xfcac
                         0000FCAD   494 _g_KANAMD	=	0xfcad
                         0000FCAE   495 _g_FLBMEM	=	0xfcae
                         0000FCAF   496 _g_SCRMOD	=	0xfcaf
                         0000FCB0   497 _g_OLDSCR	=	0xfcb0
                         0000FCB1   498 _g_CASPRV	=	0xfcb1
                         0000FCB2   499 _g_BRDATR	=	0xfcb2
                         0000FCB3   500 _g_GXPOS	=	0xfcb3
                         0000FCB5   501 _g_GYPOS	=	0xfcb5
                         0000FCBB   502 _g_DRWFLG	=	0xfcbb
                         0000FCBC   503 _g_DRWSCL	=	0xfcbc
                         0000FCBD   504 _g_DRWANG	=	0xfcbd
                         0000FCC1   505 _g_MNROM	=	0xfcc1
                         0000FCC1   506 _g_EXPTBL	=	0xfcc1
                         0000FCC5   507 _g_SLTTBL	=	0xfcc5
                         0000FCC9   508 _g_SLTATR	=	0xfcc9
                         0000FD09   509 _g_SLTWRK	=	0xfd09
                         0000FD89   510 _g_PROCNM	=	0xfd89
                         0000FFE7   511 _g_RG08SAV	=	0xffe7
                         0000FFE8   512 _g_RG09SAV	=	0xffe8
                         0000FFE9   513 _g_RG10SAV	=	0xffe9
                         0000FFEA   514 _g_RG11SAV	=	0xffea
                         0000FFEB   515 _g_RG12SAV	=	0xffeb
                         0000FFEC   516 _g_RG13SAV	=	0xffec
                         0000FFED   517 _g_RG14SAV	=	0xffed
                         0000FFEE   518 _g_RG15SAV	=	0xffee
                         0000FFEF   519 _g_RG16SAV	=	0xffef
                         0000FFF0   520 _g_RG17SAV	=	0xfff0
                         0000FFF1   521 _g_RG18SAV	=	0xfff1
                         0000FFF2   522 _g_RG19SAV	=	0xfff2
                         0000FFF3   523 _g_RG20SAV	=	0xfff3
                         0000FFF4   524 _g_RG21SAV	=	0xfff4
                         0000FFF5   525 _g_RG22SAV	=	0xfff5
                         0000FFF6   526 _g_RG23SAV	=	0xfff6
                         0000FFF7   527 _g_MINROM	=	0xfff7
                         0000FFF8   528 _g_SVFFF8	=	0xfff8
                         0000FFFA   529 _g_RG25SAV	=	0xfffa
                         0000FFFB   530 _g_RG26SAV	=	0xfffb
                         0000FFFC   531 _g_RG27SAV	=	0xfffc
                         0000FFFD   532 _g_SVFFFD	=	0xfffd
                         00000004   533 _g_CGTABL	=	0x0004
                         00000006   534 _g_VDP_DR	=	0x0006
                         00000007   535 _g_VDP_DW	=	0x0007
                         0000002B   536 _g_BASRVN	=	0x002b
                         0000002B   537 _g_ROMVersion	=	0x002b
                         0000002D   538 _g_MSXVER	=	0x002d
                         0000002E   539 _g_MSXMID	=	0x002e
                         00000034   540 _g_CHAR_16	=	0x0034
                         00000000   541 _g_SUBRID	=	0x0000
                         00000002   542 _g_STRSRC	=	0x0002
                         0000F30F   543 _g_KANJTABLE	=	0xf30f
                         0000F323   544 _g_DISKVE	=	0xf323
                         0000F325   545 _g_BREAKV	=	0xf325
                         0000F341   546 _g_RAMAD0	=	0xf341
                         0000F342   547 _g_RAMAD1	=	0xf342
                         0000F343   548 _g_RAMAD2	=	0xf343
                         0000F344   549 _g_RAMAD3	=	0xf344
                         0000F348   550 _g_MASTER	=	0xf348
                         0000F37D   551 _g_BDOS	=	0xf37d
    00000043                        552 _g_Fonts:
    00000043 88                     553 	.db #0x88	; 136
    00000044 88                     554 	.db #0x88	; 136
    00000045 21                     555 	.db #0x21	; 33
    00000046 7E                     556 	.db #0x7e	; 126
    00000047 78                     557 	.db #0x78	; 120	'x'
    00000048 48                     558 	.db #0x48	; 72	'H'
    00000049 48                     559 	.db #0x48	; 72	'H'
    0000004A 48                     560 	.db #0x48	; 72	'H'
    0000004B 78                     561 	.db #0x78	; 120	'x'
    0000004C 48                     562 	.db #0x48	; 72	'H'
    0000004D 78                     563 	.db #0x78	; 120	'x'
    0000004E 00                     564 	.db #0x00	; 0
    0000004F 7C                     565 	.db #0x7c	; 124
    00000050 54                     566 	.db #0x54	; 84	'T'
    00000051 54                     567 	.db #0x54	; 84	'T'
    00000052 7C                     568 	.db #0x7c	; 124
    00000053 00                     569 	.db #0x00	; 0
    00000054 00                     570 	.db #0x00	; 0
    00000055 00                     571 	.db #0x00	; 0
    00000056 00                     572 	.db #0x00	; 0
    00000057 7C                     573 	.db #0x7c	; 124
    00000058 D6                     574 	.db #0xd6	; 214
    00000059 82                     575 	.db #0x82	; 130
    0000005A D6                     576 	.db #0xd6	; 214
    0000005B 82                     577 	.db #0x82	; 130
    0000005C D6                     578 	.db #0xd6	; 214
    0000005D 7C                     579 	.db #0x7c	; 124
    0000005E 00                     580 	.db #0x00	; 0
    0000005F 6E                     581 	.db #0x6e	; 110	'n'
    00000060 C2                     582 	.db #0xc2	; 194
    00000061 AE                     583 	.db #0xae	; 174
    00000062 C6                     584 	.db #0xc6	; 198
    00000063 EA                     585 	.db #0xea	; 234
    00000064 86                     586 	.db #0x86	; 134
    00000065 EC                     587 	.db #0xec	; 236
    00000066 00                     588 	.db #0x00	; 0
    00000067 EE                     589 	.db #0xee	; 238
    00000068 BA                     590 	.db #0xba	; 186
    00000069 F6                     591 	.db #0xf6	; 246
    0000006A 6C                     592 	.db #0x6c	; 108	'l'
    0000006B DE                     593 	.db #0xde	; 222
    0000006C BA                     594 	.db #0xba	; 186
    0000006D EE                     595 	.db #0xee	; 238
    0000006E 00                     596 	.db #0x00	; 0
    0000006F 78                     597 	.db #0x78	; 120	'x'
    00000070 C8                     598 	.db #0xc8	; 200
    00000071 AE                     599 	.db #0xae	; 174
    00000072 CA                     600 	.db #0xca	; 202
    00000073 B6                     601 	.db #0xb6	; 182
    00000074 CA                     602 	.db #0xca	; 202
    00000075 7E                     603 	.db #0x7e	; 126
    00000076 00                     604 	.db #0x00	; 0
    00000077 78                     605 	.db #0x78	; 120	'x'
    00000078 48                     606 	.db #0x48	; 72	'H'
    00000079 58                     607 	.db #0x58	; 88	'X'
    0000007A 70                     608 	.db #0x70	; 112	'p'
    0000007B 00                     609 	.db #0x00	; 0
    0000007C 00                     610 	.db #0x00	; 0
    0000007D 00                     611 	.db #0x00	; 0
    0000007E 00                     612 	.db #0x00	; 0
    0000007F 1C                     613 	.db #0x1c	; 28
    00000080 34                     614 	.db #0x34	; 52	'4'
    00000081 2C                     615 	.db #0x2c	; 44
    00000082 28                     616 	.db #0x28	; 40
    00000083 2C                     617 	.db #0x2c	; 44
    00000084 34                     618 	.db #0x34	; 52	'4'
    00000085 1C                     619 	.db #0x1c	; 28
    00000086 00                     620 	.db #0x00	; 0
    00000087 38                     621 	.db #0x38	; 56	'8'
    00000088 2C                     622 	.db #0x2c	; 44
    00000089 34                     623 	.db #0x34	; 52	'4'
    0000008A 14                     624 	.db #0x14	; 20
    0000008B 34                     625 	.db #0x34	; 52	'4'
    0000008C 2C                     626 	.db #0x2c	; 44
    0000008D 38                     627 	.db #0x38	; 56	'8'
    0000008E 00                     628 	.db #0x00	; 0
    0000008F 00                     629 	.db #0x00	; 0
    00000090 7C                     630 	.db #0x7c	; 124
    00000091 54                     631 	.db #0x54	; 84	'T'
    00000092 6C                     632 	.db #0x6c	; 108	'l'
    00000093 54                     633 	.db #0x54	; 84	'T'
    00000094 7C                     634 	.db #0x7c	; 124
    00000095 00                     635 	.db #0x00	; 0
    00000096 00                     636 	.db #0x00	; 0
    00000097 00                     637 	.db #0x00	; 0
    00000098 38                     638 	.db #0x38	; 56	'8'
    00000099 6C                     639 	.db #0x6c	; 108	'l'
    0000009A 44                     640 	.db #0x44	; 68	'D'
    0000009B 6C                     641 	.db #0x6c	; 108	'l'
    0000009C 38                     642 	.db #0x38	; 56	'8'
    0000009D 00                     643 	.db #0x00	; 0
    0000009E 00                     644 	.db #0x00	; 0
    0000009F 00                     645 	.db #0x00	; 0
    000000A0 00                     646 	.db #0x00	; 0
    000000A1 00                     647 	.db #0x00	; 0
    000000A2 00                     648 	.db #0x00	; 0
    000000A3 70                     649 	.db #0x70	; 112	'p'
    000000A4 D0                     650 	.db #0xd0	; 208
    000000A5 90                     651 	.db #0x90	; 144
    000000A6 F0                     652 	.db #0xf0	; 240
    000000A7 00                     653 	.db #0x00	; 0
    000000A8 00                     654 	.db #0x00	; 0
    000000A9 7C                     655 	.db #0x7c	; 124
    000000AA 44                     656 	.db #0x44	; 68	'D'
    000000AB 7C                     657 	.db #0x7c	; 124
    000000AC 00                     658 	.db #0x00	; 0
    000000AD 00                     659 	.db #0x00	; 0
    000000AE 00                     660 	.db #0x00	; 0
    000000AF 00                     661 	.db #0x00	; 0
    000000B0 00                     662 	.db #0x00	; 0
    000000B1 00                     663 	.db #0x00	; 0
    000000B2 00                     664 	.db #0x00	; 0
    000000B3 70                     665 	.db #0x70	; 112	'p'
    000000B4 50                     666 	.db #0x50	; 80	'P'
    000000B5 70                     667 	.db #0x70	; 112	'p'
    000000B6 00                     668 	.db #0x00	; 0
    000000B7 0E                     669 	.db #0x0e	; 14
    000000B8 1A                     670 	.db #0x1a	; 26
    000000B9 36                     671 	.db #0x36	; 54	'6'
    000000BA 6C                     672 	.db #0x6c	; 108	'l'
    000000BB D8                     673 	.db #0xd8	; 216
    000000BC B0                     674 	.db #0xb0	; 176
    000000BD E0                     675 	.db #0xe0	; 224
    000000BE 00                     676 	.db #0x00	; 0
    000000BF 3C                     677 	.db #0x3c	; 60
    000000C0 66                     678 	.db #0x66	; 102	'f'
    000000C1 5A                     679 	.db #0x5a	; 90	'Z'
    000000C2 5A                     680 	.db #0x5a	; 90	'Z'
    000000C3 5A                     681 	.db #0x5a	; 90	'Z'
    000000C4 66                     682 	.db #0x66	; 102	'f'
    000000C5 3C                     683 	.db #0x3c	; 60
    000000C6 00                     684 	.db #0x00	; 0
    000000C7 38                     685 	.db #0x38	; 56	'8'
    000000C8 68                     686 	.db #0x68	; 104	'h'
    000000C9 48                     687 	.db #0x48	; 72	'H'
    000000CA 68                     688 	.db #0x68	; 104	'h'
    000000CB 6C                     689 	.db #0x6c	; 108	'l'
    000000CC 44                     690 	.db #0x44	; 68	'D'
    000000CD 7C                     691 	.db #0x7c	; 124
    000000CE 00                     692 	.db #0x00	; 0
    000000CF 7C                     693 	.db #0x7c	; 124
    000000D0 46                     694 	.db #0x46	; 70	'F'
    000000D1 7A                     695 	.db #0x7a	; 122	'z'
    000000D2 66                     696 	.db #0x66	; 102	'f'
    000000D3 5E                     697 	.db #0x5e	; 94
    000000D4 42                     698 	.db #0x42	; 66	'B'
    000000D5 7E                     699 	.db #0x7e	; 126
    000000D6 00                     700 	.db #0x00	; 0
    000000D7 7C                     701 	.db #0x7c	; 124
    000000D8 46                     702 	.db #0x46	; 70	'F'
    000000D9 7A                     703 	.db #0x7a	; 122	'z'
    000000DA 26                     704 	.db #0x26	; 38
    000000DB 7A                     705 	.db #0x7a	; 122	'z'
    000000DC 46                     706 	.db #0x46	; 70	'F'
    000000DD 7C                     707 	.db #0x7c	; 124
    000000DE 00                     708 	.db #0x00	; 0
    000000DF 70                     709 	.db #0x70	; 112	'p'
    000000E0 5C                     710 	.db #0x5c	; 92
    000000E1 56                     711 	.db #0x56	; 86	'V'
    000000E2 42                     712 	.db #0x42	; 66	'B'
    000000E3 76                     713 	.db #0x76	; 118	'v'
    000000E4 14                     714 	.db #0x14	; 20
    000000E5 1C                     715 	.db #0x1c	; 28
    000000E6 00                     716 	.db #0x00	; 0
    000000E7 7E                     717 	.db #0x7e	; 126
    000000E8 42                     718 	.db #0x42	; 66	'B'
    000000E9 5E                     719 	.db #0x5e	; 94
    000000EA 46                     720 	.db #0x46	; 70	'F'
    000000EB 7A                     721 	.db #0x7a	; 122	'z'
    000000EC 46                     722 	.db #0x46	; 70	'F'
    000000ED 7C                     723 	.db #0x7c	; 124
    000000EE 00                     724 	.db #0x00	; 0
    000000EF 3E                     725 	.db #0x3e	; 62
    000000F0 62                     726 	.db #0x62	; 98	'b'
    000000F1 5E                     727 	.db #0x5e	; 94
    000000F2 46                     728 	.db #0x46	; 70	'F'
    000000F3 5A                     729 	.db #0x5a	; 90	'Z'
    000000F4 66                     730 	.db #0x66	; 102	'f'
    000000F5 3C                     731 	.db #0x3c	; 60
    000000F6 00                     732 	.db #0x00	; 0
    000000F7 7E                     733 	.db #0x7e	; 126
    000000F8 42                     734 	.db #0x42	; 66	'B'
    000000F9 7A                     735 	.db #0x7a	; 122	'z'
    000000FA 36                     736 	.db #0x36	; 54	'6'
    000000FB 6C                     737 	.db #0x6c	; 108	'l'
    000000FC 58                     738 	.db #0x58	; 88	'X'
    000000FD 70                     739 	.db #0x70	; 112	'p'
    000000FE 00                     740 	.db #0x00	; 0
    000000FF 3C                     741 	.db #0x3c	; 60
    00000100 66                     742 	.db #0x66	; 102	'f'
    00000101 5A                     743 	.db #0x5a	; 90	'Z'
    00000102 66                     744 	.db #0x66	; 102	'f'
    00000103 5A                     745 	.db #0x5a	; 90	'Z'
    00000104 66                     746 	.db #0x66	; 102	'f'
    00000105 3C                     747 	.db #0x3c	; 60
    00000106 00                     748 	.db #0x00	; 0
    00000107 3C                     749 	.db #0x3c	; 60
    00000108 66                     750 	.db #0x66	; 102	'f'
    00000109 5A                     751 	.db #0x5a	; 90	'Z'
    0000010A 62                     752 	.db #0x62	; 98	'b'
    0000010B 7A                     753 	.db #0x7a	; 122	'z'
    0000010C 46                     754 	.db #0x46	; 70	'F'
    0000010D 7C                     755 	.db #0x7c	; 124
    0000010E 00                     756 	.db #0x00	; 0
    0000010F 00                     757 	.db #0x00	; 0
    00000110 70                     758 	.db #0x70	; 112	'p'
    00000111 50                     759 	.db #0x50	; 80	'P'
    00000112 70                     760 	.db #0x70	; 112	'p'
    00000113 50                     761 	.db #0x50	; 80	'P'
    00000114 70                     762 	.db #0x70	; 112	'p'
    00000115 00                     763 	.db #0x00	; 0
    00000116 00                     764 	.db #0x00	; 0
    00000117 00                     765 	.db #0x00	; 0
    00000118 00                     766 	.db #0x00	; 0
    00000119 70                     767 	.db #0x70	; 112	'p'
    0000011A 50                     768 	.db #0x50	; 80	'P'
    0000011B 70                     769 	.db #0x70	; 112	'p'
    0000011C D0                     770 	.db #0xd0	; 208
    0000011D 90                     771 	.db #0x90	; 144
    0000011E F0                     772 	.db #0xf0	; 240
    0000011F 1C                     773 	.db #0x1c	; 28
    00000120 34                     774 	.db #0x34	; 52	'4'
    00000121 6C                     775 	.db #0x6c	; 108	'l'
    00000122 58                     776 	.db #0x58	; 88	'X'
    00000123 6C                     777 	.db #0x6c	; 108	'l'
    00000124 34                     778 	.db #0x34	; 52	'4'
    00000125 1C                     779 	.db #0x1c	; 28
    00000126 00                     780 	.db #0x00	; 0
    00000127 00                     781 	.db #0x00	; 0
    00000128 7C                     782 	.db #0x7c	; 124
    00000129 44                     783 	.db #0x44	; 68	'D'
    0000012A 7C                     784 	.db #0x7c	; 124
    0000012B 44                     785 	.db #0x44	; 68	'D'
    0000012C 7C                     786 	.db #0x7c	; 124
    0000012D 00                     787 	.db #0x00	; 0
    0000012E 00                     788 	.db #0x00	; 0
    0000012F 70                     789 	.db #0x70	; 112	'p'
    00000130 58                     790 	.db #0x58	; 88	'X'
    00000131 6C                     791 	.db #0x6c	; 108	'l'
    00000132 34                     792 	.db #0x34	; 52	'4'
    00000133 6C                     793 	.db #0x6c	; 108	'l'
    00000134 58                     794 	.db #0x58	; 88	'X'
    00000135 70                     795 	.db #0x70	; 112	'p'
    00000136 00                     796 	.db #0x00	; 0
    00000137 78                     797 	.db #0x78	; 120	'x'
    00000138 4C                     798 	.db #0x4c	; 76	'L'
    00000139 74                     799 	.db #0x74	; 116	't'
    0000013A 2C                     800 	.db #0x2c	; 44
    0000013B 38                     801 	.db #0x38	; 56	'8'
    0000013C 28                     802 	.db #0x28	; 40
    0000013D 38                     803 	.db #0x38	; 56	'8'
    0000013E 00                     804 	.db #0x00	; 0
    0000013F 7C                     805 	.db #0x7c	; 124
    00000140 C6                     806 	.db #0xc6	; 198
    00000141 BA                     807 	.db #0xba	; 186
    00000142 FA                     808 	.db #0xfa	; 250
    00000143 4A                     809 	.db #0x4a	; 74	'J'
    00000144 46                     810 	.db #0x46	; 70	'F'
    00000145 7C                     811 	.db #0x7c	; 124
    00000146 00                     812 	.db #0x00	; 0
    00000147 3C                     813 	.db #0x3c	; 60
    00000148 66                     814 	.db #0x66	; 102	'f'
    00000149 5A                     815 	.db #0x5a	; 90	'Z'
    0000014A 5A                     816 	.db #0x5a	; 90	'Z'
    0000014B 42                     817 	.db #0x42	; 66	'B'
    0000014C 5A                     818 	.db #0x5a	; 90	'Z'
    0000014D 7E                     819 	.db #0x7e	; 126
    0000014E 00                     820 	.db #0x00	; 0
    0000014F 7C                     821 	.db #0x7c	; 124
    00000150 46                     822 	.db #0x46	; 70	'F'
    00000151 5A                     823 	.db #0x5a	; 90	'Z'
    00000152 46                     824 	.db #0x46	; 70	'F'
    00000153 5A                     825 	.db #0x5a	; 90	'Z'
    00000154 46                     826 	.db #0x46	; 70	'F'
    00000155 7C                     827 	.db #0x7c	; 124
    00000156 00                     828 	.db #0x00	; 0
    00000157 3C                     829 	.db #0x3c	; 60
    00000158 66                     830 	.db #0x66	; 102	'f'
    00000159 5A                     831 	.db #0x5a	; 90	'Z'
    0000015A 5E                     832 	.db #0x5e	; 94
    0000015B 5A                     833 	.db #0x5a	; 90	'Z'
    0000015C 66                     834 	.db #0x66	; 102	'f'
    0000015D 3C                     835 	.db #0x3c	; 60
    0000015E 00                     836 	.db #0x00	; 0
    0000015F 7C                     837 	.db #0x7c	; 124
    00000160 46                     838 	.db #0x46	; 70	'F'
    00000161 5A                     839 	.db #0x5a	; 90	'Z'
    00000162 5A                     840 	.db #0x5a	; 90	'Z'
    00000163 5A                     841 	.db #0x5a	; 90	'Z'
    00000164 46                     842 	.db #0x46	; 70	'F'
    00000165 7C                     843 	.db #0x7c	; 124
    00000166 00                     844 	.db #0x00	; 0
    00000167 7E                     845 	.db #0x7e	; 126
    00000168 42                     846 	.db #0x42	; 66	'B'
    00000169 5E                     847 	.db #0x5e	; 94
    0000016A 44                     848 	.db #0x44	; 68	'D'
    0000016B 5E                     849 	.db #0x5e	; 94
    0000016C 42                     850 	.db #0x42	; 66	'B'
    0000016D 7E                     851 	.db #0x7e	; 126
    0000016E 00                     852 	.db #0x00	; 0
    0000016F 7E                     853 	.db #0x7e	; 126
    00000170 42                     854 	.db #0x42	; 66	'B'
    00000171 5E                     855 	.db #0x5e	; 94
    00000172 44                     856 	.db #0x44	; 68	'D'
    00000173 5C                     857 	.db #0x5c	; 92
    00000174 50                     858 	.db #0x50	; 80	'P'
    00000175 70                     859 	.db #0x70	; 112	'p'
    00000176 00                     860 	.db #0x00	; 0
    00000177 3C                     861 	.db #0x3c	; 60
    00000178 66                     862 	.db #0x66	; 102	'f'
    00000179 5E                     863 	.db #0x5e	; 94
    0000017A 52                     864 	.db #0x52	; 82	'R'
    0000017B 5A                     865 	.db #0x5a	; 90	'Z'
    0000017C 66                     866 	.db #0x66	; 102	'f'
    0000017D 3C                     867 	.db #0x3c	; 60
    0000017E 00                     868 	.db #0x00	; 0
    0000017F 7E                     869 	.db #0x7e	; 126
    00000180 5A                     870 	.db #0x5a	; 90	'Z'
    00000181 5A                     871 	.db #0x5a	; 90	'Z'
    00000182 42                     872 	.db #0x42	; 66	'B'
    00000183 5A                     873 	.db #0x5a	; 90	'Z'
    00000184 5A                     874 	.db #0x5a	; 90	'Z'
    00000185 7E                     875 	.db #0x7e	; 126
    00000186 00                     876 	.db #0x00	; 0
    00000187 7C                     877 	.db #0x7c	; 124
    00000188 44                     878 	.db #0x44	; 68	'D'
    00000189 6C                     879 	.db #0x6c	; 108	'l'
    0000018A 28                     880 	.db #0x28	; 40
    0000018B 6C                     881 	.db #0x6c	; 108	'l'
    0000018C 44                     882 	.db #0x44	; 68	'D'
    0000018D 7C                     883 	.db #0x7c	; 124
    0000018E 00                     884 	.db #0x00	; 0
    0000018F 7E                     885 	.db #0x7e	; 126
    00000190 42                     886 	.db #0x42	; 66	'B'
    00000191 76                     887 	.db #0x76	; 118	'v'
    00000192 74                     888 	.db #0x74	; 116	't'
    00000193 54                     889 	.db #0x54	; 84	'T'
    00000194 6C                     890 	.db #0x6c	; 108	'l'
    00000195 38                     891 	.db #0x38	; 56	'8'
    00000196 00                     892 	.db #0x00	; 0
    00000197 7E                     893 	.db #0x7e	; 126
    00000198 5A                     894 	.db #0x5a	; 90	'Z'
    00000199 56                     895 	.db #0x56	; 86	'V'
    0000019A 4C                     896 	.db #0x4c	; 76	'L'
    0000019B 56                     897 	.db #0x56	; 86	'V'
    0000019C 5A                     898 	.db #0x5a	; 90	'Z'
    0000019D 7E                     899 	.db #0x7e	; 126
    0000019E 00                     900 	.db #0x00	; 0
    0000019F 70                     901 	.db #0x70	; 112	'p'
    000001A0 50                     902 	.db #0x50	; 80	'P'
    000001A1 50                     903 	.db #0x50	; 80	'P'
    000001A2 50                     904 	.db #0x50	; 80	'P'
    000001A3 5E                     905 	.db #0x5e	; 94
    000001A4 42                     906 	.db #0x42	; 66	'B'
    000001A5 7E                     907 	.db #0x7e	; 126
    000001A6 00                     908 	.db #0x00	; 0
    000001A7 EE                     909 	.db #0xee	; 238
    000001A8 BA                     910 	.db #0xba	; 186
    000001A9 92                     911 	.db #0x92	; 146
    000001AA AA                     912 	.db #0xaa	; 170
    000001AB BA                     913 	.db #0xba	; 186
    000001AC AA                     914 	.db #0xaa	; 170
    000001AD EE                     915 	.db #0xee	; 238
    000001AE 00                     916 	.db #0x00	; 0
    000001AF EE                     917 	.db #0xee	; 238
    000001B0 BA                     918 	.db #0xba	; 186
    000001B1 9A                     919 	.db #0x9a	; 154
    000001B2 AA                     920 	.db #0xaa	; 170
    000001B3 B2                     921 	.db #0xb2	; 178
    000001B4 BA                     922 	.db #0xba	; 186
    000001B5 EE                     923 	.db #0xee	; 238
    000001B6 00                     924 	.db #0x00	; 0
    000001B7 7C                     925 	.db #0x7c	; 124
    000001B8 C6                     926 	.db #0xc6	; 198
    000001B9 BA                     927 	.db #0xba	; 186
    000001BA BA                     928 	.db #0xba	; 186
    000001BB BA                     929 	.db #0xba	; 186
    000001BC C6                     930 	.db #0xc6	; 198
    000001BD 7C                     931 	.db #0x7c	; 124
    000001BE 00                     932 	.db #0x00	; 0
    000001BF 7C                     933 	.db #0x7c	; 124
    000001C0 46                     934 	.db #0x46	; 70	'F'
    000001C1 5A                     935 	.db #0x5a	; 90	'Z'
    000001C2 46                     936 	.db #0x46	; 70	'F'
    000001C3 5C                     937 	.db #0x5c	; 92
    000001C4 50                     938 	.db #0x50	; 80	'P'
    000001C5 70                     939 	.db #0x70	; 112	'p'
    000001C6 00                     940 	.db #0x00	; 0
    000001C7 3E                     941 	.db #0x3e	; 62
    000001C8 62                     942 	.db #0x62	; 98	'b'
    000001C9 5A                     943 	.db #0x5a	; 90	'Z'
    000001CA 62                     944 	.db #0x62	; 98	'b'
    000001CB 3A                     945 	.db #0x3a	; 58
    000001CC 0A                     946 	.db #0x0a	; 10
    000001CD 0E                     947 	.db #0x0e	; 14
    000001CE 00                     948 	.db #0x00	; 0
    000001CF 7C                     949 	.db #0x7c	; 124
    000001D0 46                     950 	.db #0x46	; 70	'F'
    000001D1 5A                     951 	.db #0x5a	; 90	'Z'
    000001D2 46                     952 	.db #0x46	; 70	'F'
    000001D3 5A                     953 	.db #0x5a	; 90	'Z'
    000001D4 5A                     954 	.db #0x5a	; 90	'Z'
    000001D5 7E                     955 	.db #0x7e	; 126
    000001D6 00                     956 	.db #0x00	; 0
    000001D7 3E                     957 	.db #0x3e	; 62
    000001D8 62                     958 	.db #0x62	; 98	'b'
    000001D9 5E                     959 	.db #0x5e	; 94
    000001DA 66                     960 	.db #0x66	; 102	'f'
    000001DB 7A                     961 	.db #0x7a	; 122	'z'
    000001DC 46                     962 	.db #0x46	; 70	'F'
    000001DD 7C                     963 	.db #0x7c	; 124
    000001DE 00                     964 	.db #0x00	; 0
    000001DF FE                     965 	.db #0xfe	; 254
    000001E0 82                     966 	.db #0x82	; 130
    000001E1 EE                     967 	.db #0xee	; 238
    000001E2 28                     968 	.db #0x28	; 40
    000001E3 28                     969 	.db #0x28	; 40
    000001E4 28                     970 	.db #0x28	; 40
    000001E5 38                     971 	.db #0x38	; 56	'8'
    000001E6 00                     972 	.db #0x00	; 0
    000001E7 7E                     973 	.db #0x7e	; 126
    000001E8 5A                     974 	.db #0x5a	; 90	'Z'
    000001E9 5A                     975 	.db #0x5a	; 90	'Z'
    000001EA 5A                     976 	.db #0x5a	; 90	'Z'
    000001EB 5A                     977 	.db #0x5a	; 90	'Z'
    000001EC 66                     978 	.db #0x66	; 102	'f'
    000001ED 3C                     979 	.db #0x3c	; 60
    000001EE 00                     980 	.db #0x00	; 0
    000001EF EE                     981 	.db #0xee	; 238
    000001F0 AA                     982 	.db #0xaa	; 170
    000001F1 BA                     983 	.db #0xba	; 186
    000001F2 D6                     984 	.db #0xd6	; 214
    000001F3 54                     985 	.db #0x54	; 84	'T'
    000001F4 6C                     986 	.db #0x6c	; 108	'l'
    000001F5 38                     987 	.db #0x38	; 56	'8'
    000001F6 00                     988 	.db #0x00	; 0
    000001F7 EE                     989 	.db #0xee	; 238
    000001F8 AA                     990 	.db #0xaa	; 170
    000001F9 BA                     991 	.db #0xba	; 186
    000001FA AA                     992 	.db #0xaa	; 170
    000001FB AA                     993 	.db #0xaa	; 170
    000001FC D6                     994 	.db #0xd6	; 214
    000001FD 7C                     995 	.db #0x7c	; 124
    000001FE 00                     996 	.db #0x00	; 0
    000001FF EE                     997 	.db #0xee	; 238
    00000200 BA                     998 	.db #0xba	; 186
    00000201 D6                     999 	.db #0xd6	; 214
    00000202 6C                    1000 	.db #0x6c	; 108	'l'
    00000203 D6                    1001 	.db #0xd6	; 214
    00000204 BA                    1002 	.db #0xba	; 186
    00000205 EE                    1003 	.db #0xee	; 238
    00000206 00                    1004 	.db #0x00	; 0
    00000207 7E                    1005 	.db #0x7e	; 126
    00000208 5A                    1006 	.db #0x5a	; 90	'Z'
    00000209 5A                    1007 	.db #0x5a	; 90	'Z'
    0000020A 66                    1008 	.db #0x66	; 102	'f'
    0000020B 34                    1009 	.db #0x34	; 52	'4'
    0000020C 14                    1010 	.db #0x14	; 20
    0000020D 1C                    1011 	.db #0x1c	; 28
    0000020E 00                    1012 	.db #0x00	; 0
    0000020F 7E                    1013 	.db #0x7e	; 126
    00000210 42                    1014 	.db #0x42	; 66	'B'
    00000211 7A                    1015 	.db #0x7a	; 122	'z'
    00000212 66                    1016 	.db #0x66	; 102	'f'
    00000213 5E                    1017 	.db #0x5e	; 94
    00000214 42                    1018 	.db #0x42	; 66	'B'
    00000215 7E                    1019 	.db #0x7e	; 126
    00000216 00                    1020 	.db #0x00	; 0
    00000217 3C                    1021 	.db #0x3c	; 60
    00000218 24                    1022 	.db #0x24	; 36
    00000219 2C                    1023 	.db #0x2c	; 44
    0000021A 28                    1024 	.db #0x28	; 40
    0000021B 2C                    1025 	.db #0x2c	; 44
    0000021C 24                    1026 	.db #0x24	; 36
    0000021D 3C                    1027 	.db #0x3c	; 60
    0000021E 00                    1028 	.db #0x00	; 0
    0000021F E0                    1029 	.db #0xe0	; 224
    00000220 B0                    1030 	.db #0xb0	; 176
    00000221 D8                    1031 	.db #0xd8	; 216
    00000222 6C                    1032 	.db #0x6c	; 108	'l'
    00000223 36                    1033 	.db #0x36	; 54	'6'
    00000224 1A                    1034 	.db #0x1a	; 26
    00000225 0E                    1035 	.db #0x0e	; 14
    00000226 00                    1036 	.db #0x00	; 0
    00000227 3C                    1037 	.db #0x3c	; 60
    00000228 24                    1038 	.db #0x24	; 36
    00000229 34                    1039 	.db #0x34	; 52	'4'
    0000022A 14                    1040 	.db #0x14	; 20
    0000022B 34                    1041 	.db #0x34	; 52	'4'
    0000022C 24                    1042 	.db #0x24	; 36
    0000022D 3C                    1043 	.db #0x3c	; 60
    0000022E 00                    1044 	.db #0x00	; 0
    0000022F 38                    1045 	.db #0x38	; 56	'8'
    00000230 6C                    1046 	.db #0x6c	; 108	'l'
    00000231 D6                    1047 	.db #0xd6	; 214
    00000232 BA                    1048 	.db #0xba	; 186
    00000233 EE                    1049 	.db #0xee	; 238
    00000234 00                    1050 	.db #0x00	; 0
    00000235 00                    1051 	.db #0x00	; 0
    00000236 00                    1052 	.db #0x00	; 0
    00000237 00                    1053 	.db #0x00	; 0
    00000238 00                    1054 	.db #0x00	; 0
    00000239 00                    1055 	.db #0x00	; 0
    0000023A 00                    1056 	.db #0x00	; 0
    0000023B 00                    1057 	.db #0x00	; 0
    0000023C FE                    1058 	.db #0xfe	; 254
    0000023D 82                    1059 	.db #0x82	; 130
    0000023E FE                    1060 	.db #0xfe	; 254
    0000023F 78                    1061 	.db #0x78	; 120	'x'
    00000240 48                    1062 	.db #0x48	; 72	'H'
    00000241 68                    1063 	.db #0x68	; 104	'h'
    00000242 38                    1064 	.db #0x38	; 56	'8'
    00000243 00                    1065 	.db #0x00	; 0
    00000244 00                    1066 	.db #0x00	; 0
    00000245 00                    1067 	.db #0x00	; 0
    00000246 00                    1068 	.db #0x00	; 0
    00000247 3C                    1069 	.db #0x3c	; 60
    00000248 26                    1070 	.db #0x26	; 38
    00000249 3A                    1071 	.db #0x3a	; 58
    0000024A 62                    1072 	.db #0x62	; 98	'b'
    0000024B 5A                    1073 	.db #0x5a	; 90	'Z'
    0000024C 62                    1074 	.db #0x62	; 98	'b'
    0000024D 3E                    1075 	.db #0x3e	; 62
    0000024E 00                    1076 	.db #0x00	; 0
    0000024F 70                    1077 	.db #0x70	; 112	'p'
    00000250 50                    1078 	.db #0x50	; 80	'P'
    00000251 5C                    1079 	.db #0x5c	; 92
    00000252 46                    1080 	.db #0x46	; 70	'F'
    00000253 5A                    1081 	.db #0x5a	; 90	'Z'
    00000254 46                    1082 	.db #0x46	; 70	'F'
    00000255 7C                    1083 	.db #0x7c	; 124
    00000256 00                    1084 	.db #0x00	; 0
    00000257 00                    1085 	.db #0x00	; 0
    00000258 3E                    1086 	.db #0x3e	; 62
    00000259 62                    1087 	.db #0x62	; 98	'b'
    0000025A 5E                    1088 	.db #0x5e	; 94
    0000025B 5E                    1089 	.db #0x5e	; 94
    0000025C 62                    1090 	.db #0x62	; 98	'b'
    0000025D 3E                    1091 	.db #0x3e	; 62
    0000025E 00                    1092 	.db #0x00	; 0
    0000025F 0E                    1093 	.db #0x0e	; 14
    00000260 0A                    1094 	.db #0x0a	; 10
    00000261 3A                    1095 	.db #0x3a	; 58
    00000262 62                    1096 	.db #0x62	; 98	'b'
    00000263 5A                    1097 	.db #0x5a	; 90	'Z'
    00000264 62                    1098 	.db #0x62	; 98	'b'
    00000265 3E                    1099 	.db #0x3e	; 62
    00000266 00                    1100 	.db #0x00	; 0
    00000267 3C                    1101 	.db #0x3c	; 60
    00000268 66                    1102 	.db #0x66	; 102	'f'
    00000269 5A                    1103 	.db #0x5a	; 90	'Z'
    0000026A 46                    1104 	.db #0x46	; 70	'F'
    0000026B 5E                    1105 	.db #0x5e	; 94
    0000026C 62                    1106 	.db #0x62	; 98	'b'
    0000026D 3E                    1107 	.db #0x3e	; 62
    0000026E 00                    1108 	.db #0x00	; 0
    0000026F 3E                    1109 	.db #0x3e	; 62
    00000270 62                    1110 	.db #0x62	; 98	'b'
    00000271 5E                    1111 	.db #0x5e	; 94
    00000272 44                    1112 	.db #0x44	; 68	'D'
    00000273 5C                    1113 	.db #0x5c	; 92
    00000274 50                    1114 	.db #0x50	; 80	'P'
    00000275 70                    1115 	.db #0x70	; 112	'p'
    00000276 00                    1116 	.db #0x00	; 0
    00000277 00                    1117 	.db #0x00	; 0
    00000278 3E                    1118 	.db #0x3e	; 62
    00000279 62                    1119 	.db #0x62	; 98	'b'
    0000027A 5A                    1120 	.db #0x5a	; 90	'Z'
    0000027B 62                    1121 	.db #0x62	; 98	'b'
    0000027C 7A                    1122 	.db #0x7a	; 122	'z'
    0000027D 46                    1123 	.db #0x46	; 70	'F'
    0000027E 7C                    1124 	.db #0x7c	; 124
    0000027F 70                    1125 	.db #0x70	; 112	'p'
    00000280 50                    1126 	.db #0x50	; 80	'P'
    00000281 5C                    1127 	.db #0x5c	; 92
    00000282 46                    1128 	.db #0x46	; 70	'F'
    00000283 5A                    1129 	.db #0x5a	; 90	'Z'
    00000284 5A                    1130 	.db #0x5a	; 90	'Z'
    00000285 7E                    1131 	.db #0x7e	; 126
    00000286 00                    1132 	.db #0x00	; 0
    00000287 00                    1133 	.db #0x00	; 0
    00000288 38                    1134 	.db #0x38	; 56	'8'
    00000289 28                    1135 	.db #0x28	; 40
    0000028A 38                    1136 	.db #0x38	; 56	'8'
    0000028B 2C                    1137 	.db #0x2c	; 44
    0000028C 24                    1138 	.db #0x24	; 36
    0000028D 3C                    1139 	.db #0x3c	; 60
    0000028E 00                    1140 	.db #0x00	; 0
    0000028F 00                    1141 	.db #0x00	; 0
    00000290 0E                    1142 	.db #0x0e	; 14
    00000291 0A                    1143 	.db #0x0a	; 10
    00000292 0E                    1144 	.db #0x0e	; 14
    00000293 7A                    1145 	.db #0x7a	; 122	'z'
    00000294 5A                    1146 	.db #0x5a	; 90	'Z'
    00000295 66                    1147 	.db #0x66	; 102	'f'
    00000296 3C                    1148 	.db #0x3c	; 60
    00000297 70                    1149 	.db #0x70	; 112	'p'
    00000298 50                    1150 	.db #0x50	; 80	'P'
    00000299 5E                    1151 	.db #0x5e	; 94
    0000029A 52                    1152 	.db #0x52	; 82	'R'
    0000029B 4E                    1153 	.db #0x4e	; 78	'N'
    0000029C 52                    1154 	.db #0x52	; 82	'R'
    0000029D 7E                    1155 	.db #0x7e	; 126
    0000029E 00                    1156 	.db #0x00	; 0
    0000029F 38                    1157 	.db #0x38	; 56	'8'
    000002A0 28                    1158 	.db #0x28	; 40
    000002A1 28                    1159 	.db #0x28	; 40
    000002A2 28                    1160 	.db #0x28	; 40
    000002A3 2C                    1161 	.db #0x2c	; 44
    000002A4 34                    1162 	.db #0x34	; 52	'4'
    000002A5 1C                    1163 	.db #0x1c	; 28
    000002A6 00                    1164 	.db #0x00	; 0
    000002A7 00                    1165 	.db #0x00	; 0
    000002A8 00                    1166 	.db #0x00	; 0
    000002A9 FC                    1167 	.db #0xfc	; 252
    000002AA 86                    1168 	.db #0x86	; 134
    000002AB AA                    1169 	.db #0xaa	; 170
    000002AC AA                    1170 	.db #0xaa	; 170
    000002AD FE                    1171 	.db #0xfe	; 254
    000002AE 00                    1172 	.db #0x00	; 0
    000002AF 00                    1173 	.db #0x00	; 0
    000002B0 00                    1174 	.db #0x00	; 0
    000002B1 7C                    1175 	.db #0x7c	; 124
    000002B2 46                    1176 	.db #0x46	; 70	'F'
    000002B3 5A                    1177 	.db #0x5a	; 90	'Z'
    000002B4 5A                    1178 	.db #0x5a	; 90	'Z'
    000002B5 7E                    1179 	.db #0x7e	; 126
    000002B6 00                    1180 	.db #0x00	; 0
    000002B7 00                    1181 	.db #0x00	; 0
    000002B8 00                    1182 	.db #0x00	; 0
    000002B9 3C                    1183 	.db #0x3c	; 60
    000002BA 66                    1184 	.db #0x66	; 102	'f'
    000002BB 5A                    1185 	.db #0x5a	; 90	'Z'
    000002BC 66                    1186 	.db #0x66	; 102	'f'
    000002BD 3C                    1187 	.db #0x3c	; 60
    000002BE 00                    1188 	.db #0x00	; 0
    000002BF 00                    1189 	.db #0x00	; 0
    000002C0 00                    1190 	.db #0x00	; 0
    000002C1 7C                    1191 	.db #0x7c	; 124
    000002C2 46                    1192 	.db #0x46	; 70	'F'
    000002C3 5A                    1193 	.db #0x5a	; 90	'Z'
    000002C4 46                    1194 	.db #0x46	; 70	'F'
    000002C5 5C                    1195 	.db #0x5c	; 92
    000002C6 70                    1196 	.db #0x70	; 112	'p'
    000002C7 00                    1197 	.db #0x00	; 0
    000002C8 00                    1198 	.db #0x00	; 0
    000002C9 3C                    1199 	.db #0x3c	; 60
    000002CA 62                    1200 	.db #0x62	; 98	'b'
    000002CB 5A                    1201 	.db #0x5a	; 90	'Z'
    000002CC 62                    1202 	.db #0x62	; 98	'b'
    000002CD 3A                    1203 	.db #0x3a	; 58
    000002CE 0E                    1204 	.db #0x0e	; 14
    000002CF 00                    1205 	.db #0x00	; 0
    000002D0 7E                    1206 	.db #0x7e	; 126
    000002D1 52                    1207 	.db #0x52	; 82	'R'
    000002D2 4E                    1208 	.db #0x4e	; 78	'N'
    000002D3 58                    1209 	.db #0x58	; 88	'X'
    000002D4 50                    1210 	.db #0x50	; 80	'P'
    000002D5 70                    1211 	.db #0x70	; 112	'p'
    000002D6 00                    1212 	.db #0x00	; 0
    000002D7 3C                    1213 	.db #0x3c	; 60
    000002D8 64                    1214 	.db #0x64	; 100	'd'
    000002D9 5C                    1215 	.db #0x5c	; 92
    000002DA 66                    1216 	.db #0x66	; 102	'f'
    000002DB 3A                    1217 	.db #0x3a	; 58
    000002DC 26                    1218 	.db #0x26	; 38
    000002DD 3C                    1219 	.db #0x3c	; 60
    000002DE 00                    1220 	.db #0x00	; 0
    000002DF 70                    1221 	.db #0x70	; 112	'p'
    000002E0 58                    1222 	.db #0x58	; 88	'X'
    000002E1 48                    1223 	.db #0x48	; 72	'H'
    000002E2 58                    1224 	.db #0x58	; 88	'X'
    000002E3 5C                    1225 	.db #0x5c	; 92
    000002E4 64                    1226 	.db #0x64	; 100	'd'
    000002E5 3C                    1227 	.db #0x3c	; 60
    000002E6 00                    1228 	.db #0x00	; 0
    000002E7 00                    1229 	.db #0x00	; 0
    000002E8 00                    1230 	.db #0x00	; 0
    000002E9 7E                    1231 	.db #0x7e	; 126
    000002EA 5A                    1232 	.db #0x5a	; 90	'Z'
    000002EB 5A                    1233 	.db #0x5a	; 90	'Z'
    000002EC 62                    1234 	.db #0x62	; 98	'b'
    000002ED 3E                    1235 	.db #0x3e	; 62
    000002EE 00                    1236 	.db #0x00	; 0
    000002EF 00                    1237 	.db #0x00	; 0
    000002F0 00                    1238 	.db #0x00	; 0
    000002F1 7E                    1239 	.db #0x7e	; 126
    000002F2 5A                    1240 	.db #0x5a	; 90	'Z'
    000002F3 56                    1241 	.db #0x56	; 86	'V'
    000002F4 6C                    1242 	.db #0x6c	; 108	'l'
    000002F5 38                    1243 	.db #0x38	; 56	'8'
    000002F6 00                    1244 	.db #0x00	; 0
    000002F7 00                    1245 	.db #0x00	; 0
    000002F8 00                    1246 	.db #0x00	; 0
    000002F9 FE                    1247 	.db #0xfe	; 254
    000002FA AA                    1248 	.db #0xaa	; 170
    000002FB AA                    1249 	.db #0xaa	; 170
    000002FC D6                    1250 	.db #0xd6	; 214
    000002FD 7C                    1251 	.db #0x7c	; 124
    000002FE 00                    1252 	.db #0x00	; 0
    000002FF 00                    1253 	.db #0x00	; 0
    00000300 00                    1254 	.db #0x00	; 0
    00000301 7C                    1255 	.db #0x7c	; 124
    00000302 54                    1256 	.db #0x54	; 84	'T'
    00000303 6C                    1257 	.db #0x6c	; 108	'l'
    00000304 54                    1258 	.db #0x54	; 84	'T'
    00000305 7C                    1259 	.db #0x7c	; 124
    00000306 00                    1260 	.db #0x00	; 0
    00000307 00                    1261 	.db #0x00	; 0
    00000308 00                    1262 	.db #0x00	; 0
    00000309 7E                    1263 	.db #0x7e	; 126
    0000030A 4A                    1264 	.db #0x4a	; 74	'J'
    0000030B 72                    1265 	.db #0x72	; 114	'r'
    0000030C 7A                    1266 	.db #0x7a	; 122	'z'
    0000030D 46                    1267 	.db #0x46	; 70	'F'
    0000030E 7C                    1268 	.db #0x7c	; 124
    0000030F 00                    1269 	.db #0x00	; 0
    00000310 00                    1270 	.db #0x00	; 0
    00000311 7E                    1271 	.db #0x7e	; 126
    00000312 42                    1272 	.db #0x42	; 66	'B'
    00000313 76                    1273 	.db #0x76	; 118	'v'
    00000314 6E                    1274 	.db #0x6e	; 110	'n'
    00000315 42                    1275 	.db #0x42	; 66	'B'
    00000316 7E                    1276 	.db #0x7e	; 126
    00000317 3C                    1277 	.db #0x3c	; 60
    00000318 24                    1278 	.db #0x24	; 36
    00000319 6C                    1279 	.db #0x6c	; 108	'l'
    0000031A 48                    1280 	.db #0x48	; 72	'H'
    0000031B 6C                    1281 	.db #0x6c	; 108	'l'
    0000031C 24                    1282 	.db #0x24	; 36
    0000031D 3C                    1283 	.db #0x3c	; 60
    0000031E 00                    1284 	.db #0x00	; 0
    0000031F 38                    1285 	.db #0x38	; 56	'8'
    00000320 28                    1286 	.db #0x28	; 40
    00000321 28                    1287 	.db #0x28	; 40
    00000322 28                    1288 	.db #0x28	; 40
    00000323 28                    1289 	.db #0x28	; 40
    00000324 28                    1290 	.db #0x28	; 40
    00000325 38                    1291 	.db #0x38	; 56	'8'
    00000326 00                    1292 	.db #0x00	; 0
    00000327 78                    1293 	.db #0x78	; 120	'x'
    00000328 48                    1294 	.db #0x48	; 72	'H'
    00000329 6C                    1295 	.db #0x6c	; 108	'l'
    0000032A 24                    1296 	.db #0x24	; 36
    0000032B 6C                    1297 	.db #0x6c	; 108	'l'
    0000032C 48                    1298 	.db #0x48	; 72	'H'
    0000032D 78                    1299 	.db #0x78	; 120	'x'
    0000032E 00                    1300 	.db #0x00	; 0
    0000032F 00                    1301 	.db #0x00	; 0
    00000330 3E                    1302 	.db #0x3e	; 62
    00000331 6A                    1303 	.db #0x6a	; 106	'j'
    00000332 56                    1304 	.db #0x56	; 86	'V'
    00000333 7C                    1305 	.db #0x7c	; 124
    00000334 00                    1306 	.db #0x00	; 0
    00000335 00                    1307 	.db #0x00	; 0
    00000336 00                    1308 	.db #0x00	; 0
                                   1309 ;E:\Dropbox\FAUSTO\SVILUPPI\MSX\CODE\C\MSXgl\projects\soccerlgMSX2/soccerlg_s4_b3.c:1011: void MainLoop(){
                                   1310 ;	---------------------------------
                                   1311 ; Function MainLoop
                                   1312 ; ---------------------------------
    00000337                       1313 _MainLoop::
    00000337 DD E5            [15] 1314 	push	ix
    00000339 DD 21 00 00      [14] 1315 	ld	ix,#0
    0000033D DD 39            [15] 1316 	add	ix,sp
    0000033F 21 F5 FF         [10] 1317 	ld	hl, #-11
    00000342 39               [11] 1318 	add	hl, sp
    00000343 F9               [ 6] 1319 	ld	sp, hl
                                   1320 ;E:\Dropbox\FAUSTO\SVILUPPI\MSX\CODE\C\MSXgl\projects\soccerlgMSX2/soccerlg_s4_b3.c:1013: SetTeamColors(TEAM_1, &g_TeamColorsArray[Team1Code]);
    00000344 01r00r00         [10] 1321 	ld	bc, #_g_TeamColorsArray+0
    00000347 ED 5Br00r00      [20] 1322 	ld	de, (_Team1Code)
    0000034B 16 00            [ 7] 1323 	ld	d, #0x00
    0000034D 6B               [ 4] 1324 	ld	l, e
    0000034E 62               [ 4] 1325 	ld	h, d
    0000034F 29               [11] 1326 	add	hl, hl
    00000350 19               [11] 1327 	add	hl, de
    00000351 29               [11] 1328 	add	hl, hl
    00000352 09               [11] 1329 	add	hl, bc
    00000353 C5               [11] 1330 	push	bc
    00000354 EB               [ 4] 1331 	ex	de, hl
    00000355 AF               [ 4] 1332 	xor	a, a
    00000356 CDr00r00         [17] 1333 	call	_SetTeamColors
    00000359 C1               [10] 1334 	pop	bc
                                   1335 ;E:\Dropbox\FAUSTO\SVILUPPI\MSX\CODE\C\MSXgl\projects\soccerlgMSX2/soccerlg_s4_b3.c:1014: SetTeamColors(TEAM_2, &g_TeamColorsArray[Team2Code]);
    0000035A ED 5Br00r00      [20] 1336 	ld	de, (_Team2Code)
    0000035E 16 00            [ 7] 1337 	ld	d, #0x00
    00000360 6B               [ 4] 1338 	ld	l, e
    00000361 62               [ 4] 1339 	ld	h, d
    00000362 29               [11] 1340 	add	hl, hl
    00000363 19               [11] 1341 	add	hl, de
    00000364 29               [11] 1342 	add	hl, hl
    00000365 09               [11] 1343 	add	hl, bc
    00000366 EB               [ 4] 1344 	ex	de, hl
    00000367 3E 01            [ 7] 1345 	ld	a, #0x01
    00000369 CDr00r00         [17] 1346 	call	_SetTeamColors
                                   1347 ;E:\Dropbox\FAUSTO\SVILUPPI\MSX\CODE\C\MSXgl\projects\soccerlgMSX2/soccerlg_s4_b3.c:1017: u8 game_state = 0; // 0: Scorrimento, 1: Pausa, 2: Posizionamento, 3: Partita
    0000036C DD 36 F5 00      [19] 1348 	ld	-11 (ix), #0x00
                                   1349 ;E:\Dropbox\FAUSTO\SVILUPPI\MSX\CODE\C\MSXgl\projects\soccerlgMSX2/soccerlg_s4_b3.c:1018: u8 wait_secs = 0;
    00000370 DD 36 F6 00      [19] 1350 	ld	-10 (ix), #0x00
                                   1351 ;E:\Dropbox\FAUSTO\SVILUPPI\MSX\CODE\C\MSXgl\projects\soccerlgMSX2/soccerlg_s4_b3.c:1019: u8 start_sec = 0;
    00000374 DD 36 F7 00      [19] 1352 	ld	-9 (ix), #0x00
                                   1353 ;E:\Dropbox\FAUSTO\SVILUPPI\MSX\CODE\C\MSXgl\projects\soccerlgMSX2/soccerlg_s4_b3.c:1023: Field.ly = 0; // Parte da estremo Nord
    00000378 21 00 00         [10] 1354 	ld	hl, #0x0000
    0000037B 22r04r00         [16] 1355 	ld	((_Field + 4)), hl
                                   1356 ;E:\Dropbox\FAUSTO\SVILUPPI\MSX\CODE\C\MSXgl\projects\soccerlgMSX2/soccerlg_s4_b3.c:1024: Field.dy = 1; // Avanzamento scorrimento per fase (3 px a frame)
    0000037E 21r12r00         [10] 1357 	ld	hl, #(_Field + 18)
    00000381 36 01            [10] 1358 	ld	(hl), #0x01
                                   1359 ;E:\Dropbox\FAUSTO\SVILUPPI\MSX\CODE\C\MSXgl\projects\soccerlgMSX2/soccerlg_s4_b3.c:1028: for (u8 i = 0; i < 7; i++) {
    00000383 DD 36 FF 00      [19] 1360 	ld	-1 (ix), #0x00
    00000387                       1361 00157$:
    00000387 DD 7E FF         [19] 1362 	ld	a, -1 (ix)
    0000038A D6 07            [ 7] 1363 	sub	a, #0x07
    0000038C D2rE5r04         [10] 1364 	jp	NC, 00101$
                                   1365 ;E:\Dropbox\FAUSTO\SVILUPPI\MSX\CODE\C\MSXgl\projects\soccerlgMSX2/soccerlg_s4_b3.c:1030: SwSprite[i].lx = 36 + i * 28;
    0000038F DD 4E FF         [19] 1366 	ld	c, -1 (ix)
    00000392 06 00            [ 7] 1367 	ld	b, #0x00
    00000394 69               [ 4] 1368 	ld	l, c
    00000395 60               [ 4] 1369 	ld	h, b
    00000396 29               [11] 1370 	add	hl, hl
    00000397 29               [11] 1371 	add	hl, hl
    00000398 09               [11] 1372 	add	hl, bc
    00000399 29               [11] 1373 	add	hl, hl
    0000039A 09               [11] 1374 	add	hl, bc
    0000039B 29               [11] 1375 	add	hl, hl
    0000039C 09               [11] 1376 	add	hl, bc
    0000039D DD 75 FD         [19] 1377 	ld	-3 (ix), l
    000003A0 DD 74 FE         [19] 1378 	ld	-2 (ix), h
    000003A3 DD 7E FD         [19] 1379 	ld	a, -3 (ix)
    000003A6 C6r00            [ 7] 1380 	add	a, #<(_SwSprite)
    000003A8 DD 77 F8         [19] 1381 	ld	-8 (ix), a
    000003AB DD 7E FE         [19] 1382 	ld	a, -2 (ix)
    000003AE CEs00            [ 7] 1383 	adc	a, #>(_SwSprite)
    000003B0 DD 77 F9         [19] 1384 	ld	-7 (ix), a
    000003B3 DD 7E FF         [19] 1385 	ld	a, -1 (ix)
    000003B6 4F               [ 4] 1386 	ld	c, a
    000003B7 87               [ 4] 1387 	add	a, a
    000003B8 87               [ 4] 1388 	add	a, a
    000003B9 87               [ 4] 1389 	add	a, a
    000003BA 91               [ 4] 1390 	sub	a, c
    000003BB 87               [ 4] 1391 	add	a, a
    000003BC 87               [ 4] 1392 	add	a, a
    000003BD C6 24            [ 7] 1393 	add	a, #0x24
    000003BF DD 77 FA         [19] 1394 	ld	-6 (ix), a
    000003C2 DD 6E F8         [19] 1395 	ld	l, -8 (ix)
    000003C5 DD 66 F9         [19] 1396 	ld	h, -7 (ix)
    000003C8 DD 7E FA         [19] 1397 	ld	a, -6 (ix)
    000003CB 77               [ 7] 1398 	ld	(hl), a
                                   1399 ;E:\Dropbox\FAUSTO\SVILUPPI\MSX\CODE\C\MSXgl\projects\soccerlgMSX2/soccerlg_s4_b3.c:1031: SwSprite[i].ly = 252 - 24; // Schierata sopra la riga di centrocampo
    000003CC DD 7E F8         [19] 1400 	ld	a, -8 (ix)
    000003CF C6 04            [ 7] 1401 	add	a, #0x04
    000003D1 DD 77 FD         [19] 1402 	ld	-3 (ix), a
    000003D4 DD 7E F9         [19] 1403 	ld	a, -7 (ix)
    000003D7 CE 00            [ 7] 1404 	adc	a, #0x00
    000003D9 DD 77 FE         [19] 1405 	ld	-2 (ix), a
    000003DC DD 6E FD         [19] 1406 	ld	l, -3 (ix)
    000003DF DD 66 FE         [19] 1407 	ld	h, -2 (ix)
    000003E2 36 E4            [10] 1408 	ld	(hl), #0xe4
    000003E4 23               [ 6] 1409 	inc	hl
    000003E5 36 00            [10] 1410 	ld	(hl), #0x00
                                   1411 ;E:\Dropbox\FAUSTO\SVILUPPI\MSX\CODE\C\MSXgl\projects\soccerlgMSX2/soccerlg_s4_b3.c:1032: SwSprite[i].frame = (i == 0) ? SPR_GK_PLAYER_FACE_TO_SOUTH : SPR_T1_PLAYER_FACE_TO_SOUTH;
    000003E7 DD 7E F8         [19] 1412 	ld	a, -8 (ix)
    000003EA C6 0F            [ 7] 1413 	add	a, #0x0f
    000003EC DD 77 FB         [19] 1414 	ld	-5 (ix), a
    000003EF DD 7E F9         [19] 1415 	ld	a, -7 (ix)
    000003F2 CE 00            [ 7] 1416 	adc	a, #0x00
    000003F4 DD 77 FC         [19] 1417 	ld	-4 (ix), a
    000003F7 DD 7E FF         [19] 1418 	ld	a, -1 (ix)
    000003FA B7               [ 4] 1419 	or	a, a
    000003FB 20 0B            [12] 1420 	jr	NZ, 00205$
    000003FD DD 36 FD D5      [19] 1421 	ld	-3 (ix), #0xd5
    00000401 DD 36 FE 00      [19] 1422 	ld	-2 (ix), #0
    00000405 C3r10r04         [10] 1423 	jp	00206$
    00000408                       1424 00205$:
    00000408 DD 36 FD 01      [19] 1425 	ld	-3 (ix), #0x01
    0000040C DD 36 FE 00      [19] 1426 	ld	-2 (ix), #0
    00000410                       1427 00206$:
    00000410 DD 4E FD         [19] 1428 	ld	c, -3 (ix)
    00000413 DD 46 FE         [19] 1429 	ld	b, -2 (ix)
    00000416 DD 6E FB         [19] 1430 	ld	l, -5 (ix)
    00000419 DD 66 FC         [19] 1431 	ld	h, -4 (ix)
    0000041C 71               [ 7] 1432 	ld	(hl), c
    0000041D 23               [ 6] 1433 	inc	hl
    0000041E 70               [ 7] 1434 	ld	(hl), b
                                   1435 ;E:\Dropbox\FAUSTO\SVILUPPI\MSX\CODE\C\MSXgl\projects\soccerlgMSX2/soccerlg_s4_b3.c:1033: SwSprite[i].dx = 0;
    0000041F DD 6E F8         [19] 1436 	ld	l, -8 (ix)
    00000422 DD 66 F9         [19] 1437 	ld	h, -7 (ix)
    00000425 11 11 00         [10] 1438 	ld	de, #0x0011
    00000428 19               [11] 1439 	add	hl, de
    00000429 36 00            [10] 1440 	ld	(hl), #0x00
                                   1441 ;E:\Dropbox\FAUSTO\SVILUPPI\MSX\CODE\C\MSXgl\projects\soccerlgMSX2/soccerlg_s4_b3.c:1034: SwSprite[i].dy = 0;
    0000042B DD 6E F8         [19] 1442 	ld	l, -8 (ix)
    0000042E DD 66 F9         [19] 1443 	ld	h, -7 (ix)
    00000431 11 12 00         [10] 1444 	ld	de, #0x0012
    00000434 19               [11] 1445 	add	hl, de
    00000435 36 00            [10] 1446 	ld	(hl), #0x00
                                   1447 ;E:\Dropbox\FAUSTO\SVILUPPI\MSX\CODE\C\MSXgl\projects\soccerlgMSX2/soccerlg_s4_b3.c:1037: SwSprite[i+7].lx = 36 + i * 28;
    00000437 DD 7E FF         [19] 1448 	ld	a, -1 (ix)
    0000043A DD 77 FB         [19] 1449 	ld	-5 (ix), a
    0000043D DD 36 FC 00      [19] 1450 	ld	-4 (ix), #0x00
    00000441 DD 7E FB         [19] 1451 	ld	a, -5 (ix)
    00000444 C6 07            [ 7] 1452 	add	a, #0x07
    00000446 DD 77 FD         [19] 1453 	ld	-3 (ix), a
    00000449 DD 7E FC         [19] 1454 	ld	a, -4 (ix)
    0000044C CE 00            [ 7] 1455 	adc	a, #0x00
    0000044E DD 77 FE         [19] 1456 	ld	-2 (ix), a
    00000451 DD 4E FD         [19] 1457 	ld	c, -3 (ix)
    00000454 DD 46 FE         [19] 1458 	ld	b, -2 (ix)
    00000457 69               [ 4] 1459 	ld	l, c
    00000458 60               [ 4] 1460 	ld	h, b
    00000459 29               [11] 1461 	add	hl, hl
    0000045A 29               [11] 1462 	add	hl, hl
    0000045B 09               [11] 1463 	add	hl, bc
    0000045C 29               [11] 1464 	add	hl, hl
    0000045D 09               [11] 1465 	add	hl, bc
    0000045E 29               [11] 1466 	add	hl, hl
    0000045F 09               [11] 1467 	add	hl, bc
    00000460 DD 75 FB         [19] 1468 	ld	-5 (ix), l
    00000463 DD 74 FC         [19] 1469 	ld	-4 (ix), h
    00000466 3Er00            [ 7] 1470 	ld	a, #<(_SwSprite)
    00000468 DD 86 FB         [19] 1471 	add	a, -5 (ix)
    0000046B DD 77 FD         [19] 1472 	ld	-3 (ix), a
    0000046E 3Es00            [ 7] 1473 	ld	a, #>(_SwSprite)
    00000470 DD 8E FC         [19] 1474 	adc	a, -4 (ix)
    00000473 DD 77 FE         [19] 1475 	ld	-2 (ix), a
    00000476 DD 6E FD         [19] 1476 	ld	l, -3 (ix)
    00000479 DD 66 FE         [19] 1477 	ld	h, -2 (ix)
    0000047C DD 7E FA         [19] 1478 	ld	a, -6 (ix)
    0000047F 77               [ 7] 1479 	ld	(hl), a
                                   1480 ;E:\Dropbox\FAUSTO\SVILUPPI\MSX\CODE\C\MSXgl\projects\soccerlgMSX2/soccerlg_s4_b3.c:1038: SwSprite[i+7].ly = 252 + 24; // Schierata sotto la riga di centrocampo
    00000480 DD 6E FD         [19] 1481 	ld	l, -3 (ix)
    00000483 DD 66 FE         [19] 1482 	ld	h, -2 (ix)
    00000486 11 04 00         [10] 1483 	ld	de, #0x0004
    00000489 19               [11] 1484 	add	hl, de
    0000048A 36 14            [10] 1485 	ld	(hl), #0x14
    0000048C 23               [ 6] 1486 	inc	hl
    0000048D 36 01            [10] 1487 	ld	(hl), #0x01
                                   1488 ;E:\Dropbox\FAUSTO\SVILUPPI\MSX\CODE\C\MSXgl\projects\soccerlgMSX2/soccerlg_s4_b3.c:1039: SwSprite[i+7].frame = (i == 0) ? SPR_GK_PLAYER_FACE_TO_NORTH : SPR_T2_PLAYER_FACE_TO_NORTH;
    0000048F DD 7E FD         [19] 1489 	ld	a, -3 (ix)
    00000492 C6 0F            [ 7] 1490 	add	a, #0x0f
    00000494 DD 77 F9         [19] 1491 	ld	-7 (ix), a
    00000497 DD 7E FE         [19] 1492 	ld	a, -2 (ix)
    0000049A CE 00            [ 7] 1493 	adc	a, #0x00
    0000049C DD 77 FA         [19] 1494 	ld	-6 (ix), a
    0000049F DD 7E FF         [19] 1495 	ld	a, -1 (ix)
    000004A2 B7               [ 4] 1496 	or	a, a
    000004A3 20 0B            [12] 1497 	jr	NZ, 00207$
    000004A5 DD 36 FB D6      [19] 1498 	ld	-5 (ix), #0xd6
    000004A9 DD 36 FC 00      [19] 1499 	ld	-4 (ix), #0
    000004AD C3rB8r04         [10] 1500 	jp	00208$
    000004B0                       1501 00207$:
    000004B0 DD 36 FB 83      [19] 1502 	ld	-5 (ix), #0x83
    000004B4 DD 36 FC 00      [19] 1503 	ld	-4 (ix), #0
    000004B8                       1504 00208$:
    000004B8 DD 4E FB         [19] 1505 	ld	c, -5 (ix)
    000004BB DD 46 FC         [19] 1506 	ld	b, -4 (ix)
    000004BE DD 6E F9         [19] 1507 	ld	l, -7 (ix)
    000004C1 DD 66 FA         [19] 1508 	ld	h, -6 (ix)
    000004C4 71               [ 7] 1509 	ld	(hl), c
    000004C5 23               [ 6] 1510 	inc	hl
    000004C6 70               [ 7] 1511 	ld	(hl), b
                                   1512 ;E:\Dropbox\FAUSTO\SVILUPPI\MSX\CODE\C\MSXgl\projects\soccerlgMSX2/soccerlg_s4_b3.c:1040: SwSprite[i+7].dx = 0;
    000004C7 DD 6E FD         [19] 1513 	ld	l, -3 (ix)
    000004CA DD 66 FE         [19] 1514 	ld	h, -2 (ix)
    000004CD 11 11 00         [10] 1515 	ld	de, #0x0011
    000004D0 19               [11] 1516 	add	hl, de
    000004D1 36 00            [10] 1517 	ld	(hl), #0x00
                                   1518 ;E:\Dropbox\FAUSTO\SVILUPPI\MSX\CODE\C\MSXgl\projects\soccerlgMSX2/soccerlg_s4_b3.c:1041: SwSprite[i+7].dy = 0;
    000004D3 DD 6E FD         [19] 1519 	ld	l, -3 (ix)
    000004D6 DD 66 FE         [19] 1520 	ld	h, -2 (ix)
    000004D9 11 12 00         [10] 1521 	ld	de, #0x0012
    000004DC 19               [11] 1522 	add	hl, de
    000004DD 36 00            [10] 1523 	ld	(hl), #0x00
                                   1524 ;E:\Dropbox\FAUSTO\SVILUPPI\MSX\CODE\C\MSXgl\projects\soccerlgMSX2/soccerlg_s4_b3.c:1028: for (u8 i = 0; i < 7; i++) {
    000004DF DD 34 FF         [23] 1525 	inc	-1 (ix)
    000004E2 C3r87r03         [10] 1526 	jp	00157$
    000004E5                       1527 00101$:
                                   1528 ;E:\Dropbox\FAUSTO\SVILUPPI\MSX\CODE\C\MSXgl\projects\soccerlgMSX2/soccerlg_s4_b3.c:1045: SwSprite[14].lx = BALL_START_X;
    000004E5 21r42r01         [10] 1529 	ld	hl, #(_SwSprite + 322)
    000004E8 36 78            [10] 1530 	ld	(hl), #0x78
                                   1531 ;E:\Dropbox\FAUSTO\SVILUPPI\MSX\CODE\C\MSXgl\projects\soccerlgMSX2/soccerlg_s4_b3.c:1046: SwSprite[14].ly = BALL_START_Y;
    000004EA 21 00 01         [10] 1532 	ld	hl, #0x0100
    000004ED 22r46r01         [16] 1533 	ld	((_SwSprite + 326)), hl
                                   1534 ;E:\Dropbox\FAUSTO\SVILUPPI\MSX\CODE\C\MSXgl\projects\soccerlgMSX2/soccerlg_s4_b3.c:1047: SwSprite[14].frame = SPR_BALL_SIZE_1; // Sprite base della palla
    000004F0 21 60 00         [10] 1535 	ld	hl, #0x0060
    000004F3 22r51r01         [16] 1536 	ld	((_SwSprite + 337)), hl
                                   1537 ;E:\Dropbox\FAUSTO\SVILUPPI\MSX\CODE\C\MSXgl\projects\soccerlgMSX2/soccerlg_s4_b3.c:1048: SwSprite[14].dx = 0;
    000004F6 21r53r01         [10] 1538 	ld	hl, #(_SwSprite + 339)
    000004F9 36 00            [10] 1539 	ld	(hl), #0x00
                                   1540 ;E:\Dropbox\FAUSTO\SVILUPPI\MSX\CODE\C\MSXgl\projects\soccerlgMSX2/soccerlg_s4_b3.c:1049: SwSprite[14].dy = 0;
    000004FB 21r54r01         [10] 1541 	ld	hl, #(_SwSprite + 340)
    000004FE 36 00            [10] 1542 	ld	(hl), #0x00
                                   1543 ;E:\Dropbox\FAUSTO\SVILUPPI\MSX\CODE\C\MSXgl\projects\soccerlgMSX2/soccerlg_s4_b3.c:1052: for (u8 i = 15; i < NumSprite; i++) {
    00000500 0E 0F            [ 7] 1544 	ld	c, #0x0f
    00000502                       1545 00160$:
    00000502 79               [ 4] 1546 	ld	a, c
    00000503 D6 18            [ 7] 1547 	sub	a, #0x18
    00000505 30 34            [12] 1548 	jr	NC, 00102$
                                   1549 ;E:\Dropbox\FAUSTO\SVILUPPI\MSX\CODE\C\MSXgl\projects\soccerlgMSX2/soccerlg_s4_b3.c:1053: SwSprite[i].lx = 0;
    00000507 06 00            [ 7] 1550 	ld	b, #0x00
    00000509 69               [ 4] 1551 	ld	l, c
    0000050A 60               [ 4] 1552 	ld	h, b
    0000050B 29               [11] 1553 	add	hl, hl
    0000050C 29               [11] 1554 	add	hl, hl
    0000050D 09               [11] 1555 	add	hl, bc
    0000050E 29               [11] 1556 	add	hl, hl
    0000050F 09               [11] 1557 	add	hl, bc
    00000510 29               [11] 1558 	add	hl, hl
    00000511 09               [11] 1559 	add	hl, bc
    00000512 EB               [ 4] 1560 	ex	de, hl
    00000513 21r00r00         [10] 1561 	ld	hl, #_SwSprite
    00000516 19               [11] 1562 	add	hl, de
    00000517 EB               [ 4] 1563 	ex	de, hl
    00000518 AF               [ 4] 1564 	xor	a, a
    00000519 12               [ 7] 1565 	ld	(de), a
                                   1566 ;E:\Dropbox\FAUSTO\SVILUPPI\MSX\CODE\C\MSXgl\projects\soccerlgMSX2/soccerlg_s4_b3.c:1054: SwSprite[i].ly = 1000; // Valore Y alto, fuori dal limite del campo (504)
    0000051A 21 04 00         [10] 1567 	ld	hl, #0x0004
    0000051D 19               [11] 1568 	add	hl, de
    0000051E 36 E8            [10] 1569 	ld	(hl), #0xe8
    00000520 23               [ 6] 1570 	inc	hl
    00000521 36 03            [10] 1571 	ld	(hl), #0x03
                                   1572 ;E:\Dropbox\FAUSTO\SVILUPPI\MSX\CODE\C\MSXgl\projects\soccerlgMSX2/soccerlg_s4_b3.c:1055: SwSprite[i].frame = 0;
    00000523 21 0F 00         [10] 1573 	ld	hl, #0x000f
    00000526 19               [11] 1574 	add	hl, de
    00000527 AF               [ 4] 1575 	xor	a, a
    00000528 77               [ 7] 1576 	ld	(hl), a
    00000529 23               [ 6] 1577 	inc	hl
    0000052A 77               [ 7] 1578 	ld	(hl), a
                                   1579 ;E:\Dropbox\FAUSTO\SVILUPPI\MSX\CODE\C\MSXgl\projects\soccerlgMSX2/soccerlg_s4_b3.c:1056: SwSprite[i].dx = 0;
    0000052B 21 11 00         [10] 1580 	ld	hl, #0x0011
    0000052E 19               [11] 1581 	add	hl, de
    0000052F 36 00            [10] 1582 	ld	(hl), #0x00
                                   1583 ;E:\Dropbox\FAUSTO\SVILUPPI\MSX\CODE\C\MSXgl\projects\soccerlgMSX2/soccerlg_s4_b3.c:1057: SwSprite[i].dy = 0;
    00000531 21 12 00         [10] 1584 	ld	hl, #0x0012
    00000534 19               [11] 1585 	add	hl, de
    00000535 36 00            [10] 1586 	ld	(hl), #0x00
                                   1587 ;E:\Dropbox\FAUSTO\SVILUPPI\MSX\CODE\C\MSXgl\projects\soccerlgMSX2/soccerlg_s4_b3.c:1052: for (u8 i = 15; i < NumSprite; i++) {
    00000537 0C               [ 4] 1588 	inc	c
    00000538 C3r02r05         [10] 1589 	jp	00160$
    0000053B                       1590 00102$:
                                   1591 ;E:\Dropbox\FAUSTO\SVILUPPI\MSX\CODE\C\MSXgl\projects\soccerlgMSX2/soccerlg_s4_b3.c:1061: for (u8 i=0; i<NumSprite;i++) 
    0000053B 0E 00            [ 7] 1592 	ld	c, #0x00
    0000053D                       1593 00163$:
    0000053D 79               [ 4] 1594 	ld	a, c
    0000053E D6 18            [ 7] 1595 	sub	a, #0x18
    00000540 D2rC0r05         [10] 1596 	jp	NC, 00103$
                                   1597 ;E:\Dropbox\FAUSTO\SVILUPPI\MSX\CODE\C\MSXgl\projects\soccerlgMSX2/soccerlg_s4_b3.c:1063: SwSprite[i].x0 = SwSprite[i].lx;
    00000543 06 00            [ 7] 1598 	ld	b, #0x00
    00000545 69               [ 4] 1599 	ld	l, c
    00000546 60               [ 4] 1600 	ld	h, b
    00000547 29               [11] 1601 	add	hl, hl
    00000548 29               [11] 1602 	add	hl, hl
    00000549 09               [11] 1603 	add	hl, bc
    0000054A 29               [11] 1604 	add	hl, hl
    0000054B 09               [11] 1605 	add	hl, bc
    0000054C 29               [11] 1606 	add	hl, hl
    0000054D 09               [11] 1607 	add	hl, bc
    0000054E 11r00r00         [10] 1608 	ld	de, #_SwSprite
    00000551 19               [11] 1609 	add	hl, de
                                   1610 ;	spillPairReg hl
                                   1611 ;	spillPairReg hl
    00000552 5D               [ 4] 1612 	ld	e, l
    00000553 54               [ 4] 1613 	ld	d, h
                                   1614 ;	spillPairReg hl
                                   1615 ;	spillPairReg hl
    00000554 23               [ 6] 1616 	inc	hl
    00000555 1A               [ 7] 1617 	ld	a, (de)
    00000556 77               [ 7] 1618 	ld	(hl), a
                                   1619 ;E:\Dropbox\FAUSTO\SVILUPPI\MSX\CODE\C\MSXgl\projects\soccerlgMSX2/soccerlg_s4_b3.c:1064: SwSprite[i].y0 = SwSprite[i].ly;
    00000557 21 06 00         [10] 1620 	ld	hl, #0x0006
    0000055A 19               [11] 1621 	add	hl, de
    0000055B DD 75 FC         [19] 1622 	ld	-4 (ix), l
    0000055E DD 74 FD         [19] 1623 	ld	-3 (ix), h
    00000561 FD 21 04 00      [14] 1624 	ld	iy, #0x0004
    00000565 FD 19            [15] 1625 	add	iy, de
    00000567 FD 7E 00         [19] 1626 	ld	a, 0 (iy)
    0000056A DD 77 FE         [19] 1627 	ld	-2 (ix), a
    0000056D FD 7E 01         [19] 1628 	ld	a, 1 (iy)
    00000570 DD 77 FF         [19] 1629 	ld	-1 (ix), a
    00000573 DD 6E FC         [19] 1630 	ld	l, -4 (ix)
    00000576 DD 66 FD         [19] 1631 	ld	h, -3 (ix)
    00000579 DD 7E FE         [19] 1632 	ld	a, -2 (ix)
    0000057C 77               [ 7] 1633 	ld	(hl), a
    0000057D 23               [ 6] 1634 	inc	hl
    0000057E DD 7E FF         [19] 1635 	ld	a, -1 (ix)
    00000581 77               [ 7] 1636 	ld	(hl), a
                                   1637 ;E:\Dropbox\FAUSTO\SVILUPPI\MSX\CODE\C\MSXgl\projects\soccerlgMSX2/soccerlg_s4_b3.c:1065: SwSprite[i].x1 = SwSprite[i].lx;
    00000582 6B               [ 4] 1638 	ld	l, e
                                   1639 ;	spillPairReg hl
                                   1640 ;	spillPairReg hl
    00000583 62               [ 4] 1641 	ld	h, d
                                   1642 ;	spillPairReg hl
                                   1643 ;	spillPairReg hl
    00000584 23               [ 6] 1644 	inc	hl
    00000585 23               [ 6] 1645 	inc	hl
    00000586 1A               [ 7] 1646 	ld	a, (de)
    00000587 77               [ 7] 1647 	ld	(hl), a
                                   1648 ;E:\Dropbox\FAUSTO\SVILUPPI\MSX\CODE\C\MSXgl\projects\soccerlgMSX2/soccerlg_s4_b3.c:1066: SwSprite[i].y1 = SwSprite[i].ly;
    00000588 21 08 00         [10] 1649 	ld	hl, #0x0008
    0000058B 19               [11] 1650 	add	hl, de
    0000058C DD 75 FC         [19] 1651 	ld	-4 (ix), l
    0000058F DD 74 FD         [19] 1652 	ld	-3 (ix), h
    00000592 FD 7E 00         [19] 1653 	ld	a, 0 (iy)
    00000595 DD 77 FE         [19] 1654 	ld	-2 (ix), a
    00000598 FD 7E 01         [19] 1655 	ld	a, 1 (iy)
    0000059B DD 77 FF         [19] 1656 	ld	-1 (ix), a
    0000059E DD 6E FC         [19] 1657 	ld	l, -4 (ix)
    000005A1 DD 66 FD         [19] 1658 	ld	h, -3 (ix)
    000005A4 DD 7E FE         [19] 1659 	ld	a, -2 (ix)
    000005A7 77               [ 7] 1660 	ld	(hl), a
    000005A8 23               [ 6] 1661 	inc	hl
    000005A9 DD 7E FF         [19] 1662 	ld	a, -1 (ix)
    000005AC 77               [ 7] 1663 	ld	(hl), a
                                   1664 ;E:\Dropbox\FAUSTO\SVILUPPI\MSX\CODE\C\MSXgl\projects\soccerlgMSX2/soccerlg_s4_b3.c:1067: SwSprite[i].x2 = 0;
    000005AD 6B               [ 4] 1665 	ld	l, e
                                   1666 ;	spillPairReg hl
                                   1667 ;	spillPairReg hl
    000005AE 62               [ 4] 1668 	ld	h, d
                                   1669 ;	spillPairReg hl
                                   1670 ;	spillPairReg hl
    000005AF 23               [ 6] 1671 	inc	hl
    000005B0 23               [ 6] 1672 	inc	hl
    000005B1 23               [ 6] 1673 	inc	hl
    000005B2 36 00            [10] 1674 	ld	(hl), #0x00
                                   1675 ;E:\Dropbox\FAUSTO\SVILUPPI\MSX\CODE\C\MSXgl\projects\soccerlgMSX2/soccerlg_s4_b3.c:1068: SwSprite[i].y2 = 0;
    000005B4 21 0A 00         [10] 1676 	ld	hl, #0x000a
    000005B7 19               [11] 1677 	add	hl, de
    000005B8 AF               [ 4] 1678 	xor	a, a
    000005B9 77               [ 7] 1679 	ld	(hl), a
    000005BA 23               [ 6] 1680 	inc	hl
    000005BB 77               [ 7] 1681 	ld	(hl), a
                                   1682 ;E:\Dropbox\FAUSTO\SVILUPPI\MSX\CODE\C\MSXgl\projects\soccerlgMSX2/soccerlg_s4_b3.c:1061: for (u8 i=0; i<NumSprite;i++) 
    000005BC 0C               [ 4] 1683 	inc	c
    000005BD C3r3Dr05         [10] 1684 	jp	00163$
    000005C0                       1685 00103$:
                                   1686 ;E:\Dropbox\FAUSTO\SVILUPPI\MSX\CODE\C\MSXgl\projects\soccerlgMSX2/soccerlg_s4_b3.c:1072: ScoreBoardLeft.y0 = ScoreBoardRight.y0 = Field.ly;
    000005C0 ED 4Br04r00      [20] 1687 	ld	bc, (#(_Field + 4) + 0)
    000005C4 ED 43r06r00      [20] 1688 	ld	((_ScoreBoardRight + 6)), bc
    000005C8 ED 43r06r00      [20] 1689 	ld	((_ScoreBoardLeft + 6)), bc
                                   1690 ;E:\Dropbox\FAUSTO\SVILUPPI\MSX\CODE\C\MSXgl\projects\soccerlgMSX2/soccerlg_s4_b3.c:1073: ScoreBoardLeft.y1 = ScoreBoardRight.y1 = Field.ly;
    000005CC ED 4Br04r00      [20] 1691 	ld	bc, (#(_Field + 4) + 0)
    000005D0 ED 43r08r00      [20] 1692 	ld	((_ScoreBoardRight + 8)), bc
    000005D4 ED 43r08r00      [20] 1693 	ld	((_ScoreBoardLeft + 8)), bc
                                   1694 ;E:\Dropbox\FAUSTO\SVILUPPI\MSX\CODE\C\MSXgl\projects\soccerlgMSX2/soccerlg_s4_b3.c:1074: ScoreBoardLeft.y2 = ScoreBoardRight.y2 = Field.ly;
    000005D8 ED 4Br04r00      [20] 1695 	ld	bc, (#(_Field + 4) + 0)
    000005DC ED 43r0Ar00      [20] 1696 	ld	((_ScoreBoardRight + 10)), bc
    000005E0 ED 43r0Ar00      [20] 1697 	ld	((_ScoreBoardLeft + 10)), bc
                                   1698 ;E:\Dropbox\FAUSTO\SVILUPPI\MSX\CODE\C\MSXgl\projects\soccerlgMSX2/soccerlg_s4_b3.c:1076: CallFnc_VOID(SEG_EVENTS, EventStartPresentationScrollig);
    000005E4 11r00r00         [10] 1699 	ld	de, #_EventStartPresentationScrollig
    000005E7 3E 08            [ 7] 1700 	ld	a, #0x08
    000005E9 CDr00r00         [17] 1701 	call	_CallFnc_VOID
    000005EC                       1702 00201$:
                                   1703 ;E:\Dropbox\FAUSTO\SVILUPPI\MSX\CODE\C\MSXgl\projects\soccerlgMSX2/soccerlg_s4_b3.c:1081: VDP_SetPage(0);		
    000005EC AF               [ 4] 1704 	xor	a, a
    000005ED CDr00r00         [17] 1705 	call	_VDP_SetPage
                                   1706 ;E:\Dropbox\FAUSTO\SVILUPPI\MSX\CODE\C\MSXgl\projects\soccerlgMSX2/soccerlg_s4_b3.c:1082: VDP_SetVerticalOffset(Field.ly & 255);
    000005F0 21r04r00         [10] 1707 	ld	hl, #(_Field + 4)
    000005F3 6E               [ 7] 1708 	ld	l, (hl)
                                   1709 ;	spillPairReg hl
                                   1710 ;E:/Dropbox/FAUSTO/SVILUPPI/MSX/CODE/C/MSXgl/engine/src/vdp.h:777: inline void VDP_SetVerticalOffset(u8 offset) { VDP_RegWrite(23, offset); }
    000005F4 3E 17            [ 7] 1711 	ld	a, #0x17
    000005F6 CDr00r00         [17] 1712 	call	_VDP_RegWrite
                                   1713 ;E:\Dropbox\FAUSTO\SVILUPPI\MSX\CODE\C\MSXgl\projects\soccerlgMSX2/soccerlg_s4_b3.c:1083: AddLines(&Field);
    000005F9 21r00r00         [10] 1714 	ld	hl, #_Field
    000005FC CDr00r00         [17] 1715 	call	_AddLines
                                   1716 ;E:\Dropbox\FAUSTO\SVILUPPI\MSX\CODE\C\MSXgl\projects\soccerlgMSX2/soccerlg_s4_b3.c:1085: ball_fg = CallFnc_BOOL(SEG_DRAW, IsBallForeground);
    000005FF 11r00r00         [10] 1717 	ld	de, #_IsBallForeground
    00000602 3E 05            [ 7] 1718 	ld	a, #0x05
    00000604 CDr00r00         [17] 1719 	call	_CallFnc_BOOL
    00000607 4F               [ 4] 1720 	ld	c, a
                                   1721 ;E:\Dropbox\FAUSTO\SVILUPPI\MSX\CODE\C\MSXgl\projects\soccerlgMSX2/soccerlg_s4_b3.c:1087: for (u8 i=0; i<NumSprite;i++) 
    00000608 06 00            [ 7] 1722 	ld	b, #0x00
    0000060A                       1723 00166$:
    0000060A 78               [ 4] 1724 	ld	a, b
    0000060B D6 18            [ 7] 1725 	sub	a, #0x18
    0000060D 30 35            [12] 1726 	jr	NC, 00104$
                                   1727 ;E:\Dropbox\FAUSTO\SVILUPPI\MSX\CODE\C\MSXgl\projects\soccerlgMSX2/soccerlg_s4_b3.c:1090: CallFnc_VOID_U8U16U16(SEG_DRAW, RemoveSwSprite, SwSprite[i].x2, SwSprite[i].y2, 512);
    0000060F 58               [ 4] 1728 	ld	e, b
    00000610 16 00            [ 7] 1729 	ld	d, #0x00
    00000612 6B               [ 4] 1730 	ld	l, e
    00000613 62               [ 4] 1731 	ld	h, d
    00000614 29               [11] 1732 	add	hl, hl
    00000615 29               [11] 1733 	add	hl, hl
    00000616 19               [11] 1734 	add	hl, de
    00000617 29               [11] 1735 	add	hl, hl
    00000618 19               [11] 1736 	add	hl, de
    00000619 29               [11] 1737 	add	hl, hl
    0000061A 19               [11] 1738 	add	hl, de
    0000061B EB               [ 4] 1739 	ex	de, hl
    0000061C FD 21r00r00      [14] 1740 	ld	iy, #_SwSprite
    00000620 FD 19            [15] 1741 	add	iy, de
    00000622 FD E5            [15] 1742 	push	iy
    00000624 D1               [10] 1743 	pop	de
    00000625 21 0A 00         [10] 1744 	ld	hl, #10
    00000628 19               [11] 1745 	add	hl, de
    00000629 5E               [ 7] 1746 	ld	e, (hl)
    0000062A 23               [ 6] 1747 	inc	hl
    0000062B 56               [ 7] 1748 	ld	d, (hl)
    0000062C FD 7E 03         [19] 1749 	ld	a, 3 (iy)
    0000062F C5               [11] 1750 	push	bc
    00000630 21 00 02         [10] 1751 	ld	hl, #0x0200
    00000633 E5               [11] 1752 	push	hl
    00000634 D5               [11] 1753 	push	de
    00000635 F5               [11] 1754 	push	af
    00000636 33               [ 6] 1755 	inc	sp
    00000637 11r00r00         [10] 1756 	ld	de, #_RemoveSwSprite
    0000063A 3E 05            [ 7] 1757 	ld	a, #0x05
    0000063C CDr00r00         [17] 1758 	call	_CallFnc_VOID_U8U16U16
    0000063F C1               [10] 1759 	pop	bc
                                   1760 ;E:\Dropbox\FAUSTO\SVILUPPI\MSX\CODE\C\MSXgl\projects\soccerlgMSX2/soccerlg_s4_b3.c:1087: for (u8 i=0; i<NumSprite;i++) 
    00000640 04               [ 4] 1761 	inc	b
    00000641 C3r0Ar06         [10] 1762 	jp	00166$
    00000644                       1763 00104$:
                                   1764 ;E:\Dropbox\FAUSTO\SVILUPPI\MSX\CODE\C\MSXgl\projects\soccerlgMSX2/soccerlg_s4_b3.c:1093: if (!ball_fg && OnScreen(SwSprite[14].y1)) 
    00000644 79               [ 4] 1765 	ld	a, c
    00000645 B7               [ 4] 1766 	or	a, a
    00000646 20 43            [12] 1767 	jr	NZ, 00223$
    00000648 2Ar4Ar01         [16] 1768 	ld	hl, (#_SwSprite + 330)
    0000064B DD 75 FE         [19] 1769 	ld	-2 (ix), l
    0000064E DD 74 FF         [19] 1770 	ld	-1 (ix), h
    00000651 DD 7E FE         [19] 1771 	ld	a, -2 (ix)
    00000654 C6 0F            [ 7] 1772 	add	a, #0x0f
    00000656 5F               [ 4] 1773 	ld	e, a
    00000657 DD 7E FF         [19] 1774 	ld	a, -1 (ix)
    0000065A CE 02            [ 7] 1775 	adc	a, #0x02
    0000065C 57               [ 4] 1776 	ld	d, a
    0000065D 2Ar04r00         [16] 1777 	ld	hl, (#(_Field + 4) + 0)
    00000660 7B               [ 4] 1778 	ld	a, e
    00000661 95               [ 4] 1779 	sub	a, l
    00000662 5F               [ 4] 1780 	ld	e, a
    00000663 7A               [ 4] 1781 	ld	a, d
    00000664 9C               [ 4] 1782 	sbc	a, h
    00000665 E6 01            [ 7] 1783 	and	a, #0x01
    00000667 47               [ 4] 1784 	ld	b, a
    00000668 7B               [ 4] 1785 	ld	a, e
    00000669 D6 CF            [ 7] 1786 	sub	a, #0xcf
    0000066B 78               [ 4] 1787 	ld	a, b
    0000066C DE 00            [ 7] 1788 	sbc	a, #0x00
    0000066E 30 1B            [12] 1789 	jr	NC, 00223$
                                   1790 ;E:\Dropbox\FAUSTO\SVILUPPI\MSX\CODE\C\MSXgl\projects\soccerlgMSX2/soccerlg_s4_b3.c:1094: CallSpriteFrame(SwSprite[14].x1,(SwSprite[14].y1&255)+256,SwSprite[14].frame);
    00000670 ED 5Br51r01      [20] 1791 	ld	de, (#(_SwSprite + 337) + 0)
    00000674 DD 6E FE         [19] 1792 	ld	l, -2 (ix)
                                   1793 ;	spillPairReg hl
                                   1794 ;	spillPairReg hl
                                   1795 ;	spillPairReg hl
                                   1796 ;	spillPairReg hl
    00000677 AF               [ 4] 1797 	xor	a, a
    00000678 3C               [ 4] 1798 	inc	a
    00000679 67               [ 4] 1799 	ld	h, a
                                   1800 ;	spillPairReg hl
                                   1801 ;	spillPairReg hl
    0000067A E5               [11] 1802 	push	hl
    0000067B FD E1            [14] 1803 	pop	iy
    0000067D 21r44r01         [10] 1804 	ld	hl, #_SwSprite + 324
    00000680 46               [ 7] 1805 	ld	b, (hl)
    00000681 C5               [11] 1806 	push	bc
    00000682 D5               [11] 1807 	push	de
    00000683 FD E5            [15] 1808 	push	iy
    00000685 D1               [10] 1809 	pop	de
    00000686 78               [ 4] 1810 	ld	a, b
    00000687 CDr00r00         [17] 1811 	call	_CallSpriteFrame
    0000068A C1               [10] 1812 	pop	bc
                                   1813 ;E:\Dropbox\FAUSTO\SVILUPPI\MSX\CODE\C\MSXgl\projects\soccerlgMSX2/soccerlg_s4_b3.c:1096: for (u8 i=0; i<14;i++) 
    0000068B                       1814 00223$:
    0000068B 06 00            [ 7] 1815 	ld	b, #0x00
    0000068D                       1816 00169$:
    0000068D 78               [ 4] 1817 	ld	a, b
    0000068E D6 0E            [ 7] 1818 	sub	a, #0x0e
    00000690 D2r11r07         [10] 1819 	jp	NC, 00110$
                                   1820 ;E:\Dropbox\FAUSTO\SVILUPPI\MSX\CODE\C\MSXgl\projects\soccerlgMSX2/soccerlg_s4_b3.c:1099: if OnScreen(SwSprite[i].y1) 
    00000693 58               [ 4] 1821 	ld	e, b
    00000694 16 00            [ 7] 1822 	ld	d, #0x00
    00000696 6B               [ 4] 1823 	ld	l, e
    00000697 62               [ 4] 1824 	ld	h, d
    00000698 29               [11] 1825 	add	hl, hl
    00000699 29               [11] 1826 	add	hl, hl
    0000069A 19               [11] 1827 	add	hl, de
    0000069B 29               [11] 1828 	add	hl, hl
    0000069C 19               [11] 1829 	add	hl, de
    0000069D 29               [11] 1830 	add	hl, hl
    0000069E 19               [11] 1831 	add	hl, de
    0000069F 11r00r00         [10] 1832 	ld	de, #_SwSprite
    000006A2 19               [11] 1833 	add	hl, de
    000006A3 DD 75 FC         [19] 1834 	ld	-4 (ix), l
    000006A6 DD 74 FD         [19] 1835 	ld	-3 (ix), h
    000006A9 DD 7E FC         [19] 1836 	ld	a, -4 (ix)
    000006AC C6 08            [ 7] 1837 	add	a, #0x08
    000006AE 5F               [ 4] 1838 	ld	e, a
    000006AF DD 7E FD         [19] 1839 	ld	a, -3 (ix)
    000006B2 CE 00            [ 7] 1840 	adc	a, #0x00
    000006B4 57               [ 4] 1841 	ld	d, a
    000006B5 6B               [ 4] 1842 	ld	l, e
    000006B6 62               [ 4] 1843 	ld	h, d
    000006B7 7E               [ 7] 1844 	ld	a, (hl)
    000006B8 23               [ 6] 1845 	inc	hl
    000006B9 66               [ 7] 1846 	ld	h, (hl)
                                   1847 ;	spillPairReg hl
    000006BA 6F               [ 4] 1848 	ld	l, a
                                   1849 ;	spillPairReg hl
                                   1850 ;	spillPairReg hl
    000006BB FD 21 0F 02      [14] 1851 	ld	iy, #0x020f
    000006BF C5               [11] 1852 	push	bc
    000006C0 4D               [ 4] 1853 	ld	c, l
    000006C1 44               [ 4] 1854 	ld	b, h
    000006C2 FD 09            [15] 1855 	add	iy, bc
    000006C4 C1               [10] 1856 	pop	bc
    000006C5 21r04r00         [10] 1857 	ld	hl, #(_Field + 4)
    000006C8 7E               [ 7] 1858 	ld	a, (hl)
    000006C9 DD 77 FE         [19] 1859 	ld	-2 (ix), a
    000006CC 23               [ 6] 1860 	inc	hl
    000006CD 7E               [ 7] 1861 	ld	a, (hl)
    000006CE DD 77 FF         [19] 1862 	ld	-1 (ix), a
    000006D1 FD E5            [15] 1863 	push	iy
    000006D3 E1               [10] 1864 	pop	hl
    000006D4 7D               [ 4] 1865 	ld	a, l
    000006D5 DD 96 FE         [19] 1866 	sub	a, -2 (ix)
    000006D8 6F               [ 4] 1867 	ld	l, a
                                   1868 ;	spillPairReg hl
                                   1869 ;	spillPairReg hl
    000006D9 7C               [ 4] 1870 	ld	a, h
    000006DA DD 9E FF         [19] 1871 	sbc	a, -1 (ix)
    000006DD E6 01            [ 7] 1872 	and	a, #0x01
    000006DF 67               [ 4] 1873 	ld	h, a
                                   1874 ;	spillPairReg hl
                                   1875 ;	spillPairReg hl
    000006E0 7D               [ 4] 1876 	ld	a, l
    000006E1 D6 CF            [ 7] 1877 	sub	a, #0xcf
    000006E3 7C               [ 4] 1878 	ld	a, h
    000006E4 DE 00            [ 7] 1879 	sbc	a, #0x00
    000006E6 30 25            [12] 1880 	jr	NC, 00170$
                                   1881 ;E:\Dropbox\FAUSTO\SVILUPPI\MSX\CODE\C\MSXgl\projects\soccerlgMSX2/soccerlg_s4_b3.c:1100: CallSpriteFrame(SwSprite[i].x1,(SwSprite[i].y1&255)+256,GetDrawFrame(i));
    000006E8 C5               [11] 1882 	push	bc
    000006E9 D5               [11] 1883 	push	de
    000006EA 78               [ 4] 1884 	ld	a, b
    000006EB CDr00r00         [17] 1885 	call	_GetDrawFrame
    000006EE D5               [11] 1886 	push	de
    000006EF FD E1            [14] 1887 	pop	iy
    000006F1 D1               [10] 1888 	pop	de
    000006F2 C1               [10] 1889 	pop	bc
    000006F3 EB               [ 4] 1890 	ex	de,hl
    000006F4 5E               [ 7] 1891 	ld	e, (hl)
    000006F5 16 00            [ 7] 1892 	ld	d, #0x00
    000006F7 21 00 01         [10] 1893 	ld	hl, #0x0100
    000006FA 19               [11] 1894 	add	hl, de
    000006FB EB               [ 4] 1895 	ex	de, hl
    000006FC DD 6E FC         [19] 1896 	ld	l, -4 (ix)
                                   1897 ;	spillPairReg hl
                                   1898 ;	spillPairReg hl
    000006FF DD 66 FD         [19] 1899 	ld	h, -3 (ix)
                                   1900 ;	spillPairReg hl
                                   1901 ;	spillPairReg hl
    00000702 23               [ 6] 1902 	inc	hl
    00000703 23               [ 6] 1903 	inc	hl
    00000704 6E               [ 7] 1904 	ld	l, (hl)
                                   1905 ;	spillPairReg hl
    00000705 C5               [11] 1906 	push	bc
    00000706 FD E5            [15] 1907 	push	iy
    00000708 7D               [ 4] 1908 	ld	a, l
    00000709 CDr00r00         [17] 1909 	call	_CallSpriteFrame
    0000070C C1               [10] 1910 	pop	bc
    0000070D                       1911 00170$:
                                   1912 ;E:\Dropbox\FAUSTO\SVILUPPI\MSX\CODE\C\MSXgl\projects\soccerlgMSX2/soccerlg_s4_b3.c:1096: for (u8 i=0; i<14;i++) 
    0000070D 04               [ 4] 1913 	inc	b
    0000070E C3r8Dr06         [10] 1914 	jp	00169$
    00000711                       1915 00110$:
                                   1916 ;E:\Dropbox\FAUSTO\SVILUPPI\MSX\CODE\C\MSXgl\projects\soccerlgMSX2/soccerlg_s4_b3.c:1103: if (ball_fg && OnScreen(SwSprite[14].y1)) 
    00000711 79               [ 4] 1917 	ld	a, c
    00000712 B7               [ 4] 1918 	or	a, a
    00000713 28 31            [12] 1919 	jr	Z, 00228$
    00000715 ED 5Br4Ar01      [20] 1920 	ld	de, (#_SwSprite + 330)
    00000719 21 0F 02         [10] 1921 	ld	hl, #0x020f
    0000071C 19               [11] 1922 	add	hl, de
    0000071D 4D               [ 4] 1923 	ld	c, l
    0000071E 44               [ 4] 1924 	ld	b, h
    0000071F 2Ar04r00         [16] 1925 	ld	hl, (#(_Field + 4) + 0)
    00000722 79               [ 4] 1926 	ld	a, c
    00000723 95               [ 4] 1927 	sub	a, l
    00000724 4F               [ 4] 1928 	ld	c, a
    00000725 78               [ 4] 1929 	ld	a, b
    00000726 9C               [ 4] 1930 	sbc	a, h
    00000727 E6 01            [ 7] 1931 	and	a, #0x01
    00000729 47               [ 4] 1932 	ld	b, a
    0000072A 79               [ 4] 1933 	ld	a, c
    0000072B D6 CF            [ 7] 1934 	sub	a, #0xcf
    0000072D 78               [ 4] 1935 	ld	a, b
    0000072E DE 00            [ 7] 1936 	sbc	a, #0x00
    00000730 30 14            [12] 1937 	jr	NC, 00228$
                                   1938 ;E:\Dropbox\FAUSTO\SVILUPPI\MSX\CODE\C\MSXgl\projects\soccerlgMSX2/soccerlg_s4_b3.c:1104: CallSpriteFrame(SwSprite[14].x1,(SwSprite[14].y1&255)+256,SwSprite[14].frame);
    00000732 ED 4Br51r01      [20] 1939 	ld	bc, (#(_SwSprite + 337) + 0)
    00000736 16 00            [ 7] 1940 	ld	d, #0x00
    00000738 21 00 01         [10] 1941 	ld	hl, #0x0100
    0000073B 19               [11] 1942 	add	hl, de
    0000073C EB               [ 4] 1943 	ex	de, hl
    0000073D 21r44r01         [10] 1944 	ld	hl, #_SwSprite + 324
    00000740 6E               [ 7] 1945 	ld	l, (hl)
                                   1946 ;	spillPairReg hl
    00000741 C5               [11] 1947 	push	bc
    00000742 7D               [ 4] 1948 	ld	a, l
    00000743 CDr00r00         [17] 1949 	call	_CallSpriteFrame
                                   1950 ;E:\Dropbox\FAUSTO\SVILUPPI\MSX\CODE\C\MSXgl\projects\soccerlgMSX2/soccerlg_s4_b3.c:1106: for (u8 i=15; i<NumSprite;i++) 
    00000746                       1951 00228$:
    00000746 0E 0F            [ 7] 1952 	ld	c, #0x0f
    00000748                       1953 00172$:
    00000748 79               [ 4] 1954 	ld	a, c
    00000749 D6 18            [ 7] 1955 	sub	a, #0x18
    0000074B 30 6E            [12] 1956 	jr	NC, 00116$
                                   1957 ;E:\Dropbox\FAUSTO\SVILUPPI\MSX\CODE\C\MSXgl\projects\soccerlgMSX2/soccerlg_s4_b3.c:1109: if OnScreen(SwSprite[i].y1) 
    0000074D 06 00            [ 7] 1958 	ld	b, #0x00
    0000074F 69               [ 4] 1959 	ld	l, c
    00000750 60               [ 4] 1960 	ld	h, b
    00000751 29               [11] 1961 	add	hl, hl
    00000752 29               [11] 1962 	add	hl, hl
    00000753 09               [11] 1963 	add	hl, bc
    00000754 29               [11] 1964 	add	hl, hl
    00000755 09               [11] 1965 	add	hl, bc
    00000756 29               [11] 1966 	add	hl, hl
    00000757 09               [11] 1967 	add	hl, bc
    00000758 11r00r00         [10] 1968 	ld	de, #_SwSprite
    0000075B 19               [11] 1969 	add	hl, de
    0000075C DD 75 FC         [19] 1970 	ld	-4 (ix), l
    0000075F DD 74 FD         [19] 1971 	ld	-3 (ix), h
    00000762 11 08 00         [10] 1972 	ld	de, #8
    00000765 19               [11] 1973 	add	hl, de
    00000766 46               [ 7] 1974 	ld	b, (hl)
    00000767 23               [ 6] 1975 	inc	hl
    00000768 7E               [ 7] 1976 	ld	a, (hl)
    00000769 DD 70 FE         [19] 1977 	ld	-2 (ix), b
    0000076C DD 77 FF         [19] 1978 	ld	-1 (ix), a
    0000076F DD 7E FE         [19] 1979 	ld	a, -2 (ix)
    00000772 C6 0F            [ 7] 1980 	add	a, #0x0f
    00000774 5F               [ 4] 1981 	ld	e, a
    00000775 DD 7E FF         [19] 1982 	ld	a, -1 (ix)
    00000778 CE 02            [ 7] 1983 	adc	a, #0x02
    0000077A 57               [ 4] 1984 	ld	d, a
    0000077B 2Ar04r00         [16] 1985 	ld	hl, (#(_Field + 4) + 0)
    0000077E 7B               [ 4] 1986 	ld	a, e
    0000077F 95               [ 4] 1987 	sub	a, l
    00000780 5F               [ 4] 1988 	ld	e, a
    00000781 7A               [ 4] 1989 	ld	a, d
    00000782 9C               [ 4] 1990 	sbc	a, h
    00000783 E6 01            [ 7] 1991 	and	a, #0x01
    00000785 47               [ 4] 1992 	ld	b, a
    00000786 7B               [ 4] 1993 	ld	a, e
    00000787 D6 CF            [ 7] 1994 	sub	a, #0xcf
    00000789 78               [ 4] 1995 	ld	a, b
    0000078A DE 00            [ 7] 1996 	sbc	a, #0x00
    0000078C 30 29            [12] 1997 	jr	NC, 00173$
                                   1998 ;E:\Dropbox\FAUSTO\SVILUPPI\MSX\CODE\C\MSXgl\projects\soccerlgMSX2/soccerlg_s4_b3.c:1110: CallSpriteFrame(SwSprite[i].x1,(SwSprite[i].y1&255)+256,SwSprite[i].frame);
    0000078E DD 5E FC         [19] 1999 	ld	e, -4 (ix)
    00000791 DD 56 FD         [19] 2000 	ld	d, -3 (ix)
    00000794 21 0F 00         [10] 2001 	ld	hl, #15
    00000797 19               [11] 2002 	add	hl, de
    00000798 5E               [ 7] 2003 	ld	e, (hl)
    00000799 23               [ 6] 2004 	inc	hl
    0000079A 56               [ 7] 2005 	ld	d, (hl)
    0000079B DD 6E FE         [19] 2006 	ld	l, -2 (ix)
                                   2007 ;	spillPairReg hl
                                   2008 ;	spillPairReg hl
                                   2009 ;	spillPairReg hl
                                   2010 ;	spillPairReg hl
    0000079E AF               [ 4] 2011 	xor	a, a
    0000079F 3C               [ 4] 2012 	inc	a
    000007A0 67               [ 4] 2013 	ld	h, a
                                   2014 ;	spillPairReg hl
                                   2015 ;	spillPairReg hl
    000007A1 E5               [11] 2016 	push	hl
    000007A2 FD E1            [14] 2017 	pop	iy
    000007A4 DD 6E FC         [19] 2018 	ld	l, -4 (ix)
                                   2019 ;	spillPairReg hl
                                   2020 ;	spillPairReg hl
    000007A7 DD 66 FD         [19] 2021 	ld	h, -3 (ix)
                                   2022 ;	spillPairReg hl
                                   2023 ;	spillPairReg hl
    000007AA 23               [ 6] 2024 	inc	hl
    000007AB 23               [ 6] 2025 	inc	hl
    000007AC 46               [ 7] 2026 	ld	b, (hl)
    000007AD C5               [11] 2027 	push	bc
    000007AE D5               [11] 2028 	push	de
    000007AF FD E5            [15] 2029 	push	iy
    000007B1 D1               [10] 2030 	pop	de
    000007B2 78               [ 4] 2031 	ld	a, b
    000007B3 CDr00r00         [17] 2032 	call	_CallSpriteFrame
    000007B6 C1               [10] 2033 	pop	bc
    000007B7                       2034 00173$:
                                   2035 ;E:\Dropbox\FAUSTO\SVILUPPI\MSX\CODE\C\MSXgl\projects\soccerlgMSX2/soccerlg_s4_b3.c:1106: for (u8 i=15; i<NumSprite;i++) 
    000007B7 0C               [ 4] 2036 	inc	c
    000007B8 C3r48r07         [10] 2037 	jp	00172$
    000007BB                       2038 00116$:
                                   2039 ;E:\Dropbox\FAUSTO\SVILUPPI\MSX\CODE\C\MSXgl\projects\soccerlgMSX2/soccerlg_s4_b3.c:1114: CallFnc_VOID_U8U16U16(SEG_DRAW, RemoveScoreBoardLeft, ScoreBoardLeft.x2, ScoreBoardLeft.y2, 512);
    000007BB ED 4Br0Ar00      [20] 2040 	ld	bc, (#(_ScoreBoardLeft + 10) + 0)
    000007BF 3Ar03r00         [13] 2041 	ld	a, (#(_ScoreBoardLeft + 3) + 0)
    000007C2 21 00 02         [10] 2042 	ld	hl, #0x0200
    000007C5 E5               [11] 2043 	push	hl
    000007C6 C5               [11] 2044 	push	bc
    000007C7 F5               [11] 2045 	push	af
    000007C8 33               [ 6] 2046 	inc	sp
    000007C9 11r00r00         [10] 2047 	ld	de, #_RemoveScoreBoardLeft
    000007CC 3E 05            [ 7] 2048 	ld	a, #0x05
    000007CE CDr00r00         [17] 2049 	call	_CallFnc_VOID_U8U16U16
                                   2050 ;E:\Dropbox\FAUSTO\SVILUPPI\MSX\CODE\C\MSXgl\projects\soccerlgMSX2/soccerlg_s4_b3.c:1115: CallFnc_VOID_U8U16U16(SEG_DRAW, PrintScoreBoardLeft, ScoreBoardLeft.x1, ScoreBoardLeft.y1, 256);
    000007D1 ED 4Br08r00      [20] 2051 	ld	bc, (#(_ScoreBoardLeft + 8) + 0)
    000007D5 3Ar02r00         [13] 2052 	ld	a, (#(_ScoreBoardLeft + 2) + 0)
    000007D8 21 00 01         [10] 2053 	ld	hl, #0x0100
    000007DB E5               [11] 2054 	push	hl
    000007DC C5               [11] 2055 	push	bc
    000007DD F5               [11] 2056 	push	af
    000007DE 33               [ 6] 2057 	inc	sp
    000007DF 11r00r00         [10] 2058 	ld	de, #_PrintScoreBoardLeft
    000007E2 3E 05            [ 7] 2059 	ld	a, #0x05
    000007E4 CDr00r00         [17] 2060 	call	_CallFnc_VOID_U8U16U16
                                   2061 ;E:\Dropbox\FAUSTO\SVILUPPI\MSX\CODE\C\MSXgl\projects\soccerlgMSX2/soccerlg_s4_b3.c:1116: CallFnc_VOID_U8U16U16(SEG_DRAW, RemoveScoreBoardRight, ScoreBoardRight.x2, ScoreBoardRight.y2, 512);
    000007E7 ED 4Br0Ar00      [20] 2062 	ld	bc, (#(_ScoreBoardRight + 10) + 0)
    000007EB 3Ar03r00         [13] 2063 	ld	a, (#(_ScoreBoardRight + 3) + 0)
    000007EE 21 00 02         [10] 2064 	ld	hl, #0x0200
    000007F1 E5               [11] 2065 	push	hl
    000007F2 C5               [11] 2066 	push	bc
    000007F3 F5               [11] 2067 	push	af
    000007F4 33               [ 6] 2068 	inc	sp
    000007F5 11r00r00         [10] 2069 	ld	de, #_RemoveScoreBoardRight
    000007F8 3E 05            [ 7] 2070 	ld	a, #0x05
    000007FA CDr00r00         [17] 2071 	call	_CallFnc_VOID_U8U16U16
                                   2072 ;E:\Dropbox\FAUSTO\SVILUPPI\MSX\CODE\C\MSXgl\projects\soccerlgMSX2/soccerlg_s4_b3.c:1117: CallFnc_VOID_U8U16U16(SEG_DRAW, PrintScoreBoardRight, ScoreBoardRight.x1, ScoreBoardRight.y1, 256);
    000007FD ED 4Br08r00      [20] 2073 	ld	bc, (#(_ScoreBoardRight + 8) + 0)
    00000801 3Ar02r00         [13] 2074 	ld	a, (#(_ScoreBoardRight + 2) + 0)
    00000804 21 00 01         [10] 2075 	ld	hl, #0x0100
    00000807 E5               [11] 2076 	push	hl
    00000808 C5               [11] 2077 	push	bc
    00000809 F5               [11] 2078 	push	af
    0000080A 33               [ 6] 2079 	inc	sp
    0000080B 11r00r00         [10] 2080 	ld	de, #_PrintScoreBoardRight
    0000080E 3E 05            [ 7] 2081 	ld	a, #0x05
    00000810 CDr00r00         [17] 2082 	call	_CallFnc_VOID_U8U16U16
                                   2083 ;E:\Dropbox\FAUSTO\SVILUPPI\MSX\CODE\C\MSXgl\projects\soccerlgMSX2/soccerlg_s4_b3.c:1120: CallFnc_VOID_3PTR_U16(SEG_GAMESTATE, UpdateGameState, &game_state, &wait_secs, &start_sec, target_ly);
    00000813 21 9C 00         [10] 2084 	ld	hl, #0x009c
    00000816 E5               [11] 2085 	push	hl
    00000817 21 04 00         [10] 2086 	ld	hl, #4
    0000081A 39               [11] 2087 	add	hl, sp
    0000081B E5               [11] 2088 	push	hl
    0000081C 21 05 00         [10] 2089 	ld	hl, #5
    0000081F 39               [11] 2090 	add	hl, sp
    00000820 E5               [11] 2091 	push	hl
    00000821 21 06 00         [10] 2092 	ld	hl, #6
    00000824 39               [11] 2093 	add	hl, sp
    00000825 E5               [11] 2094 	push	hl
    00000826 11r00r00         [10] 2095 	ld	de, #_UpdateGameState
    00000829 3E 09            [ 7] 2096 	ld	a, #0x09
    0000082B CDr00r00         [17] 2097 	call	_CallFnc_VOID_3PTR_U16
                                   2098 ;E:\Dropbox\FAUSTO\SVILUPPI\MSX\CODE\C\MSXgl\projects\soccerlgMSX2/soccerlg_s4_b3.c:1122: for (u8 i=0; i<NumSprite;i++) 
    0000082E 0E 00            [ 7] 2099 	ld	c, #0x00
    00000830                       2100 00175$:
    00000830 79               [ 4] 2101 	ld	a, c
    00000831 D6 18            [ 7] 2102 	sub	a, #0x18
    00000833 30 34            [12] 2103 	jr	NC, 00117$
                                   2104 ;E:\Dropbox\FAUSTO\SVILUPPI\MSX\CODE\C\MSXgl\projects\soccerlgMSX2/soccerlg_s4_b3.c:1124: SwSprite[i].x2 = SwSprite[i].lx;
    00000835 06 00            [ 7] 2105 	ld	b, #0x00
    00000837 69               [ 4] 2106 	ld	l, c
    00000838 60               [ 4] 2107 	ld	h, b
    00000839 29               [11] 2108 	add	hl, hl
    0000083A 29               [11] 2109 	add	hl, hl
    0000083B 09               [11] 2110 	add	hl, bc
    0000083C 29               [11] 2111 	add	hl, hl
    0000083D 09               [11] 2112 	add	hl, bc
    0000083E 29               [11] 2113 	add	hl, hl
    0000083F 09               [11] 2114 	add	hl, bc
    00000840 11r00r00         [10] 2115 	ld	de, #_SwSprite
    00000843 19               [11] 2116 	add	hl, de
                                   2117 ;	spillPairReg hl
                                   2118 ;	spillPairReg hl
    00000844 5D               [ 4] 2119 	ld	e, l
    00000845 54               [ 4] 2120 	ld	d, h
                                   2121 ;	spillPairReg hl
                                   2122 ;	spillPairReg hl
    00000846 23               [ 6] 2123 	inc	hl
    00000847 23               [ 6] 2124 	inc	hl
    00000848 23               [ 6] 2125 	inc	hl
    00000849 1A               [ 7] 2126 	ld	a, (de)
    0000084A 77               [ 7] 2127 	ld	(hl), a
                                   2128 ;E:\Dropbox\FAUSTO\SVILUPPI\MSX\CODE\C\MSXgl\projects\soccerlgMSX2/soccerlg_s4_b3.c:1125: SwSprite[i].y2 = SwSprite[i].ly;
    0000084B 21 0A 00         [10] 2129 	ld	hl, #0x000a
    0000084E 19               [11] 2130 	add	hl, de
    0000084F DD 75 FE         [19] 2131 	ld	-2 (ix), l
    00000852 DD 74 FF         [19] 2132 	ld	-1 (ix), h
    00000855 21 04 00         [10] 2133 	ld	hl, #4
    00000858 19               [11] 2134 	add	hl, de
    00000859 46               [ 7] 2135 	ld	b, (hl)
    0000085A 23               [ 6] 2136 	inc	hl
    0000085B 5E               [ 7] 2137 	ld	e, (hl)
    0000085C DD 6E FE         [19] 2138 	ld	l, -2 (ix)
    0000085F DD 66 FF         [19] 2139 	ld	h, -1 (ix)
    00000862 70               [ 7] 2140 	ld	(hl), b
    00000863 23               [ 6] 2141 	inc	hl
    00000864 73               [ 7] 2142 	ld	(hl), e
                                   2143 ;E:\Dropbox\FAUSTO\SVILUPPI\MSX\CODE\C\MSXgl\projects\soccerlgMSX2/soccerlg_s4_b3.c:1122: for (u8 i=0; i<NumSprite;i++) 
    00000865 0C               [ 4] 2144 	inc	c
    00000866 C3r30r08         [10] 2145 	jp	00175$
    00000869                       2146 00117$:
                                   2147 ;E:\Dropbox\FAUSTO\SVILUPPI\MSX\CODE\C\MSXgl\projects\soccerlgMSX2/soccerlg_s4_b3.c:1128: ScoreBoardLeft.y2 = Field.ly;	
    00000869 ED 4Br04r00      [20] 2148 	ld	bc, (#(_Field + 4) + 0)
    0000086D ED 43r0Ar00      [20] 2149 	ld	((_ScoreBoardLeft + 10)), bc
                                   2150 ;E:\Dropbox\FAUSTO\SVILUPPI\MSX\CODE\C\MSXgl\projects\soccerlgMSX2/soccerlg_s4_b3.c:1129: ScoreBoardRight.y2 = Field.ly;	
    00000871 ED 4Br04r00      [20] 2151 	ld	bc, (#(_Field + 4) + 0)
    00000875 ED 43r0Ar00      [20] 2152 	ld	((_ScoreBoardRight + 10)), bc
                                   2153 ;E:\Dropbox\FAUSTO\SVILUPPI\MSX\CODE\C\MSXgl\projects\soccerlgMSX2/soccerlg_s4_b3.c:1132: VDP_SetPage(1);		
    00000879 3E 01            [ 7] 2154 	ld	a, #0x01
    0000087B CDr00r00         [17] 2155 	call	_VDP_SetPage
                                   2156 ;E:\Dropbox\FAUSTO\SVILUPPI\MSX\CODE\C\MSXgl\projects\soccerlgMSX2/soccerlg_s4_b3.c:1133: VDP_SetVerticalOffset(Field.ly & 255);
    0000087E 21r04r00         [10] 2157 	ld	hl, #(_Field + 4)
    00000881 6E               [ 7] 2158 	ld	l, (hl)
                                   2159 ;	spillPairReg hl
                                   2160 ;E:/Dropbox/FAUSTO/SVILUPPI/MSX/CODE/C/MSXgl/engine/src/vdp.h:777: inline void VDP_SetVerticalOffset(u8 offset) { VDP_RegWrite(23, offset); }
    00000882 3E 17            [ 7] 2161 	ld	a, #0x17
    00000884 CDr00r00         [17] 2162 	call	_VDP_RegWrite
                                   2163 ;E:\Dropbox\FAUSTO\SVILUPPI\MSX\CODE\C\MSXgl\projects\soccerlgMSX2/soccerlg_s4_b3.c:1134: AddLines(&Field);
    00000887 21r00r00         [10] 2164 	ld	hl, #_Field
    0000088A CDr00r00         [17] 2165 	call	_AddLines
                                   2166 ;E:\Dropbox\FAUSTO\SVILUPPI\MSX\CODE\C\MSXgl\projects\soccerlgMSX2/soccerlg_s4_b3.c:1136: ball_fg = CallFnc_BOOL(SEG_DRAW, IsBallForeground);
    0000088D 11r00r00         [10] 2167 	ld	de, #_IsBallForeground
    00000890 3E 05            [ 7] 2168 	ld	a, #0x05
    00000892 CDr00r00         [17] 2169 	call	_CallFnc_BOOL
    00000895 4F               [ 4] 2170 	ld	c, a
                                   2171 ;E:\Dropbox\FAUSTO\SVILUPPI\MSX\CODE\C\MSXgl\projects\soccerlgMSX2/soccerlg_s4_b3.c:1138: for (u8 i=0; i<NumSprite;i++) 
    00000896 06 00            [ 7] 2172 	ld	b, #0x00
    00000898                       2173 00178$:
    00000898 78               [ 4] 2174 	ld	a, b
    00000899 D6 18            [ 7] 2175 	sub	a, #0x18
    0000089B 30 35            [12] 2176 	jr	NC, 00118$
                                   2177 ;E:\Dropbox\FAUSTO\SVILUPPI\MSX\CODE\C\MSXgl\projects\soccerlgMSX2/soccerlg_s4_b3.c:1141: CallFnc_VOID_U8U16U16(SEG_DRAW, RemoveSwSprite, SwSprite[i].x0, SwSprite[i].y0, 0);
    0000089D 58               [ 4] 2178 	ld	e, b
    0000089E 16 00            [ 7] 2179 	ld	d, #0x00
    000008A0 6B               [ 4] 2180 	ld	l, e
    000008A1 62               [ 4] 2181 	ld	h, d
    000008A2 29               [11] 2182 	add	hl, hl
    000008A3 29               [11] 2183 	add	hl, hl
    000008A4 19               [11] 2184 	add	hl, de
    000008A5 29               [11] 2185 	add	hl, hl
    000008A6 19               [11] 2186 	add	hl, de
    000008A7 29               [11] 2187 	add	hl, hl
    000008A8 19               [11] 2188 	add	hl, de
    000008A9 EB               [ 4] 2189 	ex	de, hl
    000008AA FD 21r00r00      [14] 2190 	ld	iy, #_SwSprite
    000008AE FD 19            [15] 2191 	add	iy, de
    000008B0 FD E5            [15] 2192 	push	iy
    000008B2 D1               [10] 2193 	pop	de
    000008B3 21 06 00         [10] 2194 	ld	hl, #6
    000008B6 19               [11] 2195 	add	hl, de
    000008B7 5E               [ 7] 2196 	ld	e, (hl)
    000008B8 23               [ 6] 2197 	inc	hl
    000008B9 56               [ 7] 2198 	ld	d, (hl)
    000008BA FD 7E 01         [19] 2199 	ld	a, 1 (iy)
    000008BD C5               [11] 2200 	push	bc
    000008BE 21 00 00         [10] 2201 	ld	hl, #0x0000
    000008C1 E5               [11] 2202 	push	hl
    000008C2 D5               [11] 2203 	push	de
    000008C3 F5               [11] 2204 	push	af
    000008C4 33               [ 6] 2205 	inc	sp
    000008C5 11r00r00         [10] 2206 	ld	de, #_RemoveSwSprite
    000008C8 3E 05            [ 7] 2207 	ld	a, #0x05
    000008CA CDr00r00         [17] 2208 	call	_CallFnc_VOID_U8U16U16
    000008CD C1               [10] 2209 	pop	bc
                                   2210 ;E:\Dropbox\FAUSTO\SVILUPPI\MSX\CODE\C\MSXgl\projects\soccerlgMSX2/soccerlg_s4_b3.c:1138: for (u8 i=0; i<NumSprite;i++) 
    000008CE 04               [ 4] 2211 	inc	b
    000008CF C3r98r08         [10] 2212 	jp	00178$
    000008D2                       2213 00118$:
                                   2214 ;E:\Dropbox\FAUSTO\SVILUPPI\MSX\CODE\C\MSXgl\projects\soccerlgMSX2/soccerlg_s4_b3.c:1144: if (!ball_fg && OnScreen(SwSprite[14].y2)) 
    000008D2 79               [ 4] 2215 	ld	a, c
    000008D3 B7               [ 4] 2216 	or	a, a
    000008D4 20 44            [12] 2217 	jr	NZ, 00237$
    000008D6 2Ar4Cr01         [16] 2218 	ld	hl, (#_SwSprite + 332)
    000008D9 DD 75 FE         [19] 2219 	ld	-2 (ix), l
    000008DC DD 74 FF         [19] 2220 	ld	-1 (ix), h
    000008DF DD 7E FE         [19] 2221 	ld	a, -2 (ix)
    000008E2 C6 0F            [ 7] 2222 	add	a, #0x0f
    000008E4 5F               [ 4] 2223 	ld	e, a
    000008E5 DD 7E FF         [19] 2224 	ld	a, -1 (ix)
    000008E8 CE 02            [ 7] 2225 	adc	a, #0x02
    000008EA 57               [ 4] 2226 	ld	d, a
    000008EB 2Ar04r00         [16] 2227 	ld	hl, (#(_Field + 4) + 0)
    000008EE 7B               [ 4] 2228 	ld	a, e
    000008EF 95               [ 4] 2229 	sub	a, l
    000008F0 5F               [ 4] 2230 	ld	e, a
    000008F1 7A               [ 4] 2231 	ld	a, d
    000008F2 9C               [ 4] 2232 	sbc	a, h
    000008F3 E6 01            [ 7] 2233 	and	a, #0x01
    000008F5 47               [ 4] 2234 	ld	b, a
    000008F6 7B               [ 4] 2235 	ld	a, e
    000008F7 D6 CF            [ 7] 2236 	sub	a, #0xcf
    000008F9 78               [ 4] 2237 	ld	a, b
    000008FA DE 00            [ 7] 2238 	sbc	a, #0x00
    000008FC 30 1C            [12] 2239 	jr	NC, 00237$
                                   2240 ;E:\Dropbox\FAUSTO\SVILUPPI\MSX\CODE\C\MSXgl\projects\soccerlgMSX2/soccerlg_s4_b3.c:1145: CallSpriteFrame(SwSprite[14].x2,(SwSprite[14].y2&255)+512,SwSprite[14].frame);
    000008FE ED 5Br51r01      [20] 2241 	ld	de, (#(_SwSprite + 337) + 0)
    00000902 DD 6E FE         [19] 2242 	ld	l, -2 (ix)
                                   2243 ;	spillPairReg hl
                                   2244 ;	spillPairReg hl
                                   2245 ;	spillPairReg hl
                                   2246 ;	spillPairReg hl
    00000905 AF               [ 4] 2247 	xor	a, a
    00000906 C6 02            [ 7] 2248 	add	a, #0x02
    00000908 67               [ 4] 2249 	ld	h, a
                                   2250 ;	spillPairReg hl
                                   2251 ;	spillPairReg hl
    00000909 E5               [11] 2252 	push	hl
    0000090A FD E1            [14] 2253 	pop	iy
    0000090C 21r45r01         [10] 2254 	ld	hl, #_SwSprite + 325
    0000090F 46               [ 7] 2255 	ld	b, (hl)
    00000910 C5               [11] 2256 	push	bc
    00000911 D5               [11] 2257 	push	de
    00000912 FD E5            [15] 2258 	push	iy
    00000914 D1               [10] 2259 	pop	de
    00000915 78               [ 4] 2260 	ld	a, b
    00000916 CDr00r00         [17] 2261 	call	_CallSpriteFrame
    00000919 C1               [10] 2262 	pop	bc
                                   2263 ;E:\Dropbox\FAUSTO\SVILUPPI\MSX\CODE\C\MSXgl\projects\soccerlgMSX2/soccerlg_s4_b3.c:1147: for (u8 i=0; i<14;i++) 
    0000091A                       2264 00237$:
    0000091A 06 00            [ 7] 2265 	ld	b, #0x00
    0000091C                       2266 00181$:
    0000091C 78               [ 4] 2267 	ld	a, b
    0000091D D6 0E            [ 7] 2268 	sub	a, #0x0e
    0000091F D2rA1r09         [10] 2269 	jp	NC, 00124$
                                   2270 ;E:\Dropbox\FAUSTO\SVILUPPI\MSX\CODE\C\MSXgl\projects\soccerlgMSX2/soccerlg_s4_b3.c:1150: if OnScreen(SwSprite[i].y2) 
    00000922 58               [ 4] 2271 	ld	e, b
    00000923 16 00            [ 7] 2272 	ld	d, #0x00
    00000925 6B               [ 4] 2273 	ld	l, e
    00000926 62               [ 4] 2274 	ld	h, d
    00000927 29               [11] 2275 	add	hl, hl
    00000928 29               [11] 2276 	add	hl, hl
    00000929 19               [11] 2277 	add	hl, de
    0000092A 29               [11] 2278 	add	hl, hl
    0000092B 19               [11] 2279 	add	hl, de
    0000092C 29               [11] 2280 	add	hl, hl
    0000092D 19               [11] 2281 	add	hl, de
    0000092E 11r00r00         [10] 2282 	ld	de, #_SwSprite
    00000931 19               [11] 2283 	add	hl, de
    00000932 DD 75 FC         [19] 2284 	ld	-4 (ix), l
    00000935 DD 74 FD         [19] 2285 	ld	-3 (ix), h
    00000938 DD 7E FC         [19] 2286 	ld	a, -4 (ix)
    0000093B C6 0A            [ 7] 2287 	add	a, #0x0a
    0000093D 5F               [ 4] 2288 	ld	e, a
    0000093E DD 7E FD         [19] 2289 	ld	a, -3 (ix)
    00000941 CE 00            [ 7] 2290 	adc	a, #0x00
    00000943 57               [ 4] 2291 	ld	d, a
    00000944 6B               [ 4] 2292 	ld	l, e
    00000945 62               [ 4] 2293 	ld	h, d
    00000946 7E               [ 7] 2294 	ld	a, (hl)
    00000947 23               [ 6] 2295 	inc	hl
    00000948 66               [ 7] 2296 	ld	h, (hl)
                                   2297 ;	spillPairReg hl
    00000949 6F               [ 4] 2298 	ld	l, a
                                   2299 ;	spillPairReg hl
                                   2300 ;	spillPairReg hl
    0000094A FD 21 0F 02      [14] 2301 	ld	iy, #0x020f
    0000094E C5               [11] 2302 	push	bc
    0000094F 4D               [ 4] 2303 	ld	c, l
    00000950 44               [ 4] 2304 	ld	b, h
    00000951 FD 09            [15] 2305 	add	iy, bc
    00000953 C1               [10] 2306 	pop	bc
    00000954 21r04r00         [10] 2307 	ld	hl, #(_Field + 4)
    00000957 7E               [ 7] 2308 	ld	a, (hl)
    00000958 DD 77 FE         [19] 2309 	ld	-2 (ix), a
    0000095B 23               [ 6] 2310 	inc	hl
    0000095C 7E               [ 7] 2311 	ld	a, (hl)
    0000095D DD 77 FF         [19] 2312 	ld	-1 (ix), a
    00000960 FD E5            [15] 2313 	push	iy
    00000962 E1               [10] 2314 	pop	hl
    00000963 7D               [ 4] 2315 	ld	a, l
    00000964 DD 96 FE         [19] 2316 	sub	a, -2 (ix)
    00000967 6F               [ 4] 2317 	ld	l, a
                                   2318 ;	spillPairReg hl
                                   2319 ;	spillPairReg hl
    00000968 7C               [ 4] 2320 	ld	a, h
    00000969 DD 9E FF         [19] 2321 	sbc	a, -1 (ix)
    0000096C E6 01            [ 7] 2322 	and	a, #0x01
    0000096E 67               [ 4] 2323 	ld	h, a
                                   2324 ;	spillPairReg hl
                                   2325 ;	spillPairReg hl
    0000096F 7D               [ 4] 2326 	ld	a, l
    00000970 D6 CF            [ 7] 2327 	sub	a, #0xcf
    00000972 7C               [ 4] 2328 	ld	a, h
    00000973 DE 00            [ 7] 2329 	sbc	a, #0x00
    00000975 30 26            [12] 2330 	jr	NC, 00182$
                                   2331 ;E:\Dropbox\FAUSTO\SVILUPPI\MSX\CODE\C\MSXgl\projects\soccerlgMSX2/soccerlg_s4_b3.c:1151: CallSpriteFrame(SwSprite[i].x2,(SwSprite[i].y2&255)+512,GetDrawFrame(i));
    00000977 C5               [11] 2332 	push	bc
    00000978 D5               [11] 2333 	push	de
    00000979 78               [ 4] 2334 	ld	a, b
    0000097A CDr00r00         [17] 2335 	call	_GetDrawFrame
    0000097D D5               [11] 2336 	push	de
    0000097E FD E1            [14] 2337 	pop	iy
    00000980 D1               [10] 2338 	pop	de
    00000981 C1               [10] 2339 	pop	bc
    00000982 EB               [ 4] 2340 	ex	de,hl
    00000983 5E               [ 7] 2341 	ld	e, (hl)
    00000984 16 00            [ 7] 2342 	ld	d, #0x00
    00000986 21 00 02         [10] 2343 	ld	hl, #0x0200
    00000989 19               [11] 2344 	add	hl, de
    0000098A EB               [ 4] 2345 	ex	de, hl
    0000098B DD 6E FC         [19] 2346 	ld	l, -4 (ix)
                                   2347 ;	spillPairReg hl
                                   2348 ;	spillPairReg hl
    0000098E DD 66 FD         [19] 2349 	ld	h, -3 (ix)
                                   2350 ;	spillPairReg hl
                                   2351 ;	spillPairReg hl
    00000991 23               [ 6] 2352 	inc	hl
    00000992 23               [ 6] 2353 	inc	hl
    00000993 23               [ 6] 2354 	inc	hl
    00000994 6E               [ 7] 2355 	ld	l, (hl)
                                   2356 ;	spillPairReg hl
    00000995 C5               [11] 2357 	push	bc
    00000996 FD E5            [15] 2358 	push	iy
    00000998 7D               [ 4] 2359 	ld	a, l
    00000999 CDr00r00         [17] 2360 	call	_CallSpriteFrame
    0000099C C1               [10] 2361 	pop	bc
    0000099D                       2362 00182$:
                                   2363 ;E:\Dropbox\FAUSTO\SVILUPPI\MSX\CODE\C\MSXgl\projects\soccerlgMSX2/soccerlg_s4_b3.c:1147: for (u8 i=0; i<14;i++) 
    0000099D 04               [ 4] 2364 	inc	b
    0000099E C3r1Cr09         [10] 2365 	jp	00181$
    000009A1                       2366 00124$:
                                   2367 ;E:\Dropbox\FAUSTO\SVILUPPI\MSX\CODE\C\MSXgl\projects\soccerlgMSX2/soccerlg_s4_b3.c:1154: if (ball_fg && OnScreen(SwSprite[14].y2)) 
    000009A1 79               [ 4] 2368 	ld	a, c
    000009A2 B7               [ 4] 2369 	or	a, a
    000009A3 28 31            [12] 2370 	jr	Z, 00242$
    000009A5 ED 5Br4Cr01      [20] 2371 	ld	de, (#_SwSprite + 332)
    000009A9 21 0F 02         [10] 2372 	ld	hl, #0x020f
    000009AC 19               [11] 2373 	add	hl, de
    000009AD 4D               [ 4] 2374 	ld	c, l
    000009AE 44               [ 4] 2375 	ld	b, h
    000009AF 2Ar04r00         [16] 2376 	ld	hl, (#(_Field + 4) + 0)
    000009B2 79               [ 4] 2377 	ld	a, c
    000009B3 95               [ 4] 2378 	sub	a, l
    000009B4 4F               [ 4] 2379 	ld	c, a
    000009B5 78               [ 4] 2380 	ld	a, b
    000009B6 9C               [ 4] 2381 	sbc	a, h
    000009B7 E6 01            [ 7] 2382 	and	a, #0x01
    000009B9 47               [ 4] 2383 	ld	b, a
    000009BA 79               [ 4] 2384 	ld	a, c
    000009BB D6 CF            [ 7] 2385 	sub	a, #0xcf
    000009BD 78               [ 4] 2386 	ld	a, b
    000009BE DE 00            [ 7] 2387 	sbc	a, #0x00
    000009C0 30 14            [12] 2388 	jr	NC, 00242$
                                   2389 ;E:\Dropbox\FAUSTO\SVILUPPI\MSX\CODE\C\MSXgl\projects\soccerlgMSX2/soccerlg_s4_b3.c:1155: CallSpriteFrame(SwSprite[14].x2,(SwSprite[14].y2&255)+512,SwSprite[14].frame);
    000009C2 ED 4Br51r01      [20] 2390 	ld	bc, (#(_SwSprite + 337) + 0)
    000009C6 16 00            [ 7] 2391 	ld	d, #0x00
    000009C8 21 00 02         [10] 2392 	ld	hl, #0x0200
    000009CB 19               [11] 2393 	add	hl, de
    000009CC EB               [ 4] 2394 	ex	de, hl
    000009CD 21r45r01         [10] 2395 	ld	hl, #_SwSprite + 325
    000009D0 6E               [ 7] 2396 	ld	l, (hl)
                                   2397 ;	spillPairReg hl
    000009D1 C5               [11] 2398 	push	bc
    000009D2 7D               [ 4] 2399 	ld	a, l
    000009D3 CDr00r00         [17] 2400 	call	_CallSpriteFrame
                                   2401 ;E:\Dropbox\FAUSTO\SVILUPPI\MSX\CODE\C\MSXgl\projects\soccerlgMSX2/soccerlg_s4_b3.c:1157: for (u8 i=15; i<NumSprite;i++) 
    000009D6                       2402 00242$:
    000009D6 0E 0F            [ 7] 2403 	ld	c, #0x0f
    000009D8                       2404 00184$:
    000009D8 79               [ 4] 2405 	ld	a, c
    000009D9 D6 18            [ 7] 2406 	sub	a, #0x18
    000009DB 30 70            [12] 2407 	jr	NC, 00130$
                                   2408 ;E:\Dropbox\FAUSTO\SVILUPPI\MSX\CODE\C\MSXgl\projects\soccerlgMSX2/soccerlg_s4_b3.c:1160: if OnScreen(SwSprite[i].y2) 
    000009DD 06 00            [ 7] 2409 	ld	b, #0x00
    000009DF 69               [ 4] 2410 	ld	l, c
    000009E0 60               [ 4] 2411 	ld	h, b
    000009E1 29               [11] 2412 	add	hl, hl
    000009E2 29               [11] 2413 	add	hl, hl
    000009E3 09               [11] 2414 	add	hl, bc
    000009E4 29               [11] 2415 	add	hl, hl
    000009E5 09               [11] 2416 	add	hl, bc
    000009E6 29               [11] 2417 	add	hl, hl
    000009E7 09               [11] 2418 	add	hl, bc
    000009E8 11r00r00         [10] 2419 	ld	de, #_SwSprite
    000009EB 19               [11] 2420 	add	hl, de
    000009EC DD 75 FC         [19] 2421 	ld	-4 (ix), l
    000009EF DD 74 FD         [19] 2422 	ld	-3 (ix), h
    000009F2 11 0A 00         [10] 2423 	ld	de, #10
    000009F5 19               [11] 2424 	add	hl, de
    000009F6 46               [ 7] 2425 	ld	b, (hl)
    000009F7 23               [ 6] 2426 	inc	hl
    000009F8 7E               [ 7] 2427 	ld	a, (hl)
    000009F9 DD 70 FE         [19] 2428 	ld	-2 (ix), b
    000009FC DD 77 FF         [19] 2429 	ld	-1 (ix), a
    000009FF DD 7E FE         [19] 2430 	ld	a, -2 (ix)
    00000A02 C6 0F            [ 7] 2431 	add	a, #0x0f
    00000A04 5F               [ 4] 2432 	ld	e, a
    00000A05 DD 7E FF         [19] 2433 	ld	a, -1 (ix)
    00000A08 CE 02            [ 7] 2434 	adc	a, #0x02
    00000A0A 57               [ 4] 2435 	ld	d, a
    00000A0B 2Ar04r00         [16] 2436 	ld	hl, (#(_Field + 4) + 0)
    00000A0E 7B               [ 4] 2437 	ld	a, e
    00000A0F 95               [ 4] 2438 	sub	a, l
    00000A10 5F               [ 4] 2439 	ld	e, a
    00000A11 7A               [ 4] 2440 	ld	a, d
    00000A12 9C               [ 4] 2441 	sbc	a, h
    00000A13 E6 01            [ 7] 2442 	and	a, #0x01
    00000A15 47               [ 4] 2443 	ld	b, a
    00000A16 7B               [ 4] 2444 	ld	a, e
    00000A17 D6 CF            [ 7] 2445 	sub	a, #0xcf
    00000A19 78               [ 4] 2446 	ld	a, b
    00000A1A DE 00            [ 7] 2447 	sbc	a, #0x00
    00000A1C 30 2B            [12] 2448 	jr	NC, 00185$
                                   2449 ;E:\Dropbox\FAUSTO\SVILUPPI\MSX\CODE\C\MSXgl\projects\soccerlgMSX2/soccerlg_s4_b3.c:1161: CallSpriteFrame(SwSprite[i].x2,(SwSprite[i].y2&255)+512,SwSprite[i].frame);
    00000A1E DD 5E FC         [19] 2450 	ld	e, -4 (ix)
    00000A21 DD 56 FD         [19] 2451 	ld	d, -3 (ix)
    00000A24 21 0F 00         [10] 2452 	ld	hl, #15
    00000A27 19               [11] 2453 	add	hl, de
    00000A28 5E               [ 7] 2454 	ld	e, (hl)
    00000A29 23               [ 6] 2455 	inc	hl
    00000A2A 56               [ 7] 2456 	ld	d, (hl)
    00000A2B DD 6E FE         [19] 2457 	ld	l, -2 (ix)
                                   2458 ;	spillPairReg hl
                                   2459 ;	spillPairReg hl
                                   2460 ;	spillPairReg hl
                                   2461 ;	spillPairReg hl
    00000A2E AF               [ 4] 2462 	xor	a, a
    00000A2F C6 02            [ 7] 2463 	add	a, #0x02
    00000A31 67               [ 4] 2464 	ld	h, a
                                   2465 ;	spillPairReg hl
                                   2466 ;	spillPairReg hl
    00000A32 E5               [11] 2467 	push	hl
    00000A33 FD E1            [14] 2468 	pop	iy
    00000A35 DD 6E FC         [19] 2469 	ld	l, -4 (ix)
                                   2470 ;	spillPairReg hl
                                   2471 ;	spillPairReg hl
    00000A38 DD 66 FD         [19] 2472 	ld	h, -3 (ix)
                                   2473 ;	spillPairReg hl
                                   2474 ;	spillPairReg hl
    00000A3B 23               [ 6] 2475 	inc	hl
    00000A3C 23               [ 6] 2476 	inc	hl
    00000A3D 23               [ 6] 2477 	inc	hl
    00000A3E 46               [ 7] 2478 	ld	b, (hl)
    00000A3F C5               [11] 2479 	push	bc
    00000A40 D5               [11] 2480 	push	de
    00000A41 FD E5            [15] 2481 	push	iy
    00000A43 D1               [10] 2482 	pop	de
    00000A44 78               [ 4] 2483 	ld	a, b
    00000A45 CDr00r00         [17] 2484 	call	_CallSpriteFrame
    00000A48 C1               [10] 2485 	pop	bc
    00000A49                       2486 00185$:
                                   2487 ;E:\Dropbox\FAUSTO\SVILUPPI\MSX\CODE\C\MSXgl\projects\soccerlgMSX2/soccerlg_s4_b3.c:1157: for (u8 i=15; i<NumSprite;i++) 
    00000A49 0C               [ 4] 2488 	inc	c
    00000A4A C3rD8r09         [10] 2489 	jp	00184$
    00000A4D                       2490 00130$:
                                   2491 ;E:\Dropbox\FAUSTO\SVILUPPI\MSX\CODE\C\MSXgl\projects\soccerlgMSX2/soccerlg_s4_b3.c:1165: CallFnc_VOID_U8U16U16(SEG_DRAW, RemoveScoreBoardLeft, ScoreBoardLeft.x0, ScoreBoardLeft.y0, 0);
    00000A4D ED 4Br06r00      [20] 2492 	ld	bc, (#(_ScoreBoardLeft + 6) + 0)
    00000A51 3Ar01r00         [13] 2493 	ld	a, (#(_ScoreBoardLeft + 1) + 0)
    00000A54 21 00 00         [10] 2494 	ld	hl, #0x0000
    00000A57 E5               [11] 2495 	push	hl
    00000A58 C5               [11] 2496 	push	bc
    00000A59 F5               [11] 2497 	push	af
    00000A5A 33               [ 6] 2498 	inc	sp
    00000A5B 11r00r00         [10] 2499 	ld	de, #_RemoveScoreBoardLeft
    00000A5E 3E 05            [ 7] 2500 	ld	a, #0x05
    00000A60 CDr00r00         [17] 2501 	call	_CallFnc_VOID_U8U16U16
                                   2502 ;E:\Dropbox\FAUSTO\SVILUPPI\MSX\CODE\C\MSXgl\projects\soccerlgMSX2/soccerlg_s4_b3.c:1166: CallFnc_VOID_U8U16U16(SEG_DRAW, PrintScoreBoardLeft, ScoreBoardLeft.x2, ScoreBoardLeft.y2, 512);
    00000A63 ED 4Br0Ar00      [20] 2503 	ld	bc, (#(_ScoreBoardLeft + 10) + 0)
    00000A67 3Ar03r00         [13] 2504 	ld	a, (#(_ScoreBoardLeft + 3) + 0)
    00000A6A 21 00 02         [10] 2505 	ld	hl, #0x0200
    00000A6D E5               [11] 2506 	push	hl
    00000A6E C5               [11] 2507 	push	bc
    00000A6F F5               [11] 2508 	push	af
    00000A70 33               [ 6] 2509 	inc	sp
    00000A71 11r00r00         [10] 2510 	ld	de, #_PrintScoreBoardLeft
    00000A74 3E 05            [ 7] 2511 	ld	a, #0x05
    00000A76 CDr00r00         [17] 2512 	call	_CallFnc_VOID_U8U16U16
                                   2513 ;E:\Dropbox\FAUSTO\SVILUPPI\MSX\CODE\C\MSXgl\projects\soccerlgMSX2/soccerlg_s4_b3.c:1167: CallFnc_VOID_U8U16U16(SEG_DRAW, RemoveScoreBoardRight, ScoreBoardRight.x0, ScoreBoardRight.y0, 0);
    00000A79 ED 4Br06r00      [20] 2514 	ld	bc, (#(_ScoreBoardRight + 6) + 0)
    00000A7D 3Ar01r00         [13] 2515 	ld	a, (#(_ScoreBoardRight + 1) + 0)
    00000A80 21 00 00         [10] 2516 	ld	hl, #0x0000
    00000A83 E5               [11] 2517 	push	hl
    00000A84 C5               [11] 2518 	push	bc
    00000A85 F5               [11] 2519 	push	af
    00000A86 33               [ 6] 2520 	inc	sp
    00000A87 11r00r00         [10] 2521 	ld	de, #_RemoveScoreBoardRight
    00000A8A 3E 05            [ 7] 2522 	ld	a, #0x05
    00000A8C CDr00r00         [17] 2523 	call	_CallFnc_VOID_U8U16U16
                                   2524 ;E:\Dropbox\FAUSTO\SVILUPPI\MSX\CODE\C\MSXgl\projects\soccerlgMSX2/soccerlg_s4_b3.c:1168: CallFnc_VOID_U8U16U16(SEG_DRAW, PrintScoreBoardRight, ScoreBoardRight.x2, ScoreBoardRight.y2, 512);
    00000A8F ED 4Br0Ar00      [20] 2525 	ld	bc, (#(_ScoreBoardRight + 10) + 0)
    00000A93 3Ar03r00         [13] 2526 	ld	a, (#(_ScoreBoardRight + 3) + 0)
    00000A96 21 00 02         [10] 2527 	ld	hl, #0x0200
    00000A99 E5               [11] 2528 	push	hl
    00000A9A C5               [11] 2529 	push	bc
    00000A9B F5               [11] 2530 	push	af
    00000A9C 33               [ 6] 2531 	inc	sp
    00000A9D 11r00r00         [10] 2532 	ld	de, #_PrintScoreBoardRight
    00000AA0 3E 05            [ 7] 2533 	ld	a, #0x05
    00000AA2 CDr00r00         [17] 2534 	call	_CallFnc_VOID_U8U16U16
                                   2535 ;E:\Dropbox\FAUSTO\SVILUPPI\MSX\CODE\C\MSXgl\projects\soccerlgMSX2/soccerlg_s4_b3.c:1171: CallFnc_VOID_3PTR_U16(SEG_GAMESTATE, UpdateGameState, &game_state, &wait_secs, &start_sec, target_ly);
    00000AA5 21 9C 00         [10] 2536 	ld	hl, #0x009c
    00000AA8 E5               [11] 2537 	push	hl
    00000AA9 21 04 00         [10] 2538 	ld	hl, #4
    00000AAC 39               [11] 2539 	add	hl, sp
    00000AAD E5               [11] 2540 	push	hl
    00000AAE 21 05 00         [10] 2541 	ld	hl, #5
    00000AB1 39               [11] 2542 	add	hl, sp
    00000AB2 E5               [11] 2543 	push	hl
    00000AB3 21 06 00         [10] 2544 	ld	hl, #6
    00000AB6 39               [11] 2545 	add	hl, sp
    00000AB7 E5               [11] 2546 	push	hl
    00000AB8 11r00r00         [10] 2547 	ld	de, #_UpdateGameState
    00000ABB 3E 09            [ 7] 2548 	ld	a, #0x09
    00000ABD CDr00r00         [17] 2549 	call	_CallFnc_VOID_3PTR_U16
                                   2550 ;E:\Dropbox\FAUSTO\SVILUPPI\MSX\CODE\C\MSXgl\projects\soccerlgMSX2/soccerlg_s4_b3.c:1173: for (u8 i=0; i<NumSprite;i++) 
    00000AC0 0E 00            [ 7] 2551 	ld	c, #0x00
    00000AC2                       2552 00187$:
    00000AC2 79               [ 4] 2553 	ld	a, c
    00000AC3 D6 18            [ 7] 2554 	sub	a, #0x18
    00000AC5 30 32            [12] 2555 	jr	NC, 00131$
                                   2556 ;E:\Dropbox\FAUSTO\SVILUPPI\MSX\CODE\C\MSXgl\projects\soccerlgMSX2/soccerlg_s4_b3.c:1175: SwSprite[i].x0 = SwSprite[i].lx;
    00000AC7 06 00            [ 7] 2557 	ld	b, #0x00
    00000AC9 69               [ 4] 2558 	ld	l, c
    00000ACA 60               [ 4] 2559 	ld	h, b
    00000ACB 29               [11] 2560 	add	hl, hl
    00000ACC 29               [11] 2561 	add	hl, hl
    00000ACD 09               [11] 2562 	add	hl, bc
    00000ACE 29               [11] 2563 	add	hl, hl
    00000ACF 09               [11] 2564 	add	hl, bc
    00000AD0 29               [11] 2565 	add	hl, hl
    00000AD1 09               [11] 2566 	add	hl, bc
    00000AD2 11r00r00         [10] 2567 	ld	de, #_SwSprite
    00000AD5 19               [11] 2568 	add	hl, de
                                   2569 ;	spillPairReg hl
                                   2570 ;	spillPairReg hl
    00000AD6 5D               [ 4] 2571 	ld	e, l
    00000AD7 54               [ 4] 2572 	ld	d, h
                                   2573 ;	spillPairReg hl
                                   2574 ;	spillPairReg hl
    00000AD8 23               [ 6] 2575 	inc	hl
    00000AD9 1A               [ 7] 2576 	ld	a, (de)
    00000ADA 77               [ 7] 2577 	ld	(hl), a
                                   2578 ;E:\Dropbox\FAUSTO\SVILUPPI\MSX\CODE\C\MSXgl\projects\soccerlgMSX2/soccerlg_s4_b3.c:1176: SwSprite[i].y0 = SwSprite[i].ly;
    00000ADB 21 06 00         [10] 2579 	ld	hl, #0x0006
    00000ADE 19               [11] 2580 	add	hl, de
    00000ADF DD 75 FE         [19] 2581 	ld	-2 (ix), l
    00000AE2 DD 74 FF         [19] 2582 	ld	-1 (ix), h
    00000AE5 21 04 00         [10] 2583 	ld	hl, #4
    00000AE8 19               [11] 2584 	add	hl, de
    00000AE9 46               [ 7] 2585 	ld	b, (hl)
    00000AEA 23               [ 6] 2586 	inc	hl
    00000AEB 5E               [ 7] 2587 	ld	e, (hl)
    00000AEC DD 6E FE         [19] 2588 	ld	l, -2 (ix)
    00000AEF DD 66 FF         [19] 2589 	ld	h, -1 (ix)
    00000AF2 70               [ 7] 2590 	ld	(hl), b
    00000AF3 23               [ 6] 2591 	inc	hl
    00000AF4 73               [ 7] 2592 	ld	(hl), e
                                   2593 ;E:\Dropbox\FAUSTO\SVILUPPI\MSX\CODE\C\MSXgl\projects\soccerlgMSX2/soccerlg_s4_b3.c:1173: for (u8 i=0; i<NumSprite;i++) 
    00000AF5 0C               [ 4] 2594 	inc	c
    00000AF6 C3rC2r0A         [10] 2595 	jp	00187$
    00000AF9                       2596 00131$:
                                   2597 ;E:\Dropbox\FAUSTO\SVILUPPI\MSX\CODE\C\MSXgl\projects\soccerlgMSX2/soccerlg_s4_b3.c:1179: ScoreBoardLeft.y0 = Field.ly;
    00000AF9 ED 4Br04r00      [20] 2598 	ld	bc, (#(_Field + 4) + 0)
    00000AFD ED 43r06r00      [20] 2599 	ld	((_ScoreBoardLeft + 6)), bc
                                   2600 ;E:\Dropbox\FAUSTO\SVILUPPI\MSX\CODE\C\MSXgl\projects\soccerlgMSX2/soccerlg_s4_b3.c:1180: ScoreBoardRight.y0 = Field.ly;
    00000B01 ED 4Br04r00      [20] 2601 	ld	bc, (#(_Field + 4) + 0)
    00000B05 ED 43r06r00      [20] 2602 	ld	((_ScoreBoardRight + 6)), bc
                                   2603 ;E:\Dropbox\FAUSTO\SVILUPPI\MSX\CODE\C\MSXgl\projects\soccerlgMSX2/soccerlg_s4_b3.c:1184: VDP_SetPage(2);		
    00000B09 3E 02            [ 7] 2604 	ld	a, #0x02
    00000B0B CDr00r00         [17] 2605 	call	_VDP_SetPage
                                   2606 ;E:\Dropbox\FAUSTO\SVILUPPI\MSX\CODE\C\MSXgl\projects\soccerlgMSX2/soccerlg_s4_b3.c:1185: VDP_SetVerticalOffset(Field.ly & 255);
    00000B0E 21r04r00         [10] 2607 	ld	hl, #(_Field + 4)
    00000B11 6E               [ 7] 2608 	ld	l, (hl)
                                   2609 ;	spillPairReg hl
                                   2610 ;E:/Dropbox/FAUSTO/SVILUPPI/MSX/CODE/C/MSXgl/engine/src/vdp.h:777: inline void VDP_SetVerticalOffset(u8 offset) { VDP_RegWrite(23, offset); }
    00000B12 3E 17            [ 7] 2611 	ld	a, #0x17
    00000B14 CDr00r00         [17] 2612 	call	_VDP_RegWrite
                                   2613 ;E:\Dropbox\FAUSTO\SVILUPPI\MSX\CODE\C\MSXgl\projects\soccerlgMSX2/soccerlg_s4_b3.c:1186: AddLines(&Field);
    00000B17 21r00r00         [10] 2614 	ld	hl, #_Field
    00000B1A CDr00r00         [17] 2615 	call	_AddLines
                                   2616 ;E:\Dropbox\FAUSTO\SVILUPPI\MSX\CODE\C\MSXgl\projects\soccerlgMSX2/soccerlg_s4_b3.c:1188: ball_fg = CallFnc_BOOL(SEG_DRAW, IsBallForeground);
    00000B1D 11r00r00         [10] 2617 	ld	de, #_IsBallForeground
    00000B20 3E 05            [ 7] 2618 	ld	a, #0x05
    00000B22 CDr00r00         [17] 2619 	call	_CallFnc_BOOL
    00000B25 4F               [ 4] 2620 	ld	c, a
                                   2621 ;E:\Dropbox\FAUSTO\SVILUPPI\MSX\CODE\C\MSXgl\projects\soccerlgMSX2/soccerlg_s4_b3.c:1190: for (u8 i=0; i<NumSprite;i++) 
    00000B26 06 00            [ 7] 2622 	ld	b, #0x00
    00000B28                       2623 00190$:
    00000B28 78               [ 4] 2624 	ld	a, b
    00000B29 D6 18            [ 7] 2625 	sub	a, #0x18
    00000B2B 30 35            [12] 2626 	jr	NC, 00132$
                                   2627 ;E:\Dropbox\FAUSTO\SVILUPPI\MSX\CODE\C\MSXgl\projects\soccerlgMSX2/soccerlg_s4_b3.c:1193: CallFnc_VOID_U8U16U16(SEG_DRAW, RemoveSwSprite, SwSprite[i].x1, SwSprite[i].y1, 256);
    00000B2D 58               [ 4] 2628 	ld	e, b
    00000B2E 16 00            [ 7] 2629 	ld	d, #0x00
    00000B30 6B               [ 4] 2630 	ld	l, e
    00000B31 62               [ 4] 2631 	ld	h, d
    00000B32 29               [11] 2632 	add	hl, hl
    00000B33 29               [11] 2633 	add	hl, hl
    00000B34 19               [11] 2634 	add	hl, de
    00000B35 29               [11] 2635 	add	hl, hl
    00000B36 19               [11] 2636 	add	hl, de
    00000B37 29               [11] 2637 	add	hl, hl
    00000B38 19               [11] 2638 	add	hl, de
    00000B39 EB               [ 4] 2639 	ex	de, hl
    00000B3A FD 21r00r00      [14] 2640 	ld	iy, #_SwSprite
    00000B3E FD 19            [15] 2641 	add	iy, de
    00000B40 FD E5            [15] 2642 	push	iy
    00000B42 D1               [10] 2643 	pop	de
    00000B43 21 08 00         [10] 2644 	ld	hl, #8
    00000B46 19               [11] 2645 	add	hl, de
    00000B47 5E               [ 7] 2646 	ld	e, (hl)
    00000B48 23               [ 6] 2647 	inc	hl
    00000B49 56               [ 7] 2648 	ld	d, (hl)
    00000B4A FD 7E 02         [19] 2649 	ld	a, 2 (iy)
    00000B4D C5               [11] 2650 	push	bc
    00000B4E 21 00 01         [10] 2651 	ld	hl, #0x0100
    00000B51 E5               [11] 2652 	push	hl
    00000B52 D5               [11] 2653 	push	de
    00000B53 F5               [11] 2654 	push	af
    00000B54 33               [ 6] 2655 	inc	sp
    00000B55 11r00r00         [10] 2656 	ld	de, #_RemoveSwSprite
    00000B58 3E 05            [ 7] 2657 	ld	a, #0x05
    00000B5A CDr00r00         [17] 2658 	call	_CallFnc_VOID_U8U16U16
    00000B5D C1               [10] 2659 	pop	bc
                                   2660 ;E:\Dropbox\FAUSTO\SVILUPPI\MSX\CODE\C\MSXgl\projects\soccerlgMSX2/soccerlg_s4_b3.c:1190: for (u8 i=0; i<NumSprite;i++) 
    00000B5E 04               [ 4] 2661 	inc	b
    00000B5F C3r28r0B         [10] 2662 	jp	00190$
    00000B62                       2663 00132$:
                                   2664 ;E:\Dropbox\FAUSTO\SVILUPPI\MSX\CODE\C\MSXgl\projects\soccerlgMSX2/soccerlg_s4_b3.c:1196: if (!ball_fg && OnScreen(SwSprite[14].y0)) 
    00000B62 79               [ 4] 2665 	ld	a, c
    00000B63 B7               [ 4] 2666 	or	a, a
    00000B64 20 3C            [12] 2667 	jr	NZ, 00251$
    00000B66 ED 5Br48r01      [20] 2668 	ld	de, (#_SwSprite + 328)
    00000B6A 21 0F 02         [10] 2669 	ld	hl, #0x020f
    00000B6D 19               [11] 2670 	add	hl, de
    00000B6E DD 75 FE         [19] 2671 	ld	-2 (ix), l
    00000B71 DD 74 FF         [19] 2672 	ld	-1 (ix), h
    00000B74 2Ar04r00         [16] 2673 	ld	hl, (#(_Field + 4) + 0)
    00000B77 DD 7E FE         [19] 2674 	ld	a, -2 (ix)
    00000B7A DD 46 FF         [19] 2675 	ld	b, -1 (ix)
    00000B7D 95               [ 4] 2676 	sub	a, l
    00000B7E 6F               [ 4] 2677 	ld	l, a
                                   2678 ;	spillPairReg hl
                                   2679 ;	spillPairReg hl
    00000B7F 78               [ 4] 2680 	ld	a, b
    00000B80 9C               [ 4] 2681 	sbc	a, h
                                   2682 ;	spillPairReg hl
                                   2683 ;	spillPairReg hl
    00000B81 E6 01            [ 7] 2684 	and	a, #0x01
    00000B83 47               [ 4] 2685 	ld	b, a
    00000B84 7D               [ 4] 2686 	ld	a, l
    00000B85 D6 CF            [ 7] 2687 	sub	a, #0xcf
    00000B87 78               [ 4] 2688 	ld	a, b
    00000B88 DE 00            [ 7] 2689 	sbc	a, #0x00
    00000B8A 30 16            [12] 2690 	jr	NC, 00251$
                                   2691 ;E:\Dropbox\FAUSTO\SVILUPPI\MSX\CODE\C\MSXgl\projects\soccerlgMSX2/soccerlg_s4_b3.c:1197: CallSpriteFrame(SwSprite[14].x0,(SwSprite[14].y0&255),SwSprite[14].frame);
    00000B8C 21r51r01         [10] 2692 	ld	hl, #(_SwSprite + 337)
    00000B8F 46               [ 7] 2693 	ld	b, (hl)
    00000B90 23               [ 6] 2694 	inc	hl
    00000B91 7E               [ 7] 2695 	ld	a, (hl)
    00000B92 16 00            [ 7] 2696 	ld	d, #0x00
    00000B94 21r43r01         [10] 2697 	ld	hl, #_SwSprite + 323
    00000B97 6E               [ 7] 2698 	ld	l, (hl)
                                   2699 ;	spillPairReg hl
    00000B98 C5               [11] 2700 	push	bc
    00000B99 E5               [11] 2701 	push	hl
    00000B9A 68               [ 4] 2702 	ld	l, b
                                   2703 ;	spillPairReg hl
                                   2704 ;	spillPairReg hl
    00000B9B 67               [ 4] 2705 	ld	h, a
                                   2706 ;	spillPairReg hl
                                   2707 ;	spillPairReg hl
    00000B9C E3               [19] 2708 	ex	(sp), hl
    00000B9D 7D               [ 4] 2709 	ld	a, l
    00000B9E CDr00r00         [17] 2710 	call	_CallSpriteFrame
    00000BA1 C1               [10] 2711 	pop	bc
                                   2712 ;E:\Dropbox\FAUSTO\SVILUPPI\MSX\CODE\C\MSXgl\projects\soccerlgMSX2/soccerlg_s4_b3.c:1199: for (u8 i=0; i<14;i++) 
    00000BA2                       2713 00251$:
    00000BA2 06 00            [ 7] 2714 	ld	b, #0x00
    00000BA4                       2715 00193$:
    00000BA4 78               [ 4] 2716 	ld	a, b
    00000BA5 D6 0E            [ 7] 2717 	sub	a, #0x0e
    00000BA7 30 78            [12] 2718 	jr	NC, 00138$
                                   2719 ;E:\Dropbox\FAUSTO\SVILUPPI\MSX\CODE\C\MSXgl\projects\soccerlgMSX2/soccerlg_s4_b3.c:1202: if OnScreen(SwSprite[i].y0) 
    00000BA9 58               [ 4] 2720 	ld	e, b
    00000BAA 16 00            [ 7] 2721 	ld	d, #0x00
    00000BAC 6B               [ 4] 2722 	ld	l, e
    00000BAD 62               [ 4] 2723 	ld	h, d
    00000BAE 29               [11] 2724 	add	hl, hl
    00000BAF 29               [11] 2725 	add	hl, hl
    00000BB0 19               [11] 2726 	add	hl, de
    00000BB1 29               [11] 2727 	add	hl, hl
    00000BB2 19               [11] 2728 	add	hl, de
    00000BB3 29               [11] 2729 	add	hl, hl
    00000BB4 19               [11] 2730 	add	hl, de
    00000BB5 11r00r00         [10] 2731 	ld	de, #_SwSprite
    00000BB8 19               [11] 2732 	add	hl, de
    00000BB9 DD 75 FC         [19] 2733 	ld	-4 (ix), l
    00000BBC DD 74 FD         [19] 2734 	ld	-3 (ix), h
    00000BBF DD 7E FC         [19] 2735 	ld	a, -4 (ix)
    00000BC2 C6 06            [ 7] 2736 	add	a, #0x06
    00000BC4 5F               [ 4] 2737 	ld	e, a
    00000BC5 DD 7E FD         [19] 2738 	ld	a, -3 (ix)
    00000BC8 CE 00            [ 7] 2739 	adc	a, #0x00
    00000BCA 57               [ 4] 2740 	ld	d, a
    00000BCB 6B               [ 4] 2741 	ld	l, e
    00000BCC 62               [ 4] 2742 	ld	h, d
    00000BCD 7E               [ 7] 2743 	ld	a, (hl)
    00000BCE 23               [ 6] 2744 	inc	hl
    00000BCF 66               [ 7] 2745 	ld	h, (hl)
                                   2746 ;	spillPairReg hl
    00000BD0 6F               [ 4] 2747 	ld	l, a
                                   2748 ;	spillPairReg hl
                                   2749 ;	spillPairReg hl
    00000BD1 FD 21 0F 02      [14] 2750 	ld	iy, #0x020f
    00000BD5 C5               [11] 2751 	push	bc
    00000BD6 4D               [ 4] 2752 	ld	c, l
    00000BD7 44               [ 4] 2753 	ld	b, h
    00000BD8 FD 09            [15] 2754 	add	iy, bc
    00000BDA C1               [10] 2755 	pop	bc
    00000BDB 21r04r00         [10] 2756 	ld	hl, #(_Field + 4)
    00000BDE 7E               [ 7] 2757 	ld	a, (hl)
    00000BDF DD 77 FE         [19] 2758 	ld	-2 (ix), a
    00000BE2 23               [ 6] 2759 	inc	hl
    00000BE3 7E               [ 7] 2760 	ld	a, (hl)
    00000BE4 DD 77 FF         [19] 2761 	ld	-1 (ix), a
    00000BE7 FD E5            [15] 2762 	push	iy
    00000BE9 E1               [10] 2763 	pop	hl
    00000BEA 7D               [ 4] 2764 	ld	a, l
    00000BEB DD 96 FE         [19] 2765 	sub	a, -2 (ix)
    00000BEE 6F               [ 4] 2766 	ld	l, a
                                   2767 ;	spillPairReg hl
                                   2768 ;	spillPairReg hl
    00000BEF 7C               [ 4] 2769 	ld	a, h
    00000BF0 DD 9E FF         [19] 2770 	sbc	a, -1 (ix)
    00000BF3 E6 01            [ 7] 2771 	and	a, #0x01
    00000BF5 67               [ 4] 2772 	ld	h, a
                                   2773 ;	spillPairReg hl
                                   2774 ;	spillPairReg hl
    00000BF6 7D               [ 4] 2775 	ld	a, l
    00000BF7 D6 CF            [ 7] 2776 	sub	a, #0xcf
    00000BF9 7C               [ 4] 2777 	ld	a, h
    00000BFA DE 00            [ 7] 2778 	sbc	a, #0x00
    00000BFC 30 1F            [12] 2779 	jr	NC, 00194$
                                   2780 ;E:\Dropbox\FAUSTO\SVILUPPI\MSX\CODE\C\MSXgl\projects\soccerlgMSX2/soccerlg_s4_b3.c:1203: CallSpriteFrame(SwSprite[i].x0,(SwSprite[i].y0&255),GetDrawFrame(i));	
    00000BFE C5               [11] 2781 	push	bc
    00000BFF D5               [11] 2782 	push	de
    00000C00 78               [ 4] 2783 	ld	a, b
    00000C01 CDr00r00         [17] 2784 	call	_GetDrawFrame
    00000C04 D5               [11] 2785 	push	de
    00000C05 FD E1            [14] 2786 	pop	iy
    00000C07 D1               [10] 2787 	pop	de
    00000C08 C1               [10] 2788 	pop	bc
    00000C09 EB               [ 4] 2789 	ex	de,hl
    00000C0A 5E               [ 7] 2790 	ld	e, (hl)
    00000C0B 16 00            [ 7] 2791 	ld	d, #0x00
    00000C0D DD 6E FC         [19] 2792 	ld	l, -4 (ix)
                                   2793 ;	spillPairReg hl
                                   2794 ;	spillPairReg hl
    00000C10 DD 66 FD         [19] 2795 	ld	h, -3 (ix)
                                   2796 ;	spillPairReg hl
                                   2797 ;	spillPairReg hl
    00000C13 23               [ 6] 2798 	inc	hl
    00000C14 6E               [ 7] 2799 	ld	l, (hl)
                                   2800 ;	spillPairReg hl
    00000C15 C5               [11] 2801 	push	bc
    00000C16 FD E5            [15] 2802 	push	iy
    00000C18 7D               [ 4] 2803 	ld	a, l
    00000C19 CDr00r00         [17] 2804 	call	_CallSpriteFrame
    00000C1C C1               [10] 2805 	pop	bc
    00000C1D                       2806 00194$:
                                   2807 ;E:\Dropbox\FAUSTO\SVILUPPI\MSX\CODE\C\MSXgl\projects\soccerlgMSX2/soccerlg_s4_b3.c:1199: for (u8 i=0; i<14;i++) 
    00000C1D 04               [ 4] 2808 	inc	b
    00000C1E C3rA4r0B         [10] 2809 	jp	00193$
    00000C21                       2810 00138$:
                                   2811 ;E:\Dropbox\FAUSTO\SVILUPPI\MSX\CODE\C\MSXgl\projects\soccerlgMSX2/soccerlg_s4_b3.c:1206: if (ball_fg && OnScreen(SwSprite[14].y0)) 
    00000C21 79               [ 4] 2812 	ld	a, c
    00000C22 B7               [ 4] 2813 	or	a, a
    00000C23 28 2C            [12] 2814 	jr	Z, 00256$
    00000C25 ED 5Br48r01      [20] 2815 	ld	de, (#_SwSprite + 328)
    00000C29 21 0F 02         [10] 2816 	ld	hl, #0x020f
    00000C2C 19               [11] 2817 	add	hl, de
    00000C2D 4D               [ 4] 2818 	ld	c, l
    00000C2E 44               [ 4] 2819 	ld	b, h
    00000C2F 2Ar04r00         [16] 2820 	ld	hl, (#(_Field + 4) + 0)
    00000C32 79               [ 4] 2821 	ld	a, c
    00000C33 95               [ 4] 2822 	sub	a, l
    00000C34 4F               [ 4] 2823 	ld	c, a
    00000C35 78               [ 4] 2824 	ld	a, b
    00000C36 9C               [ 4] 2825 	sbc	a, h
    00000C37 E6 01            [ 7] 2826 	and	a, #0x01
    00000C39 47               [ 4] 2827 	ld	b, a
    00000C3A 79               [ 4] 2828 	ld	a, c
    00000C3B D6 CF            [ 7] 2829 	sub	a, #0xcf
    00000C3D 78               [ 4] 2830 	ld	a, b
    00000C3E DE 00            [ 7] 2831 	sbc	a, #0x00
    00000C40 30 0F            [12] 2832 	jr	NC, 00256$
                                   2833 ;E:\Dropbox\FAUSTO\SVILUPPI\MSX\CODE\C\MSXgl\projects\soccerlgMSX2/soccerlg_s4_b3.c:1207: CallSpriteFrame(SwSprite[14].x0,(SwSprite[14].y0&255),SwSprite[14].frame);
    00000C42 ED 4Br51r01      [20] 2834 	ld	bc, (#(_SwSprite + 337) + 0)
    00000C46 16 00            [ 7] 2835 	ld	d, #0x00
    00000C48 21r43r01         [10] 2836 	ld	hl, #_SwSprite + 323
    00000C4B 6E               [ 7] 2837 	ld	l, (hl)
                                   2838 ;	spillPairReg hl
    00000C4C C5               [11] 2839 	push	bc
    00000C4D 7D               [ 4] 2840 	ld	a, l
    00000C4E CDr00r00         [17] 2841 	call	_CallSpriteFrame
                                   2842 ;E:\Dropbox\FAUSTO\SVILUPPI\MSX\CODE\C\MSXgl\projects\soccerlgMSX2/soccerlg_s4_b3.c:1209: for (u8 i=15; i<NumSprite;i++) 
    00000C51                       2843 00256$:
    00000C51 0E 0F            [ 7] 2844 	ld	c, #0x0f
    00000C53                       2845 00196$:
    00000C53 79               [ 4] 2846 	ld	a, c
    00000C54 D6 18            [ 7] 2847 	sub	a, #0x18
    00000C56 30 69            [12] 2848 	jr	NC, 00144$
                                   2849 ;E:\Dropbox\FAUSTO\SVILUPPI\MSX\CODE\C\MSXgl\projects\soccerlgMSX2/soccerlg_s4_b3.c:1212: if OnScreen(SwSprite[i].y0) 
    00000C58 06 00            [ 7] 2850 	ld	b, #0x00
    00000C5A 69               [ 4] 2851 	ld	l, c
    00000C5B 60               [ 4] 2852 	ld	h, b
    00000C5C 29               [11] 2853 	add	hl, hl
    00000C5D 29               [11] 2854 	add	hl, hl
    00000C5E 09               [11] 2855 	add	hl, bc
    00000C5F 29               [11] 2856 	add	hl, hl
    00000C60 09               [11] 2857 	add	hl, bc
    00000C61 29               [11] 2858 	add	hl, hl
    00000C62 09               [11] 2859 	add	hl, bc
    00000C63 11r00r00         [10] 2860 	ld	de, #_SwSprite
    00000C66 19               [11] 2861 	add	hl, de
    00000C67 DD 75 FC         [19] 2862 	ld	-4 (ix), l
    00000C6A DD 74 FD         [19] 2863 	ld	-3 (ix), h
    00000C6D 11 06 00         [10] 2864 	ld	de, #6
    00000C70 19               [11] 2865 	add	hl, de
    00000C71 46               [ 7] 2866 	ld	b, (hl)
    00000C72 23               [ 6] 2867 	inc	hl
    00000C73 7E               [ 7] 2868 	ld	a, (hl)
    00000C74 DD 70 FE         [19] 2869 	ld	-2 (ix), b
    00000C77 DD 77 FF         [19] 2870 	ld	-1 (ix), a
    00000C7A DD 7E FE         [19] 2871 	ld	a, -2 (ix)
    00000C7D C6 0F            [ 7] 2872 	add	a, #0x0f
    00000C7F 5F               [ 4] 2873 	ld	e, a
    00000C80 DD 7E FF         [19] 2874 	ld	a, -1 (ix)
    00000C83 CE 02            [ 7] 2875 	adc	a, #0x02
    00000C85 57               [ 4] 2876 	ld	d, a
    00000C86 2Ar04r00         [16] 2877 	ld	hl, (#(_Field + 4) + 0)
    00000C89 7B               [ 4] 2878 	ld	a, e
    00000C8A 95               [ 4] 2879 	sub	a, l
    00000C8B 5F               [ 4] 2880 	ld	e, a
    00000C8C 7A               [ 4] 2881 	ld	a, d
    00000C8D 9C               [ 4] 2882 	sbc	a, h
    00000C8E E6 01            [ 7] 2883 	and	a, #0x01
    00000C90 47               [ 4] 2884 	ld	b, a
    00000C91 7B               [ 4] 2885 	ld	a, e
    00000C92 D6 CF            [ 7] 2886 	sub	a, #0xcf
    00000C94 78               [ 4] 2887 	ld	a, b
    00000C95 DE 00            [ 7] 2888 	sbc	a, #0x00
    00000C97 30 24            [12] 2889 	jr	NC, 00197$
                                   2890 ;E:\Dropbox\FAUSTO\SVILUPPI\MSX\CODE\C\MSXgl\projects\soccerlgMSX2/soccerlg_s4_b3.c:1213: CallSpriteFrame(SwSprite[i].x0,(SwSprite[i].y0&255),SwSprite[i].frame);	
    00000C99 DD 5E FC         [19] 2891 	ld	e, -4 (ix)
    00000C9C DD 56 FD         [19] 2892 	ld	d, -3 (ix)
    00000C9F 21 0F 00         [10] 2893 	ld	hl, #15
    00000CA2 19               [11] 2894 	add	hl, de
    00000CA3 46               [ 7] 2895 	ld	b, (hl)
    00000CA4 23               [ 6] 2896 	inc	hl
    00000CA5 7E               [ 7] 2897 	ld	a, (hl)
    00000CA6 DD 5E FE         [19] 2898 	ld	e, -2 (ix)
    00000CA9 16 00            [ 7] 2899 	ld	d, #0x00
    00000CAB DD 6E FC         [19] 2900 	ld	l, -4 (ix)
                                   2901 ;	spillPairReg hl
                                   2902 ;	spillPairReg hl
    00000CAE DD 66 FD         [19] 2903 	ld	h, -3 (ix)
                                   2904 ;	spillPairReg hl
                                   2905 ;	spillPairReg hl
    00000CB1 23               [ 6] 2906 	inc	hl
    00000CB2 6E               [ 7] 2907 	ld	l, (hl)
                                   2908 ;	spillPairReg hl
    00000CB3 C5               [11] 2909 	push	bc
    00000CB4 E5               [11] 2910 	push	hl
    00000CB5 68               [ 4] 2911 	ld	l, b
                                   2912 ;	spillPairReg hl
                                   2913 ;	spillPairReg hl
    00000CB6 67               [ 4] 2914 	ld	h, a
                                   2915 ;	spillPairReg hl
                                   2916 ;	spillPairReg hl
    00000CB7 E3               [19] 2917 	ex	(sp), hl
    00000CB8 7D               [ 4] 2918 	ld	a, l
    00000CB9 CDr00r00         [17] 2919 	call	_CallSpriteFrame
    00000CBC C1               [10] 2920 	pop	bc
    00000CBD                       2921 00197$:
                                   2922 ;E:\Dropbox\FAUSTO\SVILUPPI\MSX\CODE\C\MSXgl\projects\soccerlgMSX2/soccerlg_s4_b3.c:1209: for (u8 i=15; i<NumSprite;i++) 
    00000CBD 0C               [ 4] 2923 	inc	c
    00000CBE C3r53r0C         [10] 2924 	jp	00196$
    00000CC1                       2925 00144$:
                                   2926 ;E:\Dropbox\FAUSTO\SVILUPPI\MSX\CODE\C\MSXgl\projects\soccerlgMSX2/soccerlg_s4_b3.c:1217: CallFnc_VOID_U8U16U16(SEG_DRAW, RemoveScoreBoardLeft, ScoreBoardLeft.x1, ScoreBoardLeft.y1, 256);
    00000CC1 ED 4Br08r00      [20] 2927 	ld	bc, (#(_ScoreBoardLeft + 8) + 0)
    00000CC5 3Ar02r00         [13] 2928 	ld	a, (#(_ScoreBoardLeft + 2) + 0)
    00000CC8 21 00 01         [10] 2929 	ld	hl, #0x0100
    00000CCB E5               [11] 2930 	push	hl
    00000CCC C5               [11] 2931 	push	bc
    00000CCD F5               [11] 2932 	push	af
    00000CCE 33               [ 6] 2933 	inc	sp
    00000CCF 11r00r00         [10] 2934 	ld	de, #_RemoveScoreBoardLeft
    00000CD2 3E 05            [ 7] 2935 	ld	a, #0x05
    00000CD4 CDr00r00         [17] 2936 	call	_CallFnc_VOID_U8U16U16
                                   2937 ;E:\Dropbox\FAUSTO\SVILUPPI\MSX\CODE\C\MSXgl\projects\soccerlgMSX2/soccerlg_s4_b3.c:1218: CallFnc_VOID_U8U16U16(SEG_DRAW, PrintScoreBoardLeft, ScoreBoardLeft.x0, ScoreBoardLeft.y0, 0);
    00000CD7 ED 4Br06r00      [20] 2938 	ld	bc, (#(_ScoreBoardLeft + 6) + 0)
    00000CDB 3Ar01r00         [13] 2939 	ld	a, (#(_ScoreBoardLeft + 1) + 0)
    00000CDE 21 00 00         [10] 2940 	ld	hl, #0x0000
    00000CE1 E5               [11] 2941 	push	hl
    00000CE2 C5               [11] 2942 	push	bc
    00000CE3 F5               [11] 2943 	push	af
    00000CE4 33               [ 6] 2944 	inc	sp
    00000CE5 11r00r00         [10] 2945 	ld	de, #_PrintScoreBoardLeft
    00000CE8 3E 05            [ 7] 2946 	ld	a, #0x05
    00000CEA CDr00r00         [17] 2947 	call	_CallFnc_VOID_U8U16U16
                                   2948 ;E:\Dropbox\FAUSTO\SVILUPPI\MSX\CODE\C\MSXgl\projects\soccerlgMSX2/soccerlg_s4_b3.c:1219: CallFnc_VOID_U8U16U16(SEG_DRAW, RemoveScoreBoardRight, ScoreBoardRight.x1, ScoreBoardRight.y1, 256);
    00000CED ED 4Br08r00      [20] 2949 	ld	bc, (#(_ScoreBoardRight + 8) + 0)
    00000CF1 3Ar02r00         [13] 2950 	ld	a, (#(_ScoreBoardRight + 2) + 0)
    00000CF4 21 00 01         [10] 2951 	ld	hl, #0x0100
    00000CF7 E5               [11] 2952 	push	hl
    00000CF8 C5               [11] 2953 	push	bc
    00000CF9 F5               [11] 2954 	push	af
    00000CFA 33               [ 6] 2955 	inc	sp
    00000CFB 11r00r00         [10] 2956 	ld	de, #_RemoveScoreBoardRight
    00000CFE 3E 05            [ 7] 2957 	ld	a, #0x05
    00000D00 CDr00r00         [17] 2958 	call	_CallFnc_VOID_U8U16U16
                                   2959 ;E:\Dropbox\FAUSTO\SVILUPPI\MSX\CODE\C\MSXgl\projects\soccerlgMSX2/soccerlg_s4_b3.c:1220: CallFnc_VOID_U8U16U16(SEG_DRAW, PrintScoreBoardRight, ScoreBoardRight.x0, ScoreBoardRight.y0, 0);
    00000D03 ED 4Br06r00      [20] 2960 	ld	bc, (#(_ScoreBoardRight + 6) + 0)
    00000D07 3Ar01r00         [13] 2961 	ld	a, (#(_ScoreBoardRight + 1) + 0)
    00000D0A 21 00 00         [10] 2962 	ld	hl, #0x0000
    00000D0D E5               [11] 2963 	push	hl
    00000D0E C5               [11] 2964 	push	bc
    00000D0F F5               [11] 2965 	push	af
    00000D10 33               [ 6] 2966 	inc	sp
    00000D11 11r00r00         [10] 2967 	ld	de, #_PrintScoreBoardRight
    00000D14 3E 05            [ 7] 2968 	ld	a, #0x05
    00000D16 CDr00r00         [17] 2969 	call	_CallFnc_VOID_U8U16U16
                                   2970 ;E:\Dropbox\FAUSTO\SVILUPPI\MSX\CODE\C\MSXgl\projects\soccerlgMSX2/soccerlg_s4_b3.c:1223: CallFnc_VOID_3PTR_U16(SEG_GAMESTATE, UpdateGameState, &game_state, &wait_secs, &start_sec, target_ly);
    00000D19 21 9C 00         [10] 2971 	ld	hl, #0x009c
    00000D1C E5               [11] 2972 	push	hl
    00000D1D 21 04 00         [10] 2973 	ld	hl, #4
    00000D20 39               [11] 2974 	add	hl, sp
    00000D21 E5               [11] 2975 	push	hl
    00000D22 21 05 00         [10] 2976 	ld	hl, #5
    00000D25 39               [11] 2977 	add	hl, sp
    00000D26 E5               [11] 2978 	push	hl
    00000D27 21 06 00         [10] 2979 	ld	hl, #6
    00000D2A 39               [11] 2980 	add	hl, sp
    00000D2B E5               [11] 2981 	push	hl
    00000D2C 11r00r00         [10] 2982 	ld	de, #_UpdateGameState
    00000D2F 3E 09            [ 7] 2983 	ld	a, #0x09
    00000D31 CDr00r00         [17] 2984 	call	_CallFnc_VOID_3PTR_U16
                                   2985 ;E:\Dropbox\FAUSTO\SVILUPPI\MSX\CODE\C\MSXgl\projects\soccerlgMSX2/soccerlg_s4_b3.c:1225: for (u8 i=0; i<NumSprite;i++) 
    00000D34 0E 00            [ 7] 2986 	ld	c, #0x00
    00000D36                       2987 00199$:
    00000D36 79               [ 4] 2988 	ld	a, c
    00000D37 D6 18            [ 7] 2989 	sub	a, #0x18
    00000D39 30 33            [12] 2990 	jr	NC, 00145$
                                   2991 ;E:\Dropbox\FAUSTO\SVILUPPI\MSX\CODE\C\MSXgl\projects\soccerlgMSX2/soccerlg_s4_b3.c:1227: SwSprite[i].x1 = SwSprite[i].lx;
    00000D3B 06 00            [ 7] 2992 	ld	b, #0x00
    00000D3D 69               [ 4] 2993 	ld	l, c
    00000D3E 60               [ 4] 2994 	ld	h, b
    00000D3F 29               [11] 2995 	add	hl, hl
    00000D40 29               [11] 2996 	add	hl, hl
    00000D41 09               [11] 2997 	add	hl, bc
    00000D42 29               [11] 2998 	add	hl, hl
    00000D43 09               [11] 2999 	add	hl, bc
    00000D44 29               [11] 3000 	add	hl, hl
    00000D45 09               [11] 3001 	add	hl, bc
    00000D46 11r00r00         [10] 3002 	ld	de, #_SwSprite
    00000D49 19               [11] 3003 	add	hl, de
                                   3004 ;	spillPairReg hl
                                   3005 ;	spillPairReg hl
    00000D4A 5D               [ 4] 3006 	ld	e, l
    00000D4B 54               [ 4] 3007 	ld	d, h
                                   3008 ;	spillPairReg hl
                                   3009 ;	spillPairReg hl
    00000D4C 23               [ 6] 3010 	inc	hl
    00000D4D 23               [ 6] 3011 	inc	hl
    00000D4E 1A               [ 7] 3012 	ld	a, (de)
    00000D4F 77               [ 7] 3013 	ld	(hl), a
                                   3014 ;E:\Dropbox\FAUSTO\SVILUPPI\MSX\CODE\C\MSXgl\projects\soccerlgMSX2/soccerlg_s4_b3.c:1228: SwSprite[i].y1 = SwSprite[i].ly;
    00000D50 21 08 00         [10] 3015 	ld	hl, #0x0008
    00000D53 19               [11] 3016 	add	hl, de
    00000D54 DD 75 FE         [19] 3017 	ld	-2 (ix), l
    00000D57 DD 74 FF         [19] 3018 	ld	-1 (ix), h
    00000D5A 21 04 00         [10] 3019 	ld	hl, #4
    00000D5D 19               [11] 3020 	add	hl, de
    00000D5E 5E               [ 7] 3021 	ld	e, (hl)
    00000D5F 23               [ 6] 3022 	inc	hl
    00000D60 46               [ 7] 3023 	ld	b, (hl)
    00000D61 DD 6E FE         [19] 3024 	ld	l, -2 (ix)
    00000D64 DD 66 FF         [19] 3025 	ld	h, -1 (ix)
    00000D67 73               [ 7] 3026 	ld	(hl), e
    00000D68 23               [ 6] 3027 	inc	hl
    00000D69 70               [ 7] 3028 	ld	(hl), b
                                   3029 ;E:\Dropbox\FAUSTO\SVILUPPI\MSX\CODE\C\MSXgl\projects\soccerlgMSX2/soccerlg_s4_b3.c:1225: for (u8 i=0; i<NumSprite;i++) 
    00000D6A 0C               [ 4] 3030 	inc	c
    00000D6B C3r36r0D         [10] 3031 	jp	00199$
    00000D6E                       3032 00145$:
                                   3033 ;E:\Dropbox\FAUSTO\SVILUPPI\MSX\CODE\C\MSXgl\projects\soccerlgMSX2/soccerlg_s4_b3.c:1231: ScoreBoardLeft.y1 = Field.ly;
    00000D6E ED 4Br04r00      [20] 3034 	ld	bc, (#(_Field + 4) + 0)
    00000D72 ED 43r08r00      [20] 3035 	ld	((_ScoreBoardLeft + 8)), bc
                                   3036 ;E:\Dropbox\FAUSTO\SVILUPPI\MSX\CODE\C\MSXgl\projects\soccerlgMSX2/soccerlg_s4_b3.c:1232: ScoreBoardRight.y1 = Field.ly;
    00000D76 ED 4Br04r00      [20] 3037 	ld	bc, (#(_Field + 4) + 0)
    00000D7A ED 43r08r00      [20] 3038 	ld	((_ScoreBoardRight + 8)), bc
                                   3039 ;E:/Dropbox/FAUSTO/SVILUPPI/MSX/CODE/C/MSXgl/engine/src/print.h:223: g_PrintData.CursorX = x;
    00000D7E 21r05r00         [10] 3040 	ld	hl, #(_g_PrintData + 5)
    00000D81 36 01            [10] 3041 	ld	(hl), #0x01
                                   3042 ;E:/Dropbox/FAUSTO/SVILUPPI/MSX/CODE/C/MSXgl/engine/src/print.h:224: g_PrintData.CursorY = y;
    00000D83 21 18 03         [10] 3043 	ld	hl, #0x0318
    00000D86 22r06r00         [16] 3044 	ld	((_g_PrintData + 6)), hl
                                   3045 ;E:\Dropbox\FAUSTO\SVILUPPI\MSX\CODE\C\MSXgl\projects\soccerlgMSX2/soccerlg_s4_b3.c:1238: if(LastSecs!=Secs){
    00000D89 3Ar00r00         [13] 3046 	ld	a, (_LastSecs+0)
    00000D8C 21r00r00         [10] 3047 	ld	hl, #_Secs
    00000D8F 96               [ 7] 3048 	sub	a, (hl)
    00000D90 CArECr05         [10] 3049 	jp	Z,00201$
                                   3050 ;E:\Dropbox\FAUSTO\SVILUPPI\MSX\CODE\C\MSXgl\projects\soccerlgMSX2/soccerlg_s4_b3.c:1239: LastSecs=Secs;
    00000D93 3Ar00r00         [13] 3051 	ld	a, (_Secs+0)
    00000D96 32r00r00         [13] 3052 	ld	(_LastSecs+0), a
                                   3053 ;E:/Dropbox/FAUSTO/SVILUPPI/MSX/CODE/C/MSXgl/engine/src/print.h:223: g_PrintData.CursorX = x;
    00000D99 21r05r00         [10] 3054 	ld	hl, #(_g_PrintData + 5)
    00000D9C 36 F8            [10] 3055 	ld	(hl), #0xf8
                                   3056 ;E:/Dropbox/FAUSTO/SVILUPPI/MSX/CODE/C/MSXgl/engine/src/print.h:224: g_PrintData.CursorY = y;
    00000D9E 21 30 03         [10] 3057 	ld	hl, #0x0330
    00000DA1 22r06r00         [16] 3058 	ld	((_g_PrintData + 6)), hl
                                   3059 ;E:\Dropbox\FAUSTO\SVILUPPI\MSX\CODE\C\MSXgl\projects\soccerlgMSX2/soccerlg_s4_b3.c:1241: Print_SetPosition(248,  48+768);Print_DrawFormat("%i",Mins);
    00000DA4 3Ar00r00         [13] 3060 	ld	a, (_Mins+0)
    00000DA7 4F               [ 4] 3061 	ld	c, a
    00000DA8 06 00            [ 7] 3062 	ld	b, #0x00
    00000DAA C5               [11] 3063 	push	bc
    00000DAB 21r13r0E         [10] 3064 	ld	hl, #___str_0
    00000DAE E5               [11] 3065 	push	hl
    00000DAF CDr00r00         [17] 3066 	call	_Print_DrawFormat
    00000DB2 F1               [10] 3067 	pop	af
    00000DB3 F1               [10] 3068 	pop	af
                                   3069 ;E:/Dropbox/FAUSTO/SVILUPPI/MSX/CODE/C/MSXgl/engine/src/print.h:223: g_PrintData.CursorX = x;
    00000DB4 21r05r00         [10] 3070 	ld	hl, #(_g_PrintData + 5)
    00000DB7 36 F8            [10] 3071 	ld	(hl), #0xf8
                                   3072 ;E:/Dropbox/FAUSTO/SVILUPPI/MSX/CODE/C/MSXgl/engine/src/print.h:224: g_PrintData.CursorY = y;
    00000DB9 21 3C 03         [10] 3073 	ld	hl, #0x033c
    00000DBC 22r06r00         [16] 3074 	ld	((_g_PrintData + 6)), hl
                                   3075 ;E:\Dropbox\FAUSTO\SVILUPPI\MSX\CODE\C\MSXgl\projects\soccerlgMSX2/soccerlg_s4_b3.c:1242: Print_SetPosition(248,  60+768);Print_DrawFormat("%i",Secs/10);	
    00000DBF 3Ar00r00         [13] 3076 	ld	a, (_Secs+0)
    00000DC2 6F               [ 4] 3077 	ld	l, a
                                   3078 ;	spillPairReg hl
                                   3079 ;	spillPairReg hl
    00000DC3 26 00            [ 7] 3080 	ld	h, #0x00
                                   3081 ;	spillPairReg hl
                                   3082 ;	spillPairReg hl
    00000DC5 11 0A 00         [10] 3083 	ld	de, #0x000a
    00000DC8 CDr00r00         [17] 3084 	call	__divsint
    00000DCB D5               [11] 3085 	push	de
    00000DCC 21r13r0E         [10] 3086 	ld	hl, #___str_0
    00000DCF E5               [11] 3087 	push	hl
    00000DD0 CDr00r00         [17] 3088 	call	_Print_DrawFormat
    00000DD3 F1               [10] 3089 	pop	af
    00000DD4 F1               [10] 3090 	pop	af
                                   3091 ;E:/Dropbox/FAUSTO/SVILUPPI/MSX/CODE/C/MSXgl/engine/src/print.h:223: g_PrintData.CursorX = x;
    00000DD5 21r05r00         [10] 3092 	ld	hl, #(_g_PrintData + 5)
    00000DD8 36 F8            [10] 3093 	ld	(hl), #0xf8
                                   3094 ;E:/Dropbox/FAUSTO/SVILUPPI/MSX/CODE/C/MSXgl/engine/src/print.h:224: g_PrintData.CursorY = y;
    00000DDA 21 44 03         [10] 3095 	ld	hl, #0x0344
    00000DDD 22r06r00         [16] 3096 	ld	((_g_PrintData + 6)), hl
                                   3097 ;E:\Dropbox\FAUSTO\SVILUPPI\MSX\CODE\C\MSXgl\projects\soccerlgMSX2/soccerlg_s4_b3.c:1243: Print_SetPosition(248,  68+768);Print_DrawFormat("%i",Secs-Secs/10*10);
    00000DE0 3Ar00r00         [13] 3098 	ld	a, (_Secs+0)
    00000DE3 4F               [ 4] 3099 	ld	c, a
    00000DE4 06 00            [ 7] 3100 	ld	b, #0x00
    00000DE6 C5               [11] 3101 	push	bc
    00000DE7 11 0A 00         [10] 3102 	ld	de, #0x000a
    00000DEA 69               [ 4] 3103 	ld	l, c
                                   3104 ;	spillPairReg hl
                                   3105 ;	spillPairReg hl
    00000DEB 60               [ 4] 3106 	ld	h, b
                                   3107 ;	spillPairReg hl
                                   3108 ;	spillPairReg hl
    00000DEC CDr00r00         [17] 3109 	call	__divsint
    00000DEF C1               [10] 3110 	pop	bc
    00000DF0 6B               [ 4] 3111 	ld	l, e
    00000DF1 62               [ 4] 3112 	ld	h, d
    00000DF2 29               [11] 3113 	add	hl, hl
    00000DF3 29               [11] 3114 	add	hl, hl
    00000DF4 19               [11] 3115 	add	hl, de
    00000DF5 29               [11] 3116 	add	hl, hl
    00000DF6 DD 75 FE         [19] 3117 	ld	-2 (ix), l
    00000DF9 DD 74 FF         [19] 3118 	ld	-1 (ix), h
    00000DFC 79               [ 4] 3119 	ld	a, c
    00000DFD DD 96 FE         [19] 3120 	sub	a, -2 (ix)
    00000E00 4F               [ 4] 3121 	ld	c, a
    00000E01 78               [ 4] 3122 	ld	a, b
    00000E02 DD 9E FF         [19] 3123 	sbc	a, -1 (ix)
    00000E05 47               [ 4] 3124 	ld	b, a
    00000E06 C5               [11] 3125 	push	bc
    00000E07 21r13r0E         [10] 3126 	ld	hl, #___str_0
    00000E0A E5               [11] 3127 	push	hl
    00000E0B CDr00r00         [17] 3128 	call	_Print_DrawFormat
    00000E0E F1               [10] 3129 	pop	af
    00000E0F F1               [10] 3130 	pop	af
                                   3131 ;E:\Dropbox\FAUSTO\SVILUPPI\MSX\CODE\C\MSXgl\projects\soccerlgMSX2/soccerlg_s4_b3.c:1247: }
    00000E10 C3rECr05         [10] 3132 	jp	00201$
    00000E13                       3133 ___str_0:
    00000E13 25 69                 3134 	.ascii "%i"
    00000E15 00                    3135 	.db 0x00
                                   3136 	.area _SEG4
                                   3137 	.area _INITIALIZER
                                   3138 	.area _CABS (ABS)
