;--------------------------------------------------------
; File Created by SDCC : free open source ANSI-C Compiler
; Version 4.2.0 #13081 (MINGW64)
;--------------------------------------------------------
	.module soccerlg_s6_b3
	.optsdcc -mz80
	
;--------------------------------------------------------
; Public variables in this module
;--------------------------------------------------------
	.globl _PlayerAI_Movement
	.globl _GetPlayerIdleFrame
	.globl _CallFnc_U16_P3
	.globl _CallFnc_VOID_P1
	.globl _g_SLTSL
	.globl _g_GRPACY
	.globl _g_GRPACX
	.globl _g_LOGOPR
	.globl _g_CMASK
	.globl _g_CLOC
	.globl _g_FNKSTR
	.globl _g_ATRBYT
	.globl _g_BDRCLR
	.globl _g_BAKCLR
	.globl _g_FORCLR
	.globl _g_CSRX
	.globl _g_CSRY
	.globl _g_CLIKSW
	.globl _g_MLTPAT
	.globl _g_MLTATR
	.globl _g_MLTCGP
	.globl _g_MLTCOL
	.globl _g_MLTNAM
	.globl _g_GRPPAT
	.globl _g_GRPATR
	.globl _g_GRPCGP
	.globl _g_GRPCOL
	.globl _g_GRPNAM
	.globl _g_T32PAT
	.globl _g_T32ATR
	.globl _g_T32CGP
	.globl _g_T32COL
	.globl _g_T32NAM
	.globl _g_TXTPAT
	.globl _g_TXTATR
	.globl _g_TXTCGP
	.globl _g_TXTCOL
	.globl _g_TXTNAM
	.globl _g_CLMLST
	.globl _g_CRTCNT
	.globl _g_LINLEN
	.globl _g_LINL32
	.globl _g_LINL40
	.globl _g_BDOS
	.globl _g_MASTER
	.globl _g_RAMAD3
	.globl _g_RAMAD2
	.globl _g_RAMAD1
	.globl _g_RAMAD0
	.globl _g_BREAKV
	.globl _g_DISKVE
	.globl _g_KANJTABLE
	.globl _g_STRSRC
	.globl _g_SUBRID
	.globl _g_CHAR_16
	.globl _g_MSXMID
	.globl _g_MSXVER
	.globl _g_ROMVersion
	.globl _g_BASRVN
	.globl _g_VDP_DW
	.globl _g_VDP_DR
	.globl _g_CGTABL
	.globl _g_SVFFFD
	.globl _g_RG27SAV
	.globl _g_RG26SAV
	.globl _g_RG25SAV
	.globl _g_SVFFF8
	.globl _g_MINROM
	.globl _g_RG23SAV
	.globl _g_RG22SAV
	.globl _g_RG21SAV
	.globl _g_RG20SAV
	.globl _g_RG19SAV
	.globl _g_RG18SAV
	.globl _g_RG17SAV
	.globl _g_RG16SAV
	.globl _g_RG15SAV
	.globl _g_RG14SAV
	.globl _g_RG13SAV
	.globl _g_RG12SAV
	.globl _g_RG11SAV
	.globl _g_RG10SAV
	.globl _g_RG09SAV
	.globl _g_RG08SAV
	.globl _g_PROCNM
	.globl _g_SLTWRK
	.globl _g_SLTATR
	.globl _g_SLTTBL
	.globl _g_EXPTBL
	.globl _g_MNROM
	.globl _g_DRWANG
	.globl _g_DRWSCL
	.globl _g_DRWFLG
	.globl _g_GYPOS
	.globl _g_GXPOS
	.globl _g_BRDATR
	.globl _g_CASPRV
	.globl _g_OLDSCR
	.globl _g_SCRMOD
	.globl _g_FLBMEM
	.globl _g_KANAMD
	.globl _g_KANAST
	.globl _g_CAPST
	.globl _g_CSTYLE
	.globl _g_CSRSW
	.globl _g_INSFLG
	.globl _g_ESCCNT
	.globl _g_GRPHED
	.globl _g_WINWID
	.globl _g_LOWLIM
	.globl _g_INTCNT
	.globl _g_INTVAL
	.globl _g_JIFFY
	.globl _g_PADX
	.globl _g_PADY
	.globl _g_INTFLG
	.globl _g_RTYCNT
	.globl _g_TRPTBL
	.globl _g_HIMEM
	.globl _g_BOTTOM
	.globl _g_PATWRK
	.globl _g_LINWRK
	.globl _g_KEYBUF
	.globl _g_NEWKEY
	.globl _g_OLDKEY
	.globl _g_CLIKFL
	.globl _g_ONGSBF
	.globl _g_FNKFLG
	.globl _g_FNKSWI
	.globl _g_CODSAV
	.globl _g_FSTPOS
	.globl _g_LINTTB
	.globl _g_BASROM
	.globl _g_ENSTOP
	.globl _g_VCBC
	.globl _g_VCBB
	.globl _g_VCBA
	.globl _g_PLYCNT
	.globl _g_MUSICF
	.globl _g_QUEUEN
	.globl _g_MCLPTR
	.globl _g_MCLLEN
	.globl _g_SAVVOL
	.globl _g_VOICEN
	.globl _g_SAVSP
	.globl _g_PRSCNT
	.globl _g_LSTMOD
	.globl _g_LSTCOM
	.globl _g_COMMSK
	.globl _g_ESTBLS
	.globl _g_FLAGS
	.globl _g_ERRORS
	.globl _g_DATCNT
	.globl _g_DEVNUM
	.globl _g_OLDINT
	.globl _g_OLDSTT
	.globl _g_MEXBIh
	.globl _g_RSIQLN
	.globl _g_RSFCB
	.globl _g_TOCNT
	.globl _g_RSTMP
	.globl _g_YSAVE
	.globl _g_XSAVE
	.globl _g_NORUSE
	.globl _g_MODE
	.globl _g_ROMA
	.globl _g_CHRCNT
	.globl _g_EXBRSA
	.globl _g_AVCSAV
	.globl _g_ACPAGE
	.globl _g_DPPAGE
	.globl _g_RS2IQ
	.globl _g_VOICCQ
	.globl _g_VOICBQ
	.globl _g_VOICAQ
	.globl _g_QUEBAK
	.globl _g_QUETAB
	.globl _g_ASPCT2
	.globl _g_ASPCT1
	.globl _g_HEADER
	.globl _g_HIGH
	.globl _g_LOW
	.globl _g_CS240
	.globl _g_CS120
	.globl _g_GETPNT
	.globl _g_PUTPNT
	.globl _g_REPCNT
	.globl _g_SCNCNT
	.globl _g_FRCNEW
	.globl _g_QUEUES
	.globl _g_MINUPD
	.globl _g_MAXUPD
	.globl _g_TRGFLG
	.globl _g_STATFL
	.globl _g_RG7SAV
	.globl _g_RG6SAV
	.globl _g_RG5SAV
	.globl _g_RG4SAV
	.globl _g_RG3SAV
	.globl _g_RG2SAV
	.globl _g_RG1SAV
	.globl _g_RG0SAV
	.globl _g_CNSDFG
	.globl _g_USRTAB
	.globl _g_CLPRIM
	.globl _g_WRPRIM
	.globl _g_RDPRIM
	.globl _PlayerAI
;--------------------------------------------------------
; special function registers
;--------------------------------------------------------
_g_PortPrimarySlot	=	0x00a8
_g_PortReadKeyboard	=	0x00a9
_g_PortAccessKeyboard	=	0x00aa
_g_PortControl	=	0x00ab
_g_VDP_DataPort	=	0x0098
_g_VDP_RegPort	=	0x0099
_g_VDP_AddrPort	=	0x0099
_g_VDP_StatPort	=	0x0099
_g_VDP_PalPort	=	0x009a
_g_VDP_IRegPort	=	0x009b
_g_PSG_RegPort	=	0x00a0
_g_PSG_DataPort	=	0x00a1
_g_PSG_StatPort	=	0x00a2
_g_PSG_Ext_RegPort	=	0x0010
_g_PSG_Ext_DataPort	=	0x0011
_g_PSG_Ext_StatPort	=	0x0012
_g_MSXMusic_IndexPort	=	0x007c
_g_MSXMusic_DataPort	=	0x007d
_g_MSXAudio_IndexPort	=	0x00c0
_g_MSXAudio_DataPort	=	0x00c1
_g_MSXAudio_IndexPort2	=	0x00c2
_g_MSXAudio_DataPort2	=	0x00c3
_g_RTC_AddrPort	=	0x00b4
_g_RTC_DataPort	=	0x00b5
;--------------------------------------------------------
; ram data
;--------------------------------------------------------
	.area _DATA
_g_LINL40	=	0xf3ae
_g_LINL32	=	0xf3af
_g_LINLEN	=	0xf3b0
_g_CRTCNT	=	0xf3b1
_g_CLMLST	=	0xf3b2
_g_TXTNAM	=	0xf3b3
_g_TXTCOL	=	0xf3b5
_g_TXTCGP	=	0xf3b7
_g_TXTATR	=	0xf3b9
_g_TXTPAT	=	0xf3bb
_g_T32NAM	=	0xf3bd
_g_T32COL	=	0xf3bf
_g_T32CGP	=	0xf3c1
_g_T32ATR	=	0xf3c3
_g_T32PAT	=	0xf3c5
_g_GRPNAM	=	0xf3c7
_g_GRPCOL	=	0xf3c9
_g_GRPCGP	=	0xf3cb
_g_GRPATR	=	0xf3cd
_g_GRPPAT	=	0xf3cf
_g_MLTNAM	=	0xf3d1
_g_MLTCOL	=	0xf3d3
_g_MLTCGP	=	0xf3d5
_g_MLTATR	=	0xf3d7
_g_MLTPAT	=	0xf3d9
_g_CLIKSW	=	0xf3db
_g_CSRY	=	0xf3dc
_g_CSRX	=	0xf3dd
_g_FORCLR	=	0xf3e9
_g_BAKCLR	=	0xf3ea
_g_BDRCLR	=	0xf3eb
_g_ATRBYT	=	0xf3f2
_g_FNKSTR	=	0xf87f
_g_CLOC	=	0xf92a
_g_CMASK	=	0xf92c
_g_LOGOPR	=	0xfb02
_g_GRPACX	=	0xfcb7
_g_GRPACY	=	0xfcb9
_g_SLTSL	=	0xffff
;--------------------------------------------------------
; ram data
;--------------------------------------------------------
	.area _INITIALIZED
;--------------------------------------------------------
; absolute external ram data
;--------------------------------------------------------
	.area _DABS (ABS)
;--------------------------------------------------------
; global & static initialisations
;--------------------------------------------------------
	.area _HOME
	.area _GSINIT
	.area _GSFINAL
	.area _GSINIT
;--------------------------------------------------------
; Home
;--------------------------------------------------------
	.area _HOME
	.area _HOME
;--------------------------------------------------------
; code
;--------------------------------------------------------
	.area _SEG6
;E:\Dropbox\FAUSTO\SVILUPPI\MSX\CODE\C\MSXgl\projects\soccerlgMSX2/soccerlg_s6_b3.c:9: void PlayerAI(u8 i) 
;	---------------------------------
; Function PlayerAI
; ---------------------------------
_PlayerAI::
	push	ix
	ld	ix,#0
	add	ix,sp
	ld	hl, #-16
	add	hl, sp
	ld	sp, hl
	ld	-1 (ix), a
;E:\Dropbox\FAUSTO\SVILUPPI\MSX\CODE\C\MSXgl\projects\soccerlgMSX2/soccerlg_s6_b3.c:12: if (GameMode == GAMEMODE_P1_VS_CPU) {
	ld	a, (_GameMode+0)
	or	a, a
	jr	NZ, 00107$
;E:\Dropbox\FAUSTO\SVILUPPI\MSX\CODE\C\MSXgl\projects\soccerlgMSX2/soccerlg_s6_b3.c:13: if (i == T2_Carrier) return;
	ld	a, (_T2_Carrier+0)
	sub	a, -1 (ix)
	jp	Z,00173$
	jp	00108$
00107$:
;E:\Dropbox\FAUSTO\SVILUPPI\MSX\CODE\C\MSXgl\projects\soccerlgMSX2/soccerlg_s6_b3.c:15: if (i == T1_Carrier || i == T2_Carrier) return;
	ld	a, (_T1_Carrier+0)
	sub	a, -1 (ix)
	jp	Z,00173$
	ld	a, (_T2_Carrier+0)
	sub	a, -1 (ix)
	jp	Z,00173$
00108$:
;E:\Dropbox\FAUSTO\SVILUPPI\MSX\CODE\C\MSXgl\projects\soccerlgMSX2/soccerlg_s6_b3.c:18: struct ObjectInfo* Ball = &SwSprite[14];
;E:\Dropbox\FAUSTO\SVILUPPI\MSX\CODE\C\MSXgl\projects\soccerlgMSX2/soccerlg_s6_b3.c:20: if (Ball->anim == 5 && i == (g_pass_receiver & 0x7F)) {
	ld	hl, (#(_SwSprite + 341) + 0)
	ld	a, l
	sub	a, #0x05
	or	a, h
	ld	a, #0x01
	jr	Z, 00536$
	xor	a, a
00536$:
	ld	-4 (ix), a
;E:\Dropbox\FAUSTO\SVILUPPI\MSX\CODE\C\MSXgl\projects\soccerlgMSX2/soccerlg_s6_b3.c:21: SwSprite[i].dx = 0; SwSprite[i].dy = 0;
	ld	c, -1 (ix)
	ld	b, #0x00
	ld	l, c
	ld	h, b
	add	hl, hl
	add	hl, hl
	add	hl, bc
	add	hl, hl
	add	hl, bc
	add	hl, hl
	add	hl, bc
	ld	de, #_SwSprite
	add	hl, de
	ld	-3 (ix), l
	ld	-2 (ix), h
;E:\Dropbox\FAUSTO\SVILUPPI\MSX\CODE\C\MSXgl\projects\soccerlgMSX2/soccerlg_s6_b3.c:20: if (Ball->anim == 5 && i == (g_pass_receiver & 0x7F)) {
	ld	a, -4 (ix)
	or	a, a
	jr	Z, 00110$
	ld	a, (_g_pass_receiver+0)
	ld	c, a
	res	7, c
	ld	b, #0x00
	ld	l, -1 (ix)
;	spillPairReg hl
;	spillPairReg hl
	ld	h, #0x00
;	spillPairReg hl
;	spillPairReg hl
	cp	a, a
	sbc	hl, bc
	jr	NZ, 00110$
;E:\Dropbox\FAUSTO\SVILUPPI\MSX\CODE\C\MSXgl\projects\soccerlgMSX2/soccerlg_s6_b3.c:21: SwSprite[i].dx = 0; SwSprite[i].dy = 0;
	ld	l, -3 (ix)
	ld	h, -2 (ix)
	ld	de, #0x0011
	add	hl, de
	ld	(hl), #0x00
	ld	l, -3 (ix)
	ld	h, -2 (ix)
	ld	de, #0x0012
	add	hl, de
	ld	(hl), #0x00
;E:\Dropbox\FAUSTO\SVILUPPI\MSX\CODE\C\MSXgl\projects\soccerlgMSX2/soccerlg_s6_b3.c:22: SwSprite[i].frame = CallFnc_U16_P3(SEG_GAMESTATE_9, GetPlayerIdleFrame, i, 0, (i < 7) ? 1 : -1);
	ld	l, -3 (ix)
	ld	h, -2 (ix)
	ld	de, #0x000f
	add	hl, de
	ld	a, -1 (ix)
	sub	a, #0x07
	jr	NC, 00175$
	ld	bc, #0x0001
	jp	00176$
00175$:
	ld	bc, #0xffff
00176$:
	ld	a, c
	push	hl
	push	af
	inc	sp
	xor	a, a
	push	af
	inc	sp
	ld	a, -1 (ix)
	push	af
	inc	sp
	ld	de, #_GetPlayerIdleFrame
	ld	a, #0x13
	call	_CallFnc_U16_P3
	pop	hl
	ld	(hl), e
	inc	hl
	ld	(hl), d
;E:\Dropbox\FAUSTO\SVILUPPI\MSX\CODE\C\MSXgl\projects\soccerlgMSX2/soccerlg_s6_b3.c:23: return;
	jp	00173$
00110$:
;E:\Dropbox\FAUSTO\SVILUPPI\MSX\CODE\C\MSXgl\projects\soccerlgMSX2/soccerlg_s6_b3.c:27: if (Ball->anim == 5 && i == LastTouchPlayer) {
	ld	a, -4 (ix)
	or	a, a
	jp	Z, 00123$
	ld	a, -1 (ix)
	ld	hl, #_LastTouchPlayer
	sub	a, (hl)
	jp	NZ,00123$
;E:\Dropbox\FAUSTO\SVILUPPI\MSX\CODE\C\MSXgl\projects\soccerlgMSX2/soccerlg_s6_b3.c:28: SwSprite[i].dx = 0; SwSprite[i].dy = 0;
	ld	l, -3 (ix)
	ld	h, -2 (ix)
	ld	de, #0x0011
	add	hl, de
	ld	(hl), #0x00
	ld	l, -3 (ix)
	ld	h, -2 (ix)
	ld	de, #0x0012
	add	hl, de
	ld	(hl), #0x00
;E:\Dropbox\FAUSTO\SVILUPPI\MSX\CODE\C\MSXgl\projects\soccerlgMSX2/soccerlg_s6_b3.c:32: SwSprite[i].frame = (i == 0) ? SPR_GK_PLAYER_SHOT_TO_SOUTH : SPR_GK_PLAYER_SHOT_TO_NORTH;
	ld	a, -3 (ix)
	add	a, #0x0f
	ld	-7 (ix), a
	ld	a, -2 (ix)
	adc	a, #0x00
	ld	-6 (ix), a
;E:\Dropbox\FAUSTO\SVILUPPI\MSX\CODE\C\MSXgl\projects\soccerlgMSX2/soccerlg_s6_b3.c:29: if (i == 0 || i == 7) {
	ld	a, -1 (ix)
	or	a, a
	jr	Z, 00118$
	ld	a, -1 (ix)
	sub	a, #0x07
	jr	NZ, 00119$
00118$:
;E:\Dropbox\FAUSTO\SVILUPPI\MSX\CODE\C\MSXgl\projects\soccerlgMSX2/soccerlg_s6_b3.c:31: if (Ball->count <= 5) {
	ld	hl, #(_SwSprite + 322) + 21
	ld	a, (hl)
	ld	-3 (ix), a
	inc	hl
	ld	a, (hl)
	ld	-2 (ix), a
	ld	a, #0x05
	cp	a, -3 (ix)
	ld	a, #0x00
	sbc	a, -2 (ix)
	jr	C, 00113$
;E:\Dropbox\FAUSTO\SVILUPPI\MSX\CODE\C\MSXgl\projects\soccerlgMSX2/soccerlg_s6_b3.c:32: SwSprite[i].frame = (i == 0) ? SPR_GK_PLAYER_SHOT_TO_SOUTH : SPR_GK_PLAYER_SHOT_TO_NORTH;
	ld	a, -1 (ix)
	or	a, a
	jr	NZ, 00177$
	ld	-3 (ix), #0xf7
	ld	-2 (ix), #0
	jp	00178$
00177$:
	ld	-3 (ix), #0xf6
	ld	-2 (ix), #0
00178$:
	ld	l, -7 (ix)
	ld	h, -6 (ix)
	ld	a, -3 (ix)
	ld	(hl), a
	inc	hl
	ld	a, -2 (ix)
	ld	(hl), a
	jp	00173$
00113$:
;E:\Dropbox\FAUSTO\SVILUPPI\MSX\CODE\C\MSXgl\projects\soccerlgMSX2/soccerlg_s6_b3.c:34: SwSprite[i].frame = (i == 0) ? SPR_GK_PLAYER_FACE_TO_SOUTH : SPR_GK_PLAYER_FACE_TO_NORTH;
	ld	a, -1 (ix)
	or	a, a
	jr	NZ, 00179$
	ld	bc, #0x00d5
	jp	00180$
00179$:
	ld	bc, #0x00d6
00180$:
	ld	l, -7 (ix)
	ld	h, -6 (ix)
	ld	(hl), c
	inc	hl
	ld	(hl), b
	jp	00173$
00119$:
;E:\Dropbox\FAUSTO\SVILUPPI\MSX\CODE\C\MSXgl\projects\soccerlgMSX2/soccerlg_s6_b3.c:37: i8 look_dx = (Ball->lx > SwSprite[i].lx) ? 1 : ((Ball->lx < SwSprite[i].lx) ? -1 : 0);
	ld	a, (#(_SwSprite + 322) + 0)
	ld	-5 (ix), a
	ld	l, -3 (ix)
	ld	h, -2 (ix)
	ld	a, (hl)
	ld	-4 (ix), a
	sub	a, -5 (ix)
	jr	NC, 00181$
	ld	-5 (ix), #0x01
	ld	-4 (ix), #0
	jp	00182$
00181$:
	ld	a, -5 (ix)
	sub	a, -4 (ix)
	jr	NC, 00183$
	ld	-5 (ix), #0xff
	ld	-4 (ix), #0xff
	jp	00184$
00183$:
	xor	a, a
	ld	-5 (ix), a
	ld	-4 (ix), a
00184$:
00182$:
	ld	a, -5 (ix)
	ld	-4 (ix), a
;E:\Dropbox\FAUSTO\SVILUPPI\MSX\CODE\C\MSXgl\projects\soccerlgMSX2/soccerlg_s6_b3.c:38: i8 look_dy = (Ball->ly > SwSprite[i].ly) ? 1 : ((Ball->ly < SwSprite[i].ly) ? -1 : 0);
	ld	bc, (#(_SwSprite + 322) + 4)
	ld	e, -3 (ix)
	ld	d, -2 (ix)
	ld	hl, #4
	add	hl, de
	ld	e, (hl)
	inc	hl
	ld	d, (hl)
	ld	a, e
	sub	a, c
	ld	a, d
	sbc	a, b
	jr	NC, 00185$
	ld	bc, #0x0001
	jp	00186$
00185$:
	ld	a, c
	sub	a, e
	ld	a, b
	sbc	a, d
	jr	NC, 00187$
	ld	bc, #0xffff
	jp	00188$
00187$:
	ld	bc, #0x0000
00188$:
00186$:
;E:\Dropbox\FAUSTO\SVILUPPI\MSX\CODE\C\MSXgl\projects\soccerlgMSX2/soccerlg_s6_b3.c:39: if (look_dx == 0 && look_dy == 0) look_dy = (i < 7) ? 1 : -1;
	ld	a, -4 (ix)
	or	a,a
	jr	NZ, 00116$
	or	a,c
	jr	NZ, 00116$
	ld	a, -1 (ix)
	sub	a, #0x07
	jr	NC, 00189$
	ld	de, #0x0001
	jp	00190$
00189$:
	ld	de, #0xffff
00190$:
	ld	c, e
00116$:
;E:\Dropbox\FAUSTO\SVILUPPI\MSX\CODE\C\MSXgl\projects\soccerlgMSX2/soccerlg_s6_b3.c:40: SwSprite[i].frame = CallFnc_U16_P3(SEG_GAMESTATE_9, GetPlayerIdleFrame, i, look_dx, look_dy);
	ld	h, c
	ld	l, -4 (ix)
	push	hl
	ld	a, -1 (ix)
	push	af
	inc	sp
	ld	de, #_GetPlayerIdleFrame
	ld	a, #0x13
	call	_CallFnc_U16_P3
	ld	l, -7 (ix)
	ld	h, -6 (ix)
	ld	(hl), e
	inc	hl
	ld	(hl), d
;E:\Dropbox\FAUSTO\SVILUPPI\MSX\CODE\C\MSXgl\projects\soccerlgMSX2/soccerlg_s6_b3.c:42: return;
	jp	00173$
00123$:
;E:\Dropbox\FAUSTO\SVILUPPI\MSX\CODE\C\MSXgl\projects\soccerlgMSX2/soccerlg_s6_b3.c:45: struct ObjectInfo* Player = &SwSprite[i];
	ld	a, -3 (ix)
	ld	-16 (ix), a
	ld	a, -2 (ix)
	ld	-15 (ix), a
;E:\Dropbox\FAUSTO\SVILUPPI\MSX\CODE\C\MSXgl\projects\soccerlgMSX2/soccerlg_s6_b3.c:46: u8 team = (i < 7) ? TEAM_1 : TEAM_2;
	ld	a, -1 (ix)
	sub	a, #0x07
	jr	NC, 00191$
	xor	a, a
	ld	-3 (ix), a
	ld	-2 (ix), a
	jp	00192$
00191$:
	ld	-3 (ix), #0x01
	ld	-2 (ix), #0
00192$:
	ld	a, -3 (ix)
	ld	-14 (ix), a
;E:\Dropbox\FAUSTO\SVILUPPI\MSX\CODE\C\MSXgl\projects\soccerlgMSX2/soccerlg_s6_b3.c:47: bool is_gk = (i == 0 || i == 7);
	ld	a, -1 (ix)
	or	a, a
	jr	Z, 00194$
	ld	a, -1 (ix)
	sub	a, #0x07
	jr	Z, 00194$
	ld	-2 (ix), #0x00
	jp	00195$
00194$:
	ld	-2 (ix), #0x01
00195$:
;E:\Dropbox\FAUSTO\SVILUPPI\MSX\CODE\C\MSXgl\projects\soccerlgMSX2/soccerlg_s6_b3.c:50: if (Player->count > 0 && !is_gk) {
	ld	a, -16 (ix)
	add	a, #0x15
	ld	-13 (ix), a
	ld	a, -15 (ix)
	adc	a, #0x00
	ld	-12 (ix), a
	ld	l, -13 (ix)
	ld	h, -12 (ix)
	ld	a, (hl)
	ld	-5 (ix), a
	inc	hl
	ld	a, (hl)
	ld	-4 (ix), a
	or	a, -5 (ix)
	jp	Z, 00150$
	ld	a, -2 (ix)
	or	a, a
	jp	NZ, 00150$
;E:\Dropbox\FAUSTO\SVILUPPI\MSX\CODE\C\MSXgl\projects\soccerlgMSX2/soccerlg_s6_b3.c:51: Player->count--;
	ld	a, -5 (ix)
	add	a, #0xff
	ld	-3 (ix), a
	ld	a, -4 (ix)
	adc	a, #0xff
	ld	-2 (ix), a
	ld	l, -13 (ix)
	ld	h, -12 (ix)
	ld	a, -3 (ix)
	ld	(hl), a
	inc	hl
	ld	a, -2 (ix)
	ld	(hl), a
;E:\Dropbox\FAUSTO\SVILUPPI\MSX\CODE\C\MSXgl\projects\soccerlgMSX2/soccerlg_s6_b3.c:52: Player->lx += Player->dx;
	pop	hl
	push	hl
	ld	a, (hl)
	ld	-2 (ix), a
	ld	a, -16 (ix)
	add	a, #0x11
	ld	-11 (ix), a
	ld	a, -15 (ix)
	adc	a, #0x00
	ld	-10 (ix), a
	ld	l, -11 (ix)
	ld	h, -10 (ix)
	ld	a, (hl)
	ld	-3 (ix), a
	ld	a, -2 (ix)
	add	a, -3 (ix)
	pop	hl
	push	hl
	ld	(hl), a
;E:\Dropbox\FAUSTO\SVILUPPI\MSX\CODE\C\MSXgl\projects\soccerlgMSX2/soccerlg_s6_b3.c:53: Player->ly += Player->dy;
	ld	a, -16 (ix)
	add	a, #0x04
	ld	-9 (ix), a
	ld	a, -15 (ix)
	adc	a, #0x00
	ld	-8 (ix), a
	ld	l, -9 (ix)
	ld	h, -8 (ix)
	ld	a, (hl)
	ld	-5 (ix), a
	inc	hl
	ld	a, (hl)
	ld	-4 (ix), a
	ld	a, -16 (ix)
	ld	-3 (ix), a
	ld	a, -15 (ix)
	ld	-2 (ix), a
	ld	l, -3 (ix)
	ld	h, -2 (ix)
	ld	de, #0x0012
	add	hl, de
	ld	a, (hl)
	ld	-2 (ix), a
	ld	-3 (ix), a
	rlca
	sbc	a, a
	ld	-2 (ix), a
	ld	a, -5 (ix)
	ld	-7 (ix), a
	ld	a, -4 (ix)
	ld	-6 (ix), a
	ld	a, -3 (ix)
	ld	-5 (ix), a
	ld	a, -2 (ix)
	ld	-4 (ix), a
	ld	a, -5 (ix)
	add	a, -7 (ix)
	ld	-3 (ix), a
	ld	a, -4 (ix)
	adc	a, -6 (ix)
	ld	-2 (ix), a
	ld	l, -9 (ix)
	ld	h, -8 (ix)
	ld	a, -3 (ix)
	ld	(hl), a
	inc	hl
	ld	a, -2 (ix)
	ld	(hl), a
;E:\Dropbox\FAUSTO\SVILUPPI\MSX\CODE\C\MSXgl\projects\soccerlgMSX2/soccerlg_s6_b3.c:55: if (Player->lx < 16) Player->lx = 16;
	pop	hl
	push	hl
	ld	a, (hl)
	sub	a, #0x10
	jr	NC, 00126$
	pop	hl
	push	hl
	ld	(hl), #0x10
00126$:
;E:\Dropbox\FAUSTO\SVILUPPI\MSX\CODE\C\MSXgl\projects\soccerlgMSX2/soccerlg_s6_b3.c:56: if (Player->lx > 224) Player->lx = 224;
	pop	hl
	push	hl
	ld	c, (hl)
	ld	a, #0xe0
	sub	a, c
	jr	NC, 00128$
	pop	hl
	push	hl
	ld	(hl), #0xe0
00128$:
;E:\Dropbox\FAUSTO\SVILUPPI\MSX\CODE\C\MSXgl\projects\soccerlgMSX2/soccerlg_s6_b3.c:57: if (Player->ly < 24) Player->ly = 24;
	ld	l, -9 (ix)
	ld	h, -8 (ix)
	ld	c, (hl)
	inc	hl
	ld	b, (hl)
	ld	a, c
	sub	a, #0x18
	ld	a, b
	sbc	a, #0x00
	jr	NC, 00130$
	ld	l, -9 (ix)
	ld	h, -8 (ix)
	ld	(hl), #0x18
	inc	hl
	ld	(hl), #0x00
00130$:
;E:\Dropbox\FAUSTO\SVILUPPI\MSX\CODE\C\MSXgl\projects\soccerlgMSX2/soccerlg_s6_b3.c:58: if (Player->ly > 478) Player->ly = 478;
	ld	l, -9 (ix)
	ld	h, -8 (ix)
	ld	c, (hl)
	inc	hl
	ld	b, (hl)
	ld	a, #0xde
	cp	a, c
	ld	a, #0x01
	sbc	a, b
	jr	NC, 00132$
	ld	l, -9 (ix)
	ld	h, -8 (ix)
	ld	(hl), #0xde
	inc	hl
	ld	(hl), #0x01
00132$:
;E:\Dropbox\FAUSTO\SVILUPPI\MSX\CODE\C\MSXgl\projects\soccerlgMSX2/soccerlg_s6_b3.c:60: Player->frame = (Player->dx > 0) ? 
	ld	a, -16 (ix)
	add	a, #0x0f
	ld	-3 (ix), a
	ld	a, -15 (ix)
	adc	a, #0x00
	ld	-2 (ix), a
	ld	l, -11 (ix)
	ld	h, -10 (ix)
	ld	c, (hl)
	xor	a, a
	sub	a, c
	jp	PO, 00544$
	xor	a, #0x80
00544$:
	jp	P, 00196$
;E:\Dropbox\FAUSTO\SVILUPPI\MSX\CODE\C\MSXgl\projects\soccerlgMSX2/soccerlg_s6_b3.c:61: ((team == TEAM_1) ? SPR_T1_PLAYER_TACKLE_FROM_WEST : SPR_T2_PLAYER_TACKLE_FROM_WEST) :
	ld	a, -14 (ix)
	or	a, a
	jr	NZ, 00198$
	ld	-5 (ix), #0x1e
	ld	-4 (ix), #0
	jp	00197$
00198$:
	ld	-5 (ix), #0x8e
	ld	-4 (ix), #0
	jp	00197$
00196$:
;E:\Dropbox\FAUSTO\SVILUPPI\MSX\CODE\C\MSXgl\projects\soccerlgMSX2/soccerlg_s6_b3.c:62: ((team == TEAM_1) ? SPR_T1_PLAYER_TACKLE_FROM_EAST : SPR_T2_PLAYER_TACKLE_FROM_EAST);
	ld	a, -14 (ix)
	or	a, a
	jr	NZ, 00200$
	ld	-5 (ix), #0x1f
	ld	-4 (ix), #0
	jp	00201$
00200$:
	ld	-5 (ix), #0x8f
	ld	-4 (ix), #0
00201$:
00197$:
	ld	c, -5 (ix)
	ld	b, -4 (ix)
	ld	l, -3 (ix)
	ld	h, -2 (ix)
	ld	(hl), c
	inc	hl
	ld	(hl), b
;E:\Dropbox\FAUSTO\SVILUPPI\MSX\CODE\C\MSXgl\projects\soccerlgMSX2/soccerlg_s6_b3.c:52: Player->lx += Player->dx;
	pop	hl
	push	hl
	ld	a, (hl)
	ld	-2 (ix), a
;E:\Dropbox\FAUSTO\SVILUPPI\MSX\CODE\C\MSXgl\projects\soccerlgMSX2/soccerlg_s6_b3.c:65: u16 b_dist_x = (Player->lx > Ball->lx) ? (Player->lx - Ball->lx) : (Ball->lx - Player->lx);
	ld	a, (#(_SwSprite + 322) + 0)
	ld	-3 (ix), a
	ld	-7 (ix), a
	ld	-6 (ix), #0x00
	ld	a, -2 (ix)
	ld	-5 (ix), a
	ld	-4 (ix), #0x00
	ld	a, -3 (ix)
	sub	a, -2 (ix)
	jr	NC, 00202$
	ld	a, -5 (ix)
	sub	a, -7 (ix)
	ld	-3 (ix), a
	ld	a, -4 (ix)
	sbc	a, -6 (ix)
	ld	-2 (ix), a
	jp	00203$
00202$:
	ld	a, -7 (ix)
	sub	a, -5 (ix)
	ld	-3 (ix), a
	ld	a, -6 (ix)
	sbc	a, -4 (ix)
	ld	-2 (ix), a
00203$:
	ld	a, -3 (ix)
	ld	-5 (ix), a
	ld	a, -2 (ix)
	ld	-4 (ix), a
;E:\Dropbox\FAUSTO\SVILUPPI\MSX\CODE\C\MSXgl\projects\soccerlgMSX2/soccerlg_s6_b3.c:53: Player->ly += Player->dy;
	ld	l, -9 (ix)
	ld	h, -8 (ix)
	ld	a, (hl)
	ld	-3 (ix), a
	inc	hl
	ld	a, (hl)
	ld	-2 (ix), a
;E:\Dropbox\FAUSTO\SVILUPPI\MSX\CODE\C\MSXgl\projects\soccerlgMSX2/soccerlg_s6_b3.c:66: u16 b_dist_y = (Player->ly > Ball->ly) ? (Player->ly - Ball->ly) : (Ball->ly - Player->ly);
	ld	hl, #(_SwSprite + 322) + 4
	ld	a, (hl)
	ld	-9 (ix), a
	inc	hl
	ld	a, (hl)
	ld	-8 (ix), a
	ld	a, -9 (ix)
	sub	a, -3 (ix)
	ld	a, -8 (ix)
	sbc	a, -2 (ix)
	jr	NC, 00204$
	ld	a, -3 (ix)
	sub	a, -9 (ix)
	ld	-7 (ix), a
	ld	a, -2 (ix)
	sbc	a, -8 (ix)
	ld	-6 (ix), a
	jp	00205$
00204$:
	ld	a, -9 (ix)
	sub	a, -3 (ix)
	ld	-7 (ix), a
	ld	a, -8 (ix)
	sbc	a, -2 (ix)
	ld	-6 (ix), a
00205$:
;E:\Dropbox\FAUSTO\SVILUPPI\MSX\CODE\C\MSXgl\projects\soccerlgMSX2/soccerlg_s6_b3.c:68: bool can_steal = (b_dist_x <= 24 && b_dist_y <= 24);
	ld	a, -5 (ix)
	ld	-10 (ix), a
	ld	a, -4 (ix)
	ld	-9 (ix), a
	ld	a, #0x18
	cp	a, -10 (ix)
	ld	a, #0x00
	sbc	a, -9 (ix)
	jr	C, 00206$
	ld	a, -7 (ix)
	ld	-5 (ix), a
	ld	a, -6 (ix)
	ld	-4 (ix), a
	ld	a, #0x18
	cp	a, -5 (ix)
	ld	a, #0x00
	sbc	a, -4 (ix)
	jr	NC, 00207$
00206$:
	ld	-4 (ix), #0x00
	jp	00208$
00207$:
	ld	-4 (ix), #0x01
00208$:
	ld	a, -4 (ix)
	ld	-8 (ix), a
;E:\Dropbox\FAUSTO\SVILUPPI\MSX\CODE\C\MSXgl\projects\soccerlgMSX2/soccerlg_s6_b3.c:69: if (!can_steal && g_is_ball_carried && LastTouchPlayer != 0xFF && LastTouchTeam != team) {
	ld	a, -4 (ix)
	or	a, a
	jp	NZ, 00137$
	ld	a, (_g_is_ball_carried+0)
	or	a, a
	jp	Z, 00137$
	ld	a, (_LastTouchPlayer+0)
	inc	a
	jp	Z,00137$
	ld	a, (_LastTouchTeam+0)
	sub	a, -14 (ix)
	jp	Z,00137$
;E:\Dropbox\FAUSTO\SVILUPPI\MSX\CODE\C\MSXgl\projects\soccerlgMSX2/soccerlg_s6_b3.c:70: u16 c_dist_y = (Player->ly > SwSprite[LastTouchPlayer].ly) ? (Player->ly - SwSprite[LastTouchPlayer].ly) : (SwSprite[LastTouchPlayer].ly - Player->ly);
	ld	bc, (_LastTouchPlayer)
	ld	b, #0x00
	ld	l, c
	ld	h, b
	add	hl, hl
	add	hl, hl
	add	hl, bc
	add	hl, hl
	add	hl, bc
	add	hl, hl
	add	hl, bc
	ld	-7 (ix), l
	ld	-6 (ix), h
	ld	a, #<(_SwSprite)
	add	a, -7 (ix)
	ld	-5 (ix), a
	ld	a, #>(_SwSprite)
	adc	a, -6 (ix)
	ld	-4 (ix), a
	ld	l, -5 (ix)
	ld	h, -4 (ix)
	ld	de, #0x0004
	add	hl, de
	ld	a, (hl)
	ld	-7 (ix), a
	inc	hl
	ld	a, (hl)
	ld	-6 (ix), a
	ld	a, -7 (ix)
	sub	a, -3 (ix)
	ld	a, -6 (ix)
	sbc	a, -2 (ix)
	jr	NC, 00209$
	ld	a, -3 (ix)
	sub	a, -7 (ix)
	ld	-5 (ix), a
	ld	a, -2 (ix)
	sbc	a, -6 (ix)
	ld	-4 (ix), a
	jp	00210$
00209$:
	ld	a, -7 (ix)
	sub	a, -3 (ix)
	ld	-5 (ix), a
	ld	a, -6 (ix)
	sbc	a, -2 (ix)
	ld	-4 (ix), a
00210$:
	ld	a, -5 (ix)
	ld	-3 (ix), a
	ld	a, -4 (ix)
	ld	-2 (ix), a
;E:\Dropbox\FAUSTO\SVILUPPI\MSX\CODE\C\MSXgl\projects\soccerlgMSX2/soccerlg_s6_b3.c:71: if (b_dist_x <= 28 && c_dist_y <= 16) can_steal = TRUE;
	ld	a, #0x1c
	cp	a, -10 (ix)
	ld	a, #0x00
	sbc	a, -9 (ix)
	jr	C, 00137$
	ld	a, #0x10
	cp	a, -3 (ix)
	ld	a, #0x00
	sbc	a, -2 (ix)
	jr	C, 00137$
	ld	-8 (ix), #0x01
00137$:
;E:\Dropbox\FAUSTO\SVILUPPI\MSX\CODE\C\MSXgl\projects\soccerlgMSX2/soccerlg_s6_b3.c:74: if (can_steal && Ball->anim < 5 && RestartType == 0) {
	ld	a, -8 (ix)
	or	a, a
	jp	Z,00173$
	ld	hl, (#(_SwSprite + 341) + 0)
	ld	de, #0x0005
	cp	a, a
	sbc	hl, de
	jp	NC,00173$
	ld	a, (_RestartType+0)
	or	a, a
	jp	NZ,00173$
;E:\Dropbox\FAUSTO\SVILUPPI\MSX\CODE\C\MSXgl\projects\soccerlgMSX2/soccerlg_s6_b3.c:75: if (LastTouchTeam != team) {
	ld	a, (_LastTouchTeam+0)
	sub	a, -14 (ix)
	jr	Z, 00142$
;E:\Dropbox\FAUSTO\SVILUPPI\MSX\CODE\C\MSXgl\projects\soccerlgMSX2/soccerlg_s6_b3.c:76: Ball->count = 16; // Immunità dopo il furto
	ld	hl, #0x0010
	ld	((_SwSprite + 343)), hl
;E:\Dropbox\FAUSTO\SVILUPPI\MSX\CODE\C\MSXgl\projects\soccerlgMSX2/soccerlg_s6_b3.c:77: g_pass_receiver = 0xFF;
	ld	a, #0xff
	ld	(#_g_pass_receiver), a
00142$:
;E:\Dropbox\FAUSTO\SVILUPPI\MSX\CODE\C\MSXgl\projects\soccerlgMSX2/soccerlg_s6_b3.c:79: LastTouchTeam = team;
	ld	a, -14 (ix)
	ld	(_LastTouchTeam+0), a
;E:\Dropbox\FAUSTO\SVILUPPI\MSX\CODE\C\MSXgl\projects\soccerlgMSX2/soccerlg_s6_b3.c:80: LastTouchPlayer = i;
	ld	a, -1 (ix)
	ld	(_LastTouchPlayer+0), a
;E:\Dropbox\FAUSTO\SVILUPPI\MSX\CODE\C\MSXgl\projects\soccerlgMSX2/soccerlg_s6_b3.c:81: if (Ball->anim > 3) Ball->anim = 3;
	ld	hl, #(_SwSprite + 341)
	ld	a, (hl)
	ld	-3 (ix), a
	inc	hl
	ld	a, (hl)
	ld	-2 (ix), a
	ld	a, #0x03
	cp	a, -3 (ix)
	ld	a, #0x00
	sbc	a, -2 (ix)
	jr	NC, 00144$
	ld	hl, #0x0003
	ld	((_SwSprite + 341)), hl
00144$:
;E:\Dropbox\FAUSTO\SVILUPPI\MSX\CODE\C\MSXgl\projects\soccerlgMSX2/soccerlg_s6_b3.c:82: Ball->frame = SPR_BALL_SIZE_1;
	ld	hl, #0x0060
	ld	((_SwSprite + 337)), hl
;E:\Dropbox\FAUSTO\SVILUPPI\MSX\CODE\C\MSXgl\projects\soccerlgMSX2/soccerlg_s6_b3.c:83: Player->count = 0; // Ferma la scivolata appena ruba palla
	ld	l, -13 (ix)
	ld	h, -12 (ix)
	xor	a, a
	ld	(hl), a
	inc	hl
	ld	(hl), a
;E:\Dropbox\FAUSTO\SVILUPPI\MSX\CODE\C\MSXgl\projects\soccerlgMSX2/soccerlg_s6_b3.c:85: return; // Salta il resto della logica finché è in scivolata
	jp	00173$
00150$:
;E:\Dropbox\FAUSTO\SVILUPPI\MSX\CODE\C\MSXgl\projects\soccerlgMSX2/soccerlg_s6_b3.c:93: if (is_gk) {
	ld	a, -2 (ix)
	or	a, a
	jp	Z, 00172$
;E:\Dropbox\FAUSTO\SVILUPPI\MSX\CODE\C\MSXgl\projects\soccerlgMSX2/soccerlg_s6_b3.c:94: if (Ball->lx > Player->lx + 4) target_x = Player->lx + 2;
	ld	a, (#(_SwSprite + 322) + 0)
	ld	-3 (ix), a
	pop	hl
	push	hl
	ld	a, (hl)
	ld	-2 (ix), a
	ld	-9 (ix), a
	ld	-8 (ix), #0x00
	ld	l, a
	ld	h, #0x00
	ld	de, #0x0004
	add	hl, de
	ld	a, -3 (ix)
	ld	-7 (ix), a
	ld	-6 (ix), #0x00
	ld	a, l
	sub	a, -7 (ix)
	ld	a, h
	sbc	a, -6 (ix)
	jp	PO, 00548$
	xor	a, #0x80
00548$:
	jp	P, 00156$
	ld	a, -9 (ix)
	add	a, #0x02
	ld	-4 (ix), a
	ld	a, -8 (ix)
	adc	a, #0x00
	ld	-3 (ix), a
	ld	a, -4 (ix)
	ld	-9 (ix), a
	ld	a, -3 (ix)
	ld	-8 (ix), a
	jp	00157$
00156$:
;E:\Dropbox\FAUSTO\SVILUPPI\MSX\CODE\C\MSXgl\projects\soccerlgMSX2/soccerlg_s6_b3.c:95: else if (Ball->lx < Player->lx - 4) target_x = Player->lx - 2;
	ld	a, -9 (ix)
	add	a, #0xfc
	ld	-5 (ix), a
	ld	a, -8 (ix)
	adc	a, #0xff
	ld	-4 (ix), a
	ld	a, -7 (ix)
	sub	a, -5 (ix)
	ld	a, -6 (ix)
	sbc	a, -4 (ix)
	jp	PO, 00549$
	xor	a, #0x80
00549$:
	jp	P, 00153$
	ld	a, -9 (ix)
	add	a, #0xfe
	ld	-4 (ix), a
	ld	a, -8 (ix)
	adc	a, #0xff
	ld	-3 (ix), a
	ld	a, -4 (ix)
	ld	-9 (ix), a
	ld	a, -3 (ix)
	ld	-8 (ix), a
	jp	00157$
00153$:
;E:\Dropbox\FAUSTO\SVILUPPI\MSX\CODE\C\MSXgl\projects\soccerlgMSX2/soccerlg_s6_b3.c:96: else target_x = Ball->lx;
	ld	a, -3 (ix)
	ld	-9 (ix), a
	ld	-8 (ix), #0x00
00157$:
;E:\Dropbox\FAUSTO\SVILUPPI\MSX\CODE\C\MSXgl\projects\soccerlgMSX2/soccerlg_s6_b3.c:99: if (target_x < 88) target_x = 88;
	ld	a, -9 (ix)
	ld	b, -8 (ix)
	sub	a, #0x58
	ld	a, b
	sbc	a, #0x00
	jr	NC, 00159$
	ld	-9 (ix), #0x58
	ld	-8 (ix), #0
00159$:
;E:\Dropbox\FAUSTO\SVILUPPI\MSX\CODE\C\MSXgl\projects\soccerlgMSX2/soccerlg_s6_b3.c:100: if (target_x > 140) target_x = 140;
	ld	c, -9 (ix)
	ld	b, -8 (ix)
	ld	a, #0x8c
	cp	a, c
	ld	a, #0x00
	sbc	a, b
	jr	NC, 00161$
	ld	-9 (ix), #0x8c
	ld	-8 (ix), #0
00161$:
;E:\Dropbox\FAUSTO\SVILUPPI\MSX\CODE\C\MSXgl\projects\soccerlgMSX2/soccerlg_s6_b3.c:102: target_y = (team == TEAM_1) ? 32 : 452;
	ld	a, -14 (ix)
	or	a, a
	jr	NZ, 00211$
	ld	de, #0x0020
	jp	00212$
00211$:
	ld	de, #0x01c4
00212$:
	ld	-7 (ix), e
	ld	-6 (ix), d
;E:\Dropbox\FAUSTO\SVILUPPI\MSX\CODE\C\MSXgl\projects\soccerlgMSX2/soccerlg_s6_b3.c:104: Player->dx = (target_x > Player->lx) ? 1 : ((target_x < Player->lx) ? -1 : 0);
	ld	a, -16 (ix)
	add	a, #0x11
	ld	-5 (ix), a
	ld	a, -15 (ix)
	adc	a, #0x00
	ld	-4 (ix), a
	ld	a, -2 (ix)
	ld	-3 (ix), a
	ld	-2 (ix), #0x00
	ld	a, -3 (ix)
	sub	a, -9 (ix)
	ld	a, -2 (ix)
	sbc	a, -8 (ix)
	jr	NC, 00213$
	ld	-3 (ix), #0x01
	ld	-2 (ix), #0
	jp	00214$
00213$:
	ld	a, -9 (ix)
	sub	a, -3 (ix)
	ld	a, -8 (ix)
	sbc	a, -2 (ix)
	jr	NC, 00215$
	ld	-3 (ix), #0xff
	ld	-2 (ix), #0xff
	jp	00216$
00215$:
	xor	a, a
	ld	-3 (ix), a
	ld	-2 (ix), a
00216$:
00214$:
	ld	a, -3 (ix)
	ld	-2 (ix), a
	ld	l, -5 (ix)
	ld	h, -4 (ix)
	ld	a, -2 (ix)
	ld	(hl), a
;E:\Dropbox\FAUSTO\SVILUPPI\MSX\CODE\C\MSXgl\projects\soccerlgMSX2/soccerlg_s6_b3.c:105: Player->dy = 0;
	pop	hl
	push	hl
	ld	de, #0x0012
	add	hl, de
	ld	(hl), #0x00
;E:\Dropbox\FAUSTO\SVILUPPI\MSX\CODE\C\MSXgl\projects\soccerlgMSX2/soccerlg_s6_b3.c:107: Player->lx += Player->dx;
	pop	hl
	push	hl
	ld	a, (hl)
	add	a, -2 (ix)
	pop	hl
	push	hl
	ld	(hl), a
;E:\Dropbox\FAUSTO\SVILUPPI\MSX\CODE\C\MSXgl\projects\soccerlgMSX2/soccerlg_s6_b3.c:108: Player->ly = target_y; // Forza la Y corretta
	ld	a, -16 (ix)
	add	a, #0x04
	ld	-4 (ix), a
	ld	a, -15 (ix)
	adc	a, #0x00
	ld	-3 (ix), a
	ld	l, -4 (ix)
	ld	h, -3 (ix)
	ld	a, -7 (ix)
	ld	(hl), a
	inc	hl
	ld	a, -6 (ix)
	ld	(hl), a
;E:\Dropbox\FAUSTO\SVILUPPI\MSX\CODE\C\MSXgl\projects\soccerlgMSX2/soccerlg_s6_b3.c:110: Player->anim++;
	ld	a, -16 (ix)
	add	a, #0x13
	ld	-8 (ix), a
	ld	a, -15 (ix)
	adc	a, #0x00
	ld	-7 (ix), a
	ld	l, -8 (ix)
	ld	h, -7 (ix)
	ld	a, (hl)
	ld	-6 (ix), a
	inc	hl
	ld	a, (hl)
	ld	-5 (ix), a
	ld	a, -6 (ix)
	add	a, #0x01
	ld	-4 (ix), a
	ld	a, -5 (ix)
	adc	a, #0x00
	ld	-3 (ix), a
	ld	l, -8 (ix)
	ld	h, -7 (ix)
	ld	a, -4 (ix)
	ld	(hl), a
	inc	hl
	ld	a, -3 (ix)
	ld	(hl), a
;E:\Dropbox\FAUSTO\SVILUPPI\MSX\CODE\C\MSXgl\projects\soccerlgMSX2/soccerlg_s6_b3.c:60: Player->frame = (Player->dx > 0) ? 
	ld	a, -16 (ix)
	add	a, #0x0f
	ld	-6 (ix), a
	ld	a, -15 (ix)
	adc	a, #0x00
	ld	-5 (ix), a
;E:\Dropbox\FAUSTO\SVILUPPI\MSX\CODE\C\MSXgl\projects\soccerlgMSX2/soccerlg_s6_b3.c:112: if (team == TEAM_1) Player->frame = ((Player->anim / 6) % 2 == 0) ? SPR_GK_PLAYER_SOUTH_1 : SPR_GK_PLAYER_SOUTH_2;
;E:\Dropbox\FAUSTO\SVILUPPI\MSX\CODE\C\MSXgl\projects\soccerlgMSX2/soccerlg_s6_b3.c:111: if (Player->dx != 0) {
	ld	a, -2 (ix)
	or	a, a
	jp	Z, 00169$
;E:\Dropbox\FAUSTO\SVILUPPI\MSX\CODE\C\MSXgl\projects\soccerlgMSX2/soccerlg_s6_b3.c:112: if (team == TEAM_1) Player->frame = ((Player->anim / 6) % 2 == 0) ? SPR_GK_PLAYER_SOUTH_1 : SPR_GK_PLAYER_SOUTH_2;
	ld	de, #0x0006
	ld	l, -4 (ix)
;	spillPairReg hl
;	spillPairReg hl
	ld	h, -3 (ix)
;	spillPairReg hl
;	spillPairReg hl
	call	__divuint
	ld	-8 (ix), e
	ld	-7 (ix), d
	ld	a, -8 (ix)
	and	a, #0x01
	ld	-3 (ix), a
	ld	-2 (ix), #0x00
	ld	a, -14 (ix)
	or	a, a
	jr	NZ, 00163$
	ld	a, -2 (ix)
	or	a, -3 (ix)
	jr	NZ, 00217$
	ld	-3 (ix), #0xf2
	ld	-2 (ix), #0
	jp	00218$
00217$:
	ld	-3 (ix), #0xf5
	ld	-2 (ix), #0
00218$:
	ld	l, -6 (ix)
	ld	h, -5 (ix)
	ld	a, -3 (ix)
	ld	(hl), a
	inc	hl
	ld	a, -2 (ix)
	ld	(hl), a
	jp	00173$
00163$:
;E:\Dropbox\FAUSTO\SVILUPPI\MSX\CODE\C\MSXgl\projects\soccerlgMSX2/soccerlg_s6_b3.c:113: else                Player->frame = ((Player->anim / 6) % 2 == 0) ? SPR_GK_PLAYER_NORTH_1 : SPR_GK_PLAYER_NORTH_2;
	ld	a, -2 (ix)
	or	a, -3 (ix)
	jr	NZ, 00219$
	ld	-3 (ix), #0xf2
	ld	-2 (ix), #0
	jp	00220$
00219$:
	ld	-3 (ix), #0xf5
	ld	-2 (ix), #0
00220$:
	ld	c, -3 (ix)
	ld	b, -2 (ix)
	ld	l, -6 (ix)
	ld	h, -5 (ix)
	ld	(hl), c
	inc	hl
	ld	(hl), b
	jp	00173$
00169$:
;E:\Dropbox\FAUSTO\SVILUPPI\MSX\CODE\C\MSXgl\projects\soccerlgMSX2/soccerlg_s6_b3.c:116: if (team == TEAM_1) Player->frame = ((Player->anim / 30) % 2 == 0) ? SPR_GK_PLAYER_SOUTH_1 : SPR_GK_PLAYER_SOUTH_2;
	ld	de, #0x001e
	ld	l, -4 (ix)
;	spillPairReg hl
;	spillPairReg hl
	ld	h, -3 (ix)
;	spillPairReg hl
;	spillPairReg hl
	call	__divuint
	ld	-8 (ix), e
	ld	-7 (ix), d
	ld	a, -8 (ix)
	and	a, #0x01
	ld	-3 (ix), a
	ld	-2 (ix), #0x00
	ld	a, -14 (ix)
	or	a, a
	jr	NZ, 00166$
	ld	a, -2 (ix)
	or	a, -3 (ix)
	jr	NZ, 00221$
	ld	-3 (ix), #0xf2
	ld	-2 (ix), #0
	jp	00222$
00221$:
	ld	-3 (ix), #0xf5
	ld	-2 (ix), #0
00222$:
	ld	l, -6 (ix)
	ld	h, -5 (ix)
	ld	a, -3 (ix)
	ld	(hl), a
	inc	hl
	ld	a, -2 (ix)
	ld	(hl), a
	jp	00173$
00166$:
;E:\Dropbox\FAUSTO\SVILUPPI\MSX\CODE\C\MSXgl\projects\soccerlgMSX2/soccerlg_s6_b3.c:117: else                Player->frame = ((Player->anim / 30) % 2 == 0) ? SPR_GK_PLAYER_NORTH_1 : SPR_GK_PLAYER_NORTH_2;
	ld	a, -2 (ix)
	or	a, -3 (ix)
	jr	NZ, 00223$
	ld	-3 (ix), #0xf2
	ld	-2 (ix), #0
	jp	00224$
00223$:
	ld	-3 (ix), #0xf5
	ld	-2 (ix), #0
00224$:
	ld	c, -3 (ix)
	ld	b, -2 (ix)
	ld	l, -6 (ix)
	ld	h, -5 (ix)
	ld	(hl), c
	inc	hl
	ld	(hl), b
;E:\Dropbox\FAUSTO\SVILUPPI\MSX\CODE\C\MSXgl\projects\soccerlgMSX2/soccerlg_s6_b3.c:119: return;
	jp	00173$
00172$:
;E:\Dropbox\FAUSTO\SVILUPPI\MSX\CODE\C\MSXgl\projects\soccerlgMSX2/soccerlg_s6_b3.c:123: CallFnc_VOID_P1(SEG_LOGIC_2, PlayerAI_Movement, i);
	ld	a, -1 (ix)
	push	af
	inc	sp
	ld	de, #_PlayerAI_Movement
	ld	a, #0x15
	call	_CallFnc_VOID_P1
00173$:
;E:\Dropbox\FAUSTO\SVILUPPI\MSX\CODE\C\MSXgl\projects\soccerlgMSX2/soccerlg_s6_b3.c:124: }
	ld	sp, ix
	pop	ix
	ret
_g_RDPRIM	=	0xf380
_g_WRPRIM	=	0xf385
_g_CLPRIM	=	0xf38c
_g_USRTAB	=	0xf39a
_g_CNSDFG	=	0xf3de
_g_RG0SAV	=	0xf3df
_g_RG1SAV	=	0xf3e0
_g_RG2SAV	=	0xf3e1
_g_RG3SAV	=	0xf3e2
_g_RG4SAV	=	0xf3e3
_g_RG5SAV	=	0xf3e4
_g_RG6SAV	=	0xf3e5
_g_RG7SAV	=	0xf3e6
_g_STATFL	=	0xf3e7
_g_TRGFLG	=	0xf3e8
_g_MAXUPD	=	0xf3ec
_g_MINUPD	=	0xf3ef
_g_QUEUES	=	0xf3f3
_g_FRCNEW	=	0xf3f5
_g_SCNCNT	=	0xf3f6
_g_REPCNT	=	0xf3f7
_g_PUTPNT	=	0xf3f8
_g_GETPNT	=	0xf3fa
_g_CS120	=	0xf3fc
_g_CS240	=	0xf401
_g_LOW	=	0xf406
_g_HIGH	=	0xf408
_g_HEADER	=	0xf40a
_g_ASPCT1	=	0xf40b
_g_ASPCT2	=	0xf40d
_g_QUETAB	=	0xf959
_g_QUEBAK	=	0xf971
_g_VOICAQ	=	0xf975
_g_VOICBQ	=	0xf9f5
_g_VOICCQ	=	0xfa75
_g_RS2IQ	=	0xfaf5
_g_DPPAGE	=	0xfaf5
_g_ACPAGE	=	0xfaf6
_g_AVCSAV	=	0xfaf7
_g_EXBRSA	=	0xfaf8
_g_CHRCNT	=	0xfaf9
_g_ROMA	=	0xfafa
_g_MODE	=	0xfafc
_g_NORUSE	=	0xfafd
_g_XSAVE	=	0xfafe
_g_YSAVE	=	0xfb00
_g_RSTMP	=	0xfb03
_g_TOCNT	=	0xfb03
_g_RSFCB	=	0xfb04
_g_RSIQLN	=	0xfb06
_g_MEXBIh	=	0xfb07
_g_OLDSTT	=	0xfb0c
_g_OLDINT	=	0xfb0c
_g_DEVNUM	=	0xfb16
_g_DATCNT	=	0xfb17
_g_ERRORS	=	0xfb1a
_g_FLAGS	=	0xfb1b
_g_ESTBLS	=	0xfb1c
_g_COMMSK	=	0xfb1d
_g_LSTCOM	=	0xfb1e
_g_LSTMOD	=	0xfb1f
_g_PRSCNT	=	0xfb35
_g_SAVSP	=	0xfb36
_g_VOICEN	=	0xfb38
_g_SAVVOL	=	0xfb39
_g_MCLLEN	=	0xfb3b
_g_MCLPTR	=	0xfb3c
_g_QUEUEN	=	0xfb3e
_g_MUSICF	=	0xfb3f
_g_PLYCNT	=	0xfb40
_g_VCBA	=	0xfb41
_g_VCBB	=	0xfb66
_g_VCBC	=	0xfb8b
_g_ENSTOP	=	0xfbb0
_g_BASROM	=	0xfbb1
_g_LINTTB	=	0xfbb2
_g_FSTPOS	=	0xfbca
_g_CODSAV	=	0xfbcc
_g_FNKSWI	=	0xfbcd
_g_FNKFLG	=	0xfbce
_g_ONGSBF	=	0xfbd8
_g_CLIKFL	=	0xfbd9
_g_OLDKEY	=	0xfbda
_g_NEWKEY	=	0xfbe5
_g_KEYBUF	=	0xfbf0
_g_LINWRK	=	0xfc18
_g_PATWRK	=	0xfc40
_g_BOTTOM	=	0xfc48
_g_HIMEM	=	0xfc4a
_g_TRPTBL	=	0xfc4c
_g_RTYCNT	=	0xfc9a
_g_INTFLG	=	0xfc9b
_g_PADY	=	0xfc9c
_g_PADX	=	0xfc9d
_g_JIFFY	=	0xfc9e
_g_INTVAL	=	0xfca0
_g_INTCNT	=	0xfca2
_g_LOWLIM	=	0xfca4
_g_WINWID	=	0xfca5
_g_GRPHED	=	0xfca6
_g_ESCCNT	=	0xfca7
_g_INSFLG	=	0xfca8
_g_CSRSW	=	0xfca9
_g_CSTYLE	=	0xfcaa
_g_CAPST	=	0xfcab
_g_KANAST	=	0xfcac
_g_KANAMD	=	0xfcad
_g_FLBMEM	=	0xfcae
_g_SCRMOD	=	0xfcaf
_g_OLDSCR	=	0xfcb0
_g_CASPRV	=	0xfcb1
_g_BRDATR	=	0xfcb2
_g_GXPOS	=	0xfcb3
_g_GYPOS	=	0xfcb5
_g_DRWFLG	=	0xfcbb
_g_DRWSCL	=	0xfcbc
_g_DRWANG	=	0xfcbd
_g_MNROM	=	0xfcc1
_g_EXPTBL	=	0xfcc1
_g_SLTTBL	=	0xfcc5
_g_SLTATR	=	0xfcc9
_g_SLTWRK	=	0xfd09
_g_PROCNM	=	0xfd89
_g_RG08SAV	=	0xffe7
_g_RG09SAV	=	0xffe8
_g_RG10SAV	=	0xffe9
_g_RG11SAV	=	0xffea
_g_RG12SAV	=	0xffeb
_g_RG13SAV	=	0xffec
_g_RG14SAV	=	0xffed
_g_RG15SAV	=	0xffee
_g_RG16SAV	=	0xffef
_g_RG17SAV	=	0xfff0
_g_RG18SAV	=	0xfff1
_g_RG19SAV	=	0xfff2
_g_RG20SAV	=	0xfff3
_g_RG21SAV	=	0xfff4
_g_RG22SAV	=	0xfff5
_g_RG23SAV	=	0xfff6
_g_MINROM	=	0xfff7
_g_SVFFF8	=	0xfff8
_g_RG25SAV	=	0xfffa
_g_RG26SAV	=	0xfffb
_g_RG27SAV	=	0xfffc
_g_SVFFFD	=	0xfffd
_g_CGTABL	=	0x0004
_g_VDP_DR	=	0x0006
_g_VDP_DW	=	0x0007
_g_BASRVN	=	0x002b
_g_ROMVersion	=	0x002b
_g_MSXVER	=	0x002d
_g_MSXMID	=	0x002e
_g_CHAR_16	=	0x0034
_g_SUBRID	=	0x0000
_g_STRSRC	=	0x0002
_g_KANJTABLE	=	0xf30f
_g_DISKVE	=	0xf323
_g_BREAKV	=	0xf325
_g_RAMAD0	=	0xf341
_g_RAMAD1	=	0xf342
_g_RAMAD2	=	0xf343
_g_RAMAD3	=	0xf344
_g_MASTER	=	0xf348
_g_BDOS	=	0xf37d
	.area _SEG6
	.area _INITIALIZER
	.area _CABS (ABS)
