                                      1 ;--------------------------------------------------------
                                      2 ; File Created by SDCC : free open source ANSI-C Compiler
                                      3 ; Version 4.2.0 #13081 (MINGW64)
                                      4 ;--------------------------------------------------------
                                      5 	.module soccerlg_s9_b3
                                      6 	.optsdcc -mz80
                                      7 	
                                      8 ;--------------------------------------------------------
                                      9 ; Public variables in this module
                                     10 ;--------------------------------------------------------
                                     11 	.globl _CheckFieldBoundaries
                                     12 	.globl _UpdateFieldCamera
                                     13 	.globl _UpdateGameState_Restarts
                                     14 	.globl _GetPlayerIdleFrame
                                     15 	.globl _GetPlayerAnimFrame
                                     16 	.globl _AssignKickOffTargets
                                     17 	.globl _EventOffside
                                     18 	.globl _EventHalfTime
                                     19 	.globl _EventBallKicked
                                     20 	.globl _EventKickOffReady
                                     21 	.globl _EventPlayerFirstPresentationStarted
                                     22 	.globl _GetJoystickDirection
                                     23 	.globl _IsTeamJoystickTriggerPressed
                                     24 	.globl _FindReceiver
                                     25 	.globl _SetBallSprite
                                     26 	.globl _PlayerAI
                                     27 	.globl _HideSpriteMessage
                                     28 	.globl _ShowSpriteMessage
                                     29 	.globl _CallFnc_U16_P4B
                                     30 	.globl _CallFnc_U16_P4
                                     31 	.globl _CallFnc_U16_P3
                                     32 	.globl _CallFnc_U8_P1
                                     33 	.globl _CallFnc_BOOL_P1
                                     34 	.globl _CallFnc_VOID_16_P1
                                     35 	.globl _CallFnc_VOID_3PTR_U16
                                     36 	.globl _CallFnc_VOID_3PTR
                                     37 	.globl _CallFnc_VOID_P1
                                     38 	.globl _CallFnc_VOID
                                     39 	.globl _g_SLTSL
                                     40 	.globl _g_GRPACY
                                     41 	.globl _g_GRPACX
                                     42 	.globl _g_LOGOPR
                                     43 	.globl _g_CMASK
                                     44 	.globl _g_CLOC
                                     45 	.globl _g_FNKSTR
                                     46 	.globl _g_ATRBYT
                                     47 	.globl _g_BDRCLR
                                     48 	.globl _g_BAKCLR
                                     49 	.globl _g_FORCLR
                                     50 	.globl _g_CSRX
                                     51 	.globl _g_CSRY
                                     52 	.globl _g_CLIKSW
                                     53 	.globl _g_MLTPAT
                                     54 	.globl _g_MLTATR
                                     55 	.globl _g_MLTCGP
                                     56 	.globl _g_MLTCOL
                                     57 	.globl _g_MLTNAM
                                     58 	.globl _g_GRPPAT
                                     59 	.globl _g_GRPATR
                                     60 	.globl _g_GRPCGP
                                     61 	.globl _g_GRPCOL
                                     62 	.globl _g_GRPNAM
                                     63 	.globl _g_T32PAT
                                     64 	.globl _g_T32ATR
                                     65 	.globl _g_T32CGP
                                     66 	.globl _g_T32COL
                                     67 	.globl _g_T32NAM
                                     68 	.globl _g_TXTPAT
                                     69 	.globl _g_TXTATR
                                     70 	.globl _g_TXTCGP
                                     71 	.globl _g_TXTCOL
                                     72 	.globl _g_TXTNAM
                                     73 	.globl _g_CLMLST
                                     74 	.globl _g_CRTCNT
                                     75 	.globl _g_LINLEN
                                     76 	.globl _g_LINL32
                                     77 	.globl _g_LINL40
                                     78 	.globl _g_BDOS
                                     79 	.globl _g_MASTER
                                     80 	.globl _g_RAMAD3
                                     81 	.globl _g_RAMAD2
                                     82 	.globl _g_RAMAD1
                                     83 	.globl _g_RAMAD0
                                     84 	.globl _g_BREAKV
                                     85 	.globl _g_DISKVE
                                     86 	.globl _g_KANJTABLE
                                     87 	.globl _g_STRSRC
                                     88 	.globl _g_SUBRID
                                     89 	.globl _g_CHAR_16
                                     90 	.globl _g_MSXMID
                                     91 	.globl _g_MSXVER
                                     92 	.globl _g_ROMVersion
                                     93 	.globl _g_BASRVN
                                     94 	.globl _g_VDP_DW
                                     95 	.globl _g_VDP_DR
                                     96 	.globl _g_CGTABL
                                     97 	.globl _g_SVFFFD
                                     98 	.globl _g_RG27SAV
                                     99 	.globl _g_RG26SAV
                                    100 	.globl _g_RG25SAV
                                    101 	.globl _g_SVFFF8
                                    102 	.globl _g_MINROM
                                    103 	.globl _g_RG23SAV
                                    104 	.globl _g_RG22SAV
                                    105 	.globl _g_RG21SAV
                                    106 	.globl _g_RG20SAV
                                    107 	.globl _g_RG19SAV
                                    108 	.globl _g_RG18SAV
                                    109 	.globl _g_RG17SAV
                                    110 	.globl _g_RG16SAV
                                    111 	.globl _g_RG15SAV
                                    112 	.globl _g_RG14SAV
                                    113 	.globl _g_RG13SAV
                                    114 	.globl _g_RG12SAV
                                    115 	.globl _g_RG11SAV
                                    116 	.globl _g_RG10SAV
                                    117 	.globl _g_RG09SAV
                                    118 	.globl _g_RG08SAV
                                    119 	.globl _g_PROCNM
                                    120 	.globl _g_SLTWRK
                                    121 	.globl _g_SLTATR
                                    122 	.globl _g_SLTTBL
                                    123 	.globl _g_EXPTBL
                                    124 	.globl _g_MNROM
                                    125 	.globl _g_DRWANG
                                    126 	.globl _g_DRWSCL
                                    127 	.globl _g_DRWFLG
                                    128 	.globl _g_GYPOS
                                    129 	.globl _g_GXPOS
                                    130 	.globl _g_BRDATR
                                    131 	.globl _g_CASPRV
                                    132 	.globl _g_OLDSCR
                                    133 	.globl _g_SCRMOD
                                    134 	.globl _g_FLBMEM
                                    135 	.globl _g_KANAMD
                                    136 	.globl _g_KANAST
                                    137 	.globl _g_CAPST
                                    138 	.globl _g_CSTYLE
                                    139 	.globl _g_CSRSW
                                    140 	.globl _g_INSFLG
                                    141 	.globl _g_ESCCNT
                                    142 	.globl _g_GRPHED
                                    143 	.globl _g_WINWID
                                    144 	.globl _g_LOWLIM
                                    145 	.globl _g_INTCNT
                                    146 	.globl _g_INTVAL
                                    147 	.globl _g_JIFFY
                                    148 	.globl _g_PADX
                                    149 	.globl _g_PADY
                                    150 	.globl _g_INTFLG
                                    151 	.globl _g_RTYCNT
                                    152 	.globl _g_TRPTBL
                                    153 	.globl _g_HIMEM
                                    154 	.globl _g_BOTTOM
                                    155 	.globl _g_PATWRK
                                    156 	.globl _g_LINWRK
                                    157 	.globl _g_KEYBUF
                                    158 	.globl _g_NEWKEY
                                    159 	.globl _g_OLDKEY
                                    160 	.globl _g_CLIKFL
                                    161 	.globl _g_ONGSBF
                                    162 	.globl _g_FNKFLG
                                    163 	.globl _g_FNKSWI
                                    164 	.globl _g_CODSAV
                                    165 	.globl _g_FSTPOS
                                    166 	.globl _g_LINTTB
                                    167 	.globl _g_BASROM
                                    168 	.globl _g_ENSTOP
                                    169 	.globl _g_VCBC
                                    170 	.globl _g_VCBB
                                    171 	.globl _g_VCBA
                                    172 	.globl _g_PLYCNT
                                    173 	.globl _g_MUSICF
                                    174 	.globl _g_QUEUEN
                                    175 	.globl _g_MCLPTR
                                    176 	.globl _g_MCLLEN
                                    177 	.globl _g_SAVVOL
                                    178 	.globl _g_VOICEN
                                    179 	.globl _g_SAVSP
                                    180 	.globl _g_PRSCNT
                                    181 	.globl _g_LSTMOD
                                    182 	.globl _g_LSTCOM
                                    183 	.globl _g_COMMSK
                                    184 	.globl _g_ESTBLS
                                    185 	.globl _g_FLAGS
                                    186 	.globl _g_ERRORS
                                    187 	.globl _g_DATCNT
                                    188 	.globl _g_DEVNUM
                                    189 	.globl _g_OLDINT
                                    190 	.globl _g_OLDSTT
                                    191 	.globl _g_MEXBIh
                                    192 	.globl _g_RSIQLN
                                    193 	.globl _g_RSFCB
                                    194 	.globl _g_TOCNT
                                    195 	.globl _g_RSTMP
                                    196 	.globl _g_YSAVE
                                    197 	.globl _g_XSAVE
                                    198 	.globl _g_NORUSE
                                    199 	.globl _g_MODE
                                    200 	.globl _g_ROMA
                                    201 	.globl _g_CHRCNT
                                    202 	.globl _g_EXBRSA
                                    203 	.globl _g_AVCSAV
                                    204 	.globl _g_ACPAGE
                                    205 	.globl _g_DPPAGE
                                    206 	.globl _g_RS2IQ
                                    207 	.globl _g_VOICCQ
                                    208 	.globl _g_VOICBQ
                                    209 	.globl _g_VOICAQ
                                    210 	.globl _g_QUEBAK
                                    211 	.globl _g_QUETAB
                                    212 	.globl _g_ASPCT2
                                    213 	.globl _g_ASPCT1
                                    214 	.globl _g_HEADER
                                    215 	.globl _g_HIGH
                                    216 	.globl _g_LOW
                                    217 	.globl _g_CS240
                                    218 	.globl _g_CS120
                                    219 	.globl _g_GETPNT
                                    220 	.globl _g_PUTPNT
                                    221 	.globl _g_REPCNT
                                    222 	.globl _g_SCNCNT
                                    223 	.globl _g_FRCNEW
                                    224 	.globl _g_QUEUES
                                    225 	.globl _g_MINUPD
                                    226 	.globl _g_MAXUPD
                                    227 	.globl _g_TRGFLG
                                    228 	.globl _g_STATFL
                                    229 	.globl _g_RG7SAV
                                    230 	.globl _g_RG6SAV
                                    231 	.globl _g_RG5SAV
                                    232 	.globl _g_RG4SAV
                                    233 	.globl _g_RG3SAV
                                    234 	.globl _g_RG2SAV
                                    235 	.globl _g_RG1SAV
                                    236 	.globl _g_RG0SAV
                                    237 	.globl _g_CNSDFG
                                    238 	.globl _g_USRTAB
                                    239 	.globl _g_CLPRIM
                                    240 	.globl _g_WRPRIM
                                    241 	.globl _g_RDPRIM
                                    242 	.globl _UpdateGameState
                                    243 ;--------------------------------------------------------
                                    244 ; special function registers
                                    245 ;--------------------------------------------------------
                         000000A8   246 _g_PortPrimarySlot	=	0x00a8
                         000000A9   247 _g_PortReadKeyboard	=	0x00a9
                         000000AA   248 _g_PortAccessKeyboard	=	0x00aa
                         000000AB   249 _g_PortControl	=	0x00ab
                         00000098   250 _g_VDP_DataPort	=	0x0098
                         00000099   251 _g_VDP_RegPort	=	0x0099
                         00000099   252 _g_VDP_AddrPort	=	0x0099
                         00000099   253 _g_VDP_StatPort	=	0x0099
                         0000009A   254 _g_VDP_PalPort	=	0x009a
                         0000009B   255 _g_VDP_IRegPort	=	0x009b
                         000000A0   256 _g_PSG_RegPort	=	0x00a0
                         000000A1   257 _g_PSG_DataPort	=	0x00a1
                         000000A2   258 _g_PSG_StatPort	=	0x00a2
                         00000010   259 _g_PSG_Ext_RegPort	=	0x0010
                         00000011   260 _g_PSG_Ext_DataPort	=	0x0011
                         00000012   261 _g_PSG_Ext_StatPort	=	0x0012
                         0000007C   262 _g_MSXMusic_IndexPort	=	0x007c
                         0000007D   263 _g_MSXMusic_DataPort	=	0x007d
                         000000C0   264 _g_MSXAudio_IndexPort	=	0x00c0
                         000000C1   265 _g_MSXAudio_DataPort	=	0x00c1
                         000000C2   266 _g_MSXAudio_IndexPort2	=	0x00c2
                         000000C3   267 _g_MSXAudio_DataPort2	=	0x00c3
                         000000B4   268 _g_RTC_AddrPort	=	0x00b4
                         000000B5   269 _g_RTC_DataPort	=	0x00b5
                                    270 ;--------------------------------------------------------
                                    271 ; ram data
                                    272 ;--------------------------------------------------------
                                    273 	.area _DATA
                         0000F3AE   274 _g_LINL40	=	0xf3ae
                         0000F3AF   275 _g_LINL32	=	0xf3af
                         0000F3B0   276 _g_LINLEN	=	0xf3b0
                         0000F3B1   277 _g_CRTCNT	=	0xf3b1
                         0000F3B2   278 _g_CLMLST	=	0xf3b2
                         0000F3B3   279 _g_TXTNAM	=	0xf3b3
                         0000F3B5   280 _g_TXTCOL	=	0xf3b5
                         0000F3B7   281 _g_TXTCGP	=	0xf3b7
                         0000F3B9   282 _g_TXTATR	=	0xf3b9
                         0000F3BB   283 _g_TXTPAT	=	0xf3bb
                         0000F3BD   284 _g_T32NAM	=	0xf3bd
                         0000F3BF   285 _g_T32COL	=	0xf3bf
                         0000F3C1   286 _g_T32CGP	=	0xf3c1
                         0000F3C3   287 _g_T32ATR	=	0xf3c3
                         0000F3C5   288 _g_T32PAT	=	0xf3c5
                         0000F3C7   289 _g_GRPNAM	=	0xf3c7
                         0000F3C9   290 _g_GRPCOL	=	0xf3c9
                         0000F3CB   291 _g_GRPCGP	=	0xf3cb
                         0000F3CD   292 _g_GRPATR	=	0xf3cd
                         0000F3CF   293 _g_GRPPAT	=	0xf3cf
                         0000F3D1   294 _g_MLTNAM	=	0xf3d1
                         0000F3D3   295 _g_MLTCOL	=	0xf3d3
                         0000F3D5   296 _g_MLTCGP	=	0xf3d5
                         0000F3D7   297 _g_MLTATR	=	0xf3d7
                         0000F3D9   298 _g_MLTPAT	=	0xf3d9
                         0000F3DB   299 _g_CLIKSW	=	0xf3db
                         0000F3DC   300 _g_CSRY	=	0xf3dc
                         0000F3DD   301 _g_CSRX	=	0xf3dd
                         0000F3E9   302 _g_FORCLR	=	0xf3e9
                         0000F3EA   303 _g_BAKCLR	=	0xf3ea
                         0000F3EB   304 _g_BDRCLR	=	0xf3eb
                         0000F3F2   305 _g_ATRBYT	=	0xf3f2
                         0000F87F   306 _g_FNKSTR	=	0xf87f
                         0000F92A   307 _g_CLOC	=	0xf92a
                         0000F92C   308 _g_CMASK	=	0xf92c
                         0000FB02   309 _g_LOGOPR	=	0xfb02
                         0000FCB7   310 _g_GRPACX	=	0xfcb7
                         0000FCB9   311 _g_GRPACY	=	0xfcb9
                         0000FFFF   312 _g_SLTSL	=	0xffff
                                    313 ;--------------------------------------------------------
                                    314 ; ram data
                                    315 ;--------------------------------------------------------
                                    316 	.area _INITIALIZED
                                    317 ;--------------------------------------------------------
                                    318 ; absolute external ram data
                                    319 ;--------------------------------------------------------
                                    320 	.area _DABS (ABS)
                                    321 ;--------------------------------------------------------
                                    322 ; global & static initialisations
                                    323 ;--------------------------------------------------------
                                    324 	.area _HOME
                                    325 	.area _GSINIT
                                    326 	.area _GSFINAL
                                    327 	.area _GSINIT
                                    328 ;--------------------------------------------------------
                                    329 ; Home
                                    330 ;--------------------------------------------------------
                                    331 	.area _HOME
                                    332 	.area _HOME
                                    333 ;--------------------------------------------------------
                                    334 ; code
                                    335 ;--------------------------------------------------------
                                    336 	.area _SEG9
                                    337 ;E:\Dropbox\FAUSTO\SVILUPPI\MSX\CODE\C\MSXgl\projects\soccerlgMSX2/soccerlg_s9_b3.c:11: void UpdateGameState(u8* game_state, u8* wait_secs, u8* start_sec, u16 target_ly) 
                                    338 ;	---------------------------------
                                    339 ; Function UpdateGameState
                                    340 ; ---------------------------------
    00000000                        341 _UpdateGameState::
    00000000 DD E5            [15]  342 	push	ix
    00000002 DD 21 00 00      [14]  343 	ld	ix,#0
    00000006 DD 39            [15]  344 	add	ix,sp
    00000008 FD 21 DA FF      [14]  345 	ld	iy, #-38
    0000000C FD 39            [15]  346 	add	iy, sp
    0000000E FD F9            [10]  347 	ld	sp, iy
    00000010 DD 75 FD         [19]  348 	ld	-3 (ix), l
    00000013 DD 74 FE         [19]  349 	ld	-2 (ix), h
    00000016 DD 73 FB         [19]  350 	ld	-5 (ix), e
    00000019 DD 72 FC         [19]  351 	ld	-4 (ix), d
                                    352 ;E:\Dropbox\FAUSTO\SVILUPPI\MSX\CODE\C\MSXgl\projects\soccerlgMSX2/soccerlg_s9_b3.c:13: if (*game_state == 0) {
    0000001C DD 6E FD         [19]  353 	ld	l, -3 (ix)
    0000001F DD 66 FE         [19]  354 	ld	h, -2 (ix)
    00000022 7E               [ 7]  355 	ld	a, (hl)
    00000023 DD 77 FF         [19]  356 	ld	-1 (ix), a
    00000026 B7               [ 4]  357 	or	a, a
    00000027 C2rB9r00         [10]  358 	jp	NZ, 00319$
                                    359 ;E:\Dropbox\FAUSTO\SVILUPPI\MSX\CODE\C\MSXgl\projects\soccerlgMSX2/soccerlg_s9_b3.c:14: if (Field.ly >= target_ly) {
    0000002A 21r04r00         [10]  360 	ld	hl, #(_Field + 4)
    0000002D 7E               [ 7]  361 	ld	a, (hl)
    0000002E DD 77 F7         [19]  362 	ld	-9 (ix), a
    00000031 23               [ 6]  363 	inc	hl
    00000032 7E               [ 7]  364 	ld	a, (hl)
    00000033 DD 77 F8         [19]  365 	ld	-8 (ix), a
                                    366 ;E:\Dropbox\FAUSTO\SVILUPPI\MSX\CODE\C\MSXgl\projects\soccerlgMSX2/soccerlg_s9_b3.c:15: Field.dy = 0; // Ferma lo scorrimento
                                    367 ;E:\Dropbox\FAUSTO\SVILUPPI\MSX\CODE\C\MSXgl\projects\soccerlgMSX2/soccerlg_s9_b3.c:14: if (Field.ly >= target_ly) {
    00000036 DD 7E F7         [19]  368 	ld	a, -9 (ix)
    00000039 DD 96 06         [19]  369 	sub	a, 6 (ix)
    0000003C DD 7E F8         [19]  370 	ld	a, -8 (ix)
    0000003F DD 9E 07         [19]  371 	sbc	a, 7 (ix)
    00000042 38 2E            [12]  372 	jr	C, 00102$
                                    373 ;E:\Dropbox\FAUSTO\SVILUPPI\MSX\CODE\C\MSXgl\projects\soccerlgMSX2/soccerlg_s9_b3.c:15: Field.dy = 0; // Ferma lo scorrimento
    00000044 21r12r00         [10]  374 	ld	hl, #(_Field + 18)
    00000047 36 00            [10]  375 	ld	(hl), #0x00
                                    376 ;E:\Dropbox\FAUSTO\SVILUPPI\MSX\CODE\C\MSXgl\projects\soccerlgMSX2/soccerlg_s9_b3.c:16: *game_state = 1;
    00000049 DD 6E FD         [19]  377 	ld	l, -3 (ix)
    0000004C DD 66 FE         [19]  378 	ld	h, -2 (ix)
    0000004F 36 01            [10]  379 	ld	(hl), #0x01
                                    380 ;E:\Dropbox\FAUSTO\SVILUPPI\MSX\CODE\C\MSXgl\projects\soccerlgMSX2/soccerlg_s9_b3.c:17: *wait_secs = 2; 
    00000051 DD 6E FB         [19]  381 	ld	l, -5 (ix)
    00000054 DD 66 FC         [19]  382 	ld	h, -4 (ix)
    00000057 36 02            [10]  383 	ld	(hl), #0x02
                                    384 ;E:\Dropbox\FAUSTO\SVILUPPI\MSX\CODE\C\MSXgl\projects\soccerlgMSX2/soccerlg_s9_b3.c:18: *start_sec = Frms;
    00000059 DD 7E 04         [19]  385 	ld	a, 4 (ix)
    0000005C DD 77 F9         [19]  386 	ld	-7 (ix), a
    0000005F DD 7E 05         [19]  387 	ld	a, 5 (ix)
    00000062 DD 77 FA         [19]  388 	ld	-6 (ix), a
    00000065 DD 6E F9         [19]  389 	ld	l, -7 (ix)
    00000068 DD 66 FA         [19]  390 	ld	h, -6 (ix)
    0000006B 3Ar00r00         [13]  391 	ld	a, (_Frms+0)
    0000006E 77               [ 7]  392 	ld	(hl), a
    0000006F C3rE9r14         [10]  393 	jp	00335$
    00000072                        394 00102$:
                                    395 ;E:\Dropbox\FAUSTO\SVILUPPI\MSX\CODE\C\MSXgl\projects\soccerlgMSX2/soccerlg_s9_b3.c:20: Field.ly += Field.dy;
    00000072 3Ar12r00         [13]  396 	ld	a, (#(_Field + 18) + 0)
    00000075 DD 77 FF         [19]  397 	ld	-1 (ix), a
    00000078 DD 77 F9         [19]  398 	ld	-7 (ix), a
    0000007B 07               [ 4]  399 	rlca
    0000007C 9F               [ 4]  400 	sbc	a, a
    0000007D DD 77 FA         [19]  401 	ld	-6 (ix), a
    00000080 DD 7E F7         [19]  402 	ld	a, -9 (ix)
    00000083 DD 77 F5         [19]  403 	ld	-11 (ix), a
    00000086 DD 7E F8         [19]  404 	ld	a, -8 (ix)
    00000089 DD 77 F6         [19]  405 	ld	-10 (ix), a
    0000008C DD 7E F9         [19]  406 	ld	a, -7 (ix)
    0000008F DD 77 F7         [19]  407 	ld	-9 (ix), a
    00000092 DD 7E FA         [19]  408 	ld	a, -6 (ix)
    00000095 DD 77 F8         [19]  409 	ld	-8 (ix), a
    00000098 DD 7E F5         [19]  410 	ld	a, -11 (ix)
    0000009B DD 86 F7         [19]  411 	add	a, -9 (ix)
    0000009E DD 77 F9         [19]  412 	ld	-7 (ix), a
    000000A1 DD 7E F6         [19]  413 	ld	a, -10 (ix)
    000000A4 DD 8E F8         [19]  414 	adc	a, -8 (ix)
    000000A7 DD 77 FA         [19]  415 	ld	-6 (ix), a
    000000AA 21r04r00         [10]  416 	ld	hl, #(_Field + 4)
    000000AD DD 7E F9         [19]  417 	ld	a, -7 (ix)
    000000B0 77               [ 7]  418 	ld	(hl), a
    000000B1 23               [ 6]  419 	inc	hl
    000000B2 DD 7E FA         [19]  420 	ld	a, -6 (ix)
    000000B5 77               [ 7]  421 	ld	(hl), a
    000000B6 C3rE9r14         [10]  422 	jp	00335$
    000000B9                        423 00319$:
                                    424 ;E:\Dropbox\FAUSTO\SVILUPPI\MSX\CODE\C\MSXgl\projects\soccerlgMSX2/soccerlg_s9_b3.c:24: } else if (*game_state == 1) {
    000000B9 DD 7E FF         [19]  425 	ld	a, -1 (ix)
    000000BC 3D               [ 4]  426 	dec	a
    000000BD 20 42            [12]  427 	jr	NZ, 00316$
                                    428 ;E:\Dropbox\FAUSTO\SVILUPPI\MSX\CODE\C\MSXgl\projects\soccerlgMSX2/soccerlg_s9_b3.c:25: if (*start_sec < Frms) { // Frms wrapped from 1 to 60
    000000BF DD 4E 04         [19]  429 	ld	c, 4 (ix)
    000000C2 DD 46 05         [19]  430 	ld	b, 5 (ix)
    000000C5 0A               [ 7]  431 	ld	a, (bc)
    000000C6 5F               [ 4]  432 	ld	e, a
    000000C7 21r00r00         [10]  433 	ld	hl, #_Frms
    000000CA 7B               [ 4]  434 	ld	a, e
    000000CB 96               [ 7]  435 	sub	a, (hl)
    000000CC 30 2C            [12]  436 	jr	NC, 00107$
                                    437 ;E:\Dropbox\FAUSTO\SVILUPPI\MSX\CODE\C\MSXgl\projects\soccerlgMSX2/soccerlg_s9_b3.c:26: (*wait_secs)--;
    000000CE DD 6E FB         [19]  438 	ld	l, -5 (ix)
    000000D1 DD 66 FC         [19]  439 	ld	h, -4 (ix)
    000000D4 7E               [ 7]  440 	ld	a, (hl)
    000000D5 3D               [ 4]  441 	dec	a
    000000D6 DD 6E FB         [19]  442 	ld	l, -5 (ix)
    000000D9 DD 66 FC         [19]  443 	ld	h, -4 (ix)
    000000DC 77               [ 7]  444 	ld	(hl), a
                                    445 ;E:\Dropbox\FAUSTO\SVILUPPI\MSX\CODE\C\MSXgl\projects\soccerlgMSX2/soccerlg_s9_b3.c:27: if (*wait_secs == 0) {
    000000DD B7               [ 4]  446 	or	a, a
    000000DE 20 1A            [12]  447 	jr	NZ, 00107$
                                    448 ;E:\Dropbox\FAUSTO\SVILUPPI\MSX\CODE\C\MSXgl\projects\soccerlgMSX2/soccerlg_s9_b3.c:28: *game_state = 2; // Passa al posizionamento
    000000E0 DD 6E FD         [19]  449 	ld	l, -3 (ix)
    000000E3 DD 66 FE         [19]  450 	ld	h, -2 (ix)
    000000E6 36 02            [10]  451 	ld	(hl), #0x02
                                    452 ;E:\Dropbox\FAUSTO\SVILUPPI\MSX\CODE\C\MSXgl\projects\soccerlgMSX2/soccerlg_s9_b3.c:29: CallFnc_VOID(SEG_EVENTS, EventPlayerFirstPresentationStarted);
    000000E8 C5               [11]  453 	push	bc
    000000E9 11r00r00         [10]  454 	ld	de, #_EventPlayerFirstPresentationStarted
    000000EC 3E 08            [ 7]  455 	ld	a, #0x08
    000000EE CDr00r00         [17]  456 	call	_CallFnc_VOID
    000000F1 11r00r00         [10]  457 	ld	de, #_AssignKickOffTargets
    000000F4 3E 0B            [ 7]  458 	ld	a, #0x0b
    000000F6 CDr00r00         [17]  459 	call	_CallFnc_VOID
    000000F9 C1               [10]  460 	pop	bc
    000000FA                        461 00107$:
                                    462 ;E:\Dropbox\FAUSTO\SVILUPPI\MSX\CODE\C\MSXgl\projects\soccerlgMSX2/soccerlg_s9_b3.c:33: *start_sec = Frms;
    000000FA 3Ar00r00         [13]  463 	ld	a, (_Frms+0)
    000000FD 02               [ 7]  464 	ld	(bc), a
    000000FE C3rE9r14         [10]  465 	jp	00335$
    00000101                        466 00316$:
                                    467 ;E:\Dropbox\FAUSTO\SVILUPPI\MSX\CODE\C\MSXgl\projects\soccerlgMSX2/soccerlg_s9_b3.c:34: } else if (*game_state == 2) {
    00000101 DD 7E FF         [19]  468 	ld	a, -1 (ix)
    00000104 D6 02            [ 7]  469 	sub	a, #0x02
    00000106 C2r1Cr06         [10]  470 	jp	NZ,00313$
                                    471 ;E:\Dropbox\FAUSTO\SVILUPPI\MSX\CODE\C\MSXgl\projects\soccerlgMSX2/soccerlg_s9_b3.c:35: bool all_in_position = TRUE;
    00000109 DD 36 E6 01      [19]  472 	ld	-26 (ix), #0x01
                                    473 ;E:\Dropbox\FAUSTO\SVILUPPI\MSX\CODE\C\MSXgl\projects\soccerlgMSX2/soccerlg_s9_b3.c:36: for (u8 i = 0; i < 14; i++) {
    0000010D DD 36 FF 00      [19]  474 	ld	-1 (ix), #0x00
    00000111                        475 00322$:
    00000111 DD 7E FF         [19]  476 	ld	a, -1 (ix)
    00000114 D6 0E            [ 7]  477 	sub	a, #0x0e
    00000116 D2r62r04         [10]  478 	jp	NC, 00131$
                                    479 ;E:\Dropbox\FAUSTO\SVILUPPI\MSX\CODE\C\MSXgl\projects\soccerlgMSX2/soccerlg_s9_b3.c:37: struct ObjectInfo* p = &SwSprite[i];
    00000119 DD 4E FF         [19]  480 	ld	c, -1 (ix)
    0000011C 06 00            [ 7]  481 	ld	b, #0x00
    0000011E 69               [ 4]  482 	ld	l, c
    0000011F 60               [ 4]  483 	ld	h, b
    00000120 29               [11]  484 	add	hl, hl
    00000121 29               [11]  485 	add	hl, hl
    00000122 09               [11]  486 	add	hl, bc
    00000123 29               [11]  487 	add	hl, hl
    00000124 09               [11]  488 	add	hl, bc
    00000125 29               [11]  489 	add	hl, hl
    00000126 09               [11]  490 	add	hl, bc
    00000127 11r00r00         [10]  491 	ld	de, #_SwSprite
    0000012A 19               [11]  492 	add	hl, de
                                    493 ;E:\Dropbox\FAUSTO\SVILUPPI\MSX\CODE\C\MSXgl\projects\soccerlgMSX2/soccerlg_s9_b3.c:38: if (p->lx != p->tx || p->ly != p->ty) {
    0000012B DD 75 E7         [19]  494 	ld	-25 (ix), l
    0000012E DD 74 E8         [19]  495 	ld	-24 (ix), h
    00000131 7E               [ 7]  496 	ld	a, (hl)
    00000132 DD 77 E9         [19]  497 	ld	-23 (ix), a
    00000135 DD 4E E7         [19]  498 	ld	c, -25 (ix)
    00000138 DD 46 E8         [19]  499 	ld	b, -24 (ix)
    0000013B 21 0C 00         [10]  500 	ld	hl, #12
    0000013E 09               [11]  501 	add	hl, bc
    0000013F 7E               [ 7]  502 	ld	a, (hl)
    00000140 DD 77 EA         [19]  503 	ld	-22 (ix), a
    00000143 DD 7E E7         [19]  504 	ld	a, -25 (ix)
    00000146 C6 04            [ 7]  505 	add	a, #0x04
    00000148 DD 77 EB         [19]  506 	ld	-21 (ix), a
    0000014B DD 7E E8         [19]  507 	ld	a, -24 (ix)
    0000014E CE 00            [ 7]  508 	adc	a, #0x00
    00000150 DD 77 EC         [19]  509 	ld	-20 (ix), a
    00000153 DD 7E E7         [19]  510 	ld	a, -25 (ix)
    00000156 C6 0D            [ 7]  511 	add	a, #0x0d
    00000158 DD 77 ED         [19]  512 	ld	-19 (ix), a
    0000015B DD 7E E8         [19]  513 	ld	a, -24 (ix)
    0000015E CE 00            [ 7]  514 	adc	a, #0x00
    00000160 DD 77 EE         [19]  515 	ld	-18 (ix), a
                                    516 ;E:\Dropbox\FAUSTO\SVILUPPI\MSX\CODE\C\MSXgl\projects\soccerlgMSX2/soccerlg_s9_b3.c:41: if (p->tx > p->lx) p->dx = (p->tx - p->lx >= 2) ? 2 : (p->tx - p->lx);
    00000163 DD 7E E7         [19]  517 	ld	a, -25 (ix)
    00000166 C6 11            [ 7]  518 	add	a, #0x11
    00000168 DD 77 EF         [19]  519 	ld	-17 (ix), a
    0000016B DD 7E E8         [19]  520 	ld	a, -24 (ix)
    0000016E CE 00            [ 7]  521 	adc	a, #0x00
    00000170 DD 77 F0         [19]  522 	ld	-16 (ix), a
                                    523 ;E:\Dropbox\FAUSTO\SVILUPPI\MSX\CODE\C\MSXgl\projects\soccerlgMSX2/soccerlg_s9_b3.c:45: if (p->ty > p->ly) p->dy = (p->ty - p->ly >= 2) ? 2 : (p->ty - p->ly);
    00000173 DD 7E E7         [19]  524 	ld	a, -25 (ix)
    00000176 C6 12            [ 7]  525 	add	a, #0x12
    00000178 DD 77 F1         [19]  526 	ld	-15 (ix), a
    0000017B DD 7E E8         [19]  527 	ld	a, -24 (ix)
    0000017E CE 00            [ 7]  528 	adc	a, #0x00
    00000180 DD 77 F2         [19]  529 	ld	-14 (ix), a
                                    530 ;E:\Dropbox\FAUSTO\SVILUPPI\MSX\CODE\C\MSXgl\projects\soccerlgMSX2/soccerlg_s9_b3.c:54: p->frame = CallFnc_U16_P4(SEG_GAMESTATE_2, GetPlayerAnimFrame, i, p->dx, p->dy, walk_seq[(p->anim / 3) % 4]); 
    00000183 DD 7E E7         [19]  531 	ld	a, -25 (ix)
    00000186 C6 0F            [ 7]  532 	add	a, #0x0f
    00000188 DD 77 F3         [19]  533 	ld	-13 (ix), a
    0000018B DD 7E E8         [19]  534 	ld	a, -24 (ix)
    0000018E CE 00            [ 7]  535 	adc	a, #0x00
    00000190 DD 77 F4         [19]  536 	ld	-12 (ix), a
                                    537 ;E:\Dropbox\FAUSTO\SVILUPPI\MSX\CODE\C\MSXgl\projects\soccerlgMSX2/soccerlg_s9_b3.c:38: if (p->lx != p->tx || p->ly != p->ty) {
    00000193 DD 7E E9         [19]  538 	ld	a, -23 (ix)
    00000196 DD 96 EA         [19]  539 	sub	a, -22 (ix)
    00000199 20 19            [12]  540 	jr	NZ, 00127$
    0000019B DD 6E EB         [19]  541 	ld	l, -21 (ix)
    0000019E DD 66 EC         [19]  542 	ld	h, -20 (ix)
    000001A1 4E               [ 7]  543 	ld	c, (hl)
    000001A2 23               [ 6]  544 	inc	hl
    000001A3 46               [ 7]  545 	ld	b, (hl)
    000001A4 DD 6E ED         [19]  546 	ld	l, -19 (ix)
    000001A7 DD 66 EE         [19]  547 	ld	h, -18 (ix)
    000001AA 5E               [ 7]  548 	ld	e, (hl)
    000001AB 23               [ 6]  549 	inc	hl
    000001AC 66               [ 7]  550 	ld	h, (hl)
                                    551 ;	spillPairReg hl
    000001AD 6B               [ 4]  552 	ld	l, e
    000001AE BF               [ 4]  553 	cp	a, a
    000001AF ED 42            [15]  554 	sbc	hl, bc
    000001B1 CArABr03         [10]  555 	jp	Z,00128$
    000001B4                        556 00127$:
                                    557 ;E:\Dropbox\FAUSTO\SVILUPPI\MSX\CODE\C\MSXgl\projects\soccerlgMSX2/soccerlg_s9_b3.c:39: all_in_position = FALSE;
    000001B4 DD 36 E6 00      [19]  558 	ld	-26 (ix), #0x00
                                    559 ;E:\Dropbox\FAUSTO\SVILUPPI\MSX\CODE\C\MSXgl\projects\soccerlgMSX2/soccerlg_s9_b3.c:41: if (p->tx > p->lx) p->dx = (p->tx - p->lx >= 2) ? 2 : (p->tx - p->lx);
    000001B8 DD 7E E9         [19]  560 	ld	a, -23 (ix)
    000001BB DD 96 EA         [19]  561 	sub	a, -22 (ix)
    000001BE 30 5D            [12]  562 	jr	NC, 00112$
    000001C0 DD 7E EA         [19]  563 	ld	a, -22 (ix)
    000001C3 DD 77 F5         [19]  564 	ld	-11 (ix), a
    000001C6 DD 36 F6 00      [19]  565 	ld	-10 (ix), #0x00
    000001CA DD 7E E9         [19]  566 	ld	a, -23 (ix)
    000001CD DD 77 F7         [19]  567 	ld	-9 (ix), a
    000001D0 DD 36 F8 00      [19]  568 	ld	-8 (ix), #0x00
    000001D4 DD 7E F5         [19]  569 	ld	a, -11 (ix)
    000001D7 DD 96 F7         [19]  570 	sub	a, -9 (ix)
    000001DA DD 77 F9         [19]  571 	ld	-7 (ix), a
    000001DD DD 7E F6         [19]  572 	ld	a, -10 (ix)
    000001E0 DD 9E F8         [19]  573 	sbc	a, -8 (ix)
    000001E3 DD 77 FA         [19]  574 	ld	-6 (ix), a
    000001E6 DD 7E F9         [19]  575 	ld	a, -7 (ix)
    000001E9 D6 02            [ 7]  576 	sub	a, #0x02
    000001EB DD 7E FA         [19]  577 	ld	a, -6 (ix)
    000001EE 17               [ 4]  578 	rla
    000001EF 3F               [ 4]  579 	ccf
    000001F0 1F               [ 4]  580 	rra
    000001F1 DE 80            [ 7]  581 	sbc	a, #0x80
    000001F3 38 0B            [12]  582 	jr	C, 00337$
    000001F5 DD 36 F9 02      [19]  583 	ld	-7 (ix), #0x02
    000001F9 DD 36 FA 00      [19]  584 	ld	-6 (ix), #0
    000001FD C3r10r02         [10]  585 	jp	00338$
    00000200                        586 00337$:
    00000200 DD 7E EA         [19]  587 	ld	a, -22 (ix)
    00000203 DD 96 E9         [19]  588 	sub	a, -23 (ix)
    00000206 DD 77 FA         [19]  589 	ld	-6 (ix), a
    00000209 DD 77 F9         [19]  590 	ld	-7 (ix), a
    0000020C DD 36 FA 00      [19]  591 	ld	-6 (ix), #0x00
    00000210                        592 00338$:
    00000210 DD 7E F9         [19]  593 	ld	a, -7 (ix)
    00000213 DD 6E EF         [19]  594 	ld	l, -17 (ix)
    00000216 DD 66 F0         [19]  595 	ld	h, -16 (ix)
    00000219 77               [ 7]  596 	ld	(hl), a
    0000021A C3r7Ar02         [10]  597 	jp	00113$
    0000021D                        598 00112$:
                                    599 ;E:\Dropbox\FAUSTO\SVILUPPI\MSX\CODE\C\MSXgl\projects\soccerlgMSX2/soccerlg_s9_b3.c:42: else if (p->tx < p->lx) p->dx = (p->lx - p->tx >= 2) ? -2 : -(p->lx - p->tx);
    0000021D DD 7E EA         [19]  600 	ld	a, -22 (ix)
    00000220 DD 96 E9         [19]  601 	sub	a, -23 (ix)
    00000223 30 4D            [12]  602 	jr	NC, 00109$
    00000225 DD 7E E9         [19]  603 	ld	a, -23 (ix)
    00000228 DD 77 F5         [19]  604 	ld	-11 (ix), a
    0000022B DD 36 F6 00      [19]  605 	ld	-10 (ix), #0x00
    0000022F DD 7E EA         [19]  606 	ld	a, -22 (ix)
    00000232 DD 77 F7         [19]  607 	ld	-9 (ix), a
    00000235 DD 36 F8 00      [19]  608 	ld	-8 (ix), #0x00
    00000239 DD 7E F5         [19]  609 	ld	a, -11 (ix)
    0000023C DD 96 F7         [19]  610 	sub	a, -9 (ix)
    0000023F DD 77 F9         [19]  611 	ld	-7 (ix), a
    00000242 DD 7E F6         [19]  612 	ld	a, -10 (ix)
    00000245 DD 9E F8         [19]  613 	sbc	a, -8 (ix)
    00000248 DD 77 FA         [19]  614 	ld	-6 (ix), a
    0000024B DD 7E F9         [19]  615 	ld	a, -7 (ix)
    0000024E D6 02            [ 7]  616 	sub	a, #0x02
    00000250 DD 7E FA         [19]  617 	ld	a, -6 (ix)
    00000253 17               [ 4]  618 	rla
    00000254 3F               [ 4]  619 	ccf
    00000255 1F               [ 4]  620 	rra
    00000256 DE 80            [ 7]  621 	sbc	a, #0x80
    00000258 38 05            [12]  622 	jr	C, 00339$
    0000025A 0E FE            [ 7]  623 	ld	c, #0xfe
    0000025C C3r68r02         [10]  624 	jp	00340$
    0000025F                        625 00339$:
    0000025F DD 7E E9         [19]  626 	ld	a, -23 (ix)
    00000262 DD 96 EA         [19]  627 	sub	a, -22 (ix)
    00000265 ED 44            [ 8]  628 	neg
    00000267 4F               [ 4]  629 	ld	c, a
    00000268                        630 00340$:
    00000268 DD 6E EF         [19]  631 	ld	l, -17 (ix)
    0000026B DD 66 F0         [19]  632 	ld	h, -16 (ix)
    0000026E 71               [ 7]  633 	ld	(hl), c
    0000026F C3r7Ar02         [10]  634 	jp	00113$
    00000272                        635 00109$:
                                    636 ;E:\Dropbox\FAUSTO\SVILUPPI\MSX\CODE\C\MSXgl\projects\soccerlgMSX2/soccerlg_s9_b3.c:43: else p->dx = 0;
    00000272 DD 6E EF         [19]  637 	ld	l, -17 (ix)
    00000275 DD 66 F0         [19]  638 	ld	h, -16 (ix)
    00000278 36 00            [10]  639 	ld	(hl), #0x00
    0000027A                        640 00113$:
                                    641 ;E:\Dropbox\FAUSTO\SVILUPPI\MSX\CODE\C\MSXgl\projects\soccerlgMSX2/soccerlg_s9_b3.c:45: if (p->ty > p->ly) p->dy = (p->ty - p->ly >= 2) ? 2 : (p->ty - p->ly);
    0000027A DD 6E ED         [19]  642 	ld	l, -19 (ix)
    0000027D DD 66 EE         [19]  643 	ld	h, -18 (ix)
    00000280 7E               [ 7]  644 	ld	a, (hl)
    00000281 DD 77 F9         [19]  645 	ld	-7 (ix), a
    00000284 23               [ 6]  646 	inc	hl
    00000285 7E               [ 7]  647 	ld	a, (hl)
    00000286 DD 77 FA         [19]  648 	ld	-6 (ix), a
    00000289 DD 6E EB         [19]  649 	ld	l, -21 (ix)
    0000028C DD 66 EC         [19]  650 	ld	h, -20 (ix)
    0000028F 7E               [ 7]  651 	ld	a, (hl)
    00000290 DD 77 F7         [19]  652 	ld	-9 (ix), a
    00000293 23               [ 6]  653 	inc	hl
    00000294 7E               [ 7]  654 	ld	a, (hl)
    00000295 DD 77 F8         [19]  655 	ld	-8 (ix), a
    00000298 DD 7E F7         [19]  656 	ld	a, -9 (ix)
    0000029B DD 96 F9         [19]  657 	sub	a, -7 (ix)
    0000029E DD 7E F8         [19]  658 	ld	a, -8 (ix)
    000002A1 DD 9E FA         [19]  659 	sbc	a, -6 (ix)
    000002A4 30 2C            [12]  660 	jr	NC, 00118$
    000002A6 DD 7E F9         [19]  661 	ld	a, -7 (ix)
    000002A9 DD 96 F7         [19]  662 	sub	a, -9 (ix)
    000002AC 4F               [ 4]  663 	ld	c, a
    000002AD DD 7E FA         [19]  664 	ld	a, -6 (ix)
    000002B0 DD 9E F8         [19]  665 	sbc	a, -8 (ix)
    000002B3 47               [ 4]  666 	ld	b, a
    000002B4 79               [ 4]  667 	ld	a, c
    000002B5 D6 02            [ 7]  668 	sub	a, #0x02
    000002B7 78               [ 4]  669 	ld	a, b
    000002B8 DE 00            [ 7]  670 	sbc	a, #0x00
    000002BA 38 05            [12]  671 	jr	C, 00341$
    000002BC 3E 02            [ 7]  672 	ld	a, #0x02
    000002BE C3rC8r02         [10]  673 	jp	00342$
    000002C1                        674 00341$:
    000002C1 DD 7E F9         [19]  675 	ld	a, -7 (ix)
    000002C4 DD 4E F7         [19]  676 	ld	c, -9 (ix)
    000002C7 91               [ 4]  677 	sub	a, c
    000002C8                        678 00342$:
    000002C8 DD 6E F1         [19]  679 	ld	l, -15 (ix)
    000002CB DD 66 F2         [19]  680 	ld	h, -14 (ix)
    000002CE 77               [ 7]  681 	ld	(hl), a
    000002CF C3r16r03         [10]  682 	jp	00119$
    000002D2                        683 00118$:
                                    684 ;E:\Dropbox\FAUSTO\SVILUPPI\MSX\CODE\C\MSXgl\projects\soccerlgMSX2/soccerlg_s9_b3.c:46: else if (p->ty < p->ly) p->dy = (p->ly - p->ty >= 2) ? -2 : -(p->ly - p->ty);
    000002D2 DD 7E F9         [19]  685 	ld	a, -7 (ix)
    000002D5 DD 96 F7         [19]  686 	sub	a, -9 (ix)
    000002D8 DD 7E FA         [19]  687 	ld	a, -6 (ix)
    000002DB DD 9E F8         [19]  688 	sbc	a, -8 (ix)
    000002DE 30 2E            [12]  689 	jr	NC, 00115$
    000002E0 DD 7E F7         [19]  690 	ld	a, -9 (ix)
    000002E3 DD 96 F9         [19]  691 	sub	a, -7 (ix)
    000002E6 4F               [ 4]  692 	ld	c, a
    000002E7 DD 7E F8         [19]  693 	ld	a, -8 (ix)
    000002EA DD 9E FA         [19]  694 	sbc	a, -6 (ix)
    000002ED 47               [ 4]  695 	ld	b, a
    000002EE 79               [ 4]  696 	ld	a, c
    000002EF D6 02            [ 7]  697 	sub	a, #0x02
    000002F1 78               [ 4]  698 	ld	a, b
    000002F2 DE 00            [ 7]  699 	sbc	a, #0x00
    000002F4 38 05            [12]  700 	jr	C, 00343$
    000002F6 3E FE            [ 7]  701 	ld	a, #0xfe
    000002F8 C3r04r03         [10]  702 	jp	00344$
    000002FB                        703 00343$:
    000002FB DD 7E F7         [19]  704 	ld	a, -9 (ix)
    000002FE DD 4E F9         [19]  705 	ld	c, -7 (ix)
    00000301 91               [ 4]  706 	sub	a, c
    00000302 ED 44            [ 8]  707 	neg
    00000304                        708 00344$:
    00000304 DD 6E F1         [19]  709 	ld	l, -15 (ix)
    00000307 DD 66 F2         [19]  710 	ld	h, -14 (ix)
    0000030A 77               [ 7]  711 	ld	(hl), a
    0000030B C3r16r03         [10]  712 	jp	00119$
    0000030E                        713 00115$:
                                    714 ;E:\Dropbox\FAUSTO\SVILUPPI\MSX\CODE\C\MSXgl\projects\soccerlgMSX2/soccerlg_s9_b3.c:47: else p->dy = 0;
    0000030E DD 6E F1         [19]  715 	ld	l, -15 (ix)
    00000311 DD 66 F2         [19]  716 	ld	h, -14 (ix)
    00000314 36 00            [10]  717 	ld	(hl), #0x00
    00000316                        718 00119$:
                                    719 ;E:\Dropbox\FAUSTO\SVILUPPI\MSX\CODE\C\MSXgl\projects\soccerlgMSX2/soccerlg_s9_b3.c:49: p->lx += p->dx;
    00000316 DD 6E E7         [19]  720 	ld	l, -25 (ix)
    00000319 DD 66 E8         [19]  721 	ld	h, -24 (ix)
    0000031C 4E               [ 7]  722 	ld	c, (hl)
    0000031D DD 6E EF         [19]  723 	ld	l, -17 (ix)
    00000320 DD 66 F0         [19]  724 	ld	h, -16 (ix)
    00000323 7E               [ 7]  725 	ld	a, (hl)
    00000324 81               [ 4]  726 	add	a, c
    00000325 DD 6E E7         [19]  727 	ld	l, -25 (ix)
    00000328 DD 66 E8         [19]  728 	ld	h, -24 (ix)
    0000032B 77               [ 7]  729 	ld	(hl), a
                                    730 ;E:\Dropbox\FAUSTO\SVILUPPI\MSX\CODE\C\MSXgl\projects\soccerlgMSX2/soccerlg_s9_b3.c:50: p->ly += p->dy;
    0000032C DD 6E EB         [19]  731 	ld	l, -21 (ix)
    0000032F DD 66 EC         [19]  732 	ld	h, -20 (ix)
    00000332 4E               [ 7]  733 	ld	c, (hl)
    00000333 23               [ 6]  734 	inc	hl
    00000334 46               [ 7]  735 	ld	b, (hl)
    00000335 DD 6E F1         [19]  736 	ld	l, -15 (ix)
    00000338 DD 66 F2         [19]  737 	ld	h, -14 (ix)
    0000033B 7E               [ 7]  738 	ld	a, (hl)
    0000033C 6F               [ 4]  739 	ld	l, a
                                    740 ;	spillPairReg hl
                                    741 ;	spillPairReg hl
    0000033D 07               [ 4]  742 	rlca
    0000033E 9F               [ 4]  743 	sbc	a, a
    0000033F 67               [ 4]  744 	ld	h, a
                                    745 ;	spillPairReg hl
                                    746 ;	spillPairReg hl
    00000340 09               [11]  747 	add	hl, bc
    00000341 EB               [ 4]  748 	ex	de, hl
    00000342 DD 6E EB         [19]  749 	ld	l, -21 (ix)
    00000345 DD 66 EC         [19]  750 	ld	h, -20 (ix)
    00000348 73               [ 7]  751 	ld	(hl), e
    00000349 23               [ 6]  752 	inc	hl
    0000034A 72               [ 7]  753 	ld	(hl), d
                                    754 ;E:\Dropbox\FAUSTO\SVILUPPI\MSX\CODE\C\MSXgl\projects\soccerlgMSX2/soccerlg_s9_b3.c:51: p->anim++;
    0000034B DD 6E E7         [19]  755 	ld	l, -25 (ix)
    0000034E DD 66 E8         [19]  756 	ld	h, -24 (ix)
    00000351 11 13 00         [10]  757 	ld	de, #0x0013
    00000354 19               [11]  758 	add	hl, de
    00000355 5E               [ 7]  759 	ld	e, (hl)
    00000356 23               [ 6]  760 	inc	hl
    00000357 56               [ 7]  761 	ld	d, (hl)
    00000358 2B               [ 6]  762 	dec	hl
    00000359 13               [ 6]  763 	inc	de
    0000035A 73               [ 7]  764 	ld	(hl), e
    0000035B 23               [ 6]  765 	inc	hl
    0000035C 72               [ 7]  766 	ld	(hl), d
                                    767 ;E:\Dropbox\FAUSTO\SVILUPPI\MSX\CODE\C\MSXgl\projects\soccerlgMSX2/soccerlg_s9_b3.c:53: const u8 walk_seq[4] = {0, 1, 2, 1}; // 1->2->3->2->1...
    0000035D DD 36 E2 00      [19]  768 	ld	-30 (ix), #0x00
    00000361 DD 36 E3 01      [19]  769 	ld	-29 (ix), #0x01
    00000365 DD 36 E4 02      [19]  770 	ld	-28 (ix), #0x02
    00000369 DD 36 E5 01      [19]  771 	ld	-27 (ix), #0x01
                                    772 ;E:\Dropbox\FAUSTO\SVILUPPI\MSX\CODE\C\MSXgl\projects\soccerlgMSX2/soccerlg_s9_b3.c:54: p->frame = CallFnc_U16_P4(SEG_GAMESTATE_2, GetPlayerAnimFrame, i, p->dx, p->dy, walk_seq[(p->anim / 3) % 4]); 
    0000036D EB               [ 4]  773 	ex	de, hl
    0000036E 11 03 00         [10]  774 	ld	de, #0x0003
    00000371 CDr00r00         [17]  775 	call	__divuint
    00000374 7B               [ 4]  776 	ld	a, e
    00000375 E6 03            [ 7]  777 	and	a, #0x03
    00000377 4F               [ 4]  778 	ld	c, a
    00000378 06 00            [ 7]  779 	ld	b, #0x00
    0000037A 21 08 00         [10]  780 	ld	hl, #8
    0000037D 39               [11]  781 	add	hl, sp
    0000037E 09               [11]  782 	add	hl, bc
    0000037F 56               [ 7]  783 	ld	d, (hl)
    00000380 DD 6E F1         [19]  784 	ld	l, -15 (ix)
    00000383 DD 66 F2         [19]  785 	ld	h, -14 (ix)
    00000386 46               [ 7]  786 	ld	b, (hl)
    00000387 DD 6E EF         [19]  787 	ld	l, -17 (ix)
    0000038A DD 66 F0         [19]  788 	ld	h, -16 (ix)
    0000038D 7E               [ 7]  789 	ld	a, (hl)
    0000038E 58               [ 4]  790 	ld	e, b
    0000038F D5               [11]  791 	push	de
    00000390 F5               [11]  792 	push	af
    00000391 33               [ 6]  793 	inc	sp
    00000392 DD 7E FF         [19]  794 	ld	a, -1 (ix)
    00000395 F5               [11]  795 	push	af
    00000396 33               [ 6]  796 	inc	sp
    00000397 11r00r00         [10]  797 	ld	de, #_GetPlayerAnimFrame
    0000039A 3E 0B            [ 7]  798 	ld	a, #0x0b
    0000039C CDr00r00         [17]  799 	call	_CallFnc_U16_P4
    0000039F DD 6E F3         [19]  800 	ld	l, -13 (ix)
    000003A2 DD 66 F4         [19]  801 	ld	h, -12 (ix)
    000003A5 73               [ 7]  802 	ld	(hl), e
    000003A6 23               [ 6]  803 	inc	hl
    000003A7 72               [ 7]  804 	ld	(hl), d
    000003A8 C3r5Cr04         [10]  805 	jp	00323$
    000003AB                        806 00128$:
                                    807 ;E:\Dropbox\FAUSTO\SVILUPPI\MSX\CODE\C\MSXgl\projects\soccerlgMSX2/soccerlg_s9_b3.c:56: i8 dir_x = (SwSprite[14].lx > p->lx) ? 1 : ((SwSprite[14].lx < p->lx) ? -1 : 0);
    000003AB 21r42r01         [10]  808 	ld	hl, #_SwSprite + 322
    000003AE 4E               [ 7]  809 	ld	c, (hl)
    000003AF DD 7E E9         [19]  810 	ld	a, -23 (ix)
    000003B2 91               [ 4]  811 	sub	a, c
    000003B3 30 06            [12]  812 	jr	NC, 00345$
    000003B5 11 01 00         [10]  813 	ld	de, #0x0001
    000003B8 C3rCAr03         [10]  814 	jp	00346$
    000003BB                        815 00345$:
    000003BB 79               [ 4]  816 	ld	a, c
    000003BC DD 96 E9         [19]  817 	sub	a, -23 (ix)
    000003BF 30 06            [12]  818 	jr	NC, 00347$
    000003C1 11 FF FF         [10]  819 	ld	de, #0xffff
    000003C4 C3rCAr03         [10]  820 	jp	00348$
    000003C7                        821 00347$:
    000003C7 11 00 00         [10]  822 	ld	de, #0x0000
    000003CA                        823 00348$:
    000003CA                        824 00346$:
                                    825 ;E:\Dropbox\FAUSTO\SVILUPPI\MSX\CODE\C\MSXgl\projects\soccerlgMSX2/soccerlg_s9_b3.c:57: i8 dir_y = (i < 7) ? 1 : -1; // Team 1 guarda sempre a Sud, Team 2 sempre a Nord
    000003CA DD 7E FF         [19]  826 	ld	a, -1 (ix)
    000003CD D6 07            [ 7]  827 	sub	a, #0x07
    000003CF 3E 00            [ 7]  828 	ld	a, #0x00
    000003D1 17               [ 4]  829 	rla
    000003D2 4F               [ 4]  830 	ld	c, a
    000003D3 B7               [ 4]  831 	or	a, a
    000003D4 28 06            [12]  832 	jr	Z, 00349$
    000003D6 21 01 00         [10]  833 	ld	hl, #0x0001
    000003D9 C3rDFr03         [10]  834 	jp	00350$
    000003DC                        835 00349$:
    000003DC 21 FF FF         [10]  836 	ld	hl, #0xffff
    000003DF                        837 00350$:
    000003DF 45               [ 4]  838 	ld	b, l
                                    839 ;E:\Dropbox\FAUSTO\SVILUPPI\MSX\CODE\C\MSXgl\projects\soccerlgMSX2/soccerlg_s9_b3.c:58: p->dx = 0; p->dy = 0;
    000003E0 DD 6E EF         [19]  840 	ld	l, -17 (ix)
    000003E3 DD 66 F0         [19]  841 	ld	h, -16 (ix)
    000003E6 36 00            [10]  842 	ld	(hl), #0x00
    000003E8 DD 6E F1         [19]  843 	ld	l, -15 (ix)
    000003EB DD 66 F2         [19]  844 	ld	h, -14 (ix)
    000003EE 36 00            [10]  845 	ld	(hl), #0x00
                                    846 ;E:\Dropbox\FAUSTO\SVILUPPI\MSX\CODE\C\MSXgl\projects\soccerlgMSX2/soccerlg_s9_b3.c:60: if (RestartType == 1 && i == g_thrower_id) {
    000003F0 3Ar00r00         [13]  847 	ld	a, (_RestartType+0)
    000003F3 3D               [ 4]  848 	dec	a
    000003F4 20 4B            [12]  849 	jr	NZ, 00124$
    000003F6 DD 7E FF         [19]  850 	ld	a, -1 (ix)
    000003F9 FD 21r00r00      [14]  851 	ld	iy, #_g_thrower_id
    000003FD FD 96 00         [19]  852 	sub	a, 0 (iy)
    00000400 20 3F            [12]  853 	jr	NZ, 00124$
                                    854 ;E:\Dropbox\FAUSTO\SVILUPPI\MSX\CODE\C\MSXgl\projects\soccerlgMSX2/soccerlg_s9_b3.c:62: p->frame = (RestartSideX < 128) ? SPR_T1_PLAYER_THROWIN_FROM_WEST_1 : SPR_T1_PLAYER_THROWIN_FROM_EAST_1;
    00000402 3Ar00r00         [13]  855 	ld	a, (_RestartSideX+0)
    00000405 D6 80            [ 7]  856 	sub	a, #0x80
    00000407 3E 00            [ 7]  857 	ld	a, #0x00
    00000409 17               [ 4]  858 	rla
    0000040A 47               [ 4]  859 	ld	b, a
                                    860 ;E:\Dropbox\FAUSTO\SVILUPPI\MSX\CODE\C\MSXgl\projects\soccerlgMSX2/soccerlg_s9_b3.c:61: if (i < 7) {
    0000040B 79               [ 4]  861 	ld	a, c
    0000040C B7               [ 4]  862 	or	a, a
    0000040D 28 19            [12]  863 	jr	Z, 00121$
                                    864 ;E:\Dropbox\FAUSTO\SVILUPPI\MSX\CODE\C\MSXgl\projects\soccerlgMSX2/soccerlg_s9_b3.c:62: p->frame = (RestartSideX < 128) ? SPR_T1_PLAYER_THROWIN_FROM_WEST_1 : SPR_T1_PLAYER_THROWIN_FROM_EAST_1;
    0000040F 78               [ 4]  865 	ld	a, b
    00000410 B7               [ 4]  866 	or	a, a
    00000411 28 06            [12]  867 	jr	Z, 00351$
    00000413 01 25 00         [10]  868 	ld	bc, #0x0025
    00000416 C3r1Cr04         [10]  869 	jp	00352$
    00000419                        870 00351$:
    00000419 01 22 00         [10]  871 	ld	bc, #0x0022
    0000041C                        872 00352$:
    0000041C DD 6E F3         [19]  873 	ld	l, -13 (ix)
    0000041F DD 66 F4         [19]  874 	ld	h, -12 (ix)
    00000422 71               [ 7]  875 	ld	(hl), c
    00000423 23               [ 6]  876 	inc	hl
    00000424 70               [ 7]  877 	ld	(hl), b
    00000425 C3r5Cr04         [10]  878 	jp	00323$
    00000428                        879 00121$:
                                    880 ;E:\Dropbox\FAUSTO\SVILUPPI\MSX\CODE\C\MSXgl\projects\soccerlgMSX2/soccerlg_s9_b3.c:64: p->frame = (RestartSideX < 128) ? SPR_T2_PLAYER_THROWIN_FROM_WEST_1 : SPR_T2_PLAYER_THROWIN_FROM_EAST_1;
    00000428 78               [ 4]  881 	ld	a, b
    00000429 B7               [ 4]  882 	or	a, a
    0000042A 28 06            [12]  883 	jr	Z, 00353$
    0000042C 01 95 00         [10]  884 	ld	bc, #0x0095
    0000042F C3r35r04         [10]  885 	jp	00354$
    00000432                        886 00353$:
    00000432 01 92 00         [10]  887 	ld	bc, #0x0092
    00000435                        888 00354$:
    00000435 DD 6E F3         [19]  889 	ld	l, -13 (ix)
    00000438 DD 66 F4         [19]  890 	ld	h, -12 (ix)
    0000043B 71               [ 7]  891 	ld	(hl), c
    0000043C 23               [ 6]  892 	inc	hl
    0000043D 70               [ 7]  893 	ld	(hl), b
    0000043E C3r5Cr04         [10]  894 	jp	00323$
    00000441                        895 00124$:
                                    896 ;E:\Dropbox\FAUSTO\SVILUPPI\MSX\CODE\C\MSXgl\projects\soccerlgMSX2/soccerlg_s9_b3.c:67: p->frame = CallFnc_U16_P4(SEG_GAMESTATE_2, GetPlayerAnimFrame, i, dir_x, dir_y, 0); // Posa ferma (0) verso la palla
    00000441 AF               [ 4]  897 	xor	a, a
    00000442 F5               [11]  898 	push	af
    00000443 33               [ 6]  899 	inc	sp
    00000444 4B               [ 4]  900 	ld	c, e
    00000445 C5               [11]  901 	push	bc
    00000446 DD 7E FF         [19]  902 	ld	a, -1 (ix)
    00000449 F5               [11]  903 	push	af
    0000044A 33               [ 6]  904 	inc	sp
    0000044B 11r00r00         [10]  905 	ld	de, #_GetPlayerAnimFrame
    0000044E 3E 0B            [ 7]  906 	ld	a, #0x0b
    00000450 CDr00r00         [17]  907 	call	_CallFnc_U16_P4
    00000453 DD 6E F3         [19]  908 	ld	l, -13 (ix)
    00000456 DD 66 F4         [19]  909 	ld	h, -12 (ix)
    00000459 73               [ 7]  910 	ld	(hl), e
    0000045A 23               [ 6]  911 	inc	hl
    0000045B 72               [ 7]  912 	ld	(hl), d
    0000045C                        913 00323$:
                                    914 ;E:\Dropbox\FAUSTO\SVILUPPI\MSX\CODE\C\MSXgl\projects\soccerlgMSX2/soccerlg_s9_b3.c:36: for (u8 i = 0; i < 14; i++) {
    0000045C DD 34 FF         [23]  915 	inc	-1 (ix)
    0000045F C3r11r01         [10]  916 	jp	00322$
    00000462                        917 00131$:
                                    918 ;E:\Dropbox\FAUSTO\SVILUPPI\MSX\CODE\C\MSXgl\projects\soccerlgMSX2/soccerlg_s9_b3.c:71: if (all_in_position) {
    00000462 DD 7E E6         [19]  919 	ld	a, -26 (ix)
    00000465 B7               [ 4]  920 	or	a, a
    00000466 CArE9r14         [10]  921 	jp	Z, 00335$
                                    922 ;E:\Dropbox\FAUSTO\SVILUPPI\MSX\CODE\C\MSXgl\projects\soccerlgMSX2/soccerlg_s9_b3.c:18: *start_sec = Frms;
    00000469 DD 7E 04         [19]  923 	ld	a, 4 (ix)
    0000046C DD 77 F8         [19]  924 	ld	-8 (ix), a
    0000046F DD 7E 05         [19]  925 	ld	a, 5 (ix)
    00000472 DD 77 F9         [19]  926 	ld	-7 (ix), a
                                    927 ;E:\Dropbox\FAUSTO\SVILUPPI\MSX\CODE\C\MSXgl\projects\soccerlgMSX2/soccerlg_s9_b3.c:72: if (RestartType == 1) {
    00000475 3Ar00r00         [13]  928 	ld	a, (_RestartType+0)
    00000478 3D               [ 4]  929 	dec	a
    00000479 C2rFCr04         [10]  930 	jp	NZ,00147$
                                    931 ;E:\Dropbox\FAUSTO\SVILUPPI\MSX\CODE\C\MSXgl\projects\soccerlgMSX2/soccerlg_s9_b3.c:73: *game_state = 7;
    0000047C DD 6E FD         [19]  932 	ld	l, -3 (ix)
    0000047F DD 66 FE         [19]  933 	ld	h, -2 (ix)
    00000482 36 07            [10]  934 	ld	(hl), #0x07
                                    935 ;E:\Dropbox\FAUSTO\SVILUPPI\MSX\CODE\C\MSXgl\projects\soccerlgMSX2/soccerlg_s9_b3.c:74: u8 throw_team = (g_thrower_id < 7) ? TEAM_1 : TEAM_2;
    00000484 3Ar00r00         [13]  936 	ld	a, (_g_thrower_id+0)
    00000487 D6 07            [ 7]  937 	sub	a, #0x07
    00000489 30 0A            [12]  938 	jr	NC, 00355$
    0000048B AF               [ 4]  939 	xor	a, a
    0000048C DD 77 F6         [19]  940 	ld	-10 (ix), a
    0000048F DD 77 F7         [19]  941 	ld	-9 (ix), a
    00000492 C3r9Dr04         [10]  942 	jp	00356$
    00000495                        943 00355$:
    00000495 DD 36 F6 01      [19]  944 	ld	-10 (ix), #0x01
    00000499 DD 36 F7 00      [19]  945 	ld	-9 (ix), #0
    0000049D                        946 00356$:
    0000049D DD 7E F6         [19]  947 	ld	a, -10 (ix)
    000004A0 DD 77 FA         [19]  948 	ld	-6 (ix), a
                                    949 ;E:\Dropbox\FAUSTO\SVILUPPI\MSX\CODE\C\MSXgl\projects\soccerlgMSX2/soccerlg_s9_b3.c:75: bool is_human = FALSE;
    000004A3 DD 36 FF 00      [19]  950 	ld	-1 (ix), #0x00
                                    951 ;E:\Dropbox\FAUSTO\SVILUPPI\MSX\CODE\C\MSXgl\projects\soccerlgMSX2/soccerlg_s9_b3.c:76: if (throw_team == TEAM_2) is_human = TRUE;
    000004A7 DD 7E FA         [19]  952 	ld	a, -6 (ix)
    000004AA 3D               [ 4]  953 	dec	a
    000004AB 20 07            [12]  954 	jr	NZ, 00136$
    000004AD DD 36 FF 01      [19]  955 	ld	-1 (ix), #0x01
    000004B1 C3rC4r04         [10]  956 	jp	00137$
    000004B4                        957 00136$:
                                    958 ;E:\Dropbox\FAUSTO\SVILUPPI\MSX\CODE\C\MSXgl\projects\soccerlgMSX2/soccerlg_s9_b3.c:77: else if (throw_team == TEAM_1 && GameMode == GAMEMODE_P1_VS_P2) is_human = TRUE;
    000004B4 DD 7E FA         [19]  959 	ld	a, -6 (ix)
    000004B7 B7               [ 4]  960 	or	a, a
    000004B8 20 0A            [12]  961 	jr	NZ, 00137$
    000004BA 3Ar00r00         [13]  962 	ld	a, (_GameMode+0)
    000004BD 3D               [ 4]  963 	dec	a
    000004BE 20 04            [12]  964 	jr	NZ, 00137$
    000004C0 DD 36 FF 01      [19]  965 	ld	-1 (ix), #0x01
    000004C4                        966 00137$:
                                    967 ;E:\Dropbox\FAUSTO\SVILUPPI\MSX\CODE\C\MSXgl\projects\soccerlgMSX2/soccerlg_s9_b3.c:79: *wait_secs = is_human ? 5 : 1; // 5 secondi per il giocatore, 1 per la CPU
    000004C4 DD 7E FF         [19]  968 	ld	a, -1 (ix)
    000004C7 B7               [ 4]  969 	or	a, a
    000004C8 28 0B            [12]  970 	jr	Z, 00357$
    000004CA DD 36 F6 05      [19]  971 	ld	-10 (ix), #0x05
    000004CE DD 36 F7 00      [19]  972 	ld	-9 (ix), #0
    000004D2 C3rDDr04         [10]  973 	jp	00358$
    000004D5                        974 00357$:
    000004D5 DD 36 F6 01      [19]  975 	ld	-10 (ix), #0x01
    000004D9 DD 36 F7 00      [19]  976 	ld	-9 (ix), #0
    000004DD                        977 00358$:
    000004DD DD 7E F6         [19]  978 	ld	a, -10 (ix)
    000004E0 DD 6E FB         [19]  979 	ld	l, -5 (ix)
    000004E3 DD 66 FC         [19]  980 	ld	h, -4 (ix)
    000004E6 77               [ 7]  981 	ld	(hl), a
                                    982 ;E:\Dropbox\FAUSTO\SVILUPPI\MSX\CODE\C\MSXgl\projects\soccerlgMSX2/soccerlg_s9_b3.c:80: *start_sec = Frms;
    000004E7 DD 6E F8         [19]  983 	ld	l, -8 (ix)
    000004EA DD 66 F9         [19]  984 	ld	h, -7 (ix)
    000004ED 3Ar00r00         [13]  985 	ld	a, (_Frms+0)
    000004F0 77               [ 7]  986 	ld	(hl), a
                                    987 ;E:\Dropbox\FAUSTO\SVILUPPI\MSX\CODE\C\MSXgl\projects\soccerlgMSX2/soccerlg_s9_b3.c:81: g_last_input_dir = DIRECTION_NONE; // Resetta l'input per la selezione
    000004F1 FD 21r00r00      [14]  988 	ld	iy, #_g_last_input_dir
    000004F5 FD 36 00 00      [19]  989 	ld	0 (iy), #0x00
                                    990 ;E:\Dropbox\FAUSTO\SVILUPPI\MSX\CODE\C\MSXgl\projects\soccerlgMSX2/soccerlg_s9_b3.c:82: return;
    000004F9 C3rE9r14         [10]  991 	jp	00335$
    000004FC                        992 00147$:
                                    993 ;E:\Dropbox\FAUSTO\SVILUPPI\MSX\CODE\C\MSXgl\projects\soccerlgMSX2/soccerlg_s9_b3.c:83: } else if (RestartType == RESTART_GOALKICK) {
    000004FC 3Ar00r00         [13]  994 	ld	a, (_RestartType+0)
    000004FF D6 02            [ 7]  995 	sub	a, #0x02
    00000501 C2r9Cr05         [10]  996 	jp	NZ,00148$
                                    997 ;E:\Dropbox\FAUSTO\SVILUPPI\MSX\CODE\C\MSXgl\projects\soccerlgMSX2/soccerlg_s9_b3.c:84: *game_state = 8; // Stato di attesa e rincorsa rinvio
    00000504 DD 6E FD         [19]  998 	ld	l, -3 (ix)
    00000507 DD 66 FE         [19]  999 	ld	h, -2 (ix)
    0000050A 36 08            [10] 1000 	ld	(hl), #0x08
                                   1001 ;E:\Dropbox\FAUSTO\SVILUPPI\MSX\CODE\C\MSXgl\projects\soccerlgMSX2/soccerlg_s9_b3.c:86: u8 gk = (RestartSideY < 256) ? 0 : 7;
    0000050C 2Ar00r00         [16] 1002 	ld	hl, (_RestartSideY)
    0000050F 7C               [ 4] 1003 	ld	a, h
    00000510 D6 01            [ 7] 1004 	sub	a, #0x01
    00000512 30 0A            [12] 1005 	jr	NC, 00359$
    00000514 AF               [ 4] 1006 	xor	a, a
    00000515 DD 77 F6         [19] 1007 	ld	-10 (ix), a
    00000518 DD 77 F7         [19] 1008 	ld	-9 (ix), a
    0000051B C3r26r05         [10] 1009 	jp	00360$
    0000051E                       1010 00359$:
    0000051E DD 36 F6 07      [19] 1011 	ld	-10 (ix), #0x07
    00000522 DD 36 F7 00      [19] 1012 	ld	-9 (ix), #0
    00000526                       1013 00360$:
    00000526 DD 7E F6         [19] 1014 	ld	a, -10 (ix)
                                   1015 ;E:\Dropbox\FAUSTO\SVILUPPI\MSX\CODE\C\MSXgl\projects\soccerlgMSX2/soccerlg_s9_b3.c:87: u8 team_to_kick = (gk == 0) ? TEAM_1 : TEAM_2;
    00000529 B7               [ 4] 1016 	or	a,a
    0000052A 20 09            [12] 1017 	jr	NZ, 00361$
    0000052C DD 77 F6         [19] 1018 	ld	-10 (ix), a
    0000052F DD 77 F7         [19] 1019 	ld	-9 (ix), a
    00000532 C3r3Dr05         [10] 1020 	jp	00362$
    00000535                       1021 00361$:
    00000535 DD 36 F6 01      [19] 1022 	ld	-10 (ix), #0x01
    00000539 DD 36 F7 00      [19] 1023 	ld	-9 (ix), #0
    0000053D                       1024 00362$:
    0000053D DD 7E F6         [19] 1025 	ld	a, -10 (ix)
    00000540 DD 77 FA         [19] 1026 	ld	-6 (ix), a
                                   1027 ;E:\Dropbox\FAUSTO\SVILUPPI\MSX\CODE\C\MSXgl\projects\soccerlgMSX2/soccerlg_s9_b3.c:88: bool is_human = FALSE;
    00000543 DD 36 FF 00      [19] 1028 	ld	-1 (ix), #0x00
                                   1029 ;E:\Dropbox\FAUSTO\SVILUPPI\MSX\CODE\C\MSXgl\projects\soccerlgMSX2/soccerlg_s9_b3.c:89: if (team_to_kick == TEAM_2) is_human = TRUE;
    00000547 DD 7E FA         [19] 1030 	ld	a, -6 (ix)
    0000054A 3D               [ 4] 1031 	dec	a
    0000054B 20 07            [12] 1032 	jr	NZ, 00142$
    0000054D DD 36 FF 01      [19] 1033 	ld	-1 (ix), #0x01
    00000551 C3r64r05         [10] 1034 	jp	00143$
    00000554                       1035 00142$:
                                   1036 ;E:\Dropbox\FAUSTO\SVILUPPI\MSX\CODE\C\MSXgl\projects\soccerlgMSX2/soccerlg_s9_b3.c:90: else if (team_to_kick == TEAM_1 && GameMode == GAMEMODE_P1_VS_P2) is_human = TRUE;
    00000554 DD 7E FA         [19] 1037 	ld	a, -6 (ix)
    00000557 B7               [ 4] 1038 	or	a, a
    00000558 20 0A            [12] 1039 	jr	NZ, 00143$
    0000055A 3Ar00r00         [13] 1040 	ld	a, (_GameMode+0)
    0000055D 3D               [ 4] 1041 	dec	a
    0000055E 20 04            [12] 1042 	jr	NZ, 00143$
    00000560 DD 36 FF 01      [19] 1043 	ld	-1 (ix), #0x01
    00000564                       1044 00143$:
                                   1045 ;E:\Dropbox\FAUSTO\SVILUPPI\MSX\CODE\C\MSXgl\projects\soccerlgMSX2/soccerlg_s9_b3.c:92: *wait_secs = is_human ? 5 : 1; // 5s per l'umano, 1s per la CPU
    00000564 DD 7E FF         [19] 1046 	ld	a, -1 (ix)
    00000567 B7               [ 4] 1047 	or	a, a
    00000568 28 0B            [12] 1048 	jr	Z, 00363$
    0000056A DD 36 F6 05      [19] 1049 	ld	-10 (ix), #0x05
    0000056E DD 36 F7 00      [19] 1050 	ld	-9 (ix), #0
    00000572 C3r7Dr05         [10] 1051 	jp	00364$
    00000575                       1052 00363$:
    00000575 DD 36 F6 01      [19] 1053 	ld	-10 (ix), #0x01
    00000579 DD 36 F7 00      [19] 1054 	ld	-9 (ix), #0
    0000057D                       1055 00364$:
    0000057D DD 7E F6         [19] 1056 	ld	a, -10 (ix)
    00000580 DD 6E FB         [19] 1057 	ld	l, -5 (ix)
    00000583 DD 66 FC         [19] 1058 	ld	h, -4 (ix)
    00000586 77               [ 7] 1059 	ld	(hl), a
                                   1060 ;E:\Dropbox\FAUSTO\SVILUPPI\MSX\CODE\C\MSXgl\projects\soccerlgMSX2/soccerlg_s9_b3.c:93: *start_sec = Frms;
    00000587 DD 6E F8         [19] 1061 	ld	l, -8 (ix)
    0000058A DD 66 F9         [19] 1062 	ld	h, -7 (ix)
    0000058D 3Ar00r00         [13] 1063 	ld	a, (_Frms+0)
    00000590 77               [ 7] 1064 	ld	(hl), a
                                   1065 ;E:\Dropbox\FAUSTO\SVILUPPI\MSX\CODE\C\MSXgl\projects\soccerlgMSX2/soccerlg_s9_b3.c:94: g_last_input_dir = DIRECTION_NONE; // Resetta l'input per la selezione
    00000591 FD 21r00r00      [14] 1066 	ld	iy, #_g_last_input_dir
    00000595 FD 36 00 00      [19] 1067 	ld	0 (iy), #0x00
                                   1068 ;E:\Dropbox\FAUSTO\SVILUPPI\MSX\CODE\C\MSXgl\projects\soccerlgMSX2/soccerlg_s9_b3.c:95: return;
    00000599 C3rE9r14         [10] 1069 	jp	00335$
    0000059C                       1070 00148$:
                                   1071 ;E:\Dropbox\FAUSTO\SVILUPPI\MSX\CODE\C\MSXgl\projects\soccerlgMSX2/soccerlg_s9_b3.c:97: *game_state = 3;
    0000059C DD 6E FD         [19] 1072 	ld	l, -3 (ix)
    0000059F DD 66 FE         [19] 1073 	ld	h, -2 (ix)
    000005A2 36 03            [10] 1074 	ld	(hl), #0x03
                                   1075 ;E:\Dropbox\FAUSTO\SVILUPPI\MSX\CODE\C\MSXgl\projects\soccerlgMSX2/soccerlg_s9_b3.c:100: if (KickOffTeam == TEAM_1) {
    000005A4 3Ar00r00         [13] 1076 	ld	a, (_KickOffTeam+0)
    000005A7 B7               [ 4] 1077 	or	a, a
    000005A8 20 29            [12] 1078 	jr	NZ, 00150$
                                   1079 ;E:\Dropbox\FAUSTO\SVILUPPI\MSX\CODE\C\MSXgl\projects\soccerlgMSX2/soccerlg_s9_b3.c:101: T1_Carrier = 3; // Giocatore a sinistra della palla
    000005AA 21r00r00         [10] 1080 	ld	hl, #_T1_Carrier
    000005AD 36 03            [10] 1081 	ld	(hl), #0x03
                                   1082 ;E:\Dropbox\FAUSTO\SVILUPPI\MSX\CODE\C\MSXgl\projects\soccerlgMSX2/soccerlg_s9_b3.c:102: T1_Receiver = (u8)CallFnc_U16_P4B(SEG_LOGIC, FindReceiver, T1_Carrier, 4, 0, 1); // Ignora il compagno (4)
    000005AF 3E 01            [ 7] 1083 	ld	a, #0x01
    000005B1 F5               [11] 1084 	push	af
    000005B2 33               [ 6] 1085 	inc	sp
    000005B3 AF               [ 4] 1086 	xor	a, a
    000005B4 67               [ 4] 1087 	ld	h, a
    000005B5 2E 04            [ 7] 1088 	ld	l, #0x04
    000005B7 E5               [11] 1089 	push	hl
    000005B8 3E 03            [ 7] 1090 	ld	a, #0x03
    000005BA F5               [11] 1091 	push	af
    000005BB 33               [ 6] 1092 	inc	sp
    000005BC 11r00r00         [10] 1093 	ld	de, #_FindReceiver
    000005BF 3E 06            [ 7] 1094 	ld	a, #0x06
    000005C1 CDr00r00         [17] 1095 	call	_CallFnc_U16_P4B
    000005C4 7B               [ 4] 1096 	ld	a, e
    000005C5 32r00r00         [13] 1097 	ld	(#_T1_Receiver), a
                                   1098 ;E:\Dropbox\FAUSTO\SVILUPPI\MSX\CODE\C\MSXgl\projects\soccerlgMSX2/soccerlg_s9_b3.c:103: T2_Carrier = T2_Receiver = 0xFF; // Difesa senza palla
    000005C8 3E FF            [ 7] 1099 	ld	a,#0xff
    000005CA 32r00r00         [13] 1100 	ld	(#_T2_Receiver),a
    000005CD 32r00r00         [13] 1101 	ld	(#_T2_Carrier), a
    000005D0 C3rF9r05         [10] 1102 	jp	00151$
    000005D3                       1103 00150$:
                                   1104 ;E:\Dropbox\FAUSTO\SVILUPPI\MSX\CODE\C\MSXgl\projects\soccerlgMSX2/soccerlg_s9_b3.c:105: T2_Carrier = 11; // Giocatore a destra della palla
    000005D3 21r00r00         [10] 1105 	ld	hl, #_T2_Carrier
    000005D6 36 0B            [10] 1106 	ld	(hl), #0x0b
                                   1107 ;E:\Dropbox\FAUSTO\SVILUPPI\MSX\CODE\C\MSXgl\projects\soccerlgMSX2/soccerlg_s9_b3.c:106: T2_Receiver = (u8)CallFnc_U16_P4B(SEG_LOGIC, FindReceiver, T2_Carrier, 10, 0, -1); // Ignora il compagno (10)
    000005D8 3E FF            [ 7] 1108 	ld	a, #0xff
    000005DA F5               [11] 1109 	push	af
    000005DB 33               [ 6] 1110 	inc	sp
    000005DC AF               [ 4] 1111 	xor	a, a
    000005DD 67               [ 4] 1112 	ld	h, a
    000005DE 2E 0A            [ 7] 1113 	ld	l, #0x0a
    000005E0 E5               [11] 1114 	push	hl
    000005E1 3E 0B            [ 7] 1115 	ld	a, #0x0b
    000005E3 F5               [11] 1116 	push	af
    000005E4 33               [ 6] 1117 	inc	sp
    000005E5 11r00r00         [10] 1118 	ld	de, #_FindReceiver
    000005E8 3E 06            [ 7] 1119 	ld	a, #0x06
    000005EA CDr00r00         [17] 1120 	call	_CallFnc_U16_P4B
    000005ED 7B               [ 4] 1121 	ld	a, e
    000005EE 32r00r00         [13] 1122 	ld	(#_T2_Receiver), a
                                   1123 ;E:\Dropbox\FAUSTO\SVILUPPI\MSX\CODE\C\MSXgl\projects\soccerlgMSX2/soccerlg_s9_b3.c:107: T1_Carrier = T1_Receiver = 0xFF; // Difesa senza palla
    000005F1 3E FF            [ 7] 1124 	ld	a,#0xff
    000005F3 32r00r00         [13] 1125 	ld	(#_T1_Receiver),a
    000005F6 32r00r00         [13] 1126 	ld	(#_T1_Carrier), a
    000005F9                       1127 00151$:
                                   1128 ;E:\Dropbox\FAUSTO\SVILUPPI\MSX\CODE\C\MSXgl\projects\soccerlgMSX2/soccerlg_s9_b3.c:110: LastTouchTeam = KickOffTeam; // Assegna possesso fittizio al team che batte per far allargare i compagni
    000005F9 3Ar00r00         [13] 1129 	ld	a, (_KickOffTeam+0)
    000005FC 32r00r00         [13] 1130 	ld	(_LastTouchTeam+0), a
                                   1131 ;E:\Dropbox\FAUSTO\SVILUPPI\MSX\CODE\C\MSXgl\projects\soccerlgMSX2/soccerlg_s9_b3.c:112: *wait_secs = 2;
    000005FF DD 6E FB         [19] 1132 	ld	l, -5 (ix)
    00000602 DD 66 FC         [19] 1133 	ld	h, -4 (ix)
    00000605 36 02            [10] 1134 	ld	(hl), #0x02
                                   1135 ;E:\Dropbox\FAUSTO\SVILUPPI\MSX\CODE\C\MSXgl\projects\soccerlgMSX2/soccerlg_s9_b3.c:113: *start_sec = Frms;
    00000607 DD 6E F8         [19] 1136 	ld	l, -8 (ix)
    0000060A DD 66 F9         [19] 1137 	ld	h, -7 (ix)
    0000060D 3Ar00r00         [13] 1138 	ld	a, (_Frms+0)
    00000610 77               [ 7] 1139 	ld	(hl), a
                                   1140 ;E:\Dropbox\FAUSTO\SVILUPPI\MSX\CODE\C\MSXgl\projects\soccerlgMSX2/soccerlg_s9_b3.c:114: CallFnc_VOID(SEG_EVENTS, EventKickOffReady);
    00000611 11r00r00         [10] 1141 	ld	de, #_EventKickOffReady
    00000614 3E 08            [ 7] 1142 	ld	a, #0x08
    00000616 CDr00r00         [17] 1143 	call	_CallFnc_VOID
    00000619 C3rE9r14         [10] 1144 	jp	00335$
    0000061C                       1145 00313$:
                                   1146 ;E:\Dropbox\FAUSTO\SVILUPPI\MSX\CODE\C\MSXgl\projects\soccerlgMSX2/soccerlg_s9_b3.c:116: } else if (*game_state == 3) {
    0000061C DD 7E FF         [19] 1147 	ld	a, -1 (ix)
    0000061F D6 03            [ 7] 1148 	sub	a, #0x03
    00000621 C2rC5r14         [10] 1149 	jp	NZ,00310$
                                   1150 ;E:\Dropbox\FAUSTO\SVILUPPI\MSX\CODE\C\MSXgl\projects\soccerlgMSX2/soccerlg_s9_b3.c:118: if (Mins == 0 && Secs == 0) {
    00000624 3Ar00r00         [13] 1151 	ld	a, (_Mins+0)
    00000627 B7               [ 4] 1152 	or	a, a
    00000628 20 6E            [12] 1153 	jr	NZ, 00160$
    0000062A 3Ar00r00         [13] 1154 	ld	a, (_Secs+0)
    0000062D B7               [ 4] 1155 	or	a, a
    0000062E 20 68            [12] 1156 	jr	NZ, 00160$
                                   1157 ;E:\Dropbox\FAUSTO\SVILUPPI\MSX\CODE\C\MSXgl\projects\soccerlgMSX2/soccerlg_s9_b3.c:119: if (Half == 1) {
    00000630 3Ar00r00         [13] 1158 	ld	a, (_Half+0)
    00000633 3D               [ 4] 1159 	dec	a
    00000634 20 31            [12] 1160 	jr	NZ, 00157$
                                   1161 ;E:\Dropbox\FAUSTO\SVILUPPI\MSX\CODE\C\MSXgl\projects\soccerlgMSX2/soccerlg_s9_b3.c:120: *game_state = 4;
    00000636 DD 6E FD         [19] 1162 	ld	l, -3 (ix)
    00000639 DD 66 FE         [19] 1163 	ld	h, -2 (ix)
    0000063C 36 04            [10] 1164 	ld	(hl), #0x04
                                   1165 ;E:\Dropbox\FAUSTO\SVILUPPI\MSX\CODE\C\MSXgl\projects\soccerlgMSX2/soccerlg_s9_b3.c:121: *wait_secs = 2;
    0000063E DD 6E FB         [19] 1166 	ld	l, -5 (ix)
    00000641 DD 66 FC         [19] 1167 	ld	h, -4 (ix)
    00000644 36 02            [10] 1168 	ld	(hl), #0x02
                                   1169 ;E:\Dropbox\FAUSTO\SVILUPPI\MSX\CODE\C\MSXgl\projects\soccerlgMSX2/soccerlg_s9_b3.c:122: *start_sec = Frms;
    00000646 DD 4E 04         [19] 1170 	ld	c, 4 (ix)
    00000649 DD 46 05         [19] 1171 	ld	b, 5 (ix)
    0000064C 3Ar00r00         [13] 1172 	ld	a, (_Frms+0)
    0000064F 02               [ 7] 1173 	ld	(bc), a
                                   1174 ;E:\Dropbox\FAUSTO\SVILUPPI\MSX\CODE\C\MSXgl\projects\soccerlgMSX2/soccerlg_s9_b3.c:123: CallFnc_VOID_16_P1(SEG_DRAW, ShowSpriteMessage, SPR_MSG_HALFTIME);
    00000650 21 44 01         [10] 1175 	ld	hl, #0x0144
    00000653 E5               [11] 1176 	push	hl
    00000654 11r00r00         [10] 1177 	ld	de, #_ShowSpriteMessage
    00000657 3E 05            [ 7] 1178 	ld	a, #0x05
    00000659 CDr00r00         [17] 1179 	call	_CallFnc_VOID_16_P1
                                   1180 ;E:\Dropbox\FAUSTO\SVILUPPI\MSX\CODE\C\MSXgl\projects\soccerlgMSX2/soccerlg_s9_b3.c:124: CallFnc_VOID(SEG_EVENTS, EventHalfTime);
    0000065C 11r00r00         [10] 1181 	ld	de, #_EventHalfTime
    0000065F 3E 08            [ 7] 1182 	ld	a, #0x08
    00000661 CDr00r00         [17] 1183 	call	_CallFnc_VOID
    00000664 C3rE9r14         [10] 1184 	jp	00335$
    00000667                       1185 00157$:
                                   1186 ;E:\Dropbox\FAUSTO\SVILUPPI\MSX\CODE\C\MSXgl\projects\soccerlgMSX2/soccerlg_s9_b3.c:125: } else if (Half == 2) {
    00000667 3Ar00r00         [13] 1187 	ld	a, (_Half+0)
    0000066A D6 02            [ 7] 1188 	sub	a, #0x02
    0000066C C2rE9r14         [10] 1189 	jp	NZ,00335$
                                   1190 ;E:\Dropbox\FAUSTO\SVILUPPI\MSX\CODE\C\MSXgl\projects\soccerlgMSX2/soccerlg_s9_b3.c:126: *game_state = 5;
    0000066F DD 6E FD         [19] 1191 	ld	l, -3 (ix)
    00000672 DD 66 FE         [19] 1192 	ld	h, -2 (ix)
    00000675 36 05            [10] 1193 	ld	(hl), #0x05
                                   1194 ;E:\Dropbox\FAUSTO\SVILUPPI\MSX\CODE\C\MSXgl\projects\soccerlgMSX2/soccerlg_s9_b3.c:127: *wait_secs = 2;
    00000677 DD 6E FB         [19] 1195 	ld	l, -5 (ix)
    0000067A DD 66 FC         [19] 1196 	ld	h, -4 (ix)
    0000067D 36 02            [10] 1197 	ld	(hl), #0x02
                                   1198 ;E:\Dropbox\FAUSTO\SVILUPPI\MSX\CODE\C\MSXgl\projects\soccerlgMSX2/soccerlg_s9_b3.c:128: *start_sec = Frms;
    0000067F DD 4E 04         [19] 1199 	ld	c, 4 (ix)
    00000682 DD 46 05         [19] 1200 	ld	b, 5 (ix)
    00000685 3Ar00r00         [13] 1201 	ld	a, (_Frms+0)
    00000688 02               [ 7] 1202 	ld	(bc), a
                                   1203 ;E:\Dropbox\FAUSTO\SVILUPPI\MSX\CODE\C\MSXgl\projects\soccerlgMSX2/soccerlg_s9_b3.c:129: CallFnc_VOID_16_P1(SEG_DRAW, ShowSpriteMessage, SPR_MSG_TIMEUP);
    00000689 21 40 01         [10] 1204 	ld	hl, #0x0140
    0000068C E5               [11] 1205 	push	hl
    0000068D 11r00r00         [10] 1206 	ld	de, #_ShowSpriteMessage
    00000690 3E 05            [ 7] 1207 	ld	a, #0x05
    00000692 CDr00r00         [17] 1208 	call	_CallFnc_VOID_16_P1
                                   1209 ;E:\Dropbox\FAUSTO\SVILUPPI\MSX\CODE\C\MSXgl\projects\soccerlgMSX2/soccerlg_s9_b3.c:131: return;
    00000695 C3rE9r14         [10] 1210 	jp	00335$
    00000698                       1211 00160$:
                                   1212 ;E:\Dropbox\FAUSTO\SVILUPPI\MSX\CODE\C\MSXgl\projects\soccerlgMSX2/soccerlg_s9_b3.c:135: if (*wait_secs > 0) {
    00000698 DD 6E FB         [19] 1213 	ld	l, -5 (ix)
    0000069B DD 66 FC         [19] 1214 	ld	h, -4 (ix)
    0000069E 7E               [ 7] 1215 	ld	a, (hl)
    0000069F DD 77 FF         [19] 1216 	ld	-1 (ix), a
    000006A2 B7               [ 4] 1217 	or	a, a
    000006A3 28 45            [12] 1218 	jr	Z, 00167$
                                   1219 ;E:\Dropbox\FAUSTO\SVILUPPI\MSX\CODE\C\MSXgl\projects\soccerlgMSX2/soccerlg_s9_b3.c:136: if (*start_sec < Frms) { // Frms wrapped from 1 to 60
    000006A5 DD 7E 04         [19] 1220 	ld	a, 4 (ix)
    000006A8 DD 77 F9         [19] 1221 	ld	-7 (ix), a
    000006AB DD 7E 05         [19] 1222 	ld	a, 5 (ix)
    000006AE DD 77 FA         [19] 1223 	ld	-6 (ix), a
    000006B1 DD 6E F9         [19] 1224 	ld	l, -7 (ix)
    000006B4 DD 66 FA         [19] 1225 	ld	h, -6 (ix)
    000006B7 4E               [ 7] 1226 	ld	c, (hl)
    000006B8 21r00r00         [10] 1227 	ld	hl, #_Frms
    000006BB 79               [ 4] 1228 	ld	a, c
    000006BC 96               [ 7] 1229 	sub	a, (hl)
    000006BD 30 1E            [12] 1230 	jr	NC, 00165$
                                   1231 ;E:\Dropbox\FAUSTO\SVILUPPI\MSX\CODE\C\MSXgl\projects\soccerlgMSX2/soccerlg_s9_b3.c:137: (*wait_secs)--;
    000006BF DD 7E FF         [19] 1232 	ld	a, -1 (ix)
    000006C2 3D               [ 4] 1233 	dec	a
    000006C3 DD 6E FB         [19] 1234 	ld	l, -5 (ix)
    000006C6 DD 66 FC         [19] 1235 	ld	h, -4 (ix)
    000006C9 77               [ 7] 1236 	ld	(hl), a
                                   1237 ;E:\Dropbox\FAUSTO\SVILUPPI\MSX\CODE\C\MSXgl\projects\soccerlgMSX2/soccerlg_s9_b3.c:138: if (*wait_secs == 0) {
    000006CA B7               [ 4] 1238 	or	a, a
    000006CB 20 10            [12] 1239 	jr	NZ, 00165$
                                   1240 ;E:\Dropbox\FAUSTO\SVILUPPI\MSX\CODE\C\MSXgl\projects\soccerlgMSX2/soccerlg_s9_b3.c:139: CallFnc_VOID(SEG_DRAW, HideSpriteMessage);
    000006CD 11r00r00         [10] 1241 	ld	de, #_HideSpriteMessage
    000006D0 3E 05            [ 7] 1242 	ld	a, #0x05
    000006D2 CDr00r00         [17] 1243 	call	_CallFnc_VOID
                                   1244 ;E:\Dropbox\FAUSTO\SVILUPPI\MSX\CODE\C\MSXgl\projects\soccerlgMSX2/soccerlg_s9_b3.c:140: TimerEnabled = TRUE; // Avvia il cronometro alla sparizione della scritta
    000006D5 FD 21r00r00      [14] 1245 	ld	iy, #_TimerEnabled
    000006D9 FD 36 00 01      [19] 1246 	ld	0 (iy), #0x01
    000006DD                       1247 00165$:
                                   1248 ;E:\Dropbox\FAUSTO\SVILUPPI\MSX\CODE\C\MSXgl\projects\soccerlgMSX2/soccerlg_s9_b3.c:143: *start_sec = Frms;
    000006DD DD 6E F9         [19] 1249 	ld	l, -7 (ix)
    000006E0 DD 66 FA         [19] 1250 	ld	h, -6 (ix)
    000006E3 3Ar00r00         [13] 1251 	ld	a, (_Frms+0)
    000006E6 77               [ 7] 1252 	ld	(hl), a
                                   1253 ;E:\Dropbox\FAUSTO\SVILUPPI\MSX\CODE\C\MSXgl\projects\soccerlgMSX2/soccerlg_s9_b3.c:144: return; // Ferma l'IA e il gioco finché la scritta non sparisce
    000006E7 C3rE9r14         [10] 1254 	jp	00335$
    000006EA                       1255 00167$:
                                   1256 ;E:\Dropbox\FAUSTO\SVILUPPI\MSX\CODE\C\MSXgl\projects\soccerlgMSX2/soccerlg_s9_b3.c:148: CallFnc_VOID(SEG_FIELD, UpdateFieldCamera);
    000006EA 11r00r00         [10] 1257 	ld	de, #_UpdateFieldCamera
    000006ED 3E 0A            [ 7] 1258 	ld	a, #0x0a
    000006EF CDr00r00         [17] 1259 	call	_CallFnc_VOID
                                   1260 ;E:\Dropbox\FAUSTO\SVILUPPI\MSX\CODE\C\MSXgl\projects\soccerlgMSX2/soccerlg_s9_b3.c:149: CallFnc_VOID_3PTR(SEG_FIELD, CheckFieldBoundaries, game_state, wait_secs, start_sec);
    000006F2 DD 6E 04         [19] 1261 	ld	l, 4 (ix)
                                   1262 ;	spillPairReg hl
                                   1263 ;	spillPairReg hl
    000006F5 DD 66 05         [19] 1264 	ld	h, 5 (ix)
                                   1265 ;	spillPairReg hl
                                   1266 ;	spillPairReg hl
    000006F8 E5               [11] 1267 	push	hl
    000006F9 DD 6E FB         [19] 1268 	ld	l, -5 (ix)
                                   1269 ;	spillPairReg hl
                                   1270 ;	spillPairReg hl
    000006FC DD 66 FC         [19] 1271 	ld	h, -4 (ix)
                                   1272 ;	spillPairReg hl
                                   1273 ;	spillPairReg hl
    000006FF E5               [11] 1274 	push	hl
    00000700 DD 6E FD         [19] 1275 	ld	l, -3 (ix)
                                   1276 ;	spillPairReg hl
                                   1277 ;	spillPairReg hl
    00000703 DD 66 FE         [19] 1278 	ld	h, -2 (ix)
                                   1279 ;	spillPairReg hl
                                   1280 ;	spillPairReg hl
    00000706 E5               [11] 1281 	push	hl
    00000707 11r00r00         [10] 1282 	ld	de, #_CheckFieldBoundaries
    0000070A 3E 0A            [ 7] 1283 	ld	a, #0x0a
    0000070C CDr00r00         [17] 1284 	call	_CallFnc_VOID_3PTR
                                   1285 ;E:\Dropbox\FAUSTO\SVILUPPI\MSX\CODE\C\MSXgl\projects\soccerlgMSX2/soccerlg_s9_b3.c:152: struct ObjectInfo* Ball = &SwSprite[14];
                                   1286 ;E:\Dropbox\FAUSTO\SVILUPPI\MSX\CODE\C\MSXgl\projects\soccerlgMSX2/soccerlg_s9_b3.c:154: u8 closest_t1 = 1; u16 min_dist_t1 = 0xFFFF;
    0000070F DD 36 EF 01      [19] 1287 	ld	-17 (ix), #0x01
    00000713 DD 36 F0 FF      [19] 1288 	ld	-16 (ix), #0xff
    00000717 DD 36 F1 FF      [19] 1289 	ld	-15 (ix), #0xff
                                   1290 ;E:\Dropbox\FAUSTO\SVILUPPI\MSX\CODE\C\MSXgl\projects\soccerlgMSX2/soccerlg_s9_b3.c:155: u8 closest_t2 = 8; u16 min_dist_t2 = 0xFFFF;
    0000071B DD 36 F2 08      [19] 1291 	ld	-14 (ix), #0x08
    0000071F DD 36 F3 FF      [19] 1292 	ld	-13 (ix), #0xff
    00000723 DD 36 F4 FF      [19] 1293 	ld	-12 (ix), #0xff
                                   1294 ;E:\Dropbox\FAUSTO\SVILUPPI\MSX\CODE\C\MSXgl\projects\soccerlgMSX2/soccerlg_s9_b3.c:157: for (u8 i = 1; i < 7; i++) { 
    00000727 DD 36 FF 01      [19] 1295 	ld	-1 (ix), #0x01
    0000072B                       1296 00325$:
    0000072B DD 7E FF         [19] 1297 	ld	a, -1 (ix)
    0000072E D6 07            [ 7] 1298 	sub	a, #0x07
    00000730 D2rC8r07         [10] 1299 	jp	NC, 00170$
                                   1300 ;E:\Dropbox\FAUSTO\SVILUPPI\MSX\CODE\C\MSXgl\projects\soccerlgMSX2/soccerlg_s9_b3.c:158: u8 dx_diff = (u8)(SwSprite[i].lx - Ball->lx);
    00000733 DD 4E FF         [19] 1301 	ld	c, -1 (ix)
    00000736 06 00            [ 7] 1302 	ld	b, #0x00
    00000738 69               [ 4] 1303 	ld	l, c
    00000739 60               [ 4] 1304 	ld	h, b
    0000073A 29               [11] 1305 	add	hl, hl
    0000073B 29               [11] 1306 	add	hl, hl
    0000073C 09               [11] 1307 	add	hl, bc
    0000073D 29               [11] 1308 	add	hl, hl
    0000073E 09               [11] 1309 	add	hl, bc
    0000073F 29               [11] 1310 	add	hl, hl
    00000740 09               [11] 1311 	add	hl, bc
    00000741 11r00r00         [10] 1312 	ld	de, #_SwSprite
    00000744 19               [11] 1313 	add	hl, de
    00000745 4D               [ 4] 1314 	ld	c, l
    00000746 44               [ 4] 1315 	ld	b, h
    00000747 0A               [ 7] 1316 	ld	a, (bc)
    00000748 21r42r01         [10] 1317 	ld	hl, #(_SwSprite + 322)
    0000074B 5E               [ 7] 1318 	ld	e, (hl)
    0000074C 93               [ 4] 1319 	sub	a, e
                                   1320 ;E:\Dropbox\FAUSTO\SVILUPPI\MSX\CODE\C\MSXgl\projects\soccerlgMSX2/soccerlg_s9_b3.c:159: u16 dist_x = (dx_diff < 128) ? dx_diff : (256 - dx_diff);
    0000074D 5F               [ 4] 1321 	ld	e, a
    0000074E 16 00            [ 7] 1322 	ld	d, #0x00
    00000750 D6 80            [ 7] 1323 	sub	a, #0x80
    00000752 30 04            [12] 1324 	jr	NC, 00365$
    00000754 7A               [ 4] 1325 	ld	a, d
    00000755 C3r5Er07         [10] 1326 	jp	00366$
    00000758                       1327 00365$:
    00000758 AF               [ 4] 1328 	xor	a, a
    00000759 93               [ 4] 1329 	sub	a, e
    0000075A 5F               [ 4] 1330 	ld	e, a
    0000075B 3E 01            [ 7] 1331 	ld	a, #0x01
    0000075D 9A               [ 4] 1332 	sbc	a, d
    0000075E                       1333 00366$:
    0000075E DD 73 F5         [19] 1334 	ld	-11 (ix), e
    00000761 DD 77 F6         [19] 1335 	ld	-10 (ix), a
                                   1336 ;E:\Dropbox\FAUSTO\SVILUPPI\MSX\CODE\C\MSXgl\projects\soccerlgMSX2/soccerlg_s9_b3.c:160: u16 dy_diff = (u16)(SwSprite[i].ly - Ball->ly) & 511;
    00000764 21 04 00         [10] 1337 	ld	hl, #4
    00000767 09               [11] 1338 	add	hl, bc
    00000768 4E               [ 7] 1339 	ld	c, (hl)
    00000769 23               [ 6] 1340 	inc	hl
    0000076A 46               [ 7] 1341 	ld	b, (hl)
    0000076B 2Ar46r01         [16] 1342 	ld	hl, (#(_SwSprite + 326) + 0)
    0000076E 79               [ 4] 1343 	ld	a, c
    0000076F 95               [ 4] 1344 	sub	a, l
    00000770 4F               [ 4] 1345 	ld	c, a
    00000771 78               [ 4] 1346 	ld	a, b
    00000772 9C               [ 4] 1347 	sbc	a, h
    00000773 E6 01            [ 7] 1348 	and	a, #0x01
    00000775 DD 71 F7         [19] 1349 	ld	-9 (ix), c
                                   1350 ;E:\Dropbox\FAUSTO\SVILUPPI\MSX\CODE\C\MSXgl\projects\soccerlgMSX2/soccerlg_s9_b3.c:161: u16 dist_y = (dy_diff < 256) ? dy_diff : (512 - dy_diff);
    00000778 DD 77 F8         [19] 1351 	ld	-8 (ix), a
    0000077B D6 01            [ 7] 1352 	sub	a, #0x01
    0000077D 30 0F            [12] 1353 	jr	NC, 00367$
    0000077F DD 7E F7         [19] 1354 	ld	a, -9 (ix)
    00000782 DD 77 F9         [19] 1355 	ld	-7 (ix), a
    00000785 DD 7E F8         [19] 1356 	ld	a, -8 (ix)
    00000788 DD 77 FA         [19] 1357 	ld	-6 (ix), a
    0000078B C3r9Dr07         [10] 1358 	jp	00368$
    0000078E                       1359 00367$:
    0000078E AF               [ 4] 1360 	xor	a, a
    0000078F DD 96 F7         [19] 1361 	sub	a, -9 (ix)
    00000792 DD 77 F9         [19] 1362 	ld	-7 (ix), a
    00000795 3E 02            [ 7] 1363 	ld	a, #0x02
    00000797 DD 9E F8         [19] 1364 	sbc	a, -8 (ix)
    0000079A DD 77 FA         [19] 1365 	ld	-6 (ix), a
    0000079D                       1366 00368$:
    0000079D DD 7E F9         [19] 1367 	ld	a, -7 (ix)
    000007A0 DD 46 FA         [19] 1368 	ld	b, -6 (ix)
                                   1369 ;E:\Dropbox\FAUSTO\SVILUPPI\MSX\CODE\C\MSXgl\projects\soccerlgMSX2/soccerlg_s9_b3.c:162: if (dist_x + dist_y < min_dist_t1) { min_dist_t1 = dist_x + dist_y; closest_t1 = i; }
    000007A3 DD 86 F5         [19] 1370 	add	a, -11 (ix)
    000007A6 4F               [ 4] 1371 	ld	c, a
    000007A7 78               [ 4] 1372 	ld	a, b
    000007A8 DD 8E F6         [19] 1373 	adc	a, -10 (ix)
    000007AB 47               [ 4] 1374 	ld	b, a
    000007AC 79               [ 4] 1375 	ld	a, c
    000007AD DD 96 F0         [19] 1376 	sub	a, -16 (ix)
    000007B0 78               [ 4] 1377 	ld	a, b
    000007B1 DD 9E F1         [19] 1378 	sbc	a, -15 (ix)
    000007B4 30 0C            [12] 1379 	jr	NC, 00326$
    000007B6 DD 71 F0         [19] 1380 	ld	-16 (ix), c
    000007B9 DD 70 F1         [19] 1381 	ld	-15 (ix), b
    000007BC DD 7E FF         [19] 1382 	ld	a, -1 (ix)
    000007BF DD 77 EF         [19] 1383 	ld	-17 (ix), a
    000007C2                       1384 00326$:
                                   1385 ;E:\Dropbox\FAUSTO\SVILUPPI\MSX\CODE\C\MSXgl\projects\soccerlgMSX2/soccerlg_s9_b3.c:157: for (u8 i = 1; i < 7; i++) { 
    000007C2 DD 34 FF         [23] 1386 	inc	-1 (ix)
    000007C5 C3r2Br07         [10] 1387 	jp	00325$
    000007C8                       1388 00170$:
                                   1389 ;E:\Dropbox\FAUSTO\SVILUPPI\MSX\CODE\C\MSXgl\projects\soccerlgMSX2/soccerlg_s9_b3.c:164: for (u8 i = 8; i < 14; i++) {
    000007C8 0E 08            [ 7] 1390 	ld	c, #0x08
    000007CA                       1391 00328$:
    000007CA 79               [ 4] 1392 	ld	a, c
    000007CB D6 0E            [ 7] 1393 	sub	a, #0x0e
    000007CD 30 76            [12] 1394 	jr	NC, 00173$
                                   1395 ;E:\Dropbox\FAUSTO\SVILUPPI\MSX\CODE\C\MSXgl\projects\soccerlgMSX2/soccerlg_s9_b3.c:165: u8 dx_diff = (u8)(SwSprite[i].lx - Ball->lx);
    000007CF 06 00            [ 7] 1396 	ld	b, #0x00
    000007D1 69               [ 4] 1397 	ld	l, c
    000007D2 60               [ 4] 1398 	ld	h, b
    000007D3 29               [11] 1399 	add	hl, hl
    000007D4 29               [11] 1400 	add	hl, hl
    000007D5 09               [11] 1401 	add	hl, bc
    000007D6 29               [11] 1402 	add	hl, hl
    000007D7 09               [11] 1403 	add	hl, bc
    000007D8 29               [11] 1404 	add	hl, hl
    000007D9 09               [11] 1405 	add	hl, bc
    000007DA 11r00r00         [10] 1406 	ld	de, #_SwSprite
    000007DD 19               [11] 1407 	add	hl, de
    000007DE DD 75 F7         [19] 1408 	ld	-9 (ix), l
    000007E1 DD 74 F8         [19] 1409 	ld	-8 (ix), h
    000007E4 7E               [ 7] 1410 	ld	a, (hl)
    000007E5 21r42r01         [10] 1411 	ld	hl, #(_SwSprite + 322)
    000007E8 46               [ 7] 1412 	ld	b, (hl)
    000007E9 90               [ 4] 1413 	sub	a, b
                                   1414 ;E:\Dropbox\FAUSTO\SVILUPPI\MSX\CODE\C\MSXgl\projects\soccerlgMSX2/soccerlg_s9_b3.c:166: u16 dist_x = (dx_diff < 128) ? dx_diff : (256 - dx_diff);
    000007EA 5F               [ 4] 1415 	ld	e, a
    000007EB 16 00            [ 7] 1416 	ld	d, #0x00
    000007ED D6 80            [ 7] 1417 	sub	a, #0x80
    000007EF 30 04            [12] 1418 	jr	NC, 00369$
    000007F1 7A               [ 4] 1419 	ld	a, d
    000007F2 C3rFBr07         [10] 1420 	jp	00370$
    000007F5                       1421 00369$:
    000007F5 AF               [ 4] 1422 	xor	a, a
    000007F6 93               [ 4] 1423 	sub	a, e
    000007F7 5F               [ 4] 1424 	ld	e, a
    000007F8 3E 01            [ 7] 1425 	ld	a, #0x01
    000007FA 9A               [ 4] 1426 	sbc	a, d
    000007FB                       1427 00370$:
    000007FB DD 73 F9         [19] 1428 	ld	-7 (ix), e
    000007FE DD 77 FA         [19] 1429 	ld	-6 (ix), a
                                   1430 ;E:\Dropbox\FAUSTO\SVILUPPI\MSX\CODE\C\MSXgl\projects\soccerlgMSX2/soccerlg_s9_b3.c:167: u16 dy_diff = (u16)(SwSprite[i].ly - Ball->ly) & 511;
    00000801 DD 5E F7         [19] 1431 	ld	e, -9 (ix)
    00000804 DD 56 F8         [19] 1432 	ld	d, -8 (ix)
    00000807 21 04 00         [10] 1433 	ld	hl, #4
    0000080A 19               [11] 1434 	add	hl, de
    0000080B 5E               [ 7] 1435 	ld	e, (hl)
    0000080C 23               [ 6] 1436 	inc	hl
    0000080D 56               [ 7] 1437 	ld	d, (hl)
    0000080E 2Ar46r01         [16] 1438 	ld	hl, (#(_SwSprite + 326) + 0)
    00000811 7B               [ 4] 1439 	ld	a, e
    00000812 95               [ 4] 1440 	sub	a, l
    00000813 5F               [ 4] 1441 	ld	e, a
    00000814 7A               [ 4] 1442 	ld	a, d
    00000815 9C               [ 4] 1443 	sbc	a, h
    00000816 E6 01            [ 7] 1444 	and	a, #0x01
                                   1445 ;E:\Dropbox\FAUSTO\SVILUPPI\MSX\CODE\C\MSXgl\projects\soccerlgMSX2/soccerlg_s9_b3.c:168: u16 dist_y = (dy_diff < 256) ? dy_diff : (512 - dy_diff);
                                   1446 ;	spillPairReg hl
                                   1447 ;	spillPairReg hl
    00000818 57               [ 4] 1448 	ld	d, a
    00000819 D6 01            [ 7] 1449 	sub	a, #0x01
    0000081B 38 07            [12] 1450 	jr	C, 00372$
    0000081D 21 00 02         [10] 1451 	ld	hl, #0x0200
    00000820 BF               [ 4] 1452 	cp	a, a
    00000821 ED 52            [15] 1453 	sbc	hl, de
    00000823 EB               [ 4] 1454 	ex	de, hl
    00000824                       1455 00372$:
                                   1456 ;E:\Dropbox\FAUSTO\SVILUPPI\MSX\CODE\C\MSXgl\projects\soccerlgMSX2/soccerlg_s9_b3.c:169: if (dist_x + dist_y < min_dist_t2) { min_dist_t2 = dist_x + dist_y; closest_t2 = i; }
    00000824 DD 7E F9         [19] 1457 	ld	a, -7 (ix)
    00000827 83               [ 4] 1458 	add	a, e
    00000828 47               [ 4] 1459 	ld	b, a
    00000829 DD 7E FA         [19] 1460 	ld	a, -6 (ix)
    0000082C 8A               [ 4] 1461 	adc	a, d
    0000082D 5F               [ 4] 1462 	ld	e, a
    0000082E 78               [ 4] 1463 	ld	a, b
    0000082F DD 96 F3         [19] 1464 	sub	a, -13 (ix)
    00000832 7B               [ 4] 1465 	ld	a, e
    00000833 DD 9E F4         [19] 1466 	sbc	a, -12 (ix)
    00000836 30 09            [12] 1467 	jr	NC, 00329$
    00000838 DD 70 F3         [19] 1468 	ld	-13 (ix), b
    0000083B DD 73 F4         [19] 1469 	ld	-12 (ix), e
    0000083E DD 71 F2         [19] 1470 	ld	-14 (ix), c
    00000841                       1471 00329$:
                                   1472 ;E:\Dropbox\FAUSTO\SVILUPPI\MSX\CODE\C\MSXgl\projects\soccerlgMSX2/soccerlg_s9_b3.c:164: for (u8 i = 8; i < 14; i++) {
    00000841 0C               [ 4] 1473 	inc	c
    00000842 C3rCAr07         [10] 1474 	jp	00328$
    00000845                       1475 00173$:
                                   1476 ;E:\Dropbox\FAUSTO\SVILUPPI\MSX\CODE\C\MSXgl\projects\soccerlgMSX2/soccerlg_s9_b3.c:173: T2_Carrier = closest_t2;
    00000845 DD 7E F2         [19] 1477 	ld	a, -14 (ix)
    00000848 32r00r00         [13] 1478 	ld	(_T2_Carrier+0), a
                                   1479 ;E:\Dropbox\FAUSTO\SVILUPPI\MSX\CODE\C\MSXgl\projects\soccerlgMSX2/soccerlg_s9_b3.c:174: if (GameMode == GAMEMODE_P1_VS_P2) T1_Carrier = closest_t1;
    0000084B 3Ar00r00         [13] 1480 	ld	a, (_GameMode+0)
    0000084E 3D               [ 4] 1481 	dec	a
    0000084F 20 09            [12] 1482 	jr	NZ, 00175$
    00000851 DD 7E EF         [19] 1483 	ld	a, -17 (ix)
    00000854 32r00r00         [13] 1484 	ld	(_T1_Carrier+0), a
    00000857 C3r5Fr08         [10] 1485 	jp	00176$
    0000085A                       1486 00175$:
                                   1487 ;E:\Dropbox\FAUSTO\SVILUPPI\MSX\CODE\C\MSXgl\projects\soccerlgMSX2/soccerlg_s9_b3.c:175: else T1_Carrier = 0xFF;
    0000085A 21r00r00         [10] 1488 	ld	hl, #_T1_Carrier
    0000085D 36 FF            [10] 1489 	ld	(hl), #0xff
    0000085F                       1490 00176$:
                                   1491 ;E:\Dropbox\FAUSTO\SVILUPPI\MSX\CODE\C\MSXgl\projects\soccerlgMSX2/soccerlg_s9_b3.c:178: if (min_dist_t2 <= 24) T2_Receiver = (u8)CallFnc_U16_P4B(SEG_LOGIC, FindReceiver, T2_Carrier, 0xFF, g_last_dx[1], g_last_dy[1]);
    0000085F DD 4E F3         [19] 1492 	ld	c, -13 (ix)
    00000862 DD 46 F4         [19] 1493 	ld	b, -12 (ix)
    00000865 3E 18            [ 7] 1494 	ld	a, #0x18
    00000867 B9               [ 4] 1495 	cp	a, c
    00000868 3E 00            [ 7] 1496 	ld	a, #0x00
    0000086A 98               [ 4] 1497 	sbc	a, b
    0000086B 38 21            [12] 1498 	jr	C, 00178$
    0000086D 21r01r00         [10] 1499 	ld	hl, #_g_last_dy+1
    00000870 46               [ 7] 1500 	ld	b, (hl)
    00000871 3Ar01r00         [13] 1501 	ld	a, (#(_g_last_dx + 1) + 0)
    00000874 C5               [11] 1502 	push	bc
    00000875 33               [ 6] 1503 	inc	sp
    00000876 67               [ 4] 1504 	ld	h, a
    00000877 2E FF            [ 7] 1505 	ld	l, #0xff
    00000879 E5               [11] 1506 	push	hl
    0000087A 3Ar00r00         [13] 1507 	ld	a, (_T2_Carrier+0)
    0000087D F5               [11] 1508 	push	af
    0000087E 33               [ 6] 1509 	inc	sp
    0000087F 11r00r00         [10] 1510 	ld	de, #_FindReceiver
    00000882 3E 06            [ 7] 1511 	ld	a, #0x06
    00000884 CDr00r00         [17] 1512 	call	_CallFnc_U16_P4B
    00000887 21r00r00         [10] 1513 	ld	hl, #_T2_Receiver
    0000088A 73               [ 7] 1514 	ld	(hl), e
    0000088B C3r93r08         [10] 1515 	jp	00179$
    0000088E                       1516 00178$:
                                   1517 ;E:\Dropbox\FAUSTO\SVILUPPI\MSX\CODE\C\MSXgl\projects\soccerlgMSX2/soccerlg_s9_b3.c:179: else T2_Receiver = 0xFF;
    0000088E 21r00r00         [10] 1518 	ld	hl, #_T2_Receiver
    00000891 36 FF            [10] 1519 	ld	(hl), #0xff
    00000893                       1520 00179$:
                                   1521 ;E:\Dropbox\FAUSTO\SVILUPPI\MSX\CODE\C\MSXgl\projects\soccerlgMSX2/soccerlg_s9_b3.c:181: if (GameMode == GAMEMODE_P1_VS_P2) {
    00000893 3Ar00r00         [13] 1522 	ld	a, (_GameMode+0)
    00000896 3D               [ 4] 1523 	dec	a
    00000897 20 34            [12] 1524 	jr	NZ, 00184$
                                   1525 ;E:\Dropbox\FAUSTO\SVILUPPI\MSX\CODE\C\MSXgl\projects\soccerlgMSX2/soccerlg_s9_b3.c:182: if (min_dist_t1 <= 24) T1_Receiver = (u8)CallFnc_U16_P4B(SEG_LOGIC, FindReceiver, T1_Carrier, 0xFF, g_last_dx[0], g_last_dy[0]);
    00000899 DD 4E F0         [19] 1526 	ld	c, -16 (ix)
    0000089C DD 46 F1         [19] 1527 	ld	b, -15 (ix)
    0000089F 3E 18            [ 7] 1528 	ld	a, #0x18
    000008A1 B9               [ 4] 1529 	cp	a, c
    000008A2 3E 00            [ 7] 1530 	ld	a, #0x00
    000008A4 98               [ 4] 1531 	sbc	a, b
    000008A5 38 21            [12] 1532 	jr	C, 00181$
    000008A7 21r00r00         [10] 1533 	ld	hl, #_g_last_dy+0
    000008AA 46               [ 7] 1534 	ld	b, (hl)
    000008AB 3Ar00r00         [13] 1535 	ld	a, (#_g_last_dx + 0)
    000008AE C5               [11] 1536 	push	bc
    000008AF 33               [ 6] 1537 	inc	sp
    000008B0 67               [ 4] 1538 	ld	h, a
    000008B1 2E FF            [ 7] 1539 	ld	l, #0xff
    000008B3 E5               [11] 1540 	push	hl
    000008B4 3Ar00r00         [13] 1541 	ld	a, (_T1_Carrier+0)
    000008B7 F5               [11] 1542 	push	af
    000008B8 33               [ 6] 1543 	inc	sp
    000008B9 11r00r00         [10] 1544 	ld	de, #_FindReceiver
    000008BC 3E 06            [ 7] 1545 	ld	a, #0x06
    000008BE CDr00r00         [17] 1546 	call	_CallFnc_U16_P4B
    000008C1 21r00r00         [10] 1547 	ld	hl, #_T1_Receiver
    000008C4 73               [ 7] 1548 	ld	(hl), e
    000008C5 C3rCDr08         [10] 1549 	jp	00184$
    000008C8                       1550 00181$:
                                   1551 ;E:\Dropbox\FAUSTO\SVILUPPI\MSX\CODE\C\MSXgl\projects\soccerlgMSX2/soccerlg_s9_b3.c:183: else T1_Receiver = 0xFF;
    000008C8 21r00r00         [10] 1552 	ld	hl, #_T1_Receiver
    000008CB 36 FF            [10] 1553 	ld	(hl), #0xff
    000008CD                       1554 00184$:
                                   1555 ;E:\Dropbox\FAUSTO\SVILUPPI\MSX\CODE\C\MSXgl\projects\soccerlgMSX2/soccerlg_s9_b3.c:189: if (Ball->anim > 0) {
    000008CD ED 4Br55r01      [20] 1556 	ld	bc, (#(_SwSprite + 341) + 0)
                                   1557 ;E:\Dropbox\FAUSTO\SVILUPPI\MSX\CODE\C\MSXgl\projects\soccerlgMSX2/soccerlg_s9_b3.c:227: Ball->dx = Ball->dy = 0;
                                   1558 ;E:\Dropbox\FAUSTO\SVILUPPI\MSX\CODE\C\MSXgl\projects\soccerlgMSX2/soccerlg_s9_b3.c:189: if (Ball->anim > 0) {
    000008D1 78               [ 4] 1559 	ld	a, b
    000008D2 B1               [ 4] 1560 	or	a, c
    000008D3 CAr59r0B         [10] 1561 	jp	Z, 00212$
                                   1562 ;E:\Dropbox\FAUSTO\SVILUPPI\MSX\CODE\C\MSXgl\projects\soccerlgMSX2/soccerlg_s9_b3.c:190: if (Ball->anim == 5) {
    000008D6 59               [ 4] 1563 	ld	e, c
    000008D7 50               [ 4] 1564 	ld	d, b
    000008D8 7B               [ 4] 1565 	ld	a, e
    000008D9 D6 05            [ 7] 1566 	sub	a, #0x05
    000008DB B2               [ 4] 1567 	or	a, d
    000008DC C2r73r0A         [10] 1568 	jp	NZ,00209$
                                   1569 ;E:\Dropbox\FAUSTO\SVILUPPI\MSX\CODE\C\MSXgl\projects\soccerlgMSX2/soccerlg_s9_b3.c:192: u8 progress = Ball->count; // 0 = inizio da tiratore, max = fine verso ricevitore
    000008DF 3Ar57r01         [13] 1570 	ld	a, (#(_SwSprite + 343) + 0)
    000008E2 DD 77 FA         [19] 1571 	ld	-6 (ix), a
                                   1572 ;E:\Dropbox\FAUSTO\SVILUPPI\MSX\CODE\C\MSXgl\projects\soccerlgMSX2/soccerlg_s9_b3.c:193: u8 half_frame = g_pass_max_frames >> 1; // metà del percorso
    000008E5 3Ar00r00         [13] 1573 	ld	a, (_g_pass_max_frames+0)
    000008E8 CB 3F            [ 8] 1574 	srl	a
    000008EA DD 77 FF         [19] 1575 	ld	-1 (ix), a
                                   1576 ;E:\Dropbox\FAUSTO\SVILUPPI\MSX\CODE\C\MSXgl\projects\soccerlgMSX2/soccerlg_s9_b3.c:196: if (progress == 0) {
    000008ED DD 7E FA         [19] 1577 	ld	a, -6 (ix)
    000008F0 B7               [ 4] 1578 	or	a, a
    000008F1 20 15            [12] 1579 	jr	NZ, 00189$
                                   1580 ;E:\Dropbox\FAUSTO\SVILUPPI\MSX\CODE\C\MSXgl\projects\soccerlgMSX2/soccerlg_s9_b3.c:197: Ball->lx = g_pass_start_x;
    000008F3 3Ar00r00         [13] 1581 	ld	a, (_g_pass_start_x+0)
    000008F6 32r42r01         [13] 1582 	ld	(#(_SwSprite + 322)),a
                                   1583 ;E:\Dropbox\FAUSTO\SVILUPPI\MSX\CODE\C\MSXgl\projects\soccerlgMSX2/soccerlg_s9_b3.c:198: Ball->ly = g_pass_start_y;
    000008F9 21r46r01         [10] 1584 	ld	hl, #(_SwSprite + 326)
    000008FC 3Ar00r00         [13] 1585 	ld	a, (_g_pass_start_y+0)
    000008FF 77               [ 7] 1586 	ld	(hl), a
    00000900 23               [ 6] 1587 	inc	hl
    00000901 3Ar01r00         [13] 1588 	ld	a, (_g_pass_start_y+1)
    00000904 77               [ 7] 1589 	ld	(hl), a
    00000905 C3r8Er09         [10] 1590 	jp	00190$
    00000908                       1591 00189$:
                                   1592 ;E:\Dropbox\FAUSTO\SVILUPPI\MSX\CODE\C\MSXgl\projects\soccerlgMSX2/soccerlg_s9_b3.c:199: } else if (progress >= g_pass_max_frames) {
    00000908 21r00r00         [10] 1593 	ld	hl, #_g_pass_max_frames
    0000090B DD 7E FA         [19] 1594 	ld	a, -6 (ix)
    0000090E 96               [ 7] 1595 	sub	a, (hl)
    0000090F 38 15            [12] 1596 	jr	C, 00186$
                                   1597 ;E:\Dropbox\FAUSTO\SVILUPPI\MSX\CODE\C\MSXgl\projects\soccerlgMSX2/soccerlg_s9_b3.c:200: Ball->lx = g_pass_target_x;
    00000911 3Ar00r00         [13] 1598 	ld	a, (_g_pass_target_x+0)
    00000914 32r42r01         [13] 1599 	ld	(#(_SwSprite + 322)),a
                                   1600 ;E:\Dropbox\FAUSTO\SVILUPPI\MSX\CODE\C\MSXgl\projects\soccerlgMSX2/soccerlg_s9_b3.c:201: Ball->ly = g_pass_target_y;
    00000917 21r46r01         [10] 1601 	ld	hl, #(_SwSprite + 326)
    0000091A 3Ar00r00         [13] 1602 	ld	a, (_g_pass_target_y+0)
    0000091D 77               [ 7] 1603 	ld	(hl), a
    0000091E 23               [ 6] 1604 	inc	hl
    0000091F 3Ar01r00         [13] 1605 	ld	a, (_g_pass_target_y+1)
    00000922 77               [ 7] 1606 	ld	(hl), a
    00000923 C3r8Er09         [10] 1607 	jp	00190$
    00000926                       1608 00186$:
                                   1609 ;E:\Dropbox\FAUSTO\SVILUPPI\MSX\CODE\C\MSXgl\projects\soccerlgMSX2/soccerlg_s9_b3.c:204: i16 dx_total = (i16)g_pass_target_x - (i16)g_pass_start_x;
    00000926 2Ar00r00         [16] 1610 	ld	hl, (_g_pass_target_x)
    00000929 ED 4Br00r00      [20] 1611 	ld	bc, (_g_pass_start_x)
    0000092D BF               [ 4] 1612 	cp	a, a
    0000092E ED 42            [15] 1613 	sbc	hl, bc
                                   1614 ;E:\Dropbox\FAUSTO\SVILUPPI\MSX\CODE\C\MSXgl\projects\soccerlgMSX2/soccerlg_s9_b3.c:205: i16 dy_total = (i16)g_pass_target_y - (i16)g_pass_start_y;
    00000930 ED 4Br00r00      [20] 1615 	ld	bc, (_g_pass_target_y)
    00000934 ED 5Br00r00      [20] 1616 	ld	de, (_g_pass_start_y)
    00000938 79               [ 4] 1617 	ld	a, c
    00000939 93               [ 4] 1618 	sub	a, e
    0000093A 4F               [ 4] 1619 	ld	c, a
    0000093B 78               [ 4] 1620 	ld	a, b
    0000093C 9A               [ 4] 1621 	sbc	a, d
    0000093D 47               [ 4] 1622 	ld	b, a
    0000093E DD 71 F7         [19] 1623 	ld	-9 (ix), c
    00000941 DD 70 F8         [19] 1624 	ld	-8 (ix), b
                                   1625 ;E:\Dropbox\FAUSTO\SVILUPPI\MSX\CODE\C\MSXgl\projects\soccerlgMSX2/soccerlg_s9_b3.c:206: Ball->lx = (u16)((i16)g_pass_start_x + (dx_total * progress) / g_pass_max_frames);
    00000944 3Ar00r00         [13] 1626 	ld	a, (_g_pass_start_x+0)
    00000947 DD 77 F9         [19] 1627 	ld	-7 (ix), a
    0000094A DD 4E FA         [19] 1628 	ld	c, -6 (ix)
    0000094D 06 00            [ 7] 1629 	ld	b, #0x00
    0000094F C5               [11] 1630 	push	bc
    00000950 59               [ 4] 1631 	ld	e, c
    00000951 50               [ 4] 1632 	ld	d, b
    00000952 CDr00r00         [17] 1633 	call	__mulint
    00000955 EB               [ 4] 1634 	ex	de, hl
    00000956 C1               [10] 1635 	pop	bc
    00000957 3Ar00r00         [13] 1636 	ld	a, (_g_pass_max_frames+0)
    0000095A 5F               [ 4] 1637 	ld	e, a
    0000095B 16 00            [ 7] 1638 	ld	d, #0x00
    0000095D C5               [11] 1639 	push	bc
    0000095E CDr00r00         [17] 1640 	call	__divsint
    00000961 C1               [10] 1641 	pop	bc
    00000962 7B               [ 4] 1642 	ld	a, e
    00000963 DD 86 F9         [19] 1643 	add	a, -7 (ix)
    00000966 32r42r01         [13] 1644 	ld	(#(_SwSprite + 322)),a
                                   1645 ;E:\Dropbox\FAUSTO\SVILUPPI\MSX\CODE\C\MSXgl\projects\soccerlgMSX2/soccerlg_s9_b3.c:207: Ball->ly = (u16)((i16)g_pass_start_y + (dy_total * progress) / g_pass_max_frames);
    00000969 2Ar00r00         [16] 1646 	ld	hl, (_g_pass_start_y)
    0000096C E5               [11] 1647 	push	hl
    0000096D 59               [ 4] 1648 	ld	e, c
    0000096E 50               [ 4] 1649 	ld	d, b
    0000096F DD 6E F7         [19] 1650 	ld	l, -9 (ix)
                                   1651 ;	spillPairReg hl
                                   1652 ;	spillPairReg hl
    00000972 DD 66 F8         [19] 1653 	ld	h, -8 (ix)
                                   1654 ;	spillPairReg hl
                                   1655 ;	spillPairReg hl
    00000975 CDr00r00         [17] 1656 	call	__mulint
    00000978 4B               [ 4] 1657 	ld	c, e
    00000979 42               [ 4] 1658 	ld	b, d
    0000097A E1               [10] 1659 	pop	hl
    0000097B 3Ar00r00         [13] 1660 	ld	a, (_g_pass_max_frames+0)
    0000097E 5F               [ 4] 1661 	ld	e, a
    0000097F 16 00            [ 7] 1662 	ld	d, #0x00
    00000981 E5               [11] 1663 	push	hl
    00000982 69               [ 4] 1664 	ld	l, c
                                   1665 ;	spillPairReg hl
                                   1666 ;	spillPairReg hl
    00000983 60               [ 4] 1667 	ld	h, b
                                   1668 ;	spillPairReg hl
                                   1669 ;	spillPairReg hl
    00000984 CDr00r00         [17] 1670 	call	__divsint
    00000987 E1               [10] 1671 	pop	hl
    00000988 19               [11] 1672 	add	hl, de
    00000989 EB               [ 4] 1673 	ex	de, hl
    0000098A ED 53r46r01      [20] 1674 	ld	((_SwSprite + 326)), de
    0000098E                       1675 00190$:
                                   1676 ;E:\Dropbox\FAUSTO\SVILUPPI\MSX\CODE\C\MSXgl\projects\soccerlgMSX2/soccerlg_s9_b3.c:214: scale = 1 + (progress * g_pass_max_height) / half_frame;
    0000098E DD 7E FF         [19] 1677 	ld	a, -1 (ix)
    00000991 DD 77 F3         [19] 1678 	ld	-13 (ix), a
    00000994 DD 36 F4 00      [19] 1679 	ld	-12 (ix), #0x00
                                   1680 ;E:\Dropbox\FAUSTO\SVILUPPI\MSX\CODE\C\MSXgl\projects\soccerlgMSX2/soccerlg_s9_b3.c:212: if (progress <= half_frame) {
    00000998 DD 7E FF         [19] 1681 	ld	a, -1 (ix)
    0000099B DD 96 FA         [19] 1682 	sub	a, -6 (ix)
    0000099E 38 20            [12] 1683 	jr	C, 00192$
                                   1684 ;E:\Dropbox\FAUSTO\SVILUPPI\MSX\CODE\C\MSXgl\projects\soccerlgMSX2/soccerlg_s9_b3.c:214: scale = 1 + (progress * g_pass_max_height) / half_frame;
    000009A0 3Ar00r00         [13] 1685 	ld	a, (#_g_pass_max_height + 0)
    000009A3 5F               [ 4] 1686 	ld	e, a
    000009A4 DD 66 FA         [19] 1687 	ld	h, -6 (ix)
                                   1688 ;	spillPairReg hl
                                   1689 ;	spillPairReg hl
    000009A7 2E 00            [ 7] 1690 	ld	l, #0x00
    000009A9 55               [ 4] 1691 	ld	d, l
    000009AA 06 08            [ 7] 1692 	ld	b, #0x08
    000009AC                       1693 01130$:
    000009AC 29               [11] 1694 	add	hl, hl
    000009AD 30 01            [12] 1695 	jr	NC, 01131$
    000009AF 19               [11] 1696 	add	hl, de
    000009B0                       1697 01131$:
    000009B0 10 FA            [13] 1698 	djnz	01130$
    000009B2 DD 5E F3         [19] 1699 	ld	e, -13 (ix)
    000009B5 DD 56 F4         [19] 1700 	ld	d, -12 (ix)
    000009B8 CDr00r00         [17] 1701 	call	__divsint
    000009BB 43               [ 4] 1702 	ld	b, e
    000009BC 04               [ 4] 1703 	inc	b
    000009BD C3r2Br0A         [10] 1704 	jp	00193$
    000009C0                       1705 00192$:
                                   1706 ;E:\Dropbox\FAUSTO\SVILUPPI\MSX\CODE\C\MSXgl\projects\soccerlgMSX2/soccerlg_s9_b3.c:217: u8 progress_down = progress - half_frame;
    000009C0 DD 7E FA         [19] 1707 	ld	a, -6 (ix)
    000009C3 DD 96 FF         [19] 1708 	sub	a, -1 (ix)
    000009C6 DD 77 FF         [19] 1709 	ld	-1 (ix), a
    000009C9 DD 77 FA         [19] 1710 	ld	-6 (ix), a
                                   1711 ;E:\Dropbox\FAUSTO\SVILUPPI\MSX\CODE\C\MSXgl\projects\soccerlgMSX2/soccerlg_s9_b3.c:218: scale = 1 + g_pass_max_height - (progress_down * g_pass_max_height) / (g_pass_max_frames - half_frame);
    000009CC 3Ar00r00         [13] 1712 	ld	a, (_g_pass_max_height+0)
    000009CF DD 77 FF         [19] 1713 	ld	-1 (ix), a
    000009D2 DD 34 FF         [23] 1714 	inc	-1 (ix)
    000009D5 3Ar00r00         [13] 1715 	ld	a, (#_g_pass_max_height + 0)
    000009D8 5F               [ 4] 1716 	ld	e, a
    000009D9 DD 66 FA         [19] 1717 	ld	h, -6 (ix)
                                   1718 ;	spillPairReg hl
                                   1719 ;	spillPairReg hl
    000009DC 2E 00            [ 7] 1720 	ld	l, #0x00
    000009DE 55               [ 4] 1721 	ld	d, l
    000009DF 06 08            [ 7] 1722 	ld	b, #0x08
    000009E1                       1723 01132$:
    000009E1 29               [11] 1724 	add	hl, hl
    000009E2 30 01            [12] 1725 	jr	NC, 01133$
    000009E4 19               [11] 1726 	add	hl, de
    000009E5                       1727 01133$:
    000009E5 10 FA            [13] 1728 	djnz	01132$
    000009E7 DD 75 F5         [19] 1729 	ld	-11 (ix), l
    000009EA DD 74 F6         [19] 1730 	ld	-10 (ix), h
    000009ED 3Ar00r00         [13] 1731 	ld	a, (_g_pass_max_frames+0)
    000009F0 DD 77 F7         [19] 1732 	ld	-9 (ix), a
    000009F3 DD 36 F8 00      [19] 1733 	ld	-8 (ix), #0x00
    000009F7 DD 7E F7         [19] 1734 	ld	a, -9 (ix)
    000009FA DD 96 F3         [19] 1735 	sub	a, -13 (ix)
    000009FD DD 77 F9         [19] 1736 	ld	-7 (ix), a
    00000A00 DD 7E F8         [19] 1737 	ld	a, -8 (ix)
    00000A03 DD 9E F4         [19] 1738 	sbc	a, -12 (ix)
    00000A06 DD 77 FA         [19] 1739 	ld	-6 (ix), a
    00000A09 DD 5E F9         [19] 1740 	ld	e, -7 (ix)
    00000A0C DD 56 FA         [19] 1741 	ld	d, -6 (ix)
    00000A0F DD 6E F5         [19] 1742 	ld	l, -11 (ix)
                                   1743 ;	spillPairReg hl
                                   1744 ;	spillPairReg hl
    00000A12 DD 66 F6         [19] 1745 	ld	h, -10 (ix)
                                   1746 ;	spillPairReg hl
                                   1747 ;	spillPairReg hl
    00000A15 CDr00r00         [17] 1748 	call	__divsint
    00000A18 DD 73 F9         [19] 1749 	ld	-7 (ix), e
    00000A1B DD 72 FA         [19] 1750 	ld	-6 (ix), d
    00000A1E DD 7E F9         [19] 1751 	ld	a, -7 (ix)
    00000A21 DD 77 FA         [19] 1752 	ld	-6 (ix), a
    00000A24 DD 7E FF         [19] 1753 	ld	a, -1 (ix)
    00000A27 DD 96 FA         [19] 1754 	sub	a, -6 (ix)
    00000A2A 47               [ 4] 1755 	ld	b, a
    00000A2B                       1756 00193$:
                                   1757 ;E:\Dropbox\FAUSTO\SVILUPPI\MSX\CODE\C\MSXgl\projects\soccerlgMSX2/soccerlg_s9_b3.c:220: if (scale > 7) scale = 7; // Clamp a 7 (SPR_BALL_SIZE_8 = SPR_BALL_SIZE_1 + 7)
    00000A2B 3E 07            [ 7] 1758 	ld	a, #0x07
    00000A2D 90               [ 4] 1759 	sub	a, b
    00000A2E 30 02            [12] 1760 	jr	NC, 00195$
    00000A30 06 07            [ 7] 1761 	ld	b, #0x07
    00000A32                       1762 00195$:
                                   1763 ;E:\Dropbox\FAUSTO\SVILUPPI\MSX\CODE\C\MSXgl\projects\soccerlgMSX2/soccerlg_s9_b3.c:221: CallFnc_VOID_P1(SEG_DRAW, SetBallSprite, scale);
    00000A32 C5               [11] 1764 	push	bc
    00000A33 33               [ 6] 1765 	inc	sp
    00000A34 11r00r00         [10] 1766 	ld	de, #_SetBallSprite
    00000A37 3E 05            [ 7] 1767 	ld	a, #0x05
    00000A39 CDr00r00         [17] 1768 	call	_CallFnc_VOID_P1
                                   1769 ;E:\Dropbox\FAUSTO\SVILUPPI\MSX\CODE\C\MSXgl\projects\soccerlgMSX2/soccerlg_s9_b3.c:223: Ball->count++;
    00000A3C ED 4Br57r01      [20] 1770 	ld	bc, (#(_SwSprite + 343) + 0)
    00000A40 03               [ 6] 1771 	inc	bc
    00000A41 ED 43r57r01      [20] 1772 	ld	((_SwSprite + 343)), bc
                                   1773 ;E:\Dropbox\FAUSTO\SVILUPPI\MSX\CODE\C\MSXgl\projects\soccerlgMSX2/soccerlg_s9_b3.c:224: if (Ball->count >= g_pass_max_frames) {
    00000A45 3Ar00r00         [13] 1774 	ld	a, (_g_pass_max_frames+0)
    00000A48 5F               [ 4] 1775 	ld	e, a
    00000A49 16 00            [ 7] 1776 	ld	d, #0x00
    00000A4B 79               [ 4] 1777 	ld	a, c
    00000A4C 93               [ 4] 1778 	sub	a, e
    00000A4D 78               [ 4] 1779 	ld	a, b
    00000A4E 9A               [ 4] 1780 	sbc	a, d
    00000A4F DAr59r0B         [10] 1781 	jp	C, 00212$
                                   1782 ;E:\Dropbox\FAUSTO\SVILUPPI\MSX\CODE\C\MSXgl\projects\soccerlgMSX2/soccerlg_s9_b3.c:225: Ball->anim = 0; // Passaggio completato
    00000A52 21 00 00         [10] 1783 	ld	hl, #0x0000
    00000A55 22r55r01         [16] 1784 	ld	((_SwSprite + 341)), hl
                                   1785 ;E:\Dropbox\FAUSTO\SVILUPPI\MSX\CODE\C\MSXgl\projects\soccerlgMSX2/soccerlg_s9_b3.c:226: Ball->count = 0;
    00000A58 22r57r01         [16] 1786 	ld	((_SwSprite + 343)), hl
                                   1787 ;E:\Dropbox\FAUSTO\SVILUPPI\MSX\CODE\C\MSXgl\projects\soccerlgMSX2/soccerlg_s9_b3.c:227: Ball->dx = Ball->dy = 0;
    00000A5B 21r54r01         [10] 1788 	ld	hl, #(_SwSprite + 340)
    00000A5E 36 00            [10] 1789 	ld	(hl), #0x00
    00000A60 21r53r01         [10] 1790 	ld	hl, #(_SwSprite + 339)
    00000A63 36 00            [10] 1791 	ld	(hl), #0x00
                                   1792 ;E:\Dropbox\FAUSTO\SVILUPPI\MSX\CODE\C\MSXgl\projects\soccerlgMSX2/soccerlg_s9_b3.c:228: CallFnc_VOID_P1(SEG_DRAW, SetBallSprite, 0); // Torna a scale 1
    00000A65 AF               [ 4] 1793 	xor	a, a
    00000A66 F5               [11] 1794 	push	af
    00000A67 33               [ 6] 1795 	inc	sp
    00000A68 11r00r00         [10] 1796 	ld	de, #_SetBallSprite
    00000A6B 3E 05            [ 7] 1797 	ld	a, #0x05
    00000A6D CDr00r00         [17] 1798 	call	_CallFnc_VOID_P1
    00000A70 C3r59r0B         [10] 1799 	jp	00212$
    00000A73                       1800 00209$:
                                   1801 ;E:\Dropbox\FAUSTO\SVILUPPI\MSX\CODE\C\MSXgl\projects\soccerlgMSX2/soccerlg_s9_b3.c:232: u8 speed = Ball->anim + 1;
    00000A73 79               [ 4] 1802 	ld	a, c
    00000A74 3C               [ 4] 1803 	inc	a
    00000A75 DD 77 FF         [19] 1804 	ld	-1 (ix), a
                                   1805 ;E:\Dropbox\FAUSTO\SVILUPPI\MSX\CODE\C\MSXgl\projects\soccerlgMSX2/soccerlg_s9_b3.c:233: if (Ball->dx > 0) Ball->lx += speed;
    00000A78 21r53r01         [10] 1806 	ld	hl, #(_SwSprite + 322) + 17
    00000A7B 4E               [ 7] 1807 	ld	c, (hl)
    00000A7C AF               [ 4] 1808 	xor	a, a
    00000A7D 91               [ 4] 1809 	sub	a, c
    00000A7E E2r83r0A         [10] 1810 	jp	PO, 01134$
    00000A81 EE 80            [ 7] 1811 	xor	a, #0x80
    00000A83                       1812 01134$:
    00000A83 F2r9Cr0A         [10] 1813 	jp	P, 00201$
    00000A86 3Ar42r01         [13] 1814 	ld	a, (#(_SwSprite + 322) + 0)
    00000A89 DD 77 FA         [19] 1815 	ld	-6 (ix), a
    00000A8C DD 86 FF         [19] 1816 	add	a, -1 (ix)
    00000A8F DD 77 FA         [19] 1817 	ld	-6 (ix), a
    00000A92 21r42r01         [10] 1818 	ld	hl, #(_SwSprite + 322)
    00000A95 DD 7E FA         [19] 1819 	ld	a, -6 (ix)
    00000A98 77               [ 7] 1820 	ld	(hl), a
    00000A99 C3rA9r0A         [10] 1821 	jp	00202$
    00000A9C                       1822 00201$:
                                   1823 ;E:\Dropbox\FAUSTO\SVILUPPI\MSX\CODE\C\MSXgl\projects\soccerlgMSX2/soccerlg_s9_b3.c:234: else if (Ball->dx < 0) Ball->lx -= speed;
    00000A9C CB 79            [ 8] 1824 	bit	7, c
    00000A9E 28 09            [12] 1825 	jr	Z, 00202$
    00000AA0 3Ar42r01         [13] 1826 	ld	a, (#(_SwSprite + 322) + 0)
    00000AA3 DD 96 FF         [19] 1827 	sub	a, -1 (ix)
    00000AA6 32r42r01         [13] 1828 	ld	(#(_SwSprite + 322)),a
    00000AA9                       1829 00202$:
                                   1830 ;E:\Dropbox\FAUSTO\SVILUPPI\MSX\CODE\C\MSXgl\projects\soccerlgMSX2/soccerlg_s9_b3.c:236: if (Ball->dy > 0) Ball->ly += speed;
    00000AA9 3Ar54r01         [13] 1831 	ld	a, (#(_SwSprite + 340) + 0)
    00000AAC DD 77 FA         [19] 1832 	ld	-6 (ix), a
    00000AAF AF               [ 4] 1833 	xor	a, a
    00000AB0 DD 96 FA         [19] 1834 	sub	a, -6 (ix)
    00000AB3 E2rB8r0A         [10] 1835 	jp	PO, 01135$
    00000AB6 EE 80            [ 7] 1836 	xor	a, #0x80
    00000AB8                       1837 01135$:
    00000AB8 F2rFEr0A         [10] 1838 	jp	P, 00206$
    00000ABB 21r46r01         [10] 1839 	ld	hl, #(_SwSprite + 326)
    00000ABE 7E               [ 7] 1840 	ld	a, (hl)
    00000ABF DD 77 F7         [19] 1841 	ld	-9 (ix), a
    00000AC2 23               [ 6] 1842 	inc	hl
    00000AC3 7E               [ 7] 1843 	ld	a, (hl)
    00000AC4 DD 77 F8         [19] 1844 	ld	-8 (ix), a
    00000AC7 DD 7E FF         [19] 1845 	ld	a, -1 (ix)
    00000ACA DD 77 F9         [19] 1846 	ld	-7 (ix), a
    00000ACD DD 36 FA 00      [19] 1847 	ld	-6 (ix), #0x00
    00000AD1 DD 7E F9         [19] 1848 	ld	a, -7 (ix)
    00000AD4 DD 86 F7         [19] 1849 	add	a, -9 (ix)
    00000AD7 DD 77 F5         [19] 1850 	ld	-11 (ix), a
    00000ADA DD 7E FA         [19] 1851 	ld	a, -6 (ix)
    00000ADD DD 8E F8         [19] 1852 	adc	a, -8 (ix)
    00000AE0 DD 77 F6         [19] 1853 	ld	-10 (ix), a
    00000AE3 DD 7E F5         [19] 1854 	ld	a, -11 (ix)
    00000AE6 DD 77 F9         [19] 1855 	ld	-7 (ix), a
    00000AE9 DD 7E F6         [19] 1856 	ld	a, -10 (ix)
    00000AEC DD 77 FA         [19] 1857 	ld	-6 (ix), a
    00000AEF 21r46r01         [10] 1858 	ld	hl, #(_SwSprite + 326)
    00000AF2 DD 7E F9         [19] 1859 	ld	a, -7 (ix)
    00000AF5 77               [ 7] 1860 	ld	(hl), a
    00000AF6 23               [ 6] 1861 	inc	hl
    00000AF7 DD 7E FA         [19] 1862 	ld	a, -6 (ix)
    00000AFA 77               [ 7] 1863 	ld	(hl), a
    00000AFB C3r50r0B         [10] 1864 	jp	00207$
    00000AFE                       1865 00206$:
                                   1866 ;E:\Dropbox\FAUSTO\SVILUPPI\MSX\CODE\C\MSXgl\projects\soccerlgMSX2/soccerlg_s9_b3.c:237: else if (Ball->dy < 0) Ball->ly -= speed;
    00000AFE DD CB FA 7E      [20] 1867 	bit	7, -6 (ix)
    00000B02 28 4C            [12] 1868 	jr	Z, 00207$
    00000B04 21r46r01         [10] 1869 	ld	hl, #(_SwSprite + 326)
    00000B07 7E               [ 7] 1870 	ld	a, (hl)
    00000B08 DD 77 F7         [19] 1871 	ld	-9 (ix), a
    00000B0B 23               [ 6] 1872 	inc	hl
    00000B0C 7E               [ 7] 1873 	ld	a, (hl)
    00000B0D DD 77 F8         [19] 1874 	ld	-8 (ix), a
    00000B10 DD 7E FF         [19] 1875 	ld	a, -1 (ix)
    00000B13 DD 77 F9         [19] 1876 	ld	-7 (ix), a
    00000B16 DD 36 FA 00      [19] 1877 	ld	-6 (ix), #0x00
    00000B1A DD 7E F7         [19] 1878 	ld	a, -9 (ix)
    00000B1D DD 77 F5         [19] 1879 	ld	-11 (ix), a
    00000B20 DD 7E F8         [19] 1880 	ld	a, -8 (ix)
    00000B23 DD 77 F6         [19] 1881 	ld	-10 (ix), a
    00000B26 DD 7E F9         [19] 1882 	ld	a, -7 (ix)
    00000B29 DD 77 F7         [19] 1883 	ld	-9 (ix), a
    00000B2C DD 7E FA         [19] 1884 	ld	a, -6 (ix)
    00000B2F DD 77 F8         [19] 1885 	ld	-8 (ix), a
    00000B32 DD 7E F5         [19] 1886 	ld	a, -11 (ix)
    00000B35 DD 96 F7         [19] 1887 	sub	a, -9 (ix)
    00000B38 DD 77 F9         [19] 1888 	ld	-7 (ix), a
    00000B3B DD 7E F6         [19] 1889 	ld	a, -10 (ix)
    00000B3E DD 9E F8         [19] 1890 	sbc	a, -8 (ix)
    00000B41 DD 77 FA         [19] 1891 	ld	-6 (ix), a
    00000B44 21r46r01         [10] 1892 	ld	hl, #(_SwSprite + 326)
    00000B47 DD 7E F9         [19] 1893 	ld	a, -7 (ix)
    00000B4A 77               [ 7] 1894 	ld	(hl), a
    00000B4B 23               [ 6] 1895 	inc	hl
    00000B4C DD 7E FA         [19] 1896 	ld	a, -6 (ix)
    00000B4F 77               [ 7] 1897 	ld	(hl), a
    00000B50                       1898 00207$:
                                   1899 ;E:\Dropbox\FAUSTO\SVILUPPI\MSX\CODE\C\MSXgl\projects\soccerlgMSX2/soccerlg_s9_b3.c:239: Ball->anim--;
    00000B50 ED 4Br55r01      [20] 1900 	ld	bc, (#(_SwSprite + 341) + 0)
    00000B54 0B               [ 6] 1901 	dec	bc
    00000B55 ED 43r55r01      [20] 1902 	ld	((_SwSprite + 341)), bc
    00000B59                       1903 00212$:
                                   1904 ;E:\Dropbox\FAUSTO\SVILUPPI\MSX\CODE\C\MSXgl\projects\soccerlgMSX2/soccerlg_s9_b3.c:244: u8 carriers[2] = {T1_Carrier, T2_Carrier};
    00000B59 3Ar00r00         [13] 1905 	ld	a, (_T1_Carrier+0)
    00000B5C DD 77 DA         [19] 1906 	ld	-38 (ix), a
    00000B5F 3Ar00r00         [13] 1907 	ld	a, (_T2_Carrier+0)
    00000B62 DD 77 DB         [19] 1908 	ld	-37 (ix), a
                                   1909 ;E:\Dropbox\FAUSTO\SVILUPPI\MSX\CODE\C\MSXgl\projects\soccerlgMSX2/soccerlg_s9_b3.c:245: u8 receivers[2] = {T1_Receiver, T2_Receiver};
    00000B65 3Ar00r00         [13] 1910 	ld	a, (_T1_Receiver+0)
    00000B68 DD 77 DC         [19] 1911 	ld	-36 (ix), a
    00000B6B 3Ar00r00         [13] 1912 	ld	a, (_T2_Receiver+0)
    00000B6E DD 77 DD         [19] 1913 	ld	-35 (ix), a
                                   1914 ;E:\Dropbox\FAUSTO\SVILUPPI\MSX\CODE\C\MSXgl\projects\soccerlgMSX2/soccerlg_s9_b3.c:247: u8 dirs[2] = {
    00000B71 3Ar00r00         [13] 1915 	ld	a, (_GameMode+0)
    00000B74 3D               [ 4] 1916 	dec	a
    00000B75 20 0F            [12] 1917 	jr	NZ, 00373$
    00000B77 3E 01            [ 7] 1918 	ld	a, #0x01
    00000B79 F5               [11] 1919 	push	af
    00000B7A 33               [ 6] 1920 	inc	sp
    00000B7B 11r00r00         [10] 1921 	ld	de, #_GetJoystickDirection
    00000B7E 3E 07            [ 7] 1922 	ld	a, #0x07
    00000B80 CDr00r00         [17] 1923 	call	_CallFnc_U8_P1
    00000B83 C3r87r0B         [10] 1924 	jp	00374$
    00000B86                       1925 00373$:
    00000B86 AF               [ 4] 1926 	xor	a, a
    00000B87                       1927 00374$:
    00000B87 DD 77 DE         [19] 1928 	ld	-34 (ix), a
    00000B8A AF               [ 4] 1929 	xor	a, a
    00000B8B F5               [11] 1930 	push	af
    00000B8C 33               [ 6] 1931 	inc	sp
    00000B8D 11r00r00         [10] 1932 	ld	de, #_GetJoystickDirection
    00000B90 3E 07            [ 7] 1933 	ld	a, #0x07
    00000B92 CDr00r00         [17] 1934 	call	_CallFnc_U8_P1
    00000B95 DD 77 DF         [19] 1935 	ld	-33 (ix), a
                                   1936 ;E:\Dropbox\FAUSTO\SVILUPPI\MSX\CODE\C\MSXgl\projects\soccerlgMSX2/soccerlg_s9_b3.c:251: bool triggers[2] = {
    00000B98 3Ar00r00         [13] 1937 	ld	a, (_GameMode+0)
    00000B9B 3D               [ 4] 1938 	dec	a
    00000B9C 20 0F            [12] 1939 	jr	NZ, 00375$
    00000B9E 3E 01            [ 7] 1940 	ld	a, #0x01
    00000BA0 F5               [11] 1941 	push	af
    00000BA1 33               [ 6] 1942 	inc	sp
    00000BA2 11r00r00         [10] 1943 	ld	de, #_IsTeamJoystickTriggerPressed
    00000BA5 3E 07            [ 7] 1944 	ld	a, #0x07
    00000BA7 CDr00r00         [17] 1945 	call	_CallFnc_BOOL_P1
    00000BAA C3rAEr0B         [10] 1946 	jp	00376$
    00000BAD                       1947 00375$:
    00000BAD AF               [ 4] 1948 	xor	a, a
    00000BAE                       1949 00376$:
    00000BAE DD 77 E0         [19] 1950 	ld	-32 (ix), a
    00000BB1 AF               [ 4] 1951 	xor	a, a
    00000BB2 F5               [11] 1952 	push	af
    00000BB3 33               [ 6] 1953 	inc	sp
    00000BB4 11r00r00         [10] 1954 	ld	de, #_IsTeamJoystickTriggerPressed
    00000BB7 3E 07            [ 7] 1955 	ld	a, #0x07
    00000BB9 CDr00r00         [17] 1956 	call	_CallFnc_BOOL_P1
    00000BBC DD 77 E1         [19] 1957 	ld	-31 (ix), a
                                   1958 ;E:\Dropbox\FAUSTO\SVILUPPI\MSX\CODE\C\MSXgl\projects\soccerlgMSX2/soccerlg_s9_b3.c:256: for (u8 i = 0; i < 2; i++) {
    00000BBF DD 36 FF 00      [19] 1959 	ld	-1 (ix), #0x00
    00000BC3                       1960 00331$:
    00000BC3 DD 7E FF         [19] 1961 	ld	a, -1 (ix)
    00000BC6 D6 02            [ 7] 1962 	sub	a, #0x02
    00000BC8 D2rAEr14         [10] 1963 	jp	NC, 00307$
                                   1964 ;E:\Dropbox\FAUSTO\SVILUPPI\MSX\CODE\C\MSXgl\projects\soccerlgMSX2/soccerlg_s9_b3.c:257: u8 carrier = carriers[i];
    00000BCB DD 5E FF         [19] 1965 	ld	e, -1 (ix)
    00000BCE 16 00            [ 7] 1966 	ld	d, #0x00
    00000BD0 21 00 00         [10] 1967 	ld	hl, #0
    00000BD3 39               [11] 1968 	add	hl, sp
    00000BD4 19               [11] 1969 	add	hl, de
    00000BD5 DD 75 F9         [19] 1970 	ld	-7 (ix), l
    00000BD8 DD 74 FA         [19] 1971 	ld	-6 (ix), h
    00000BDB 7E               [ 7] 1972 	ld	a, (hl)
                                   1973 ;E:\Dropbox\FAUSTO\SVILUPPI\MSX\CODE\C\MSXgl\projects\soccerlgMSX2/soccerlg_s9_b3.c:258: if (carrier == 0xFF) continue;
    00000BDC DD 77 EA         [19] 1974 	ld	-22 (ix), a
    00000BDF 3C               [ 4] 1975 	inc	a
    00000BE0 CArA8r14         [10] 1976 	jp	Z,00306$
                                   1977 ;E:\Dropbox\FAUSTO\SVILUPPI\MSX\CODE\C\MSXgl\projects\soccerlgMSX2/soccerlg_s9_b3.c:260: struct ObjectInfo* Carrier = &SwSprite[carrier];
    00000BE3 DD 4E EA         [19] 1978 	ld	c, -22 (ix)
    00000BE6 06 00            [ 7] 1979 	ld	b, #0x00
    00000BE8 69               [ 4] 1980 	ld	l, c
    00000BE9 60               [ 4] 1981 	ld	h, b
    00000BEA 29               [11] 1982 	add	hl, hl
    00000BEB 29               [11] 1983 	add	hl, hl
    00000BEC 09               [11] 1984 	add	hl, bc
    00000BED 29               [11] 1985 	add	hl, hl
    00000BEE 09               [11] 1986 	add	hl, bc
    00000BEF 29               [11] 1987 	add	hl, hl
    00000BF0 09               [11] 1988 	add	hl, bc
    00000BF1 DD 75 F7         [19] 1989 	ld	-9 (ix), l
    00000BF4 DD 74 F8         [19] 1990 	ld	-8 (ix), h
    00000BF7 DD 7E F7         [19] 1991 	ld	a, -9 (ix)
    00000BFA C6r00            [ 7] 1992 	add	a, #<(_SwSprite)
    00000BFC DD 77 F9         [19] 1993 	ld	-7 (ix), a
    00000BFF DD 7E F8         [19] 1994 	ld	a, -8 (ix)
    00000C02 CEs00            [ 7] 1995 	adc	a, #>(_SwSprite)
    00000C04 DD 77 FA         [19] 1996 	ld	-6 (ix), a
    00000C07 DD 7E F9         [19] 1997 	ld	a, -7 (ix)
    00000C0A DD 77 EB         [19] 1998 	ld	-21 (ix), a
    00000C0D DD 7E FA         [19] 1999 	ld	a, -6 (ix)
    00000C10 DD 77 EC         [19] 2000 	ld	-20 (ix), a
                                   2001 ;E:\Dropbox\FAUSTO\SVILUPPI\MSX\CODE\C\MSXgl\projects\soccerlgMSX2/soccerlg_s9_b3.c:262: Carrier->dx = 0; Carrier->dy = 0;
    00000C13 DD 7E EB         [19] 2002 	ld	a, -21 (ix)
    00000C16 C6 11            [ 7] 2003 	add	a, #0x11
    00000C18 DD 77 ED         [19] 2004 	ld	-19 (ix), a
    00000C1B DD 7E EC         [19] 2005 	ld	a, -20 (ix)
    00000C1E CE 00            [ 7] 2006 	adc	a, #0x00
    00000C20 DD 77 EE         [19] 2007 	ld	-18 (ix), a
    00000C23 DD 6E ED         [19] 2008 	ld	l, -19 (ix)
    00000C26 DD 66 EE         [19] 2009 	ld	h, -18 (ix)
    00000C29 36 00            [10] 2010 	ld	(hl), #0x00
    00000C2B DD 7E EB         [19] 2011 	ld	a, -21 (ix)
    00000C2E C6 12            [ 7] 2012 	add	a, #0x12
    00000C30 DD 77 EF         [19] 2013 	ld	-17 (ix), a
    00000C33 DD 7E EC         [19] 2014 	ld	a, -20 (ix)
    00000C36 CE 00            [ 7] 2015 	adc	a, #0x00
    00000C38 DD 77 F0         [19] 2016 	ld	-16 (ix), a
    00000C3B DD 6E EF         [19] 2017 	ld	l, -17 (ix)
    00000C3E DD 66 F0         [19] 2018 	ld	h, -16 (ix)
    00000C41 36 00            [10] 2019 	ld	(hl), #0x00
                                   2020 ;E:\Dropbox\FAUSTO\SVILUPPI\MSX\CODE\C\MSXgl\projects\soccerlgMSX2/soccerlg_s9_b3.c:263: switch(dirs[i]) {
    00000C43 DD 5E FF         [19] 2021 	ld	e, -1 (ix)
    00000C46 16 00            [ 7] 2022 	ld	d, #0x00
    00000C48 21 04 00         [10] 2023 	ld	hl, #4
    00000C4B 39               [11] 2024 	add	hl, sp
    00000C4C 19               [11] 2025 	add	hl, de
    00000C4D 4E               [ 7] 2026 	ld	c, (hl)
    00000C4E 3E 08            [ 7] 2027 	ld	a, #0x08
    00000C50 91               [ 4] 2028 	sub	a, c
    00000C51 DArEDr0C         [10] 2029 	jp	C, 00223$
    00000C54 06 00            [ 7] 2030 	ld	b, #0x00
    00000C56 21r5Dr0C         [10] 2031 	ld	hl, #01141$
    00000C59 09               [11] 2032 	add	hl, bc
    00000C5A 09               [11] 2033 	add	hl, bc
    00000C5B 09               [11] 2034 	add	hl, bc
    00000C5C E9               [ 4] 2035 	jp	(hl)
    00000C5D                       2036 01141$:
    00000C5D C3rEDr0C         [10] 2037 	jp	00223$
    00000C60 C3r78r0C         [10] 2038 	jp	00215$
    00000C63 C3r83r0C         [10] 2039 	jp	00216$
    00000C66 C3r96r0C         [10] 2040 	jp	00217$
    00000C69 C3rA1r0C         [10] 2041 	jp	00218$
    00000C6C C3rB4r0C         [10] 2042 	jp	00219$
    00000C6F C3rBFr0C         [10] 2043 	jp	00220$
    00000C72 C3rD2r0C         [10] 2044 	jp	00221$
    00000C75 C3rDDr0C         [10] 2045 	jp	00222$
                                   2046 ;E:\Dropbox\FAUSTO\SVILUPPI\MSX\CODE\C\MSXgl\projects\soccerlgMSX2/soccerlg_s9_b3.c:264: case DIRECTION_UP: Carrier->dy = -2; break;
    00000C78                       2047 00215$:
    00000C78 DD 6E EF         [19] 2048 	ld	l, -17 (ix)
    00000C7B DD 66 F0         [19] 2049 	ld	h, -16 (ix)
    00000C7E 36 FE            [10] 2050 	ld	(hl), #0xfe
    00000C80 C3rEDr0C         [10] 2051 	jp	00223$
                                   2052 ;E:\Dropbox\FAUSTO\SVILUPPI\MSX\CODE\C\MSXgl\projects\soccerlgMSX2/soccerlg_s9_b3.c:265: case DIRECTION_UP_RIGHT: Carrier->dy = -2; Carrier->dx = 2; break;
    00000C83                       2053 00216$:
    00000C83 DD 6E EF         [19] 2054 	ld	l, -17 (ix)
    00000C86 DD 66 F0         [19] 2055 	ld	h, -16 (ix)
    00000C89 36 FE            [10] 2056 	ld	(hl), #0xfe
    00000C8B DD 6E ED         [19] 2057 	ld	l, -19 (ix)
    00000C8E DD 66 EE         [19] 2058 	ld	h, -18 (ix)
    00000C91 36 02            [10] 2059 	ld	(hl), #0x02
    00000C93 C3rEDr0C         [10] 2060 	jp	00223$
                                   2061 ;E:\Dropbox\FAUSTO\SVILUPPI\MSX\CODE\C\MSXgl\projects\soccerlgMSX2/soccerlg_s9_b3.c:266: case DIRECTION_RIGHT: Carrier->dx = 2; break;
    00000C96                       2062 00217$:
    00000C96 DD 6E ED         [19] 2063 	ld	l, -19 (ix)
    00000C99 DD 66 EE         [19] 2064 	ld	h, -18 (ix)
    00000C9C 36 02            [10] 2065 	ld	(hl), #0x02
    00000C9E C3rEDr0C         [10] 2066 	jp	00223$
                                   2067 ;E:\Dropbox\FAUSTO\SVILUPPI\MSX\CODE\C\MSXgl\projects\soccerlgMSX2/soccerlg_s9_b3.c:267: case DIRECTION_DOWN_RIGHT: Carrier->dy = 2; Carrier->dx = 2; break;
    00000CA1                       2068 00218$:
    00000CA1 DD 6E EF         [19] 2069 	ld	l, -17 (ix)
    00000CA4 DD 66 F0         [19] 2070 	ld	h, -16 (ix)
    00000CA7 36 02            [10] 2071 	ld	(hl), #0x02
    00000CA9 DD 6E ED         [19] 2072 	ld	l, -19 (ix)
    00000CAC DD 66 EE         [19] 2073 	ld	h, -18 (ix)
    00000CAF 36 02            [10] 2074 	ld	(hl), #0x02
    00000CB1 C3rEDr0C         [10] 2075 	jp	00223$
                                   2076 ;E:\Dropbox\FAUSTO\SVILUPPI\MSX\CODE\C\MSXgl\projects\soccerlgMSX2/soccerlg_s9_b3.c:268: case DIRECTION_DOWN: Carrier->dy = 2; break;
    00000CB4                       2077 00219$:
    00000CB4 DD 6E EF         [19] 2078 	ld	l, -17 (ix)
    00000CB7 DD 66 F0         [19] 2079 	ld	h, -16 (ix)
    00000CBA 36 02            [10] 2080 	ld	(hl), #0x02
    00000CBC C3rEDr0C         [10] 2081 	jp	00223$
                                   2082 ;E:\Dropbox\FAUSTO\SVILUPPI\MSX\CODE\C\MSXgl\projects\soccerlgMSX2/soccerlg_s9_b3.c:269: case DIRECTION_DOWN_LEFT: Carrier->dy = 2; Carrier->dx = -2; break;
    00000CBF                       2083 00220$:
    00000CBF DD 6E EF         [19] 2084 	ld	l, -17 (ix)
    00000CC2 DD 66 F0         [19] 2085 	ld	h, -16 (ix)
    00000CC5 36 02            [10] 2086 	ld	(hl), #0x02
    00000CC7 DD 6E ED         [19] 2087 	ld	l, -19 (ix)
    00000CCA DD 66 EE         [19] 2088 	ld	h, -18 (ix)
    00000CCD 36 FE            [10] 2089 	ld	(hl), #0xfe
    00000CCF C3rEDr0C         [10] 2090 	jp	00223$
                                   2091 ;E:\Dropbox\FAUSTO\SVILUPPI\MSX\CODE\C\MSXgl\projects\soccerlgMSX2/soccerlg_s9_b3.c:270: case DIRECTION_LEFT: Carrier->dx = -2; break;
    00000CD2                       2092 00221$:
    00000CD2 DD 6E ED         [19] 2093 	ld	l, -19 (ix)
    00000CD5 DD 66 EE         [19] 2094 	ld	h, -18 (ix)
    00000CD8 36 FE            [10] 2095 	ld	(hl), #0xfe
    00000CDA C3rEDr0C         [10] 2096 	jp	00223$
                                   2097 ;E:\Dropbox\FAUSTO\SVILUPPI\MSX\CODE\C\MSXgl\projects\soccerlgMSX2/soccerlg_s9_b3.c:271: case DIRECTION_UP_LEFT: Carrier->dy = -2; Carrier->dx = -2; break;
    00000CDD                       2098 00222$:
    00000CDD DD 6E EF         [19] 2099 	ld	l, -17 (ix)
    00000CE0 DD 66 F0         [19] 2100 	ld	h, -16 (ix)
    00000CE3 36 FE            [10] 2101 	ld	(hl), #0xfe
    00000CE5 DD 6E ED         [19] 2102 	ld	l, -19 (ix)
    00000CE8 DD 66 EE         [19] 2103 	ld	h, -18 (ix)
    00000CEB 36 FE            [10] 2104 	ld	(hl), #0xfe
                                   2105 ;E:\Dropbox\FAUSTO\SVILUPPI\MSX\CODE\C\MSXgl\projects\soccerlgMSX2/soccerlg_s9_b3.c:272: }
    00000CED                       2106 00223$:
                                   2107 ;E:\Dropbox\FAUSTO\SVILUPPI\MSX\CODE\C\MSXgl\projects\soccerlgMSX2/soccerlg_s9_b3.c:275: if (Carrier->dx != 0 || Carrier->dy != 0) {
    00000CED DD 6E ED         [19] 2108 	ld	l, -19 (ix)
    00000CF0 DD 66 EE         [19] 2109 	ld	h, -18 (ix)
    00000CF3 5E               [ 7] 2110 	ld	e, (hl)
                                   2111 ;E:\Dropbox\FAUSTO\SVILUPPI\MSX\CODE\C\MSXgl\projects\soccerlgMSX2/soccerlg_s9_b3.c:284: i16 next_y = (i16)Carrier->ly + Carrier->dy;
    00000CF4 DD 7E EB         [19] 2112 	ld	a, -21 (ix)
    00000CF7 C6 04            [ 7] 2113 	add	a, #0x04
    00000CF9 DD 77 F1         [19] 2114 	ld	-15 (ix), a
    00000CFC DD 7E EC         [19] 2115 	ld	a, -20 (ix)
    00000CFF CE 00            [ 7] 2116 	adc	a, #0x00
    00000D01 DD 77 F2         [19] 2117 	ld	-14 (ix), a
                                   2118 ;E:\Dropbox\FAUSTO\SVILUPPI\MSX\CODE\C\MSXgl\projects\soccerlgMSX2/soccerlg_s9_b3.c:291: Carrier->frame = CallFnc_U16_P4(SEG_GAMESTATE_2, GetPlayerAnimFrame, carrier, Carrier->dx, Carrier->dy, walk_seq[(Carrier->anim / 3) % 4]);
    00000D04 DD 7E EB         [19] 2119 	ld	a, -21 (ix)
    00000D07 C6 0F            [ 7] 2120 	add	a, #0x0f
    00000D09 4F               [ 4] 2121 	ld	c, a
    00000D0A DD 7E EC         [19] 2122 	ld	a, -20 (ix)
    00000D0D CE 00            [ 7] 2123 	adc	a, #0x00
    00000D0F 47               [ 4] 2124 	ld	b, a
                                   2125 ;E:\Dropbox\FAUSTO\SVILUPPI\MSX\CODE\C\MSXgl\projects\soccerlgMSX2/soccerlg_s9_b3.c:275: if (Carrier->dx != 0 || Carrier->dy != 0) {
    00000D10 7B               [ 4] 2126 	ld	a, e
    00000D11 B7               [ 4] 2127 	or	a, a
    00000D12 20 0B            [12] 2128 	jr	NZ, 00236$
    00000D14 DD 6E EF         [19] 2129 	ld	l, -17 (ix)
    00000D17 DD 66 F0         [19] 2130 	ld	h, -16 (ix)
    00000D1A 7E               [ 7] 2131 	ld	a, (hl)
    00000D1B B7               [ 4] 2132 	or	a, a
    00000D1C CAr55r0E         [10] 2133 	jp	Z, 00237$
    00000D1F                       2134 00236$:
                                   2135 ;E:\Dropbox\FAUSTO\SVILUPPI\MSX\CODE\C\MSXgl\projects\soccerlgMSX2/soccerlg_s9_b3.c:276: g_last_dx[i] = Carrier->dx;
    00000D1F 3Er00            [ 7] 2136 	ld	a, #<(_g_last_dx)
    00000D21 DD 86 FF         [19] 2137 	add	a, -1 (ix)
    00000D24 6F               [ 4] 2138 	ld	l, a
                                   2139 ;	spillPairReg hl
                                   2140 ;	spillPairReg hl
    00000D25 3Es00            [ 7] 2141 	ld	a, #>(_g_last_dx)
    00000D27 CE 00            [ 7] 2142 	adc	a, #0x00
    00000D29 67               [ 4] 2143 	ld	h, a
    00000D2A 73               [ 7] 2144 	ld	(hl), e
                                   2145 ;E:\Dropbox\FAUSTO\SVILUPPI\MSX\CODE\C\MSXgl\projects\soccerlgMSX2/soccerlg_s9_b3.c:277: g_last_dy[i] = Carrier->dy;
    00000D2B 3Er00            [ 7] 2146 	ld	a, #<(_g_last_dy)
    00000D2D DD 86 FF         [19] 2147 	add	a, -1 (ix)
    00000D30 5F               [ 4] 2148 	ld	e, a
    00000D31 3Es00            [ 7] 2149 	ld	a, #>(_g_last_dy)
    00000D33 CE 00            [ 7] 2150 	adc	a, #0x00
    00000D35 57               [ 4] 2151 	ld	d, a
    00000D36 DD 6E EF         [19] 2152 	ld	l, -17 (ix)
    00000D39 DD 66 F0         [19] 2153 	ld	h, -16 (ix)
    00000D3C 7E               [ 7] 2154 	ld	a, (hl)
    00000D3D 12               [ 7] 2155 	ld	(de), a
                                   2156 ;E:\Dropbox\FAUSTO\SVILUPPI\MSX\CODE\C\MSXgl\projects\soccerlgMSX2/soccerlg_s9_b3.c:279: i16 next_x = (i16)Carrier->lx + Carrier->dx;
    00000D3E DD 6E EB         [19] 2157 	ld	l, -21 (ix)
    00000D41 DD 66 EC         [19] 2158 	ld	h, -20 (ix)
    00000D44 5E               [ 7] 2159 	ld	e, (hl)
    00000D45 16 00            [ 7] 2160 	ld	d, #0x00
    00000D47 DD 6E ED         [19] 2161 	ld	l, -19 (ix)
    00000D4A DD 66 EE         [19] 2162 	ld	h, -18 (ix)
    00000D4D 7E               [ 7] 2163 	ld	a, (hl)
    00000D4E 6F               [ 4] 2164 	ld	l, a
                                   2165 ;	spillPairReg hl
                                   2166 ;	spillPairReg hl
    00000D4F 07               [ 4] 2167 	rlca
    00000D50 9F               [ 4] 2168 	sbc	a, a
    00000D51 67               [ 4] 2169 	ld	h, a
                                   2170 ;	spillPairReg hl
                                   2171 ;	spillPairReg hl
    00000D52 19               [11] 2172 	add	hl, de
                                   2173 ;E:\Dropbox\FAUSTO\SVILUPPI\MSX\CODE\C\MSXgl\projects\soccerlgMSX2/soccerlg_s9_b3.c:280: if (next_x < 16) Carrier->lx = 16;
    00000D53 DD 75 F9         [19] 2174 	ld	-7 (ix), l
    00000D56 DD 74 FA         [19] 2175 	ld	-6 (ix), h
    00000D59 EB               [ 4] 2176 	ex	de,hl
    00000D5A 7B               [ 4] 2177 	ld	a, e
    00000D5B D6 10            [ 7] 2178 	sub	a, #0x10
    00000D5D 7A               [ 4] 2179 	ld	a, d
    00000D5E 17               [ 4] 2180 	rla
    00000D5F 3F               [ 4] 2181 	ccf
    00000D60 1F               [ 4] 2182 	rra
    00000D61 DE 80            [ 7] 2183 	sbc	a, #0x80
    00000D63 30 0B            [12] 2184 	jr	NC, 00228$
    00000D65 DD 6E EB         [19] 2185 	ld	l, -21 (ix)
    00000D68 DD 66 EC         [19] 2186 	ld	h, -20 (ix)
    00000D6B 36 10            [10] 2187 	ld	(hl), #0x10
    00000D6D C3r93r0D         [10] 2188 	jp	00229$
    00000D70                       2189 00228$:
                                   2190 ;E:\Dropbox\FAUSTO\SVILUPPI\MSX\CODE\C\MSXgl\projects\soccerlgMSX2/soccerlg_s9_b3.c:281: else if (next_x > 240) Carrier->lx = 240;
    00000D70 3E F0            [ 7] 2191 	ld	a, #0xf0
    00000D72 BB               [ 4] 2192 	cp	a, e
    00000D73 3E 00            [ 7] 2193 	ld	a, #0x00
    00000D75 9A               [ 4] 2194 	sbc	a, d
    00000D76 E2r7Br0D         [10] 2195 	jp	PO, 01142$
    00000D79 EE 80            [ 7] 2196 	xor	a, #0x80
    00000D7B                       2197 01142$:
    00000D7B F2r89r0D         [10] 2198 	jp	P, 00225$
    00000D7E DD 6E EB         [19] 2199 	ld	l, -21 (ix)
    00000D81 DD 66 EC         [19] 2200 	ld	h, -20 (ix)
    00000D84 36 F0            [10] 2201 	ld	(hl), #0xf0
    00000D86 C3r93r0D         [10] 2202 	jp	00229$
    00000D89                       2203 00225$:
                                   2204 ;E:\Dropbox\FAUSTO\SVILUPPI\MSX\CODE\C\MSXgl\projects\soccerlgMSX2/soccerlg_s9_b3.c:282: else Carrier->lx = (u8)next_x;
    00000D89 DD 7E F9         [19] 2205 	ld	a, -7 (ix)
    00000D8C DD 6E EB         [19] 2206 	ld	l, -21 (ix)
    00000D8F DD 66 EC         [19] 2207 	ld	h, -20 (ix)
    00000D92 77               [ 7] 2208 	ld	(hl), a
    00000D93                       2209 00229$:
                                   2210 ;E:\Dropbox\FAUSTO\SVILUPPI\MSX\CODE\C\MSXgl\projects\soccerlgMSX2/soccerlg_s9_b3.c:284: i16 next_y = (i16)Carrier->ly + Carrier->dy;
    00000D93 DD 6E F1         [19] 2211 	ld	l, -15 (ix)
    00000D96 DD 66 F2         [19] 2212 	ld	h, -14 (ix)
    00000D99 5E               [ 7] 2213 	ld	e, (hl)
    00000D9A 23               [ 6] 2214 	inc	hl
    00000D9B 56               [ 7] 2215 	ld	d, (hl)
    00000D9C DD 6E EF         [19] 2216 	ld	l, -17 (ix)
    00000D9F DD 66 F0         [19] 2217 	ld	h, -16 (ix)
    00000DA2 7E               [ 7] 2218 	ld	a, (hl)
    00000DA3 6F               [ 4] 2219 	ld	l, a
                                   2220 ;	spillPairReg hl
                                   2221 ;	spillPairReg hl
    00000DA4 07               [ 4] 2222 	rlca
    00000DA5 9F               [ 4] 2223 	sbc	a, a
    00000DA6 67               [ 4] 2224 	ld	h, a
                                   2225 ;	spillPairReg hl
                                   2226 ;	spillPairReg hl
    00000DA7 19               [11] 2227 	add	hl, de
                                   2228 ;E:\Dropbox\FAUSTO\SVILUPPI\MSX\CODE\C\MSXgl\projects\soccerlgMSX2/soccerlg_s9_b3.c:285: if (next_y < 24) Carrier->ly = 24;
    00000DA8 DD 75 F9         [19] 2229 	ld	-7 (ix), l
    00000DAB DD 74 FA         [19] 2230 	ld	-6 (ix), h
    00000DAE EB               [ 4] 2231 	ex	de,hl
    00000DAF 7B               [ 4] 2232 	ld	a, e
    00000DB0 D6 18            [ 7] 2233 	sub	a, #0x18
    00000DB2 7A               [ 4] 2234 	ld	a, d
    00000DB3 17               [ 4] 2235 	rla
    00000DB4 3F               [ 4] 2236 	ccf
    00000DB5 1F               [ 4] 2237 	rra
    00000DB6 DE 80            [ 7] 2238 	sbc	a, #0x80
    00000DB8 30 0E            [12] 2239 	jr	NC, 00234$
    00000DBA DD 6E F1         [19] 2240 	ld	l, -15 (ix)
    00000DBD DD 66 F2         [19] 2241 	ld	h, -14 (ix)
    00000DC0 36 18            [10] 2242 	ld	(hl), #0x18
    00000DC2 23               [ 6] 2243 	inc	hl
    00000DC3 36 00            [10] 2244 	ld	(hl), #0x00
    00000DC5 C3rF3r0D         [10] 2245 	jp	00235$
    00000DC8                       2246 00234$:
                                   2247 ;E:\Dropbox\FAUSTO\SVILUPPI\MSX\CODE\C\MSXgl\projects\soccerlgMSX2/soccerlg_s9_b3.c:286: else if (next_y > 488) Carrier->ly = 488;
    00000DC8 3E E8            [ 7] 2248 	ld	a, #0xe8
    00000DCA BB               [ 4] 2249 	cp	a, e
    00000DCB 3E 01            [ 7] 2250 	ld	a, #0x01
    00000DCD 9A               [ 4] 2251 	sbc	a, d
    00000DCE E2rD3r0D         [10] 2252 	jp	PO, 01143$
    00000DD1 EE 80            [ 7] 2253 	xor	a, #0x80
    00000DD3                       2254 01143$:
    00000DD3 F2rE4r0D         [10] 2255 	jp	P, 00231$
    00000DD6 DD 6E F1         [19] 2256 	ld	l, -15 (ix)
    00000DD9 DD 66 F2         [19] 2257 	ld	h, -14 (ix)
    00000DDC 36 E8            [10] 2258 	ld	(hl), #0xe8
    00000DDE 23               [ 6] 2259 	inc	hl
    00000DDF 36 01            [10] 2260 	ld	(hl), #0x01
    00000DE1 C3rF3r0D         [10] 2261 	jp	00235$
    00000DE4                       2262 00231$:
                                   2263 ;E:\Dropbox\FAUSTO\SVILUPPI\MSX\CODE\C\MSXgl\projects\soccerlgMSX2/soccerlg_s9_b3.c:287: else Carrier->ly = (u16)next_y;
    00000DE4 DD 5E F9         [19] 2264 	ld	e, -7 (ix)
    00000DE7 DD 56 FA         [19] 2265 	ld	d, -6 (ix)
    00000DEA DD 6E F1         [19] 2266 	ld	l, -15 (ix)
    00000DED DD 66 F2         [19] 2267 	ld	h, -14 (ix)
    00000DF0 73               [ 7] 2268 	ld	(hl), e
    00000DF1 23               [ 6] 2269 	inc	hl
    00000DF2 72               [ 7] 2270 	ld	(hl), d
    00000DF3                       2271 00235$:
                                   2272 ;E:\Dropbox\FAUSTO\SVILUPPI\MSX\CODE\C\MSXgl\projects\soccerlgMSX2/soccerlg_s9_b3.c:289: Carrier->anim++;
    00000DF3 DD 6E EB         [19] 2273 	ld	l, -21 (ix)
    00000DF6 DD 66 EC         [19] 2274 	ld	h, -20 (ix)
    00000DF9 11 13 00         [10] 2275 	ld	de, #0x0013
    00000DFC 19               [11] 2276 	add	hl, de
    00000DFD 5E               [ 7] 2277 	ld	e, (hl)
    00000DFE 23               [ 6] 2278 	inc	hl
    00000DFF 56               [ 7] 2279 	ld	d, (hl)
    00000E00 2B               [ 6] 2280 	dec	hl
    00000E01 13               [ 6] 2281 	inc	de
    00000E02 73               [ 7] 2282 	ld	(hl), e
    00000E03 23               [ 6] 2283 	inc	hl
    00000E04 72               [ 7] 2284 	ld	(hl), d
                                   2285 ;E:\Dropbox\FAUSTO\SVILUPPI\MSX\CODE\C\MSXgl\projects\soccerlgMSX2/soccerlg_s9_b3.c:290: const u8 walk_seq[4] = {0, 1, 2, 1}; 
    00000E05 DD 36 E2 00      [19] 2286 	ld	-30 (ix), #0x00
    00000E09 DD 36 E3 01      [19] 2287 	ld	-29 (ix), #0x01
    00000E0D DD 36 E4 02      [19] 2288 	ld	-28 (ix), #0x02
    00000E11 DD 36 E5 01      [19] 2289 	ld	-27 (ix), #0x01
                                   2290 ;E:\Dropbox\FAUSTO\SVILUPPI\MSX\CODE\C\MSXgl\projects\soccerlgMSX2/soccerlg_s9_b3.c:291: Carrier->frame = CallFnc_U16_P4(SEG_GAMESTATE_2, GetPlayerAnimFrame, carrier, Carrier->dx, Carrier->dy, walk_seq[(Carrier->anim / 3) % 4]);
    00000E15 C5               [11] 2291 	push	bc
    00000E16 EB               [ 4] 2292 	ex	de, hl
    00000E17 11 03 00         [10] 2293 	ld	de, #0x0003
    00000E1A CDr00r00         [17] 2294 	call	__divuint
    00000E1D C1               [10] 2295 	pop	bc
    00000E1E 7B               [ 4] 2296 	ld	a, e
    00000E1F E6 03            [ 7] 2297 	and	a, #0x03
    00000E21 5F               [ 4] 2298 	ld	e, a
    00000E22 16 00            [ 7] 2299 	ld	d, #0x00
    00000E24 21 08 00         [10] 2300 	ld	hl, #8
    00000E27 39               [11] 2301 	add	hl, sp
    00000E28 19               [11] 2302 	add	hl, de
    00000E29 56               [ 7] 2303 	ld	d, (hl)
    00000E2A DD 6E EF         [19] 2304 	ld	l, -17 (ix)
    00000E2D DD 66 F0         [19] 2305 	ld	h, -16 (ix)
    00000E30 7E               [ 7] 2306 	ld	a, (hl)
    00000E31 DD 6E ED         [19] 2307 	ld	l, -19 (ix)
    00000E34 DD 66 EE         [19] 2308 	ld	h, -18 (ix)
    00000E37 66               [ 7] 2309 	ld	h, (hl)
                                   2310 ;	spillPairReg hl
    00000E38 C5               [11] 2311 	push	bc
    00000E39 D5               [11] 2312 	push	de
    00000E3A 33               [ 6] 2313 	inc	sp
    00000E3B F5               [11] 2314 	push	af
    00000E3C 33               [ 6] 2315 	inc	sp
    00000E3D E5               [11] 2316 	push	hl
    00000E3E 33               [ 6] 2317 	inc	sp
    00000E3F DD 7E EA         [19] 2318 	ld	a, -22 (ix)
    00000E42 F5               [11] 2319 	push	af
    00000E43 33               [ 6] 2320 	inc	sp
    00000E44 11r00r00         [10] 2321 	ld	de, #_GetPlayerAnimFrame
    00000E47 3E 0B            [ 7] 2322 	ld	a, #0x0b
    00000E49 CDr00r00         [17] 2323 	call	_CallFnc_U16_P4
    00000E4C C1               [10] 2324 	pop	bc
    00000E4D 7B               [ 4] 2325 	ld	a, e
    00000E4E 02               [ 7] 2326 	ld	(bc), a
    00000E4F 03               [ 6] 2327 	inc	bc
    00000E50 7A               [ 4] 2328 	ld	a, d
    00000E51 02               [ 7] 2329 	ld	(bc), a
    00000E52 C3r85r0E         [10] 2330 	jp	00238$
    00000E55                       2331 00237$:
                                   2332 ;E:\Dropbox\FAUSTO\SVILUPPI\MSX\CODE\C\MSXgl\projects\soccerlgMSX2/soccerlg_s9_b3.c:294: Carrier->frame = CallFnc_U16_P3(SEG_GAMESTATE_2, GetPlayerIdleFrame, carrier, g_last_dx[i], g_last_dy[i]);
    00000E55 3Er00            [ 7] 2333 	ld	a, #<(_g_last_dy)
    00000E57 DD 86 FF         [19] 2334 	add	a, -1 (ix)
    00000E5A 6F               [ 4] 2335 	ld	l, a
                                   2336 ;	spillPairReg hl
                                   2337 ;	spillPairReg hl
    00000E5B 3Es00            [ 7] 2338 	ld	a, #>(_g_last_dy)
    00000E5D CE 00            [ 7] 2339 	adc	a, #0x00
    00000E5F 67               [ 4] 2340 	ld	h, a
    00000E60 56               [ 7] 2341 	ld	d, (hl)
    00000E61 3Er00            [ 7] 2342 	ld	a, #<(_g_last_dx)
    00000E63 DD 86 FF         [19] 2343 	add	a, -1 (ix)
    00000E66 6F               [ 4] 2344 	ld	l, a
                                   2345 ;	spillPairReg hl
                                   2346 ;	spillPairReg hl
    00000E67 3Es00            [ 7] 2347 	ld	a, #>(_g_last_dx)
    00000E69 CE 00            [ 7] 2348 	adc	a, #0x00
    00000E6B 67               [ 4] 2349 	ld	h, a
    00000E6C 7E               [ 7] 2350 	ld	a, (hl)
    00000E6D C5               [11] 2351 	push	bc
    00000E6E D5               [11] 2352 	push	de
    00000E6F 33               [ 6] 2353 	inc	sp
    00000E70 F5               [11] 2354 	push	af
    00000E71 33               [ 6] 2355 	inc	sp
    00000E72 DD 7E EA         [19] 2356 	ld	a, -22 (ix)
    00000E75 F5               [11] 2357 	push	af
    00000E76 33               [ 6] 2358 	inc	sp
    00000E77 11r00r00         [10] 2359 	ld	de, #_GetPlayerIdleFrame
    00000E7A 3E 0B            [ 7] 2360 	ld	a, #0x0b
    00000E7C CDr00r00         [17] 2361 	call	_CallFnc_U16_P3
    00000E7F C1               [10] 2362 	pop	bc
    00000E80 7B               [ 4] 2363 	ld	a, e
    00000E81 02               [ 7] 2364 	ld	(bc), a
    00000E82 03               [ 6] 2365 	inc	bc
    00000E83 7A               [ 4] 2366 	ld	a, d
    00000E84 02               [ 7] 2367 	ld	(bc), a
    00000E85                       2368 00238$:
                                   2369 ;E:\Dropbox\FAUSTO\SVILUPPI\MSX\CODE\C\MSXgl\projects\soccerlgMSX2/soccerlg_s9_b3.c:298: u16 dist_x = (Carrier->lx > Ball->lx) ? (Carrier->lx - Ball->lx) : (Ball->lx - Carrier->lx);
    00000E85 DD 6E EB         [19] 2370 	ld	l, -21 (ix)
    00000E88 DD 66 EC         [19] 2371 	ld	h, -20 (ix)
    00000E8B 5E               [ 7] 2372 	ld	e, (hl)
    00000E8C 21r42r01         [10] 2373 	ld	hl, #(_SwSprite + 322)
    00000E8F 56               [ 7] 2374 	ld	d, (hl)
    00000E90 4B               [ 4] 2375 	ld	c, e
    00000E91 06 00            [ 7] 2376 	ld	b, #0x00
    00000E93 DD 72 F9         [19] 2377 	ld	-7 (ix), d
    00000E96 DD 36 FA 00      [19] 2378 	ld	-6 (ix), #0x00
    00000E9A 7A               [ 4] 2379 	ld	a, d
    00000E9B 93               [ 4] 2380 	sub	a, e
    00000E9C 30 0C            [12] 2381 	jr	NC, 00377$
    00000E9E 79               [ 4] 2382 	ld	a, c
    00000E9F DD 96 F9         [19] 2383 	sub	a, -7 (ix)
    00000EA2 4F               [ 4] 2384 	ld	c, a
    00000EA3 78               [ 4] 2385 	ld	a, b
    00000EA4 DD 9E FA         [19] 2386 	sbc	a, -6 (ix)
    00000EA7 C3rB3r0E         [10] 2387 	jp	00378$
    00000EAA                       2388 00377$:
    00000EAA DD 7E F9         [19] 2389 	ld	a, -7 (ix)
    00000EAD 91               [ 4] 2390 	sub	a, c
    00000EAE 4F               [ 4] 2391 	ld	c, a
    00000EAF DD 7E FA         [19] 2392 	ld	a, -6 (ix)
    00000EB2 98               [ 4] 2393 	sbc	a, b
    00000EB3                       2394 00378$:
    00000EB3 DD 71 E6         [19] 2395 	ld	-26 (ix), c
    00000EB6 DD 77 E7         [19] 2396 	ld	-25 (ix), a
                                   2397 ;E:\Dropbox\FAUSTO\SVILUPPI\MSX\CODE\C\MSXgl\projects\soccerlgMSX2/soccerlg_s9_b3.c:299: u16 dist_y = (Carrier->ly > Ball->ly) ? (Carrier->ly - Ball->ly) : (Ball->ly - Carrier->ly);
    00000EB9 DD 6E F1         [19] 2398 	ld	l, -15 (ix)
    00000EBC DD 66 F2         [19] 2399 	ld	h, -14 (ix)
    00000EBF 7E               [ 7] 2400 	ld	a, (hl)
    00000EC0 DD 77 F3         [19] 2401 	ld	-13 (ix), a
    00000EC3 23               [ 6] 2402 	inc	hl
    00000EC4 7E               [ 7] 2403 	ld	a, (hl)
    00000EC5 DD 77 F4         [19] 2404 	ld	-12 (ix), a
    00000EC8 21r46r01         [10] 2405 	ld	hl, #(_SwSprite + 326)
    00000ECB 7E               [ 7] 2406 	ld	a, (hl)
    00000ECC DD 77 F7         [19] 2407 	ld	-9 (ix), a
    00000ECF 23               [ 6] 2408 	inc	hl
    00000ED0 7E               [ 7] 2409 	ld	a, (hl)
    00000ED1 DD 77 F8         [19] 2410 	ld	-8 (ix), a
    00000ED4 DD 7E F7         [19] 2411 	ld	a, -9 (ix)
    00000ED7 DD 96 F3         [19] 2412 	sub	a, -13 (ix)
    00000EDA DD 7E F8         [19] 2413 	ld	a, -8 (ix)
    00000EDD DD 9E F4         [19] 2414 	sbc	a, -12 (ix)
    00000EE0 30 15            [12] 2415 	jr	NC, 00379$
    00000EE2 DD 7E F3         [19] 2416 	ld	a, -13 (ix)
    00000EE5 DD 96 F7         [19] 2417 	sub	a, -9 (ix)
    00000EE8 DD 77 F9         [19] 2418 	ld	-7 (ix), a
    00000EEB DD 7E F4         [19] 2419 	ld	a, -12 (ix)
    00000EEE DD 9E F8         [19] 2420 	sbc	a, -8 (ix)
    00000EF1 DD 77 FA         [19] 2421 	ld	-6 (ix), a
    00000EF4 C3r09r0F         [10] 2422 	jp	00380$
    00000EF7                       2423 00379$:
    00000EF7 DD 7E F7         [19] 2424 	ld	a, -9 (ix)
    00000EFA DD 96 F3         [19] 2425 	sub	a, -13 (ix)
    00000EFD DD 77 F9         [19] 2426 	ld	-7 (ix), a
    00000F00 DD 7E F8         [19] 2427 	ld	a, -8 (ix)
    00000F03 DD 9E F4         [19] 2428 	sbc	a, -12 (ix)
    00000F06 DD 77 FA         [19] 2429 	ld	-6 (ix), a
    00000F09                       2430 00380$:
    00000F09 DD 7E F9         [19] 2431 	ld	a, -7 (ix)
    00000F0C DD 77 E8         [19] 2432 	ld	-24 (ix), a
    00000F0F DD 7E FA         [19] 2433 	ld	a, -6 (ix)
    00000F12 DD 77 E9         [19] 2434 	ld	-23 (ix), a
                                   2435 ;E:\Dropbox\FAUSTO\SVILUPPI\MSX\CODE\C\MSXgl\projects\soccerlgMSX2/soccerlg_s9_b3.c:301: u8 carrier_team = (carrier < 7) ? TEAM_1 : TEAM_2;
    00000F15 DD 7E EA         [19] 2436 	ld	a, -22 (ix)
    00000F18 D6 07            [ 7] 2437 	sub	a, #0x07
    00000F1A 3E 00            [ 7] 2438 	ld	a, #0x00
    00000F1C 17               [ 4] 2439 	rla
    00000F1D DD 77 F5         [19] 2440 	ld	-11 (ix), a
    00000F20 B7               [ 4] 2441 	or	a, a
    00000F21 28 0A            [12] 2442 	jr	Z, 00381$
    00000F23 AF               [ 4] 2443 	xor	a, a
    00000F24 DD 77 F9         [19] 2444 	ld	-7 (ix), a
    00000F27 DD 77 FA         [19] 2445 	ld	-6 (ix), a
    00000F2A C3r35r0F         [10] 2446 	jp	00382$
    00000F2D                       2447 00381$:
    00000F2D DD 36 F9 01      [19] 2448 	ld	-7 (ix), #0x01
    00000F31 DD 36 FA 00      [19] 2449 	ld	-6 (ix), #0
    00000F35                       2450 00382$:
    00000F35 DD 4E F9         [19] 2451 	ld	c, -7 (ix)
                                   2452 ;E:\Dropbox\FAUSTO\SVILUPPI\MSX\CODE\C\MSXgl\projects\soccerlgMSX2/soccerlg_s9_b3.c:302: u8 touch_dist = (LastTouchTeam == carrier_team || LastTouchTeam == 0xFF) ? 24 : 10; // 10 pixel per il tackle
    00000F38 3Ar00r00         [13] 2453 	ld	a,(_LastTouchTeam+0)
    00000F3B B9               [ 4] 2454 	cp	a,c
    00000F3C 28 03            [12] 2455 	jr	Z, 00386$
    00000F3E 3C               [ 4] 2456 	inc	a
    00000F3F 20 06            [12] 2457 	jr	NZ, 00383$
    00000F41                       2458 00386$:
    00000F41 01 18 00         [10] 2459 	ld	bc, #0x0018
    00000F44 C3r4Ar0F         [10] 2460 	jp	00384$
    00000F47                       2461 00383$:
    00000F47 01 0A 00         [10] 2462 	ld	bc, #0x000a
    00000F4A                       2463 00384$:
    00000F4A 51               [ 4] 2464 	ld	d, c
                                   2465 ;E:\Dropbox\FAUSTO\SVILUPPI\MSX\CODE\C\MSXgl\projects\soccerlgMSX2/soccerlg_s9_b3.c:189: if (Ball->anim > 0) {
    00000F4B 2Ar55r01         [16] 2466 	ld	hl, (#(_SwSprite + 341) + 0)
                                   2467 ;E:\Dropbox\FAUSTO\SVILUPPI\MSX\CODE\C\MSXgl\projects\soccerlgMSX2/soccerlg_s9_b3.c:303: if (Ball->anim >= 6) touch_dist = 8; // I tiri potenti sfuggono facilmente al tackle
    00000F4E DD 75 F7         [19] 2468 	ld	-9 (ix), l
    00000F51 DD 74 F8         [19] 2469 	ld	-8 (ix), h
    00000F54 DD 7E F7         [19] 2470 	ld	a, -9 (ix)
    00000F57 D6 06            [ 7] 2471 	sub	a, #0x06
    00000F59 DD 7E F8         [19] 2472 	ld	a, -8 (ix)
    00000F5C DE 00            [ 7] 2473 	sbc	a, #0x00
    00000F5E 38 02            [12] 2474 	jr	C, 00241$
    00000F60 16 08            [ 7] 2475 	ld	d, #0x08
    00000F62                       2476 00241$:
                                   2477 ;E:\Dropbox\FAUSTO\SVILUPPI\MSX\CODE\C\MSXgl\projects\soccerlgMSX2/soccerlg_s9_b3.c:306: if (dist_x <= touch_dist && dist_y <= touch_dist && Ball->anim != 5) {
    00000F62 DD 72 F9         [19] 2478 	ld	-7 (ix), d
    00000F65 DD 36 FA 00      [19] 2479 	ld	-6 (ix), #0x00
    00000F69 DD 7E F9         [19] 2480 	ld	a, -7 (ix)
    00000F6C DD 96 E6         [19] 2481 	sub	a, -26 (ix)
    00000F6F DD 7E FA         [19] 2482 	ld	a, -6 (ix)
    00000F72 DD 9E E7         [19] 2483 	sbc	a, -25 (ix)
    00000F75 DArA8r14         [10] 2484 	jp	C, 00306$
    00000F78 DD 7E F9         [19] 2485 	ld	a, -7 (ix)
    00000F7B DD 96 E8         [19] 2486 	sub	a, -24 (ix)
    00000F7E DD 7E FA         [19] 2487 	ld	a, -6 (ix)
    00000F81 DD 9E E9         [19] 2488 	sbc	a, -23 (ix)
    00000F84 DArA8r14         [10] 2489 	jp	C, 00306$
    00000F87 DD 7E F7         [19] 2490 	ld	a, -9 (ix)
    00000F8A D6 05            [ 7] 2491 	sub	a, #0x05
    00000F8C DD B6 F8         [19] 2492 	or	a, -8 (ix)
    00000F8F CArA8r14         [10] 2493 	jp	Z,00306$
                                   2494 ;E:\Dropbox\FAUSTO\SVILUPPI\MSX\CODE\C\MSXgl\projects\soccerlgMSX2/soccerlg_s9_b3.c:308: bool offside = FALSE;
    00000F92 DD 36 F8 00      [19] 2495 	ld	-8 (ix), #0x00
                                   2496 ;E:\Dropbox\FAUSTO\SVILUPPI\MSX\CODE\C\MSXgl\projects\soccerlgMSX2/soccerlg_s9_b3.c:309: if (carrier < 7 && LastTouchTeam == TEAM_1 && LastTouchPlayer != carrier) {
    00000F96 DD 7E F5         [19] 2497 	ld	a, -11 (ix)
    00000F99 B7               [ 4] 2498 	or	a, a
    00000F9A CAr1Br10         [10] 2499 	jp	Z, 00253$
    00000F9D 3Ar00r00         [13] 2500 	ld	a, (_LastTouchTeam+0)
    00000FA0 B7               [ 4] 2501 	or	a, a
    00000FA1 20 78            [12] 2502 	jr	NZ, 00253$
    00000FA3 3Ar00r00         [13] 2503 	ld	a, (_LastTouchPlayer+0)
    00000FA6 DD 96 EA         [19] 2504 	sub	a, -22 (ix)
    00000FA9 28 70            [12] 2505 	jr	Z, 00253$
                                   2506 ;E:\Dropbox\FAUSTO\SVILUPPI\MSX\CODE\C\MSXgl\projects\soccerlgMSX2/soccerlg_s9_b3.c:310: u16 offside_line = (SwSprite[8].ly < SwSprite[9].ly) ? SwSprite[8].ly : SwSprite[9].ly;
    00000FAB 21rBCr00         [10] 2507 	ld	hl, #_SwSprite + 188
    00000FAE 7E               [ 7] 2508 	ld	a, (hl)
    00000FAF DD 77 F6         [19] 2509 	ld	-10 (ix), a
    00000FB2 23               [ 6] 2510 	inc	hl
    00000FB3 7E               [ 7] 2511 	ld	a, (hl)
    00000FB4 DD 77 F7         [19] 2512 	ld	-9 (ix), a
    00000FB7 21rD3r00         [10] 2513 	ld	hl, #_SwSprite + 211
    00000FBA 7E               [ 7] 2514 	ld	a, (hl)
    00000FBB DD 77 F9         [19] 2515 	ld	-7 (ix), a
    00000FBE 23               [ 6] 2516 	inc	hl
    00000FBF 7E               [ 7] 2517 	ld	a, (hl)
    00000FC0 DD 77 FA         [19] 2518 	ld	-6 (ix), a
    00000FC3 DD 7E F6         [19] 2519 	ld	a, -10 (ix)
    00000FC6 DD 96 F9         [19] 2520 	sub	a, -7 (ix)
    00000FC9 DD 7E F7         [19] 2521 	ld	a, -9 (ix)
    00000FCC DD 9E FA         [19] 2522 	sbc	a, -6 (ix)
    00000FCF 30 0C            [12] 2523 	jr	NC, 00388$
    00000FD1 DD 7E F6         [19] 2524 	ld	a, -10 (ix)
    00000FD4 DD 77 F9         [19] 2525 	ld	-7 (ix), a
    00000FD7 DD 7E F7         [19] 2526 	ld	a, -9 (ix)
    00000FDA DD 77 FA         [19] 2527 	ld	-6 (ix), a
    00000FDD                       2528 00388$:
                                   2529 ;E:\Dropbox\FAUSTO\SVILUPPI\MSX\CODE\C\MSXgl\projects\soccerlgMSX2/soccerlg_s9_b3.c:311: if (Carrier->ly > offside_line + 8 && Carrier->ly > 256) offside = TRUE;
    00000FDD DD 7E F9         [19] 2530 	ld	a, -7 (ix)
    00000FE0 C6 08            [ 7] 2531 	add	a, #0x08
    00000FE2 DD 77 F6         [19] 2532 	ld	-10 (ix), a
    00000FE5 DD 7E FA         [19] 2533 	ld	a, -6 (ix)
    00000FE8 CE 00            [ 7] 2534 	adc	a, #0x00
    00000FEA DD 77 F7         [19] 2535 	ld	-9 (ix), a
    00000FED DD 7E F3         [19] 2536 	ld	a, -13 (ix)
    00000FF0 DD 77 F9         [19] 2537 	ld	-7 (ix), a
    00000FF3 DD 7E F4         [19] 2538 	ld	a, -12 (ix)
    00000FF6 DD 77 FA         [19] 2539 	ld	-6 (ix), a
    00000FF9 DD 7E F6         [19] 2540 	ld	a, -10 (ix)
    00000FFC DD 96 F9         [19] 2541 	sub	a, -7 (ix)
    00000FFF DD 7E F7         [19] 2542 	ld	a, -9 (ix)
    00001002 DD 9E FA         [19] 2543 	sbc	a, -6 (ix)
    00001005 D2r97r10         [10] 2544 	jp	NC, 00254$
    00001008 AF               [ 4] 2545 	xor	a, a
    00001009 DD BE F9         [19] 2546 	cp	a, -7 (ix)
    0000100C 3E 01            [ 7] 2547 	ld	a, #0x01
    0000100E DD 9E FA         [19] 2548 	sbc	a, -6 (ix)
    00001011 D2r97r10         [10] 2549 	jp	NC, 00254$
    00001014 DD 36 F8 01      [19] 2550 	ld	-8 (ix), #0x01
    00001018 C3r97r10         [10] 2551 	jp	00254$
    0000101B                       2552 00253$:
                                   2553 ;E:\Dropbox\FAUSTO\SVILUPPI\MSX\CODE\C\MSXgl\projects\soccerlgMSX2/soccerlg_s9_b3.c:312: } else if (carrier >= 7 && LastTouchTeam == TEAM_2 && LastTouchPlayer != carrier) {
    0000101B DD 4E F5         [19] 2554 	ld	c, -11 (ix)
    0000101E CB 41            [ 8] 2555 	bit	0, c
    00001020 20 75            [12] 2556 	jr	NZ, 00254$
    00001022 3Ar00r00         [13] 2557 	ld	a, (_LastTouchTeam+0)
    00001025 3D               [ 4] 2558 	dec	a
    00001026 20 6F            [12] 2559 	jr	NZ, 00254$
    00001028 3Ar00r00         [13] 2560 	ld	a, (_LastTouchPlayer+0)
    0000102B DD 96 EA         [19] 2561 	sub	a, -22 (ix)
    0000102E 28 67            [12] 2562 	jr	Z, 00254$
                                   2563 ;E:\Dropbox\FAUSTO\SVILUPPI\MSX\CODE\C\MSXgl\projects\soccerlgMSX2/soccerlg_s9_b3.c:313: u16 offside_line = (SwSprite[1].ly > SwSprite[2].ly) ? SwSprite[1].ly : SwSprite[2].ly;
    00001030 21r1Br00         [10] 2564 	ld	hl, #_SwSprite + 27
    00001033 7E               [ 7] 2565 	ld	a, (hl)
    00001034 DD 77 F6         [19] 2566 	ld	-10 (ix), a
    00001037 23               [ 6] 2567 	inc	hl
    00001038 7E               [ 7] 2568 	ld	a, (hl)
    00001039 DD 77 F7         [19] 2569 	ld	-9 (ix), a
    0000103C 21r32r00         [10] 2570 	ld	hl, #_SwSprite + 50
    0000103F 7E               [ 7] 2571 	ld	a, (hl)
    00001040 DD 77 F9         [19] 2572 	ld	-7 (ix), a
    00001043 23               [ 6] 2573 	inc	hl
    00001044 7E               [ 7] 2574 	ld	a, (hl)
    00001045 DD 77 FA         [19] 2575 	ld	-6 (ix), a
    00001048 DD 7E F9         [19] 2576 	ld	a, -7 (ix)
    0000104B DD 96 F6         [19] 2577 	sub	a, -10 (ix)
    0000104E DD 7E FA         [19] 2578 	ld	a, -6 (ix)
    00001051 DD 9E F7         [19] 2579 	sbc	a, -9 (ix)
    00001054 30 0C            [12] 2580 	jr	NC, 00390$
    00001056 DD 7E F6         [19] 2581 	ld	a, -10 (ix)
    00001059 DD 77 F9         [19] 2582 	ld	-7 (ix), a
    0000105C DD 7E F7         [19] 2583 	ld	a, -9 (ix)
    0000105F DD 77 FA         [19] 2584 	ld	-6 (ix), a
    00001062                       2585 00390$:
                                   2586 ;E:\Dropbox\FAUSTO\SVILUPPI\MSX\CODE\C\MSXgl\projects\soccerlgMSX2/soccerlg_s9_b3.c:314: if (Carrier->ly < offside_line - 8 && Carrier->ly < 256) offside = TRUE;
    00001062 DD 7E F9         [19] 2587 	ld	a, -7 (ix)
    00001065 C6 F8            [ 7] 2588 	add	a, #0xf8
    00001067 DD 77 F6         [19] 2589 	ld	-10 (ix), a
    0000106A DD 7E FA         [19] 2590 	ld	a, -6 (ix)
    0000106D CE FF            [ 7] 2591 	adc	a, #0xff
    0000106F DD 77 F7         [19] 2592 	ld	-9 (ix), a
    00001072 DD 7E F3         [19] 2593 	ld	a, -13 (ix)
    00001075 DD 77 F9         [19] 2594 	ld	-7 (ix), a
    00001078 DD 7E F4         [19] 2595 	ld	a, -12 (ix)
    0000107B DD 77 FA         [19] 2596 	ld	-6 (ix), a
    0000107E DD 7E F9         [19] 2597 	ld	a, -7 (ix)
    00001081 DD 96 F6         [19] 2598 	sub	a, -10 (ix)
    00001084 DD 7E FA         [19] 2599 	ld	a, -6 (ix)
    00001087 DD 9E F7         [19] 2600 	sbc	a, -9 (ix)
    0000108A 30 0B            [12] 2601 	jr	NC, 00254$
    0000108C DD 7E FA         [19] 2602 	ld	a, -6 (ix)
    0000108F D6 01            [ 7] 2603 	sub	a, #0x01
    00001091 30 04            [12] 2604 	jr	NC, 00254$
    00001093 DD 36 F8 01      [19] 2605 	ld	-8 (ix), #0x01
    00001097                       2606 00254$:
                                   2607 ;E:\Dropbox\FAUSTO\SVILUPPI\MSX\CODE\C\MSXgl\projects\soccerlgMSX2/soccerlg_s9_b3.c:316: if (offside) {
    00001097 DD 7E F8         [19] 2608 	ld	a, -8 (ix)
    0000109A B7               [ 4] 2609 	or	a, a
    0000109B 28 4C            [12] 2610 	jr	Z, 00258$
                                   2611 ;E:\Dropbox\FAUSTO\SVILUPPI\MSX\CODE\C\MSXgl\projects\soccerlgMSX2/soccerlg_s9_b3.c:317: *game_state = 6; // Ferma il gioco
    0000109D DD 6E FD         [19] 2612 	ld	l, -3 (ix)
    000010A0 DD 66 FE         [19] 2613 	ld	h, -2 (ix)
    000010A3 36 06            [10] 2614 	ld	(hl), #0x06
                                   2615 ;E:\Dropbox\FAUSTO\SVILUPPI\MSX\CODE\C\MSXgl\projects\soccerlgMSX2/soccerlg_s9_b3.c:318: RestartType = 0; // Temporaneo fallback a KickOff per la ripresa
    000010A5 21r00r00         [10] 2616 	ld	hl, #_RestartType
    000010A8 36 00            [10] 2617 	ld	(hl), #0x00
                                   2618 ;E:\Dropbox\FAUSTO\SVILUPPI\MSX\CODE\C\MSXgl\projects\soccerlgMSX2/soccerlg_s9_b3.c:319: CallFnc_VOID(SEG_EVENTS, EventOffside);
    000010AA 11r00r00         [10] 2619 	ld	de, #_EventOffside
    000010AD 3E 08            [ 7] 2620 	ld	a, #0x08
    000010AF CDr00r00         [17] 2621 	call	_CallFnc_VOID
                                   2622 ;E:\Dropbox\FAUSTO\SVILUPPI\MSX\CODE\C\MSXgl\projects\soccerlgMSX2/soccerlg_s9_b3.c:320: Ball->anim = Ball->dx = Ball->dy = 0;
    000010B2 21r54r01         [10] 2623 	ld	hl, #(_SwSprite + 340)
    000010B5 36 00            [10] 2624 	ld	(hl), #0x00
    000010B7 21r53r01         [10] 2625 	ld	hl, #(_SwSprite + 339)
    000010BA 36 00            [10] 2626 	ld	(hl), #0x00
    000010BC 21 00 00         [10] 2627 	ld	hl, #0x0000
    000010BF 22r55r01         [16] 2628 	ld	((_SwSprite + 341)), hl
                                   2629 ;E:\Dropbox\FAUSTO\SVILUPPI\MSX\CODE\C\MSXgl\projects\soccerlgMSX2/soccerlg_s9_b3.c:321: T1_Carrier = T2_Carrier = 0xFF;
    000010C2 21r00r00         [10] 2630 	ld	hl, #_T2_Carrier
    000010C5 36 FF            [10] 2631 	ld	(hl), #0xff
    000010C7 21r00r00         [10] 2632 	ld	hl, #_T1_Carrier
    000010CA 36 FF            [10] 2633 	ld	(hl), #0xff
                                   2634 ;E:\Dropbox\FAUSTO\SVILUPPI\MSX\CODE\C\MSXgl\projects\soccerlgMSX2/soccerlg_s9_b3.c:322: TimerEnabled = FALSE;
    000010CC FD 21r00r00      [14] 2635 	ld	iy, #_TimerEnabled
    000010D0 FD 36 00 00      [19] 2636 	ld	0 (iy), #0x00
                                   2637 ;E:\Dropbox\FAUSTO\SVILUPPI\MSX\CODE\C\MSXgl\projects\soccerlgMSX2/soccerlg_s9_b3.c:323: *wait_secs = 2; *start_sec = Frms;
    000010D4 DD 6E FB         [19] 2638 	ld	l, -5 (ix)
    000010D7 DD 66 FC         [19] 2639 	ld	h, -4 (ix)
    000010DA 36 02            [10] 2640 	ld	(hl), #0x02
    000010DC DD 4E 04         [19] 2641 	ld	c, 4 (ix)
    000010DF DD 46 05         [19] 2642 	ld	b, 5 (ix)
    000010E2 3Ar00r00         [13] 2643 	ld	a, (_Frms+0)
    000010E5 02               [ 7] 2644 	ld	(bc), a
                                   2645 ;E:\Dropbox\FAUSTO\SVILUPPI\MSX\CODE\C\MSXgl\projects\soccerlgMSX2/soccerlg_s9_b3.c:324: continue; // Salta il controllo palla
    000010E6 C3rA8r14         [10] 2646 	jp	00306$
    000010E9                       2647 00258$:
                                   2648 ;E:\Dropbox\FAUSTO\SVILUPPI\MSX\CODE\C\MSXgl\projects\soccerlgMSX2/soccerlg_s9_b3.c:327: LastTouchTeam = (carrier < 7) ? TEAM_1 : TEAM_2;
    000010E9 DD 7E F5         [19] 2649 	ld	a, -11 (ix)
    000010EC B7               [ 4] 2650 	or	a, a
    000010ED 28 06            [12] 2651 	jr	Z, 00392$
    000010EF 01 00 00         [10] 2652 	ld	bc, #0x0000
    000010F2 C3rF8r10         [10] 2653 	jp	00393$
    000010F5                       2654 00392$:
    000010F5 01 01 00         [10] 2655 	ld	bc, #0x0001
    000010F8                       2656 00393$:
    000010F8 79               [ 4] 2657 	ld	a, c
    000010F9 32r00r00         [13] 2658 	ld	(#_LastTouchTeam), a
                                   2659 ;E:\Dropbox\FAUSTO\SVILUPPI\MSX\CODE\C\MSXgl\projects\soccerlgMSX2/soccerlg_s9_b3.c:328: LastTouchPlayer = carrier;
    000010FC DD 7E EA         [19] 2660 	ld	a, -22 (ix)
    000010FF 32r00r00         [13] 2661 	ld	(_LastTouchPlayer+0), a
                                   2662 ;E:\Dropbox\FAUSTO\SVILUPPI\MSX\CODE\C\MSXgl\projects\soccerlgMSX2/soccerlg_s9_b3.c:275: if (Carrier->dx != 0 || Carrier->dy != 0) {
    00001102 DD 6E ED         [19] 2663 	ld	l, -19 (ix)
    00001105 DD 66 EE         [19] 2664 	ld	h, -18 (ix)
    00001108 4E               [ 7] 2665 	ld	c, (hl)
    00001109 DD 6E EF         [19] 2666 	ld	l, -17 (ix)
    0000110C DD 66 F0         [19] 2667 	ld	h, -16 (ix)
    0000110F 7E               [ 7] 2668 	ld	a, (hl)
    00001110 DD 77 FA         [19] 2669 	ld	-6 (ix), a
                                   2670 ;E:\Dropbox\FAUSTO\SVILUPPI\MSX\CODE\C\MSXgl\projects\soccerlgMSX2/soccerlg_s9_b3.c:332: if (Carrier->dx != 0 || Carrier->dy != 0) {
    00001113 79               [ 4] 2671 	ld	a, c
    00001114 B7               [ 4] 2672 	or	a, a
    00001115 20 06            [12] 2673 	jr	NZ, 00259$
    00001117 DD 7E FA         [19] 2674 	ld	a, -6 (ix)
    0000111A B7               [ 4] 2675 	or	a, a
    0000111B 28 47            [12] 2676 	jr	Z, 00260$
    0000111D                       2677 00259$:
                                   2678 ;E:\Dropbox\FAUSTO\SVILUPPI\MSX\CODE\C\MSXgl\projects\soccerlgMSX2/soccerlg_s9_b3.c:333: c_dx = (Carrier->dx > 0) ? 1 : ((Carrier->dx < 0) ? -1 : 0);
    0000111D AF               [ 4] 2679 	xor	a, a
    0000111E 91               [ 4] 2680 	sub	a, c
    0000111F E2r24r11         [10] 2681 	jp	PO, 01152$
    00001122 EE 80            [ 7] 2682 	xor	a, #0x80
    00001124                       2683 01152$:
    00001124 F2r2Dr11         [10] 2684 	jp	P, 00394$
    00001127 01 01 00         [10] 2685 	ld	bc, #0x0001
    0000112A C3r3Ar11         [10] 2686 	jp	00395$
    0000112D                       2687 00394$:
    0000112D CB 79            [ 8] 2688 	bit	7, c
    0000112F 28 06            [12] 2689 	jr	Z, 00396$
    00001131 01 FF FF         [10] 2690 	ld	bc, #0xffff
    00001134 C3r3Ar11         [10] 2691 	jp	00397$
    00001137                       2692 00396$:
    00001137 01 00 00         [10] 2693 	ld	bc, #0x0000
    0000113A                       2694 00397$:
    0000113A                       2695 00395$:
    0000113A DD 71 F9         [19] 2696 	ld	-7 (ix), c
                                   2697 ;E:\Dropbox\FAUSTO\SVILUPPI\MSX\CODE\C\MSXgl\projects\soccerlgMSX2/soccerlg_s9_b3.c:334: c_dy = (Carrier->dy > 0) ? 1 : ((Carrier->dy < 0) ? -1 : 0);
    0000113D AF               [ 4] 2698 	xor	a, a
    0000113E DD 96 FA         [19] 2699 	sub	a, -6 (ix)
    00001141 E2r46r11         [10] 2700 	jp	PO, 01153$
    00001144 EE 80            [ 7] 2701 	xor	a, #0x80
    00001146                       2702 01153$:
    00001146 F2r4Fr11         [10] 2703 	jp	P, 00398$
    00001149 01 01 00         [10] 2704 	ld	bc, #0x0001
    0000114C C3r5Er11         [10] 2705 	jp	00399$
    0000114F                       2706 00398$:
    0000114F DD CB FA 7E      [20] 2707 	bit	7, -6 (ix)
    00001153 28 06            [12] 2708 	jr	Z, 00400$
    00001155 01 FF FF         [10] 2709 	ld	bc, #0xffff
    00001158 C3r5Er11         [10] 2710 	jp	00401$
    0000115B                       2711 00400$:
    0000115B 01 00 00         [10] 2712 	ld	bc, #0x0000
    0000115E                       2713 00401$:
    0000115E                       2714 00399$:
    0000115E DD 71 FA         [19] 2715 	ld	-6 (ix), c
    00001161 C3rBCr11         [10] 2716 	jp	00261$
    00001164                       2717 00260$:
                                   2718 ;E:\Dropbox\FAUSTO\SVILUPPI\MSX\CODE\C\MSXgl\projects\soccerlgMSX2/soccerlg_s9_b3.c:337: c_dx = (g_last_dx[i] > 0) ? 1 : ((g_last_dx[i] < 0) ? -1 : 0);
    00001164 3Er00            [ 7] 2719 	ld	a, #<(_g_last_dx)
    00001166 DD 86 FF         [19] 2720 	add	a, -1 (ix)
    00001169 6F               [ 4] 2721 	ld	l, a
                                   2722 ;	spillPairReg hl
                                   2723 ;	spillPairReg hl
    0000116A 3Es00            [ 7] 2724 	ld	a, #>(_g_last_dx)
    0000116C CE 00            [ 7] 2725 	adc	a, #0x00
    0000116E 67               [ 4] 2726 	ld	h, a
    0000116F 4E               [ 7] 2727 	ld	c, (hl)
    00001170 AF               [ 4] 2728 	xor	a, a
    00001171 91               [ 4] 2729 	sub	a, c
    00001172 E2r77r11         [10] 2730 	jp	PO, 01154$
    00001175 EE 80            [ 7] 2731 	xor	a, #0x80
    00001177                       2732 01154$:
    00001177 F2r80r11         [10] 2733 	jp	P, 00402$
    0000117A 01 01 00         [10] 2734 	ld	bc, #0x0001
    0000117D C3r8Dr11         [10] 2735 	jp	00403$
    00001180                       2736 00402$:
    00001180 CB 79            [ 8] 2737 	bit	7, c
    00001182 28 06            [12] 2738 	jr	Z, 00404$
    00001184 01 FF FF         [10] 2739 	ld	bc, #0xffff
    00001187 C3r8Dr11         [10] 2740 	jp	00405$
    0000118A                       2741 00404$:
    0000118A 01 00 00         [10] 2742 	ld	bc, #0x0000
    0000118D                       2743 00405$:
    0000118D                       2744 00403$:
    0000118D DD 71 F9         [19] 2745 	ld	-7 (ix), c
                                   2746 ;E:\Dropbox\FAUSTO\SVILUPPI\MSX\CODE\C\MSXgl\projects\soccerlgMSX2/soccerlg_s9_b3.c:338: c_dy = (g_last_dy[i] > 0) ? 1 : ((g_last_dy[i] < 0) ? -1 : 0);
    00001190 3Er00            [ 7] 2747 	ld	a, #<(_g_last_dy)
    00001192 DD 86 FF         [19] 2748 	add	a, -1 (ix)
    00001195 6F               [ 4] 2749 	ld	l, a
                                   2750 ;	spillPairReg hl
                                   2751 ;	spillPairReg hl
    00001196 3Es00            [ 7] 2752 	ld	a, #>(_g_last_dy)
    00001198 CE 00            [ 7] 2753 	adc	a, #0x00
    0000119A 67               [ 4] 2754 	ld	h, a
    0000119B 4E               [ 7] 2755 	ld	c, (hl)
    0000119C AF               [ 4] 2756 	xor	a, a
    0000119D 91               [ 4] 2757 	sub	a, c
    0000119E E2rA3r11         [10] 2758 	jp	PO, 01155$
    000011A1 EE 80            [ 7] 2759 	xor	a, #0x80
    000011A3                       2760 01155$:
    000011A3 F2rACr11         [10] 2761 	jp	P, 00406$
    000011A6 01 01 00         [10] 2762 	ld	bc, #0x0001
    000011A9 C3rB9r11         [10] 2763 	jp	00407$
    000011AC                       2764 00406$:
    000011AC CB 79            [ 8] 2765 	bit	7, c
    000011AE 28 06            [12] 2766 	jr	Z, 00408$
    000011B0 01 FF FF         [10] 2767 	ld	bc, #0xffff
    000011B3 C3rB9r11         [10] 2768 	jp	00409$
    000011B6                       2769 00408$:
    000011B6 01 00 00         [10] 2770 	ld	bc, #0x0000
    000011B9                       2771 00409$:
    000011B9                       2772 00407$:
    000011B9 DD 71 FA         [19] 2773 	ld	-6 (ix), c
    000011BC                       2774 00261$:
                                   2775 ;E:\Dropbox\FAUSTO\SVILUPPI\MSX\CODE\C\MSXgl\projects\soccerlgMSX2/soccerlg_s9_b3.c:340: receivers[i] = (u8)CallFnc_U16_P4B(SEG_LOGIC, FindReceiver, carrier, 0xFF, c_dx, c_dy);
    000011BC DD 5E FF         [19] 2776 	ld	e, -1 (ix)
    000011BF 16 00            [ 7] 2777 	ld	d, #0x00
    000011C1 21 02 00         [10] 2778 	ld	hl, #2
    000011C4 39               [11] 2779 	add	hl, sp
    000011C5 19               [11] 2780 	add	hl, de
    000011C6 E5               [11] 2781 	push	hl
    000011C7 DD 7E FA         [19] 2782 	ld	a, -6 (ix)
    000011CA F5               [11] 2783 	push	af
    000011CB 33               [ 6] 2784 	inc	sp
    000011CC DD 66 F9         [19] 2785 	ld	h, -7 (ix)
    000011CF 2E FF            [ 7] 2786 	ld	l, #0xff
    000011D1 E5               [11] 2787 	push	hl
    000011D2 DD 7E EA         [19] 2788 	ld	a, -22 (ix)
    000011D5 F5               [11] 2789 	push	af
    000011D6 33               [ 6] 2790 	inc	sp
    000011D7 11r00r00         [10] 2791 	ld	de, #_FindReceiver
    000011DA 3E 06            [ 7] 2792 	ld	a, #0x06
    000011DC CDr00r00         [17] 2793 	call	_CallFnc_U16_P4B
    000011DF C1               [10] 2794 	pop	bc
    000011E0 7B               [ 4] 2795 	ld	a, e
    000011E1 02               [ 7] 2796 	ld	(bc), a
                                   2797 ;E:\Dropbox\FAUSTO\SVILUPPI\MSX\CODE\C\MSXgl\projects\soccerlgMSX2/soccerlg_s9_b3.c:343: if (triggers[i]) {
    000011E2 DD 5E FF         [19] 2798 	ld	e, -1 (ix)
    000011E5 16 00            [ 7] 2799 	ld	d, #0x00
    000011E7 21 06 00         [10] 2800 	ld	hl, #6
    000011EA 39               [11] 2801 	add	hl, sp
    000011EB 19               [11] 2802 	add	hl, de
    000011EC 7E               [ 7] 2803 	ld	a, (hl)
    000011ED B7               [ 4] 2804 	or	a, a
    000011EE CArFBr12         [10] 2805 	jp	Z, 00300$
                                   2806 ;E:\Dropbox\FAUSTO\SVILUPPI\MSX\CODE\C\MSXgl\projects\soccerlgMSX2/soccerlg_s9_b3.c:345: u8 receiver = receivers[i];
    000011F1 0A               [ 7] 2807 	ld	a, (bc)
                                   2808 ;E:\Dropbox\FAUSTO\SVILUPPI\MSX\CODE\C\MSXgl\projects\soccerlgMSX2/soccerlg_s9_b3.c:347: if (receiver != 0xFF) {
    000011F2 5F               [ 4] 2809 	ld	e, a
    000011F3 3C               [ 4] 2810 	inc	a
    000011F4 CArA8r14         [10] 2811 	jp	Z,00306$
                                   2812 ;E:\Dropbox\FAUSTO\SVILUPPI\MSX\CODE\C\MSXgl\projects\soccerlgMSX2/soccerlg_s9_b3.c:350: Ball->anim = 0;
    000011F7 21 00 00         [10] 2813 	ld	hl, #0x0000
    000011FA 22r55r01         [16] 2814 	ld	((_SwSprite + 341)), hl
                                   2815 ;E:\Dropbox\FAUSTO\SVILUPPI\MSX\CODE\C\MSXgl\projects\soccerlgMSX2/soccerlg_s9_b3.c:351: Ball->count = 0;
    000011FD 22r57r01         [16] 2816 	ld	((_SwSprite + 343)), hl
                                   2817 ;E:\Dropbox\FAUSTO\SVILUPPI\MSX\CODE\C\MSXgl\projects\soccerlgMSX2/soccerlg_s9_b3.c:353: g_pass_receiver = receiver;
    00001200 21r00r00         [10] 2818 	ld	hl, #_g_pass_receiver
    00001203 73               [ 7] 2819 	ld	(hl), e
                                   2820 ;E:\Dropbox\FAUSTO\SVILUPPI\MSX\CODE\C\MSXgl\projects\soccerlgMSX2/soccerlg_s9_b3.c:354: g_pass_start_x = Carrier->lx;
    00001204 DD 6E EB         [19] 2821 	ld	l, -21 (ix)
    00001207 DD 66 EC         [19] 2822 	ld	h, -20 (ix)
    0000120A 7E               [ 7] 2823 	ld	a, (hl)
    0000120B 32r00r00         [13] 2824 	ld	(_g_pass_start_x+0), a
    0000120E AF               [ 4] 2825 	xor	a, a
    0000120F 32r01r00         [13] 2826 	ld	(_g_pass_start_x+1), a
                                   2827 ;E:\Dropbox\FAUSTO\SVILUPPI\MSX\CODE\C\MSXgl\projects\soccerlgMSX2/soccerlg_s9_b3.c:355: g_pass_start_y = Carrier->ly;
    00001212 DD 6E F1         [19] 2828 	ld	l, -15 (ix)
    00001215 DD 66 F2         [19] 2829 	ld	h, -14 (ix)
    00001218 7E               [ 7] 2830 	ld	a, (hl)
    00001219 23               [ 6] 2831 	inc	hl
    0000121A 32r00r00         [13] 2832 	ld	(_g_pass_start_y+0), a
    0000121D 7E               [ 7] 2833 	ld	a, (hl)
    0000121E 32r01r00         [13] 2834 	ld	(_g_pass_start_y+1), a
                                   2835 ;E:\Dropbox\FAUSTO\SVILUPPI\MSX\CODE\C\MSXgl\projects\soccerlgMSX2/soccerlg_s9_b3.c:356: g_pass_target_x = SwSprite[receiver].lx;
    00001221 16 00            [ 7] 2836 	ld	d, #0x00
    00001223 6B               [ 4] 2837 	ld	l, e
    00001224 62               [ 4] 2838 	ld	h, d
    00001225 29               [11] 2839 	add	hl, hl
    00001226 29               [11] 2840 	add	hl, hl
    00001227 19               [11] 2841 	add	hl, de
    00001228 29               [11] 2842 	add	hl, hl
    00001229 19               [11] 2843 	add	hl, de
    0000122A 29               [11] 2844 	add	hl, hl
    0000122B 19               [11] 2845 	add	hl, de
    0000122C EB               [ 4] 2846 	ex	de, hl
    0000122D 21r00r00         [10] 2847 	ld	hl, #_SwSprite
    00001230 19               [11] 2848 	add	hl, de
    00001231 EB               [ 4] 2849 	ex	de, hl
    00001232 1A               [ 7] 2850 	ld	a, (de)
    00001233 32r00r00         [13] 2851 	ld	(_g_pass_target_x+0), a
    00001236 AF               [ 4] 2852 	xor	a, a
    00001237 32r01r00         [13] 2853 	ld	(_g_pass_target_x+1), a
                                   2854 ;E:\Dropbox\FAUSTO\SVILUPPI\MSX\CODE\C\MSXgl\projects\soccerlgMSX2/soccerlg_s9_b3.c:357: g_pass_target_y = SwSprite[receiver].ly;
    0000123A 21 04 00         [10] 2855 	ld	hl, #4
    0000123D 19               [11] 2856 	add	hl, de
    0000123E 7E               [ 7] 2857 	ld	a, (hl)
    0000123F 23               [ 6] 2858 	inc	hl
    00001240 32r00r00         [13] 2859 	ld	(_g_pass_target_y+0), a
    00001243 7E               [ 7] 2860 	ld	a, (hl)
    00001244 32r01r00         [13] 2861 	ld	(_g_pass_target_y+1), a
                                   2862 ;E:\Dropbox\FAUSTO\SVILUPPI\MSX\CODE\C\MSXgl\projects\soccerlgMSX2/soccerlg_s9_b3.c:359: u16 r_dx = (g_pass_target_x > g_pass_start_x) ? (g_pass_target_x - g_pass_start_x) : (g_pass_start_x - g_pass_target_x);
    00001247 21r00r00         [10] 2863 	ld	hl, #_g_pass_start_x
    0000124A 7E               [ 7] 2864 	ld	a, (hl)
    0000124B FD 21r00r00      [14] 2865 	ld	iy, #_g_pass_target_x
    0000124F FD 96 00         [19] 2866 	sub	a, 0 (iy)
    00001252 23               [ 6] 2867 	inc	hl
    00001253 7E               [ 7] 2868 	ld	a, (hl)
    00001254 FD 9E 01         [19] 2869 	sbc	a, 1 (iy)
    00001257 30 0D            [12] 2870 	jr	NC, 00410$
    00001259 ED 4Br00r00      [20] 2871 	ld	bc, (_g_pass_start_x)
    0000125D 2Ar00r00         [16] 2872 	ld	hl, (_g_pass_target_x)
    00001260 BF               [ 4] 2873 	cp	a, a
    00001261 ED 42            [15] 2874 	sbc	hl, bc
    00001263 C3r70r12         [10] 2875 	jp	00411$
    00001266                       2876 00410$:
    00001266 ED 4Br00r00      [20] 2877 	ld	bc, (_g_pass_target_x)
    0000126A 2Ar00r00         [16] 2878 	ld	hl, (_g_pass_start_x)
    0000126D BF               [ 4] 2879 	cp	a, a
    0000126E ED 42            [15] 2880 	sbc	hl, bc
    00001270                       2881 00411$:
    00001270 4D               [ 4] 2882 	ld	c, l
    00001271 44               [ 4] 2883 	ld	b, h
                                   2884 ;E:\Dropbox\FAUSTO\SVILUPPI\MSX\CODE\C\MSXgl\projects\soccerlgMSX2/soccerlg_s9_b3.c:360: u16 r_dy = (g_pass_target_y > g_pass_start_y) ? (g_pass_target_y - g_pass_start_y) : (g_pass_start_y - g_pass_target_y);
    00001272 21r00r00         [10] 2885 	ld	hl, #_g_pass_start_y
    00001275 7E               [ 7] 2886 	ld	a, (hl)
    00001276 FD 21r00r00      [14] 2887 	ld	iy, #_g_pass_target_y
    0000127A FD 96 00         [19] 2888 	sub	a, 0 (iy)
    0000127D 23               [ 6] 2889 	inc	hl
    0000127E 7E               [ 7] 2890 	ld	a, (hl)
    0000127F FD 9E 01         [19] 2891 	sbc	a, 1 (iy)
    00001282 30 0D            [12] 2892 	jr	NC, 00412$
    00001284 ED 5Br00r00      [20] 2893 	ld	de, (_g_pass_start_y)
    00001288 2Ar00r00         [16] 2894 	ld	hl, (_g_pass_target_y)
    0000128B BF               [ 4] 2895 	cp	a, a
    0000128C ED 52            [15] 2896 	sbc	hl, de
    0000128E C3r9Br12         [10] 2897 	jp	00413$
    00001291                       2898 00412$:
    00001291 ED 5Br00r00      [20] 2899 	ld	de, (_g_pass_target_y)
    00001295 2Ar00r00         [16] 2900 	ld	hl, (_g_pass_start_y)
    00001298 BF               [ 4] 2901 	cp	a, a
    00001299 ED 52            [15] 2902 	sbc	hl, de
    0000129B                       2903 00413$:
                                   2904 ;E:\Dropbox\FAUSTO\SVILUPPI\MSX\CODE\C\MSXgl\projects\soccerlgMSX2/soccerlg_s9_b3.c:361: g_pass_max_frames = (r_dx + r_dy) / 4; 
    0000129B 09               [11] 2905 	add	hl, bc
    0000129C CB 3C            [ 8] 2906 	srl	h
    0000129E CB 1D            [ 8] 2907 	rr	l
    000012A0 CB 3C            [ 8] 2908 	srl	h
    000012A2 CB 1D            [ 8] 2909 	rr	l
    000012A4 FD 21r00r00      [14] 2910 	ld	iy, #_g_pass_max_frames
    000012A8 FD 75 00         [19] 2911 	ld	0 (iy), l
                                   2912 ;E:\Dropbox\FAUSTO\SVILUPPI\MSX\CODE\C\MSXgl\projects\soccerlgMSX2/soccerlg_s9_b3.c:362: if (g_pass_max_frames < 10) g_pass_max_frames = 10;
    000012AB 3Ar00r00         [13] 2913 	ld	a, (_g_pass_max_frames+0)
    000012AE D6 0A            [ 7] 2914 	sub	a, #0x0a
    000012B0 30 04            [12] 2915 	jr	NC, 00264$
    000012B2 FD 36 00 0A      [19] 2916 	ld	0 (iy), #0x0a
    000012B6                       2917 00264$:
                                   2918 ;E:\Dropbox\FAUSTO\SVILUPPI\MSX\CODE\C\MSXgl\projects\soccerlgMSX2/soccerlg_s9_b3.c:363: if (g_pass_max_frames > 40) g_pass_max_frames = 40;
    000012B6 3E 28            [ 7] 2919 	ld	a, #0x28
    000012B8 FD 21r00r00      [14] 2920 	ld	iy, #_g_pass_max_frames
    000012BC FD 96 00         [19] 2921 	sub	a, 0 (iy)
    000012BF 30 04            [12] 2922 	jr	NC, 00266$
    000012C1 FD 36 00 28      [19] 2923 	ld	0 (iy), #0x28
    000012C5                       2924 00266$:
                                   2925 ;E:\Dropbox\FAUSTO\SVILUPPI\MSX\CODE\C\MSXgl\projects\soccerlgMSX2/soccerlg_s9_b3.c:364: g_pass_max_height = 7; // Passaggio normale alto
    000012C5 21r00r00         [10] 2926 	ld	hl, #_g_pass_max_height
    000012C8 36 07            [10] 2927 	ld	(hl), #0x07
                                   2928 ;E:\Dropbox\FAUSTO\SVILUPPI\MSX\CODE\C\MSXgl\projects\soccerlgMSX2/soccerlg_s9_b3.c:366: Ball->lx = g_pass_start_x;
    000012CA 3Ar00r00         [13] 2929 	ld	a, (_g_pass_start_x+0)
    000012CD 32r42r01         [13] 2930 	ld	(#(_SwSprite + 322)),a
                                   2931 ;E:\Dropbox\FAUSTO\SVILUPPI\MSX\CODE\C\MSXgl\projects\soccerlgMSX2/soccerlg_s9_b3.c:367: Ball->ly = g_pass_start_y;
    000012D0 21r46r01         [10] 2932 	ld	hl, #(_SwSprite + 326)
    000012D3 3Ar00r00         [13] 2933 	ld	a, (_g_pass_start_y+0)
    000012D6 77               [ 7] 2934 	ld	(hl), a
    000012D7 23               [ 6] 2935 	inc	hl
    000012D8 3Ar01r00         [13] 2936 	ld	a, (_g_pass_start_y+1)
    000012DB 77               [ 7] 2937 	ld	(hl), a
                                   2938 ;E:\Dropbox\FAUSTO\SVILUPPI\MSX\CODE\C\MSXgl\projects\soccerlgMSX2/soccerlg_s9_b3.c:368: Ball->anim = 5; // Flag per passaggio
    000012DC 21 05 00         [10] 2939 	ld	hl, #0x0005
    000012DF 22r55r01         [16] 2940 	ld	((_SwSprite + 341)), hl
                                   2941 ;E:\Dropbox\FAUSTO\SVILUPPI\MSX\CODE\C\MSXgl\projects\soccerlgMSX2/soccerlg_s9_b3.c:369: Ball->count = 0; // Inizio dell'interpolazione
    000012E2 6C               [ 4] 2942 	ld	l, h
    000012E3 22r57r01         [16] 2943 	ld	((_SwSprite + 343)), hl
                                   2944 ;E:\Dropbox\FAUSTO\SVILUPPI\MSX\CODE\C\MSXgl\projects\soccerlgMSX2/soccerlg_s9_b3.c:370: Ball->dx = Ball->dy = 0; // Non usato nel passaggio, ma azzera lo stato
    000012E6 21r54r01         [10] 2945 	ld	hl, #(_SwSprite + 340)
    000012E9 36 00            [10] 2946 	ld	(hl), #0x00
    000012EB 21r53r01         [10] 2947 	ld	hl, #(_SwSprite + 339)
    000012EE 36 00            [10] 2948 	ld	(hl), #0x00
                                   2949 ;E:\Dropbox\FAUSTO\SVILUPPI\MSX\CODE\C\MSXgl\projects\soccerlgMSX2/soccerlg_s9_b3.c:371: CallFnc_VOID(SEG_EVENTS, EventBallKicked);
    000012F0 11r00r00         [10] 2950 	ld	de, #_EventBallKicked
    000012F3 3E 08            [ 7] 2951 	ld	a, #0x08
    000012F5 CDr00r00         [17] 2952 	call	_CallFnc_VOID
    000012F8 C3rA8r14         [10] 2953 	jp	00306$
    000012FB                       2954 00300$:
                                   2955 ;E:\Dropbox\FAUSTO\SVILUPPI\MSX\CODE\C\MSXgl\projects\soccerlgMSX2/soccerlg_s9_b3.c:189: if (Ball->anim > 0) {
    000012FB 21r55r01         [10] 2956 	ld	hl, #(_SwSprite + 341)
    000012FE 7E               [ 7] 2957 	ld	a, (hl)
    000012FF DD 77 F7         [19] 2958 	ld	-9 (ix), a
    00001302 23               [ 6] 2959 	inc	hl
    00001303 7E               [ 7] 2960 	ld	a, (hl)
                                   2961 ;E:\Dropbox\FAUSTO\SVILUPPI\MSX\CODE\C\MSXgl\projects\soccerlgMSX2/soccerlg_s9_b3.c:373: } else if (Ball->anim == 0 && (Ball->dx != c_dx || Ball->dy != c_dy)) {
    00001304 DD 77 F8         [19] 2962 	ld	-8 (ix), a
    00001307 DD B6 F7         [19] 2963 	or	a, -9 (ix)
    0000130A C2rD5r13         [10] 2964 	jp	NZ, 00295$
    0000130D 21r53r01         [10] 2965 	ld	hl, #(_SwSprite + 339)
    00001310 4E               [ 7] 2966 	ld	c, (hl)
    00001311 DD 7E F9         [19] 2967 	ld	a, -7 (ix)
    00001314 91               [ 4] 2968 	sub	a, c
    00001315 20 0B            [12] 2969 	jr	NZ, 00294$
    00001317 21r54r01         [10] 2970 	ld	hl, #(_SwSprite + 340)
    0000131A 4E               [ 7] 2971 	ld	c, (hl)
    0000131B DD 7E FA         [19] 2972 	ld	a, -6 (ix)
    0000131E 91               [ 4] 2973 	sub	a, c
    0000131F CArD5r13         [10] 2974 	jp	Z,00295$
    00001322                       2975 00294$:
                                   2976 ;E:\Dropbox\FAUSTO\SVILUPPI\MSX\CODE\C\MSXgl\projects\soccerlgMSX2/soccerlg_s9_b3.c:375: i8 off_x = 0; i8 off_y = 6;
    00001322 DD 36 F7 00      [19] 2977 	ld	-9 (ix), #0x00
    00001326 DD 36 F8 06      [19] 2978 	ld	-8 (ix), #0x06
                                   2979 ;E:\Dropbox\FAUSTO\SVILUPPI\MSX\CODE\C\MSXgl\projects\soccerlgMSX2/soccerlg_s9_b3.c:376: if (c_dx > 0) off_x = 9; else if (c_dx < 0) off_x = -9;
    0000132A AF               [ 4] 2980 	xor	a, a
    0000132B DD 96 F9         [19] 2981 	sub	a, -7 (ix)
    0000132E E2r33r13         [10] 2982 	jp	PO, 01160$
    00001331 EE 80            [ 7] 2983 	xor	a, #0x80
    00001333                       2984 01160$:
    00001333 F2r3Dr13         [10] 2985 	jp	P, 00272$
    00001336 DD 36 F7 09      [19] 2986 	ld	-9 (ix), #0x09
    0000133A C3r47r13         [10] 2987 	jp	00273$
    0000133D                       2988 00272$:
    0000133D DD CB F9 7E      [20] 2989 	bit	7, -7 (ix)
    00001341 28 04            [12] 2990 	jr	Z, 00273$
    00001343 DD 36 F7 F7      [19] 2991 	ld	-9 (ix), #0xf7
    00001347                       2992 00273$:
                                   2993 ;E:\Dropbox\FAUSTO\SVILUPPI\MSX\CODE\C\MSXgl\projects\soccerlgMSX2/soccerlg_s9_b3.c:377: if (c_dy > 0) off_y = 8; else if (c_dy < 0) off_y = -3;
    00001347 AF               [ 4] 2994 	xor	a, a
    00001348 DD 96 FA         [19] 2995 	sub	a, -6 (ix)
    0000134B E2r50r13         [10] 2996 	jp	PO, 01161$
    0000134E EE 80            [ 7] 2997 	xor	a, #0x80
    00001350                       2998 01161$:
    00001350 F2r5Ar13         [10] 2999 	jp	P, 00277$
    00001353 DD 36 F8 08      [19] 3000 	ld	-8 (ix), #0x08
    00001357 C3r64r13         [10] 3001 	jp	00278$
    0000135A                       3002 00277$:
    0000135A DD CB FA 7E      [20] 3003 	bit	7, -6 (ix)
    0000135E 28 04            [12] 3004 	jr	Z, 00278$
    00001360 DD 36 F8 FD      [19] 3005 	ld	-8 (ix), #0xfd
    00001364                       3006 00278$:
                                   3007 ;E:\Dropbox\FAUSTO\SVILUPPI\MSX\CODE\C\MSXgl\projects\soccerlgMSX2/soccerlg_s9_b3.c:379: Ball->dx = c_dx;
    00001364 21r53r01         [10] 3008 	ld	hl, #(_SwSprite + 339)
    00001367 DD 7E F9         [19] 3009 	ld	a, -7 (ix)
    0000136A 77               [ 7] 3010 	ld	(hl), a
                                   3011 ;E:\Dropbox\FAUSTO\SVILUPPI\MSX\CODE\C\MSXgl\projects\soccerlgMSX2/soccerlg_s9_b3.c:380: Ball->dy = c_dy;
    0000136B 21r54r01         [10] 3012 	ld	hl, #(_SwSprite + 340)
    0000136E DD 7E FA         [19] 3013 	ld	a, -6 (ix)
    00001371 77               [ 7] 3014 	ld	(hl), a
                                   3015 ;E:\Dropbox\FAUSTO\SVILUPPI\MSX\CODE\C\MSXgl\projects\soccerlgMSX2/soccerlg_s9_b3.c:381: Ball->lx = (u8)(Carrier->lx + off_x);
    00001372 DD 6E EB         [19] 3016 	ld	l, -21 (ix)
    00001375 DD 66 EC         [19] 3017 	ld	h, -20 (ix)
    00001378 7E               [ 7] 3018 	ld	a, (hl)
    00001379 DD 77 FA         [19] 3019 	ld	-6 (ix), a
    0000137C DD 7E F7         [19] 3020 	ld	a, -9 (ix)
    0000137F DD 86 FA         [19] 3021 	add	a, -6 (ix)
    00001382 DD 77 FA         [19] 3022 	ld	-6 (ix), a
    00001385 21r42r01         [10] 3023 	ld	hl, #(_SwSprite + 322)
    00001388 DD 7E FA         [19] 3024 	ld	a, -6 (ix)
    0000138B 77               [ 7] 3025 	ld	(hl), a
                                   3026 ;E:\Dropbox\FAUSTO\SVILUPPI\MSX\CODE\C\MSXgl\projects\soccerlgMSX2/soccerlg_s9_b3.c:382: Ball->ly = (Carrier->ly + off_y) & 511;
    0000138C DD 6E F1         [19] 3027 	ld	l, -15 (ix)
    0000138F DD 66 F2         [19] 3028 	ld	h, -14 (ix)
    00001392 7E               [ 7] 3029 	ld	a, (hl)
    00001393 DD 77 F9         [19] 3030 	ld	-7 (ix), a
    00001396 23               [ 6] 3031 	inc	hl
    00001397 7E               [ 7] 3032 	ld	a, (hl)
    00001398 DD 77 FA         [19] 3033 	ld	-6 (ix), a
    0000139B DD 7E F8         [19] 3034 	ld	a, -8 (ix)
    0000139E DD 77 F7         [19] 3035 	ld	-9 (ix), a
    000013A1 07               [ 4] 3036 	rlca
    000013A2 9F               [ 4] 3037 	sbc	a, a
    000013A3 DD 77 F8         [19] 3038 	ld	-8 (ix), a
    000013A6 DD 7E F7         [19] 3039 	ld	a, -9 (ix)
    000013A9 DD 86 F9         [19] 3040 	add	a, -7 (ix)
    000013AC DD 77 F5         [19] 3041 	ld	-11 (ix), a
    000013AF DD 7E F8         [19] 3042 	ld	a, -8 (ix)
    000013B2 DD 8E FA         [19] 3043 	adc	a, -6 (ix)
    000013B5 DD 77 F6         [19] 3044 	ld	-10 (ix), a
    000013B8 DD 7E F5         [19] 3045 	ld	a, -11 (ix)
    000013BB DD 77 F9         [19] 3046 	ld	-7 (ix), a
    000013BE DD 7E F6         [19] 3047 	ld	a, -10 (ix)
    000013C1 E6 01            [ 7] 3048 	and	a, #0x01
    000013C3 DD 77 FA         [19] 3049 	ld	-6 (ix), a
    000013C6 21r46r01         [10] 3050 	ld	hl, #(_SwSprite + 326)
    000013C9 DD 7E F9         [19] 3051 	ld	a, -7 (ix)
    000013CC 77               [ 7] 3052 	ld	(hl), a
    000013CD 23               [ 6] 3053 	inc	hl
    000013CE DD 7E FA         [19] 3054 	ld	a, -6 (ix)
    000013D1 77               [ 7] 3055 	ld	(hl), a
    000013D2 C3rA8r14         [10] 3056 	jp	00306$
    000013D5                       3057 00295$:
                                   3058 ;E:\Dropbox\FAUSTO\SVILUPPI\MSX\CODE\C\MSXgl\projects\soccerlgMSX2/soccerlg_s9_b3.c:383: } else if (Ball->anim == 0) {
    000013D5 DD 7E F8         [19] 3059 	ld	a, -8 (ix)
    000013D8 DD B6 F7         [19] 3060 	or	a, -9 (ix)
    000013DB C2rA8r14         [10] 3061 	jp	NZ, 00306$
                                   3062 ;E:\Dropbox\FAUSTO\SVILUPPI\MSX\CODE\C\MSXgl\projects\soccerlgMSX2/soccerlg_s9_b3.c:385: i8 off_x = 0; i8 off_y = 6;
    000013DE DD 36 F7 00      [19] 3063 	ld	-9 (ix), #0x00
    000013E2 DD 36 F8 06      [19] 3064 	ld	-8 (ix), #0x06
                                   3065 ;E:\Dropbox\FAUSTO\SVILUPPI\MSX\CODE\C\MSXgl\projects\soccerlgMSX2/soccerlg_s9_b3.c:386: if (c_dx > 0) off_x = 9; else if (c_dx < 0) off_x = -9;
    000013E6 AF               [ 4] 3066 	xor	a, a
    000013E7 DD 96 F9         [19] 3067 	sub	a, -7 (ix)
    000013EA E2rEFr13         [10] 3068 	jp	PO, 01162$
    000013ED EE 80            [ 7] 3069 	xor	a, #0x80
    000013EF                       3070 01162$:
    000013EF F2rF9r13         [10] 3071 	jp	P, 00282$
    000013F2 DD 36 F7 09      [19] 3072 	ld	-9 (ix), #0x09
    000013F6 C3r03r14         [10] 3073 	jp	00283$
    000013F9                       3074 00282$:
    000013F9 DD CB F9 7E      [20] 3075 	bit	7, -7 (ix)
    000013FD 28 04            [12] 3076 	jr	Z, 00283$
    000013FF DD 36 F7 F7      [19] 3077 	ld	-9 (ix), #0xf7
    00001403                       3078 00283$:
                                   3079 ;E:\Dropbox\FAUSTO\SVILUPPI\MSX\CODE\C\MSXgl\projects\soccerlgMSX2/soccerlg_s9_b3.c:387: if (c_dy > 0) off_y = 8; else if (c_dy < 0) off_y = -3;
    00001403 AF               [ 4] 3080 	xor	a, a
    00001404 DD 96 FA         [19] 3081 	sub	a, -6 (ix)
    00001407 E2r0Cr14         [10] 3082 	jp	PO, 01163$
    0000140A EE 80            [ 7] 3083 	xor	a, #0x80
    0000140C                       3084 01163$:
    0000140C F2r16r14         [10] 3085 	jp	P, 00287$
    0000140F DD 36 F8 08      [19] 3086 	ld	-8 (ix), #0x08
    00001413 C3r20r14         [10] 3087 	jp	00288$
    00001416                       3088 00287$:
    00001416 DD CB FA 7E      [20] 3089 	bit	7, -6 (ix)
    0000141A 28 04            [12] 3090 	jr	Z, 00288$
    0000141C DD 36 F8 FD      [19] 3091 	ld	-8 (ix), #0xfd
    00001420                       3092 00288$:
                                   3093 ;E:\Dropbox\FAUSTO\SVILUPPI\MSX\CODE\C\MSXgl\projects\soccerlgMSX2/soccerlg_s9_b3.c:389: Ball->lx = (u8)(Carrier->lx + off_x);
    00001420 DD 6E EB         [19] 3094 	ld	l, -21 (ix)
    00001423 DD 66 EC         [19] 3095 	ld	h, -20 (ix)
    00001426 7E               [ 7] 3096 	ld	a, (hl)
    00001427 DD 77 FA         [19] 3097 	ld	-6 (ix), a
    0000142A DD 7E F7         [19] 3098 	ld	a, -9 (ix)
    0000142D DD 86 FA         [19] 3099 	add	a, -6 (ix)
    00001430 DD 77 FA         [19] 3100 	ld	-6 (ix), a
    00001433 21r42r01         [10] 3101 	ld	hl, #(_SwSprite + 322)
    00001436 DD 7E FA         [19] 3102 	ld	a, -6 (ix)
    00001439 77               [ 7] 3103 	ld	(hl), a
                                   3104 ;E:\Dropbox\FAUSTO\SVILUPPI\MSX\CODE\C\MSXgl\projects\soccerlgMSX2/soccerlg_s9_b3.c:390: Ball->ly = (Carrier->ly + off_y) & 511;
    0000143A DD 6E F1         [19] 3105 	ld	l, -15 (ix)
    0000143D DD 66 F2         [19] 3106 	ld	h, -14 (ix)
    00001440 7E               [ 7] 3107 	ld	a, (hl)
    00001441 DD 77 F9         [19] 3108 	ld	-7 (ix), a
    00001444 23               [ 6] 3109 	inc	hl
    00001445 7E               [ 7] 3110 	ld	a, (hl)
    00001446 DD 77 FA         [19] 3111 	ld	-6 (ix), a
    00001449 DD 7E F8         [19] 3112 	ld	a, -8 (ix)
    0000144C DD 77 F7         [19] 3113 	ld	-9 (ix), a
    0000144F 07               [ 4] 3114 	rlca
    00001450 9F               [ 4] 3115 	sbc	a, a
    00001451 DD 77 F8         [19] 3116 	ld	-8 (ix), a
    00001454 DD 7E F7         [19] 3117 	ld	a, -9 (ix)
    00001457 DD 86 F9         [19] 3118 	add	a, -7 (ix)
    0000145A DD 77 F5         [19] 3119 	ld	-11 (ix), a
    0000145D DD 7E F8         [19] 3120 	ld	a, -8 (ix)
    00001460 DD 8E FA         [19] 3121 	adc	a, -6 (ix)
    00001463 DD 77 F6         [19] 3122 	ld	-10 (ix), a
    00001466 DD 7E F5         [19] 3123 	ld	a, -11 (ix)
    00001469 DD 77 F9         [19] 3124 	ld	-7 (ix), a
    0000146C DD 7E F6         [19] 3125 	ld	a, -10 (ix)
    0000146F E6 01            [ 7] 3126 	and	a, #0x01
    00001471 DD 77 FA         [19] 3127 	ld	-6 (ix), a
    00001474 21r46r01         [10] 3128 	ld	hl, #(_SwSprite + 326)
    00001477 DD 7E F9         [19] 3129 	ld	a, -7 (ix)
    0000147A 77               [ 7] 3130 	ld	(hl), a
    0000147B 23               [ 6] 3131 	inc	hl
    0000147C DD 7E FA         [19] 3132 	ld	a, -6 (ix)
    0000147F 77               [ 7] 3133 	ld	(hl), a
                                   3134 ;E:\Dropbox\FAUSTO\SVILUPPI\MSX\CODE\C\MSXgl\projects\soccerlgMSX2/soccerlg_s9_b3.c:392: if (Carrier->dx != 0 || Carrier->dy != 0) {
    00001480 DD 6E ED         [19] 3135 	ld	l, -19 (ix)
    00001483 DD 66 EE         [19] 3136 	ld	h, -18 (ix)
    00001486 7E               [ 7] 3137 	ld	a, (hl)
    00001487 DD 77 FA         [19] 3138 	ld	-6 (ix), a
    0000148A B7               [ 4] 3139 	or	a, a
    0000148B 20 0D            [12] 3140 	jr	NZ, 00289$
    0000148D DD 6E EF         [19] 3141 	ld	l, -17 (ix)
    00001490 DD 66 F0         [19] 3142 	ld	h, -16 (ix)
    00001493 7E               [ 7] 3143 	ld	a, (hl)
    00001494 DD 77 FA         [19] 3144 	ld	-6 (ix), a
    00001497 B7               [ 4] 3145 	or	a, a
    00001498 28 0E            [12] 3146 	jr	Z, 00306$
    0000149A                       3147 00289$:
                                   3148 ;E:\Dropbox\FAUSTO\SVILUPPI\MSX\CODE\C\MSXgl\projects\soccerlgMSX2/soccerlg_s9_b3.c:393: Ball->anim = 3; // Colpetto in avanti medio-corto
    0000149A 21 03 00         [10] 3149 	ld	hl, #0x0003
    0000149D 22r55r01         [16] 3150 	ld	((_SwSprite + 341)), hl
                                   3151 ;E:\Dropbox\FAUSTO\SVILUPPI\MSX\CODE\C\MSXgl\projects\soccerlgMSX2/soccerlg_s9_b3.c:394: CallFnc_VOID(SEG_EVENTS, EventBallKicked);
    000014A0 11r00r00         [10] 3152 	ld	de, #_EventBallKicked
    000014A3 3E 08            [ 7] 3153 	ld	a, #0x08
    000014A5 CDr00r00         [17] 3154 	call	_CallFnc_VOID
    000014A8                       3155 00306$:
                                   3156 ;E:\Dropbox\FAUSTO\SVILUPPI\MSX\CODE\C\MSXgl\projects\soccerlgMSX2/soccerlg_s9_b3.c:256: for (u8 i = 0; i < 2; i++) {
    000014A8 DD 34 FF         [23] 3157 	inc	-1 (ix)
    000014AB C3rC3r0B         [10] 3158 	jp	00331$
    000014AE                       3159 00307$:
                                   3160 ;E:\Dropbox\FAUSTO\SVILUPPI\MSX\CODE\C\MSXgl\projects\soccerlgMSX2/soccerlg_s9_b3.c:401: for (u8 i = 0; i < 14; i++) {
    000014AE 06 00            [ 7] 3161 	ld	b, #0x00
    000014B0                       3162 00333$:
    000014B0 78               [ 4] 3163 	ld	a, b
    000014B1 D6 0E            [ 7] 3164 	sub	a, #0x0e
    000014B3 30 34            [12] 3165 	jr	NC, 00335$
                                   3166 ;E:\Dropbox\FAUSTO\SVILUPPI\MSX\CODE\C\MSXgl\projects\soccerlgMSX2/soccerlg_s9_b3.c:402: CallFnc_VOID_P1(SEG_LOGIC, PlayerAI, i);
    000014B5 C5               [11] 3167 	push	bc
    000014B6 C5               [11] 3168 	push	bc
    000014B7 33               [ 6] 3169 	inc	sp
    000014B8 11r00r00         [10] 3170 	ld	de, #_PlayerAI
    000014BB 3E 06            [ 7] 3171 	ld	a, #0x06
    000014BD CDr00r00         [17] 3172 	call	_CallFnc_VOID_P1
    000014C0 C1               [10] 3173 	pop	bc
                                   3174 ;E:\Dropbox\FAUSTO\SVILUPPI\MSX\CODE\C\MSXgl\projects\soccerlgMSX2/soccerlg_s9_b3.c:401: for (u8 i = 0; i < 14; i++) {
    000014C1 04               [ 4] 3175 	inc	b
    000014C2 C3rB0r14         [10] 3176 	jp	00333$
    000014C5                       3177 00310$:
                                   3178 ;E:\Dropbox\FAUSTO\SVILUPPI\MSX\CODE\C\MSXgl\projects\soccerlgMSX2/soccerlg_s9_b3.c:405: CallFnc_VOID_3PTR_U16(SEG_GAMESTATE_3, UpdateGameState_Restarts, game_state, wait_secs, start_sec, target_ly);
    000014C5 DD 6E 06         [19] 3179 	ld	l, 6 (ix)
                                   3180 ;	spillPairReg hl
                                   3181 ;	spillPairReg hl
    000014C8 DD 66 07         [19] 3182 	ld	h, 7 (ix)
                                   3183 ;	spillPairReg hl
                                   3184 ;	spillPairReg hl
    000014CB E5               [11] 3185 	push	hl
    000014CC DD 6E 04         [19] 3186 	ld	l, 4 (ix)
                                   3187 ;	spillPairReg hl
                                   3188 ;	spillPairReg hl
    000014CF DD 66 05         [19] 3189 	ld	h, 5 (ix)
                                   3190 ;	spillPairReg hl
                                   3191 ;	spillPairReg hl
    000014D2 E5               [11] 3192 	push	hl
    000014D3 DD 6E FB         [19] 3193 	ld	l, -5 (ix)
                                   3194 ;	spillPairReg hl
                                   3195 ;	spillPairReg hl
    000014D6 DD 66 FC         [19] 3196 	ld	h, -4 (ix)
                                   3197 ;	spillPairReg hl
                                   3198 ;	spillPairReg hl
    000014D9 E5               [11] 3199 	push	hl
    000014DA DD 6E FD         [19] 3200 	ld	l, -3 (ix)
                                   3201 ;	spillPairReg hl
                                   3202 ;	spillPairReg hl
    000014DD DD 66 FE         [19] 3203 	ld	h, -2 (ix)
                                   3204 ;	spillPairReg hl
                                   3205 ;	spillPairReg hl
    000014E0 E5               [11] 3206 	push	hl
    000014E1 11r00r00         [10] 3207 	ld	de, #_UpdateGameState_Restarts
    000014E4 3E 0C            [ 7] 3208 	ld	a, #0x0c
    000014E6 CDr00r00         [17] 3209 	call	_CallFnc_VOID_3PTR_U16
    000014E9                       3210 00335$:
                                   3211 ;E:\Dropbox\FAUSTO\SVILUPPI\MSX\CODE\C\MSXgl\projects\soccerlgMSX2/soccerlg_s9_b3.c:407: }
    000014E9 DD F9            [10] 3212 	ld	sp, ix
    000014EB DD E1            [14] 3213 	pop	ix
    000014ED E1               [10] 3214 	pop	hl
    000014EE F1               [10] 3215 	pop	af
    000014EF F1               [10] 3216 	pop	af
    000014F0 E9               [ 4] 3217 	jp	(hl)
                         0000F380  3218 _g_RDPRIM	=	0xf380
                         0000F385  3219 _g_WRPRIM	=	0xf385
                         0000F38C  3220 _g_CLPRIM	=	0xf38c
                         0000F39A  3221 _g_USRTAB	=	0xf39a
                         0000F3DE  3222 _g_CNSDFG	=	0xf3de
                         0000F3DF  3223 _g_RG0SAV	=	0xf3df
                         0000F3E0  3224 _g_RG1SAV	=	0xf3e0
                         0000F3E1  3225 _g_RG2SAV	=	0xf3e1
                         0000F3E2  3226 _g_RG3SAV	=	0xf3e2
                         0000F3E3  3227 _g_RG4SAV	=	0xf3e3
                         0000F3E4  3228 _g_RG5SAV	=	0xf3e4
                         0000F3E5  3229 _g_RG6SAV	=	0xf3e5
                         0000F3E6  3230 _g_RG7SAV	=	0xf3e6
                         0000F3E7  3231 _g_STATFL	=	0xf3e7
                         0000F3E8  3232 _g_TRGFLG	=	0xf3e8
                         0000F3EC  3233 _g_MAXUPD	=	0xf3ec
                         0000F3EF  3234 _g_MINUPD	=	0xf3ef
                         0000F3F3  3235 _g_QUEUES	=	0xf3f3
                         0000F3F5  3236 _g_FRCNEW	=	0xf3f5
                         0000F3F6  3237 _g_SCNCNT	=	0xf3f6
                         0000F3F7  3238 _g_REPCNT	=	0xf3f7
                         0000F3F8  3239 _g_PUTPNT	=	0xf3f8
                         0000F3FA  3240 _g_GETPNT	=	0xf3fa
                         0000F3FC  3241 _g_CS120	=	0xf3fc
                         0000F401  3242 _g_CS240	=	0xf401
                         0000F406  3243 _g_LOW	=	0xf406
                         0000F408  3244 _g_HIGH	=	0xf408
                         0000F40A  3245 _g_HEADER	=	0xf40a
                         0000F40B  3246 _g_ASPCT1	=	0xf40b
                         0000F40D  3247 _g_ASPCT2	=	0xf40d
                         0000F959  3248 _g_QUETAB	=	0xf959
                         0000F971  3249 _g_QUEBAK	=	0xf971
                         0000F975  3250 _g_VOICAQ	=	0xf975
                         0000F9F5  3251 _g_VOICBQ	=	0xf9f5
                         0000FA75  3252 _g_VOICCQ	=	0xfa75
                         0000FAF5  3253 _g_RS2IQ	=	0xfaf5
                         0000FAF5  3254 _g_DPPAGE	=	0xfaf5
                         0000FAF6  3255 _g_ACPAGE	=	0xfaf6
                         0000FAF7  3256 _g_AVCSAV	=	0xfaf7
                         0000FAF8  3257 _g_EXBRSA	=	0xfaf8
                         0000FAF9  3258 _g_CHRCNT	=	0xfaf9
                         0000FAFA  3259 _g_ROMA	=	0xfafa
                         0000FAFC  3260 _g_MODE	=	0xfafc
                         0000FAFD  3261 _g_NORUSE	=	0xfafd
                         0000FAFE  3262 _g_XSAVE	=	0xfafe
                         0000FB00  3263 _g_YSAVE	=	0xfb00
                         0000FB03  3264 _g_RSTMP	=	0xfb03
                         0000FB03  3265 _g_TOCNT	=	0xfb03
                         0000FB04  3266 _g_RSFCB	=	0xfb04
                         0000FB06  3267 _g_RSIQLN	=	0xfb06
                         0000FB07  3268 _g_MEXBIh	=	0xfb07
                         0000FB0C  3269 _g_OLDSTT	=	0xfb0c
                         0000FB0C  3270 _g_OLDINT	=	0xfb0c
                         0000FB16  3271 _g_DEVNUM	=	0xfb16
                         0000FB17  3272 _g_DATCNT	=	0xfb17
                         0000FB1A  3273 _g_ERRORS	=	0xfb1a
                         0000FB1B  3274 _g_FLAGS	=	0xfb1b
                         0000FB1C  3275 _g_ESTBLS	=	0xfb1c
                         0000FB1D  3276 _g_COMMSK	=	0xfb1d
                         0000FB1E  3277 _g_LSTCOM	=	0xfb1e
                         0000FB1F  3278 _g_LSTMOD	=	0xfb1f
                         0000FB35  3279 _g_PRSCNT	=	0xfb35
                         0000FB36  3280 _g_SAVSP	=	0xfb36
                         0000FB38  3281 _g_VOICEN	=	0xfb38
                         0000FB39  3282 _g_SAVVOL	=	0xfb39
                         0000FB3B  3283 _g_MCLLEN	=	0xfb3b
                         0000FB3C  3284 _g_MCLPTR	=	0xfb3c
                         0000FB3E  3285 _g_QUEUEN	=	0xfb3e
                         0000FB3F  3286 _g_MUSICF	=	0xfb3f
                         0000FB40  3287 _g_PLYCNT	=	0xfb40
                         0000FB41  3288 _g_VCBA	=	0xfb41
                         0000FB66  3289 _g_VCBB	=	0xfb66
                         0000FB8B  3290 _g_VCBC	=	0xfb8b
                         0000FBB0  3291 _g_ENSTOP	=	0xfbb0
                         0000FBB1  3292 _g_BASROM	=	0xfbb1
                         0000FBB2  3293 _g_LINTTB	=	0xfbb2
                         0000FBCA  3294 _g_FSTPOS	=	0xfbca
                         0000FBCC  3295 _g_CODSAV	=	0xfbcc
                         0000FBCD  3296 _g_FNKSWI	=	0xfbcd
                         0000FBCE  3297 _g_FNKFLG	=	0xfbce
                         0000FBD8  3298 _g_ONGSBF	=	0xfbd8
                         0000FBD9  3299 _g_CLIKFL	=	0xfbd9
                         0000FBDA  3300 _g_OLDKEY	=	0xfbda
                         0000FBE5  3301 _g_NEWKEY	=	0xfbe5
                         0000FBF0  3302 _g_KEYBUF	=	0xfbf0
                         0000FC18  3303 _g_LINWRK	=	0xfc18
                         0000FC40  3304 _g_PATWRK	=	0xfc40
                         0000FC48  3305 _g_BOTTOM	=	0xfc48
                         0000FC4A  3306 _g_HIMEM	=	0xfc4a
                         0000FC4C  3307 _g_TRPTBL	=	0xfc4c
                         0000FC9A  3308 _g_RTYCNT	=	0xfc9a
                         0000FC9B  3309 _g_INTFLG	=	0xfc9b
                         0000FC9C  3310 _g_PADY	=	0xfc9c
                         0000FC9D  3311 _g_PADX	=	0xfc9d
                         0000FC9E  3312 _g_JIFFY	=	0xfc9e
                         0000FCA0  3313 _g_INTVAL	=	0xfca0
                         0000FCA2  3314 _g_INTCNT	=	0xfca2
                         0000FCA4  3315 _g_LOWLIM	=	0xfca4
                         0000FCA5  3316 _g_WINWID	=	0xfca5
                         0000FCA6  3317 _g_GRPHED	=	0xfca6
                         0000FCA7  3318 _g_ESCCNT	=	0xfca7
                         0000FCA8  3319 _g_INSFLG	=	0xfca8
                         0000FCA9  3320 _g_CSRSW	=	0xfca9
                         0000FCAA  3321 _g_CSTYLE	=	0xfcaa
                         0000FCAB  3322 _g_CAPST	=	0xfcab
                         0000FCAC  3323 _g_KANAST	=	0xfcac
                         0000FCAD  3324 _g_KANAMD	=	0xfcad
                         0000FCAE  3325 _g_FLBMEM	=	0xfcae
                         0000FCAF  3326 _g_SCRMOD	=	0xfcaf
                         0000FCB0  3327 _g_OLDSCR	=	0xfcb0
                         0000FCB1  3328 _g_CASPRV	=	0xfcb1
                         0000FCB2  3329 _g_BRDATR	=	0xfcb2
                         0000FCB3  3330 _g_GXPOS	=	0xfcb3
                         0000FCB5  3331 _g_GYPOS	=	0xfcb5
                         0000FCBB  3332 _g_DRWFLG	=	0xfcbb
                         0000FCBC  3333 _g_DRWSCL	=	0xfcbc
                         0000FCBD  3334 _g_DRWANG	=	0xfcbd
                         0000FCC1  3335 _g_MNROM	=	0xfcc1
                         0000FCC1  3336 _g_EXPTBL	=	0xfcc1
                         0000FCC5  3337 _g_SLTTBL	=	0xfcc5
                         0000FCC9  3338 _g_SLTATR	=	0xfcc9
                         0000FD09  3339 _g_SLTWRK	=	0xfd09
                         0000FD89  3340 _g_PROCNM	=	0xfd89
                         0000FFE7  3341 _g_RG08SAV	=	0xffe7
                         0000FFE8  3342 _g_RG09SAV	=	0xffe8
                         0000FFE9  3343 _g_RG10SAV	=	0xffe9
                         0000FFEA  3344 _g_RG11SAV	=	0xffea
                         0000FFEB  3345 _g_RG12SAV	=	0xffeb
                         0000FFEC  3346 _g_RG13SAV	=	0xffec
                         0000FFED  3347 _g_RG14SAV	=	0xffed
                         0000FFEE  3348 _g_RG15SAV	=	0xffee
                         0000FFEF  3349 _g_RG16SAV	=	0xffef
                         0000FFF0  3350 _g_RG17SAV	=	0xfff0
                         0000FFF1  3351 _g_RG18SAV	=	0xfff1
                         0000FFF2  3352 _g_RG19SAV	=	0xfff2
                         0000FFF3  3353 _g_RG20SAV	=	0xfff3
                         0000FFF4  3354 _g_RG21SAV	=	0xfff4
                         0000FFF5  3355 _g_RG22SAV	=	0xfff5
                         0000FFF6  3356 _g_RG23SAV	=	0xfff6
                         0000FFF7  3357 _g_MINROM	=	0xfff7
                         0000FFF8  3358 _g_SVFFF8	=	0xfff8
                         0000FFFA  3359 _g_RG25SAV	=	0xfffa
                         0000FFFB  3360 _g_RG26SAV	=	0xfffb
                         0000FFFC  3361 _g_RG27SAV	=	0xfffc
                         0000FFFD  3362 _g_SVFFFD	=	0xfffd
                         00000004  3363 _g_CGTABL	=	0x0004
                         00000006  3364 _g_VDP_DR	=	0x0006
                         00000007  3365 _g_VDP_DW	=	0x0007
                         0000002B  3366 _g_BASRVN	=	0x002b
                         0000002B  3367 _g_ROMVersion	=	0x002b
                         0000002D  3368 _g_MSXVER	=	0x002d
                         0000002E  3369 _g_MSXMID	=	0x002e
                         00000034  3370 _g_CHAR_16	=	0x0034
                         00000000  3371 _g_SUBRID	=	0x0000
                         00000002  3372 _g_STRSRC	=	0x0002
                         0000F30F  3373 _g_KANJTABLE	=	0xf30f
                         0000F323  3374 _g_DISKVE	=	0xf323
                         0000F325  3375 _g_BREAKV	=	0xf325
                         0000F341  3376 _g_RAMAD0	=	0xf341
                         0000F342  3377 _g_RAMAD1	=	0xf342
                         0000F343  3378 _g_RAMAD2	=	0xf343
                         0000F344  3379 _g_RAMAD3	=	0xf344
                         0000F348  3380 _g_MASTER	=	0xf348
                         0000F37D  3381 _g_BDOS	=	0xf37d
                                   3382 	.area _SEG9
                                   3383 	.area _INITIALIZER
                                   3384 	.area _CABS (ABS)
