                                      1 ;--------------------------------------------------------
                                      2 ; File Created by SDCC : free open source ANSI-C Compiler
                                      3 ; Version 4.2.0 #13081 (MINGW64)
                                      4 ;--------------------------------------------------------
                                      5 	.module soccerlg_s12_b3
                                      6 	.optsdcc -mz80
                                      7 	
                                      8 ;--------------------------------------------------------
                                      9 ; Public variables in this module
                                     10 ;--------------------------------------------------------
                                     11 	.globl _UpdateGameState_Penalties
                                     12 	.globl _UpdateGameState_SetPieces
                                     13 	.globl _ShowMenu
                                     14 	.globl _GetPlayerIdleFrame
                                     15 	.globl _GetPlayerAnimFrame
                                     16 	.globl _AssignCornerKickTargets
                                     17 	.globl _AssignGoalKickTargets
                                     18 	.globl _AssignThrowInTargets
                                     19 	.globl _AssignKickOffTargets
                                     20 	.globl _EventTimeUp
                                     21 	.globl _HideSpriteMessage
                                     22 	.globl _ShowSpriteMessage
                                     23 	.globl _IsBallForeground
                                     24 	.globl _PrintScoreBoardRight
                                     25 	.globl _PrintScoreBoardLeft
                                     26 	.globl _PlotField
                                     27 	.globl _CallFnc_U16_P4
                                     28 	.globl _CallFnc_U16_P3
                                     29 	.globl _CallFnc_VOID_16_P2
                                     30 	.globl _CallFnc_BOOL
                                     31 	.globl _CallFnc_VOID_16_P1
                                     32 	.globl _CallFnc_VOID_3PTR_U16
                                     33 	.globl _CallFnc_VOID_U8U16U16
                                     34 	.globl _CallFnc_VOID
                                     35 	.globl _CallSpriteFrame
                                     36 	.globl _VDP_RegWrite
                                     37 	.globl _g_SLTSL
                                     38 	.globl _g_GRPACY
                                     39 	.globl _g_GRPACX
                                     40 	.globl _g_LOGOPR
                                     41 	.globl _g_CMASK
                                     42 	.globl _g_CLOC
                                     43 	.globl _g_FNKSTR
                                     44 	.globl _g_ATRBYT
                                     45 	.globl _g_BDRCLR
                                     46 	.globl _g_BAKCLR
                                     47 	.globl _g_FORCLR
                                     48 	.globl _g_CSRX
                                     49 	.globl _g_CSRY
                                     50 	.globl _g_CLIKSW
                                     51 	.globl _g_MLTPAT
                                     52 	.globl _g_MLTATR
                                     53 	.globl _g_MLTCGP
                                     54 	.globl _g_MLTCOL
                                     55 	.globl _g_MLTNAM
                                     56 	.globl _g_GRPPAT
                                     57 	.globl _g_GRPATR
                                     58 	.globl _g_GRPCGP
                                     59 	.globl _g_GRPCOL
                                     60 	.globl _g_GRPNAM
                                     61 	.globl _g_T32PAT
                                     62 	.globl _g_T32ATR
                                     63 	.globl _g_T32CGP
                                     64 	.globl _g_T32COL
                                     65 	.globl _g_T32NAM
                                     66 	.globl _g_TXTPAT
                                     67 	.globl _g_TXTATR
                                     68 	.globl _g_TXTCGP
                                     69 	.globl _g_TXTCOL
                                     70 	.globl _g_TXTNAM
                                     71 	.globl _g_CLMLST
                                     72 	.globl _g_CRTCNT
                                     73 	.globl _g_LINLEN
                                     74 	.globl _g_LINL32
                                     75 	.globl _g_LINL40
                                     76 	.globl _g_BDOS
                                     77 	.globl _g_MASTER
                                     78 	.globl _g_RAMAD3
                                     79 	.globl _g_RAMAD2
                                     80 	.globl _g_RAMAD1
                                     81 	.globl _g_RAMAD0
                                     82 	.globl _g_BREAKV
                                     83 	.globl _g_DISKVE
                                     84 	.globl _g_KANJTABLE
                                     85 	.globl _g_STRSRC
                                     86 	.globl _g_SUBRID
                                     87 	.globl _g_CHAR_16
                                     88 	.globl _g_MSXMID
                                     89 	.globl _g_MSXVER
                                     90 	.globl _g_ROMVersion
                                     91 	.globl _g_BASRVN
                                     92 	.globl _g_VDP_DW
                                     93 	.globl _g_VDP_DR
                                     94 	.globl _g_CGTABL
                                     95 	.globl _g_SVFFFD
                                     96 	.globl _g_RG27SAV
                                     97 	.globl _g_RG26SAV
                                     98 	.globl _g_RG25SAV
                                     99 	.globl _g_SVFFF8
                                    100 	.globl _g_MINROM
                                    101 	.globl _g_RG23SAV
                                    102 	.globl _g_RG22SAV
                                    103 	.globl _g_RG21SAV
                                    104 	.globl _g_RG20SAV
                                    105 	.globl _g_RG19SAV
                                    106 	.globl _g_RG18SAV
                                    107 	.globl _g_RG17SAV
                                    108 	.globl _g_RG16SAV
                                    109 	.globl _g_RG15SAV
                                    110 	.globl _g_RG14SAV
                                    111 	.globl _g_RG13SAV
                                    112 	.globl _g_RG12SAV
                                    113 	.globl _g_RG11SAV
                                    114 	.globl _g_RG10SAV
                                    115 	.globl _g_RG09SAV
                                    116 	.globl _g_RG08SAV
                                    117 	.globl _g_PROCNM
                                    118 	.globl _g_SLTWRK
                                    119 	.globl _g_SLTATR
                                    120 	.globl _g_SLTTBL
                                    121 	.globl _g_EXPTBL
                                    122 	.globl _g_MNROM
                                    123 	.globl _g_DRWANG
                                    124 	.globl _g_DRWSCL
                                    125 	.globl _g_DRWFLG
                                    126 	.globl _g_GYPOS
                                    127 	.globl _g_GXPOS
                                    128 	.globl _g_BRDATR
                                    129 	.globl _g_CASPRV
                                    130 	.globl _g_OLDSCR
                                    131 	.globl _g_SCRMOD
                                    132 	.globl _g_FLBMEM
                                    133 	.globl _g_KANAMD
                                    134 	.globl _g_KANAST
                                    135 	.globl _g_CAPST
                                    136 	.globl _g_CSTYLE
                                    137 	.globl _g_CSRSW
                                    138 	.globl _g_INSFLG
                                    139 	.globl _g_ESCCNT
                                    140 	.globl _g_GRPHED
                                    141 	.globl _g_WINWID
                                    142 	.globl _g_LOWLIM
                                    143 	.globl _g_INTCNT
                                    144 	.globl _g_INTVAL
                                    145 	.globl _g_JIFFY
                                    146 	.globl _g_PADX
                                    147 	.globl _g_PADY
                                    148 	.globl _g_INTFLG
                                    149 	.globl _g_RTYCNT
                                    150 	.globl _g_TRPTBL
                                    151 	.globl _g_HIMEM
                                    152 	.globl _g_BOTTOM
                                    153 	.globl _g_PATWRK
                                    154 	.globl _g_LINWRK
                                    155 	.globl _g_KEYBUF
                                    156 	.globl _g_NEWKEY
                                    157 	.globl _g_OLDKEY
                                    158 	.globl _g_CLIKFL
                                    159 	.globl _g_ONGSBF
                                    160 	.globl _g_FNKFLG
                                    161 	.globl _g_FNKSWI
                                    162 	.globl _g_CODSAV
                                    163 	.globl _g_FSTPOS
                                    164 	.globl _g_LINTTB
                                    165 	.globl _g_BASROM
                                    166 	.globl _g_ENSTOP
                                    167 	.globl _g_VCBC
                                    168 	.globl _g_VCBB
                                    169 	.globl _g_VCBA
                                    170 	.globl _g_PLYCNT
                                    171 	.globl _g_MUSICF
                                    172 	.globl _g_QUEUEN
                                    173 	.globl _g_MCLPTR
                                    174 	.globl _g_MCLLEN
                                    175 	.globl _g_SAVVOL
                                    176 	.globl _g_VOICEN
                                    177 	.globl _g_SAVSP
                                    178 	.globl _g_PRSCNT
                                    179 	.globl _g_LSTMOD
                                    180 	.globl _g_LSTCOM
                                    181 	.globl _g_COMMSK
                                    182 	.globl _g_ESTBLS
                                    183 	.globl _g_FLAGS
                                    184 	.globl _g_ERRORS
                                    185 	.globl _g_DATCNT
                                    186 	.globl _g_DEVNUM
                                    187 	.globl _g_OLDINT
                                    188 	.globl _g_OLDSTT
                                    189 	.globl _g_MEXBIh
                                    190 	.globl _g_RSIQLN
                                    191 	.globl _g_RSFCB
                                    192 	.globl _g_TOCNT
                                    193 	.globl _g_RSTMP
                                    194 	.globl _g_YSAVE
                                    195 	.globl _g_XSAVE
                                    196 	.globl _g_NORUSE
                                    197 	.globl _g_MODE
                                    198 	.globl _g_ROMA
                                    199 	.globl _g_CHRCNT
                                    200 	.globl _g_EXBRSA
                                    201 	.globl _g_AVCSAV
                                    202 	.globl _g_ACPAGE
                                    203 	.globl _g_DPPAGE
                                    204 	.globl _g_RS2IQ
                                    205 	.globl _g_VOICCQ
                                    206 	.globl _g_VOICBQ
                                    207 	.globl _g_VOICAQ
                                    208 	.globl _g_QUEBAK
                                    209 	.globl _g_QUETAB
                                    210 	.globl _g_ASPCT2
                                    211 	.globl _g_ASPCT1
                                    212 	.globl _g_HEADER
                                    213 	.globl _g_HIGH
                                    214 	.globl _g_LOW
                                    215 	.globl _g_CS240
                                    216 	.globl _g_CS120
                                    217 	.globl _g_GETPNT
                                    218 	.globl _g_PUTPNT
                                    219 	.globl _g_REPCNT
                                    220 	.globl _g_SCNCNT
                                    221 	.globl _g_FRCNEW
                                    222 	.globl _g_QUEUES
                                    223 	.globl _g_MINUPD
                                    224 	.globl _g_MAXUPD
                                    225 	.globl _g_TRGFLG
                                    226 	.globl _g_STATFL
                                    227 	.globl _g_RG7SAV
                                    228 	.globl _g_RG6SAV
                                    229 	.globl _g_RG5SAV
                                    230 	.globl _g_RG4SAV
                                    231 	.globl _g_RG3SAV
                                    232 	.globl _g_RG2SAV
                                    233 	.globl _g_RG1SAV
                                    234 	.globl _g_RG0SAV
                                    235 	.globl _g_CNSDFG
                                    236 	.globl _g_USRTAB
                                    237 	.globl _g_CLPRIM
                                    238 	.globl _g_WRPRIM
                                    239 	.globl _g_RDPRIM
                                    240 	.globl _UpdateGameState_Restarts
                                    241 ;--------------------------------------------------------
                                    242 ; special function registers
                                    243 ;--------------------------------------------------------
                         000000A8   244 _g_PortPrimarySlot	=	0x00a8
                         000000A9   245 _g_PortReadKeyboard	=	0x00a9
                         000000AA   246 _g_PortAccessKeyboard	=	0x00aa
                         000000AB   247 _g_PortControl	=	0x00ab
                         00000098   248 _g_VDP_DataPort	=	0x0098
                         00000099   249 _g_VDP_RegPort	=	0x0099
                         00000099   250 _g_VDP_AddrPort	=	0x0099
                         00000099   251 _g_VDP_StatPort	=	0x0099
                         0000009A   252 _g_VDP_PalPort	=	0x009a
                         0000009B   253 _g_VDP_IRegPort	=	0x009b
                         000000A0   254 _g_PSG_RegPort	=	0x00a0
                         000000A1   255 _g_PSG_DataPort	=	0x00a1
                         000000A2   256 _g_PSG_StatPort	=	0x00a2
                         00000010   257 _g_PSG_Ext_RegPort	=	0x0010
                         00000011   258 _g_PSG_Ext_DataPort	=	0x0011
                         00000012   259 _g_PSG_Ext_StatPort	=	0x0012
                         0000007C   260 _g_MSXMusic_IndexPort	=	0x007c
                         0000007D   261 _g_MSXMusic_DataPort	=	0x007d
                         000000C0   262 _g_MSXAudio_IndexPort	=	0x00c0
                         000000C1   263 _g_MSXAudio_DataPort	=	0x00c1
                         000000C2   264 _g_MSXAudio_IndexPort2	=	0x00c2
                         000000C3   265 _g_MSXAudio_DataPort2	=	0x00c3
                         000000B4   266 _g_RTC_AddrPort	=	0x00b4
                         000000B5   267 _g_RTC_DataPort	=	0x00b5
                                    268 ;--------------------------------------------------------
                                    269 ; ram data
                                    270 ;--------------------------------------------------------
                                    271 	.area _DATA
                         0000F3AE   272 _g_LINL40	=	0xf3ae
                         0000F3AF   273 _g_LINL32	=	0xf3af
                         0000F3B0   274 _g_LINLEN	=	0xf3b0
                         0000F3B1   275 _g_CRTCNT	=	0xf3b1
                         0000F3B2   276 _g_CLMLST	=	0xf3b2
                         0000F3B3   277 _g_TXTNAM	=	0xf3b3
                         0000F3B5   278 _g_TXTCOL	=	0xf3b5
                         0000F3B7   279 _g_TXTCGP	=	0xf3b7
                         0000F3B9   280 _g_TXTATR	=	0xf3b9
                         0000F3BB   281 _g_TXTPAT	=	0xf3bb
                         0000F3BD   282 _g_T32NAM	=	0xf3bd
                         0000F3BF   283 _g_T32COL	=	0xf3bf
                         0000F3C1   284 _g_T32CGP	=	0xf3c1
                         0000F3C3   285 _g_T32ATR	=	0xf3c3
                         0000F3C5   286 _g_T32PAT	=	0xf3c5
                         0000F3C7   287 _g_GRPNAM	=	0xf3c7
                         0000F3C9   288 _g_GRPCOL	=	0xf3c9
                         0000F3CB   289 _g_GRPCGP	=	0xf3cb
                         0000F3CD   290 _g_GRPATR	=	0xf3cd
                         0000F3CF   291 _g_GRPPAT	=	0xf3cf
                         0000F3D1   292 _g_MLTNAM	=	0xf3d1
                         0000F3D3   293 _g_MLTCOL	=	0xf3d3
                         0000F3D5   294 _g_MLTCGP	=	0xf3d5
                         0000F3D7   295 _g_MLTATR	=	0xf3d7
                         0000F3D9   296 _g_MLTPAT	=	0xf3d9
                         0000F3DB   297 _g_CLIKSW	=	0xf3db
                         0000F3DC   298 _g_CSRY	=	0xf3dc
                         0000F3DD   299 _g_CSRX	=	0xf3dd
                         0000F3E9   300 _g_FORCLR	=	0xf3e9
                         0000F3EA   301 _g_BAKCLR	=	0xf3ea
                         0000F3EB   302 _g_BDRCLR	=	0xf3eb
                         0000F3F2   303 _g_ATRBYT	=	0xf3f2
                         0000F87F   304 _g_FNKSTR	=	0xf87f
                         0000F92A   305 _g_CLOC	=	0xf92a
                         0000F92C   306 _g_CMASK	=	0xf92c
                         0000FB02   307 _g_LOGOPR	=	0xfb02
                         0000FCB7   308 _g_GRPACX	=	0xfcb7
                         0000FCB9   309 _g_GRPACY	=	0xfcb9
                         0000FFFF   310 _g_SLTSL	=	0xffff
                                    311 ;--------------------------------------------------------
                                    312 ; ram data
                                    313 ;--------------------------------------------------------
                                    314 	.area _INITIALIZED
                                    315 ;--------------------------------------------------------
                                    316 ; absolute external ram data
                                    317 ;--------------------------------------------------------
                                    318 	.area _DABS (ABS)
                                    319 ;--------------------------------------------------------
                                    320 ; global & static initialisations
                                    321 ;--------------------------------------------------------
                                    322 	.area _HOME
                                    323 	.area _GSINIT
                                    324 	.area _GSFINAL
                                    325 	.area _GSINIT
                                    326 ;--------------------------------------------------------
                                    327 ; Home
                                    328 ;--------------------------------------------------------
                                    329 	.area _HOME
                                    330 	.area _HOME
                                    331 ;--------------------------------------------------------
                                    332 ; code
                                    333 ;--------------------------------------------------------
                                    334 	.area _SEG12
                                    335 ;E:\Dropbox\FAUSTO\SVILUPPI\MSX\CODE\C\MSXgl\projects\soccerlgMSX2/soccerlg_s12_b3.c:11: void UpdateGameState_Restarts(u8* game_state, u8* wait_secs, u8* start_sec, u16 target_ly) 
                                    336 ;	---------------------------------
                                    337 ; Function UpdateGameState_Restarts
                                    338 ; ---------------------------------
    00000000                        339 _UpdateGameState_Restarts::
    00000000 DD E5            [15]  340 	push	ix
    00000002 DD 21 00 00      [14]  341 	ld	ix,#0
    00000006 DD 39            [15]  342 	add	ix,sp
    00000008 FD 21 E0 FF      [14]  343 	ld	iy, #-32
    0000000C FD 39            [15]  344 	add	iy, sp
    0000000E FD F9            [10]  345 	ld	sp, iy
    00000010 DD 75 FD         [19]  346 	ld	-3 (ix), l
    00000013 DD 74 FE         [19]  347 	ld	-2 (ix), h
    00000016 DD 73 FB         [19]  348 	ld	-5 (ix), e
    00000019 DD 72 FC         [19]  349 	ld	-4 (ix), d
                                    350 ;E:\Dropbox\FAUSTO\SVILUPPI\MSX\CODE\C\MSXgl\projects\soccerlgMSX2/soccerlg_s12_b3.c:13: if (*game_state == 4) {
    0000001C DD 6E FD         [19]  351 	ld	l, -3 (ix)
    0000001F DD 66 FE         [19]  352 	ld	h, -2 (ix)
    00000022 7E               [ 7]  353 	ld	a, (hl)
    00000023 DD 77 FF         [19]  354 	ld	-1 (ix), a
    00000026 D6 04            [ 7]  355 	sub	a, #0x04
    00000028 C2r5Cr04         [10]  356 	jp	NZ,00351$
                                    357 ;E:\Dropbox\FAUSTO\SVILUPPI\MSX\CODE\C\MSXgl\projects\soccerlgMSX2/soccerlg_s12_b3.c:15: if (*wait_secs > 0) {
    0000002B DD 6E FB         [19]  358 	ld	l, -5 (ix)
    0000002E DD 66 FC         [19]  359 	ld	h, -4 (ix)
    00000031 7E               [ 7]  360 	ld	a, (hl)
    00000032 DD 77 FF         [19]  361 	ld	-1 (ix), a
    00000035 B7               [ 4]  362 	or	a, a
    00000036 CAr5Dr1A         [10]  363 	jp	Z, 00391$
                                    364 ;E:\Dropbox\FAUSTO\SVILUPPI\MSX\CODE\C\MSXgl\projects\soccerlgMSX2/soccerlg_s12_b3.c:16: if (*start_sec < Frms) { // Frms wrapped from 1 to 60
    00000039 DD 7E 04         [19]  365 	ld	a, 4 (ix)
    0000003C DD 77 EE         [19]  366 	ld	-18 (ix), a
    0000003F DD 7E 05         [19]  367 	ld	a, 5 (ix)
    00000042 DD 77 EF         [19]  368 	ld	-17 (ix), a
    00000045 DD 6E EE         [19]  369 	ld	l, -18 (ix)
    00000048 DD 66 EF         [19]  370 	ld	h, -17 (ix)
    0000004B 4E               [ 7]  371 	ld	c, (hl)
    0000004C 21r00r00         [10]  372 	ld	hl, #_Frms
    0000004F 79               [ 4]  373 	ld	a, c
    00000050 96               [ 7]  374 	sub	a, (hl)
    00000051 D2r4Fr04         [10]  375 	jp	NC, 00123$
                                    376 ;E:\Dropbox\FAUSTO\SVILUPPI\MSX\CODE\C\MSXgl\projects\soccerlgMSX2/soccerlg_s12_b3.c:17: (*wait_secs)--;
    00000054 DD 7E FF         [19]  377 	ld	a, -1 (ix)
    00000057 3D               [ 4]  378 	dec	a
    00000058 DD 6E FB         [19]  379 	ld	l, -5 (ix)
    0000005B DD 66 FC         [19]  380 	ld	h, -4 (ix)
    0000005E 77               [ 7]  381 	ld	(hl), a
                                    382 ;E:\Dropbox\FAUSTO\SVILUPPI\MSX\CODE\C\MSXgl\projects\soccerlgMSX2/soccerlg_s12_b3.c:18: if (*wait_secs == 0) {
    0000005F B7               [ 4]  383 	or	a, a
    00000060 C2r4Fr04         [10]  384 	jp	NZ, 00123$
                                    385 ;E:\Dropbox\FAUSTO\SVILUPPI\MSX\CODE\C\MSXgl\projects\soccerlgMSX2/soccerlg_s12_b3.c:19: CallFnc_VOID(SEG_DRAW, HideSpriteMessage);
    00000063 11r00r00         [10]  386 	ld	de, #_HideSpriteMessage
    00000066 3E 05            [ 7]  387 	ld	a, #0x05
    00000068 CDr00r00         [17]  388 	call	_CallFnc_VOID
                                    389 ;E:\Dropbox\FAUSTO\SVILUPPI\MSX\CODE\C\MSXgl\projects\soccerlgMSX2/soccerlg_s12_b3.c:22: Half = 2;
    0000006B 21r00r00         [10]  390 	ld	hl, #_Half
    0000006E 36 02            [10]  391 	ld	(hl), #0x02
                                    392 ;E:\Dropbox\FAUSTO\SVILUPPI\MSX\CODE\C\MSXgl\projects\soccerlgMSX2/soccerlg_s12_b3.c:23: Mins = HALF_TIME_MINS; Secs = HALF_TIME_SECS;
    00000070 21r00r00         [10]  393 	ld	hl, #_Mins
    00000073 36 01            [10]  394 	ld	(hl), #0x01
    00000075 21r00r00         [10]  395 	ld	hl, #_Secs
    00000078 36 00            [10]  396 	ld	(hl), #0x00
                                    397 ;E:\Dropbox\FAUSTO\SVILUPPI\MSX\CODE\C\MSXgl\projects\soccerlgMSX2/soccerlg_s12_b3.c:24: KickOffTeam = TEAM_1; // Secondo tempo batte il Team 1
    0000007A 21r00r00         [10]  398 	ld	hl, #_KickOffTeam
    0000007D 36 00            [10]  399 	ld	(hl), #0x00
                                    400 ;E:\Dropbox\FAUSTO\SVILUPPI\MSX\CODE\C\MSXgl\projects\soccerlgMSX2/soccerlg_s12_b3.c:25: TimerEnabled = FALSE; // Congela il timer fino al prossimo tocco
    0000007F 21r00r00         [10]  401 	ld	hl, #_TimerEnabled
    00000082 36 00            [10]  402 	ld	(hl), #0x00
                                    403 ;E:\Dropbox\FAUSTO\SVILUPPI\MSX\CODE\C\MSXgl\projects\soccerlgMSX2/soccerlg_s12_b3.c:28: SwSprite[14].lx = BALL_START_X;
    00000084 21r42r01         [10]  404 	ld	hl, #(_SwSprite + 322)
    00000087 36 78            [10]  405 	ld	(hl), #0x78
                                    406 ;E:\Dropbox\FAUSTO\SVILUPPI\MSX\CODE\C\MSXgl\projects\soccerlgMSX2/soccerlg_s12_b3.c:29: SwSprite[14].ly = BALL_START_Y;
    00000089 21 00 01         [10]  407 	ld	hl, #0x0100
    0000008C 22r46r01         [16]  408 	ld	((_SwSprite + 326)), hl
                                    409 ;E:\Dropbox\FAUSTO\SVILUPPI\MSX\CODE\C\MSXgl\projects\soccerlgMSX2/soccerlg_s12_b3.c:30: SwSprite[14].dx = 0; SwSprite[14].dy = 0; SwSprite[14].anim = 0;
    0000008F 21r53r01         [10]  410 	ld	hl, #(_SwSprite + 339)
    00000092 36 00            [10]  411 	ld	(hl), #0x00
    00000094 21r54r01         [10]  412 	ld	hl, #(_SwSprite + 340)
    00000097 36 00            [10]  413 	ld	(hl), #0x00
    00000099 21 00 00         [10]  414 	ld	hl, #0x0000
    0000009C 22r55r01         [16]  415 	ld	((_SwSprite + 341)), hl
                                    416 ;E:\Dropbox\FAUSTO\SVILUPPI\MSX\CODE\C\MSXgl\projects\soccerlgMSX2/soccerlg_s12_b3.c:31: SwSprite[14].frame = SPR_BALL_SIZE_1;
    0000009F 2E 60            [ 7]  417 	ld	l, #0x60
    000000A1 22r51r01         [16]  418 	ld	((_SwSprite + 337)), hl
                                    419 ;E:\Dropbox\FAUSTO\SVILUPPI\MSX\CODE\C\MSXgl\projects\soccerlgMSX2/soccerlg_s12_b3.c:33: Field.ly = target_ly; // Centra campo immediatamente per 2T
    000000A4 21r04r00         [10]  420 	ld	hl, #(_Field + 4)
    000000A7 DD 7E 06         [19]  421 	ld	a, 6 (ix)
    000000AA 77               [ 7]  422 	ld	(hl), a
    000000AB 23               [ 6]  423 	inc	hl
    000000AC DD 7E 07         [19]  424 	ld	a, 7 (ix)
    000000AF 77               [ 7]  425 	ld	(hl), a
                                    426 ;E:\Dropbox\FAUSTO\SVILUPPI\MSX\CODE\C\MSXgl\projects\soccerlgMSX2/soccerlg_s12_b3.c:34: Field.dy = 0; // Impedisce ad AddLines di far scorrere lo sfondo non esistente
    000000B0 21r12r00         [10]  427 	ld	hl, #(_Field + 18)
    000000B3 36 00            [10]  428 	ld	(hl), #0x00
                                    429 ;E:\Dropbox\FAUSTO\SVILUPPI\MSX\CODE\C\MSXgl\projects\soccerlgMSX2/soccerlg_s12_b3.c:37: ScoreBoardLeft.y0 = ScoreBoardLeft.y1 = ScoreBoardLeft.y2 = Field.ly;
    000000B5 21r0Ar00         [10]  430 	ld	hl, #(_ScoreBoardLeft + 10)
    000000B8 DD 7E 06         [19]  431 	ld	a, 6 (ix)
    000000BB 77               [ 7]  432 	ld	(hl), a
    000000BC 23               [ 6]  433 	inc	hl
    000000BD DD 7E 07         [19]  434 	ld	a, 7 (ix)
    000000C0 77               [ 7]  435 	ld	(hl), a
    000000C1 21r08r00         [10]  436 	ld	hl, #(_ScoreBoardLeft + 8)
    000000C4 DD 7E 06         [19]  437 	ld	a, 6 (ix)
    000000C7 77               [ 7]  438 	ld	(hl), a
    000000C8 23               [ 6]  439 	inc	hl
    000000C9 DD 7E 07         [19]  440 	ld	a, 7 (ix)
    000000CC 77               [ 7]  441 	ld	(hl), a
    000000CD 21r06r00         [10]  442 	ld	hl, #(_ScoreBoardLeft + 6)
    000000D0 DD 7E 06         [19]  443 	ld	a, 6 (ix)
    000000D3 77               [ 7]  444 	ld	(hl), a
    000000D4 23               [ 6]  445 	inc	hl
    000000D5 DD 7E 07         [19]  446 	ld	a, 7 (ix)
    000000D8 77               [ 7]  447 	ld	(hl), a
                                    448 ;E:\Dropbox\FAUSTO\SVILUPPI\MSX\CODE\C\MSXgl\projects\soccerlgMSX2/soccerlg_s12_b3.c:38: ScoreBoardRight.y0 = ScoreBoardRight.y1 = ScoreBoardRight.y2 = Field.ly;
    000000D9 21r0Ar00         [10]  449 	ld	hl, #(_ScoreBoardRight + 10)
    000000DC DD 7E 06         [19]  450 	ld	a, 6 (ix)
    000000DF 77               [ 7]  451 	ld	(hl), a
    000000E0 23               [ 6]  452 	inc	hl
    000000E1 DD 7E 07         [19]  453 	ld	a, 7 (ix)
    000000E4 77               [ 7]  454 	ld	(hl), a
    000000E5 21r08r00         [10]  455 	ld	hl, #(_ScoreBoardRight + 8)
    000000E8 DD 7E 06         [19]  456 	ld	a, 6 (ix)
    000000EB 77               [ 7]  457 	ld	(hl), a
    000000EC 23               [ 6]  458 	inc	hl
    000000ED DD 7E 07         [19]  459 	ld	a, 7 (ix)
    000000F0 77               [ 7]  460 	ld	(hl), a
    000000F1 21r06r00         [10]  461 	ld	hl, #(_ScoreBoardRight + 6)
    000000F4 DD 7E 06         [19]  462 	ld	a, 6 (ix)
    000000F7 77               [ 7]  463 	ld	(hl), a
    000000F8 23               [ 6]  464 	inc	hl
    000000F9 DD 7E 07         [19]  465 	ld	a, 7 (ix)
    000000FC 77               [ 7]  466 	ld	(hl), a
                                    467 ;E:\Dropbox\FAUSTO\SVILUPPI\MSX\CODE\C\MSXgl\projects\soccerlgMSX2/soccerlg_s12_b3.c:39: VDP_SetVerticalOffset(Field.ly & 255);
    000000FD DD 6E 06         [19]  468 	ld	l, 6 (ix)
                                    469 ;	spillPairReg hl
                                    470 ;	spillPairReg hl
                                    471 ;E:/Dropbox/FAUSTO/SVILUPPI/MSX/CODE/C/MSXgl/engine/src/vdp.h:777: inline void VDP_SetVerticalOffset(u8 offset) { VDP_RegWrite(23, offset); }
    00000100 3E 17            [ 7]  472 	ld	a, #0x17
    00000102 CDr00r00         [17]  473 	call	_VDP_RegWrite
                                    474 ;E:\Dropbox\FAUSTO\SVILUPPI\MSX\CODE\C\MSXgl\projects\soccerlgMSX2/soccerlg_s12_b3.c:41: CallFnc_VOID(SEG_GAMESTATE_2, AssignKickOffTargets);
    00000105 11r00r00         [10]  475 	ld	de, #_AssignKickOffTargets
    00000108 3E 0B            [ 7]  476 	ld	a, #0x0b
    0000010A CDr00r00         [17]  477 	call	_CallFnc_VOID
                                    478 ;E:\Dropbox\FAUSTO\SVILUPPI\MSX\CODE\C\MSXgl\projects\soccerlgMSX2/soccerlg_s12_b3.c:42: for (u8 i = 0; i < 14; i++) {
    0000010D 0E 00            [ 7]  479 	ld	c, #0x00
    0000010F                        480 00355$:
    0000010F 79               [ 4]  481 	ld	a, c
    00000110 D6 0E            [ 7]  482 	sub	a, #0x0e
    00000112 30 50            [12]  483 	jr	NC, 00101$
                                    484 ;E:\Dropbox\FAUSTO\SVILUPPI\MSX\CODE\C\MSXgl\projects\soccerlgMSX2/soccerlg_s12_b3.c:43: SwSprite[i].lx = SwSprite[i].tx;
    00000114 06 00            [ 7]  485 	ld	b, #0x00
    00000116 69               [ 4]  486 	ld	l, c
    00000117 60               [ 4]  487 	ld	h, b
    00000118 29               [11]  488 	add	hl, hl
    00000119 29               [11]  489 	add	hl, hl
    0000011A 09               [11]  490 	add	hl, bc
    0000011B 29               [11]  491 	add	hl, hl
    0000011C 09               [11]  492 	add	hl, bc
    0000011D 29               [11]  493 	add	hl, hl
    0000011E 09               [11]  494 	add	hl, bc
    0000011F EB               [ 4]  495 	ex	de, hl
    00000120 21r00r00         [10]  496 	ld	hl, #_SwSprite
    00000123 19               [11]  497 	add	hl, de
    00000124 EB               [ 4]  498 	ex	de, hl
    00000125 D5               [11]  499 	push	de
    00000126 FD E1            [14]  500 	pop	iy
    00000128 FD 7E 0C         [19]  501 	ld	a, 12 (iy)
    0000012B 12               [ 7]  502 	ld	(de), a
                                    503 ;E:\Dropbox\FAUSTO\SVILUPPI\MSX\CODE\C\MSXgl\projects\soccerlgMSX2/soccerlg_s12_b3.c:44: SwSprite[i].ly = SwSprite[i].ty;
    0000012C 21 04 00         [10]  504 	ld	hl, #0x0004
    0000012F 19               [11]  505 	add	hl, de
    00000130 DD 75 F7         [19]  506 	ld	-9 (ix), l
    00000133 DD 74 F8         [19]  507 	ld	-8 (ix), h
    00000136 D5               [11]  508 	push	de
    00000137 FD E1            [14]  509 	pop	iy
    00000139 FD 7E 0D         [19]  510 	ld	a, 13 (iy)
    0000013C DD 77 F9         [19]  511 	ld	-7 (ix), a
    0000013F FD 7E 0E         [19]  512 	ld	a, 14 (iy)
    00000142 DD 77 FA         [19]  513 	ld	-6 (ix), a
    00000145 DD 6E F7         [19]  514 	ld	l, -9 (ix)
    00000148 DD 66 F8         [19]  515 	ld	h, -8 (ix)
    0000014B DD 7E F9         [19]  516 	ld	a, -7 (ix)
    0000014E 77               [ 7]  517 	ld	(hl), a
    0000014F 23               [ 6]  518 	inc	hl
    00000150 DD 7E FA         [19]  519 	ld	a, -6 (ix)
    00000153 77               [ 7]  520 	ld	(hl), a
                                    521 ;E:\Dropbox\FAUSTO\SVILUPPI\MSX\CODE\C\MSXgl\projects\soccerlgMSX2/soccerlg_s12_b3.c:45: SwSprite[i].dx = 0; SwSprite[i].dy = 0;
    00000154 21 11 00         [10]  522 	ld	hl, #0x0011
    00000157 19               [11]  523 	add	hl, de
    00000158 36 00            [10]  524 	ld	(hl), #0x00
    0000015A 21 12 00         [10]  525 	ld	hl, #0x0012
    0000015D 19               [11]  526 	add	hl, de
    0000015E 36 00            [10]  527 	ld	(hl), #0x00
                                    528 ;E:\Dropbox\FAUSTO\SVILUPPI\MSX\CODE\C\MSXgl\projects\soccerlgMSX2/soccerlg_s12_b3.c:42: for (u8 i = 0; i < 14; i++) {
    00000160 0C               [ 4]  529 	inc	c
    00000161 C3r0Fr01         [10]  530 	jp	00355$
    00000164                        531 00101$:
                                    532 ;E:\Dropbox\FAUSTO\SVILUPPI\MSX\CODE\C\MSXgl\projects\soccerlgMSX2/soccerlg_s12_b3.c:49: bool ball_fg = CallFnc_BOOL(SEG_DRAW, IsBallForeground);
    00000164 11r00r00         [10]  533 	ld	de, #_IsBallForeground
    00000167 3E 05            [ 7]  534 	ld	a, #0x05
    00000169 CDr00r00         [17]  535 	call	_CallFnc_BOOL
    0000016C DD 77 F0         [19]  536 	ld	-16 (ix), a
                                    537 ;E:\Dropbox\FAUSTO\SVILUPPI\MSX\CODE\C\MSXgl\projects\soccerlgMSX2/soccerlg_s12_b3.c:50: for (u16 page = 0; page <= 512; page += 256) {
    0000016F AF               [ 4]  538 	xor	a, a
    00000170 DD 77 F1         [19]  539 	ld	-15 (ix), a
    00000173 DD 77 F2         [19]  540 	ld	-14 (ix), a
    00000176                        541 00364$:
    00000176 DD 4E F1         [19]  542 	ld	c, -15 (ix)
    00000179 DD 46 F2         [19]  543 	ld	b, -14 (ix)
    0000017C AF               [ 4]  544 	xor	a, a
    0000017D B9               [ 4]  545 	cp	a, c
    0000017E 3E 02            [ 7]  546 	ld	a, #0x02
    00000180 98               [ 4]  547 	sbc	a, b
    00000181 DAr41r03         [10]  548 	jp	C, 00468$
                                    549 ;E:\Dropbox\FAUSTO\SVILUPPI\MSX\CODE\C\MSXgl\projects\soccerlgMSX2/soccerlg_s12_b3.c:51: CallFnc_VOID_16_P2(SEG_DRAW, PlotField, Field.ly, page);
    00000184 2Ar04r00         [16]  550 	ld	hl, (#(_Field + 4) + 0)
    00000187 DD 5E F1         [19]  551 	ld	e, -15 (ix)
    0000018A DD 56 F2         [19]  552 	ld	d, -14 (ix)
    0000018D D5               [11]  553 	push	de
    0000018E E5               [11]  554 	push	hl
    0000018F 11r00r00         [10]  555 	ld	de, #_PlotField
    00000192 3E 05            [ 7]  556 	ld	a, #0x05
    00000194 CDr00r00         [17]  557 	call	_CallFnc_VOID_16_P2
                                    558 ;E:\Dropbox\FAUSTO\SVILUPPI\MSX\CODE\C\MSXgl\projects\soccerlgMSX2/soccerlg_s12_b3.c:52: if (!ball_fg && OnScreen(SwSprite[14].ly)) CallSpriteFrame(SwSprite[14].lx, (SwSprite[14].ly & 255) + page, SwSprite[14].frame);
    00000197 DD 7E F0         [19]  559 	ld	a, -16 (ix)
    0000019A B7               [ 4]  560 	or	a, a
    0000019B 20 3B            [12]  561 	jr	NZ, 00458$
    0000019D ED 5Br46r01      [20]  562 	ld	de, (#(_SwSprite + 326) + 0)
    000001A1 7A               [ 4]  563 	ld	a, d
    000001A2 D6 02            [ 7]  564 	sub	a, #0x02
    000001A4 30 32            [12]  565 	jr	NC, 00458$
    000001A6 21 0F 02         [10]  566 	ld	hl, #0x020f
    000001A9 19               [11]  567 	add	hl, de
    000001AA 4D               [ 4]  568 	ld	c, l
    000001AB 44               [ 4]  569 	ld	b, h
    000001AC 2Ar04r00         [16]  570 	ld	hl, (#(_Field + 4) + 0)
    000001AF 79               [ 4]  571 	ld	a, c
    000001B0 95               [ 4]  572 	sub	a, l
    000001B1 4F               [ 4]  573 	ld	c, a
    000001B2 78               [ 4]  574 	ld	a, b
    000001B3 9C               [ 4]  575 	sbc	a, h
    000001B4 E6 01            [ 7]  576 	and	a, #0x01
    000001B6 47               [ 4]  577 	ld	b, a
    000001B7 79               [ 4]  578 	ld	a, c
    000001B8 D6 CF            [ 7]  579 	sub	a, #0xcf
    000001BA 78               [ 4]  580 	ld	a, b
    000001BB DE 00            [ 7]  581 	sbc	a, #0x00
    000001BD 30 19            [12]  582 	jr	NC, 00458$
    000001BF ED 4Br51r01      [20]  583 	ld	bc, (#(_SwSprite + 337) + 0)
    000001C3 16 00            [ 7]  584 	ld	d, #0x00
    000001C5 7B               [ 4]  585 	ld	a, e
    000001C6 DD 86 F1         [19]  586 	add	a, -15 (ix)
    000001C9 5F               [ 4]  587 	ld	e, a
    000001CA 7A               [ 4]  588 	ld	a, d
    000001CB DD 8E F2         [19]  589 	adc	a, -14 (ix)
    000001CE 57               [ 4]  590 	ld	d, a
    000001CF 21r42r01         [10]  591 	ld	hl, #(_SwSprite + 322)
    000001D2 6E               [ 7]  592 	ld	l, (hl)
                                    593 ;	spillPairReg hl
    000001D3 C5               [11]  594 	push	bc
    000001D4 7D               [ 4]  595 	ld	a, l
    000001D5 CDr00r00         [17]  596 	call	_CallSpriteFrame
                                    597 ;E:\Dropbox\FAUSTO\SVILUPPI\MSX\CODE\C\MSXgl\projects\soccerlgMSX2/soccerlg_s12_b3.c:53: for (u8 i=0; i<14; i++) if (OnScreen(SwSprite[i].ly)) CallSpriteFrame(SwSprite[i].lx, (SwSprite[i].ly & 255) + page, SwSprite[i].frame);
    000001D8                        598 00458$:
    000001D8 DD 36 FF 00      [19]  599 	ld	-1 (ix), #0x00
    000001DC                        600 00358$:
    000001DC DD 7E FF         [19]  601 	ld	a, -1 (ix)
    000001DF D6 0E            [ 7]  602 	sub	a, #0x0e
    000001E1 D2r70r02         [10]  603 	jp	NC, 00109$
    000001E4 DD 4E FF         [19]  604 	ld	c, -1 (ix)
    000001E7 06 00            [ 7]  605 	ld	b, #0x00
    000001E9 69               [ 4]  606 	ld	l, c
    000001EA 60               [ 4]  607 	ld	h, b
    000001EB 29               [11]  608 	add	hl, hl
    000001EC 29               [11]  609 	add	hl, hl
    000001ED 09               [11]  610 	add	hl, bc
    000001EE 29               [11]  611 	add	hl, hl
    000001EF 09               [11]  612 	add	hl, bc
    000001F0 29               [11]  613 	add	hl, hl
    000001F1 09               [11]  614 	add	hl, bc
    000001F2 EB               [ 4]  615 	ex	de, hl
    000001F3 21r00r00         [10]  616 	ld	hl, #_SwSprite
    000001F6 19               [11]  617 	add	hl, de
    000001F7 DD 75 F3         [19]  618 	ld	-13 (ix), l
    000001FA DD 74 F4         [19]  619 	ld	-12 (ix), h
    000001FD 01 04 00         [10]  620 	ld	bc,#4
    00000200 09               [11]  621 	add	hl,bc
    00000201 4E               [ 7]  622 	ld	c, (hl)
    00000202 23               [ 6]  623 	inc	hl
    00000203 7E               [ 7]  624 	ld	a, (hl)
    00000204 DD 71 F5         [19]  625 	ld	-11 (ix), c
    00000207 DD 77 F6         [19]  626 	ld	-10 (ix), a
    0000020A D6 02            [ 7]  627 	sub	a, #0x02
    0000020C 30 5C            [12]  628 	jr	NC, 00359$
    0000020E DD 7E F5         [19]  629 	ld	a, -11 (ix)
    00000211 C6 0F            [ 7]  630 	add	a, #0x0f
    00000213 DD 77 F7         [19]  631 	ld	-9 (ix), a
    00000216 DD 7E F6         [19]  632 	ld	a, -10 (ix)
    00000219 CE 02            [ 7]  633 	adc	a, #0x02
    0000021B DD 77 F8         [19]  634 	ld	-8 (ix), a
    0000021E 21r04r00         [10]  635 	ld	hl, #(_Field + 4)
    00000221 7E               [ 7]  636 	ld	a, (hl)
    00000222 DD 77 F9         [19]  637 	ld	-7 (ix), a
    00000225 23               [ 6]  638 	inc	hl
    00000226 7E               [ 7]  639 	ld	a, (hl)
    00000227 DD 77 FA         [19]  640 	ld	-6 (ix), a
    0000022A DD 7E F7         [19]  641 	ld	a, -9 (ix)
    0000022D DD 46 F8         [19]  642 	ld	b, -8 (ix)
    00000230 DD 96 F9         [19]  643 	sub	a, -7 (ix)
    00000233 4F               [ 4]  644 	ld	c, a
    00000234 78               [ 4]  645 	ld	a, b
    00000235 DD 9E FA         [19]  646 	sbc	a, -6 (ix)
    00000238 E6 01            [ 7]  647 	and	a, #0x01
    0000023A 47               [ 4]  648 	ld	b, a
    0000023B 79               [ 4]  649 	ld	a, c
    0000023C D6 CF            [ 7]  650 	sub	a, #0xcf
    0000023E 78               [ 4]  651 	ld	a, b
    0000023F DE 00            [ 7]  652 	sbc	a, #0x00
    00000241 30 27            [12]  653 	jr	NC, 00359$
    00000243 DD 4E F3         [19]  654 	ld	c, -13 (ix)
    00000246 DD 46 F4         [19]  655 	ld	b, -12 (ix)
    00000249 21 0F 00         [10]  656 	ld	hl, #15
    0000024C 09               [11]  657 	add	hl, bc
    0000024D 4E               [ 7]  658 	ld	c, (hl)
    0000024E 23               [ 6]  659 	inc	hl
    0000024F 46               [ 7]  660 	ld	b, (hl)
    00000250 DD 7E F5         [19]  661 	ld	a, -11 (ix)
    00000253 16 00            [ 7]  662 	ld	d, #0x00
    00000255 DD 86 F1         [19]  663 	add	a, -15 (ix)
    00000258 5F               [ 4]  664 	ld	e, a
    00000259 7A               [ 4]  665 	ld	a, d
    0000025A DD 8E F2         [19]  666 	adc	a, -14 (ix)
    0000025D 57               [ 4]  667 	ld	d, a
    0000025E DD 6E F3         [19]  668 	ld	l, -13 (ix)
    00000261 DD 66 F4         [19]  669 	ld	h, -12 (ix)
    00000264 6E               [ 7]  670 	ld	l, (hl)
                                    671 ;	spillPairReg hl
    00000265 C5               [11]  672 	push	bc
    00000266 7D               [ 4]  673 	ld	a, l
    00000267 CDr00r00         [17]  674 	call	_CallSpriteFrame
    0000026A                        675 00359$:
    0000026A DD 34 FF         [23]  676 	inc	-1 (ix)
    0000026D C3rDCr01         [10]  677 	jp	00358$
    00000270                        678 00109$:
                                    679 ;E:\Dropbox\FAUSTO\SVILUPPI\MSX\CODE\C\MSXgl\projects\soccerlgMSX2/soccerlg_s12_b3.c:54: if (ball_fg && OnScreen(SwSprite[14].ly)) CallSpriteFrame(SwSprite[14].lx, (SwSprite[14].ly & 255) + page, SwSprite[14].frame);
    00000270 DD 7E F0         [19]  680 	ld	a, -16 (ix)
    00000273 B7               [ 4]  681 	or	a, a
    00000274 28 3B            [12]  682 	jr	Z, 00465$
                                    683 ;E:\Dropbox\FAUSTO\SVILUPPI\MSX\CODE\C\MSXgl\projects\soccerlgMSX2/soccerlg_s12_b3.c:52: if (!ball_fg && OnScreen(SwSprite[14].ly)) CallSpriteFrame(SwSprite[14].lx, (SwSprite[14].ly & 255) + page, SwSprite[14].frame);
    00000276 ED 5Br46r01      [20]  684 	ld	de, (#(_SwSprite + 326) + 0)
                                    685 ;E:\Dropbox\FAUSTO\SVILUPPI\MSX\CODE\C\MSXgl\projects\soccerlgMSX2/soccerlg_s12_b3.c:54: if (ball_fg && OnScreen(SwSprite[14].ly)) CallSpriteFrame(SwSprite[14].lx, (SwSprite[14].ly & 255) + page, SwSprite[14].frame);
    0000027A 7A               [ 4]  686 	ld	a, d
    0000027B D6 02            [ 7]  687 	sub	a, #0x02
    0000027D 30 32            [12]  688 	jr	NC, 00465$
    0000027F 21 0F 02         [10]  689 	ld	hl, #0x020f
    00000282 19               [11]  690 	add	hl, de
    00000283 4D               [ 4]  691 	ld	c, l
    00000284 44               [ 4]  692 	ld	b, h
    00000285 2Ar04r00         [16]  693 	ld	hl, (#(_Field + 4) + 0)
    00000288 79               [ 4]  694 	ld	a, c
    00000289 95               [ 4]  695 	sub	a, l
    0000028A 4F               [ 4]  696 	ld	c, a
    0000028B 78               [ 4]  697 	ld	a, b
    0000028C 9C               [ 4]  698 	sbc	a, h
    0000028D E6 01            [ 7]  699 	and	a, #0x01
    0000028F 47               [ 4]  700 	ld	b, a
    00000290 79               [ 4]  701 	ld	a, c
    00000291 D6 CF            [ 7]  702 	sub	a, #0xcf
    00000293 78               [ 4]  703 	ld	a, b
    00000294 DE 00            [ 7]  704 	sbc	a, #0x00
    00000296 30 19            [12]  705 	jr	NC, 00465$
    00000298 ED 4Br51r01      [20]  706 	ld	bc, (#(_SwSprite + 337) + 0)
    0000029C 16 00            [ 7]  707 	ld	d, #0x00
    0000029E 7B               [ 4]  708 	ld	a, e
    0000029F DD 86 F1         [19]  709 	add	a, -15 (ix)
    000002A2 5F               [ 4]  710 	ld	e, a
    000002A3 7A               [ 4]  711 	ld	a, d
    000002A4 DD 8E F2         [19]  712 	adc	a, -14 (ix)
    000002A7 57               [ 4]  713 	ld	d, a
    000002A8 21r42r01         [10]  714 	ld	hl, #(_SwSprite + 322)
    000002AB 6E               [ 7]  715 	ld	l, (hl)
                                    716 ;	spillPairReg hl
    000002AC C5               [11]  717 	push	bc
    000002AD 7D               [ 4]  718 	ld	a, l
    000002AE CDr00r00         [17]  719 	call	_CallSpriteFrame
                                    720 ;E:\Dropbox\FAUSTO\SVILUPPI\MSX\CODE\C\MSXgl\projects\soccerlgMSX2/soccerlg_s12_b3.c:55: for (u8 i=15; i<NumSprite; i++) if (OnScreen(SwSprite[i].ly)) CallSpriteFrame(SwSprite[i].lx, (SwSprite[i].ly & 255) + page, SwSprite[i].frame);
    000002B1                        721 00465$:
    000002B1 0E 0F            [ 7]  722 	ld	c, #0x0f
    000002B3                        723 00361$:
    000002B3 79               [ 4]  724 	ld	a, c
    000002B4 D6 25            [ 7]  725 	sub	a, #0x25
    000002B6 30 79            [12]  726 	jr	NC, 00365$
    000002B8 06 00            [ 7]  727 	ld	b, #0x00
    000002BA 69               [ 4]  728 	ld	l, c
    000002BB 60               [ 4]  729 	ld	h, b
    000002BC 29               [11]  730 	add	hl, hl
    000002BD 29               [11]  731 	add	hl, hl
    000002BE 09               [11]  732 	add	hl, bc
    000002BF 29               [11]  733 	add	hl, hl
    000002C0 09               [11]  734 	add	hl, bc
    000002C1 29               [11]  735 	add	hl, hl
    000002C2 09               [11]  736 	add	hl, bc
    000002C3 11r00r00         [10]  737 	ld	de, #_SwSprite
    000002C6 19               [11]  738 	add	hl, de
    000002C7 DD 75 F7         [19]  739 	ld	-9 (ix), l
    000002CA DD 74 F8         [19]  740 	ld	-8 (ix), h
    000002CD 11 04 00         [10]  741 	ld	de, #4
    000002D0 19               [11]  742 	add	hl, de
    000002D1 46               [ 7]  743 	ld	b, (hl)
    000002D2 23               [ 6]  744 	inc	hl
    000002D3 7E               [ 7]  745 	ld	a, (hl)
    000002D4 DD 70 F9         [19]  746 	ld	-7 (ix), b
    000002D7 DD 77 FA         [19]  747 	ld	-6 (ix), a
    000002DA D6 02            [ 7]  748 	sub	a, #0x02
    000002DC 30 4F            [12]  749 	jr	NC, 00362$
    000002DE DD 7E F9         [19]  750 	ld	a, -7 (ix)
    000002E1 C6 0F            [ 7]  751 	add	a, #0x0f
    000002E3 5F               [ 4]  752 	ld	e, a
    000002E4 DD 7E FA         [19]  753 	ld	a, -6 (ix)
    000002E7 CE 02            [ 7]  754 	adc	a, #0x02
    000002E9 57               [ 4]  755 	ld	d, a
    000002EA 2Ar04r00         [16]  756 	ld	hl, (#(_Field + 4) + 0)
    000002ED 7B               [ 4]  757 	ld	a, e
    000002EE 95               [ 4]  758 	sub	a, l
    000002EF 5F               [ 4]  759 	ld	e, a
    000002F0 7A               [ 4]  760 	ld	a, d
    000002F1 9C               [ 4]  761 	sbc	a, h
    000002F2 E6 01            [ 7]  762 	and	a, #0x01
    000002F4 47               [ 4]  763 	ld	b, a
    000002F5 7B               [ 4]  764 	ld	a, e
    000002F6 D6 CF            [ 7]  765 	sub	a, #0xcf
    000002F8 78               [ 4]  766 	ld	a, b
    000002F9 DE 00            [ 7]  767 	sbc	a, #0x00
    000002FB 30 30            [12]  768 	jr	NC, 00362$
    000002FD DD 5E F7         [19]  769 	ld	e, -9 (ix)
    00000300 DD 56 F8         [19]  770 	ld	d, -8 (ix)
    00000303 21 0F 00         [10]  771 	ld	hl, #15
    00000306 19               [11]  772 	add	hl, de
    00000307 5E               [ 7]  773 	ld	e, (hl)
    00000308 23               [ 6]  774 	inc	hl
    00000309 56               [ 7]  775 	ld	d, (hl)
    0000030A DD 6E F9         [19]  776 	ld	l, -7 (ix)
                                    777 ;	spillPairReg hl
                                    778 ;	spillPairReg hl
    0000030D 26 00            [ 7]  779 	ld	h, #0x00
                                    780 ;	spillPairReg hl
                                    781 ;	spillPairReg hl
    0000030F E5               [11]  782 	push	hl
    00000310 FD E1            [14]  783 	pop	iy
    00000312 C5               [11]  784 	push	bc
    00000313 DD 4E F1         [19]  785 	ld	c, -15 (ix)
    00000316 DD 46 F2         [19]  786 	ld	b, -14 (ix)
    00000319 FD 09            [15]  787 	add	iy, bc
    0000031B C1               [10]  788 	pop	bc
    0000031C DD 6E F7         [19]  789 	ld	l, -9 (ix)
    0000031F DD 66 F8         [19]  790 	ld	h, -8 (ix)
    00000322 46               [ 7]  791 	ld	b, (hl)
    00000323 C5               [11]  792 	push	bc
    00000324 D5               [11]  793 	push	de
    00000325 FD E5            [15]  794 	push	iy
    00000327 D1               [10]  795 	pop	de
    00000328 78               [ 4]  796 	ld	a, b
    00000329 CDr00r00         [17]  797 	call	_CallSpriteFrame
    0000032C C1               [10]  798 	pop	bc
    0000032D                        799 00362$:
    0000032D 0C               [ 4]  800 	inc	c
    0000032E C3rB3r02         [10]  801 	jp	00361$
    00000331                        802 00365$:
                                    803 ;E:\Dropbox\FAUSTO\SVILUPPI\MSX\CODE\C\MSXgl\projects\soccerlgMSX2/soccerlg_s12_b3.c:50: for (u16 page = 0; page <= 512; page += 256) {
    00000331 DD 4E F1         [19]  804 	ld	c, -15 (ix)
    00000334 DD 7E F2         [19]  805 	ld	a, -14 (ix)
    00000337 3C               [ 4]  806 	inc	a
    00000338 DD 71 F1         [19]  807 	ld	-15 (ix), c
    0000033B DD 77 F2         [19]  808 	ld	-14 (ix), a
    0000033E C3r76r01         [10]  809 	jp	00364$
                                    810 ;E:\Dropbox\FAUSTO\SVILUPPI\MSX\CODE\C\MSXgl\projects\soccerlgMSX2/soccerlg_s12_b3.c:59: for (u8 i = 0; i < NumSprite; i++) {
    00000341                        811 00468$:
    00000341 0E 00            [ 7]  812 	ld	c, #0x00
    00000343                        813 00367$:
    00000343 79               [ 4]  814 	ld	a, c
    00000344 D6 25            [ 7]  815 	sub	a, #0x25
    00000346 30 7B            [12]  816 	jr	NC, 00119$
                                    817 ;E:\Dropbox\FAUSTO\SVILUPPI\MSX\CODE\C\MSXgl\projects\soccerlgMSX2/soccerlg_s12_b3.c:60: SwSprite[i].x0 = SwSprite[i].x1 = SwSprite[i].x2 = SwSprite[i].lx;
    00000348 06 00            [ 7]  818 	ld	b, #0x00
    0000034A 69               [ 4]  819 	ld	l, c
    0000034B 60               [ 4]  820 	ld	h, b
    0000034C 29               [11]  821 	add	hl, hl
    0000034D 29               [11]  822 	add	hl, hl
    0000034E 09               [11]  823 	add	hl, bc
    0000034F 29               [11]  824 	add	hl, hl
    00000350 09               [11]  825 	add	hl, bc
    00000351 29               [11]  826 	add	hl, hl
    00000352 09               [11]  827 	add	hl, bc
    00000353 11r00r00         [10]  828 	ld	de, #_SwSprite
    00000356 19               [11]  829 	add	hl, de
    00000357 5D               [ 4]  830 	ld	e, l
    00000358 54               [ 4]  831 	ld	d, h
    00000359 23               [ 6]  832 	inc	hl
    0000035A DD 75 F7         [19]  833 	ld	-9 (ix), l
    0000035D DD 74 F8         [19]  834 	ld	-8 (ix), h
    00000360 21 02 00         [10]  835 	ld	hl, #0x0002
    00000363 19               [11]  836 	add	hl, de
    00000364 DD 75 F9         [19]  837 	ld	-7 (ix), l
    00000367 DD 74 FA         [19]  838 	ld	-6 (ix), h
    0000036A 6B               [ 4]  839 	ld	l, e
                                    840 ;	spillPairReg hl
                                    841 ;	spillPairReg hl
    0000036B 62               [ 4]  842 	ld	h, d
                                    843 ;	spillPairReg hl
                                    844 ;	spillPairReg hl
    0000036C 23               [ 6]  845 	inc	hl
    0000036D 23               [ 6]  846 	inc	hl
    0000036E 23               [ 6]  847 	inc	hl
    0000036F 1A               [ 7]  848 	ld	a, (de)
    00000370 77               [ 7]  849 	ld	(hl), a
    00000371 DD 6E F9         [19]  850 	ld	l, -7 (ix)
    00000374 DD 66 FA         [19]  851 	ld	h, -6 (ix)
    00000377 77               [ 7]  852 	ld	(hl), a
    00000378 DD 6E F7         [19]  853 	ld	l, -9 (ix)
    0000037B DD 66 F8         [19]  854 	ld	h, -8 (ix)
    0000037E 77               [ 7]  855 	ld	(hl), a
                                    856 ;E:\Dropbox\FAUSTO\SVILUPPI\MSX\CODE\C\MSXgl\projects\soccerlgMSX2/soccerlg_s12_b3.c:61: SwSprite[i].y0 = SwSprite[i].y1 = SwSprite[i].y2 = SwSprite[i].ly;
    0000037F 21 06 00         [10]  857 	ld	hl, #0x0006
    00000382 19               [11]  858 	add	hl, de
    00000383 DD 75 F5         [19]  859 	ld	-11 (ix), l
    00000386 DD 74 F6         [19]  860 	ld	-10 (ix), h
    00000389 21 08 00         [10]  861 	ld	hl, #0x0008
    0000038C 19               [11]  862 	add	hl, de
    0000038D DD 75 F7         [19]  863 	ld	-9 (ix), l
    00000390 DD 74 F8         [19]  864 	ld	-8 (ix), h
    00000393 21 0A 00         [10]  865 	ld	hl, #0x000a
    00000396 19               [11]  866 	add	hl, de
    00000397 DD 75 F9         [19]  867 	ld	-7 (ix), l
    0000039A DD 74 FA         [19]  868 	ld	-6 (ix), h
    0000039D 21 04 00         [10]  869 	ld	hl, #4
    000003A0 19               [11]  870 	add	hl, de
    000003A1 46               [ 7]  871 	ld	b, (hl)
    000003A2 23               [ 6]  872 	inc	hl
    000003A3 5E               [ 7]  873 	ld	e, (hl)
    000003A4 DD 6E F9         [19]  874 	ld	l, -7 (ix)
    000003A7 DD 66 FA         [19]  875 	ld	h, -6 (ix)
    000003AA 70               [ 7]  876 	ld	(hl), b
    000003AB 23               [ 6]  877 	inc	hl
    000003AC 73               [ 7]  878 	ld	(hl), e
    000003AD DD 6E F7         [19]  879 	ld	l, -9 (ix)
    000003B0 DD 66 F8         [19]  880 	ld	h, -8 (ix)
    000003B3 70               [ 7]  881 	ld	(hl), b
    000003B4 23               [ 6]  882 	inc	hl
    000003B5 73               [ 7]  883 	ld	(hl), e
    000003B6 DD 6E F5         [19]  884 	ld	l, -11 (ix)
    000003B9 DD 66 F6         [19]  885 	ld	h, -10 (ix)
    000003BC 70               [ 7]  886 	ld	(hl), b
    000003BD 23               [ 6]  887 	inc	hl
    000003BE 73               [ 7]  888 	ld	(hl), e
                                    889 ;E:\Dropbox\FAUSTO\SVILUPPI\MSX\CODE\C\MSXgl\projects\soccerlgMSX2/soccerlg_s12_b3.c:59: for (u8 i = 0; i < NumSprite; i++) {
    000003BF 0C               [ 4]  890 	inc	c
    000003C0 C3r43r03         [10]  891 	jp	00367$
    000003C3                        892 00119$:
                                    893 ;E:\Dropbox\FAUSTO\SVILUPPI\MSX\CODE\C\MSXgl\projects\soccerlgMSX2/soccerlg_s12_b3.c:65: CallFnc_VOID_U8U16U16(SEG_DRAW, PrintScoreBoardLeft, ScoreBoardLeft.lx, Field.ly, 0);
    000003C3 ED 4Br04r00      [20]  894 	ld	bc, (#(_Field + 4) + 0)
    000003C7 3Ar00r00         [13]  895 	ld	a, (#_ScoreBoardLeft + 0)
    000003CA 21 00 00         [10]  896 	ld	hl, #0x0000
    000003CD E5               [11]  897 	push	hl
    000003CE C5               [11]  898 	push	bc
    000003CF F5               [11]  899 	push	af
    000003D0 33               [ 6]  900 	inc	sp
    000003D1 11r00r00         [10]  901 	ld	de, #_PrintScoreBoardLeft
    000003D4 3E 05            [ 7]  902 	ld	a, #0x05
    000003D6 CDr00r00         [17]  903 	call	_CallFnc_VOID_U8U16U16
                                    904 ;E:\Dropbox\FAUSTO\SVILUPPI\MSX\CODE\C\MSXgl\projects\soccerlgMSX2/soccerlg_s12_b3.c:66: CallFnc_VOID_U8U16U16(SEG_DRAW, PrintScoreBoardRight, ScoreBoardRight.lx, Field.ly, 0);
    000003D9 ED 4Br04r00      [20]  905 	ld	bc, (#(_Field + 4) + 0)
    000003DD 3Ar00r00         [13]  906 	ld	a, (#_ScoreBoardRight + 0)
    000003E0 21 00 00         [10]  907 	ld	hl, #0x0000
    000003E3 E5               [11]  908 	push	hl
    000003E4 C5               [11]  909 	push	bc
    000003E5 F5               [11]  910 	push	af
    000003E6 33               [ 6]  911 	inc	sp
    000003E7 11r00r00         [10]  912 	ld	de, #_PrintScoreBoardRight
    000003EA 3E 05            [ 7]  913 	ld	a, #0x05
    000003EC CDr00r00         [17]  914 	call	_CallFnc_VOID_U8U16U16
                                    915 ;E:\Dropbox\FAUSTO\SVILUPPI\MSX\CODE\C\MSXgl\projects\soccerlgMSX2/soccerlg_s12_b3.c:67: CallFnc_VOID_U8U16U16(SEG_DRAW, PrintScoreBoardLeft, ScoreBoardLeft.lx, Field.ly, 256);
    000003EF ED 4Br04r00      [20]  916 	ld	bc, (#(_Field + 4) + 0)
    000003F3 3Ar00r00         [13]  917 	ld	a, (#_ScoreBoardLeft + 0)
    000003F6 21 00 01         [10]  918 	ld	hl, #0x0100
    000003F9 E5               [11]  919 	push	hl
    000003FA C5               [11]  920 	push	bc
    000003FB F5               [11]  921 	push	af
    000003FC 33               [ 6]  922 	inc	sp
    000003FD 11r00r00         [10]  923 	ld	de, #_PrintScoreBoardLeft
    00000400 3E 05            [ 7]  924 	ld	a, #0x05
    00000402 CDr00r00         [17]  925 	call	_CallFnc_VOID_U8U16U16
                                    926 ;E:\Dropbox\FAUSTO\SVILUPPI\MSX\CODE\C\MSXgl\projects\soccerlgMSX2/soccerlg_s12_b3.c:68: CallFnc_VOID_U8U16U16(SEG_DRAW, PrintScoreBoardRight, ScoreBoardRight.lx, Field.ly, 256);
    00000405 ED 4Br04r00      [20]  927 	ld	bc, (#(_Field + 4) + 0)
    00000409 3Ar00r00         [13]  928 	ld	a, (#_ScoreBoardRight + 0)
    0000040C 21 00 01         [10]  929 	ld	hl, #0x0100
    0000040F E5               [11]  930 	push	hl
    00000410 C5               [11]  931 	push	bc
    00000411 F5               [11]  932 	push	af
    00000412 33               [ 6]  933 	inc	sp
    00000413 11r00r00         [10]  934 	ld	de, #_PrintScoreBoardRight
    00000416 3E 05            [ 7]  935 	ld	a, #0x05
    00000418 CDr00r00         [17]  936 	call	_CallFnc_VOID_U8U16U16
                                    937 ;E:\Dropbox\FAUSTO\SVILUPPI\MSX\CODE\C\MSXgl\projects\soccerlgMSX2/soccerlg_s12_b3.c:69: CallFnc_VOID_U8U16U16(SEG_DRAW, PrintScoreBoardLeft, ScoreBoardLeft.lx, Field.ly, 512);
    0000041B ED 4Br04r00      [20]  938 	ld	bc, (#(_Field + 4) + 0)
    0000041F 3Ar00r00         [13]  939 	ld	a, (#_ScoreBoardLeft + 0)
    00000422 21 00 02         [10]  940 	ld	hl, #0x0200
    00000425 E5               [11]  941 	push	hl
    00000426 C5               [11]  942 	push	bc
    00000427 F5               [11]  943 	push	af
    00000428 33               [ 6]  944 	inc	sp
    00000429 11r00r00         [10]  945 	ld	de, #_PrintScoreBoardLeft
    0000042C 3E 05            [ 7]  946 	ld	a, #0x05
    0000042E CDr00r00         [17]  947 	call	_CallFnc_VOID_U8U16U16
                                    948 ;E:\Dropbox\FAUSTO\SVILUPPI\MSX\CODE\C\MSXgl\projects\soccerlgMSX2/soccerlg_s12_b3.c:70: CallFnc_VOID_U8U16U16(SEG_DRAW, PrintScoreBoardRight, ScoreBoardRight.lx, Field.ly, 512);
    00000431 ED 4Br04r00      [20]  949 	ld	bc, (#(_Field + 4) + 0)
    00000435 3Ar00r00         [13]  950 	ld	a, (#_ScoreBoardRight + 0)
    00000438 21 00 02         [10]  951 	ld	hl, #0x0200
    0000043B E5               [11]  952 	push	hl
    0000043C C5               [11]  953 	push	bc
    0000043D F5               [11]  954 	push	af
    0000043E 33               [ 6]  955 	inc	sp
    0000043F 11r00r00         [10]  956 	ld	de, #_PrintScoreBoardRight
    00000442 3E 05            [ 7]  957 	ld	a, #0x05
    00000444 CDr00r00         [17]  958 	call	_CallFnc_VOID_U8U16U16
                                    959 ;E:\Dropbox\FAUSTO\SVILUPPI\MSX\CODE\C\MSXgl\projects\soccerlgMSX2/soccerlg_s12_b3.c:72: *game_state = 2;
    00000447 DD 6E FD         [19]  960 	ld	l, -3 (ix)
    0000044A DD 66 FE         [19]  961 	ld	h, -2 (ix)
    0000044D 36 02            [10]  962 	ld	(hl), #0x02
    0000044F                        963 00123$:
                                    964 ;E:\Dropbox\FAUSTO\SVILUPPI\MSX\CODE\C\MSXgl\projects\soccerlgMSX2/soccerlg_s12_b3.c:75: *start_sec = Frms;
    0000044F DD 6E EE         [19]  965 	ld	l, -18 (ix)
    00000452 DD 66 EF         [19]  966 	ld	h, -17 (ix)
    00000455 3Ar00r00         [13]  967 	ld	a, (_Frms+0)
    00000458 77               [ 7]  968 	ld	(hl), a
    00000459 C3r5Dr1A         [10]  969 	jp	00391$
    0000045C                        970 00351$:
                                    971 ;E:\Dropbox\FAUSTO\SVILUPPI\MSX\CODE\C\MSXgl\projects\soccerlgMSX2/soccerlg_s12_b3.c:77: } else if (*game_state == 5) {
    0000045C DD 7E FF         [19]  972 	ld	a, -1 (ix)
    0000045F D6 05            [ 7]  973 	sub	a, #0x05
    00000461 C2rEEr04         [10]  974 	jp	NZ,00348$
                                    975 ;E:\Dropbox\FAUSTO\SVILUPPI\MSX\CODE\C\MSXgl\projects\soccerlgMSX2/soccerlg_s12_b3.c:79: if (*wait_secs > 0) {
    00000464 DD 6E FB         [19]  976 	ld	l, -5 (ix)
    00000467 DD 66 FC         [19]  977 	ld	h, -4 (ix)
    0000046A 4E               [ 7]  978 	ld	c, (hl)
    0000046B 79               [ 4]  979 	ld	a, c
    0000046C B7               [ 4]  980 	or	a, a
    0000046D CAr5Dr1A         [10]  981 	jp	Z, 00391$
                                    982 ;E:\Dropbox\FAUSTO\SVILUPPI\MSX\CODE\C\MSXgl\projects\soccerlgMSX2/soccerlg_s12_b3.c:80: if (*start_sec < Frms) { // Frms wrapped from 1 to 60
    00000470 DD 5E 04         [19]  983 	ld	e, 4 (ix)
    00000473 DD 56 05         [19]  984 	ld	d, 5 (ix)
    00000476 1A               [ 7]  985 	ld	a, (de)
    00000477 47               [ 4]  986 	ld	b, a
    00000478 21r00r00         [10]  987 	ld	hl, #_Frms
    0000047B 78               [ 4]  988 	ld	a, b
    0000047C 96               [ 7]  989 	sub	a, (hl)
    0000047D 30 68            [12]  990 	jr	NC, 00132$
                                    991 ;E:\Dropbox\FAUSTO\SVILUPPI\MSX\CODE\C\MSXgl\projects\soccerlgMSX2/soccerlg_s12_b3.c:81: (*wait_secs)--;
    0000047F 79               [ 4]  992 	ld	a, c
    00000480 3D               [ 4]  993 	dec	a
    00000481 DD 6E FB         [19]  994 	ld	l, -5 (ix)
    00000484 DD 66 FC         [19]  995 	ld	h, -4 (ix)
    00000487 77               [ 7]  996 	ld	(hl), a
                                    997 ;E:\Dropbox\FAUSTO\SVILUPPI\MSX\CODE\C\MSXgl\projects\soccerlgMSX2/soccerlg_s12_b3.c:82: if (*wait_secs == 0) {
    00000488 B7               [ 4]  998 	or	a, a
    00000489 20 5C            [12]  999 	jr	NZ, 00132$
                                   1000 ;E:\Dropbox\FAUSTO\SVILUPPI\MSX\CODE\C\MSXgl\projects\soccerlgMSX2/soccerlg_s12_b3.c:83: CallFnc_VOID(SEG_DRAW, HideSpriteMessage);
    0000048B D5               [11] 1001 	push	de
    0000048C 11r00r00         [10] 1002 	ld	de, #_HideSpriteMessage
    0000048F 3E 05            [ 7] 1003 	ld	a, #0x05
    00000491 CDr00r00         [17] 1004 	call	_CallFnc_VOID
    00000494 11r00r00         [10] 1005 	ld	de, #_EventTimeUp
    00000497 3E 08            [ 7] 1006 	ld	a, #0x08
    00000499 CDr00r00         [17] 1007 	call	_CallFnc_VOID
    0000049C D1               [10] 1008 	pop	de
                                   1009 ;E:\Dropbox\FAUSTO\SVILUPPI\MSX\CODE\C\MSXgl\projects\soccerlgMSX2/soccerlg_s12_b3.c:86: if (ScoreTeam1 != ScoreTeam2) {
    0000049D 3Ar00r00         [13] 1010 	ld	a, (_ScoreTeam1+0)
    000004A0 21r00r00         [10] 1011 	ld	hl, #_ScoreTeam2
    000004A3 96               [ 7] 1012 	sub	a, (hl)
    000004A4 28 1F            [12] 1013 	jr	Z, 00127$
                                   1014 ;E:\Dropbox\FAUSTO\SVILUPPI\MSX\CODE\C\MSXgl\projects\soccerlgMSX2/soccerlg_s12_b3.c:87: *game_state = 10; // Vittoria: Esultanza e Uscita
    000004A6 DD 6E FD         [19] 1015 	ld	l, -3 (ix)
    000004A9 DD 66 FE         [19] 1016 	ld	h, -2 (ix)
    000004AC 36 0A            [10] 1017 	ld	(hl), #0x0a
                                   1018 ;E:\Dropbox\FAUSTO\SVILUPPI\MSX\CODE\C\MSXgl\projects\soccerlgMSX2/soccerlg_s12_b3.c:88: *wait_secs = 3;
    000004AE DD 6E FB         [19] 1019 	ld	l, -5 (ix)
    000004B1 DD 66 FC         [19] 1020 	ld	h, -4 (ix)
    000004B4 36 03            [10] 1021 	ld	(hl), #0x03
                                   1022 ;E:\Dropbox\FAUSTO\SVILUPPI\MSX\CODE\C\MSXgl\projects\soccerlgMSX2/soccerlg_s12_b3.c:89: *start_sec = Frms;
    000004B6 3Ar00r00         [13] 1023 	ld	a, (_Frms+0)
    000004B9 12               [ 7] 1024 	ld	(de), a
                                   1025 ;E:\Dropbox\FAUSTO\SVILUPPI\MSX\CODE\C\MSXgl\projects\soccerlgMSX2/soccerlg_s12_b3.c:90: g_is_penalty_shootout = FALSE;
    000004BA FD 21r00r00      [14] 1026 	ld	iy, #_g_is_penalty_shootout
    000004BE FD 36 00 00      [19] 1027 	ld	0 (iy), #0x00
    000004C2 C3rE7r04         [10] 1028 	jp	00132$
    000004C5                       1029 00127$:
                                   1030 ;E:\Dropbox\FAUSTO\SVILUPPI\MSX\CODE\C\MSXgl\projects\soccerlgMSX2/soccerlg_s12_b3.c:92: *game_state = 11; // Pareggio: Setup Rigori
    000004C5 DD 6E FD         [19] 1031 	ld	l, -3 (ix)
    000004C8 DD 66 FE         [19] 1032 	ld	h, -2 (ix)
    000004CB 36 0B            [10] 1033 	ld	(hl), #0x0b
                                   1034 ;E:\Dropbox\FAUSTO\SVILUPPI\MSX\CODE\C\MSXgl\projects\soccerlgMSX2/soccerlg_s12_b3.c:93: CallFnc_VOID_16_P1(SEG_DRAW, ShowSpriteMessage, SPR_MSG_PENALTIES);
    000004CD D5               [11] 1035 	push	de
    000004CE 21 49 01         [10] 1036 	ld	hl, #0x0149
    000004D1 E5               [11] 1037 	push	hl
    000004D2 11r00r00         [10] 1038 	ld	de, #_ShowSpriteMessage
    000004D5 3E 05            [ 7] 1039 	ld	a, #0x05
    000004D7 CDr00r00         [17] 1040 	call	_CallFnc_VOID_16_P1
    000004DA D1               [10] 1041 	pop	de
                                   1042 ;E:\Dropbox\FAUSTO\SVILUPPI\MSX\CODE\C\MSXgl\projects\soccerlgMSX2/soccerlg_s12_b3.c:94: *wait_secs = 2;
    000004DB DD 6E FB         [19] 1043 	ld	l, -5 (ix)
    000004DE DD 66 FC         [19] 1044 	ld	h, -4 (ix)
    000004E1 36 02            [10] 1045 	ld	(hl), #0x02
                                   1046 ;E:\Dropbox\FAUSTO\SVILUPPI\MSX\CODE\C\MSXgl\projects\soccerlgMSX2/soccerlg_s12_b3.c:95: *start_sec = Frms;
    000004E3 3Ar00r00         [13] 1047 	ld	a, (_Frms+0)
    000004E6 12               [ 7] 1048 	ld	(de), a
    000004E7                       1049 00132$:
                                   1050 ;E:\Dropbox\FAUSTO\SVILUPPI\MSX\CODE\C\MSXgl\projects\soccerlgMSX2/soccerlg_s12_b3.c:99: *start_sec = Frms;
    000004E7 3Ar00r00         [13] 1051 	ld	a, (_Frms+0)
    000004EA 12               [ 7] 1052 	ld	(de), a
    000004EB C3r5Dr1A         [10] 1053 	jp	00391$
    000004EE                       1054 00348$:
                                   1055 ;E:\Dropbox\FAUSTO\SVILUPPI\MSX\CODE\C\MSXgl\projects\soccerlgMSX2/soccerlg_s12_b3.c:101: } else if (*game_state == 6) {
    000004EE DD 7E FF         [19] 1056 	ld	a, -1 (ix)
    000004F1 D6 06            [ 7] 1057 	sub	a, #0x06
    000004F3 C2rF5r09         [10] 1058 	jp	NZ,00345$
                                   1059 ;E:\Dropbox\FAUSTO\SVILUPPI\MSX\CODE\C\MSXgl\projects\soccerlgMSX2/soccerlg_s12_b3.c:103: if (*wait_secs > 0) {
    000004F6 DD 6E FB         [19] 1060 	ld	l, -5 (ix)
    000004F9 DD 66 FC         [19] 1061 	ld	h, -4 (ix)
    000004FC 7E               [ 7] 1062 	ld	a, (hl)
    000004FD DD 77 FF         [19] 1063 	ld	-1 (ix), a
    00000500 B7               [ 4] 1064 	or	a, a
    00000501 CAr5Dr1A         [10] 1065 	jp	Z, 00391$
                                   1066 ;E:\Dropbox\FAUSTO\SVILUPPI\MSX\CODE\C\MSXgl\projects\soccerlgMSX2/soccerlg_s12_b3.c:104: if (*start_sec < Frms) { // Frms wrapped from 1 to 60
    00000504 DD 7E 04         [19] 1067 	ld	a, 4 (ix)
    00000507 DD 77 F1         [19] 1068 	ld	-15 (ix), a
    0000050A DD 7E 05         [19] 1069 	ld	a, 5 (ix)
    0000050D DD 77 F2         [19] 1070 	ld	-14 (ix), a
    00000510 DD 6E F1         [19] 1071 	ld	l, -15 (ix)
    00000513 DD 66 F2         [19] 1072 	ld	h, -14 (ix)
    00000516 4E               [ 7] 1073 	ld	c, (hl)
    00000517 21r00r00         [10] 1074 	ld	hl, #_Frms
    0000051A 79               [ 4] 1075 	ld	a, c
    0000051B 96               [ 7] 1076 	sub	a, (hl)
    0000051C D2rE8r09         [10] 1077 	jp	NC, 00180$
                                   1078 ;E:\Dropbox\FAUSTO\SVILUPPI\MSX\CODE\C\MSXgl\projects\soccerlgMSX2/soccerlg_s12_b3.c:105: (*wait_secs)--;
    0000051F DD 7E FF         [19] 1079 	ld	a, -1 (ix)
    00000522 3D               [ 4] 1080 	dec	a
    00000523 DD 6E FB         [19] 1081 	ld	l, -5 (ix)
    00000526 DD 66 FC         [19] 1082 	ld	h, -4 (ix)
    00000529 77               [ 7] 1083 	ld	(hl), a
                                   1084 ;E:\Dropbox\FAUSTO\SVILUPPI\MSX\CODE\C\MSXgl\projects\soccerlgMSX2/soccerlg_s12_b3.c:106: if (*wait_secs == 0) {
    0000052A B7               [ 4] 1085 	or	a, a
    0000052B C2rE8r09         [10] 1086 	jp	NZ, 00180$
                                   1087 ;E:\Dropbox\FAUSTO\SVILUPPI\MSX\CODE\C\MSXgl\projects\soccerlgMSX2/soccerlg_s12_b3.c:107: CallFnc_VOID(SEG_DRAW, HideSpriteMessage);
    0000052E 11r00r00         [10] 1088 	ld	de, #_HideSpriteMessage
    00000531 3E 05            [ 7] 1089 	ld	a, #0x05
    00000533 CDr00r00         [17] 1090 	call	_CallFnc_VOID
                                   1091 ;E:\Dropbox\FAUSTO\SVILUPPI\MSX\CODE\C\MSXgl\projects\soccerlgMSX2/soccerlg_s12_b3.c:109: if (RestartType == RESTART_THROWIN) {
    00000536 3Ar00r00         [13] 1092 	ld	a, (_RestartType+0)
    00000539 3D               [ 4] 1093 	dec	a
    0000053A 20 0B            [12] 1094 	jr	NZ, 00145$
                                   1095 ;E:\Dropbox\FAUSTO\SVILUPPI\MSX\CODE\C\MSXgl\projects\soccerlgMSX2/soccerlg_s12_b3.c:110: CallFnc_VOID(SEG_GAMESTATE_2, AssignThrowInTargets);
    0000053C 11r00r00         [10] 1096 	ld	de, #_AssignThrowInTargets
    0000053F 3E 0B            [ 7] 1097 	ld	a, #0x0b
    00000541 CDr00r00         [17] 1098 	call	_CallFnc_VOID
    00000544 C3rAAr05         [10] 1099 	jp	00146$
    00000547                       1100 00145$:
                                   1101 ;E:\Dropbox\FAUSTO\SVILUPPI\MSX\CODE\C\MSXgl\projects\soccerlgMSX2/soccerlg_s12_b3.c:111: } else if (RestartType == RESTART_GOALKICK || RestartType == RESTART_GKSAVE) {
    00000547 3Ar00r00         [13] 1102 	ld	a,(_RestartType+0)
    0000054A FE 02            [ 7] 1103 	cp	a,#0x02
    0000054C 28 04            [12] 1104 	jr	Z, 00140$
    0000054E D6 04            [ 7] 1105 	sub	a, #0x04
    00000550 20 0B            [12] 1106 	jr	NZ, 00141$
    00000552                       1107 00140$:
                                   1108 ;E:\Dropbox\FAUSTO\SVILUPPI\MSX\CODE\C\MSXgl\projects\soccerlgMSX2/soccerlg_s12_b3.c:112: CallFnc_VOID(SEG_GAMESTATE_2, AssignGoalKickTargets);
    00000552 11r00r00         [10] 1109 	ld	de, #_AssignGoalKickTargets
    00000555 3E 0B            [ 7] 1110 	ld	a, #0x0b
    00000557 CDr00r00         [17] 1111 	call	_CallFnc_VOID
    0000055A C3rAAr05         [10] 1112 	jp	00146$
    0000055D                       1113 00141$:
                                   1114 ;E:\Dropbox\FAUSTO\SVILUPPI\MSX\CODE\C\MSXgl\projects\soccerlgMSX2/soccerlg_s12_b3.c:113: } else if (RestartType == RESTART_CORNERKICK) {
    0000055D 3Ar00r00         [13] 1115 	ld	a, (_RestartType+0)
    00000560 D6 03            [ 7] 1116 	sub	a, #0x03
    00000562 20 0B            [12] 1117 	jr	NZ, 00138$
                                   1118 ;E:\Dropbox\FAUSTO\SVILUPPI\MSX\CODE\C\MSXgl\projects\soccerlgMSX2/soccerlg_s12_b3.c:114: CallFnc_VOID(SEG_GAMESTATE_2, AssignCornerKickTargets);
    00000564 11r00r00         [10] 1119 	ld	de, #_AssignCornerKickTargets
    00000567 3E 0B            [ 7] 1120 	ld	a, #0x0b
    00000569 CDr00r00         [17] 1121 	call	_CallFnc_VOID
    0000056C C3rAAr05         [10] 1122 	jp	00146$
    0000056F                       1123 00138$:
                                   1124 ;E:\Dropbox\FAUSTO\SVILUPPI\MSX\CODE\C\MSXgl\projects\soccerlgMSX2/soccerlg_s12_b3.c:117: SwSprite[14].lx = BALL_START_X;
    0000056F 21r42r01         [10] 1125 	ld	hl, #(_SwSprite + 322)
    00000572 36 78            [10] 1126 	ld	(hl), #0x78
                                   1127 ;E:\Dropbox\FAUSTO\SVILUPPI\MSX\CODE\C\MSXgl\projects\soccerlgMSX2/soccerlg_s12_b3.c:118: SwSprite[14].ly = BALL_START_Y;
    00000574 21 00 01         [10] 1128 	ld	hl, #0x0100
    00000577 22r46r01         [16] 1129 	ld	((_SwSprite + 326)), hl
                                   1130 ;E:\Dropbox\FAUSTO\SVILUPPI\MSX\CODE\C\MSXgl\projects\soccerlgMSX2/soccerlg_s12_b3.c:119: SwSprite[14].dx = 0; SwSprite[14].dy = 0; SwSprite[14].anim = 0;
    0000057A 21r53r01         [10] 1131 	ld	hl, #(_SwSprite + 339)
    0000057D 36 00            [10] 1132 	ld	(hl), #0x00
    0000057F 21r54r01         [10] 1133 	ld	hl, #(_SwSprite + 340)
    00000582 36 00            [10] 1134 	ld	(hl), #0x00
    00000584 21 00 00         [10] 1135 	ld	hl, #0x0000
    00000587 22r55r01         [16] 1136 	ld	((_SwSprite + 341)), hl
                                   1137 ;E:\Dropbox\FAUSTO\SVILUPPI\MSX\CODE\C\MSXgl\projects\soccerlgMSX2/soccerlg_s12_b3.c:120: SwSprite[14].frame = SPR_BALL_SIZE_1;
    0000058A 2E 60            [ 7] 1138 	ld	l, #0x60
    0000058C 22r51r01         [16] 1139 	ld	((_SwSprite + 337)), hl
                                   1140 ;E:\Dropbox\FAUSTO\SVILUPPI\MSX\CODE\C\MSXgl\projects\soccerlgMSX2/soccerlg_s12_b3.c:122: if (RestartType != RESTART_GOAL) Field.ly = target_ly; // Teletrasporta solo se NON è un Goal
    0000058F 3Ar00r00         [13] 1141 	ld	a, (_RestartType+0)
    00000592 D6 05            [ 7] 1142 	sub	a, #0x05
    00000594 28 0C            [12] 1143 	jr	Z, 00136$
    00000596 21r04r00         [10] 1144 	ld	hl, #(_Field + 4)
    00000599 DD 7E 06         [19] 1145 	ld	a, 6 (ix)
    0000059C 77               [ 7] 1146 	ld	(hl), a
    0000059D 23               [ 6] 1147 	inc	hl
    0000059E DD 7E 07         [19] 1148 	ld	a, 7 (ix)
    000005A1 77               [ 7] 1149 	ld	(hl), a
    000005A2                       1150 00136$:
                                   1151 ;E:\Dropbox\FAUSTO\SVILUPPI\MSX\CODE\C\MSXgl\projects\soccerlgMSX2/soccerlg_s12_b3.c:123: CallFnc_VOID(SEG_GAMESTATE_2, AssignKickOffTargets);
    000005A2 11r00r00         [10] 1152 	ld	de, #_AssignKickOffTargets
    000005A5 3E 0B            [ 7] 1153 	ld	a, #0x0b
    000005A7 CDr00r00         [17] 1154 	call	_CallFnc_VOID
    000005AA                       1155 00146$:
                                   1156 ;E:\Dropbox\FAUSTO\SVILUPPI\MSX\CODE\C\MSXgl\projects\soccerlgMSX2/soccerlg_s12_b3.c:111: } else if (RestartType == RESTART_GOALKICK || RestartType == RESTART_GKSAVE) {
    000005AA 3Ar00r00         [13] 1157 	ld	a, (_RestartType+0)
    000005AD D6 04            [ 7] 1158 	sub	a, #0x04
    000005AF 3E 01            [ 7] 1159 	ld	a, #0x01
    000005B1 28 01            [12] 1160 	jr	Z, 01267$
    000005B3 AF               [ 4] 1161 	xor	a, a
    000005B4                       1162 01267$:
    000005B4 4F               [ 4] 1163 	ld	c, a
                                   1164 ;E:\Dropbox\FAUSTO\SVILUPPI\MSX\CODE\C\MSXgl\projects\soccerlgMSX2/soccerlg_s12_b3.c:127: if (RestartType == RESTART_THROWIN || RestartType == RESTART_GOALKICK || RestartType == RESTART_GKSAVE) {
    000005B5 3Ar00r00         [13] 1165 	ld	a, (_RestartType+0)
    000005B8 3D               [ 4] 1166 	dec	a
    000005B9 28 0B            [12] 1167 	jr	Z, 00153$
    000005BB 3Ar00r00         [13] 1168 	ld	a, (_RestartType+0)
    000005BE D6 02            [ 7] 1169 	sub	a, #0x02
    000005C0 28 04            [12] 1170 	jr	Z, 00153$
    000005C2 79               [ 4] 1171 	ld	a, c
    000005C3 B7               [ 4] 1172 	or	a, a
    000005C4 28 51            [12] 1173 	jr	Z, 00154$
    000005C6                       1174 00153$:
                                   1175 ;E:\Dropbox\FAUSTO\SVILUPPI\MSX\CODE\C\MSXgl\projects\soccerlgMSX2/soccerlg_s12_b3.c:128: u16 cam_target_y = (RestartType == RESTART_GKSAVE) ? RestartSideY : SwSprite[14].ly;
    000005C6 79               [ 4] 1176 	ld	a, c
    000005C7 B7               [ 4] 1177 	or	a, a
    000005C8 28 07            [12] 1178 	jr	Z, 00393$
    000005CA ED 4Br00r00      [20] 1179 	ld	bc, (_RestartSideY)
    000005CE C3rD5r05         [10] 1180 	jp	00394$
    000005D1                       1181 00393$:
    000005D1 ED 4Br46r01      [20] 1182 	ld	bc, (#(_SwSprite + 326) + 0)
    000005D5                       1183 00394$:
                                   1184 ;E:\Dropbox\FAUSTO\SVILUPPI\MSX\CODE\C\MSXgl\projects\soccerlgMSX2/soccerlg_s12_b3.c:129: if (cam_target_y < 96) Field.ly = 0;
    000005D5 79               [ 4] 1185 	ld	a, c
    000005D6 D6 60            [ 7] 1186 	sub	a, #0x60
    000005D8 78               [ 4] 1187 	ld	a, b
    000005D9 DE 00            [ 7] 1188 	sbc	a, #0x00
    000005DB 30 09            [12] 1189 	jr	NC, 00151$
    000005DD 21 00 00         [10] 1190 	ld	hl, #0x0000
    000005E0 22r04r00         [16] 1191 	ld	((_Field + 4)), hl
    000005E3 C3r03r06         [10] 1192 	jp	00152$
    000005E6                       1193 00151$:
                                   1194 ;E:\Dropbox\FAUSTO\SVILUPPI\MSX\CODE\C\MSXgl\projects\soccerlgMSX2/soccerlg_s12_b3.c:130: else if (cam_target_y > 512 - 192) Field.ly = 512 - 192;
    000005E6 3E 40            [ 7] 1195 	ld	a, #0x40
    000005E8 B9               [ 4] 1196 	cp	a, c
    000005E9 3E 01            [ 7] 1197 	ld	a, #0x01
    000005EB 98               [ 4] 1198 	sbc	a, b
    000005EC 30 09            [12] 1199 	jr	NC, 00148$
    000005EE 21 40 01         [10] 1200 	ld	hl, #0x0140
    000005F1 22r04r00         [16] 1201 	ld	((_Field + 4)), hl
    000005F4 C3r03r06         [10] 1202 	jp	00152$
    000005F7                       1203 00148$:
                                   1204 ;E:\Dropbox\FAUSTO\SVILUPPI\MSX\CODE\C\MSXgl\projects\soccerlgMSX2/soccerlg_s12_b3.c:131: else Field.ly = cam_target_y - 96;
    000005F7 79               [ 4] 1205 	ld	a, c
    000005F8 C6 A0            [ 7] 1206 	add	a, #0xa0
    000005FA 4F               [ 4] 1207 	ld	c, a
    000005FB 78               [ 4] 1208 	ld	a, b
    000005FC CE FF            [ 7] 1209 	adc	a, #0xff
    000005FE 47               [ 4] 1210 	ld	b, a
    000005FF ED 43r04r00      [20] 1211 	ld	((_Field + 4)), bc
    00000603                       1212 00152$:
                                   1213 ;E:\Dropbox\FAUSTO\SVILUPPI\MSX\CODE\C\MSXgl\projects\soccerlgMSX2/soccerlg_s12_b3.c:133: T1_Carrier = T2_Carrier = T1_Receiver = T2_Receiver = 0xFF;
    00000603 21r00r00         [10] 1214 	ld	hl, #_T2_Receiver
    00000606 36 FF            [10] 1215 	ld	(hl), #0xff
    00000608 21r00r00         [10] 1216 	ld	hl, #_T1_Receiver
    0000060B 36 FF            [10] 1217 	ld	(hl), #0xff
    0000060D 21r00r00         [10] 1218 	ld	hl, #_T2_Carrier
    00000610 36 FF            [10] 1219 	ld	(hl), #0xff
    00000612 21r00r00         [10] 1220 	ld	hl, #_T1_Carrier
    00000615 36 FF            [10] 1221 	ld	(hl), #0xff
    00000617                       1222 00154$:
                                   1223 ;E:\Dropbox\FAUSTO\SVILUPPI\MSX\CODE\C\MSXgl\projects\soccerlgMSX2/soccerlg_s12_b3.c:136: Field.dy = 0;
    00000617 21r12r00         [10] 1224 	ld	hl, #(_Field + 18)
    0000061A 36 00            [10] 1225 	ld	(hl), #0x00
                                   1226 ;E:\Dropbox\FAUSTO\SVILUPPI\MSX\CODE\C\MSXgl\projects\soccerlgMSX2/soccerlg_s12_b3.c:139: bool ball_fg = CallFnc_BOOL(SEG_DRAW, IsBallForeground);
    0000061C 11r00r00         [10] 1227 	ld	de, #_IsBallForeground
    0000061F 3E 05            [ 7] 1228 	ld	a, #0x05
    00000621 CDr00r00         [17] 1229 	call	_CallFnc_BOOL
    00000624 DD 77 F4         [19] 1230 	ld	-12 (ix), a
                                   1231 ;E:\Dropbox\FAUSTO\SVILUPPI\MSX\CODE\C\MSXgl\projects\soccerlgMSX2/soccerlg_s12_b3.c:140: for (u16 page = 0; page <= 512; page += 256) {
    00000627 AF               [ 4] 1232 	xor	a, a
    00000628 DD 77 F5         [19] 1233 	ld	-11 (ix), a
    0000062B DD 77 F6         [19] 1234 	ld	-10 (ix), a
    0000062E                       1235 00376$:
    0000062E DD 4E F5         [19] 1236 	ld	c, -11 (ix)
    00000631 DD 46 F6         [19] 1237 	ld	b, -10 (ix)
    00000634 AF               [ 4] 1238 	xor	a, a
    00000635 B9               [ 4] 1239 	cp	a, c
    00000636 3E 02            [ 7] 1240 	ld	a, #0x02
    00000638 98               [ 4] 1241 	sbc	a, b
    00000639 DArE3r07         [10] 1242 	jp	C, 00504$
                                   1243 ;E:\Dropbox\FAUSTO\SVILUPPI\MSX\CODE\C\MSXgl\projects\soccerlgMSX2/soccerlg_s12_b3.c:141: CallFnc_VOID_16_P2(SEG_DRAW, PlotField, Field.ly, page);
    0000063C 2Ar04r00         [16] 1244 	ld	hl, (#(_Field + 4) + 0)
    0000063F DD 5E F5         [19] 1245 	ld	e, -11 (ix)
    00000642 DD 56 F6         [19] 1246 	ld	d, -10 (ix)
    00000645 D5               [11] 1247 	push	de
    00000646 E5               [11] 1248 	push	hl
    00000647 11r00r00         [10] 1249 	ld	de, #_PlotField
    0000064A 3E 05            [ 7] 1250 	ld	a, #0x05
    0000064C CDr00r00         [17] 1251 	call	_CallFnc_VOID_16_P2
                                   1252 ;E:\Dropbox\FAUSTO\SVILUPPI\MSX\CODE\C\MSXgl\projects\soccerlgMSX2/soccerlg_s12_b3.c:142: if (!ball_fg && OnScreen(SwSprite[14].ly)) CallSpriteFrame(SwSprite[14].lx, (SwSprite[14].ly & 255) + page, SwSprite[14].frame);
    0000064F DD 7E F4         [19] 1253 	ld	a, -12 (ix)
    00000652 B7               [ 4] 1254 	or	a, a
    00000653 20 3B            [12] 1255 	jr	NZ, 00494$
    00000655 ED 5Br46r01      [20] 1256 	ld	de, (#(_SwSprite + 326) + 0)
    00000659 7A               [ 4] 1257 	ld	a, d
    0000065A D6 02            [ 7] 1258 	sub	a, #0x02
    0000065C 30 32            [12] 1259 	jr	NC, 00494$
    0000065E 21 0F 02         [10] 1260 	ld	hl, #0x020f
    00000661 19               [11] 1261 	add	hl, de
    00000662 4D               [ 4] 1262 	ld	c, l
    00000663 44               [ 4] 1263 	ld	b, h
    00000664 2Ar04r00         [16] 1264 	ld	hl, (#(_Field + 4) + 0)
    00000667 79               [ 4] 1265 	ld	a, c
    00000668 95               [ 4] 1266 	sub	a, l
    00000669 4F               [ 4] 1267 	ld	c, a
    0000066A 78               [ 4] 1268 	ld	a, b
    0000066B 9C               [ 4] 1269 	sbc	a, h
    0000066C E6 01            [ 7] 1270 	and	a, #0x01
    0000066E 47               [ 4] 1271 	ld	b, a
    0000066F 79               [ 4] 1272 	ld	a, c
    00000670 D6 CF            [ 7] 1273 	sub	a, #0xcf
    00000672 78               [ 4] 1274 	ld	a, b
    00000673 DE 00            [ 7] 1275 	sbc	a, #0x00
    00000675 30 19            [12] 1276 	jr	NC, 00494$
    00000677 ED 4Br51r01      [20] 1277 	ld	bc, (#_SwSprite + 337)
    0000067B 16 00            [ 7] 1278 	ld	d, #0x00
    0000067D 7B               [ 4] 1279 	ld	a, e
    0000067E DD 86 F5         [19] 1280 	add	a, -11 (ix)
    00000681 5F               [ 4] 1281 	ld	e, a
    00000682 7A               [ 4] 1282 	ld	a, d
    00000683 DD 8E F6         [19] 1283 	adc	a, -10 (ix)
    00000686 57               [ 4] 1284 	ld	d, a
    00000687 21r42r01         [10] 1285 	ld	hl, #(_SwSprite + 322)
    0000068A 6E               [ 7] 1286 	ld	l, (hl)
                                   1287 ;	spillPairReg hl
    0000068B C5               [11] 1288 	push	bc
    0000068C 7D               [ 4] 1289 	ld	a, l
    0000068D CDr00r00         [17] 1290 	call	_CallSpriteFrame
                                   1291 ;E:\Dropbox\FAUSTO\SVILUPPI\MSX\CODE\C\MSXgl\projects\soccerlgMSX2/soccerlg_s12_b3.c:143: for (u8 i=0; i<14; i++) if (OnScreen(SwSprite[i].ly)) CallSpriteFrame(SwSprite[i].lx, (SwSprite[i].ly & 255) + page, SwSprite[i].frame);
    00000690                       1292 00494$:
    00000690 DD 36 FF 00      [19] 1293 	ld	-1 (ix), #0x00
    00000694                       1294 00370$:
    00000694 DD 7E FF         [19] 1295 	ld	a, -1 (ix)
    00000697 D6 0E            [ 7] 1296 	sub	a, #0x0e
    00000699 30 77            [12] 1297 	jr	NC, 00164$
    0000069B DD 4E FF         [19] 1298 	ld	c, -1 (ix)
    0000069E 06 00            [ 7] 1299 	ld	b, #0x00
    000006A0 69               [ 4] 1300 	ld	l, c
    000006A1 60               [ 4] 1301 	ld	h, b
    000006A2 29               [11] 1302 	add	hl, hl
    000006A3 29               [11] 1303 	add	hl, hl
    000006A4 09               [11] 1304 	add	hl, bc
    000006A5 29               [11] 1305 	add	hl, hl
    000006A6 09               [11] 1306 	add	hl, bc
    000006A7 29               [11] 1307 	add	hl, hl
    000006A8 09               [11] 1308 	add	hl, bc
    000006A9 EB               [ 4] 1309 	ex	de, hl
    000006AA 21r00r00         [10] 1310 	ld	hl, #_SwSprite
    000006AD 19               [11] 1311 	add	hl, de
    000006AE DD 75 F7         [19] 1312 	ld	-9 (ix), l
    000006B1 DD 74 F8         [19] 1313 	ld	-8 (ix), h
    000006B4 01 04 00         [10] 1314 	ld	bc,#4
    000006B7 09               [11] 1315 	add	hl,bc
    000006B8 4E               [ 7] 1316 	ld	c, (hl)
    000006B9 23               [ 6] 1317 	inc	hl
    000006BA 7E               [ 7] 1318 	ld	a, (hl)
    000006BB DD 71 F9         [19] 1319 	ld	-7 (ix), c
    000006BE DD 77 FA         [19] 1320 	ld	-6 (ix), a
    000006C1 D6 02            [ 7] 1321 	sub	a, #0x02
    000006C3 30 47            [12] 1322 	jr	NC, 00371$
    000006C5 DD 7E F9         [19] 1323 	ld	a, -7 (ix)
    000006C8 C6 0F            [ 7] 1324 	add	a, #0x0f
    000006CA 5F               [ 4] 1325 	ld	e, a
    000006CB DD 7E FA         [19] 1326 	ld	a, -6 (ix)
    000006CE CE 02            [ 7] 1327 	adc	a, #0x02
    000006D0 57               [ 4] 1328 	ld	d, a
    000006D1 ED 4Br04r00      [20] 1329 	ld	bc, (#(_Field + 4) + 0)
    000006D5 EB               [ 4] 1330 	ex	de, hl
    000006D6 BF               [ 4] 1331 	cp	a, a
    000006D7 ED 42            [15] 1332 	sbc	hl, bc
    000006D9 7C               [ 4] 1333 	ld	a, h
    000006DA E6 01            [ 7] 1334 	and	a, #0x01
    000006DC 4F               [ 4] 1335 	ld	c, a
    000006DD 7D               [ 4] 1336 	ld	a, l
    000006DE D6 CF            [ 7] 1337 	sub	a, #0xcf
    000006E0 79               [ 4] 1338 	ld	a, c
    000006E1 DE 00            [ 7] 1339 	sbc	a, #0x00
    000006E3 30 27            [12] 1340 	jr	NC, 00371$
    000006E5 DD 4E F7         [19] 1341 	ld	c, -9 (ix)
    000006E8 DD 46 F8         [19] 1342 	ld	b, -8 (ix)
    000006EB 21 0F 00         [10] 1343 	ld	hl, #15
    000006EE 09               [11] 1344 	add	hl, bc
    000006EF 4E               [ 7] 1345 	ld	c, (hl)
    000006F0 23               [ 6] 1346 	inc	hl
    000006F1 46               [ 7] 1347 	ld	b, (hl)
    000006F2 DD 7E F9         [19] 1348 	ld	a, -7 (ix)
    000006F5 16 00            [ 7] 1349 	ld	d, #0x00
    000006F7 DD 86 F5         [19] 1350 	add	a, -11 (ix)
    000006FA 5F               [ 4] 1351 	ld	e, a
    000006FB 7A               [ 4] 1352 	ld	a, d
    000006FC DD 8E F6         [19] 1353 	adc	a, -10 (ix)
    000006FF 57               [ 4] 1354 	ld	d, a
    00000700 DD 6E F7         [19] 1355 	ld	l, -9 (ix)
    00000703 DD 66 F8         [19] 1356 	ld	h, -8 (ix)
    00000706 6E               [ 7] 1357 	ld	l, (hl)
                                   1358 ;	spillPairReg hl
    00000707 C5               [11] 1359 	push	bc
    00000708 7D               [ 4] 1360 	ld	a, l
    00000709 CDr00r00         [17] 1361 	call	_CallSpriteFrame
    0000070C                       1362 00371$:
    0000070C DD 34 FF         [23] 1363 	inc	-1 (ix)
    0000070F C3r94r06         [10] 1364 	jp	00370$
    00000712                       1365 00164$:
                                   1366 ;E:\Dropbox\FAUSTO\SVILUPPI\MSX\CODE\C\MSXgl\projects\soccerlgMSX2/soccerlg_s12_b3.c:144: if (ball_fg && OnScreen(SwSprite[14].ly)) CallSpriteFrame(SwSprite[14].lx, (SwSprite[14].ly & 255) + page, SwSprite[14].frame);
    00000712 DD 7E F4         [19] 1367 	ld	a, -12 (ix)
    00000715 B7               [ 4] 1368 	or	a, a
    00000716 28 3B            [12] 1369 	jr	Z, 00501$
    00000718 ED 5Br46r01      [20] 1370 	ld	de, (#(_SwSprite + 326) + 0)
    0000071C 7A               [ 4] 1371 	ld	a, d
    0000071D D6 02            [ 7] 1372 	sub	a, #0x02
    0000071F 30 32            [12] 1373 	jr	NC, 00501$
    00000721 21 0F 02         [10] 1374 	ld	hl, #0x020f
    00000724 19               [11] 1375 	add	hl, de
    00000725 4D               [ 4] 1376 	ld	c, l
    00000726 44               [ 4] 1377 	ld	b, h
    00000727 2Ar04r00         [16] 1378 	ld	hl, (#(_Field + 4) + 0)
    0000072A 79               [ 4] 1379 	ld	a, c
    0000072B 95               [ 4] 1380 	sub	a, l
    0000072C 4F               [ 4] 1381 	ld	c, a
    0000072D 78               [ 4] 1382 	ld	a, b
    0000072E 9C               [ 4] 1383 	sbc	a, h
    0000072F E6 01            [ 7] 1384 	and	a, #0x01
    00000731 47               [ 4] 1385 	ld	b, a
    00000732 79               [ 4] 1386 	ld	a, c
    00000733 D6 CF            [ 7] 1387 	sub	a, #0xcf
    00000735 78               [ 4] 1388 	ld	a, b
    00000736 DE 00            [ 7] 1389 	sbc	a, #0x00
    00000738 30 19            [12] 1390 	jr	NC, 00501$
    0000073A ED 4Br51r01      [20] 1391 	ld	bc, (#_SwSprite + 337)
    0000073E 16 00            [ 7] 1392 	ld	d, #0x00
    00000740 7B               [ 4] 1393 	ld	a, e
    00000741 DD 86 F5         [19] 1394 	add	a, -11 (ix)
    00000744 5F               [ 4] 1395 	ld	e, a
    00000745 7A               [ 4] 1396 	ld	a, d
    00000746 DD 8E F6         [19] 1397 	adc	a, -10 (ix)
    00000749 57               [ 4] 1398 	ld	d, a
    0000074A 21r42r01         [10] 1399 	ld	hl, #(_SwSprite + 322)
    0000074D 6E               [ 7] 1400 	ld	l, (hl)
                                   1401 ;	spillPairReg hl
    0000074E C5               [11] 1402 	push	bc
    0000074F 7D               [ 4] 1403 	ld	a, l
    00000750 CDr00r00         [17] 1404 	call	_CallSpriteFrame
                                   1405 ;E:\Dropbox\FAUSTO\SVILUPPI\MSX\CODE\C\MSXgl\projects\soccerlgMSX2/soccerlg_s12_b3.c:145: for (u8 i=15; i<NumSprite; i++) if (OnScreen(SwSprite[i].ly)) CallSpriteFrame(SwSprite[i].lx, (SwSprite[i].ly & 255) + page, SwSprite[i].frame);
    00000753                       1406 00501$:
    00000753 0E 0F            [ 7] 1407 	ld	c, #0x0f
    00000755                       1408 00373$:
    00000755 79               [ 4] 1409 	ld	a, c
    00000756 D6 25            [ 7] 1410 	sub	a, #0x25
    00000758 30 79            [12] 1411 	jr	NC, 00377$
    0000075A 06 00            [ 7] 1412 	ld	b, #0x00
    0000075C 69               [ 4] 1413 	ld	l, c
    0000075D 60               [ 4] 1414 	ld	h, b
    0000075E 29               [11] 1415 	add	hl, hl
    0000075F 29               [11] 1416 	add	hl, hl
    00000760 09               [11] 1417 	add	hl, bc
    00000761 29               [11] 1418 	add	hl, hl
    00000762 09               [11] 1419 	add	hl, bc
    00000763 29               [11] 1420 	add	hl, hl
    00000764 09               [11] 1421 	add	hl, bc
    00000765 11r00r00         [10] 1422 	ld	de, #_SwSprite
    00000768 19               [11] 1423 	add	hl, de
    00000769 DD 75 F7         [19] 1424 	ld	-9 (ix), l
    0000076C DD 74 F8         [19] 1425 	ld	-8 (ix), h
    0000076F 11 04 00         [10] 1426 	ld	de, #4
    00000772 19               [11] 1427 	add	hl, de
    00000773 46               [ 7] 1428 	ld	b, (hl)
    00000774 23               [ 6] 1429 	inc	hl
    00000775 7E               [ 7] 1430 	ld	a, (hl)
    00000776 DD 70 F9         [19] 1431 	ld	-7 (ix), b
    00000779 DD 77 FA         [19] 1432 	ld	-6 (ix), a
    0000077C D6 02            [ 7] 1433 	sub	a, #0x02
    0000077E 30 4F            [12] 1434 	jr	NC, 00374$
    00000780 DD 7E F9         [19] 1435 	ld	a, -7 (ix)
    00000783 C6 0F            [ 7] 1436 	add	a, #0x0f
    00000785 5F               [ 4] 1437 	ld	e, a
    00000786 DD 7E FA         [19] 1438 	ld	a, -6 (ix)
    00000789 CE 02            [ 7] 1439 	adc	a, #0x02
    0000078B 47               [ 4] 1440 	ld	b, a
    0000078C 2Ar04r00         [16] 1441 	ld	hl, (#(_Field + 4) + 0)
    0000078F 7B               [ 4] 1442 	ld	a, e
    00000790 95               [ 4] 1443 	sub	a, l
    00000791 5F               [ 4] 1444 	ld	e, a
    00000792 78               [ 4] 1445 	ld	a, b
    00000793 9C               [ 4] 1446 	sbc	a, h
    00000794 E6 01            [ 7] 1447 	and	a, #0x01
    00000796 57               [ 4] 1448 	ld	d, a
    00000797 7B               [ 4] 1449 	ld	a, e
    00000798 D6 CF            [ 7] 1450 	sub	a, #0xcf
    0000079A 7A               [ 4] 1451 	ld	a, d
    0000079B DE 00            [ 7] 1452 	sbc	a, #0x00
    0000079D 30 30            [12] 1453 	jr	NC, 00374$
    0000079F DD 5E F7         [19] 1454 	ld	e, -9 (ix)
    000007A2 DD 56 F8         [19] 1455 	ld	d, -8 (ix)
    000007A5 21 0F 00         [10] 1456 	ld	hl, #15
    000007A8 19               [11] 1457 	add	hl, de
    000007A9 5E               [ 7] 1458 	ld	e, (hl)
    000007AA 23               [ 6] 1459 	inc	hl
    000007AB 56               [ 7] 1460 	ld	d, (hl)
    000007AC DD 6E F9         [19] 1461 	ld	l, -7 (ix)
                                   1462 ;	spillPairReg hl
                                   1463 ;	spillPairReg hl
    000007AF 26 00            [ 7] 1464 	ld	h, #0x00
                                   1465 ;	spillPairReg hl
                                   1466 ;	spillPairReg hl
    000007B1 E5               [11] 1467 	push	hl
    000007B2 FD E1            [14] 1468 	pop	iy
    000007B4 C5               [11] 1469 	push	bc
    000007B5 DD 4E F5         [19] 1470 	ld	c, -11 (ix)
    000007B8 DD 46 F6         [19] 1471 	ld	b, -10 (ix)
    000007BB FD 09            [15] 1472 	add	iy, bc
    000007BD C1               [10] 1473 	pop	bc
    000007BE DD 6E F7         [19] 1474 	ld	l, -9 (ix)
    000007C1 DD 66 F8         [19] 1475 	ld	h, -8 (ix)
    000007C4 46               [ 7] 1476 	ld	b, (hl)
    000007C5 C5               [11] 1477 	push	bc
    000007C6 D5               [11] 1478 	push	de
    000007C7 FD E5            [15] 1479 	push	iy
    000007C9 D1               [10] 1480 	pop	de
    000007CA 78               [ 4] 1481 	ld	a, b
    000007CB CDr00r00         [17] 1482 	call	_CallSpriteFrame
    000007CE C1               [10] 1483 	pop	bc
    000007CF                       1484 00374$:
    000007CF 0C               [ 4] 1485 	inc	c
    000007D0 C3r55r07         [10] 1486 	jp	00373$
    000007D3                       1487 00377$:
                                   1488 ;E:\Dropbox\FAUSTO\SVILUPPI\MSX\CODE\C\MSXgl\projects\soccerlgMSX2/soccerlg_s12_b3.c:140: for (u16 page = 0; page <= 512; page += 256) {
    000007D3 DD 4E F5         [19] 1489 	ld	c, -11 (ix)
    000007D6 DD 7E F6         [19] 1490 	ld	a, -10 (ix)
    000007D9 3C               [ 4] 1491 	inc	a
    000007DA DD 71 F5         [19] 1492 	ld	-11 (ix), c
    000007DD DD 77 F6         [19] 1493 	ld	-10 (ix), a
    000007E0 C3r2Er06         [10] 1494 	jp	00376$
                                   1495 ;E:\Dropbox\FAUSTO\SVILUPPI\MSX\CODE\C\MSXgl\projects\soccerlgMSX2/soccerlg_s12_b3.c:149: for (u8 i = 0; i < NumSprite; i++) {
    000007E3                       1496 00504$:
    000007E3 DD 36 FF 00      [19] 1497 	ld	-1 (ix), #0x00
    000007E7                       1498 00379$:
    000007E7 DD 7E FF         [19] 1499 	ld	a, -1 (ix)
    000007EA D6 25            [ 7] 1500 	sub	a, #0x25
    000007EC D2rD5r08         [10] 1501 	jp	NC, 00174$
                                   1502 ;E:\Dropbox\FAUSTO\SVILUPPI\MSX\CODE\C\MSXgl\projects\soccerlgMSX2/soccerlg_s12_b3.c:150: SwSprite[i].x0 = SwSprite[i].x1 = SwSprite[i].x2 = SwSprite[i].lx;
    000007EF DD 4E FF         [19] 1503 	ld	c, -1 (ix)
    000007F2 06 00            [ 7] 1504 	ld	b, #0x00
    000007F4 69               [ 4] 1505 	ld	l, c
    000007F5 60               [ 4] 1506 	ld	h, b
    000007F6 29               [11] 1507 	add	hl, hl
    000007F7 29               [11] 1508 	add	hl, hl
    000007F8 09               [11] 1509 	add	hl, bc
    000007F9 29               [11] 1510 	add	hl, hl
    000007FA 09               [11] 1511 	add	hl, bc
    000007FB 29               [11] 1512 	add	hl, hl
    000007FC 09               [11] 1513 	add	hl, bc
    000007FD DD 75 F7         [19] 1514 	ld	-9 (ix), l
    00000800 DD 74 F8         [19] 1515 	ld	-8 (ix), h
    00000803 DD 7E F7         [19] 1516 	ld	a, -9 (ix)
    00000806 C6r00            [ 7] 1517 	add	a, #<(_SwSprite)
    00000808 DD 77 F9         [19] 1518 	ld	-7 (ix), a
    0000080B DD 7E F8         [19] 1519 	ld	a, -8 (ix)
    0000080E CEs00            [ 7] 1520 	adc	a, #>(_SwSprite)
    00000810 DD 77 FA         [19] 1521 	ld	-6 (ix), a
    00000813 DD 7E F9         [19] 1522 	ld	a, -7 (ix)
    00000816 C6 01            [ 7] 1523 	add	a, #0x01
    00000818 DD 77 F3         [19] 1524 	ld	-13 (ix), a
    0000081B DD 7E FA         [19] 1525 	ld	a, -6 (ix)
    0000081E CE 00            [ 7] 1526 	adc	a, #0x00
    00000820 DD 77 F4         [19] 1527 	ld	-12 (ix), a
    00000823 DD 7E F9         [19] 1528 	ld	a, -7 (ix)
    00000826 C6 02            [ 7] 1529 	add	a, #0x02
    00000828 DD 77 F5         [19] 1530 	ld	-11 (ix), a
    0000082B DD 7E FA         [19] 1531 	ld	a, -6 (ix)
    0000082E CE 00            [ 7] 1532 	adc	a, #0x00
    00000830 DD 77 F6         [19] 1533 	ld	-10 (ix), a
    00000833 DD 7E F9         [19] 1534 	ld	a, -7 (ix)
    00000836 C6 03            [ 7] 1535 	add	a, #0x03
    00000838 DD 77 F7         [19] 1536 	ld	-9 (ix), a
    0000083B DD 7E FA         [19] 1537 	ld	a, -6 (ix)
    0000083E CE 00            [ 7] 1538 	adc	a, #0x00
    00000840 DD 77 F8         [19] 1539 	ld	-8 (ix), a
    00000843 DD 6E F9         [19] 1540 	ld	l, -7 (ix)
    00000846 DD 66 FA         [19] 1541 	ld	h, -6 (ix)
    00000849 7E               [ 7] 1542 	ld	a, (hl)
    0000084A DD 6E F7         [19] 1543 	ld	l, -9 (ix)
    0000084D DD 66 F8         [19] 1544 	ld	h, -8 (ix)
    00000850 77               [ 7] 1545 	ld	(hl), a
    00000851 DD 6E F5         [19] 1546 	ld	l, -11 (ix)
    00000854 DD 66 F6         [19] 1547 	ld	h, -10 (ix)
    00000857 77               [ 7] 1548 	ld	(hl), a
    00000858 DD 6E F3         [19] 1549 	ld	l, -13 (ix)
    0000085B DD 66 F4         [19] 1550 	ld	h, -12 (ix)
    0000085E 77               [ 7] 1551 	ld	(hl), a
                                   1552 ;E:\Dropbox\FAUSTO\SVILUPPI\MSX\CODE\C\MSXgl\projects\soccerlgMSX2/soccerlg_s12_b3.c:151: SwSprite[i].y0 = SwSprite[i].y1 = SwSprite[i].y2 = SwSprite[i].ly;
    0000085F DD 7E F9         [19] 1553 	ld	a, -7 (ix)
    00000862 C6 06            [ 7] 1554 	add	a, #0x06
    00000864 DD 77 F3         [19] 1555 	ld	-13 (ix), a
    00000867 DD 7E FA         [19] 1556 	ld	a, -6 (ix)
    0000086A CE 00            [ 7] 1557 	adc	a, #0x00
    0000086C DD 77 F4         [19] 1558 	ld	-12 (ix), a
    0000086F DD 7E F9         [19] 1559 	ld	a, -7 (ix)
    00000872 C6 08            [ 7] 1560 	add	a, #0x08
    00000874 DD 77 F5         [19] 1561 	ld	-11 (ix), a
    00000877 DD 7E FA         [19] 1562 	ld	a, -6 (ix)
    0000087A CE 00            [ 7] 1563 	adc	a, #0x00
    0000087C DD 77 F6         [19] 1564 	ld	-10 (ix), a
    0000087F DD 7E F9         [19] 1565 	ld	a, -7 (ix)
    00000882 C6 0A            [ 7] 1566 	add	a, #0x0a
    00000884 DD 77 F7         [19] 1567 	ld	-9 (ix), a
    00000887 DD 7E FA         [19] 1568 	ld	a, -6 (ix)
    0000088A CE 00            [ 7] 1569 	adc	a, #0x00
    0000088C DD 77 F8         [19] 1570 	ld	-8 (ix), a
    0000088F DD 6E F9         [19] 1571 	ld	l, -7 (ix)
    00000892 DD 66 FA         [19] 1572 	ld	h, -6 (ix)
    00000895 11 04 00         [10] 1573 	ld	de, #0x0004
    00000898 19               [11] 1574 	add	hl, de
    00000899 7E               [ 7] 1575 	ld	a, (hl)
    0000089A DD 77 F9         [19] 1576 	ld	-7 (ix), a
    0000089D 23               [ 6] 1577 	inc	hl
    0000089E 7E               [ 7] 1578 	ld	a, (hl)
    0000089F DD 77 FA         [19] 1579 	ld	-6 (ix), a
    000008A2 DD 6E F7         [19] 1580 	ld	l, -9 (ix)
    000008A5 DD 66 F8         [19] 1581 	ld	h, -8 (ix)
    000008A8 DD 7E F9         [19] 1582 	ld	a, -7 (ix)
    000008AB 77               [ 7] 1583 	ld	(hl), a
    000008AC 23               [ 6] 1584 	inc	hl
    000008AD DD 7E FA         [19] 1585 	ld	a, -6 (ix)
    000008B0 77               [ 7] 1586 	ld	(hl), a
    000008B1 DD 6E F5         [19] 1587 	ld	l, -11 (ix)
    000008B4 DD 66 F6         [19] 1588 	ld	h, -10 (ix)
    000008B7 DD 7E F9         [19] 1589 	ld	a, -7 (ix)
    000008BA 77               [ 7] 1590 	ld	(hl), a
    000008BB 23               [ 6] 1591 	inc	hl
    000008BC DD 7E FA         [19] 1592 	ld	a, -6 (ix)
    000008BF 77               [ 7] 1593 	ld	(hl), a
    000008C0 DD 6E F3         [19] 1594 	ld	l, -13 (ix)
    000008C3 DD 66 F4         [19] 1595 	ld	h, -12 (ix)
    000008C6 DD 7E F9         [19] 1596 	ld	a, -7 (ix)
    000008C9 77               [ 7] 1597 	ld	(hl), a
    000008CA 23               [ 6] 1598 	inc	hl
    000008CB DD 7E FA         [19] 1599 	ld	a, -6 (ix)
    000008CE 77               [ 7] 1600 	ld	(hl), a
                                   1601 ;E:\Dropbox\FAUSTO\SVILUPPI\MSX\CODE\C\MSXgl\projects\soccerlgMSX2/soccerlg_s12_b3.c:149: for (u8 i = 0; i < NumSprite; i++) {
    000008CF DD 34 FF         [23] 1602 	inc	-1 (ix)
    000008D2 C3rE7r07         [10] 1603 	jp	00379$
    000008D5                       1604 00174$:
                                   1605 ;E:\Dropbox\FAUSTO\SVILUPPI\MSX\CODE\C\MSXgl\projects\soccerlgMSX2/soccerlg_s12_b3.c:155: CallFnc_VOID_U8U16U16(SEG_DRAW, PrintScoreBoardLeft, ScoreBoardLeft.lx, Field.ly, 0);
    000008D5 21r04r00         [10] 1606 	ld	hl, #(_Field + 4)
    000008D8 7E               [ 7] 1607 	ld	a, (hl)
    000008D9 DD 77 F9         [19] 1608 	ld	-7 (ix), a
    000008DC 23               [ 6] 1609 	inc	hl
    000008DD 7E               [ 7] 1610 	ld	a, (hl)
    000008DE DD 77 FA         [19] 1611 	ld	-6 (ix), a
    000008E1 3Ar00r00         [13] 1612 	ld	a, (#_ScoreBoardLeft + 0)
    000008E4 DD 77 FF         [19] 1613 	ld	-1 (ix), a
    000008E7 21 00 00         [10] 1614 	ld	hl, #0x0000
    000008EA E5               [11] 1615 	push	hl
    000008EB DD 6E F9         [19] 1616 	ld	l, -7 (ix)
                                   1617 ;	spillPairReg hl
                                   1618 ;	spillPairReg hl
    000008EE DD 66 FA         [19] 1619 	ld	h, -6 (ix)
                                   1620 ;	spillPairReg hl
                                   1621 ;	spillPairReg hl
    000008F1 E5               [11] 1622 	push	hl
    000008F2 DD 7E FF         [19] 1623 	ld	a, -1 (ix)
    000008F5 F5               [11] 1624 	push	af
    000008F6 33               [ 6] 1625 	inc	sp
    000008F7 11r00r00         [10] 1626 	ld	de, #_PrintScoreBoardLeft
    000008FA 3E 05            [ 7] 1627 	ld	a, #0x05
    000008FC CDr00r00         [17] 1628 	call	_CallFnc_VOID_U8U16U16
                                   1629 ;E:\Dropbox\FAUSTO\SVILUPPI\MSX\CODE\C\MSXgl\projects\soccerlgMSX2/soccerlg_s12_b3.c:156: CallFnc_VOID_U8U16U16(SEG_DRAW, PrintScoreBoardRight, ScoreBoardRight.lx, Field.ly, 0);
    000008FF 21r04r00         [10] 1630 	ld	hl, #(_Field + 4)
    00000902 7E               [ 7] 1631 	ld	a, (hl)
    00000903 DD 77 F9         [19] 1632 	ld	-7 (ix), a
    00000906 23               [ 6] 1633 	inc	hl
    00000907 7E               [ 7] 1634 	ld	a, (hl)
    00000908 DD 77 FA         [19] 1635 	ld	-6 (ix), a
    0000090B 3Ar00r00         [13] 1636 	ld	a, (#_ScoreBoardRight + 0)
    0000090E DD 77 FF         [19] 1637 	ld	-1 (ix), a
    00000911 21 00 00         [10] 1638 	ld	hl, #0x0000
    00000914 E5               [11] 1639 	push	hl
    00000915 DD 6E F9         [19] 1640 	ld	l, -7 (ix)
                                   1641 ;	spillPairReg hl
                                   1642 ;	spillPairReg hl
    00000918 DD 66 FA         [19] 1643 	ld	h, -6 (ix)
                                   1644 ;	spillPairReg hl
                                   1645 ;	spillPairReg hl
    0000091B E5               [11] 1646 	push	hl
    0000091C DD 7E FF         [19] 1647 	ld	a, -1 (ix)
    0000091F F5               [11] 1648 	push	af
    00000920 33               [ 6] 1649 	inc	sp
    00000921 11r00r00         [10] 1650 	ld	de, #_PrintScoreBoardRight
    00000924 3E 05            [ 7] 1651 	ld	a, #0x05
    00000926 CDr00r00         [17] 1652 	call	_CallFnc_VOID_U8U16U16
                                   1653 ;E:\Dropbox\FAUSTO\SVILUPPI\MSX\CODE\C\MSXgl\projects\soccerlgMSX2/soccerlg_s12_b3.c:157: CallFnc_VOID_U8U16U16(SEG_DRAW, PrintScoreBoardLeft, ScoreBoardLeft.lx, Field.ly, 256);
    00000929 21r04r00         [10] 1654 	ld	hl, #(_Field + 4)
    0000092C 7E               [ 7] 1655 	ld	a, (hl)
    0000092D DD 77 F9         [19] 1656 	ld	-7 (ix), a
    00000930 23               [ 6] 1657 	inc	hl
    00000931 7E               [ 7] 1658 	ld	a, (hl)
    00000932 DD 77 FA         [19] 1659 	ld	-6 (ix), a
    00000935 3Ar00r00         [13] 1660 	ld	a, (#_ScoreBoardLeft + 0)
    00000938 DD 77 FF         [19] 1661 	ld	-1 (ix), a
    0000093B 21 00 01         [10] 1662 	ld	hl, #0x0100
    0000093E E5               [11] 1663 	push	hl
    0000093F DD 6E F9         [19] 1664 	ld	l, -7 (ix)
                                   1665 ;	spillPairReg hl
                                   1666 ;	spillPairReg hl
    00000942 DD 66 FA         [19] 1667 	ld	h, -6 (ix)
                                   1668 ;	spillPairReg hl
                                   1669 ;	spillPairReg hl
    00000945 E5               [11] 1670 	push	hl
    00000946 DD 7E FF         [19] 1671 	ld	a, -1 (ix)
    00000949 F5               [11] 1672 	push	af
    0000094A 33               [ 6] 1673 	inc	sp
    0000094B 11r00r00         [10] 1674 	ld	de, #_PrintScoreBoardLeft
    0000094E 3E 05            [ 7] 1675 	ld	a, #0x05
    00000950 CDr00r00         [17] 1676 	call	_CallFnc_VOID_U8U16U16
                                   1677 ;E:\Dropbox\FAUSTO\SVILUPPI\MSX\CODE\C\MSXgl\projects\soccerlgMSX2/soccerlg_s12_b3.c:158: CallFnc_VOID_U8U16U16(SEG_DRAW, PrintScoreBoardRight, ScoreBoardRight.lx, Field.ly, 256);
    00000953 21r04r00         [10] 1678 	ld	hl, #(_Field + 4)
    00000956 7E               [ 7] 1679 	ld	a, (hl)
    00000957 DD 77 F9         [19] 1680 	ld	-7 (ix), a
    0000095A 23               [ 6] 1681 	inc	hl
    0000095B 7E               [ 7] 1682 	ld	a, (hl)
    0000095C DD 77 FA         [19] 1683 	ld	-6 (ix), a
    0000095F 3Ar00r00         [13] 1684 	ld	a, (#_ScoreBoardRight + 0)
    00000962 DD 77 FF         [19] 1685 	ld	-1 (ix), a
    00000965 21 00 01         [10] 1686 	ld	hl, #0x0100
    00000968 E5               [11] 1687 	push	hl
    00000969 DD 6E F9         [19] 1688 	ld	l, -7 (ix)
                                   1689 ;	spillPairReg hl
                                   1690 ;	spillPairReg hl
    0000096C DD 66 FA         [19] 1691 	ld	h, -6 (ix)
                                   1692 ;	spillPairReg hl
                                   1693 ;	spillPairReg hl
    0000096F E5               [11] 1694 	push	hl
    00000970 DD 7E FF         [19] 1695 	ld	a, -1 (ix)
    00000973 F5               [11] 1696 	push	af
    00000974 33               [ 6] 1697 	inc	sp
    00000975 11r00r00         [10] 1698 	ld	de, #_PrintScoreBoardRight
    00000978 3E 05            [ 7] 1699 	ld	a, #0x05
    0000097A CDr00r00         [17] 1700 	call	_CallFnc_VOID_U8U16U16
                                   1701 ;E:\Dropbox\FAUSTO\SVILUPPI\MSX\CODE\C\MSXgl\projects\soccerlgMSX2/soccerlg_s12_b3.c:159: CallFnc_VOID_U8U16U16(SEG_DRAW, PrintScoreBoardLeft, ScoreBoardLeft.lx, Field.ly, 512);
    0000097D 21r04r00         [10] 1702 	ld	hl, #(_Field + 4)
    00000980 7E               [ 7] 1703 	ld	a, (hl)
    00000981 DD 77 F9         [19] 1704 	ld	-7 (ix), a
    00000984 23               [ 6] 1705 	inc	hl
    00000985 7E               [ 7] 1706 	ld	a, (hl)
    00000986 DD 77 FA         [19] 1707 	ld	-6 (ix), a
    00000989 3Ar00r00         [13] 1708 	ld	a, (#_ScoreBoardLeft + 0)
    0000098C DD 77 FF         [19] 1709 	ld	-1 (ix), a
    0000098F 21 00 02         [10] 1710 	ld	hl, #0x0200
    00000992 E5               [11] 1711 	push	hl
    00000993 DD 6E F9         [19] 1712 	ld	l, -7 (ix)
                                   1713 ;	spillPairReg hl
                                   1714 ;	spillPairReg hl
    00000996 DD 66 FA         [19] 1715 	ld	h, -6 (ix)
                                   1716 ;	spillPairReg hl
                                   1717 ;	spillPairReg hl
    00000999 E5               [11] 1718 	push	hl
    0000099A DD 7E FF         [19] 1719 	ld	a, -1 (ix)
    0000099D F5               [11] 1720 	push	af
    0000099E 33               [ 6] 1721 	inc	sp
    0000099F 11r00r00         [10] 1722 	ld	de, #_PrintScoreBoardLeft
    000009A2 3E 05            [ 7] 1723 	ld	a, #0x05
    000009A4 CDr00r00         [17] 1724 	call	_CallFnc_VOID_U8U16U16
                                   1725 ;E:\Dropbox\FAUSTO\SVILUPPI\MSX\CODE\C\MSXgl\projects\soccerlgMSX2/soccerlg_s12_b3.c:160: CallFnc_VOID_U8U16U16(SEG_DRAW, PrintScoreBoardRight, ScoreBoardRight.lx, Field.ly, 512);
    000009A7 21r04r00         [10] 1726 	ld	hl, #(_Field + 4)
    000009AA 7E               [ 7] 1727 	ld	a, (hl)
    000009AB DD 77 F9         [19] 1728 	ld	-7 (ix), a
    000009AE 23               [ 6] 1729 	inc	hl
    000009AF 7E               [ 7] 1730 	ld	a, (hl)
    000009B0 DD 77 FA         [19] 1731 	ld	-6 (ix), a
    000009B3 3Ar00r00         [13] 1732 	ld	a, (#_ScoreBoardRight + 0)
    000009B6 DD 77 FF         [19] 1733 	ld	-1 (ix), a
    000009B9 21 00 02         [10] 1734 	ld	hl, #0x0200
    000009BC E5               [11] 1735 	push	hl
    000009BD DD 6E F9         [19] 1736 	ld	l, -7 (ix)
                                   1737 ;	spillPairReg hl
                                   1738 ;	spillPairReg hl
    000009C0 DD 66 FA         [19] 1739 	ld	h, -6 (ix)
                                   1740 ;	spillPairReg hl
                                   1741 ;	spillPairReg hl
    000009C3 E5               [11] 1742 	push	hl
    000009C4 DD 7E FF         [19] 1743 	ld	a, -1 (ix)
    000009C7 F5               [11] 1744 	push	af
    000009C8 33               [ 6] 1745 	inc	sp
    000009C9 11r00r00         [10] 1746 	ld	de, #_PrintScoreBoardRight
    000009CC 3E 05            [ 7] 1747 	ld	a, #0x05
    000009CE CDr00r00         [17] 1748 	call	_CallFnc_VOID_U8U16U16
                                   1749 ;E:\Dropbox\FAUSTO\SVILUPPI\MSX\CODE\C\MSXgl\projects\soccerlgMSX2/soccerlg_s12_b3.c:162: *game_state = 2; // Riparte la coreografia di schieramento
    000009D1 DD 6E FD         [19] 1750 	ld	l, -3 (ix)
    000009D4 DD 66 FE         [19] 1751 	ld	h, -2 (ix)
    000009D7 36 02            [10] 1752 	ld	(hl), #0x02
                                   1753 ;E:\Dropbox\FAUSTO\SVILUPPI\MSX\CODE\C\MSXgl\projects\soccerlgMSX2/soccerlg_s12_b3.c:163: if (RestartType == RESTART_GOAL) RestartType = RESTART_KICKOFF_SCROLL;
    000009D9 3Ar00r00         [13] 1754 	ld	a, (_RestartType+0)
    000009DC D6 05            [ 7] 1755 	sub	a, #0x05
    000009DE 20 08            [12] 1756 	jr	NZ, 00180$
    000009E0 FD 21r00r00      [14] 1757 	ld	iy, #_RestartType
    000009E4 FD 36 00 06      [19] 1758 	ld	0 (iy), #0x06
    000009E8                       1759 00180$:
                                   1760 ;E:\Dropbox\FAUSTO\SVILUPPI\MSX\CODE\C\MSXgl\projects\soccerlgMSX2/soccerlg_s12_b3.c:166: *start_sec = Frms;
    000009E8 DD 6E F1         [19] 1761 	ld	l, -15 (ix)
    000009EB DD 66 F2         [19] 1762 	ld	h, -14 (ix)
    000009EE 3Ar00r00         [13] 1763 	ld	a, (_Frms+0)
    000009F1 77               [ 7] 1764 	ld	(hl), a
    000009F2 C3r5Dr1A         [10] 1765 	jp	00391$
    000009F5                       1766 00345$:
                                   1767 ;E:\Dropbox\FAUSTO\SVILUPPI\MSX\CODE\C\MSXgl\projects\soccerlgMSX2/soccerlg_s12_b3.c:168: } else if (*game_state == 9) {
    000009F5 DD 7E FF         [19] 1768 	ld	a, -1 (ix)
    000009F8 D6 09            [ 7] 1769 	sub	a, #0x09
    000009FA C2r0Fr0F         [10] 1770 	jp	NZ,00342$
                                   1771 ;E:\Dropbox\FAUSTO\SVILUPPI\MSX\CODE\C\MSXgl\projects\soccerlgMSX2/soccerlg_s12_b3.c:170: if (*wait_secs > 0) {
    000009FD DD 6E FB         [19] 1772 	ld	l, -5 (ix)
    00000A00 DD 66 FC         [19] 1773 	ld	h, -4 (ix)
    00000A03 4E               [ 7] 1774 	ld	c, (hl)
    00000A04 79               [ 4] 1775 	ld	a, c
    00000A05 B7               [ 4] 1776 	or	a, a
    00000A06 28 34            [12] 1777 	jr	Z, 00188$
                                   1778 ;E:\Dropbox\FAUSTO\SVILUPPI\MSX\CODE\C\MSXgl\projects\soccerlgMSX2/soccerlg_s12_b3.c:171: if (*start_sec < Frms) { // Frms wrapped from 1 to 60
    00000A08 DD 5E 04         [19] 1779 	ld	e, 4 (ix)
    00000A0B DD 56 05         [19] 1780 	ld	d, 5 (ix)
    00000A0E 1A               [ 7] 1781 	ld	a, (de)
    00000A0F 47               [ 4] 1782 	ld	b, a
    00000A10 21r00r00         [10] 1783 	ld	hl, #_Frms
    00000A13 78               [ 4] 1784 	ld	a, b
    00000A14 96               [ 7] 1785 	sub	a, (hl)
    00000A15 30 21            [12] 1786 	jr	NC, 00186$
                                   1787 ;E:\Dropbox\FAUSTO\SVILUPPI\MSX\CODE\C\MSXgl\projects\soccerlgMSX2/soccerlg_s12_b3.c:172: (*wait_secs)--;
    00000A17 79               [ 4] 1788 	ld	a, c
    00000A18 3D               [ 4] 1789 	dec	a
    00000A19 DD 6E FB         [19] 1790 	ld	l, -5 (ix)
    00000A1C DD 66 FC         [19] 1791 	ld	h, -4 (ix)
    00000A1F 77               [ 7] 1792 	ld	(hl), a
                                   1793 ;E:\Dropbox\FAUSTO\SVILUPPI\MSX\CODE\C\MSXgl\projects\soccerlgMSX2/soccerlg_s12_b3.c:173: if (*wait_secs == 0) {
    00000A20 B7               [ 4] 1794 	or	a, a
    00000A21 20 15            [12] 1795 	jr	NZ, 00186$
                                   1796 ;E:\Dropbox\FAUSTO\SVILUPPI\MSX\CODE\C\MSXgl\projects\soccerlgMSX2/soccerlg_s12_b3.c:174: *game_state = 6; // Passa al reset del campo
    00000A23 DD 6E FD         [19] 1797 	ld	l, -3 (ix)
    00000A26 DD 66 FE         [19] 1798 	ld	h, -2 (ix)
    00000A29 36 06            [10] 1799 	ld	(hl), #0x06
                                   1800 ;E:\Dropbox\FAUSTO\SVILUPPI\MSX\CODE\C\MSXgl\projects\soccerlgMSX2/soccerlg_s12_b3.c:175: *wait_secs = 1;  // Pausa minima per permettere il ridisegno pulito
    00000A2B DD 6E FB         [19] 1801 	ld	l, -5 (ix)
    00000A2E DD 66 FC         [19] 1802 	ld	h, -4 (ix)
    00000A31 36 01            [10] 1803 	ld	(hl), #0x01
                                   1804 ;E:\Dropbox\FAUSTO\SVILUPPI\MSX\CODE\C\MSXgl\projects\soccerlgMSX2/soccerlg_s12_b3.c:176: *start_sec = 0;  // FIX: Questo valore forza lo Stato 6 a triggerare istantaneamente il prossimo frame (No lag)
    00000A33 AF               [ 4] 1805 	xor	a, a
    00000A34 12               [ 7] 1806 	ld	(de), a
                                   1807 ;E:\Dropbox\FAUSTO\SVILUPPI\MSX\CODE\C\MSXgl\projects\soccerlgMSX2/soccerlg_s12_b3.c:177: return;
    00000A35 C3r5Dr1A         [10] 1808 	jp	00391$
    00000A38                       1809 00186$:
                                   1810 ;E:\Dropbox\FAUSTO\SVILUPPI\MSX\CODE\C\MSXgl\projects\soccerlgMSX2/soccerlg_s12_b3.c:180: *start_sec = Frms;
    00000A38 3Ar00r00         [13] 1811 	ld	a, (_Frms+0)
    00000A3B 12               [ 7] 1812 	ld	(de), a
    00000A3C                       1813 00188$:
                                   1814 ;E:\Dropbox\FAUSTO\SVILUPPI\MSX\CODE\C\MSXgl\projects\soccerlgMSX2/soccerlg_s12_b3.c:183: u8 scoring_team = (KickOffTeam == TEAM_1) ? TEAM_2 : TEAM_1;
    00000A3C 3Ar00r00         [13] 1815 	ld	a, (_KickOffTeam+0)
    00000A3F B7               [ 4] 1816 	or	a, a
    00000A40 20 06            [12] 1817 	jr	NZ, 00395$
    00000A42 01 01 00         [10] 1818 	ld	bc, #0x0001
    00000A45 C3r4Br0A         [10] 1819 	jp	00396$
    00000A48                       1820 00395$:
    00000A48 01 00 00         [10] 1821 	ld	bc, #0x0000
    00000A4B                       1822 00396$:
    00000A4B DD 71 EC         [19] 1823 	ld	-20 (ix), c
                                   1824 ;E:\Dropbox\FAUSTO\SVILUPPI\MSX\CODE\C\MSXgl\projects\soccerlgMSX2/soccerlg_s12_b3.c:185: for (u8 i = 0; i < 14; i++) {
    00000A4E DD 36 FF 00      [19] 1825 	ld	-1 (ix), #0x00
    00000A52                       1826 00382$:
    00000A52 DD 7E FF         [19] 1827 	ld	a, -1 (ix)
    00000A55 D6 0E            [ 7] 1828 	sub	a, #0x0e
    00000A57 D2r88r0E         [10] 1829 	jp	NC, 00218$
                                   1830 ;E:\Dropbox\FAUSTO\SVILUPPI\MSX\CODE\C\MSXgl\projects\soccerlgMSX2/soccerlg_s12_b3.c:186: u8 team = (i < 7) ? TEAM_1 : TEAM_2;
    00000A5A DD 7E FF         [19] 1831 	ld	a, -1 (ix)
    00000A5D D6 07            [ 7] 1832 	sub	a, #0x07
    00000A5F 30 06            [12] 1833 	jr	NC, 00397$
    00000A61 01 00 00         [10] 1834 	ld	bc, #0x0000
    00000A64 C3r6Ar0A         [10] 1835 	jp	00398$
    00000A67                       1836 00397$:
    00000A67 01 01 00         [10] 1837 	ld	bc, #0x0001
    00000A6A                       1838 00398$:
                                   1839 ;E:\Dropbox\FAUSTO\SVILUPPI\MSX\CODE\C\MSXgl\projects\soccerlgMSX2/soccerlg_s12_b3.c:187: struct ObjectInfo* p = &SwSprite[i];
    00000A6A DD 5E FF         [19] 1840 	ld	e, -1 (ix)
    00000A6D 16 00            [ 7] 1841 	ld	d, #0x00
    00000A6F 6B               [ 4] 1842 	ld	l, e
    00000A70 62               [ 4] 1843 	ld	h, d
    00000A71 29               [11] 1844 	add	hl, hl
    00000A72 29               [11] 1845 	add	hl, hl
    00000A73 19               [11] 1846 	add	hl, de
    00000A74 29               [11] 1847 	add	hl, hl
    00000A75 19               [11] 1848 	add	hl, de
    00000A76 29               [11] 1849 	add	hl, hl
    00000A77 19               [11] 1850 	add	hl, de
    00000A78 11r00r00         [10] 1851 	ld	de, #_SwSprite
    00000A7B 19               [11] 1852 	add	hl, de
                                   1853 ;E:\Dropbox\FAUSTO\SVILUPPI\MSX\CODE\C\MSXgl\projects\soccerlgMSX2/soccerlg_s12_b3.c:206: i16 next_x = p->lx + dx;
    00000A7C DD 75 ED         [19] 1854 	ld	-19 (ix), l
    00000A7F DD 74 EE         [19] 1855 	ld	-18 (ix), h
    00000A82 7E               [ 7] 1856 	ld	a, (hl)
    00000A83 DD 77 FA         [19] 1857 	ld	-6 (ix), a
                                   1858 ;E:\Dropbox\FAUSTO\SVILUPPI\MSX\CODE\C\MSXgl\projects\soccerlgMSX2/soccerlg_s12_b3.c:207: i16 next_y = p->ly + dy;
    00000A86 DD 7E ED         [19] 1859 	ld	a, -19 (ix)
    00000A89 C6 04            [ 7] 1860 	add	a, #0x04
    00000A8B DD 77 EF         [19] 1861 	ld	-17 (ix), a
    00000A8E DD 7E EE         [19] 1862 	ld	a, -18 (ix)
    00000A91 CE 00            [ 7] 1863 	adc	a, #0x00
    00000A93 DD 77 F0         [19] 1864 	ld	-16 (ix), a
    00000A96 DD 6E EF         [19] 1865 	ld	l, -17 (ix)
    00000A99 DD 66 F0         [19] 1866 	ld	h, -16 (ix)
    00000A9C 7E               [ 7] 1867 	ld	a, (hl)
    00000A9D DD 77 F5         [19] 1868 	ld	-11 (ix), a
    00000AA0 23               [ 6] 1869 	inc	hl
    00000AA1 7E               [ 7] 1870 	ld	a, (hl)
    00000AA2 DD 77 F6         [19] 1871 	ld	-10 (ix), a
                                   1872 ;E:\Dropbox\FAUSTO\SVILUPPI\MSX\CODE\C\MSXgl\projects\soccerlgMSX2/soccerlg_s12_b3.c:220: p->frame = CallFnc_U16_P4(SEG_GAMESTATE_2, GetPlayerAnimFrame, i, p->dx, p->dy, walk_seq[(p->anim / 3) % 4]);
    00000AA5 DD 7E ED         [19] 1873 	ld	a, -19 (ix)
    00000AA8 C6 0F            [ 7] 1874 	add	a, #0x0f
    00000AAA DD 77 F1         [19] 1875 	ld	-15 (ix), a
    00000AAD DD 7E EE         [19] 1876 	ld	a, -18 (ix)
    00000AB0 CE 00            [ 7] 1877 	adc	a, #0x00
    00000AB2 DD 77 F2         [19] 1878 	ld	-14 (ix), a
                                   1879 ;E:\Dropbox\FAUSTO\SVILUPPI\MSX\CODE\C\MSXgl\projects\soccerlgMSX2/soccerlg_s12_b3.c:189: if (team == scoring_team && i != 0 && i != 7) { 
    00000AB5 DD 7E EC         [19] 1880 	ld	a, -20 (ix)
    00000AB8 91               [ 4] 1881 	sub	a, c
    00000AB9 C2rDCr0D         [10] 1882 	jp	NZ,00214$
    00000ABC DD 7E FF         [19] 1883 	ld	a, -1 (ix)
    00000ABF B7               [ 4] 1884 	or	a, a
    00000AC0 CArDCr0D         [10] 1885 	jp	Z, 00214$
    00000AC3 DD 7E FF         [19] 1886 	ld	a, -1 (ix)
    00000AC6 D6 07            [ 7] 1887 	sub	a, #0x07
    00000AC8 CArDCr0D         [10] 1888 	jp	Z,00214$
                                   1889 ;E:\Dropbox\FAUSTO\SVILUPPI\MSX\CODE\C\MSXgl\projects\soccerlgMSX2/soccerlg_s12_b3.c:191: u16 total_frms = (*wait_secs * 60) + Frms;
    00000ACB DD 6E FB         [19] 1890 	ld	l, -5 (ix)
    00000ACE DD 66 FC         [19] 1891 	ld	h, -4 (ix)
    00000AD1 7E               [ 7] 1892 	ld	a, (hl)
    00000AD2 DD 77 F9         [19] 1893 	ld	-7 (ix), a
    00000AD5 DD 77 F8         [19] 1894 	ld	-8 (ix), a
    00000AD8 DD 36 F9 00      [19] 1895 	ld	-7 (ix), #0x00
    00000ADC 4F               [ 4] 1896 	ld	c, a
    00000ADD 06 00            [ 7] 1897 	ld	b, #0x00
    00000ADF 69               [ 4] 1898 	ld	l, c
    00000AE0 60               [ 4] 1899 	ld	h, b
    00000AE1 29               [11] 1900 	add	hl, hl
    00000AE2 09               [11] 1901 	add	hl, bc
    00000AE3 29               [11] 1902 	add	hl, hl
    00000AE4 09               [11] 1903 	add	hl, bc
    00000AE5 29               [11] 1904 	add	hl, hl
    00000AE6 09               [11] 1905 	add	hl, bc
    00000AE7 29               [11] 1906 	add	hl, hl
    00000AE8 29               [11] 1907 	add	hl, hl
    00000AE9 DD 75 EA         [19] 1908 	ld	-22 (ix), l
    00000AEC DD 74 EB         [19] 1909 	ld	-21 (ix), h
    00000AEF 3Ar00r00         [13] 1910 	ld	a, (_Frms+0)
    00000AF2 DD 77 F3         [19] 1911 	ld	-13 (ix), a
    00000AF5 DD 36 F4 00      [19] 1912 	ld	-12 (ix), #0x00
    00000AF9 DD 7E F3         [19] 1913 	ld	a, -13 (ix)
    00000AFC DD 86 EA         [19] 1914 	add	a, -22 (ix)
    00000AFF DD 77 F8         [19] 1915 	ld	-8 (ix), a
    00000B02 DD 7E F4         [19] 1916 	ld	a, -12 (ix)
    00000B05 DD 8E EB         [19] 1917 	adc	a, -21 (ix)
    00000B08 DD 77 F9         [19] 1918 	ld	-7 (ix), a
                                   1919 ;E:\Dropbox\FAUSTO\SVILUPPI\MSX\CODE\C\MSXgl\projects\soccerlgMSX2/soccerlg_s12_b3.c:192: u8 phase = ((total_frms / 32) + i) % 8; // Traiettorie molto più ampie e lunghe
    00000B0B DD 7E F8         [19] 1920 	ld	a, -8 (ix)
    00000B0E DD 77 EA         [19] 1921 	ld	-22 (ix), a
    00000B11 DD 7E F9         [19] 1922 	ld	a, -7 (ix)
    00000B14 DD 77 EB         [19] 1923 	ld	-21 (ix), a
    00000B17 DD CB EB 3E      [23] 1924 	srl	-21 (ix)
    00000B1B DD CB EA 1E      [23] 1925 	rr	-22 (ix)
    00000B1F DD CB EB 3E      [23] 1926 	srl	-21 (ix)
    00000B23 DD CB EA 1E      [23] 1927 	rr	-22 (ix)
    00000B27 DD CB EB 3E      [23] 1928 	srl	-21 (ix)
    00000B2B DD CB EA 1E      [23] 1929 	rr	-22 (ix)
    00000B2F DD CB EB 3E      [23] 1930 	srl	-21 (ix)
    00000B33 DD CB EA 1E      [23] 1931 	rr	-22 (ix)
    00000B37 DD CB EB 3E      [23] 1932 	srl	-21 (ix)
    00000B3B DD CB EA 1E      [23] 1933 	rr	-22 (ix)
    00000B3F DD 7E FF         [19] 1934 	ld	a, -1 (ix)
    00000B42 DD 77 F8         [19] 1935 	ld	-8 (ix), a
    00000B45 DD 36 F9 00      [19] 1936 	ld	-7 (ix), #0x00
    00000B49 DD 7E F8         [19] 1937 	ld	a, -8 (ix)
    00000B4C DD 86 EA         [19] 1938 	add	a, -22 (ix)
    00000B4F DD 77 F3         [19] 1939 	ld	-13 (ix), a
    00000B52 DD 7E F9         [19] 1940 	ld	a, -7 (ix)
    00000B55 DD 8E EB         [19] 1941 	adc	a, -21 (ix)
    00000B58 DD 77 F4         [19] 1942 	ld	-12 (ix), a
    00000B5B DD 7E F3         [19] 1943 	ld	a, -13 (ix)
    00000B5E E6 07            [ 7] 1944 	and	a, #0x07
    00000B60 DD 77 F8         [19] 1945 	ld	-8 (ix), a
    00000B63 DD 36 F9 00      [19] 1946 	ld	-7 (ix), #0x00
    00000B67 DD 7E F8         [19] 1947 	ld	a, -8 (ix)
    00000B6A DD 77 F9         [19] 1948 	ld	-7 (ix), a
                                   1949 ;E:\Dropbox\FAUSTO\SVILUPPI\MSX\CODE\C\MSXgl\projects\soccerlgMSX2/soccerlg_s12_b3.c:193: i8 dx = 0, dy = 0;
    00000B6D DD 36 F3 00      [19] 1950 	ld	-13 (ix), #0x00
    00000B71 DD 36 F4 00      [19] 1951 	ld	-12 (ix), #0x00
                                   1952 ;E:\Dropbox\FAUSTO\SVILUPPI\MSX\CODE\C\MSXgl\projects\soccerlgMSX2/soccerlg_s12_b3.c:194: switch(phase) {
    00000B75 3E 07            [ 7] 1953 	ld	a, #0x07
    00000B77 DD 96 F9         [19] 1954 	sub	a, -7 (ix)
    00000B7A 38 79            [12] 1955 	jr	C, 00197$
    00000B7C DD 4E F9         [19] 1956 	ld	c, -7 (ix)
    00000B7F 06 00            [ 7] 1957 	ld	b, #0x00
    00000B81 21r88r0B         [10] 1958 	ld	hl, #01277$
    00000B84 09               [11] 1959 	add	hl, bc
    00000B85 09               [11] 1960 	add	hl, bc
    00000B86 09               [11] 1961 	add	hl, bc
    00000B87 E9               [ 4] 1962 	jp	(hl)
    00000B88                       1963 01277$:
    00000B88 C3rA0r0B         [10] 1964 	jp	00189$
    00000B8B C3rABr0B         [10] 1965 	jp	00190$
    00000B8E C3rB6r0B         [10] 1966 	jp	00191$
    00000B91 C3rC1r0B         [10] 1967 	jp	00192$
    00000B94 C3rCCr0B         [10] 1968 	jp	00193$
    00000B97 C3rD7r0B         [10] 1969 	jp	00194$
    00000B9A C3rE2r0B         [10] 1970 	jp	00195$
    00000B9D C3rEDr0B         [10] 1971 	jp	00196$
                                   1972 ;E:\Dropbox\FAUSTO\SVILUPPI\MSX\CODE\C\MSXgl\projects\soccerlgMSX2/soccerlg_s12_b3.c:195: case 0: dx =  0; dy = -2; break; // N
    00000BA0                       1973 00189$:
    00000BA0 DD 36 F3 00      [19] 1974 	ld	-13 (ix), #0x00
    00000BA4 DD 36 F4 FE      [19] 1975 	ld	-12 (ix), #0xfe
    00000BA8 C3rF5r0B         [10] 1976 	jp	00197$
                                   1977 ;E:\Dropbox\FAUSTO\SVILUPPI\MSX\CODE\C\MSXgl\projects\soccerlgMSX2/soccerlg_s12_b3.c:196: case 1: dx =  2; dy = -2; break; // NE
    00000BAB                       1978 00190$:
    00000BAB DD 36 F3 02      [19] 1979 	ld	-13 (ix), #0x02
    00000BAF DD 36 F4 FE      [19] 1980 	ld	-12 (ix), #0xfe
    00000BB3 C3rF5r0B         [10] 1981 	jp	00197$
                                   1982 ;E:\Dropbox\FAUSTO\SVILUPPI\MSX\CODE\C\MSXgl\projects\soccerlgMSX2/soccerlg_s12_b3.c:197: case 2: dx =  2; dy =  0; break; // E
    00000BB6                       1983 00191$:
    00000BB6 DD 36 F3 02      [19] 1984 	ld	-13 (ix), #0x02
    00000BBA DD 36 F4 00      [19] 1985 	ld	-12 (ix), #0x00
    00000BBE C3rF5r0B         [10] 1986 	jp	00197$
                                   1987 ;E:\Dropbox\FAUSTO\SVILUPPI\MSX\CODE\C\MSXgl\projects\soccerlgMSX2/soccerlg_s12_b3.c:198: case 3: dx =  2; dy =  2; break; // SE
    00000BC1                       1988 00192$:
    00000BC1 DD 36 F3 02      [19] 1989 	ld	-13 (ix), #0x02
    00000BC5 DD 36 F4 02      [19] 1990 	ld	-12 (ix), #0x02
    00000BC9 C3rF5r0B         [10] 1991 	jp	00197$
                                   1992 ;E:\Dropbox\FAUSTO\SVILUPPI\MSX\CODE\C\MSXgl\projects\soccerlgMSX2/soccerlg_s12_b3.c:199: case 4: dx =  0; dy =  2; break; // S
    00000BCC                       1993 00193$:
    00000BCC DD 36 F3 00      [19] 1994 	ld	-13 (ix), #0x00
    00000BD0 DD 36 F4 02      [19] 1995 	ld	-12 (ix), #0x02
    00000BD4 C3rF5r0B         [10] 1996 	jp	00197$
                                   1997 ;E:\Dropbox\FAUSTO\SVILUPPI\MSX\CODE\C\MSXgl\projects\soccerlgMSX2/soccerlg_s12_b3.c:200: case 5: dx = -2; dy =  2; break; // SW
    00000BD7                       1998 00194$:
    00000BD7 DD 36 F3 FE      [19] 1999 	ld	-13 (ix), #0xfe
    00000BDB DD 36 F4 02      [19] 2000 	ld	-12 (ix), #0x02
    00000BDF C3rF5r0B         [10] 2001 	jp	00197$
                                   2002 ;E:\Dropbox\FAUSTO\SVILUPPI\MSX\CODE\C\MSXgl\projects\soccerlgMSX2/soccerlg_s12_b3.c:201: case 6: dx = -2; dy =  0; break; // W
    00000BE2                       2003 00195$:
    00000BE2 DD 36 F3 FE      [19] 2004 	ld	-13 (ix), #0xfe
    00000BE6 DD 36 F4 00      [19] 2005 	ld	-12 (ix), #0x00
    00000BEA C3rF5r0B         [10] 2006 	jp	00197$
                                   2007 ;E:\Dropbox\FAUSTO\SVILUPPI\MSX\CODE\C\MSXgl\projects\soccerlgMSX2/soccerlg_s12_b3.c:202: case 7: dx = -2; dy = -2; break; // NW
    00000BED                       2008 00196$:
    00000BED DD 36 F3 FE      [19] 2009 	ld	-13 (ix), #0xfe
    00000BF1 DD 36 F4 FE      [19] 2010 	ld	-12 (ix), #0xfe
                                   2011 ;E:\Dropbox\FAUSTO\SVILUPPI\MSX\CODE\C\MSXgl\projects\soccerlgMSX2/soccerlg_s12_b3.c:203: }
    00000BF5                       2012 00197$:
                                   2013 ;E:\Dropbox\FAUSTO\SVILUPPI\MSX\CODE\C\MSXgl\projects\soccerlgMSX2/soccerlg_s12_b3.c:206: i16 next_x = p->lx + dx;
    00000BF5 DD 7E FA         [19] 2014 	ld	a, -6 (ix)
    00000BF8 DD 77 EA         [19] 2015 	ld	-22 (ix), a
    00000BFB DD 36 EB 00      [19] 2016 	ld	-21 (ix), #0x00
    00000BFF DD 7E F3         [19] 2017 	ld	a, -13 (ix)
    00000C02 DD 77 F7         [19] 2018 	ld	-9 (ix), a
    00000C05 07               [ 4] 2019 	rlca
    00000C06 9F               [ 4] 2020 	sbc	a, a
    00000C07 DD 77 F8         [19] 2021 	ld	-8 (ix), a
    00000C0A DD 7E F7         [19] 2022 	ld	a, -9 (ix)
    00000C0D DD 86 EA         [19] 2023 	add	a, -22 (ix)
    00000C10 DD 77 F9         [19] 2024 	ld	-7 (ix), a
    00000C13 DD 7E F8         [19] 2025 	ld	a, -8 (ix)
    00000C16 DD 8E EB         [19] 2026 	adc	a, -21 (ix)
    00000C19 DD 77 FA         [19] 2027 	ld	-6 (ix), a
    00000C1C DD 7E F9         [19] 2028 	ld	a, -7 (ix)
    00000C1F DD 77 F7         [19] 2029 	ld	-9 (ix), a
    00000C22 DD 7E FA         [19] 2030 	ld	a, -6 (ix)
    00000C25 DD 77 F8         [19] 2031 	ld	-8 (ix), a
                                   2032 ;E:\Dropbox\FAUSTO\SVILUPPI\MSX\CODE\C\MSXgl\projects\soccerlgMSX2/soccerlg_s12_b3.c:207: i16 next_y = p->ly + dy;
    00000C28 DD 7E F4         [19] 2033 	ld	a, -12 (ix)
    00000C2B DD 77 F9         [19] 2034 	ld	-7 (ix), a
    00000C2E 07               [ 4] 2035 	rlca
    00000C2F 9F               [ 4] 2036 	sbc	a, a
    00000C30 DD 77 FA         [19] 2037 	ld	-6 (ix), a
    00000C33 DD 7E F5         [19] 2038 	ld	a, -11 (ix)
    00000C36 DD 77 EA         [19] 2039 	ld	-22 (ix), a
    00000C39 DD 7E F6         [19] 2040 	ld	a, -10 (ix)
    00000C3C DD 77 EB         [19] 2041 	ld	-21 (ix), a
    00000C3F DD 7E F9         [19] 2042 	ld	a, -7 (ix)
    00000C42 DD 77 F5         [19] 2043 	ld	-11 (ix), a
    00000C45 DD 7E FA         [19] 2044 	ld	a, -6 (ix)
    00000C48 DD 77 F6         [19] 2045 	ld	-10 (ix), a
    00000C4B DD 7E EA         [19] 2046 	ld	a, -22 (ix)
    00000C4E DD 86 F5         [19] 2047 	add	a, -11 (ix)
    00000C51 DD 77 F9         [19] 2048 	ld	-7 (ix), a
    00000C54 DD 7E EB         [19] 2049 	ld	a, -21 (ix)
    00000C57 DD 8E F6         [19] 2050 	adc	a, -10 (ix)
    00000C5A DD 77 FA         [19] 2051 	ld	-6 (ix), a
                                   2052 ;E:\Dropbox\FAUSTO\SVILUPPI\MSX\CODE\C\MSXgl\projects\soccerlgMSX2/soccerlg_s12_b3.c:208: if (next_x < 32 && dx < 0) dx = 0;
    00000C5D DD 7E F7         [19] 2053 	ld	a, -9 (ix)
    00000C60 D6 20            [ 7] 2054 	sub	a, #0x20
    00000C62 DD 7E F8         [19] 2055 	ld	a, -8 (ix)
    00000C65 17               [ 4] 2056 	rla
    00000C66 3F               [ 4] 2057 	ccf
    00000C67 1F               [ 4] 2058 	rra
    00000C68 DE 80            [ 7] 2059 	sbc	a, #0x80
    00000C6A 30 0A            [12] 2060 	jr	NC, 00199$
    00000C6C DD CB F3 7E      [20] 2061 	bit	7, -13 (ix)
    00000C70 28 04            [12] 2062 	jr	Z, 00199$
    00000C72 DD 36 F3 00      [19] 2063 	ld	-13 (ix), #0x00
    00000C76                       2064 00199$:
                                   2065 ;E:\Dropbox\FAUSTO\SVILUPPI\MSX\CODE\C\MSXgl\projects\soccerlgMSX2/soccerlg_s12_b3.c:209: if (next_x > 224 && dx > 0) dx = 0;
    00000C76 3E E0            [ 7] 2066 	ld	a, #0xe0
    00000C78 DD BE F7         [19] 2067 	cp	a, -9 (ix)
    00000C7B 3E 00            [ 7] 2068 	ld	a, #0x00
    00000C7D DD 9E F8         [19] 2069 	sbc	a, -8 (ix)
    00000C80 E2r85r0C         [10] 2070 	jp	PO, 01278$
    00000C83 EE 80            [ 7] 2071 	xor	a, #0x80
    00000C85                       2072 01278$:
    00000C85 F2r98r0C         [10] 2073 	jp	P, 00202$
    00000C88 AF               [ 4] 2074 	xor	a, a
    00000C89 DD 96 F3         [19] 2075 	sub	a, -13 (ix)
    00000C8C E2r91r0C         [10] 2076 	jp	PO, 01279$
    00000C8F EE 80            [ 7] 2077 	xor	a, #0x80
    00000C91                       2078 01279$:
    00000C91 F2r98r0C         [10] 2079 	jp	P, 00202$
    00000C94 DD 36 F3 00      [19] 2080 	ld	-13 (ix), #0x00
    00000C98                       2081 00202$:
                                   2082 ;E:\Dropbox\FAUSTO\SVILUPPI\MSX\CODE\C\MSXgl\projects\soccerlgMSX2/soccerlg_s12_b3.c:210: if (next_y < (i16)Field.ly + 32 && dy < 0) dy = 0;
    00000C98 21r04r00         [10] 2083 	ld	hl, #(_Field + 4)
    00000C9B 7E               [ 7] 2084 	ld	a, (hl)
    00000C9C DD 77 F7         [19] 2085 	ld	-9 (ix), a
    00000C9F 23               [ 6] 2086 	inc	hl
    00000CA0 7E               [ 7] 2087 	ld	a, (hl)
    00000CA1 DD 77 F8         [19] 2088 	ld	-8 (ix), a
    00000CA4 DD 7E F7         [19] 2089 	ld	a, -9 (ix)
    00000CA7 DD 77 F5         [19] 2090 	ld	-11 (ix), a
    00000CAA DD 7E F8         [19] 2091 	ld	a, -8 (ix)
    00000CAD DD 77 F6         [19] 2092 	ld	-10 (ix), a
    00000CB0 DD 7E F5         [19] 2093 	ld	a, -11 (ix)
    00000CB3 C6 20            [ 7] 2094 	add	a, #0x20
    00000CB5 DD 77 F7         [19] 2095 	ld	-9 (ix), a
    00000CB8 DD 7E F6         [19] 2096 	ld	a, -10 (ix)
    00000CBB CE 00            [ 7] 2097 	adc	a, #0x00
    00000CBD DD 77 F8         [19] 2098 	ld	-8 (ix), a
    00000CC0 DD 7E F9         [19] 2099 	ld	a, -7 (ix)
    00000CC3 DD 96 F7         [19] 2100 	sub	a, -9 (ix)
    00000CC6 DD 7E FA         [19] 2101 	ld	a, -6 (ix)
    00000CC9 DD 9E F8         [19] 2102 	sbc	a, -8 (ix)
    00000CCC E2rD1r0C         [10] 2103 	jp	PO, 01280$
    00000CCF EE 80            [ 7] 2104 	xor	a, #0x80
    00000CD1                       2105 01280$:
    00000CD1 F2rDEr0C         [10] 2106 	jp	P, 00205$
    00000CD4 DD CB F4 7E      [20] 2107 	bit	7, -12 (ix)
    00000CD8 28 04            [12] 2108 	jr	Z, 00205$
    00000CDA DD 36 F4 00      [19] 2109 	ld	-12 (ix), #0x00
    00000CDE                       2110 00205$:
                                   2111 ;E:\Dropbox\FAUSTO\SVILUPPI\MSX\CODE\C\MSXgl\projects\soccerlgMSX2/soccerlg_s12_b3.c:211: if (next_y > (i16)Field.ly + 192 - 32 && dy > 0) dy = 0;
    00000CDE DD 6E F5         [19] 2112 	ld	l, -11 (ix)
    00000CE1 DD 66 F6         [19] 2113 	ld	h, -10 (ix)
    00000CE4 11 A0 00         [10] 2114 	ld	de, #0x00a0
    00000CE7 19               [11] 2115 	add	hl, de
    00000CE8 7D               [ 4] 2116 	ld	a, l
    00000CE9 DD 96 F9         [19] 2117 	sub	a, -7 (ix)
    00000CEC 7C               [ 4] 2118 	ld	a, h
    00000CED DD 9E FA         [19] 2119 	sbc	a, -6 (ix)
    00000CF0 E2rF5r0C         [10] 2120 	jp	PO, 01281$
    00000CF3 EE 80            [ 7] 2121 	xor	a, #0x80
    00000CF5                       2122 01281$:
    00000CF5 F2r08r0D         [10] 2123 	jp	P, 00208$
    00000CF8 AF               [ 4] 2124 	xor	a, a
    00000CF9 DD 96 F4         [19] 2125 	sub	a, -12 (ix)
    00000CFC E2r01r0D         [10] 2126 	jp	PO, 01282$
    00000CFF EE 80            [ 7] 2127 	xor	a, #0x80
    00000D01                       2128 01282$:
    00000D01 F2r08r0D         [10] 2129 	jp	P, 00208$
    00000D04 DD 36 F4 00      [19] 2130 	ld	-12 (ix), #0x00
    00000D08                       2131 00208$:
                                   2132 ;E:\Dropbox\FAUSTO\SVILUPPI\MSX\CODE\C\MSXgl\projects\soccerlgMSX2/soccerlg_s12_b3.c:213: p->dx = dx;
    00000D08 DD 6E ED         [19] 2133 	ld	l, -19 (ix)
    00000D0B DD 66 EE         [19] 2134 	ld	h, -18 (ix)
    00000D0E 11 11 00         [10] 2135 	ld	de, #0x0011
    00000D11 19               [11] 2136 	add	hl, de
    00000D12 DD 7E F3         [19] 2137 	ld	a, -13 (ix)
    00000D15 77               [ 7] 2138 	ld	(hl), a
                                   2139 ;E:\Dropbox\FAUSTO\SVILUPPI\MSX\CODE\C\MSXgl\projects\soccerlgMSX2/soccerlg_s12_b3.c:214: p->dy = dy;
    00000D16 DD 6E ED         [19] 2140 	ld	l, -19 (ix)
    00000D19 DD 66 EE         [19] 2141 	ld	h, -18 (ix)
    00000D1C 11 12 00         [10] 2142 	ld	de, #0x0012
    00000D1F 19               [11] 2143 	add	hl, de
    00000D20 DD 7E F4         [19] 2144 	ld	a, -12 (ix)
    00000D23 77               [ 7] 2145 	ld	(hl), a
                                   2146 ;E:\Dropbox\FAUSTO\SVILUPPI\MSX\CODE\C\MSXgl\projects\soccerlgMSX2/soccerlg_s12_b3.c:215: p->lx += dx;
    00000D24 DD 6E ED         [19] 2147 	ld	l, -19 (ix)
    00000D27 DD 66 EE         [19] 2148 	ld	h, -18 (ix)
    00000D2A 7E               [ 7] 2149 	ld	a, (hl)
    00000D2B DD 86 F3         [19] 2150 	add	a, -13 (ix)
    00000D2E DD 6E ED         [19] 2151 	ld	l, -19 (ix)
    00000D31 DD 66 EE         [19] 2152 	ld	h, -18 (ix)
    00000D34 77               [ 7] 2153 	ld	(hl), a
                                   2154 ;E:\Dropbox\FAUSTO\SVILUPPI\MSX\CODE\C\MSXgl\projects\soccerlgMSX2/soccerlg_s12_b3.c:216: p->ly += dy;
    00000D35 DD 6E EF         [19] 2155 	ld	l, -17 (ix)
    00000D38 DD 66 F0         [19] 2156 	ld	h, -16 (ix)
    00000D3B 7E               [ 7] 2157 	ld	a, (hl)
    00000D3C DD 77 F7         [19] 2158 	ld	-9 (ix), a
    00000D3F 23               [ 6] 2159 	inc	hl
    00000D40 7E               [ 7] 2160 	ld	a, (hl)
    00000D41 DD 77 F8         [19] 2161 	ld	-8 (ix), a
    00000D44 DD 7E F4         [19] 2162 	ld	a, -12 (ix)
    00000D47 DD 77 F9         [19] 2163 	ld	-7 (ix), a
    00000D4A 07               [ 4] 2164 	rlca
    00000D4B 9F               [ 4] 2165 	sbc	a, a
    00000D4C DD 77 FA         [19] 2166 	ld	-6 (ix), a
    00000D4F DD 7E F7         [19] 2167 	ld	a, -9 (ix)
    00000D52 DD 77 F5         [19] 2168 	ld	-11 (ix), a
    00000D55 DD 7E F8         [19] 2169 	ld	a, -8 (ix)
    00000D58 DD 77 F6         [19] 2170 	ld	-10 (ix), a
    00000D5B DD 7E F9         [19] 2171 	ld	a, -7 (ix)
    00000D5E DD 77 F7         [19] 2172 	ld	-9 (ix), a
    00000D61 DD 7E FA         [19] 2173 	ld	a, -6 (ix)
    00000D64 DD 77 F8         [19] 2174 	ld	-8 (ix), a
    00000D67 DD 7E F7         [19] 2175 	ld	a, -9 (ix)
    00000D6A DD 86 F5         [19] 2176 	add	a, -11 (ix)
    00000D6D DD 77 F9         [19] 2177 	ld	-7 (ix), a
    00000D70 DD 7E F8         [19] 2178 	ld	a, -8 (ix)
    00000D73 DD 8E F6         [19] 2179 	adc	a, -10 (ix)
    00000D76 DD 77 FA         [19] 2180 	ld	-6 (ix), a
    00000D79 DD 6E EF         [19] 2181 	ld	l, -17 (ix)
    00000D7C DD 66 F0         [19] 2182 	ld	h, -16 (ix)
    00000D7F DD 7E F9         [19] 2183 	ld	a, -7 (ix)
    00000D82 77               [ 7] 2184 	ld	(hl), a
    00000D83 23               [ 6] 2185 	inc	hl
    00000D84 DD 7E FA         [19] 2186 	ld	a, -6 (ix)
    00000D87 77               [ 7] 2187 	ld	(hl), a
                                   2188 ;E:\Dropbox\FAUSTO\SVILUPPI\MSX\CODE\C\MSXgl\projects\soccerlgMSX2/soccerlg_s12_b3.c:217: p->anim++;
    00000D88 DD 6E ED         [19] 2189 	ld	l, -19 (ix)
    00000D8B DD 66 EE         [19] 2190 	ld	h, -18 (ix)
    00000D8E 11 13 00         [10] 2191 	ld	de, #0x0013
    00000D91 19               [11] 2192 	add	hl, de
    00000D92 5E               [ 7] 2193 	ld	e, (hl)
    00000D93 23               [ 6] 2194 	inc	hl
    00000D94 56               [ 7] 2195 	ld	d, (hl)
    00000D95 2B               [ 6] 2196 	dec	hl
    00000D96 13               [ 6] 2197 	inc	de
    00000D97 73               [ 7] 2198 	ld	(hl), e
    00000D98 23               [ 6] 2199 	inc	hl
    00000D99 72               [ 7] 2200 	ld	(hl), d
                                   2201 ;E:\Dropbox\FAUSTO\SVILUPPI\MSX\CODE\C\MSXgl\projects\soccerlgMSX2/soccerlg_s12_b3.c:219: const u8 walk_seq[4] = {0, 1, 2, 1};
    00000D9A DD 36 E6 00      [19] 2202 	ld	-26 (ix), #0x00
    00000D9E DD 36 E7 01      [19] 2203 	ld	-25 (ix), #0x01
    00000DA2 DD 36 E8 02      [19] 2204 	ld	-24 (ix), #0x02
    00000DA6 DD 36 E9 01      [19] 2205 	ld	-23 (ix), #0x01
                                   2206 ;E:\Dropbox\FAUSTO\SVILUPPI\MSX\CODE\C\MSXgl\projects\soccerlgMSX2/soccerlg_s12_b3.c:220: p->frame = CallFnc_U16_P4(SEG_GAMESTATE_2, GetPlayerAnimFrame, i, p->dx, p->dy, walk_seq[(p->anim / 3) % 4]);
    00000DAA EB               [ 4] 2207 	ex	de, hl
    00000DAB 11 03 00         [10] 2208 	ld	de, #0x0003
    00000DAE CDr00r00         [17] 2209 	call	__divuint
    00000DB1 7B               [ 4] 2210 	ld	a, e
    00000DB2 E6 03            [ 7] 2211 	and	a, #0x03
    00000DB4 4F               [ 4] 2212 	ld	c, a
    00000DB5 06 00            [ 7] 2213 	ld	b, #0x00
    00000DB7 21 06 00         [10] 2214 	ld	hl, #6
    00000DBA 39               [11] 2215 	add	hl, sp
    00000DBB 09               [11] 2216 	add	hl, bc
    00000DBC 66               [ 7] 2217 	ld	h, (hl)
    00000DBD DD 6E F4         [19] 2218 	ld	l, -12 (ix)
    00000DC0 E5               [11] 2219 	push	hl
    00000DC1 DD 66 F3         [19] 2220 	ld	h, -13 (ix)
    00000DC4 DD 6E FF         [19] 2221 	ld	l, -1 (ix)
    00000DC7 E5               [11] 2222 	push	hl
    00000DC8 11r00r00         [10] 2223 	ld	de, #_GetPlayerAnimFrame
    00000DCB 3E 0B            [ 7] 2224 	ld	a, #0x0b
    00000DCD CDr00r00         [17] 2225 	call	_CallFnc_U16_P4
    00000DD0 DD 6E F1         [19] 2226 	ld	l, -15 (ix)
    00000DD3 DD 66 F2         [19] 2227 	ld	h, -14 (ix)
    00000DD6 73               [ 7] 2228 	ld	(hl), e
    00000DD7 23               [ 6] 2229 	inc	hl
    00000DD8 72               [ 7] 2230 	ld	(hl), d
    00000DD9 C3r82r0E         [10] 2231 	jp	00383$
    00000DDC                       2232 00214$:
                                   2233 ;E:\Dropbox\FAUSTO\SVILUPPI\MSX\CODE\C\MSXgl\projects\soccerlgMSX2/soccerlg_s12_b3.c:223: i8 look_dx = (SwSprite[14].lx > p->lx) ? 1 : ((SwSprite[14].lx < p->lx) ? -1 : 0);
    00000DDC 3Ar42r01         [13] 2234 	ld	a, (#(_SwSprite + 322) + 0)
    00000DDF DD 77 F9         [19] 2235 	ld	-7 (ix), a
    00000DE2 DD 7E FA         [19] 2236 	ld	a, -6 (ix)
    00000DE5 DD 96 F9         [19] 2237 	sub	a, -7 (ix)
    00000DE8 30 0B            [12] 2238 	jr	NC, 00399$
    00000DEA DD 36 F9 01      [19] 2239 	ld	-7 (ix), #0x01
    00000DEE DD 36 FA 00      [19] 2240 	ld	-6 (ix), #0
    00000DF2 C3r0Fr0E         [10] 2241 	jp	00400$
    00000DF5                       2242 00399$:
    00000DF5 DD 7E F9         [19] 2243 	ld	a, -7 (ix)
    00000DF8 DD 96 FA         [19] 2244 	sub	a, -6 (ix)
    00000DFB 30 0B            [12] 2245 	jr	NC, 00401$
    00000DFD DD 36 F9 FF      [19] 2246 	ld	-7 (ix), #0xff
    00000E01 DD 36 FA FF      [19] 2247 	ld	-6 (ix), #0xff
    00000E05 C3r0Fr0E         [10] 2248 	jp	00402$
    00000E08                       2249 00401$:
    00000E08 AF               [ 4] 2250 	xor	a, a
    00000E09 DD 77 F9         [19] 2251 	ld	-7 (ix), a
    00000E0C DD 77 FA         [19] 2252 	ld	-6 (ix), a
    00000E0F                       2253 00402$:
    00000E0F                       2254 00400$:
    00000E0F DD 7E F9         [19] 2255 	ld	a, -7 (ix)
    00000E12 DD 77 FA         [19] 2256 	ld	-6 (ix), a
                                   2257 ;E:\Dropbox\FAUSTO\SVILUPPI\MSX\CODE\C\MSXgl\projects\soccerlgMSX2/soccerlg_s12_b3.c:224: i8 look_dy = (SwSprite[14].ly > p->ly) ? 1 : ((SwSprite[14].ly < p->ly) ? -1 : 0);
    00000E15 21r46r01         [10] 2258 	ld	hl, #_SwSprite + 326
    00000E18 7E               [ 7] 2259 	ld	a, (hl)
    00000E19 DD 77 F8         [19] 2260 	ld	-8 (ix), a
    00000E1C 23               [ 6] 2261 	inc	hl
    00000E1D 7E               [ 7] 2262 	ld	a, (hl)
    00000E1E DD 77 F9         [19] 2263 	ld	-7 (ix), a
    00000E21 DD 7E F5         [19] 2264 	ld	a, -11 (ix)
    00000E24 DD 96 F8         [19] 2265 	sub	a, -8 (ix)
    00000E27 DD 7E F6         [19] 2266 	ld	a, -10 (ix)
    00000E2A DD 9E F9         [19] 2267 	sbc	a, -7 (ix)
    00000E2D 30 0B            [12] 2268 	jr	NC, 00403$
    00000E2F DD 36 F8 01      [19] 2269 	ld	-8 (ix), #0x01
    00000E33 DD 36 F9 00      [19] 2270 	ld	-7 (ix), #0
    00000E37 C3r5Ar0E         [10] 2271 	jp	00404$
    00000E3A                       2272 00403$:
    00000E3A DD 7E F8         [19] 2273 	ld	a, -8 (ix)
    00000E3D DD 96 F5         [19] 2274 	sub	a, -11 (ix)
    00000E40 DD 7E F9         [19] 2275 	ld	a, -7 (ix)
    00000E43 DD 9E F6         [19] 2276 	sbc	a, -10 (ix)
    00000E46 30 0B            [12] 2277 	jr	NC, 00405$
    00000E48 DD 36 F8 FF      [19] 2278 	ld	-8 (ix), #0xff
    00000E4C DD 36 F9 FF      [19] 2279 	ld	-7 (ix), #0xff
    00000E50 C3r5Ar0E         [10] 2280 	jp	00406$
    00000E53                       2281 00405$:
    00000E53 AF               [ 4] 2282 	xor	a, a
    00000E54 DD 77 F8         [19] 2283 	ld	-8 (ix), a
    00000E57 DD 77 F9         [19] 2284 	ld	-7 (ix), a
    00000E5A                       2285 00406$:
    00000E5A                       2286 00404$:
    00000E5A DD 46 F8         [19] 2287 	ld	b, -8 (ix)
                                   2288 ;E:\Dropbox\FAUSTO\SVILUPPI\MSX\CODE\C\MSXgl\projects\soccerlgMSX2/soccerlg_s12_b3.c:225: if (look_dx == 0 && look_dy == 0) look_dy = 1;
    00000E5D DD 7E FA         [19] 2289 	ld	a, -6 (ix)
    00000E60 B7               [ 4] 2290 	or	a,a
    00000E61 20 05            [12] 2291 	jr	NZ, 00211$
    00000E63 B0               [ 4] 2292 	or	a,b
    00000E64 20 02            [12] 2293 	jr	NZ, 00211$
    00000E66 06 01            [ 7] 2294 	ld	b, #0x01
    00000E68                       2295 00211$:
                                   2296 ;E:\Dropbox\FAUSTO\SVILUPPI\MSX\CODE\C\MSXgl\projects\soccerlgMSX2/soccerlg_s12_b3.c:226: p->frame = CallFnc_U16_P3(SEG_GAMESTATE_2, GetPlayerIdleFrame, i, look_dx, look_dy);
    00000E68 C5               [11] 2297 	push	bc
    00000E69 33               [ 6] 2298 	inc	sp
    00000E6A DD 66 FA         [19] 2299 	ld	h, -6 (ix)
    00000E6D DD 6E FF         [19] 2300 	ld	l, -1 (ix)
    00000E70 E5               [11] 2301 	push	hl
    00000E71 11r00r00         [10] 2302 	ld	de, #_GetPlayerIdleFrame
    00000E74 3E 0B            [ 7] 2303 	ld	a, #0x0b
    00000E76 CDr00r00         [17] 2304 	call	_CallFnc_U16_P3
    00000E79 DD 6E F1         [19] 2305 	ld	l, -15 (ix)
    00000E7C DD 66 F2         [19] 2306 	ld	h, -14 (ix)
    00000E7F 73               [ 7] 2307 	ld	(hl), e
    00000E80 23               [ 6] 2308 	inc	hl
    00000E81 72               [ 7] 2309 	ld	(hl), d
    00000E82                       2310 00383$:
                                   2311 ;E:\Dropbox\FAUSTO\SVILUPPI\MSX\CODE\C\MSXgl\projects\soccerlgMSX2/soccerlg_s12_b3.c:185: for (u8 i = 0; i < 14; i++) {
    00000E82 DD 34 FF         [23] 2312 	inc	-1 (ix)
    00000E85 C3r52r0A         [10] 2313 	jp	00382$
    00000E88                       2314 00218$:
                                   2315 ;E:\Dropbox\FAUSTO\SVILUPPI\MSX\CODE\C\MSXgl\projects\soccerlgMSX2/soccerlg_s12_b3.c:231: struct ObjectInfo* ref = &SwSprite[26];
                                   2316 ;E:\Dropbox\FAUSTO\SVILUPPI\MSX\CODE\C\MSXgl\projects\soccerlgMSX2/soccerlg_s12_b3.c:232: i8 look_dx = (SwSprite[14].lx > ref->lx) ? 1 : ((SwSprite[14].lx < ref->lx) ? -1 : 0);
    00000E88 3Ar42r01         [13] 2317 	ld	a, (#(_SwSprite + 322) + 0)
    00000E8B DD 77 FF         [19] 2318 	ld	-1 (ix), a
    00000E8E 21r56r02         [10] 2319 	ld	hl, #(_SwSprite + 598)
    00000E91 4E               [ 7] 2320 	ld	c, (hl)
    00000E92 79               [ 4] 2321 	ld	a, c
    00000E93 DD 96 FF         [19] 2322 	sub	a, -1 (ix)
    00000E96 30 06            [12] 2323 	jr	NC, 00407$
    00000E98 01 01 00         [10] 2324 	ld	bc, #0x0001
    00000E9B C3rADr0E         [10] 2325 	jp	00408$
    00000E9E                       2326 00407$:
    00000E9E DD 7E FF         [19] 2327 	ld	a, -1 (ix)
    00000EA1 91               [ 4] 2328 	sub	a, c
    00000EA2 30 06            [12] 2329 	jr	NC, 00409$
    00000EA4 01 FF FF         [10] 2330 	ld	bc, #0xffff
    00000EA7 C3rADr0E         [10] 2331 	jp	00410$
    00000EAA                       2332 00409$:
    00000EAA 01 00 00         [10] 2333 	ld	bc, #0x0000
    00000EAD                       2334 00410$:
    00000EAD                       2335 00408$:
                                   2336 ;E:\Dropbox\FAUSTO\SVILUPPI\MSX\CODE\C\MSXgl\projects\soccerlgMSX2/soccerlg_s12_b3.c:233: i8 look_dy = (SwSprite[14].ly > ref->ly) ? 1 : ((SwSprite[14].ly < ref->ly) ? -1 : 0);
    00000EAD 21r46r01         [10] 2337 	ld	hl, #_SwSprite + 326
    00000EB0 7E               [ 7] 2338 	ld	a, (hl)
    00000EB1 DD 77 F7         [19] 2339 	ld	-9 (ix), a
    00000EB4 23               [ 6] 2340 	inc	hl
    00000EB5 7E               [ 7] 2341 	ld	a, (hl)
    00000EB6 DD 77 F8         [19] 2342 	ld	-8 (ix), a
    00000EB9 21r5Ar02         [10] 2343 	ld	hl, #(_SwSprite + 598) + 4
    00000EBC 7E               [ 7] 2344 	ld	a, (hl)
    00000EBD DD 77 F9         [19] 2345 	ld	-7 (ix), a
    00000EC0 23               [ 6] 2346 	inc	hl
    00000EC1 7E               [ 7] 2347 	ld	a, (hl)
    00000EC2 DD 77 FA         [19] 2348 	ld	-6 (ix), a
    00000EC5 DD 7E F9         [19] 2349 	ld	a, -7 (ix)
    00000EC8 DD 96 F7         [19] 2350 	sub	a, -9 (ix)
    00000ECB DD 7E FA         [19] 2351 	ld	a, -6 (ix)
    00000ECE DD 9E F8         [19] 2352 	sbc	a, -8 (ix)
    00000ED1 30 06            [12] 2353 	jr	NC, 00411$
    00000ED3 11 01 00         [10] 2354 	ld	de, #0x0001
    00000ED6 C3rF0r0E         [10] 2355 	jp	00412$
    00000ED9                       2356 00411$:
    00000ED9 DD 7E F7         [19] 2357 	ld	a, -9 (ix)
    00000EDC DD 96 F9         [19] 2358 	sub	a, -7 (ix)
    00000EDF DD 7E F8         [19] 2359 	ld	a, -8 (ix)
    00000EE2 DD 9E FA         [19] 2360 	sbc	a, -6 (ix)
    00000EE5 30 06            [12] 2361 	jr	NC, 00413$
    00000EE7 11 FF FF         [10] 2362 	ld	de, #0xffff
    00000EEA C3rF0r0E         [10] 2363 	jp	00414$
    00000EED                       2364 00413$:
    00000EED 11 00 00         [10] 2365 	ld	de, #0x0000
    00000EF0                       2366 00414$:
    00000EF0                       2367 00412$:
    00000EF0 43               [ 4] 2368 	ld	b, e
                                   2369 ;E:\Dropbox\FAUSTO\SVILUPPI\MSX\CODE\C\MSXgl\projects\soccerlgMSX2/soccerlg_s12_b3.c:234: if (look_dx == 0 && look_dy == 0) look_dy = 1;
    00000EF1 79               [ 4] 2370 	ld	a, c
    00000EF2 B7               [ 4] 2371 	or	a,a
    00000EF3 20 05            [12] 2372 	jr	NZ, 00220$
    00000EF5 B0               [ 4] 2373 	or	a,b
    00000EF6 20 02            [12] 2374 	jr	NZ, 00220$
    00000EF8 06 01            [ 7] 2375 	ld	b, #0x01
    00000EFA                       2376 00220$:
                                   2377 ;E:\Dropbox\FAUSTO\SVILUPPI\MSX\CODE\C\MSXgl\projects\soccerlgMSX2/soccerlg_s12_b3.c:235: ref->frame = CallFnc_U16_P3(SEG_GAMESTATE_2, GetPlayerIdleFrame, 26, look_dx, look_dy);
    00000EFA C5               [11] 2378 	push	bc
    00000EFB 33               [ 6] 2379 	inc	sp
    00000EFC 61               [ 4] 2380 	ld	h, c
    00000EFD 2E 1A            [ 7] 2381 	ld	l, #0x1a
    00000EFF E5               [11] 2382 	push	hl
    00000F00 11r00r00         [10] 2383 	ld	de, #_GetPlayerIdleFrame
    00000F03 3E 0B            [ 7] 2384 	ld	a, #0x0b
    00000F05 CDr00r00         [17] 2385 	call	_CallFnc_U16_P3
    00000F08 ED 53r65r02      [20] 2386 	ld	((_SwSprite + 613)), de
                                   2387 ;E:\Dropbox\FAUSTO\SVILUPPI\MSX\CODE\C\MSXgl\projects\soccerlgMSX2/soccerlg_s12_b3.c:236: return;
    00000F0C C3r5Dr1A         [10] 2388 	jp	00391$
    00000F0F                       2389 00342$:
                                   2390 ;E:\Dropbox\FAUSTO\SVILUPPI\MSX\CODE\C\MSXgl\projects\soccerlgMSX2/soccerlg_s12_b3.c:237: } else if (*game_state == 10) {
    00000F0F DD 7E FF         [19] 2391 	ld	a, -1 (ix)
    00000F12 D6 0A            [ 7] 2392 	sub	a, #0x0a
    00000F14 C2rD6r14         [10] 2393 	jp	NZ,00339$
                                   2394 ;E:\Dropbox\FAUSTO\SVILUPPI\MSX\CODE\C\MSXgl\projects\soccerlgMSX2/soccerlg_s12_b3.c:239: bool time_up = FALSE;
    00000F17 DD 36 EA 00      [19] 2395 	ld	-22 (ix), #0x00
                                   2396 ;E:\Dropbox\FAUSTO\SVILUPPI\MSX\CODE\C\MSXgl\projects\soccerlgMSX2/soccerlg_s12_b3.c:240: if (*wait_secs > 0) {
    00000F1B DD 6E FB         [19] 2397 	ld	l, -5 (ix)
    00000F1E DD 66 FC         [19] 2398 	ld	h, -4 (ix)
    00000F21 4E               [ 7] 2399 	ld	c, (hl)
    00000F22 79               [ 4] 2400 	ld	a, c
    00000F23 B7               [ 4] 2401 	or	a, a
    00000F24 28 2E            [12] 2402 	jr	Z, 00225$
                                   2403 ;E:\Dropbox\FAUSTO\SVILUPPI\MSX\CODE\C\MSXgl\projects\soccerlgMSX2/soccerlg_s12_b3.c:241: if (*start_sec < Frms) { 
    00000F26 DD 7E 04         [19] 2404 	ld	a, 4 (ix)
    00000F29 DD 77 F9         [19] 2405 	ld	-7 (ix), a
    00000F2C DD 7E 05         [19] 2406 	ld	a, 5 (ix)
    00000F2F DD 77 FA         [19] 2407 	ld	-6 (ix), a
    00000F32 DD 6E F9         [19] 2408 	ld	l, -7 (ix)
    00000F35 DD 66 FA         [19] 2409 	ld	h, -6 (ix)
    00000F38 7E               [ 7] 2410 	ld	a, (hl)
    00000F39 21r00r00         [10] 2411 	ld	hl, #_Frms
    00000F3C 96               [ 7] 2412 	sub	a, (hl)
    00000F3D 30 08            [12] 2413 	jr	NC, 00223$
                                   2414 ;E:\Dropbox\FAUSTO\SVILUPPI\MSX\CODE\C\MSXgl\projects\soccerlgMSX2/soccerlg_s12_b3.c:242: (*wait_secs)--; 
    00000F3F 0D               [ 4] 2415 	dec	c
    00000F40 DD 6E FB         [19] 2416 	ld	l, -5 (ix)
    00000F43 DD 66 FC         [19] 2417 	ld	h, -4 (ix)
    00000F46 71               [ 7] 2418 	ld	(hl), c
    00000F47                       2419 00223$:
                                   2420 ;E:\Dropbox\FAUSTO\SVILUPPI\MSX\CODE\C\MSXgl\projects\soccerlgMSX2/soccerlg_s12_b3.c:244: *start_sec = Frms;
    00000F47 DD 6E F9         [19] 2421 	ld	l, -7 (ix)
    00000F4A DD 66 FA         [19] 2422 	ld	h, -6 (ix)
    00000F4D 3Ar00r00         [13] 2423 	ld	a, (_Frms+0)
    00000F50 77               [ 7] 2424 	ld	(hl), a
    00000F51 C3r58r0F         [10] 2425 	jp	00226$
    00000F54                       2426 00225$:
                                   2427 ;E:\Dropbox\FAUSTO\SVILUPPI\MSX\CODE\C\MSXgl\projects\soccerlgMSX2/soccerlg_s12_b3.c:246: time_up = TRUE;
    00000F54 DD 36 EA 01      [19] 2428 	ld	-22 (ix), #0x01
    00000F58                       2429 00226$:
                                   2430 ;E:\Dropbox\FAUSTO\SVILUPPI\MSX\CODE\C\MSXgl\projects\soccerlgMSX2/soccerlg_s12_b3.c:249: u8 winning_team = (ScoreTeam1 > ScoreTeam2) ? TEAM_1 : TEAM_2;
    00000F58 3Ar00r00         [13] 2431 	ld	a, (#_ScoreTeam2)
    00000F5B FD 21r00r00      [14] 2432 	ld	iy, #_ScoreTeam1
    00000F5F FD 96 00         [19] 2433 	sub	a, 0 (iy)
    00000F62 30 06            [12] 2434 	jr	NC, 00415$
    00000F64 01 00 00         [10] 2435 	ld	bc, #0x0000
    00000F67 C3r6Dr0F         [10] 2436 	jp	00416$
    00000F6A                       2437 00415$:
    00000F6A 01 01 00         [10] 2438 	ld	bc, #0x0001
    00000F6D                       2439 00416$:
                                   2440 ;E:\Dropbox\FAUSTO\SVILUPPI\MSX\CODE\C\MSXgl\projects\soccerlgMSX2/soccerlg_s12_b3.c:250: u8 losing_team = (winning_team == TEAM_1) ? TEAM_2 : TEAM_1;
    00000F6D DD 71 EB         [19] 2441 	ld	-21 (ix), c
    00000F70 79               [ 4] 2442 	ld	a, c
    00000F71 B7               [ 4] 2443 	or	a, a
    00000F72 20 06            [12] 2444 	jr	NZ, 00417$
    00000F74 01 01 00         [10] 2445 	ld	bc, #0x0001
    00000F77 C3r7Dr0F         [10] 2446 	jp	00418$
    00000F7A                       2447 00417$:
    00000F7A 01 00 00         [10] 2448 	ld	bc, #0x0000
    00000F7D                       2449 00418$:
    00000F7D DD 71 EC         [19] 2450 	ld	-20 (ix), c
                                   2451 ;E:\Dropbox\FAUSTO\SVILUPPI\MSX\CODE\C\MSXgl\projects\soccerlgMSX2/soccerlg_s12_b3.c:251: bool all_offscreen = TRUE;
    00000F80 DD 36 ED 01      [19] 2452 	ld	-19 (ix), #0x01
                                   2453 ;E:\Dropbox\FAUSTO\SVILUPPI\MSX\CODE\C\MSXgl\projects\soccerlgMSX2/soccerlg_s12_b3.c:253: i8 exit_dy = (Field.ly < 256) ? -1 : 1; // Escono verso il bordo schermo più vicino
    00000F84 2Ar04r00         [16] 2454 	ld	hl, (#(_Field + 4) + 0)
    00000F87 7C               [ 4] 2455 	ld	a, h
    00000F88 D6 01            [ 7] 2456 	sub	a, #0x01
    00000F8A 30 06            [12] 2457 	jr	NC, 00419$
    00000F8C 01 FF FF         [10] 2458 	ld	bc, #0xffff
    00000F8F C3r95r0F         [10] 2459 	jp	00420$
    00000F92                       2460 00419$:
    00000F92 01 01 00         [10] 2461 	ld	bc, #0x0001
    00000F95                       2462 00420$:
    00000F95 DD 71 EE         [19] 2463 	ld	-18 (ix), c
                                   2464 ;E:\Dropbox\FAUSTO\SVILUPPI\MSX\CODE\C\MSXgl\projects\soccerlgMSX2/soccerlg_s12_b3.c:255: for (u8 i = 0; i <= 26; i++) {
    00000F98 DD 36 FF 00      [19] 2465 	ld	-1 (ix), #0x00
    00000F9C                       2466 00385$:
    00000F9C 3E 1A            [ 7] 2467 	ld	a, #0x1a
    00000F9E DD 96 FF         [19] 2468 	sub	a, -1 (ix)
    00000FA1 DArBDr14         [10] 2469 	jp	C, 00271$
                                   2470 ;E:\Dropbox\FAUSTO\SVILUPPI\MSX\CODE\C\MSXgl\projects\soccerlgMSX2/soccerlg_s12_b3.c:256: if (i >= 15 && i < 26) continue; // Salta UI e Frecce
    00000FA4 DD 7E FF         [19] 2471 	ld	a, -1 (ix)
    00000FA7 D6 0F            [ 7] 2472 	sub	a, #0x0f
    00000FA9 38 08            [12] 2473 	jr	C, 00228$
    00000FAB DD 7E FF         [19] 2474 	ld	a, -1 (ix)
    00000FAE D6 1A            [ 7] 2475 	sub	a, #0x1a
    00000FB0 DArB7r14         [10] 2476 	jp	C, 00270$
    00000FB3                       2477 00228$:
                                   2478 ;E:\Dropbox\FAUSTO\SVILUPPI\MSX\CODE\C\MSXgl\projects\soccerlgMSX2/soccerlg_s12_b3.c:258: struct ObjectInfo* p = &SwSprite[i];
    00000FB3 DD 4E FF         [19] 2479 	ld	c, -1 (ix)
    00000FB6 06 00            [ 7] 2480 	ld	b, #0x00
    00000FB8 69               [ 4] 2481 	ld	l, c
    00000FB9 60               [ 4] 2482 	ld	h, b
    00000FBA 29               [11] 2483 	add	hl, hl
    00000FBB 29               [11] 2484 	add	hl, hl
    00000FBC 09               [11] 2485 	add	hl, bc
    00000FBD 29               [11] 2486 	add	hl, hl
    00000FBE 09               [11] 2487 	add	hl, bc
    00000FBF 29               [11] 2488 	add	hl, hl
    00000FC0 09               [11] 2489 	add	hl, bc
    00000FC1 DD 75 F7         [19] 2490 	ld	-9 (ix), l
    00000FC4 DD 74 F8         [19] 2491 	ld	-8 (ix), h
    00000FC7 3Er00            [ 7] 2492 	ld	a, #<(_SwSprite)
    00000FC9 DD 86 F7         [19] 2493 	add	a, -9 (ix)
    00000FCC DD 77 F9         [19] 2494 	ld	-7 (ix), a
    00000FCF 3Es00            [ 7] 2495 	ld	a, #>(_SwSprite)
    00000FD1 DD 8E F8         [19] 2496 	adc	a, -8 (ix)
    00000FD4 DD 77 FA         [19] 2497 	ld	-6 (ix), a
    00000FD7 DD 7E F9         [19] 2498 	ld	a, -7 (ix)
    00000FDA DD 77 EF         [19] 2499 	ld	-17 (ix), a
    00000FDD DD 7E FA         [19] 2500 	ld	a, -6 (ix)
    00000FE0 DD 77 F0         [19] 2501 	ld	-16 (ix), a
                                   2502 ;E:\Dropbox\FAUSTO\SVILUPPI\MSX\CODE\C\MSXgl\projects\soccerlgMSX2/soccerlg_s12_b3.c:259: u8 team = (i < 7) ? TEAM_1 : ((i < 14) ? TEAM_2 : 0xFF);
    00000FE3 DD 7E FF         [19] 2503 	ld	a, -1 (ix)
    00000FE6 D6 07            [ 7] 2504 	sub	a, #0x07
    00000FE8 30 06            [12] 2505 	jr	NC, 00421$
    00000FEA 11 00 00         [10] 2506 	ld	de, #0x0000
    00000FED C3r00r10         [10] 2507 	jp	00422$
    00000FF0                       2508 00421$:
    00000FF0 DD 7E FF         [19] 2509 	ld	a, -1 (ix)
    00000FF3 D6 0E            [ 7] 2510 	sub	a, #0x0e
    00000FF5 30 06            [12] 2511 	jr	NC, 00423$
    00000FF7 11 01 00         [10] 2512 	ld	de, #0x0001
    00000FFA C3r00r10         [10] 2513 	jp	00424$
    00000FFD                       2514 00423$:
    00000FFD 11 FF 00         [10] 2515 	ld	de, #0x00ff
    00001000                       2516 00424$:
    00001000                       2517 00422$:
    00001000 DD 73 FA         [19] 2518 	ld	-6 (ix), e
                                   2519 ;E:\Dropbox\FAUSTO\SVILUPPI\MSX\CODE\C\MSXgl\projects\soccerlgMSX2/soccerlg_s12_b3.c:261: if (team == winning_team && i != 0 && i != 7) {
    00001003 DD 7E EB         [19] 2520 	ld	a, -21 (ix)
    00001006 DD 96 FA         [19] 2521 	sub	a, -6 (ix)
    00001009 C2r73r13         [10] 2522 	jp	NZ,00266$
    0000100C DD 7E FF         [19] 2523 	ld	a, -1 (ix)
    0000100F B7               [ 4] 2524 	or	a, a
    00001010 CAr73r13         [10] 2525 	jp	Z, 00266$
    00001013 DD 7E FF         [19] 2526 	ld	a, -1 (ix)
    00001016 D6 07            [ 7] 2527 	sub	a, #0x07
    00001018 CAr73r13         [10] 2528 	jp	Z,00266$
                                   2529 ;E:\Dropbox\FAUSTO\SVILUPPI\MSX\CODE\C\MSXgl\projects\soccerlgMSX2/soccerlg_s12_b3.c:263: u16 total_frms = (*wait_secs * 60) + Frms;
    0000101B DD 6E FB         [19] 2530 	ld	l, -5 (ix)
    0000101E DD 66 FC         [19] 2531 	ld	h, -4 (ix)
    00001021 7E               [ 7] 2532 	ld	a, (hl)
    00001022 DD 77 FA         [19] 2533 	ld	-6 (ix), a
    00001025 DD 77 F9         [19] 2534 	ld	-7 (ix), a
    00001028 DD 36 FA 00      [19] 2535 	ld	-6 (ix), #0x00
    0000102C 4F               [ 4] 2536 	ld	c, a
    0000102D 06 00            [ 7] 2537 	ld	b, #0x00
    0000102F 69               [ 4] 2538 	ld	l, c
    00001030 60               [ 4] 2539 	ld	h, b
    00001031 29               [11] 2540 	add	hl, hl
    00001032 09               [11] 2541 	add	hl, bc
    00001033 29               [11] 2542 	add	hl, hl
    00001034 09               [11] 2543 	add	hl, bc
    00001035 29               [11] 2544 	add	hl, hl
    00001036 09               [11] 2545 	add	hl, bc
    00001037 29               [11] 2546 	add	hl, hl
    00001038 29               [11] 2547 	add	hl, hl
    00001039 DD 75 F5         [19] 2548 	ld	-11 (ix), l
    0000103C DD 74 F6         [19] 2549 	ld	-10 (ix), h
    0000103F 3Ar00r00         [13] 2550 	ld	a, (_Frms+0)
    00001042 DD 77 F7         [19] 2551 	ld	-9 (ix), a
    00001045 DD 36 F8 00      [19] 2552 	ld	-8 (ix), #0x00
    00001049 DD 7E F5         [19] 2553 	ld	a, -11 (ix)
    0000104C DD 86 F7         [19] 2554 	add	a, -9 (ix)
    0000104F DD 77 F9         [19] 2555 	ld	-7 (ix), a
    00001052 DD 7E F6         [19] 2556 	ld	a, -10 (ix)
    00001055 DD 8E F8         [19] 2557 	adc	a, -8 (ix)
    00001058 DD 77 FA         [19] 2558 	ld	-6 (ix), a
                                   2559 ;E:\Dropbox\FAUSTO\SVILUPPI\MSX\CODE\C\MSXgl\projects\soccerlgMSX2/soccerlg_s12_b3.c:264: u8 phase = ((total_frms / 32) + i) % 8; // Traiettorie molto più ampie
    0000105B DD 7E F9         [19] 2560 	ld	a, -7 (ix)
    0000105E DD 77 F5         [19] 2561 	ld	-11 (ix), a
    00001061 DD 7E FA         [19] 2562 	ld	a, -6 (ix)
    00001064 DD 77 F6         [19] 2563 	ld	-10 (ix), a
    00001067 DD CB F6 3E      [23] 2564 	srl	-10 (ix)
    0000106B DD CB F5 1E      [23] 2565 	rr	-11 (ix)
    0000106F DD CB F6 3E      [23] 2566 	srl	-10 (ix)
    00001073 DD CB F5 1E      [23] 2567 	rr	-11 (ix)
    00001077 DD CB F6 3E      [23] 2568 	srl	-10 (ix)
    0000107B DD CB F5 1E      [23] 2569 	rr	-11 (ix)
    0000107F DD CB F6 3E      [23] 2570 	srl	-10 (ix)
    00001083 DD CB F5 1E      [23] 2571 	rr	-11 (ix)
    00001087 DD CB F6 3E      [23] 2572 	srl	-10 (ix)
    0000108B DD CB F5 1E      [23] 2573 	rr	-11 (ix)
    0000108F DD 7E FF         [19] 2574 	ld	a, -1 (ix)
    00001092 DD 77 F9         [19] 2575 	ld	-7 (ix), a
    00001095 DD 36 FA 00      [19] 2576 	ld	-6 (ix), #0x00
    00001099 DD 7E F9         [19] 2577 	ld	a, -7 (ix)
    0000109C DD 86 F5         [19] 2578 	add	a, -11 (ix)
    0000109F DD 77 F7         [19] 2579 	ld	-9 (ix), a
    000010A2 DD 7E FA         [19] 2580 	ld	a, -6 (ix)
    000010A5 DD 8E F6         [19] 2581 	adc	a, -10 (ix)
    000010A8 DD 77 F8         [19] 2582 	ld	-8 (ix), a
    000010AB DD 7E F7         [19] 2583 	ld	a, -9 (ix)
    000010AE E6 07            [ 7] 2584 	and	a, #0x07
    000010B0 DD 77 F9         [19] 2585 	ld	-7 (ix), a
    000010B3 DD 36 FA 00      [19] 2586 	ld	-6 (ix), #0x00
    000010B7 DD 7E F9         [19] 2587 	ld	a, -7 (ix)
    000010BA DD 77 FA         [19] 2588 	ld	-6 (ix), a
                                   2589 ;E:\Dropbox\FAUSTO\SVILUPPI\MSX\CODE\C\MSXgl\projects\soccerlgMSX2/soccerlg_s12_b3.c:265: i8 dx = 0, dy = 0;
    000010BD DD 36 F1 00      [19] 2590 	ld	-15 (ix), #0x00
    000010C1 DD 36 F2 00      [19] 2591 	ld	-14 (ix), #0x00
                                   2592 ;E:\Dropbox\FAUSTO\SVILUPPI\MSX\CODE\C\MSXgl\projects\soccerlgMSX2/soccerlg_s12_b3.c:266: switch(phase) {
    000010C5 3E 07            [ 7] 2593 	ld	a, #0x07
    000010C7 DD 96 FA         [19] 2594 	sub	a, -6 (ix)
    000010CA 38 79            [12] 2595 	jr	C, 00238$
    000010CC DD 4E FA         [19] 2596 	ld	c, -6 (ix)
    000010CF 06 00            [ 7] 2597 	ld	b, #0x00
    000010D1 21rD8r10         [10] 2598 	ld	hl, #01288$
    000010D4 09               [11] 2599 	add	hl, bc
    000010D5 09               [11] 2600 	add	hl, bc
    000010D6 09               [11] 2601 	add	hl, bc
    000010D7 E9               [ 4] 2602 	jp	(hl)
    000010D8                       2603 01288$:
    000010D8 C3rF0r10         [10] 2604 	jp	00230$
    000010DB C3rFBr10         [10] 2605 	jp	00231$
    000010DE C3r06r11         [10] 2606 	jp	00232$
    000010E1 C3r11r11         [10] 2607 	jp	00233$
    000010E4 C3r1Cr11         [10] 2608 	jp	00234$
    000010E7 C3r27r11         [10] 2609 	jp	00235$
    000010EA C3r32r11         [10] 2610 	jp	00236$
    000010ED C3r3Dr11         [10] 2611 	jp	00237$
                                   2612 ;E:\Dropbox\FAUSTO\SVILUPPI\MSX\CODE\C\MSXgl\projects\soccerlgMSX2/soccerlg_s12_b3.c:267: case 0: dx =  0; dy = -2; break; case 1: dx =  2; dy = -2; break;
    000010F0                       2613 00230$:
    000010F0 DD 36 F1 00      [19] 2614 	ld	-15 (ix), #0x00
    000010F4 DD 36 F2 FE      [19] 2615 	ld	-14 (ix), #0xfe
    000010F8 C3r45r11         [10] 2616 	jp	00238$
    000010FB                       2617 00231$:
    000010FB DD 36 F1 02      [19] 2618 	ld	-15 (ix), #0x02
    000010FF DD 36 F2 FE      [19] 2619 	ld	-14 (ix), #0xfe
    00001103 C3r45r11         [10] 2620 	jp	00238$
                                   2621 ;E:\Dropbox\FAUSTO\SVILUPPI\MSX\CODE\C\MSXgl\projects\soccerlgMSX2/soccerlg_s12_b3.c:268: case 2: dx =  2; dy =  0; break; case 3: dx =  2; dy =  2; break;
    00001106                       2622 00232$:
    00001106 DD 36 F1 02      [19] 2623 	ld	-15 (ix), #0x02
    0000110A DD 36 F2 00      [19] 2624 	ld	-14 (ix), #0x00
    0000110E C3r45r11         [10] 2625 	jp	00238$
    00001111                       2626 00233$:
    00001111 DD 36 F1 02      [19] 2627 	ld	-15 (ix), #0x02
    00001115 DD 36 F2 02      [19] 2628 	ld	-14 (ix), #0x02
    00001119 C3r45r11         [10] 2629 	jp	00238$
                                   2630 ;E:\Dropbox\FAUSTO\SVILUPPI\MSX\CODE\C\MSXgl\projects\soccerlgMSX2/soccerlg_s12_b3.c:269: case 4: dx =  0; dy =  2; break; case 5: dx = -2; dy =  2; break;
    0000111C                       2631 00234$:
    0000111C DD 36 F1 00      [19] 2632 	ld	-15 (ix), #0x00
    00001120 DD 36 F2 02      [19] 2633 	ld	-14 (ix), #0x02
    00001124 C3r45r11         [10] 2634 	jp	00238$
    00001127                       2635 00235$:
    00001127 DD 36 F1 FE      [19] 2636 	ld	-15 (ix), #0xfe
    0000112B DD 36 F2 02      [19] 2637 	ld	-14 (ix), #0x02
    0000112F C3r45r11         [10] 2638 	jp	00238$
                                   2639 ;E:\Dropbox\FAUSTO\SVILUPPI\MSX\CODE\C\MSXgl\projects\soccerlgMSX2/soccerlg_s12_b3.c:270: case 6: dx = -2; dy =  0; break; case 7: dx = -2; dy = -2; break;
    00001132                       2640 00236$:
    00001132 DD 36 F1 FE      [19] 2641 	ld	-15 (ix), #0xfe
    00001136 DD 36 F2 00      [19] 2642 	ld	-14 (ix), #0x00
    0000113A C3r45r11         [10] 2643 	jp	00238$
    0000113D                       2644 00237$:
    0000113D DD 36 F1 FE      [19] 2645 	ld	-15 (ix), #0xfe
    00001141 DD 36 F2 FE      [19] 2646 	ld	-14 (ix), #0xfe
                                   2647 ;E:\Dropbox\FAUSTO\SVILUPPI\MSX\CODE\C\MSXgl\projects\soccerlgMSX2/soccerlg_s12_b3.c:271: }
    00001145                       2648 00238$:
                                   2649 ;E:\Dropbox\FAUSTO\SVILUPPI\MSX\CODE\C\MSXgl\projects\soccerlgMSX2/soccerlg_s12_b3.c:274: i16 next_x = p->lx + dx; i16 next_y = p->ly + dy;
    00001145 DD 6E EF         [19] 2650 	ld	l, -17 (ix)
    00001148 DD 66 F0         [19] 2651 	ld	h, -16 (ix)
    0000114B 7E               [ 7] 2652 	ld	a, (hl)
    0000114C DD 77 FA         [19] 2653 	ld	-6 (ix), a
    0000114F DD 77 F5         [19] 2654 	ld	-11 (ix), a
    00001152 DD 36 F6 00      [19] 2655 	ld	-10 (ix), #0x00
    00001156 DD 7E F1         [19] 2656 	ld	a, -15 (ix)
    00001159 DD 77 F7         [19] 2657 	ld	-9 (ix), a
    0000115C 07               [ 4] 2658 	rlca
    0000115D 9F               [ 4] 2659 	sbc	a, a
    0000115E DD 77 F8         [19] 2660 	ld	-8 (ix), a
    00001161 DD 7E F5         [19] 2661 	ld	a, -11 (ix)
    00001164 DD 86 F7         [19] 2662 	add	a, -9 (ix)
    00001167 DD 77 F9         [19] 2663 	ld	-7 (ix), a
    0000116A DD 7E F6         [19] 2664 	ld	a, -10 (ix)
    0000116D DD 8E F8         [19] 2665 	adc	a, -8 (ix)
    00001170 DD 77 FA         [19] 2666 	ld	-6 (ix), a
    00001173 DD 7E F9         [19] 2667 	ld	a, -7 (ix)
    00001176 DD 77 F7         [19] 2668 	ld	-9 (ix), a
    00001179 DD 7E FA         [19] 2669 	ld	a, -6 (ix)
    0000117C DD 77 F8         [19] 2670 	ld	-8 (ix), a
    0000117F DD 7E EF         [19] 2671 	ld	a, -17 (ix)
    00001182 C6 04            [ 7] 2672 	add	a, #0x04
    00001184 DD 77 F3         [19] 2673 	ld	-13 (ix), a
    00001187 DD 7E F0         [19] 2674 	ld	a, -16 (ix)
    0000118A CE 00            [ 7] 2675 	adc	a, #0x00
    0000118C DD 77 F4         [19] 2676 	ld	-12 (ix), a
    0000118F DD 6E F3         [19] 2677 	ld	l, -13 (ix)
    00001192 DD 66 F4         [19] 2678 	ld	h, -12 (ix)
    00001195 7E               [ 7] 2679 	ld	a, (hl)
    00001196 DD 77 F5         [19] 2680 	ld	-11 (ix), a
    00001199 23               [ 6] 2681 	inc	hl
    0000119A 7E               [ 7] 2682 	ld	a, (hl)
    0000119B DD 77 F6         [19] 2683 	ld	-10 (ix), a
    0000119E DD 7E F2         [19] 2684 	ld	a, -14 (ix)
    000011A1 DD 77 F9         [19] 2685 	ld	-7 (ix), a
    000011A4 07               [ 4] 2686 	rlca
    000011A5 9F               [ 4] 2687 	sbc	a, a
    000011A6 DD 77 FA         [19] 2688 	ld	-6 (ix), a
    000011A9 DD 7E F5         [19] 2689 	ld	a, -11 (ix)
    000011AC DD 77 E0         [19] 2690 	ld	-32 (ix), a
    000011AF DD 7E F6         [19] 2691 	ld	a, -10 (ix)
    000011B2 DD 77 E1         [19] 2692 	ld	-31 (ix), a
    000011B5 DD 7E F9         [19] 2693 	ld	a, -7 (ix)
    000011B8 DD 77 F5         [19] 2694 	ld	-11 (ix), a
    000011BB DD 7E FA         [19] 2695 	ld	a, -6 (ix)
    000011BE DD 77 F6         [19] 2696 	ld	-10 (ix), a
    000011C1 DD 7E E0         [19] 2697 	ld	a, -32 (ix)
    000011C4 DD 86 F5         [19] 2698 	add	a, -11 (ix)
    000011C7 DD 77 F9         [19] 2699 	ld	-7 (ix), a
    000011CA DD 7E E1         [19] 2700 	ld	a, -31 (ix)
    000011CD DD 8E F6         [19] 2701 	adc	a, -10 (ix)
    000011D0 DD 77 FA         [19] 2702 	ld	-6 (ix), a
                                   2703 ;E:\Dropbox\FAUSTO\SVILUPPI\MSX\CODE\C\MSXgl\projects\soccerlgMSX2/soccerlg_s12_b3.c:275: if (next_x < 32 && dx < 0) dx = 0;   if (next_x > 224 && dx > 0) dx = 0;
    000011D3 DD 7E F7         [19] 2704 	ld	a, -9 (ix)
    000011D6 D6 20            [ 7] 2705 	sub	a, #0x20
    000011D8 DD 7E F8         [19] 2706 	ld	a, -8 (ix)
    000011DB 17               [ 4] 2707 	rla
    000011DC 3F               [ 4] 2708 	ccf
    000011DD 1F               [ 4] 2709 	rra
    000011DE DE 80            [ 7] 2710 	sbc	a, #0x80
    000011E0 30 0A            [12] 2711 	jr	NC, 00240$
    000011E2 DD CB F1 7E      [20] 2712 	bit	7, -15 (ix)
    000011E6 28 04            [12] 2713 	jr	Z, 00240$
    000011E8 DD 36 F1 00      [19] 2714 	ld	-15 (ix), #0x00
    000011EC                       2715 00240$:
    000011EC 3E E0            [ 7] 2716 	ld	a, #0xe0
    000011EE DD BE F7         [19] 2717 	cp	a, -9 (ix)
    000011F1 3E 00            [ 7] 2718 	ld	a, #0x00
    000011F3 DD 9E F8         [19] 2719 	sbc	a, -8 (ix)
    000011F6 E2rFBr11         [10] 2720 	jp	PO, 01289$
    000011F9 EE 80            [ 7] 2721 	xor	a, #0x80
    000011FB                       2722 01289$:
    000011FB F2r0Er12         [10] 2723 	jp	P, 00243$
    000011FE AF               [ 4] 2724 	xor	a, a
    000011FF DD 96 F1         [19] 2725 	sub	a, -15 (ix)
    00001202 E2r07r12         [10] 2726 	jp	PO, 01290$
    00001205 EE 80            [ 7] 2727 	xor	a, #0x80
    00001207                       2728 01290$:
    00001207 F2r0Er12         [10] 2729 	jp	P, 00243$
    0000120A DD 36 F1 00      [19] 2730 	ld	-15 (ix), #0x00
    0000120E                       2731 00243$:
                                   2732 ;E:\Dropbox\FAUSTO\SVILUPPI\MSX\CODE\C\MSXgl\projects\soccerlgMSX2/soccerlg_s12_b3.c:253: i8 exit_dy = (Field.ly < 256) ? -1 : 1; // Escono verso il bordo schermo più vicino
    0000120E 21r04r00         [10] 2733 	ld	hl, #(_Field + 4)
    00001211 7E               [ 7] 2734 	ld	a, (hl)
    00001212 DD 77 F7         [19] 2735 	ld	-9 (ix), a
    00001215 23               [ 6] 2736 	inc	hl
    00001216 7E               [ 7] 2737 	ld	a, (hl)
    00001217 DD 77 F8         [19] 2738 	ld	-8 (ix), a
                                   2739 ;E:\Dropbox\FAUSTO\SVILUPPI\MSX\CODE\C\MSXgl\projects\soccerlgMSX2/soccerlg_s12_b3.c:276: if (next_y < (i16)Field.ly + 32 && dy < 0) dy = 0; if (next_y > (i16)Field.ly + 192 - 32 && dy > 0) dy = 0;
    0000121A DD 7E F7         [19] 2740 	ld	a, -9 (ix)
    0000121D DD 77 F5         [19] 2741 	ld	-11 (ix), a
    00001220 DD 7E F8         [19] 2742 	ld	a, -8 (ix)
    00001223 DD 77 F6         [19] 2743 	ld	-10 (ix), a
    00001226 DD 7E F5         [19] 2744 	ld	a, -11 (ix)
    00001229 C6 20            [ 7] 2745 	add	a, #0x20
    0000122B DD 77 F7         [19] 2746 	ld	-9 (ix), a
    0000122E DD 7E F6         [19] 2747 	ld	a, -10 (ix)
    00001231 CE 00            [ 7] 2748 	adc	a, #0x00
    00001233 DD 77 F8         [19] 2749 	ld	-8 (ix), a
    00001236 DD 7E F9         [19] 2750 	ld	a, -7 (ix)
    00001239 DD 96 F7         [19] 2751 	sub	a, -9 (ix)
    0000123C DD 7E FA         [19] 2752 	ld	a, -6 (ix)
    0000123F DD 9E F8         [19] 2753 	sbc	a, -8 (ix)
    00001242 E2r47r12         [10] 2754 	jp	PO, 01291$
    00001245 EE 80            [ 7] 2755 	xor	a, #0x80
    00001247                       2756 01291$:
    00001247 F2r54r12         [10] 2757 	jp	P, 00246$
    0000124A DD CB F2 7E      [20] 2758 	bit	7, -14 (ix)
    0000124E 28 04            [12] 2759 	jr	Z, 00246$
    00001250 DD 36 F2 00      [19] 2760 	ld	-14 (ix), #0x00
    00001254                       2761 00246$:
    00001254 DD 6E F5         [19] 2762 	ld	l, -11 (ix)
    00001257 DD 66 F6         [19] 2763 	ld	h, -10 (ix)
    0000125A 11 A0 00         [10] 2764 	ld	de, #0x00a0
    0000125D 19               [11] 2765 	add	hl, de
    0000125E 7D               [ 4] 2766 	ld	a, l
    0000125F DD 96 F9         [19] 2767 	sub	a, -7 (ix)
    00001262 7C               [ 4] 2768 	ld	a, h
    00001263 DD 9E FA         [19] 2769 	sbc	a, -6 (ix)
    00001266 E2r6Br12         [10] 2770 	jp	PO, 01292$
    00001269 EE 80            [ 7] 2771 	xor	a, #0x80
    0000126B                       2772 01292$:
    0000126B F2r7Er12         [10] 2773 	jp	P, 00249$
    0000126E AF               [ 4] 2774 	xor	a, a
    0000126F DD 96 F2         [19] 2775 	sub	a, -14 (ix)
    00001272 E2r77r12         [10] 2776 	jp	PO, 01293$
    00001275 EE 80            [ 7] 2777 	xor	a, #0x80
    00001277                       2778 01293$:
    00001277 F2r7Er12         [10] 2779 	jp	P, 00249$
    0000127A DD 36 F2 00      [19] 2780 	ld	-14 (ix), #0x00
    0000127E                       2781 00249$:
                                   2782 ;E:\Dropbox\FAUSTO\SVILUPPI\MSX\CODE\C\MSXgl\projects\soccerlgMSX2/soccerlg_s12_b3.c:278: p->dx = dx; p->dy = dy; p->lx += dx; p->ly += dy; p->anim++;
    0000127E DD 6E EF         [19] 2783 	ld	l, -17 (ix)
    00001281 DD 66 F0         [19] 2784 	ld	h, -16 (ix)
    00001284 11 11 00         [10] 2785 	ld	de, #0x0011
    00001287 19               [11] 2786 	add	hl, de
    00001288 DD 7E F1         [19] 2787 	ld	a, -15 (ix)
    0000128B 77               [ 7] 2788 	ld	(hl), a
    0000128C DD 6E EF         [19] 2789 	ld	l, -17 (ix)
    0000128F DD 66 F0         [19] 2790 	ld	h, -16 (ix)
    00001292 11 12 00         [10] 2791 	ld	de, #0x0012
    00001295 19               [11] 2792 	add	hl, de
    00001296 DD 7E F2         [19] 2793 	ld	a, -14 (ix)
    00001299 77               [ 7] 2794 	ld	(hl), a
    0000129A DD 6E EF         [19] 2795 	ld	l, -17 (ix)
    0000129D DD 66 F0         [19] 2796 	ld	h, -16 (ix)
    000012A0 7E               [ 7] 2797 	ld	a, (hl)
    000012A1 DD 86 F1         [19] 2798 	add	a, -15 (ix)
    000012A4 DD 6E EF         [19] 2799 	ld	l, -17 (ix)
    000012A7 DD 66 F0         [19] 2800 	ld	h, -16 (ix)
    000012AA 77               [ 7] 2801 	ld	(hl), a
    000012AB DD 6E F3         [19] 2802 	ld	l, -13 (ix)
    000012AE DD 66 F4         [19] 2803 	ld	h, -12 (ix)
    000012B1 7E               [ 7] 2804 	ld	a, (hl)
    000012B2 DD 77 F7         [19] 2805 	ld	-9 (ix), a
    000012B5 23               [ 6] 2806 	inc	hl
    000012B6 7E               [ 7] 2807 	ld	a, (hl)
    000012B7 DD 77 F8         [19] 2808 	ld	-8 (ix), a
    000012BA DD 7E F2         [19] 2809 	ld	a, -14 (ix)
    000012BD DD 77 F9         [19] 2810 	ld	-7 (ix), a
    000012C0 07               [ 4] 2811 	rlca
    000012C1 9F               [ 4] 2812 	sbc	a, a
    000012C2 DD 77 FA         [19] 2813 	ld	-6 (ix), a
    000012C5 DD 7E F7         [19] 2814 	ld	a, -9 (ix)
    000012C8 DD 77 F5         [19] 2815 	ld	-11 (ix), a
    000012CB DD 7E F8         [19] 2816 	ld	a, -8 (ix)
    000012CE DD 77 F6         [19] 2817 	ld	-10 (ix), a
    000012D1 DD 7E F9         [19] 2818 	ld	a, -7 (ix)
    000012D4 DD 77 F7         [19] 2819 	ld	-9 (ix), a
    000012D7 DD 7E FA         [19] 2820 	ld	a, -6 (ix)
    000012DA DD 77 F8         [19] 2821 	ld	-8 (ix), a
    000012DD DD 7E F7         [19] 2822 	ld	a, -9 (ix)
    000012E0 DD 86 F5         [19] 2823 	add	a, -11 (ix)
    000012E3 DD 77 F9         [19] 2824 	ld	-7 (ix), a
    000012E6 DD 7E F8         [19] 2825 	ld	a, -8 (ix)
    000012E9 DD 8E F6         [19] 2826 	adc	a, -10 (ix)
    000012EC DD 77 FA         [19] 2827 	ld	-6 (ix), a
    000012EF DD 6E F3         [19] 2828 	ld	l, -13 (ix)
    000012F2 DD 66 F4         [19] 2829 	ld	h, -12 (ix)
    000012F5 DD 7E F9         [19] 2830 	ld	a, -7 (ix)
    000012F8 77               [ 7] 2831 	ld	(hl), a
    000012F9 23               [ 6] 2832 	inc	hl
    000012FA DD 7E FA         [19] 2833 	ld	a, -6 (ix)
    000012FD 77               [ 7] 2834 	ld	(hl), a
    000012FE DD 6E EF         [19] 2835 	ld	l, -17 (ix)
    00001301 DD 66 F0         [19] 2836 	ld	h, -16 (ix)
    00001304 11 13 00         [10] 2837 	ld	de, #0x0013
    00001307 19               [11] 2838 	add	hl, de
    00001308 4E               [ 7] 2839 	ld	c, (hl)
    00001309 23               [ 6] 2840 	inc	hl
    0000130A 46               [ 7] 2841 	ld	b, (hl)
    0000130B 2B               [ 6] 2842 	dec	hl
    0000130C 03               [ 6] 2843 	inc	bc
    0000130D DD 71 F7         [19] 2844 	ld	-9 (ix), c
    00001310 DD 70 F8         [19] 2845 	ld	-8 (ix), b
    00001313 DD 7E F7         [19] 2846 	ld	a, -9 (ix)
    00001316 77               [ 7] 2847 	ld	(hl), a
    00001317 23               [ 6] 2848 	inc	hl
    00001318 DD 7E F8         [19] 2849 	ld	a, -8 (ix)
    0000131B 77               [ 7] 2850 	ld	(hl), a
                                   2851 ;E:\Dropbox\FAUSTO\SVILUPPI\MSX\CODE\C\MSXgl\projects\soccerlgMSX2/soccerlg_s12_b3.c:279: const u8 walk_seq[4] = {0, 1, 2, 1};
    0000131C DD 36 E2 00      [19] 2852 	ld	-30 (ix), #0x00
    00001320 DD 36 E3 01      [19] 2853 	ld	-29 (ix), #0x01
    00001324 DD 36 E4 02      [19] 2854 	ld	-28 (ix), #0x02
    00001328 DD 36 E5 01      [19] 2855 	ld	-27 (ix), #0x01
                                   2856 ;E:\Dropbox\FAUSTO\SVILUPPI\MSX\CODE\C\MSXgl\projects\soccerlgMSX2/soccerlg_s12_b3.c:280: p->frame = CallFnc_U16_P4(SEG_GAMESTATE_2, GetPlayerAnimFrame, i, p->dx, p->dy, walk_seq[(p->anim / 3) % 4]);
    0000132C DD 7E EF         [19] 2857 	ld	a, -17 (ix)
    0000132F C6 0F            [ 7] 2858 	add	a, #0x0f
    00001331 DD 77 F9         [19] 2859 	ld	-7 (ix), a
    00001334 DD 7E F0         [19] 2860 	ld	a, -16 (ix)
    00001337 CE 00            [ 7] 2861 	adc	a, #0x00
    00001339 DD 77 FA         [19] 2862 	ld	-6 (ix), a
    0000133C 11 03 00         [10] 2863 	ld	de, #0x0003
    0000133F DD 6E F7         [19] 2864 	ld	l, -9 (ix)
                                   2865 ;	spillPairReg hl
                                   2866 ;	spillPairReg hl
    00001342 DD 66 F8         [19] 2867 	ld	h, -8 (ix)
                                   2868 ;	spillPairReg hl
                                   2869 ;	spillPairReg hl
    00001345 CDr00r00         [17] 2870 	call	__divuint
    00001348 7B               [ 4] 2871 	ld	a, e
    00001349 E6 03            [ 7] 2872 	and	a, #0x03
    0000134B 4F               [ 4] 2873 	ld	c, a
    0000134C 06 00            [ 7] 2874 	ld	b, #0x00
    0000134E 21 02 00         [10] 2875 	ld	hl, #2
    00001351 39               [11] 2876 	add	hl, sp
    00001352 09               [11] 2877 	add	hl, bc
    00001353 66               [ 7] 2878 	ld	h, (hl)
    00001354 DD 6E F2         [19] 2879 	ld	l, -14 (ix)
    00001357 E5               [11] 2880 	push	hl
    00001358 DD 66 F1         [19] 2881 	ld	h, -15 (ix)
    0000135B DD 6E FF         [19] 2882 	ld	l, -1 (ix)
    0000135E E5               [11] 2883 	push	hl
    0000135F 11r00r00         [10] 2884 	ld	de, #_GetPlayerAnimFrame
    00001362 3E 0B            [ 7] 2885 	ld	a, #0x0b
    00001364 CDr00r00         [17] 2886 	call	_CallFnc_U16_P4
    00001367 DD 6E F9         [19] 2887 	ld	l, -7 (ix)
    0000136A DD 66 FA         [19] 2888 	ld	h, -6 (ix)
    0000136D 73               [ 7] 2889 	ld	(hl), e
    0000136E 23               [ 6] 2890 	inc	hl
    0000136F 72               [ 7] 2891 	ld	(hl), d
    00001370 C3rB7r14         [10] 2892 	jp	00270$
    00001373                       2893 00266$:
                                   2894 ;E:\Dropbox\FAUSTO\SVILUPPI\MSX\CODE\C\MSXgl\projects\soccerlgMSX2/soccerlg_s12_b3.c:282: else if (team == losing_team || i == 26 || i == 14) {
    00001373 DD 7E FA         [19] 2895 	ld	a, -6 (ix)
    00001376 DD 96 EC         [19] 2896 	sub	a, -20 (ix)
    00001379 28 0F            [12] 2897 	jr	Z, 00260$
    0000137B DD 7E FF         [19] 2898 	ld	a, -1 (ix)
    0000137E D6 1A            [ 7] 2899 	sub	a, #0x1a
    00001380 28 08            [12] 2900 	jr	Z, 00260$
    00001382 DD 7E FF         [19] 2901 	ld	a, -1 (ix)
    00001385 D6 0E            [ 7] 2902 	sub	a, #0x0e
    00001387 C2r87r14         [10] 2903 	jp	NZ,00261$
    0000138A                       2904 00260$:
                                   2905 ;E:\Dropbox\FAUSTO\SVILUPPI\MSX\CODE\C\MSXgl\projects\soccerlgMSX2/soccerlg_s12_b3.c:284: if (OnScreen(p->ly)) {
    0000138A DD 7E EF         [19] 2906 	ld	a, -17 (ix)
    0000138D C6 04            [ 7] 2907 	add	a, #0x04
    0000138F 4F               [ 4] 2908 	ld	c, a
    00001390 DD 7E F0         [19] 2909 	ld	a, -16 (ix)
    00001393 CE 00            [ 7] 2910 	adc	a, #0x00
    00001395 47               [ 4] 2911 	ld	b, a
    00001396 69               [ 4] 2912 	ld	l, c
    00001397 60               [ 4] 2913 	ld	h, b
    00001398 5E               [ 7] 2914 	ld	e, (hl)
    00001399 23               [ 6] 2915 	inc	hl
    0000139A 56               [ 7] 2916 	ld	d, (hl)
    0000139B 7A               [ 4] 2917 	ld	a, d
    0000139C D6 02            [ 7] 2918 	sub	a, #0x02
    0000139E D2r7Dr14         [10] 2919 	jp	NC, 00254$
    000013A1 21 0F 02         [10] 2920 	ld	hl, #0x020f
    000013A4 19               [11] 2921 	add	hl, de
    000013A5 EB               [ 4] 2922 	ex	de, hl
    000013A6 2Ar04r00         [16] 2923 	ld	hl, (#(_Field + 4) + 0)
    000013A9 7B               [ 4] 2924 	ld	a, e
    000013AA 95               [ 4] 2925 	sub	a, l
    000013AB 5F               [ 4] 2926 	ld	e, a
    000013AC 7A               [ 4] 2927 	ld	a, d
    000013AD 9C               [ 4] 2928 	sbc	a, h
    000013AE E6 01            [ 7] 2929 	and	a, #0x01
    000013B0 57               [ 4] 2930 	ld	d, a
    000013B1 7B               [ 4] 2931 	ld	a, e
    000013B2 D6 CF            [ 7] 2932 	sub	a, #0xcf
    000013B4 7A               [ 4] 2933 	ld	a, d
    000013B5 DE 00            [ 7] 2934 	sbc	a, #0x00
    000013B7 D2r7Dr14         [10] 2935 	jp	NC, 00254$
                                   2936 ;E:\Dropbox\FAUSTO\SVILUPPI\MSX\CODE\C\MSXgl\projects\soccerlgMSX2/soccerlg_s12_b3.c:285: all_offscreen = FALSE; 
    000013BA DD 36 ED 00      [19] 2937 	ld	-19 (ix), #0x00
                                   2938 ;E:\Dropbox\FAUSTO\SVILUPPI\MSX\CODE\C\MSXgl\projects\soccerlgMSX2/soccerlg_s12_b3.c:286: p->dy = exit_dy; p->dx = 0;
    000013BE DD 7E EF         [19] 2939 	ld	a, -17 (ix)
    000013C1 C6 12            [ 7] 2940 	add	a, #0x12
    000013C3 DD 77 F7         [19] 2941 	ld	-9 (ix), a
    000013C6 DD 7E F0         [19] 2942 	ld	a, -16 (ix)
    000013C9 CE 00            [ 7] 2943 	adc	a, #0x00
    000013CB DD 77 F8         [19] 2944 	ld	-8 (ix), a
    000013CE DD 6E F7         [19] 2945 	ld	l, -9 (ix)
    000013D1 DD 66 F8         [19] 2946 	ld	h, -8 (ix)
    000013D4 DD 7E EE         [19] 2947 	ld	a, -18 (ix)
    000013D7 77               [ 7] 2948 	ld	(hl), a
    000013D8 DD 7E EF         [19] 2949 	ld	a, -17 (ix)
    000013DB C6 11            [ 7] 2950 	add	a, #0x11
    000013DD DD 77 F9         [19] 2951 	ld	-7 (ix), a
    000013E0 DD 7E F0         [19] 2952 	ld	a, -16 (ix)
    000013E3 CE 00            [ 7] 2953 	adc	a, #0x00
    000013E5 DD 77 FA         [19] 2954 	ld	-6 (ix), a
    000013E8 DD 6E F9         [19] 2955 	ld	l, -7 (ix)
    000013EB DD 66 FA         [19] 2956 	ld	h, -6 (ix)
    000013EE 36 00            [10] 2957 	ld	(hl), #0x00
                                   2958 ;E:\Dropbox\FAUSTO\SVILUPPI\MSX\CODE\C\MSXgl\projects\soccerlgMSX2/soccerlg_s12_b3.c:287: p->ly = (p->ly + p->dy) & 511; // Evita l'underflow matematico
    000013F0 69               [ 4] 2959 	ld	l, c
    000013F1 60               [ 4] 2960 	ld	h, b
    000013F2 5E               [ 7] 2961 	ld	e, (hl)
    000013F3 23               [ 6] 2962 	inc	hl
    000013F4 56               [ 7] 2963 	ld	d, (hl)
    000013F5 DD 7E EE         [19] 2964 	ld	a, -18 (ix)
    000013F8 6F               [ 4] 2965 	ld	l, a
                                   2966 ;	spillPairReg hl
                                   2967 ;	spillPairReg hl
    000013F9 07               [ 4] 2968 	rlca
    000013FA 9F               [ 4] 2969 	sbc	a, a
    000013FB 67               [ 4] 2970 	ld	h, a
                                   2971 ;	spillPairReg hl
                                   2972 ;	spillPairReg hl
    000013FC 19               [11] 2973 	add	hl, de
    000013FD EB               [ 4] 2974 	ex	de, hl
    000013FE 7A               [ 4] 2975 	ld	a, d
    000013FF E6 01            [ 7] 2976 	and	a, #0x01
    00001401 57               [ 4] 2977 	ld	d, a
    00001402 7B               [ 4] 2978 	ld	a, e
    00001403 02               [ 7] 2979 	ld	(bc), a
    00001404 03               [ 6] 2980 	inc	bc
    00001405 7A               [ 4] 2981 	ld	a, d
    00001406 02               [ 7] 2982 	ld	(bc), a
                                   2983 ;E:\Dropbox\FAUSTO\SVILUPPI\MSX\CODE\C\MSXgl\projects\soccerlgMSX2/soccerlg_s12_b3.c:288: if (i != 14) { // Anima i giocatori e l'arbitro (non la palla)
    00001407 DD 7E FF         [19] 2984 	ld	a, -1 (ix)
    0000140A D6 0E            [ 7] 2985 	sub	a, #0x0e
    0000140C CArB7r14         [10] 2986 	jp	Z,00270$
                                   2987 ;E:\Dropbox\FAUSTO\SVILUPPI\MSX\CODE\C\MSXgl\projects\soccerlgMSX2/soccerlg_s12_b3.c:289: p->anim++;
    0000140F DD 6E EF         [19] 2988 	ld	l, -17 (ix)
    00001412 DD 66 F0         [19] 2989 	ld	h, -16 (ix)
    00001415 11 13 00         [10] 2990 	ld	de, #0x0013
    00001418 19               [11] 2991 	add	hl, de
    00001419 5E               [ 7] 2992 	ld	e, (hl)
    0000141A 23               [ 6] 2993 	inc	hl
    0000141B 56               [ 7] 2994 	ld	d, (hl)
    0000141C 2B               [ 6] 2995 	dec	hl
    0000141D 13               [ 6] 2996 	inc	de
    0000141E 73               [ 7] 2997 	ld	(hl), e
    0000141F 23               [ 6] 2998 	inc	hl
    00001420 72               [ 7] 2999 	ld	(hl), d
                                   3000 ;E:\Dropbox\FAUSTO\SVILUPPI\MSX\CODE\C\MSXgl\projects\soccerlgMSX2/soccerlg_s12_b3.c:290: const u8 walk_seq[4] = {0, 1, 2, 1};
    00001421 DD 36 E6 00      [19] 3001 	ld	-26 (ix), #0x00
    00001425 DD 36 E7 01      [19] 3002 	ld	-25 (ix), #0x01
    00001429 DD 36 E8 02      [19] 3003 	ld	-24 (ix), #0x02
    0000142D DD 36 E9 01      [19] 3004 	ld	-23 (ix), #0x01
                                   3005 ;E:\Dropbox\FAUSTO\SVILUPPI\MSX\CODE\C\MSXgl\projects\soccerlgMSX2/soccerlg_s12_b3.c:291: p->frame = CallFnc_U16_P4(SEG_GAMESTATE_2, GetPlayerAnimFrame, i, p->dx, p->dy, walk_seq[(p->anim / 3) % 4]);
    00001431 DD 7E EF         [19] 3006 	ld	a, -17 (ix)
    00001434 C6 0F            [ 7] 3007 	add	a, #0x0f
    00001436 4F               [ 4] 3008 	ld	c, a
    00001437 DD 7E F0         [19] 3009 	ld	a, -16 (ix)
    0000143A CE 00            [ 7] 3010 	adc	a, #0x00
    0000143C 47               [ 4] 3011 	ld	b, a
    0000143D C5               [11] 3012 	push	bc
    0000143E EB               [ 4] 3013 	ex	de, hl
    0000143F 11 03 00         [10] 3014 	ld	de, #0x0003
    00001442 CDr00r00         [17] 3015 	call	__divuint
    00001445 C1               [10] 3016 	pop	bc
    00001446 7B               [ 4] 3017 	ld	a, e
    00001447 E6 03            [ 7] 3018 	and	a, #0x03
    00001449 5F               [ 4] 3019 	ld	e, a
    0000144A 16 00            [ 7] 3020 	ld	d, #0x00
    0000144C 21 06 00         [10] 3021 	ld	hl, #6
    0000144F 39               [11] 3022 	add	hl, sp
    00001450 19               [11] 3023 	add	hl, de
    00001451 56               [ 7] 3024 	ld	d, (hl)
    00001452 DD 6E F7         [19] 3025 	ld	l, -9 (ix)
    00001455 DD 66 F8         [19] 3026 	ld	h, -8 (ix)
    00001458 7E               [ 7] 3027 	ld	a, (hl)
    00001459 DD 6E F9         [19] 3028 	ld	l, -7 (ix)
    0000145C DD 66 FA         [19] 3029 	ld	h, -6 (ix)
    0000145F 66               [ 7] 3030 	ld	h, (hl)
                                   3031 ;	spillPairReg hl
    00001460 C5               [11] 3032 	push	bc
    00001461 D5               [11] 3033 	push	de
    00001462 33               [ 6] 3034 	inc	sp
    00001463 F5               [11] 3035 	push	af
    00001464 33               [ 6] 3036 	inc	sp
    00001465 E5               [11] 3037 	push	hl
    00001466 33               [ 6] 3038 	inc	sp
    00001467 DD 7E FF         [19] 3039 	ld	a, -1 (ix)
    0000146A F5               [11] 3040 	push	af
    0000146B 33               [ 6] 3041 	inc	sp
    0000146C 11r00r00         [10] 3042 	ld	de, #_GetPlayerAnimFrame
    0000146F 3E 0B            [ 7] 3043 	ld	a, #0x0b
    00001471 CDr00r00         [17] 3044 	call	_CallFnc_U16_P4
    00001474 C1               [10] 3045 	pop	bc
    00001475 7B               [ 4] 3046 	ld	a, e
    00001476 02               [ 7] 3047 	ld	(bc), a
    00001477 03               [ 6] 3048 	inc	bc
    00001478 7A               [ 4] 3049 	ld	a, d
    00001479 02               [ 7] 3050 	ld	(bc), a
    0000147A C3rB7r14         [10] 3051 	jp	00270$
    0000147D                       3052 00254$:
                                   3053 ;E:\Dropbox\FAUSTO\SVILUPPI\MSX\CODE\C\MSXgl\projects\soccerlgMSX2/soccerlg_s12_b3.c:294: p->ly = 1000; // Nascondi del tutto quando fuori visuale
    0000147D 3E E8            [ 7] 3054 	ld	a, #0xe8
    0000147F 02               [ 7] 3055 	ld	(bc), a
    00001480 03               [ 6] 3056 	inc	bc
    00001481 3E 03            [ 7] 3057 	ld	a, #0x03
    00001483 02               [ 7] 3058 	ld	(bc), a
    00001484 C3rB7r14         [10] 3059 	jp	00270$
    00001487                       3060 00261$:
                                   3061 ;E:\Dropbox\FAUSTO\SVILUPPI\MSX\CODE\C\MSXgl\projects\soccerlgMSX2/soccerlg_s12_b3.c:297: else if (i == 0 || i == 7) {
    00001487 DD 7E FF         [19] 3062 	ld	a, -1 (ix)
    0000148A B7               [ 4] 3063 	or	a, a
    0000148B 28 07            [12] 3064 	jr	Z, 00257$
    0000148D DD 7E FF         [19] 3065 	ld	a, -1 (ix)
    00001490 D6 07            [ 7] 3066 	sub	a, #0x07
    00001492 20 23            [12] 3067 	jr	NZ, 00270$
    00001494                       3068 00257$:
                                   3069 ;E:\Dropbox\FAUSTO\SVILUPPI\MSX\CODE\C\MSXgl\projects\soccerlgMSX2/soccerlg_s12_b3.c:299: p->frame = CallFnc_U16_P3(SEG_GAMESTATE_2, GetPlayerIdleFrame, i, 0, 1);
    00001494 DD 6E EF         [19] 3070 	ld	l, -17 (ix)
    00001497 DD 66 F0         [19] 3071 	ld	h, -16 (ix)
    0000149A 11 0F 00         [10] 3072 	ld	de, #0x000f
    0000149D 19               [11] 3073 	add	hl, de
    0000149E E5               [11] 3074 	push	hl
    0000149F 3E 01            [ 7] 3075 	ld	a, #0x01
    000014A1 F5               [11] 3076 	push	af
    000014A2 33               [ 6] 3077 	inc	sp
    000014A3 AF               [ 4] 3078 	xor	a, a
    000014A4 F5               [11] 3079 	push	af
    000014A5 33               [ 6] 3080 	inc	sp
    000014A6 DD 7E FF         [19] 3081 	ld	a, -1 (ix)
    000014A9 F5               [11] 3082 	push	af
    000014AA 33               [ 6] 3083 	inc	sp
    000014AB 11r00r00         [10] 3084 	ld	de, #_GetPlayerIdleFrame
    000014AE 3E 0B            [ 7] 3085 	ld	a, #0x0b
    000014B0 CDr00r00         [17] 3086 	call	_CallFnc_U16_P3
    000014B3 E1               [10] 3087 	pop	hl
    000014B4 73               [ 7] 3088 	ld	(hl), e
    000014B5 23               [ 6] 3089 	inc	hl
    000014B6 72               [ 7] 3090 	ld	(hl), d
    000014B7                       3091 00270$:
                                   3092 ;E:\Dropbox\FAUSTO\SVILUPPI\MSX\CODE\C\MSXgl\projects\soccerlgMSX2/soccerlg_s12_b3.c:255: for (u8 i = 0; i <= 26; i++) {
    000014B7 DD 34 FF         [23] 3093 	inc	-1 (ix)
    000014BA C3r9Cr0F         [10] 3094 	jp	00385$
    000014BD                       3095 00271$:
                                   3096 ;E:\Dropbox\FAUSTO\SVILUPPI\MSX\CODE\C\MSXgl\projects\soccerlgMSX2/soccerlg_s12_b3.c:304: if (time_up && all_offscreen) {
    000014BD DD 7E EA         [19] 3097 	ld	a, -22 (ix)
    000014C0 B7               [ 4] 3098 	or	a, a
    000014C1 CAr5Dr1A         [10] 3099 	jp	Z,00391$
    000014C4 DD 7E ED         [19] 3100 	ld	a, -19 (ix)
    000014C7 B7               [ 4] 3101 	or	a, a
    000014C8 CAr5Dr1A         [10] 3102 	jp	Z,00391$
                                   3103 ;E:\Dropbox\FAUSTO\SVILUPPI\MSX\CODE\C\MSXgl\projects\soccerlgMSX2/soccerlg_s12_b3.c:305: CallFnc_VOID(SEG_MENU, ShowMenu);
    000014CB 11r00r00         [10] 3104 	ld	de, #_ShowMenu
    000014CE 3E 0E            [ 7] 3105 	ld	a, #0x0e
    000014D0 CDr00r00         [17] 3106 	call	_CallFnc_VOID
                                   3107 ;E:\Dropbox\FAUSTO\SVILUPPI\MSX\CODE\C\MSXgl\projects\soccerlgMSX2/soccerlg_s12_b3.c:307: return;
    000014D3 C3r5Dr1A         [10] 3108 	jp	00391$
    000014D6                       3109 00339$:
                                   3110 ;E:\Dropbox\FAUSTO\SVILUPPI\MSX\CODE\C\MSXgl\projects\soccerlgMSX2/soccerlg_s12_b3.c:308: } else if (*game_state == 11) {
    000014D6 DD 7E FF         [19] 3111 	ld	a, -1 (ix)
    000014D9 D6 0B            [ 7] 3112 	sub	a, #0x0b
    000014DB C2rF6r19         [10] 3113 	jp	NZ,00336$
                                   3114 ;E:\Dropbox\FAUSTO\SVILUPPI\MSX\CODE\C\MSXgl\projects\soccerlgMSX2/soccerlg_s12_b3.c:311: if (*wait_secs > 0) {
    000014DE DD 6E FB         [19] 3115 	ld	l, -5 (ix)
    000014E1 DD 66 FC         [19] 3116 	ld	h, -4 (ix)
    000014E4 5E               [ 7] 3117 	ld	e, (hl)
    000014E5 7B               [ 4] 3118 	ld	a, e
    000014E6 B7               [ 4] 3119 	or	a, a
    000014E7 CAr06r16         [10] 3120 	jp	Z, 00289$
                                   3121 ;E:\Dropbox\FAUSTO\SVILUPPI\MSX\CODE\C\MSXgl\projects\soccerlgMSX2/soccerlg_s12_b3.c:312: if (*start_sec < Frms) { 
    000014EA DD 4E 04         [19] 3122 	ld	c, 4 (ix)
    000014ED DD 46 05         [19] 3123 	ld	b, 5 (ix)
    000014F0 0A               [ 7] 3124 	ld	a, (bc)
    000014F1 57               [ 4] 3125 	ld	d, a
    000014F2 21r00r00         [10] 3126 	ld	hl, #_Frms
    000014F5 7A               [ 4] 3127 	ld	a, d
    000014F6 96               [ 7] 3128 	sub	a, (hl)
    000014F7 D2rFFr15         [10] 3129 	jp	NC, 00287$
                                   3130 ;E:\Dropbox\FAUSTO\SVILUPPI\MSX\CODE\C\MSXgl\projects\soccerlgMSX2/soccerlg_s12_b3.c:313: (*wait_secs)--;
    000014FA 7B               [ 4] 3131 	ld	a, e
    000014FB 3D               [ 4] 3132 	dec	a
    000014FC DD 6E FB         [19] 3133 	ld	l, -5 (ix)
    000014FF DD 66 FC         [19] 3134 	ld	h, -4 (ix)
    00001502 77               [ 7] 3135 	ld	(hl), a
                                   3136 ;E:\Dropbox\FAUSTO\SVILUPPI\MSX\CODE\C\MSXgl\projects\soccerlgMSX2/soccerlg_s12_b3.c:314: if (*wait_secs == 0) {
    00001503 B7               [ 4] 3137 	or	a, a
    00001504 20 0A            [12] 3138 	jr	NZ, 00276$
                                   3139 ;E:\Dropbox\FAUSTO\SVILUPPI\MSX\CODE\C\MSXgl\projects\soccerlgMSX2/soccerlg_s12_b3.c:315: CallFnc_VOID(SEG_DRAW, HideSpriteMessage);
    00001506 C5               [11] 3140 	push	bc
    00001507 11r00r00         [10] 3141 	ld	de, #_HideSpriteMessage
    0000150A 3E 05            [ 7] 3142 	ld	a, #0x05
    0000150C CDr00r00         [17] 3143 	call	_CallFnc_VOID
    0000150F C1               [10] 3144 	pop	bc
    00001510                       3145 00276$:
                                   3146 ;E:\Dropbox\FAUSTO\SVILUPPI\MSX\CODE\C\MSXgl\projects\soccerlgMSX2/soccerlg_s12_b3.c:319: T1_Carrier = T2_Carrier = T1_Receiver = T2_Receiver = 0xFF; // Rimuovi tutti i focus
    00001510 21r00r00         [10] 3147 	ld	hl, #_T2_Receiver
    00001513 36 FF            [10] 3148 	ld	(hl), #0xff
    00001515 21r00r00         [10] 3149 	ld	hl, #_T1_Receiver
    00001518 36 FF            [10] 3150 	ld	(hl), #0xff
    0000151A 21r00r00         [10] 3151 	ld	hl, #_T2_Carrier
    0000151D 36 FF            [10] 3152 	ld	(hl), #0xff
    0000151F FD 21r00r00      [14] 3153 	ld	iy, #_T1_Carrier
    00001523 FD 36 00 FF      [19] 3154 	ld	0 (iy), #0xff
                                   3155 ;E:\Dropbox\FAUSTO\SVILUPPI\MSX\CODE\C\MSXgl\projects\soccerlgMSX2/soccerlg_s12_b3.c:320: for(u8 i=0; i<14; i++) {
    00001527 DD 36 FF 00      [19] 3156 	ld	-1 (ix), #0x00
    0000152B                       3157 00387$:
    0000152B DD 7E FF         [19] 3158 	ld	a, -1 (ix)
    0000152E D6 0E            [ 7] 3159 	sub	a, #0x0e
    00001530 D2rEFr15         [10] 3160 	jp	NC, 00285$
                                   3161 ;E:\Dropbox\FAUSTO\SVILUPPI\MSX\CODE\C\MSXgl\projects\soccerlgMSX2/soccerlg_s12_b3.c:321: u8 role = (i < 7) ? i : i - 7;
    00001533 DD 7E FF         [19] 3162 	ld	a, -1 (ix)
    00001536 D6 07            [ 7] 3163 	sub	a, #0x07
    00001538 3E 00            [ 7] 3164 	ld	a, #0x00
    0000153A 17               [ 4] 3165 	rla
    0000153B 5F               [ 4] 3166 	ld	e, a
    0000153C B7               [ 4] 3167 	or	a, a
    0000153D 28 06            [12] 3168 	jr	Z, 00425$
    0000153F DD 56 FF         [19] 3169 	ld	d, -1 (ix)
    00001542 C3r4Br15         [10] 3170 	jp	00426$
    00001545                       3171 00425$:
    00001545 DD 7E FF         [19] 3172 	ld	a, -1 (ix)
    00001548 C6 F9            [ 7] 3173 	add	a, #0xf9
    0000154A 57               [ 4] 3174 	ld	d, a
    0000154B                       3175 00426$:
    0000154B DD 72 FA         [19] 3176 	ld	-6 (ix), d
                                   3177 ;E:\Dropbox\FAUSTO\SVILUPPI\MSX\CODE\C\MSXgl\projects\soccerlgMSX2/soccerlg_s12_b3.c:322: u8 t_cx = (i < 7) ? 64 : 192;
    0000154E 7B               [ 4] 3178 	ld	a, e
    0000154F B7               [ 4] 3179 	or	a, a
    00001550 28 06            [12] 3180 	jr	Z, 00427$
    00001552 11 40 00         [10] 3181 	ld	de, #0x0040
    00001555 C3r5Br15         [10] 3182 	jp	00428$
    00001558                       3183 00427$:
    00001558 11 C0 00         [10] 3184 	ld	de, #0x00c0
    0000155B                       3185 00428$:
    0000155B DD 73 F8         [19] 3186 	ld	-8 (ix), e
                                   3187 ;E:\Dropbox\FAUSTO\SVILUPPI\MSX\CODE\C\MSXgl\projects\soccerlgMSX2/soccerlg_s12_b3.c:323: i8 off_x = 0; i8 off_y = 0;
    0000155E 11 00 00         [10] 3188 	ld	de, #0x0
                                   3189 ;E:\Dropbox\FAUSTO\SVILUPPI\MSX\CODE\C\MSXgl\projects\soccerlgMSX2/soccerlg_s12_b3.c:324: switch(role) {
    00001561 3E 06            [ 7] 3190 	ld	a, #0x06
    00001563 DD 96 FA         [19] 3191 	sub	a, -6 (ix)
    00001566 38 40            [12] 3192 	jr	C, 00284$
    00001568 DD 5E FA         [19] 3193 	ld	e, -6 (ix)
    0000156B 16 00            [ 7] 3194 	ld	d, #0x00
    0000156D 21r73r15         [10] 3195 	ld	hl, #01303$
    00001570 19               [11] 3196 	add	hl, de
    00001571 19               [11] 3197 	add	hl, de
                                   3198 ;E:\Dropbox\FAUSTO\SVILUPPI\MSX\CODE\C\MSXgl\projects\soccerlgMSX2/soccerlg_s12_b3.c:325: case 0: off_x = -18; off_y = -18; break; // Giocatore 1 (dietro)
    00001572 E9               [ 4] 3199 	jp	(hl)
    00001573                       3200 01303$:
    00001573 18 0C            [12] 3201 	jr	00277$
    00001575 18 10            [12] 3202 	jr	00278$
    00001577 18 14            [12] 3203 	jr	00279$
    00001579 18 18            [12] 3204 	jr	00280$
    0000157B 18 1C            [12] 3205 	jr	00281$
    0000157D 18 20            [12] 3206 	jr	00282$
    0000157F 18 24            [12] 3207 	jr	00283$
    00001581                       3208 00277$:
    00001581 11 EE EE         [10] 3209 	ld	de, #0xeeee
    00001584 C3rA8r15         [10] 3210 	jp	00284$
                                   3211 ;E:\Dropbox\FAUSTO\SVILUPPI\MSX\CODE\C\MSXgl\projects\soccerlgMSX2/soccerlg_s12_b3.c:326: case 1: off_x =   2; off_y = -18; break; // Giocatore 2 (dietro)
    00001587                       3212 00278$:
    00001587 11 EE 02         [10] 3213 	ld	de, #0x2ee
    0000158A C3rA8r15         [10] 3214 	jp	00284$
                                   3215 ;E:\Dropbox\FAUSTO\SVILUPPI\MSX\CODE\C\MSXgl\projects\soccerlgMSX2/soccerlg_s12_b3.c:327: case 2: off_x =  22; off_y = -18; break; // Giocatore 3 (dietro)
    0000158D                       3216 00279$:
    0000158D 11 EE 16         [10] 3217 	ld	de, #0x16ee
    00001590 C3rA8r15         [10] 3218 	jp	00284$
                                   3219 ;E:\Dropbox\FAUSTO\SVILUPPI\MSX\CODE\C\MSXgl\projects\soccerlgMSX2/soccerlg_s12_b3.c:328: case 3: off_x = -22; off_y =   2; break; // Giocatore 4 (centro)
    00001593                       3220 00280$:
    00001593 11 02 EA         [10] 3221 	ld	de, #0xea02
    00001596 C3rA8r15         [10] 3222 	jp	00284$
                                   3223 ;E:\Dropbox\FAUSTO\SVILUPPI\MSX\CODE\C\MSXgl\projects\soccerlgMSX2/soccerlg_s12_b3.c:329: case 4: off_x =  -2; off_y =   2; break; // Giocatore 5 (centro)
    00001599                       3224 00281$:
    00001599 11 02 FE         [10] 3225 	ld	de, #0xfe02
    0000159C C3rA8r15         [10] 3226 	jp	00284$
                                   3227 ;E:\Dropbox\FAUSTO\SVILUPPI\MSX\CODE\C\MSXgl\projects\soccerlgMSX2/soccerlg_s12_b3.c:330: case 5: off_x =  18; off_y =   2; break; // Giocatore 6 (centro)
    0000159F                       3228 00282$:
    0000159F 11 02 12         [10] 3229 	ld	de, #0x1202
    000015A2 C3rA8r15         [10] 3230 	jp	00284$
                                   3231 ;E:\Dropbox\FAUSTO\SVILUPPI\MSX\CODE\C\MSXgl\projects\soccerlgMSX2/soccerlg_s12_b3.c:331: case 6: off_x = -10; off_y =  22; break; // Giocatore 7 (avanti)
    000015A5                       3232 00283$:
    000015A5 11 16 F6         [10] 3233 	ld	de, #0xf616
                                   3234 ;E:\Dropbox\FAUSTO\SVILUPPI\MSX\CODE\C\MSXgl\projects\soccerlgMSX2/soccerlg_s12_b3.c:332: }
    000015A8                       3235 00284$:
                                   3236 ;E:\Dropbox\FAUSTO\SVILUPPI\MSX\CODE\C\MSXgl\projects\soccerlgMSX2/soccerlg_s12_b3.c:333: SwSprite[i].tx = (u8)(t_cx + off_x);
    000015A8 D5               [11] 3237 	push	de
    000015A9 DD 5E FF         [19] 3238 	ld	e, -1 (ix)
    000015AC 16 00            [ 7] 3239 	ld	d, #0x00
    000015AE 6B               [ 4] 3240 	ld	l, e
    000015AF 62               [ 4] 3241 	ld	h, d
    000015B0 29               [11] 3242 	add	hl, hl
    000015B1 29               [11] 3243 	add	hl, hl
    000015B2 19               [11] 3244 	add	hl, de
    000015B3 29               [11] 3245 	add	hl, hl
    000015B4 19               [11] 3246 	add	hl, de
    000015B5 29               [11] 3247 	add	hl, hl
    000015B6 19               [11] 3248 	add	hl, de
    000015B7 D1               [10] 3249 	pop	de
    000015B8 3Er00            [ 7] 3250 	ld	a, #<(_SwSprite)
    000015BA 85               [ 4] 3251 	add	a, l
    000015BB DD 77 F9         [19] 3252 	ld	-7 (ix), a
    000015BE 3Es00            [ 7] 3253 	ld	a, #>(_SwSprite)
    000015C0 8C               [ 4] 3254 	adc	a, h
    000015C1 DD 77 FA         [19] 3255 	ld	-6 (ix), a
    000015C4 DD 7E F9         [19] 3256 	ld	a, -7 (ix)
    000015C7 C6 0C            [ 7] 3257 	add	a, #0x0c
    000015C9 6F               [ 4] 3258 	ld	l, a
                                   3259 ;	spillPairReg hl
                                   3260 ;	spillPairReg hl
    000015CA DD 7E FA         [19] 3261 	ld	a, -6 (ix)
    000015CD CE 00            [ 7] 3262 	adc	a, #0x00
    000015CF 67               [ 4] 3263 	ld	h, a
                                   3264 ;	spillPairReg hl
                                   3265 ;	spillPairReg hl
    000015D0 DD 7E F8         [19] 3266 	ld	a, -8 (ix)
    000015D3 82               [ 4] 3267 	add	a, d
    000015D4 77               [ 7] 3268 	ld	(hl), a
                                   3269 ;E:\Dropbox\FAUSTO\SVILUPPI\MSX\CODE\C\MSXgl\projects\soccerlgMSX2/soccerlg_s12_b3.c:334: SwSprite[i].ty = (u16)(256 + off_y);
    000015D5 DD 7E F9         [19] 3270 	ld	a, -7 (ix)
    000015D8 C6 0D            [ 7] 3271 	add	a, #0x0d
    000015DA 6F               [ 4] 3272 	ld	l, a
                                   3273 ;	spillPairReg hl
                                   3274 ;	spillPairReg hl
    000015DB DD 7E FA         [19] 3275 	ld	a, -6 (ix)
    000015DE CE 00            [ 7] 3276 	adc	a, #0x00
    000015E0 67               [ 4] 3277 	ld	h, a
                                   3278 ;	spillPairReg hl
                                   3279 ;	spillPairReg hl
    000015E1 7B               [ 4] 3280 	ld	a, e
    000015E2 07               [ 4] 3281 	rlca
    000015E3 9F               [ 4] 3282 	sbc	a, a
    000015E4 57               [ 4] 3283 	ld	d, a
    000015E5 3C               [ 4] 3284 	inc	a
    000015E6 73               [ 7] 3285 	ld	(hl), e
    000015E7 23               [ 6] 3286 	inc	hl
    000015E8 77               [ 7] 3287 	ld	(hl), a
                                   3288 ;E:\Dropbox\FAUSTO\SVILUPPI\MSX\CODE\C\MSXgl\projects\soccerlgMSX2/soccerlg_s12_b3.c:320: for(u8 i=0; i<14; i++) {
    000015E9 DD 34 FF         [23] 3289 	inc	-1 (ix)
    000015EC C3r2Br15         [10] 3290 	jp	00387$
    000015EF                       3291 00285$:
                                   3292 ;E:\Dropbox\FAUSTO\SVILUPPI\MSX\CODE\C\MSXgl\projects\soccerlgMSX2/soccerlg_s12_b3.c:337: SwSprite[26].tx = (u8)(128 + 24);
    000015EF 21r62r02         [10] 3293 	ld	hl, #(_SwSprite + 610)
    000015F2 36 98            [10] 3294 	ld	(hl), #0x98
                                   3295 ;E:\Dropbox\FAUSTO\SVILUPPI\MSX\CODE\C\MSXgl\projects\soccerlgMSX2/soccerlg_s12_b3.c:338: SwSprite[26].ty = (u16)(256 - 24);
    000015F4 21 E8 00         [10] 3296 	ld	hl, #0x00e8
    000015F7 22r63r02         [16] 3297 	ld	((_SwSprite + 611)), hl
                                   3298 ;E:\Dropbox\FAUSTO\SVILUPPI\MSX\CODE\C\MSXgl\projects\soccerlgMSX2/soccerlg_s12_b3.c:341: SwSprite[14].ly = 1000;
    000015FA 26 03            [ 7] 3299 	ld	h, #0x03
    000015FC 22r46r01         [16] 3300 	ld	((_SwSprite + 326)), hl
    000015FF                       3301 00287$:
                                   3302 ;E:\Dropbox\FAUSTO\SVILUPPI\MSX\CODE\C\MSXgl\projects\soccerlgMSX2/soccerlg_s12_b3.c:343: *start_sec = Frms;
    000015FF 3Ar00r00         [13] 3303 	ld	a, (_Frms+0)
    00001602 02               [ 7] 3304 	ld	(bc), a
                                   3305 ;E:\Dropbox\FAUSTO\SVILUPPI\MSX\CODE\C\MSXgl\projects\soccerlgMSX2/soccerlg_s12_b3.c:344: return;
    00001603 C3r5Dr1A         [10] 3306 	jp	00391$
    00001606                       3307 00289$:
                                   3308 ;E:\Dropbox\FAUSTO\SVILUPPI\MSX\CODE\C\MSXgl\projects\soccerlgMSX2/soccerlg_s12_b3.c:347: bool all_in_position = TRUE;
    00001606 DD 36 EA 01      [19] 3309 	ld	-22 (ix), #0x01
                                   3310 ;E:\Dropbox\FAUSTO\SVILUPPI\MSX\CODE\C\MSXgl\projects\soccerlgMSX2/soccerlg_s12_b3.c:350: if (Field.ly > 156 + 3) {
    0000160A 21r04r00         [10] 3311 	ld	hl, #(_Field + 4)
    0000160D 7E               [ 7] 3312 	ld	a, (hl)
    0000160E DD 77 F9         [19] 3313 	ld	-7 (ix), a
    00001611 23               [ 6] 3314 	inc	hl
    00001612 7E               [ 7] 3315 	ld	a, (hl)
    00001613 DD 77 FA         [19] 3316 	ld	-6 (ix), a
                                   3317 ;E:\Dropbox\FAUSTO\SVILUPPI\MSX\CODE\C\MSXgl\projects\soccerlgMSX2/soccerlg_s12_b3.c:351: Field.dy = -4; Field.ly += Field.dy; all_in_position = FALSE;
                                   3318 ;E:\Dropbox\FAUSTO\SVILUPPI\MSX\CODE\C\MSXgl\projects\soccerlgMSX2/soccerlg_s12_b3.c:350: if (Field.ly > 156 + 3) {
    00001616 3E 9F            [ 7] 3319 	ld	a, #0x9f
    00001618 DD BE F9         [19] 3320 	cp	a, -7 (ix)
    0000161B 3E 00            [ 7] 3321 	ld	a, #0x00
    0000161D DD 9E FA         [19] 3322 	sbc	a, -6 (ix)
    00001620 30 1D            [12] 3323 	jr	NC, 00297$
                                   3324 ;E:\Dropbox\FAUSTO\SVILUPPI\MSX\CODE\C\MSXgl\projects\soccerlgMSX2/soccerlg_s12_b3.c:351: Field.dy = -4; Field.ly += Field.dy; all_in_position = FALSE;
    00001622 21r12r00         [10] 3325 	ld	hl, #(_Field + 18)
    00001625 36 FC            [10] 3326 	ld	(hl), #0xfc
    00001627 ED 4Br04r00      [20] 3327 	ld	bc, (#(_Field + 4) + 0)
    0000162B 3Ar12r00         [13] 3328 	ld	a, (#(_Field + 18) + 0)
    0000162E 6F               [ 4] 3329 	ld	l, a
                                   3330 ;	spillPairReg hl
                                   3331 ;	spillPairReg hl
    0000162F 07               [ 4] 3332 	rlca
    00001630 9F               [ 4] 3333 	sbc	a, a
    00001631 67               [ 4] 3334 	ld	h, a
                                   3335 ;	spillPairReg hl
                                   3336 ;	spillPairReg hl
    00001632 09               [11] 3337 	add	hl, bc
    00001633 EB               [ 4] 3338 	ex	de, hl
    00001634 ED 53r04r00      [20] 3339 	ld	((_Field + 4)), de
    00001638 DD 36 EA 00      [19] 3340 	ld	-22 (ix), #0x00
    0000163C C3r90r16         [10] 3341 	jp	00599$
    0000163F                       3342 00297$:
                                   3343 ;E:\Dropbox\FAUSTO\SVILUPPI\MSX\CODE\C\MSXgl\projects\soccerlgMSX2/soccerlg_s12_b3.c:352: } else if (Field.ly + 3 < 156) {
    0000163F DD 4E F9         [19] 3344 	ld	c, -7 (ix)
    00001642 DD 46 FA         [19] 3345 	ld	b, -6 (ix)
    00001645 59               [ 4] 3346 	ld	e, c
    00001646 50               [ 4] 3347 	ld	d, b
    00001647 13               [ 6] 3348 	inc	de
    00001648 13               [ 6] 3349 	inc	de
    00001649 13               [ 6] 3350 	inc	de
    0000164A 7B               [ 4] 3351 	ld	a, e
    0000164B D6 9C            [ 7] 3352 	sub	a, #0x9c
    0000164D 7A               [ 4] 3353 	ld	a, d
    0000164E DE 00            [ 7] 3354 	sbc	a, #0x00
    00001650 30 1D            [12] 3355 	jr	NC, 00294$
                                   3356 ;E:\Dropbox\FAUSTO\SVILUPPI\MSX\CODE\C\MSXgl\projects\soccerlgMSX2/soccerlg_s12_b3.c:353: Field.dy = 4; Field.ly += Field.dy; all_in_position = FALSE;
    00001652 21r12r00         [10] 3357 	ld	hl, #(_Field + 18)
    00001655 36 04            [10] 3358 	ld	(hl), #0x04
    00001657 ED 4Br04r00      [20] 3359 	ld	bc, (#(_Field + 4) + 0)
    0000165B 3Ar12r00         [13] 3360 	ld	a, (#(_Field + 18) + 0)
    0000165E 6F               [ 4] 3361 	ld	l, a
                                   3362 ;	spillPairReg hl
                                   3363 ;	spillPairReg hl
    0000165F 07               [ 4] 3364 	rlca
    00001660 9F               [ 4] 3365 	sbc	a, a
    00001661 67               [ 4] 3366 	ld	h, a
                                   3367 ;	spillPairReg hl
                                   3368 ;	spillPairReg hl
    00001662 09               [11] 3369 	add	hl, bc
    00001663 EB               [ 4] 3370 	ex	de, hl
    00001664 ED 53r04r00      [20] 3371 	ld	((_Field + 4)), de
    00001668 DD 36 EA 00      [19] 3372 	ld	-22 (ix), #0x00
    0000166C C3r90r16         [10] 3373 	jp	00599$
    0000166F                       3374 00294$:
                                   3375 ;E:\Dropbox\FAUSTO\SVILUPPI\MSX\CODE\C\MSXgl\projects\soccerlgMSX2/soccerlg_s12_b3.c:354: } else if (Field.ly != 156) {
    0000166F 79               [ 4] 3376 	ld	a, c
    00001670 D6 9C            [ 7] 3377 	sub	a, #0x9c
    00001672 B0               [ 4] 3378 	or	a, b
    00001673 28 16            [12] 3379 	jr	Z, 00291$
                                   3380 ;E:\Dropbox\FAUSTO\SVILUPPI\MSX\CODE\C\MSXgl\projects\soccerlgMSX2/soccerlg_s12_b3.c:355: Field.dy = (i8)(156 - Field.ly); Field.ly = 156; all_in_position = FALSE;
    00001675 DD 4E F9         [19] 3381 	ld	c, -7 (ix)
    00001678 3E 9C            [ 7] 3382 	ld	a, #0x9c
    0000167A 91               [ 4] 3383 	sub	a, c
    0000167B 32r12r00         [13] 3384 	ld	(#(_Field + 18)),a
    0000167E 21 9C 00         [10] 3385 	ld	hl, #0x009c
    00001681 22r04r00         [16] 3386 	ld	((_Field + 4)), hl
    00001684 DD 36 EA 00      [19] 3387 	ld	-22 (ix), #0x00
    00001688 C3r90r16         [10] 3388 	jp	00599$
    0000168B                       3389 00291$:
                                   3390 ;E:\Dropbox\FAUSTO\SVILUPPI\MSX\CODE\C\MSXgl\projects\soccerlgMSX2/soccerlg_s12_b3.c:357: Field.dy = 0;
    0000168B 21r12r00         [10] 3391 	ld	hl, #(_Field + 18)
    0000168E 36 00            [10] 3392 	ld	(hl), #0x00
                                   3393 ;E:\Dropbox\FAUSTO\SVILUPPI\MSX\CODE\C\MSXgl\projects\soccerlgMSX2/soccerlg_s12_b3.c:361: for (u8 i = 0; i <= 26; i++) {
    00001690                       3394 00599$:
    00001690 DD 36 FF 00      [19] 3395 	ld	-1 (ix), #0x00
    00001694                       3396 00390$:
    00001694 3E 1A            [ 7] 3397 	ld	a, #0x1a
    00001696 DD 96 FF         [19] 3398 	sub	a, -1 (ix)
    00001699 DArE5r19         [10] 3399 	jp	C, 00325$
                                   3400 ;E:\Dropbox\FAUSTO\SVILUPPI\MSX\CODE\C\MSXgl\projects\soccerlgMSX2/soccerlg_s12_b3.c:362: if (i >= 14 && i < 26) continue; // Salta UI e Palla
    0000169C DD 7E FF         [19] 3401 	ld	a, -1 (ix)
    0000169F D6 0E            [ 7] 3402 	sub	a, #0x0e
    000016A1 38 08            [12] 3403 	jr	C, 00300$
    000016A3 DD 7E FF         [19] 3404 	ld	a, -1 (ix)
    000016A6 D6 1A            [ 7] 3405 	sub	a, #0x1a
    000016A8 DArDFr19         [10] 3406 	jp	C, 00324$
    000016AB                       3407 00300$:
                                   3408 ;E:\Dropbox\FAUSTO\SVILUPPI\MSX\CODE\C\MSXgl\projects\soccerlgMSX2/soccerlg_s12_b3.c:363: struct ObjectInfo* p = &SwSprite[i];
    000016AB DD 4E FF         [19] 3409 	ld	c, -1 (ix)
    000016AE 06 00            [ 7] 3410 	ld	b, #0x00
    000016B0 69               [ 4] 3411 	ld	l, c
    000016B1 60               [ 4] 3412 	ld	h, b
    000016B2 29               [11] 3413 	add	hl, hl
    000016B3 29               [11] 3414 	add	hl, hl
    000016B4 09               [11] 3415 	add	hl, bc
    000016B5 29               [11] 3416 	add	hl, hl
    000016B6 09               [11] 3417 	add	hl, bc
    000016B7 29               [11] 3418 	add	hl, hl
    000016B8 09               [11] 3419 	add	hl, bc
    000016B9 11r00r00         [10] 3420 	ld	de, #_SwSprite
    000016BC 19               [11] 3421 	add	hl, de
    000016BD E3               [19] 3422 	ex	(sp), hl
                                   3423 ;E:\Dropbox\FAUSTO\SVILUPPI\MSX\CODE\C\MSXgl\projects\soccerlgMSX2/soccerlg_s12_b3.c:364: if (p->lx != p->tx || p->ly != p->ty) {
    000016BE E1               [10] 3424 	pop	hl
    000016BF E5               [11] 3425 	push	hl
    000016C0 7E               [ 7] 3426 	ld	a, (hl)
    000016C1 DD 77 F9         [19] 3427 	ld	-7 (ix), a
    000016C4 C1               [10] 3428 	pop	bc
    000016C5 C5               [11] 3429 	push	bc
    000016C6 21 0C 00         [10] 3430 	ld	hl, #12
    000016C9 09               [11] 3431 	add	hl, bc
    000016CA 7E               [ 7] 3432 	ld	a, (hl)
    000016CB DD 77 FA         [19] 3433 	ld	-6 (ix), a
    000016CE DD 7E E0         [19] 3434 	ld	a, -32 (ix)
    000016D1 C6 04            [ 7] 3435 	add	a, #0x04
    000016D3 DD 77 EB         [19] 3436 	ld	-21 (ix), a
    000016D6 DD 7E E1         [19] 3437 	ld	a, -31 (ix)
    000016D9 CE 00            [ 7] 3438 	adc	a, #0x00
    000016DB DD 77 EC         [19] 3439 	ld	-20 (ix), a
    000016DE DD 7E E0         [19] 3440 	ld	a, -32 (ix)
    000016E1 C6 0D            [ 7] 3441 	add	a, #0x0d
    000016E3 DD 77 ED         [19] 3442 	ld	-19 (ix), a
    000016E6 DD 7E E1         [19] 3443 	ld	a, -31 (ix)
    000016E9 CE 00            [ 7] 3444 	adc	a, #0x00
    000016EB DD 77 EE         [19] 3445 	ld	-18 (ix), a
                                   3446 ;E:\Dropbox\FAUSTO\SVILUPPI\MSX\CODE\C\MSXgl\projects\soccerlgMSX2/soccerlg_s12_b3.c:367: if (p->tx > p->lx) p->dx = (i8)((p->tx - p->lx >= 2) ? 2 : 1); 
    000016EE DD 7E E0         [19] 3447 	ld	a, -32 (ix)
    000016F1 C6 11            [ 7] 3448 	add	a, #0x11
    000016F3 DD 77 EF         [19] 3449 	ld	-17 (ix), a
    000016F6 DD 7E E1         [19] 3450 	ld	a, -31 (ix)
    000016F9 CE 00            [ 7] 3451 	adc	a, #0x00
    000016FB DD 77 F0         [19] 3452 	ld	-16 (ix), a
                                   3453 ;E:\Dropbox\FAUSTO\SVILUPPI\MSX\CODE\C\MSXgl\projects\soccerlgMSX2/soccerlg_s12_b3.c:371: if (p->ty > p->ly) p->dy = (i8)((p->ty - p->ly >= 2) ? 2 : 1); 
    000016FE DD 7E E0         [19] 3454 	ld	a, -32 (ix)
    00001701 C6 12            [ 7] 3455 	add	a, #0x12
    00001703 DD 77 F1         [19] 3456 	ld	-15 (ix), a
    00001706 DD 7E E1         [19] 3457 	ld	a, -31 (ix)
    00001709 CE 00            [ 7] 3458 	adc	a, #0x00
    0000170B DD 77 F2         [19] 3459 	ld	-14 (ix), a
                                   3460 ;E:\Dropbox\FAUSTO\SVILUPPI\MSX\CODE\C\MSXgl\projects\soccerlgMSX2/soccerlg_s12_b3.c:377: p->frame = CallFnc_U16_P4(SEG_GAMESTATE_2, GetPlayerAnimFrame, i, p->dx, p->dy, walk_seq[(p->anim / 3) % 4]); 
    0000170E DD 7E E0         [19] 3461 	ld	a, -32 (ix)
    00001711 C6 0F            [ 7] 3462 	add	a, #0x0f
    00001713 DD 77 F3         [19] 3463 	ld	-13 (ix), a
    00001716 DD 7E E1         [19] 3464 	ld	a, -31 (ix)
    00001719 CE 00            [ 7] 3465 	adc	a, #0x00
    0000171B DD 77 F4         [19] 3466 	ld	-12 (ix), a
                                   3467 ;E:\Dropbox\FAUSTO\SVILUPPI\MSX\CODE\C\MSXgl\projects\soccerlgMSX2/soccerlg_s12_b3.c:364: if (p->lx != p->tx || p->ly != p->ty) {
    0000171E DD 7E F9         [19] 3468 	ld	a, -7 (ix)
    00001721 DD 96 FA         [19] 3469 	sub	a, -6 (ix)
    00001724 20 19            [12] 3470 	jr	NZ, 00320$
    00001726 DD 6E EB         [19] 3471 	ld	l, -21 (ix)
    00001729 DD 66 EC         [19] 3472 	ld	h, -20 (ix)
    0000172C 4E               [ 7] 3473 	ld	c, (hl)
    0000172D 23               [ 6] 3474 	inc	hl
    0000172E 46               [ 7] 3475 	ld	b, (hl)
    0000172F DD 6E ED         [19] 3476 	ld	l, -19 (ix)
    00001732 DD 66 EE         [19] 3477 	ld	h, -18 (ix)
    00001735 5E               [ 7] 3478 	ld	e, (hl)
    00001736 23               [ 6] 3479 	inc	hl
    00001737 66               [ 7] 3480 	ld	h, (hl)
                                   3481 ;	spillPairReg hl
    00001738 6B               [ 4] 3482 	ld	l, e
    00001739 BF               [ 4] 3483 	cp	a, a
    0000173A ED 42            [15] 3484 	sbc	hl, bc
    0000173C CAr25r19         [10] 3485 	jp	Z,00321$
    0000173F                       3486 00320$:
                                   3487 ;E:\Dropbox\FAUSTO\SVILUPPI\MSX\CODE\C\MSXgl\projects\soccerlgMSX2/soccerlg_s12_b3.c:365: all_in_position = FALSE;
    0000173F DD 36 EA 00      [19] 3488 	ld	-22 (ix), #0x00
                                   3489 ;E:\Dropbox\FAUSTO\SVILUPPI\MSX\CODE\C\MSXgl\projects\soccerlgMSX2/soccerlg_s12_b3.c:367: if (p->tx > p->lx) p->dx = (i8)((p->tx - p->lx >= 2) ? 2 : 1); 
    00001743 DD 7E F9         [19] 3490 	ld	a, -7 (ix)
    00001746 DD 96 FA         [19] 3491 	sub	a, -6 (ix)
    00001749 30 55            [12] 3492 	jr	NC, 00306$
    0000174B DD 7E FA         [19] 3493 	ld	a, -6 (ix)
    0000174E DD 77 F7         [19] 3494 	ld	-9 (ix), a
    00001751 DD 36 F8 00      [19] 3495 	ld	-8 (ix), #0x00
    00001755 DD 7E F9         [19] 3496 	ld	a, -7 (ix)
    00001758 DD 77 F5         [19] 3497 	ld	-11 (ix), a
    0000175B DD 36 F6 00      [19] 3498 	ld	-10 (ix), #0x00
    0000175F DD 7E F7         [19] 3499 	ld	a, -9 (ix)
    00001762 DD 96 F5         [19] 3500 	sub	a, -11 (ix)
    00001765 DD 77 F9         [19] 3501 	ld	-7 (ix), a
    00001768 DD 7E F8         [19] 3502 	ld	a, -8 (ix)
    0000176B DD 9E F6         [19] 3503 	sbc	a, -10 (ix)
    0000176E DD 77 FA         [19] 3504 	ld	-6 (ix), a
    00001771 DD 7E F9         [19] 3505 	ld	a, -7 (ix)
    00001774 D6 02            [ 7] 3506 	sub	a, #0x02
    00001776 DD 7E FA         [19] 3507 	ld	a, -6 (ix)
    00001779 17               [ 4] 3508 	rla
    0000177A 3F               [ 4] 3509 	ccf
    0000177B 1F               [ 4] 3510 	rra
    0000177C DE 80            [ 7] 3511 	sbc	a, #0x80
    0000177E 38 0B            [12] 3512 	jr	C, 00429$
    00001780 DD 36 F9 02      [19] 3513 	ld	-7 (ix), #0x02
    00001784 DD 36 FA 00      [19] 3514 	ld	-6 (ix), #0
    00001788 C3r93r17         [10] 3515 	jp	00430$
    0000178B                       3516 00429$:
    0000178B DD 36 F9 01      [19] 3517 	ld	-7 (ix), #0x01
    0000178F DD 36 FA 00      [19] 3518 	ld	-6 (ix), #0
    00001793                       3519 00430$:
    00001793 DD 7E F9         [19] 3520 	ld	a, -7 (ix)
    00001796 DD 6E EF         [19] 3521 	ld	l, -17 (ix)
    00001799 DD 66 F0         [19] 3522 	ld	h, -16 (ix)
    0000179C 77               [ 7] 3523 	ld	(hl), a
    0000179D C3rF6r17         [10] 3524 	jp	00307$
    000017A0                       3525 00306$:
                                   3526 ;E:\Dropbox\FAUSTO\SVILUPPI\MSX\CODE\C\MSXgl\projects\soccerlgMSX2/soccerlg_s12_b3.c:368: else if (p->tx < p->lx) p->dx = (i8)((p->lx - p->tx >= 2) ? -2 : -1); 
    000017A0 DD 7E FA         [19] 3527 	ld	a, -6 (ix)
    000017A3 DD 96 F9         [19] 3528 	sub	a, -7 (ix)
    000017A6 30 46            [12] 3529 	jr	NC, 00303$
    000017A8 DD 7E F9         [19] 3530 	ld	a, -7 (ix)
    000017AB DD 77 F5         [19] 3531 	ld	-11 (ix), a
    000017AE DD 36 F6 00      [19] 3532 	ld	-10 (ix), #0x00
    000017B2 DD 7E FA         [19] 3533 	ld	a, -6 (ix)
    000017B5 DD 77 F7         [19] 3534 	ld	-9 (ix), a
    000017B8 DD 36 F8 00      [19] 3535 	ld	-8 (ix), #0x00
    000017BC DD 7E F5         [19] 3536 	ld	a, -11 (ix)
    000017BF DD 96 F7         [19] 3537 	sub	a, -9 (ix)
    000017C2 DD 77 F9         [19] 3538 	ld	-7 (ix), a
    000017C5 DD 7E F6         [19] 3539 	ld	a, -10 (ix)
    000017C8 DD 9E F8         [19] 3540 	sbc	a, -8 (ix)
    000017CB DD 77 FA         [19] 3541 	ld	-6 (ix), a
    000017CE DD 7E F9         [19] 3542 	ld	a, -7 (ix)
    000017D1 D6 02            [ 7] 3543 	sub	a, #0x02
    000017D3 DD 7E FA         [19] 3544 	ld	a, -6 (ix)
    000017D6 17               [ 4] 3545 	rla
    000017D7 3F               [ 4] 3546 	ccf
    000017D8 1F               [ 4] 3547 	rra
    000017D9 DE 80            [ 7] 3548 	sbc	a, #0x80
    000017DB 38 05            [12] 3549 	jr	C, 00431$
    000017DD 3E FE            [ 7] 3550 	ld	a, #0xfe
    000017DF C3rE4r17         [10] 3551 	jp	00432$
    000017E2                       3552 00431$:
    000017E2 3E FF            [ 7] 3553 	ld	a, #0xff
    000017E4                       3554 00432$:
    000017E4 DD 6E EF         [19] 3555 	ld	l, -17 (ix)
    000017E7 DD 66 F0         [19] 3556 	ld	h, -16 (ix)
    000017EA 77               [ 7] 3557 	ld	(hl), a
    000017EB C3rF6r17         [10] 3558 	jp	00307$
    000017EE                       3559 00303$:
                                   3560 ;E:\Dropbox\FAUSTO\SVILUPPI\MSX\CODE\C\MSXgl\projects\soccerlgMSX2/soccerlg_s12_b3.c:369: else p->dx = 0;
    000017EE DD 6E EF         [19] 3561 	ld	l, -17 (ix)
    000017F1 DD 66 F0         [19] 3562 	ld	h, -16 (ix)
    000017F4 36 00            [10] 3563 	ld	(hl), #0x00
    000017F6                       3564 00307$:
                                   3565 ;E:\Dropbox\FAUSTO\SVILUPPI\MSX\CODE\C\MSXgl\projects\soccerlgMSX2/soccerlg_s12_b3.c:371: if (p->ty > p->ly) p->dy = (i8)((p->ty - p->ly >= 2) ? 2 : 1); 
    000017F6 DD 6E ED         [19] 3566 	ld	l, -19 (ix)
    000017F9 DD 66 EE         [19] 3567 	ld	h, -18 (ix)
    000017FC 7E               [ 7] 3568 	ld	a, (hl)
    000017FD DD 77 F9         [19] 3569 	ld	-7 (ix), a
    00001800 23               [ 6] 3570 	inc	hl
    00001801 7E               [ 7] 3571 	ld	a, (hl)
    00001802 DD 77 FA         [19] 3572 	ld	-6 (ix), a
    00001805 DD 6E EB         [19] 3573 	ld	l, -21 (ix)
    00001808 DD 66 EC         [19] 3574 	ld	h, -20 (ix)
    0000180B 7E               [ 7] 3575 	ld	a, (hl)
    0000180C DD 77 F5         [19] 3576 	ld	-11 (ix), a
    0000180F 23               [ 6] 3577 	inc	hl
    00001810 7E               [ 7] 3578 	ld	a, (hl)
    00001811 DD 77 F6         [19] 3579 	ld	-10 (ix), a
    00001814 DD 7E F5         [19] 3580 	ld	a, -11 (ix)
    00001817 DD 96 F9         [19] 3581 	sub	a, -7 (ix)
    0000181A DD 7E F6         [19] 3582 	ld	a, -10 (ix)
    0000181D DD 9E FA         [19] 3583 	sbc	a, -6 (ix)
    00001820 30 3D            [12] 3584 	jr	NC, 00312$
    00001822 DD 7E F9         [19] 3585 	ld	a, -7 (ix)
    00001825 DD 96 F5         [19] 3586 	sub	a, -11 (ix)
    00001828 DD 77 F7         [19] 3587 	ld	-9 (ix), a
    0000182B DD 7E FA         [19] 3588 	ld	a, -6 (ix)
    0000182E DD 9E F6         [19] 3589 	sbc	a, -10 (ix)
    00001831 DD 77 F8         [19] 3590 	ld	-8 (ix), a
    00001834 DD 7E F7         [19] 3591 	ld	a, -9 (ix)
    00001837 DD 77 F9         [19] 3592 	ld	-7 (ix), a
    0000183A DD 7E F8         [19] 3593 	ld	a, -8 (ix)
    0000183D DD 77 FA         [19] 3594 	ld	-6 (ix), a
    00001840 DD 7E F9         [19] 3595 	ld	a, -7 (ix)
    00001843 D6 02            [ 7] 3596 	sub	a, #0x02
    00001845 DD 7E FA         [19] 3597 	ld	a, -6 (ix)
    00001848 DE 00            [ 7] 3598 	sbc	a, #0x00
    0000184A 38 06            [12] 3599 	jr	C, 00433$
    0000184C 01 02 00         [10] 3600 	ld	bc, #0x0002
    0000184F C3r55r18         [10] 3601 	jp	00434$
    00001852                       3602 00433$:
    00001852 01 01 00         [10] 3603 	ld	bc, #0x0001
    00001855                       3604 00434$:
    00001855 DD 6E F1         [19] 3605 	ld	l, -15 (ix)
    00001858 DD 66 F2         [19] 3606 	ld	h, -14 (ix)
    0000185B 71               [ 7] 3607 	ld	(hl), c
    0000185C C3r9Cr18         [10] 3608 	jp	00313$
    0000185F                       3609 00312$:
                                   3610 ;E:\Dropbox\FAUSTO\SVILUPPI\MSX\CODE\C\MSXgl\projects\soccerlgMSX2/soccerlg_s12_b3.c:372: else if (p->ty < p->ly) p->dy = (i8)((p->ly - p->ty >= 2) ? -2 : -1); 
    0000185F DD 7E F9         [19] 3611 	ld	a, -7 (ix)
    00001862 DD 96 F5         [19] 3612 	sub	a, -11 (ix)
    00001865 DD 7E FA         [19] 3613 	ld	a, -6 (ix)
    00001868 DD 9E F6         [19] 3614 	sbc	a, -10 (ix)
    0000186B 30 27            [12] 3615 	jr	NC, 00309$
    0000186D DD 7E F5         [19] 3616 	ld	a, -11 (ix)
    00001870 DD 96 F9         [19] 3617 	sub	a, -7 (ix)
    00001873 4F               [ 4] 3618 	ld	c, a
    00001874 DD 7E F6         [19] 3619 	ld	a, -10 (ix)
    00001877 DD 9E FA         [19] 3620 	sbc	a, -6 (ix)
    0000187A 47               [ 4] 3621 	ld	b, a
    0000187B 79               [ 4] 3622 	ld	a, c
    0000187C D6 02            [ 7] 3623 	sub	a, #0x02
    0000187E 78               [ 4] 3624 	ld	a, b
    0000187F DE 00            [ 7] 3625 	sbc	a, #0x00
    00001881 38 05            [12] 3626 	jr	C, 00435$
    00001883 3E FE            [ 7] 3627 	ld	a, #0xfe
    00001885 C3r8Ar18         [10] 3628 	jp	00436$
    00001888                       3629 00435$:
    00001888 3E FF            [ 7] 3630 	ld	a, #0xff
    0000188A                       3631 00436$:
    0000188A DD 6E F1         [19] 3632 	ld	l, -15 (ix)
    0000188D DD 66 F2         [19] 3633 	ld	h, -14 (ix)
    00001890 77               [ 7] 3634 	ld	(hl), a
    00001891 C3r9Cr18         [10] 3635 	jp	00313$
    00001894                       3636 00309$:
                                   3637 ;E:\Dropbox\FAUSTO\SVILUPPI\MSX\CODE\C\MSXgl\projects\soccerlgMSX2/soccerlg_s12_b3.c:373: else p->dy = 0;
    00001894 DD 6E F1         [19] 3638 	ld	l, -15 (ix)
    00001897 DD 66 F2         [19] 3639 	ld	h, -14 (ix)
    0000189A 36 00            [10] 3640 	ld	(hl), #0x00
    0000189C                       3641 00313$:
                                   3642 ;E:\Dropbox\FAUSTO\SVILUPPI\MSX\CODE\C\MSXgl\projects\soccerlgMSX2/soccerlg_s12_b3.c:375: p->lx += p->dx; p->ly += p->dy; p->anim++;
    0000189C E1               [10] 3643 	pop	hl
    0000189D E5               [11] 3644 	push	hl
    0000189E 4E               [ 7] 3645 	ld	c, (hl)
    0000189F DD 6E EF         [19] 3646 	ld	l, -17 (ix)
    000018A2 DD 66 F0         [19] 3647 	ld	h, -16 (ix)
    000018A5 7E               [ 7] 3648 	ld	a, (hl)
    000018A6 81               [ 4] 3649 	add	a, c
    000018A7 E1               [10] 3650 	pop	hl
    000018A8 E5               [11] 3651 	push	hl
    000018A9 77               [ 7] 3652 	ld	(hl), a
    000018AA DD 6E EB         [19] 3653 	ld	l, -21 (ix)
    000018AD DD 66 EC         [19] 3654 	ld	h, -20 (ix)
    000018B0 4E               [ 7] 3655 	ld	c, (hl)
    000018B1 23               [ 6] 3656 	inc	hl
    000018B2 46               [ 7] 3657 	ld	b, (hl)
    000018B3 DD 6E F1         [19] 3658 	ld	l, -15 (ix)
    000018B6 DD 66 F2         [19] 3659 	ld	h, -14 (ix)
    000018B9 7E               [ 7] 3660 	ld	a, (hl)
    000018BA 6F               [ 4] 3661 	ld	l, a
                                   3662 ;	spillPairReg hl
                                   3663 ;	spillPairReg hl
    000018BB 07               [ 4] 3664 	rlca
    000018BC 9F               [ 4] 3665 	sbc	a, a
    000018BD 67               [ 4] 3666 	ld	h, a
                                   3667 ;	spillPairReg hl
                                   3668 ;	spillPairReg hl
    000018BE 09               [11] 3669 	add	hl, bc
    000018BF EB               [ 4] 3670 	ex	de, hl
    000018C0 DD 6E EB         [19] 3671 	ld	l, -21 (ix)
    000018C3 DD 66 EC         [19] 3672 	ld	h, -20 (ix)
    000018C6 73               [ 7] 3673 	ld	(hl), e
    000018C7 23               [ 6] 3674 	inc	hl
    000018C8 72               [ 7] 3675 	ld	(hl), d
    000018C9 E1               [10] 3676 	pop	hl
    000018CA E5               [11] 3677 	push	hl
    000018CB 11 13 00         [10] 3678 	ld	de, #0x0013
    000018CE 19               [11] 3679 	add	hl, de
    000018CF 5E               [ 7] 3680 	ld	e, (hl)
    000018D0 23               [ 6] 3681 	inc	hl
    000018D1 56               [ 7] 3682 	ld	d, (hl)
    000018D2 2B               [ 6] 3683 	dec	hl
    000018D3 13               [ 6] 3684 	inc	de
    000018D4 73               [ 7] 3685 	ld	(hl), e
    000018D5 23               [ 6] 3686 	inc	hl
    000018D6 72               [ 7] 3687 	ld	(hl), d
                                   3688 ;E:\Dropbox\FAUSTO\SVILUPPI\MSX\CODE\C\MSXgl\projects\soccerlgMSX2/soccerlg_s12_b3.c:376: const u8 walk_seq[4] = {0, 1, 2, 1};
    000018D7 DD 36 E6 00      [19] 3689 	ld	-26 (ix), #0x00
    000018DB DD 36 E7 01      [19] 3690 	ld	-25 (ix), #0x01
    000018DF DD 36 E8 02      [19] 3691 	ld	-24 (ix), #0x02
    000018E3 DD 36 E9 01      [19] 3692 	ld	-23 (ix), #0x01
                                   3693 ;E:\Dropbox\FAUSTO\SVILUPPI\MSX\CODE\C\MSXgl\projects\soccerlgMSX2/soccerlg_s12_b3.c:377: p->frame = CallFnc_U16_P4(SEG_GAMESTATE_2, GetPlayerAnimFrame, i, p->dx, p->dy, walk_seq[(p->anim / 3) % 4]); 
    000018E7 EB               [ 4] 3694 	ex	de, hl
    000018E8 11 03 00         [10] 3695 	ld	de, #0x0003
    000018EB CDr00r00         [17] 3696 	call	__divuint
    000018EE 7B               [ 4] 3697 	ld	a, e
    000018EF E6 03            [ 7] 3698 	and	a, #0x03
    000018F1 4F               [ 4] 3699 	ld	c, a
    000018F2 06 00            [ 7] 3700 	ld	b, #0x00
    000018F4 21 06 00         [10] 3701 	ld	hl, #6
    000018F7 39               [11] 3702 	add	hl, sp
    000018F8 09               [11] 3703 	add	hl, bc
    000018F9 56               [ 7] 3704 	ld	d, (hl)
    000018FA DD 6E F1         [19] 3705 	ld	l, -15 (ix)
    000018FD DD 66 F2         [19] 3706 	ld	h, -14 (ix)
    00001900 46               [ 7] 3707 	ld	b, (hl)
    00001901 DD 6E EF         [19] 3708 	ld	l, -17 (ix)
    00001904 DD 66 F0         [19] 3709 	ld	h, -16 (ix)
    00001907 7E               [ 7] 3710 	ld	a, (hl)
    00001908 58               [ 4] 3711 	ld	e, b
    00001909 D5               [11] 3712 	push	de
    0000190A F5               [11] 3713 	push	af
    0000190B 33               [ 6] 3714 	inc	sp
    0000190C DD 7E FF         [19] 3715 	ld	a, -1 (ix)
    0000190F F5               [11] 3716 	push	af
    00001910 33               [ 6] 3717 	inc	sp
    00001911 11r00r00         [10] 3718 	ld	de, #_GetPlayerAnimFrame
    00001914 3E 0B            [ 7] 3719 	ld	a, #0x0b
    00001916 CDr00r00         [17] 3720 	call	_CallFnc_U16_P4
    00001919 DD 6E F3         [19] 3721 	ld	l, -13 (ix)
    0000191C DD 66 F4         [19] 3722 	ld	h, -12 (ix)
    0000191F 73               [ 7] 3723 	ld	(hl), e
    00001920 23               [ 6] 3724 	inc	hl
    00001921 72               [ 7] 3725 	ld	(hl), d
    00001922 C3rDFr19         [10] 3726 	jp	00324$
    00001925                       3727 00321$:
                                   3728 ;E:\Dropbox\FAUSTO\SVILUPPI\MSX\CODE\C\MSXgl\projects\soccerlgMSX2/soccerlg_s12_b3.c:379: p->dx = 0; p->dy = 0;
    00001925 DD 6E EF         [19] 3729 	ld	l, -17 (ix)
    00001928 DD 66 F0         [19] 3730 	ld	h, -16 (ix)
    0000192B 36 00            [10] 3731 	ld	(hl), #0x00
    0000192D DD 6E F1         [19] 3732 	ld	l, -15 (ix)
    00001930 DD 66 F2         [19] 3733 	ld	h, -14 (ix)
    00001933 36 00            [10] 3734 	ld	(hl), #0x00
                                   3735 ;E:\Dropbox\FAUSTO\SVILUPPI\MSX\CODE\C\MSXgl\projects\soccerlgMSX2/soccerlg_s12_b3.c:381: if (i == 26) { // L'arbitro fissa sempre la palla
    00001935 DD 7E FF         [19] 3736 	ld	a, -1 (ix)
    00001938 D6 1A            [ 7] 3737 	sub	a, #0x1a
    0000193A 20 5C            [12] 3738 	jr	NZ, 00315$
                                   3739 ;E:\Dropbox\FAUSTO\SVILUPPI\MSX\CODE\C\MSXgl\projects\soccerlgMSX2/soccerlg_s12_b3.c:382: look_dx = (SwSprite[14].lx > p->lx) ? 1 : ((SwSprite[14].lx < p->lx) ? -1 : 0);
    0000193C 21r42r01         [10] 3740 	ld	hl, #_SwSprite + 322
    0000193F 4E               [ 7] 3741 	ld	c, (hl)
    00001940 E1               [10] 3742 	pop	hl
    00001941 E5               [11] 3743 	push	hl
    00001942 46               [ 7] 3744 	ld	b, (hl)
    00001943 78               [ 4] 3745 	ld	a, b
    00001944 91               [ 4] 3746 	sub	a, c
    00001945 30 06            [12] 3747 	jr	NC, 00437$
    00001947 01 01 00         [10] 3748 	ld	bc, #0x0001
    0000194A C3r5Ar19         [10] 3749 	jp	00438$
    0000194D                       3750 00437$:
    0000194D 79               [ 4] 3751 	ld	a, c
    0000194E 90               [ 4] 3752 	sub	a, b
    0000194F 30 06            [12] 3753 	jr	NC, 00439$
    00001951 01 FF FF         [10] 3754 	ld	bc, #0xffff
    00001954 C3r5Ar19         [10] 3755 	jp	00440$
    00001957                       3756 00439$:
    00001957 01 00 00         [10] 3757 	ld	bc, #0x0000
    0000195A                       3758 00440$:
    0000195A                       3759 00438$:
    0000195A DD 71 F8         [19] 3760 	ld	-8 (ix), c
                                   3761 ;E:\Dropbox\FAUSTO\SVILUPPI\MSX\CODE\C\MSXgl\projects\soccerlgMSX2/soccerlg_s12_b3.c:383: look_dy = (SwSprite[14].ly > p->ly) ? 1 : ((SwSprite[14].ly < p->ly) ? -1 : 0);
    0000195D 21r46r01         [10] 3762 	ld	hl, #_SwSprite + 326
    00001960 7E               [ 7] 3763 	ld	a, (hl)
    00001961 DD 77 F9         [19] 3764 	ld	-7 (ix), a
    00001964 23               [ 6] 3765 	inc	hl
    00001965 7E               [ 7] 3766 	ld	a, (hl)
    00001966 DD 77 FA         [19] 3767 	ld	-6 (ix), a
    00001969 DD 6E EB         [19] 3768 	ld	l, -21 (ix)
    0000196C DD 66 EC         [19] 3769 	ld	h, -20 (ix)
    0000196F 4E               [ 7] 3770 	ld	c, (hl)
    00001970 23               [ 6] 3771 	inc	hl
    00001971 46               [ 7] 3772 	ld	b, (hl)
    00001972 79               [ 4] 3773 	ld	a, c
    00001973 DD 96 F9         [19] 3774 	sub	a, -7 (ix)
    00001976 78               [ 4] 3775 	ld	a, b
    00001977 DD 9E FA         [19] 3776 	sbc	a, -6 (ix)
    0000197A 30 06            [12] 3777 	jr	NC, 00441$
    0000197C 01 01 00         [10] 3778 	ld	bc, #0x0001
    0000197F C3rB9r19         [10] 3779 	jp	00316$
    00001982                       3780 00441$:
    00001982 DD 7E F9         [19] 3781 	ld	a, -7 (ix)
    00001985 91               [ 4] 3782 	sub	a, c
    00001986 DD 7E FA         [19] 3783 	ld	a, -6 (ix)
    00001989 98               [ 4] 3784 	sbc	a, b
    0000198A 30 06            [12] 3785 	jr	NC, 00443$
    0000198C 01 FF FF         [10] 3786 	ld	bc, #0xffff
    0000198F C3rB9r19         [10] 3787 	jp	00316$
    00001992                       3788 00443$:
    00001992 01 00 00         [10] 3789 	ld	bc, #0x0000
    00001995 C3rB9r19         [10] 3790 	jp	00316$
    00001998                       3791 00315$:
                                   3792 ;E:\Dropbox\FAUSTO\SVILUPPI\MSX\CODE\C\MSXgl\projects\soccerlgMSX2/soccerlg_s12_b3.c:385: look_dx = (i8)((i % 3) - 1);
    00001998 DD 6E FF         [19] 3793 	ld	l, -1 (ix)
                                   3794 ;	spillPairReg hl
                                   3795 ;	spillPairReg hl
    0000199B 26 00            [ 7] 3796 	ld	h, #0x00
                                   3797 ;	spillPairReg hl
                                   3798 ;	spillPairReg hl
    0000199D E5               [11] 3799 	push	hl
    0000199E 11 03 00         [10] 3800 	ld	de, #0x0003
    000019A1 CDr00r00         [17] 3801 	call	__modsint
    000019A4 E1               [10] 3802 	pop	hl
    000019A5 7B               [ 4] 3803 	ld	a, e
    000019A6 3D               [ 4] 3804 	dec	a
    000019A7 DD 77 F8         [19] 3805 	ld	-8 (ix), a
                                   3806 ;E:\Dropbox\FAUSTO\SVILUPPI\MSX\CODE\C\MSXgl\projects\soccerlgMSX2/soccerlg_s12_b3.c:386: look_dy = (i8)(((i / 3) % 3) - 1);
    000019AA 11 03 00         [10] 3807 	ld	de, #0x0003
    000019AD CDr00r00         [17] 3808 	call	__divsint
    000019B0 EB               [ 4] 3809 	ex	de, hl
    000019B1 11 03 00         [10] 3810 	ld	de, #0x0003
    000019B4 CDr00r00         [17] 3811 	call	__modsint
    000019B7 4B               [ 4] 3812 	ld	c, e
    000019B8 0D               [ 4] 3813 	dec	c
    000019B9                       3814 00316$:
                                   3815 ;E:\Dropbox\FAUSTO\SVILUPPI\MSX\CODE\C\MSXgl\projects\soccerlgMSX2/soccerlg_s12_b3.c:388: if (look_dx == 0 && look_dy == 0) look_dy = 1;
    000019B9 DD 7E F8         [19] 3816 	ld	a, -8 (ix)
    000019BC B7               [ 4] 3817 	or	a,a
    000019BD 20 05            [12] 3818 	jr	NZ, 00318$
    000019BF B1               [ 4] 3819 	or	a,c
    000019C0 20 02            [12] 3820 	jr	NZ, 00318$
    000019C2 0E 01            [ 7] 3821 	ld	c, #0x01
    000019C4                       3822 00318$:
                                   3823 ;E:\Dropbox\FAUSTO\SVILUPPI\MSX\CODE\C\MSXgl\projects\soccerlgMSX2/soccerlg_s12_b3.c:389: p->frame = CallFnc_U16_P3(SEG_GAMESTATE_2, GetPlayerIdleFrame, i, look_dx, look_dy);
    000019C4 61               [ 4] 3824 	ld	h, c
    000019C5 DD 6E F8         [19] 3825 	ld	l, -8 (ix)
    000019C8 E5               [11] 3826 	push	hl
    000019C9 DD 7E FF         [19] 3827 	ld	a, -1 (ix)
    000019CC F5               [11] 3828 	push	af
    000019CD 33               [ 6] 3829 	inc	sp
    000019CE 11r00r00         [10] 3830 	ld	de, #_GetPlayerIdleFrame
    000019D1 3E 0B            [ 7] 3831 	ld	a, #0x0b
    000019D3 CDr00r00         [17] 3832 	call	_CallFnc_U16_P3
    000019D6 DD 6E F3         [19] 3833 	ld	l, -13 (ix)
    000019D9 DD 66 F4         [19] 3834 	ld	h, -12 (ix)
    000019DC 73               [ 7] 3835 	ld	(hl), e
    000019DD 23               [ 6] 3836 	inc	hl
    000019DE 72               [ 7] 3837 	ld	(hl), d
    000019DF                       3838 00324$:
                                   3839 ;E:\Dropbox\FAUSTO\SVILUPPI\MSX\CODE\C\MSXgl\projects\soccerlgMSX2/soccerlg_s12_b3.c:361: for (u8 i = 0; i <= 26; i++) {
    000019DF DD 34 FF         [23] 3840 	inc	-1 (ix)
    000019E2 C3r94r16         [10] 3841 	jp	00390$
    000019E5                       3842 00325$:
                                   3843 ;E:\Dropbox\FAUSTO\SVILUPPI\MSX\CODE\C\MSXgl\projects\soccerlgMSX2/soccerlg_s12_b3.c:392: if (all_in_position) *game_state = 12; // Va in Loop infinito dei Rigori
    000019E5 DD 7E EA         [19] 3844 	ld	a, -22 (ix)
    000019E8 B7               [ 4] 3845 	or	a, a
    000019E9 28 72            [12] 3846 	jr	Z, 00391$
    000019EB DD 6E FD         [19] 3847 	ld	l, -3 (ix)
    000019EE DD 66 FE         [19] 3848 	ld	h, -2 (ix)
    000019F1 36 0C            [10] 3849 	ld	(hl), #0x0c
                                   3850 ;E:\Dropbox\FAUSTO\SVILUPPI\MSX\CODE\C\MSXgl\projects\soccerlgMSX2/soccerlg_s12_b3.c:393: return;
    000019F3 C3r5Dr1A         [10] 3851 	jp	00391$
    000019F6                       3852 00336$:
                                   3853 ;E:\Dropbox\FAUSTO\SVILUPPI\MSX\CODE\C\MSXgl\projects\soccerlgMSX2/soccerlg_s12_b3.c:394: } else if (*game_state >= 12 && *game_state <= 17) {
    000019F6 DD 7E FF         [19] 3854 	ld	a, -1 (ix)
    000019F9 D6 0C            [ 7] 3855 	sub	a, #0x0c
    000019FB 38 2E            [12] 3856 	jr	C, 00332$
    000019FD 3E 11            [ 7] 3857 	ld	a, #0x11
    000019FF DD 96 FF         [19] 3858 	sub	a, -1 (ix)
    00001A02 38 27            [12] 3859 	jr	C, 00332$
                                   3860 ;E:\Dropbox\FAUSTO\SVILUPPI\MSX\CODE\C\MSXgl\projects\soccerlgMSX2/soccerlg_s12_b3.c:395: CallFnc_VOID_3PTR_U16(SEG_GAMESTATE_6, UpdateGameState_Penalties, game_state, wait_secs, start_sec, target_ly);
    00001A04 DD 6E 06         [19] 3861 	ld	l, 6 (ix)
                                   3862 ;	spillPairReg hl
                                   3863 ;	spillPairReg hl
    00001A07 DD 66 07         [19] 3864 	ld	h, 7 (ix)
                                   3865 ;	spillPairReg hl
                                   3866 ;	spillPairReg hl
    00001A0A E5               [11] 3867 	push	hl
    00001A0B DD 6E 04         [19] 3868 	ld	l, 4 (ix)
                                   3869 ;	spillPairReg hl
                                   3870 ;	spillPairReg hl
    00001A0E DD 66 05         [19] 3871 	ld	h, 5 (ix)
                                   3872 ;	spillPairReg hl
                                   3873 ;	spillPairReg hl
    00001A11 E5               [11] 3874 	push	hl
    00001A12 DD 6E FB         [19] 3875 	ld	l, -5 (ix)
                                   3876 ;	spillPairReg hl
                                   3877 ;	spillPairReg hl
    00001A15 DD 66 FC         [19] 3878 	ld	h, -4 (ix)
                                   3879 ;	spillPairReg hl
                                   3880 ;	spillPairReg hl
    00001A18 E5               [11] 3881 	push	hl
    00001A19 DD 6E FD         [19] 3882 	ld	l, -3 (ix)
                                   3883 ;	spillPairReg hl
                                   3884 ;	spillPairReg hl
    00001A1C DD 66 FE         [19] 3885 	ld	h, -2 (ix)
                                   3886 ;	spillPairReg hl
                                   3887 ;	spillPairReg hl
    00001A1F E5               [11] 3888 	push	hl
    00001A20 11r00r00         [10] 3889 	ld	de, #_UpdateGameState_Penalties
    00001A23 3E 10            [ 7] 3890 	ld	a, #0x10
    00001A25 CDr00r00         [17] 3891 	call	_CallFnc_VOID_3PTR_U16
                                   3892 ;E:\Dropbox\FAUSTO\SVILUPPI\MSX\CODE\C\MSXgl\projects\soccerlgMSX2/soccerlg_s12_b3.c:396: return;
    00001A28 C3r5Dr1A         [10] 3893 	jp	00391$
    00001A2B                       3894 00332$:
                                   3895 ;E:\Dropbox\FAUSTO\SVILUPPI\MSX\CODE\C\MSXgl\projects\soccerlgMSX2/soccerlg_s12_b3.c:397: } else if (*game_state == 7 || *game_state == 8) {
    00001A2B DD 7E FF         [19] 3896 	ld	a, -1 (ix)
    00001A2E D6 07            [ 7] 3897 	sub	a, #0x07
    00001A30 28 07            [12] 3898 	jr	Z, 00328$
    00001A32 DD 7E FF         [19] 3899 	ld	a, -1 (ix)
    00001A35 D6 08            [ 7] 3900 	sub	a, #0x08
    00001A37 20 24            [12] 3901 	jr	NZ, 00391$
    00001A39                       3902 00328$:
                                   3903 ;E:\Dropbox\FAUSTO\SVILUPPI\MSX\CODE\C\MSXgl\projects\soccerlgMSX2/soccerlg_s12_b3.c:398: CallFnc_VOID_3PTR_U16(SEG_GAMESTATE_5, UpdateGameState_SetPieces, game_state, wait_secs, start_sec, target_ly);
    00001A39 DD 6E 06         [19] 3904 	ld	l, 6 (ix)
                                   3905 ;	spillPairReg hl
                                   3906 ;	spillPairReg hl
    00001A3C DD 66 07         [19] 3907 	ld	h, 7 (ix)
                                   3908 ;	spillPairReg hl
                                   3909 ;	spillPairReg hl
    00001A3F E5               [11] 3910 	push	hl
    00001A40 DD 6E 04         [19] 3911 	ld	l, 4 (ix)
                                   3912 ;	spillPairReg hl
                                   3913 ;	spillPairReg hl
    00001A43 DD 66 05         [19] 3914 	ld	h, 5 (ix)
                                   3915 ;	spillPairReg hl
                                   3916 ;	spillPairReg hl
    00001A46 E5               [11] 3917 	push	hl
    00001A47 DD 6E FB         [19] 3918 	ld	l, -5 (ix)
                                   3919 ;	spillPairReg hl
                                   3920 ;	spillPairReg hl
    00001A4A DD 66 FC         [19] 3921 	ld	h, -4 (ix)
                                   3922 ;	spillPairReg hl
                                   3923 ;	spillPairReg hl
    00001A4D E5               [11] 3924 	push	hl
    00001A4E DD 6E FD         [19] 3925 	ld	l, -3 (ix)
                                   3926 ;	spillPairReg hl
                                   3927 ;	spillPairReg hl
    00001A51 DD 66 FE         [19] 3928 	ld	h, -2 (ix)
                                   3929 ;	spillPairReg hl
                                   3930 ;	spillPairReg hl
    00001A54 E5               [11] 3931 	push	hl
    00001A55 11r00r00         [10] 3932 	ld	de, #_UpdateGameState_SetPieces
    00001A58 3E 0F            [ 7] 3933 	ld	a, #0x0f
    00001A5A CDr00r00         [17] 3934 	call	_CallFnc_VOID_3PTR_U16
                                   3935 ;E:\Dropbox\FAUSTO\SVILUPPI\MSX\CODE\C\MSXgl\projects\soccerlgMSX2/soccerlg_s12_b3.c:399: return;
    00001A5D                       3936 00391$:
                                   3937 ;E:\Dropbox\FAUSTO\SVILUPPI\MSX\CODE\C\MSXgl\projects\soccerlgMSX2/soccerlg_s12_b3.c:401: }
    00001A5D DD F9            [10] 3938 	ld	sp, ix
    00001A5F DD E1            [14] 3939 	pop	ix
    00001A61 E1               [10] 3940 	pop	hl
    00001A62 F1               [10] 3941 	pop	af
    00001A63 F1               [10] 3942 	pop	af
    00001A64 E9               [ 4] 3943 	jp	(hl)
                         0000F380  3944 _g_RDPRIM	=	0xf380
                         0000F385  3945 _g_WRPRIM	=	0xf385
                         0000F38C  3946 _g_CLPRIM	=	0xf38c
                         0000F39A  3947 _g_USRTAB	=	0xf39a
                         0000F3DE  3948 _g_CNSDFG	=	0xf3de
                         0000F3DF  3949 _g_RG0SAV	=	0xf3df
                         0000F3E0  3950 _g_RG1SAV	=	0xf3e0
                         0000F3E1  3951 _g_RG2SAV	=	0xf3e1
                         0000F3E2  3952 _g_RG3SAV	=	0xf3e2
                         0000F3E3  3953 _g_RG4SAV	=	0xf3e3
                         0000F3E4  3954 _g_RG5SAV	=	0xf3e4
                         0000F3E5  3955 _g_RG6SAV	=	0xf3e5
                         0000F3E6  3956 _g_RG7SAV	=	0xf3e6
                         0000F3E7  3957 _g_STATFL	=	0xf3e7
                         0000F3E8  3958 _g_TRGFLG	=	0xf3e8
                         0000F3EC  3959 _g_MAXUPD	=	0xf3ec
                         0000F3EF  3960 _g_MINUPD	=	0xf3ef
                         0000F3F3  3961 _g_QUEUES	=	0xf3f3
                         0000F3F5  3962 _g_FRCNEW	=	0xf3f5
                         0000F3F6  3963 _g_SCNCNT	=	0xf3f6
                         0000F3F7  3964 _g_REPCNT	=	0xf3f7
                         0000F3F8  3965 _g_PUTPNT	=	0xf3f8
                         0000F3FA  3966 _g_GETPNT	=	0xf3fa
                         0000F3FC  3967 _g_CS120	=	0xf3fc
                         0000F401  3968 _g_CS240	=	0xf401
                         0000F406  3969 _g_LOW	=	0xf406
                         0000F408  3970 _g_HIGH	=	0xf408
                         0000F40A  3971 _g_HEADER	=	0xf40a
                         0000F40B  3972 _g_ASPCT1	=	0xf40b
                         0000F40D  3973 _g_ASPCT2	=	0xf40d
                         0000F959  3974 _g_QUETAB	=	0xf959
                         0000F971  3975 _g_QUEBAK	=	0xf971
                         0000F975  3976 _g_VOICAQ	=	0xf975
                         0000F9F5  3977 _g_VOICBQ	=	0xf9f5
                         0000FA75  3978 _g_VOICCQ	=	0xfa75
                         0000FAF5  3979 _g_RS2IQ	=	0xfaf5
                         0000FAF5  3980 _g_DPPAGE	=	0xfaf5
                         0000FAF6  3981 _g_ACPAGE	=	0xfaf6
                         0000FAF7  3982 _g_AVCSAV	=	0xfaf7
                         0000FAF8  3983 _g_EXBRSA	=	0xfaf8
                         0000FAF9  3984 _g_CHRCNT	=	0xfaf9
                         0000FAFA  3985 _g_ROMA	=	0xfafa
                         0000FAFC  3986 _g_MODE	=	0xfafc
                         0000FAFD  3987 _g_NORUSE	=	0xfafd
                         0000FAFE  3988 _g_XSAVE	=	0xfafe
                         0000FB00  3989 _g_YSAVE	=	0xfb00
                         0000FB03  3990 _g_RSTMP	=	0xfb03
                         0000FB03  3991 _g_TOCNT	=	0xfb03
                         0000FB04  3992 _g_RSFCB	=	0xfb04
                         0000FB06  3993 _g_RSIQLN	=	0xfb06
                         0000FB07  3994 _g_MEXBIh	=	0xfb07
                         0000FB0C  3995 _g_OLDSTT	=	0xfb0c
                         0000FB0C  3996 _g_OLDINT	=	0xfb0c
                         0000FB16  3997 _g_DEVNUM	=	0xfb16
                         0000FB17  3998 _g_DATCNT	=	0xfb17
                         0000FB1A  3999 _g_ERRORS	=	0xfb1a
                         0000FB1B  4000 _g_FLAGS	=	0xfb1b
                         0000FB1C  4001 _g_ESTBLS	=	0xfb1c
                         0000FB1D  4002 _g_COMMSK	=	0xfb1d
                         0000FB1E  4003 _g_LSTCOM	=	0xfb1e
                         0000FB1F  4004 _g_LSTMOD	=	0xfb1f
                         0000FB35  4005 _g_PRSCNT	=	0xfb35
                         0000FB36  4006 _g_SAVSP	=	0xfb36
                         0000FB38  4007 _g_VOICEN	=	0xfb38
                         0000FB39  4008 _g_SAVVOL	=	0xfb39
                         0000FB3B  4009 _g_MCLLEN	=	0xfb3b
                         0000FB3C  4010 _g_MCLPTR	=	0xfb3c
                         0000FB3E  4011 _g_QUEUEN	=	0xfb3e
                         0000FB3F  4012 _g_MUSICF	=	0xfb3f
                         0000FB40  4013 _g_PLYCNT	=	0xfb40
                         0000FB41  4014 _g_VCBA	=	0xfb41
                         0000FB66  4015 _g_VCBB	=	0xfb66
                         0000FB8B  4016 _g_VCBC	=	0xfb8b
                         0000FBB0  4017 _g_ENSTOP	=	0xfbb0
                         0000FBB1  4018 _g_BASROM	=	0xfbb1
                         0000FBB2  4019 _g_LINTTB	=	0xfbb2
                         0000FBCA  4020 _g_FSTPOS	=	0xfbca
                         0000FBCC  4021 _g_CODSAV	=	0xfbcc
                         0000FBCD  4022 _g_FNKSWI	=	0xfbcd
                         0000FBCE  4023 _g_FNKFLG	=	0xfbce
                         0000FBD8  4024 _g_ONGSBF	=	0xfbd8
                         0000FBD9  4025 _g_CLIKFL	=	0xfbd9
                         0000FBDA  4026 _g_OLDKEY	=	0xfbda
                         0000FBE5  4027 _g_NEWKEY	=	0xfbe5
                         0000FBF0  4028 _g_KEYBUF	=	0xfbf0
                         0000FC18  4029 _g_LINWRK	=	0xfc18
                         0000FC40  4030 _g_PATWRK	=	0xfc40
                         0000FC48  4031 _g_BOTTOM	=	0xfc48
                         0000FC4A  4032 _g_HIMEM	=	0xfc4a
                         0000FC4C  4033 _g_TRPTBL	=	0xfc4c
                         0000FC9A  4034 _g_RTYCNT	=	0xfc9a
                         0000FC9B  4035 _g_INTFLG	=	0xfc9b
                         0000FC9C  4036 _g_PADY	=	0xfc9c
                         0000FC9D  4037 _g_PADX	=	0xfc9d
                         0000FC9E  4038 _g_JIFFY	=	0xfc9e
                         0000FCA0  4039 _g_INTVAL	=	0xfca0
                         0000FCA2  4040 _g_INTCNT	=	0xfca2
                         0000FCA4  4041 _g_LOWLIM	=	0xfca4
                         0000FCA5  4042 _g_WINWID	=	0xfca5
                         0000FCA6  4043 _g_GRPHED	=	0xfca6
                         0000FCA7  4044 _g_ESCCNT	=	0xfca7
                         0000FCA8  4045 _g_INSFLG	=	0xfca8
                         0000FCA9  4046 _g_CSRSW	=	0xfca9
                         0000FCAA  4047 _g_CSTYLE	=	0xfcaa
                         0000FCAB  4048 _g_CAPST	=	0xfcab
                         0000FCAC  4049 _g_KANAST	=	0xfcac
                         0000FCAD  4050 _g_KANAMD	=	0xfcad
                         0000FCAE  4051 _g_FLBMEM	=	0xfcae
                         0000FCAF  4052 _g_SCRMOD	=	0xfcaf
                         0000FCB0  4053 _g_OLDSCR	=	0xfcb0
                         0000FCB1  4054 _g_CASPRV	=	0xfcb1
                         0000FCB2  4055 _g_BRDATR	=	0xfcb2
                         0000FCB3  4056 _g_GXPOS	=	0xfcb3
                         0000FCB5  4057 _g_GYPOS	=	0xfcb5
                         0000FCBB  4058 _g_DRWFLG	=	0xfcbb
                         0000FCBC  4059 _g_DRWSCL	=	0xfcbc
                         0000FCBD  4060 _g_DRWANG	=	0xfcbd
                         0000FCC1  4061 _g_MNROM	=	0xfcc1
                         0000FCC1  4062 _g_EXPTBL	=	0xfcc1
                         0000FCC5  4063 _g_SLTTBL	=	0xfcc5
                         0000FCC9  4064 _g_SLTATR	=	0xfcc9
                         0000FD09  4065 _g_SLTWRK	=	0xfd09
                         0000FD89  4066 _g_PROCNM	=	0xfd89
                         0000FFE7  4067 _g_RG08SAV	=	0xffe7
                         0000FFE8  4068 _g_RG09SAV	=	0xffe8
                         0000FFE9  4069 _g_RG10SAV	=	0xffe9
                         0000FFEA  4070 _g_RG11SAV	=	0xffea
                         0000FFEB  4071 _g_RG12SAV	=	0xffeb
                         0000FFEC  4072 _g_RG13SAV	=	0xffec
                         0000FFED  4073 _g_RG14SAV	=	0xffed
                         0000FFEE  4074 _g_RG15SAV	=	0xffee
                         0000FFEF  4075 _g_RG16SAV	=	0xffef
                         0000FFF0  4076 _g_RG17SAV	=	0xfff0
                         0000FFF1  4077 _g_RG18SAV	=	0xfff1
                         0000FFF2  4078 _g_RG19SAV	=	0xfff2
                         0000FFF3  4079 _g_RG20SAV	=	0xfff3
                         0000FFF4  4080 _g_RG21SAV	=	0xfff4
                         0000FFF5  4081 _g_RG22SAV	=	0xfff5
                         0000FFF6  4082 _g_RG23SAV	=	0xfff6
                         0000FFF7  4083 _g_MINROM	=	0xfff7
                         0000FFF8  4084 _g_SVFFF8	=	0xfff8
                         0000FFFA  4085 _g_RG25SAV	=	0xfffa
                         0000FFFB  4086 _g_RG26SAV	=	0xfffb
                         0000FFFC  4087 _g_RG27SAV	=	0xfffc
                         0000FFFD  4088 _g_SVFFFD	=	0xfffd
                         00000004  4089 _g_CGTABL	=	0x0004
                         00000006  4090 _g_VDP_DR	=	0x0006
                         00000007  4091 _g_VDP_DW	=	0x0007
                         0000002B  4092 _g_BASRVN	=	0x002b
                         0000002B  4093 _g_ROMVersion	=	0x002b
                         0000002D  4094 _g_MSXVER	=	0x002d
                         0000002E  4095 _g_MSXMID	=	0x002e
                         00000034  4096 _g_CHAR_16	=	0x0034
                         00000000  4097 _g_SUBRID	=	0x0000
                         00000002  4098 _g_STRSRC	=	0x0002
                         0000F30F  4099 _g_KANJTABLE	=	0xf30f
                         0000F323  4100 _g_DISKVE	=	0xf323
                         0000F325  4101 _g_BREAKV	=	0xf325
                         0000F341  4102 _g_RAMAD0	=	0xf341
                         0000F342  4103 _g_RAMAD1	=	0xf342
                         0000F343  4104 _g_RAMAD2	=	0xf343
                         0000F344  4105 _g_RAMAD3	=	0xf344
                         0000F348  4106 _g_MASTER	=	0xf348
                         0000F37D  4107 _g_BDOS	=	0xf37d
                                   4108 	.area _SEG12
                                   4109 	.area _INITIALIZER
                                   4110 	.area _CABS (ABS)
