;--------------------------------------------------------
; File Created by SDCC : free open source ANSI-C Compiler
; Version 4.2.0 #13081 (MINGW64)
;--------------------------------------------------------
	.module soccerlg_s9_b3
	.optsdcc -mz80
	
;--------------------------------------------------------
; Public variables in this module
;--------------------------------------------------------
	.globl _CheckFieldBoundaries
	.globl _UpdateFieldCamera
	.globl _UpdateGameState_Restarts
	.globl _GetPlayerIdleFrame
	.globl _GetPlayerAnimFrame
	.globl _AssignKickOffTargets
	.globl _EventOffside
	.globl _EventHalfTime
	.globl _EventBallKicked
	.globl _EventKickOffReady
	.globl _EventPlayerFirstPresentationStarted
	.globl _FindReceiver
	.globl _SetBallSprite
	.globl _PlayerAI
	.globl _HideSpriteMessage
	.globl _ShowSpriteMessage
	.globl _CallFnc_U16_P4B
	.globl _CallFnc_U16_P4
	.globl _CallFnc_U16_P3
	.globl _CallFnc_VOID_16_P1
	.globl _CallFnc_VOID_3PTR_U16
	.globl _CallFnc_VOID_3PTR
	.globl _CallFnc_VOID_P1
	.globl _CallFnc_VOID
	.globl _g_SLTSL
	.globl _g_GRPACY
	.globl _g_GRPACX
	.globl _g_LOGOPR
	.globl _g_CMASK
	.globl _g_CLOC
	.globl _g_FNKSTR
	.globl _g_ATRBYT
	.globl _g_BDRCLR
	.globl _g_BAKCLR
	.globl _g_FORCLR
	.globl _g_CSRX
	.globl _g_CSRY
	.globl _g_CLIKSW
	.globl _g_MLTPAT
	.globl _g_MLTATR
	.globl _g_MLTCGP
	.globl _g_MLTCOL
	.globl _g_MLTNAM
	.globl _g_GRPPAT
	.globl _g_GRPATR
	.globl _g_GRPCGP
	.globl _g_GRPCOL
	.globl _g_GRPNAM
	.globl _g_T32PAT
	.globl _g_T32ATR
	.globl _g_T32CGP
	.globl _g_T32COL
	.globl _g_T32NAM
	.globl _g_TXTPAT
	.globl _g_TXTATR
	.globl _g_TXTCGP
	.globl _g_TXTCOL
	.globl _g_TXTNAM
	.globl _g_CLMLST
	.globl _g_CRTCNT
	.globl _g_LINLEN
	.globl _g_LINL32
	.globl _g_LINL40
	.globl _g_BDOS
	.globl _g_MASTER
	.globl _g_RAMAD3
	.globl _g_RAMAD2
	.globl _g_RAMAD1
	.globl _g_RAMAD0
	.globl _g_BREAKV
	.globl _g_DISKVE
	.globl _g_KANJTABLE
	.globl _g_STRSRC
	.globl _g_SUBRID
	.globl _g_CHAR_16
	.globl _g_MSXMID
	.globl _g_MSXVER
	.globl _g_ROMVersion
	.globl _g_BASRVN
	.globl _g_VDP_DW
	.globl _g_VDP_DR
	.globl _g_CGTABL
	.globl _g_SVFFFD
	.globl _g_RG27SAV
	.globl _g_RG26SAV
	.globl _g_RG25SAV
	.globl _g_SVFFF8
	.globl _g_MINROM
	.globl _g_RG23SAV
	.globl _g_RG22SAV
	.globl _g_RG21SAV
	.globl _g_RG20SAV
	.globl _g_RG19SAV
	.globl _g_RG18SAV
	.globl _g_RG17SAV
	.globl _g_RG16SAV
	.globl _g_RG15SAV
	.globl _g_RG14SAV
	.globl _g_RG13SAV
	.globl _g_RG12SAV
	.globl _g_RG11SAV
	.globl _g_RG10SAV
	.globl _g_RG09SAV
	.globl _g_RG08SAV
	.globl _g_PROCNM
	.globl _g_SLTWRK
	.globl _g_SLTATR
	.globl _g_SLTTBL
	.globl _g_EXPTBL
	.globl _g_MNROM
	.globl _g_DRWANG
	.globl _g_DRWSCL
	.globl _g_DRWFLG
	.globl _g_GYPOS
	.globl _g_GXPOS
	.globl _g_BRDATR
	.globl _g_CASPRV
	.globl _g_OLDSCR
	.globl _g_SCRMOD
	.globl _g_FLBMEM
	.globl _g_KANAMD
	.globl _g_KANAST
	.globl _g_CAPST
	.globl _g_CSTYLE
	.globl _g_CSRSW
	.globl _g_INSFLG
	.globl _g_ESCCNT
	.globl _g_GRPHED
	.globl _g_WINWID
	.globl _g_LOWLIM
	.globl _g_INTCNT
	.globl _g_INTVAL
	.globl _g_JIFFY
	.globl _g_PADX
	.globl _g_PADY
	.globl _g_INTFLG
	.globl _g_RTYCNT
	.globl _g_TRPTBL
	.globl _g_HIMEM
	.globl _g_BOTTOM
	.globl _g_PATWRK
	.globl _g_LINWRK
	.globl _g_KEYBUF
	.globl _g_NEWKEY
	.globl _g_OLDKEY
	.globl _g_CLIKFL
	.globl _g_ONGSBF
	.globl _g_FNKFLG
	.globl _g_FNKSWI
	.globl _g_CODSAV
	.globl _g_FSTPOS
	.globl _g_LINTTB
	.globl _g_BASROM
	.globl _g_ENSTOP
	.globl _g_VCBC
	.globl _g_VCBB
	.globl _g_VCBA
	.globl _g_PLYCNT
	.globl _g_MUSICF
	.globl _g_QUEUEN
	.globl _g_MCLPTR
	.globl _g_MCLLEN
	.globl _g_SAVVOL
	.globl _g_VOICEN
	.globl _g_SAVSP
	.globl _g_PRSCNT
	.globl _g_LSTMOD
	.globl _g_LSTCOM
	.globl _g_COMMSK
	.globl _g_ESTBLS
	.globl _g_FLAGS
	.globl _g_ERRORS
	.globl _g_DATCNT
	.globl _g_DEVNUM
	.globl _g_OLDINT
	.globl _g_OLDSTT
	.globl _g_MEXBIh
	.globl _g_RSIQLN
	.globl _g_RSFCB
	.globl _g_TOCNT
	.globl _g_RSTMP
	.globl _g_YSAVE
	.globl _g_XSAVE
	.globl _g_NORUSE
	.globl _g_MODE
	.globl _g_ROMA
	.globl _g_CHRCNT
	.globl _g_EXBRSA
	.globl _g_AVCSAV
	.globl _g_ACPAGE
	.globl _g_DPPAGE
	.globl _g_RS2IQ
	.globl _g_VOICCQ
	.globl _g_VOICBQ
	.globl _g_VOICAQ
	.globl _g_QUEBAK
	.globl _g_QUETAB
	.globl _g_ASPCT2
	.globl _g_ASPCT1
	.globl _g_HEADER
	.globl _g_HIGH
	.globl _g_LOW
	.globl _g_CS240
	.globl _g_CS120
	.globl _g_GETPNT
	.globl _g_PUTPNT
	.globl _g_REPCNT
	.globl _g_SCNCNT
	.globl _g_FRCNEW
	.globl _g_QUEUES
	.globl _g_MINUPD
	.globl _g_MAXUPD
	.globl _g_TRGFLG
	.globl _g_STATFL
	.globl _g_RG7SAV
	.globl _g_RG6SAV
	.globl _g_RG5SAV
	.globl _g_RG4SAV
	.globl _g_RG3SAV
	.globl _g_RG2SAV
	.globl _g_RG1SAV
	.globl _g_RG0SAV
	.globl _g_CNSDFG
	.globl _g_USRTAB
	.globl _g_CLPRIM
	.globl _g_WRPRIM
	.globl _g_RDPRIM
	.globl _UpdateGameState
;--------------------------------------------------------
; special function registers
;--------------------------------------------------------
_g_PortPrimarySlot	=	0x00a8
_g_PortReadKeyboard	=	0x00a9
_g_PortAccessKeyboard	=	0x00aa
_g_PortControl	=	0x00ab
_g_VDP_DataPort	=	0x0098
_g_VDP_RegPort	=	0x0099
_g_VDP_AddrPort	=	0x0099
_g_VDP_StatPort	=	0x0099
_g_VDP_PalPort	=	0x009a
_g_VDP_IRegPort	=	0x009b
_g_PSG_RegPort	=	0x00a0
_g_PSG_DataPort	=	0x00a1
_g_PSG_StatPort	=	0x00a2
_g_PSG_Ext_RegPort	=	0x0010
_g_PSG_Ext_DataPort	=	0x0011
_g_PSG_Ext_StatPort	=	0x0012
_g_MSXMusic_IndexPort	=	0x007c
_g_MSXMusic_DataPort	=	0x007d
_g_MSXAudio_IndexPort	=	0x00c0
_g_MSXAudio_DataPort	=	0x00c1
_g_MSXAudio_IndexPort2	=	0x00c2
_g_MSXAudio_DataPort2	=	0x00c3
_g_RTC_AddrPort	=	0x00b4
_g_RTC_DataPort	=	0x00b5
;--------------------------------------------------------
; ram data
;--------------------------------------------------------
	.area _DATA
_g_LINL40	=	0xf3ae
_g_LINL32	=	0xf3af
_g_LINLEN	=	0xf3b0
_g_CRTCNT	=	0xf3b1
_g_CLMLST	=	0xf3b2
_g_TXTNAM	=	0xf3b3
_g_TXTCOL	=	0xf3b5
_g_TXTCGP	=	0xf3b7
_g_TXTATR	=	0xf3b9
_g_TXTPAT	=	0xf3bb
_g_T32NAM	=	0xf3bd
_g_T32COL	=	0xf3bf
_g_T32CGP	=	0xf3c1
_g_T32ATR	=	0xf3c3
_g_T32PAT	=	0xf3c5
_g_GRPNAM	=	0xf3c7
_g_GRPCOL	=	0xf3c9
_g_GRPCGP	=	0xf3cb
_g_GRPATR	=	0xf3cd
_g_GRPPAT	=	0xf3cf
_g_MLTNAM	=	0xf3d1
_g_MLTCOL	=	0xf3d3
_g_MLTCGP	=	0xf3d5
_g_MLTATR	=	0xf3d7
_g_MLTPAT	=	0xf3d9
_g_CLIKSW	=	0xf3db
_g_CSRY	=	0xf3dc
_g_CSRX	=	0xf3dd
_g_FORCLR	=	0xf3e9
_g_BAKCLR	=	0xf3ea
_g_BDRCLR	=	0xf3eb
_g_ATRBYT	=	0xf3f2
_g_FNKSTR	=	0xf87f
_g_CLOC	=	0xf92a
_g_CMASK	=	0xf92c
_g_LOGOPR	=	0xfb02
_g_GRPACX	=	0xfcb7
_g_GRPACY	=	0xfcb9
_g_SLTSL	=	0xffff
;--------------------------------------------------------
; ram data
;--------------------------------------------------------
	.area _INITIALIZED
;--------------------------------------------------------
; absolute external ram data
;--------------------------------------------------------
	.area _DABS (ABS)
;--------------------------------------------------------
; global & static initialisations
;--------------------------------------------------------
	.area _HOME
	.area _GSINIT
	.area _GSFINAL
	.area _GSINIT
;--------------------------------------------------------
; Home
;--------------------------------------------------------
	.area _HOME
	.area _HOME
;--------------------------------------------------------
; code
;--------------------------------------------------------
	.area _SEG9
;E:\Dropbox\FAUSTO\SVILUPPI\MSX\CODE\C\MSXgl\projects\soccerlgMSX2/soccerlg_s9_b3.c:11: void UpdateGameState(u8* game_state, u8* wait_secs, u8* start_sec, u16 target_ly) 
;	---------------------------------
; Function UpdateGameState
; ---------------------------------
_UpdateGameState::
	push	ix
	ld	ix,#0
	add	ix,sp
	ld	iy, #-30
	add	iy, sp
	ld	sp, iy
	ld	-3 (ix), l
	ld	-2 (ix), h
	ld	-5 (ix), e
	ld	-4 (ix), d
;E:\Dropbox\FAUSTO\SVILUPPI\MSX\CODE\C\MSXgl\projects\soccerlgMSX2/soccerlg_s9_b3.c:13: if (*game_state == 0) {
	ld	l, -3 (ix)
	ld	h, -2 (ix)
	ld	a, (hl)
	ld	-1 (ix), a
	or	a, a
	jp	NZ, 00326$
;E:\Dropbox\FAUSTO\SVILUPPI\MSX\CODE\C\MSXgl\projects\soccerlgMSX2/soccerlg_s9_b3.c:14: if (Field.ly >= target_ly) {
	ld	hl, #(_Field + 4)
	ld	a, (hl)
	ld	-9 (ix), a
	inc	hl
	ld	a, (hl)
	ld	-8 (ix), a
;E:\Dropbox\FAUSTO\SVILUPPI\MSX\CODE\C\MSXgl\projects\soccerlgMSX2/soccerlg_s9_b3.c:15: Field.dy = 0; // Ferma lo scorrimento
;E:\Dropbox\FAUSTO\SVILUPPI\MSX\CODE\C\MSXgl\projects\soccerlgMSX2/soccerlg_s9_b3.c:14: if (Field.ly >= target_ly) {
	ld	a, -9 (ix)
	sub	a, 6 (ix)
	ld	a, -8 (ix)
	sbc	a, 7 (ix)
	jr	C, 00102$
;E:\Dropbox\FAUSTO\SVILUPPI\MSX\CODE\C\MSXgl\projects\soccerlgMSX2/soccerlg_s9_b3.c:15: Field.dy = 0; // Ferma lo scorrimento
	ld	hl, #(_Field + 18)
	ld	(hl), #0x00
;E:\Dropbox\FAUSTO\SVILUPPI\MSX\CODE\C\MSXgl\projects\soccerlgMSX2/soccerlg_s9_b3.c:16: *game_state = 1;
	ld	l, -3 (ix)
	ld	h, -2 (ix)
	ld	(hl), #0x01
;E:\Dropbox\FAUSTO\SVILUPPI\MSX\CODE\C\MSXgl\projects\soccerlgMSX2/soccerlg_s9_b3.c:17: *wait_secs = 2; 
	ld	l, -5 (ix)
	ld	h, -4 (ix)
	ld	(hl), #0x02
;E:\Dropbox\FAUSTO\SVILUPPI\MSX\CODE\C\MSXgl\projects\soccerlgMSX2/soccerlg_s9_b3.c:18: *start_sec = Frms;
	ld	a, 4 (ix)
	ld	-7 (ix), a
	ld	a, 5 (ix)
	ld	-6 (ix), a
	ld	l, -7 (ix)
	ld	h, -6 (ix)
	ld	a, (_Frms+0)
	ld	(hl), a
	jp	00342$
00102$:
;E:\Dropbox\FAUSTO\SVILUPPI\MSX\CODE\C\MSXgl\projects\soccerlgMSX2/soccerlg_s9_b3.c:20: Field.ly += Field.dy;
	ld	a, (#(_Field + 18) + 0)
	ld	-1 (ix), a
	ld	-7 (ix), a
	rlca
	sbc	a, a
	ld	-6 (ix), a
	ld	a, -9 (ix)
	ld	-11 (ix), a
	ld	a, -8 (ix)
	ld	-10 (ix), a
	ld	a, -7 (ix)
	ld	-9 (ix), a
	ld	a, -6 (ix)
	ld	-8 (ix), a
	ld	a, -11 (ix)
	add	a, -9 (ix)
	ld	-7 (ix), a
	ld	a, -10 (ix)
	adc	a, -8 (ix)
	ld	-6 (ix), a
	ld	hl, #(_Field + 4)
	ld	a, -7 (ix)
	ld	(hl), a
	inc	hl
	ld	a, -6 (ix)
	ld	(hl), a
	jp	00342$
00326$:
;E:\Dropbox\FAUSTO\SVILUPPI\MSX\CODE\C\MSXgl\projects\soccerlgMSX2/soccerlg_s9_b3.c:24: } else if (*game_state == 1) {
	ld	a, -1 (ix)
	dec	a
	jr	NZ, 00323$
;E:\Dropbox\FAUSTO\SVILUPPI\MSX\CODE\C\MSXgl\projects\soccerlgMSX2/soccerlg_s9_b3.c:25: if (*start_sec < Frms) { // Frms wrapped from 1 to 60
	ld	c, 4 (ix)
	ld	b, 5 (ix)
	ld	a, (bc)
	ld	e, a
	ld	hl, #_Frms
	ld	a, e
	sub	a, (hl)
	jr	NC, 00107$
;E:\Dropbox\FAUSTO\SVILUPPI\MSX\CODE\C\MSXgl\projects\soccerlgMSX2/soccerlg_s9_b3.c:26: (*wait_secs)--;
	ld	l, -5 (ix)
	ld	h, -4 (ix)
	ld	a, (hl)
	dec	a
	ld	l, -5 (ix)
	ld	h, -4 (ix)
	ld	(hl), a
;E:\Dropbox\FAUSTO\SVILUPPI\MSX\CODE\C\MSXgl\projects\soccerlgMSX2/soccerlg_s9_b3.c:27: if (*wait_secs == 0) {
	or	a, a
	jr	NZ, 00107$
;E:\Dropbox\FAUSTO\SVILUPPI\MSX\CODE\C\MSXgl\projects\soccerlgMSX2/soccerlg_s9_b3.c:28: *game_state = 2; // Passa al posizionamento
	ld	l, -3 (ix)
	ld	h, -2 (ix)
	ld	(hl), #0x02
;E:\Dropbox\FAUSTO\SVILUPPI\MSX\CODE\C\MSXgl\projects\soccerlgMSX2/soccerlg_s9_b3.c:29: CallFnc_VOID(SEG_EVENTS, EventPlayerFirstPresentationStarted);
	push	bc
	ld	de, #_EventPlayerFirstPresentationStarted
	ld	a, #0x08
	call	_CallFnc_VOID
	ld	de, #_AssignKickOffTargets
	ld	a, #0x0b
	call	_CallFnc_VOID
	pop	bc
00107$:
;E:\Dropbox\FAUSTO\SVILUPPI\MSX\CODE\C\MSXgl\projects\soccerlgMSX2/soccerlg_s9_b3.c:33: *start_sec = Frms;
	ld	a, (_Frms+0)
	ld	(bc), a
	jp	00342$
00323$:
;E:\Dropbox\FAUSTO\SVILUPPI\MSX\CODE\C\MSXgl\projects\soccerlgMSX2/soccerlg_s9_b3.c:34: } else if (*game_state == 2) {
	ld	a, -1 (ix)
	sub	a, #0x02
	jp	NZ,00320$
;E:\Dropbox\FAUSTO\SVILUPPI\MSX\CODE\C\MSXgl\projects\soccerlgMSX2/soccerlg_s9_b3.c:35: bool all_in_position = TRUE;
	ld	-30 (ix), #0x01
;E:\Dropbox\FAUSTO\SVILUPPI\MSX\CODE\C\MSXgl\projects\soccerlgMSX2/soccerlg_s9_b3.c:36: for (u8 i = 0; i < 14; i++) {
	ld	-1 (ix), #0x00
00329$:
	ld	a, -1 (ix)
	sub	a, #0x0e
	jp	NC, 00131$
;E:\Dropbox\FAUSTO\SVILUPPI\MSX\CODE\C\MSXgl\projects\soccerlgMSX2/soccerlg_s9_b3.c:37: struct ObjectInfo* p = &SwSprite[i];
	ld	c, -1 (ix)
	ld	b, #0x00
	ld	l, c
	ld	h, b
	add	hl, hl
	add	hl, hl
	add	hl, bc
	add	hl, hl
	add	hl, bc
	add	hl, hl
	add	hl, bc
	ld	de, #_SwSprite
	add	hl, de
;E:\Dropbox\FAUSTO\SVILUPPI\MSX\CODE\C\MSXgl\projects\soccerlgMSX2/soccerlg_s9_b3.c:38: if (p->lx != p->tx || p->ly != p->ty) {
	ld	-29 (ix), l
	ld	-28 (ix), h
	ld	a, (hl)
	ld	-23 (ix), a
	ld	c, -29 (ix)
	ld	b, -28 (ix)
	ld	hl, #12
	add	hl, bc
	ld	a, (hl)
	ld	-22 (ix), a
	ld	a, -29 (ix)
	add	a, #0x04
	ld	-21 (ix), a
	ld	a, -28 (ix)
	adc	a, #0x00
	ld	-20 (ix), a
	ld	a, -29 (ix)
	add	a, #0x0d
	ld	-19 (ix), a
	ld	a, -28 (ix)
	adc	a, #0x00
	ld	-18 (ix), a
;E:\Dropbox\FAUSTO\SVILUPPI\MSX\CODE\C\MSXgl\projects\soccerlgMSX2/soccerlg_s9_b3.c:41: if (p->tx > p->lx) p->dx = (p->tx - p->lx >= 2) ? 2 : (p->tx - p->lx);
	ld	a, -29 (ix)
	add	a, #0x11
	ld	-17 (ix), a
	ld	a, -28 (ix)
	adc	a, #0x00
	ld	-16 (ix), a
;E:\Dropbox\FAUSTO\SVILUPPI\MSX\CODE\C\MSXgl\projects\soccerlgMSX2/soccerlg_s9_b3.c:45: if (p->ty > p->ly) p->dy = (p->ty - p->ly >= 2) ? 2 : (p->ty - p->ly);
	ld	a, -29 (ix)
	add	a, #0x12
	ld	-15 (ix), a
	ld	a, -28 (ix)
	adc	a, #0x00
	ld	-14 (ix), a
;E:\Dropbox\FAUSTO\SVILUPPI\MSX\CODE\C\MSXgl\projects\soccerlgMSX2/soccerlg_s9_b3.c:54: p->frame = CallFnc_U16_P4(SEG_GAMESTATE_2, GetPlayerAnimFrame, i, p->dx, p->dy, walk_seq[(p->anim / 3) % 4]); 
	ld	a, -29 (ix)
	add	a, #0x0f
	ld	-13 (ix), a
	ld	a, -28 (ix)
	adc	a, #0x00
	ld	-12 (ix), a
;E:\Dropbox\FAUSTO\SVILUPPI\MSX\CODE\C\MSXgl\projects\soccerlgMSX2/soccerlg_s9_b3.c:38: if (p->lx != p->tx || p->ly != p->ty) {
	ld	a, -23 (ix)
	sub	a, -22 (ix)
	jr	NZ, 00127$
	ld	l, -21 (ix)
	ld	h, -20 (ix)
	ld	c, (hl)
	inc	hl
	ld	b, (hl)
	ld	l, -19 (ix)
	ld	h, -18 (ix)
	ld	e, (hl)
	inc	hl
	ld	h, (hl)
;	spillPairReg hl
	ld	l, e
	cp	a, a
	sbc	hl, bc
	jp	Z,00128$
00127$:
;E:\Dropbox\FAUSTO\SVILUPPI\MSX\CODE\C\MSXgl\projects\soccerlgMSX2/soccerlg_s9_b3.c:39: all_in_position = FALSE;
	ld	-30 (ix), #0x00
;E:\Dropbox\FAUSTO\SVILUPPI\MSX\CODE\C\MSXgl\projects\soccerlgMSX2/soccerlg_s9_b3.c:41: if (p->tx > p->lx) p->dx = (p->tx - p->lx >= 2) ? 2 : (p->tx - p->lx);
	ld	a, -23 (ix)
	sub	a, -22 (ix)
	jr	NC, 00112$
	ld	a, -22 (ix)
	ld	-11 (ix), a
	ld	-10 (ix), #0x00
	ld	a, -23 (ix)
	ld	-9 (ix), a
	ld	-8 (ix), #0x00
	ld	a, -11 (ix)
	sub	a, -9 (ix)
	ld	-7 (ix), a
	ld	a, -10 (ix)
	sbc	a, -8 (ix)
	ld	-6 (ix), a
	ld	a, -7 (ix)
	sub	a, #0x02
	ld	a, -6 (ix)
	rla
	ccf
	rra
	sbc	a, #0x80
	jr	C, 00344$
	ld	-7 (ix), #0x02
	ld	-6 (ix), #0
	jp	00345$
00344$:
	ld	a, -22 (ix)
	sub	a, -23 (ix)
	ld	-6 (ix), a
	ld	-7 (ix), a
	ld	-6 (ix), #0x00
00345$:
	ld	a, -7 (ix)
	ld	l, -17 (ix)
	ld	h, -16 (ix)
	ld	(hl), a
	jp	00113$
00112$:
;E:\Dropbox\FAUSTO\SVILUPPI\MSX\CODE\C\MSXgl\projects\soccerlgMSX2/soccerlg_s9_b3.c:42: else if (p->tx < p->lx) p->dx = (p->lx - p->tx >= 2) ? -2 : -(p->lx - p->tx);
	ld	a, -22 (ix)
	sub	a, -23 (ix)
	jr	NC, 00109$
	ld	a, -23 (ix)
	ld	-11 (ix), a
	ld	-10 (ix), #0x00
	ld	a, -22 (ix)
	ld	-9 (ix), a
	ld	-8 (ix), #0x00
	ld	a, -11 (ix)
	sub	a, -9 (ix)
	ld	-7 (ix), a
	ld	a, -10 (ix)
	sbc	a, -8 (ix)
	ld	-6 (ix), a
	ld	a, -7 (ix)
	sub	a, #0x02
	ld	a, -6 (ix)
	rla
	ccf
	rra
	sbc	a, #0x80
	jr	C, 00346$
	ld	c, #0xfe
	jp	00347$
00346$:
	ld	a, -23 (ix)
	sub	a, -22 (ix)
	neg
	ld	c, a
00347$:
	ld	l, -17 (ix)
	ld	h, -16 (ix)
	ld	(hl), c
	jp	00113$
00109$:
;E:\Dropbox\FAUSTO\SVILUPPI\MSX\CODE\C\MSXgl\projects\soccerlgMSX2/soccerlg_s9_b3.c:43: else p->dx = 0;
	ld	l, -17 (ix)
	ld	h, -16 (ix)
	ld	(hl), #0x00
00113$:
;E:\Dropbox\FAUSTO\SVILUPPI\MSX\CODE\C\MSXgl\projects\soccerlgMSX2/soccerlg_s9_b3.c:45: if (p->ty > p->ly) p->dy = (p->ty - p->ly >= 2) ? 2 : (p->ty - p->ly);
	ld	l, -19 (ix)
	ld	h, -18 (ix)
	ld	a, (hl)
	ld	-7 (ix), a
	inc	hl
	ld	a, (hl)
	ld	-6 (ix), a
	ld	l, -21 (ix)
	ld	h, -20 (ix)
	ld	a, (hl)
	ld	-9 (ix), a
	inc	hl
	ld	a, (hl)
	ld	-8 (ix), a
	ld	a, -9 (ix)
	sub	a, -7 (ix)
	ld	a, -8 (ix)
	sbc	a, -6 (ix)
	jr	NC, 00118$
	ld	a, -7 (ix)
	sub	a, -9 (ix)
	ld	c, a
	ld	a, -6 (ix)
	sbc	a, -8 (ix)
	ld	b, a
	ld	a, c
	sub	a, #0x02
	ld	a, b
	sbc	a, #0x00
	jr	C, 00348$
	ld	a, #0x02
	jp	00349$
00348$:
	ld	a, -7 (ix)
	ld	c, -9 (ix)
	sub	a, c
00349$:
	ld	l, -15 (ix)
	ld	h, -14 (ix)
	ld	(hl), a
	jp	00119$
00118$:
;E:\Dropbox\FAUSTO\SVILUPPI\MSX\CODE\C\MSXgl\projects\soccerlgMSX2/soccerlg_s9_b3.c:46: else if (p->ty < p->ly) p->dy = (p->ly - p->ty >= 2) ? -2 : -(p->ly - p->ty);
	ld	a, -7 (ix)
	sub	a, -9 (ix)
	ld	a, -6 (ix)
	sbc	a, -8 (ix)
	jr	NC, 00115$
	ld	a, -9 (ix)
	sub	a, -7 (ix)
	ld	c, a
	ld	a, -8 (ix)
	sbc	a, -6 (ix)
	ld	b, a
	ld	a, c
	sub	a, #0x02
	ld	a, b
	sbc	a, #0x00
	jr	C, 00350$
	ld	a, #0xfe
	jp	00351$
00350$:
	ld	a, -9 (ix)
	ld	c, -7 (ix)
	sub	a, c
	neg
00351$:
	ld	l, -15 (ix)
	ld	h, -14 (ix)
	ld	(hl), a
	jp	00119$
00115$:
;E:\Dropbox\FAUSTO\SVILUPPI\MSX\CODE\C\MSXgl\projects\soccerlgMSX2/soccerlg_s9_b3.c:47: else p->dy = 0;
	ld	l, -15 (ix)
	ld	h, -14 (ix)
	ld	(hl), #0x00
00119$:
;E:\Dropbox\FAUSTO\SVILUPPI\MSX\CODE\C\MSXgl\projects\soccerlgMSX2/soccerlg_s9_b3.c:49: p->lx += p->dx;
	ld	l, -29 (ix)
	ld	h, -28 (ix)
	ld	c, (hl)
	ld	l, -17 (ix)
	ld	h, -16 (ix)
	ld	a, (hl)
	add	a, c
	ld	l, -29 (ix)
	ld	h, -28 (ix)
	ld	(hl), a
;E:\Dropbox\FAUSTO\SVILUPPI\MSX\CODE\C\MSXgl\projects\soccerlgMSX2/soccerlg_s9_b3.c:50: p->ly += p->dy;
	ld	l, -21 (ix)
	ld	h, -20 (ix)
	ld	c, (hl)
	inc	hl
	ld	b, (hl)
	ld	l, -15 (ix)
	ld	h, -14 (ix)
	ld	a, (hl)
	ld	l, a
;	spillPairReg hl
;	spillPairReg hl
	rlca
	sbc	a, a
	ld	h, a
;	spillPairReg hl
;	spillPairReg hl
	add	hl, bc
	ex	de, hl
	ld	l, -21 (ix)
	ld	h, -20 (ix)
	ld	(hl), e
	inc	hl
	ld	(hl), d
;E:\Dropbox\FAUSTO\SVILUPPI\MSX\CODE\C\MSXgl\projects\soccerlgMSX2/soccerlg_s9_b3.c:51: p->anim++;
	ld	l, -29 (ix)
	ld	h, -28 (ix)
	ld	de, #0x0013
	add	hl, de
	ld	e, (hl)
	inc	hl
	ld	d, (hl)
	dec	hl
	inc	de
	ld	(hl), e
	inc	hl
	ld	(hl), d
;E:\Dropbox\FAUSTO\SVILUPPI\MSX\CODE\C\MSXgl\projects\soccerlgMSX2/soccerlg_s9_b3.c:53: const u8 walk_seq[4] = {0, 1, 2, 1}; // 1->2->3->2->1...
	ld	-27 (ix), #0x00
	ld	-26 (ix), #0x01
	ld	-25 (ix), #0x02
	ld	-24 (ix), #0x01
;E:\Dropbox\FAUSTO\SVILUPPI\MSX\CODE\C\MSXgl\projects\soccerlgMSX2/soccerlg_s9_b3.c:54: p->frame = CallFnc_U16_P4(SEG_GAMESTATE_2, GetPlayerAnimFrame, i, p->dx, p->dy, walk_seq[(p->anim / 3) % 4]); 
	ex	de, hl
	ld	de, #0x0003
	call	__divuint
	ld	a, e
	and	a, #0x03
	ld	c, a
	ld	b, #0x00
	ld	hl, #3
	add	hl, sp
	add	hl, bc
	ld	d, (hl)
	ld	l, -15 (ix)
	ld	h, -14 (ix)
	ld	b, (hl)
	ld	l, -17 (ix)
	ld	h, -16 (ix)
	ld	a, (hl)
	ld	e, b
	push	de
	push	af
	inc	sp
	ld	a, -1 (ix)
	push	af
	inc	sp
	ld	de, #_GetPlayerAnimFrame
	ld	a, #0x0b
	call	_CallFnc_U16_P4
	ld	l, -13 (ix)
	ld	h, -12 (ix)
	ld	(hl), e
	inc	hl
	ld	(hl), d
	jp	00330$
00128$:
;E:\Dropbox\FAUSTO\SVILUPPI\MSX\CODE\C\MSXgl\projects\soccerlgMSX2/soccerlg_s9_b3.c:56: i8 dir_x = (SwSprite[14].lx > p->lx) ? 1 : ((SwSprite[14].lx < p->lx) ? -1 : 0);
	ld	hl, #_SwSprite + 322
	ld	c, (hl)
	ld	a, -23 (ix)
	sub	a, c
	jr	NC, 00352$
	ld	de, #0x0001
	jp	00353$
00352$:
	ld	a, c
	sub	a, -23 (ix)
	jr	NC, 00354$
	ld	de, #0xffff
	jp	00355$
00354$:
	ld	de, #0x0000
00355$:
00353$:
;E:\Dropbox\FAUSTO\SVILUPPI\MSX\CODE\C\MSXgl\projects\soccerlgMSX2/soccerlg_s9_b3.c:57: i8 dir_y = (i < 7) ? 1 : -1; // Team 1 guarda sempre a Sud, Team 2 sempre a Nord
	ld	a, -1 (ix)
	sub	a, #0x07
	ld	a, #0x00
	rla
	ld	c, a
	or	a, a
	jr	Z, 00356$
	ld	hl, #0x0001
	jp	00357$
00356$:
	ld	hl, #0xffff
00357$:
	ld	b, l
;E:\Dropbox\FAUSTO\SVILUPPI\MSX\CODE\C\MSXgl\projects\soccerlgMSX2/soccerlg_s9_b3.c:58: p->dx = 0; p->dy = 0;
	ld	l, -17 (ix)
	ld	h, -16 (ix)
	ld	(hl), #0x00
	ld	l, -15 (ix)
	ld	h, -14 (ix)
	ld	(hl), #0x00
;E:\Dropbox\FAUSTO\SVILUPPI\MSX\CODE\C\MSXgl\projects\soccerlgMSX2/soccerlg_s9_b3.c:60: if (RestartType == RESTART_THROWIN && i == g_thrower_id) {
	ld	a, (_RestartType+0)
	dec	a
	jr	NZ, 00124$
	ld	a, -1 (ix)
	ld	iy, #_g_thrower_id
	sub	a, 0 (iy)
	jr	NZ, 00124$
;E:\Dropbox\FAUSTO\SVILUPPI\MSX\CODE\C\MSXgl\projects\soccerlgMSX2/soccerlg_s9_b3.c:62: p->frame = (RestartSideX < 128) ? SPR_T1_PLAYER_THROWIN_FROM_WEST_1 : SPR_T1_PLAYER_THROWIN_FROM_EAST_1;
	ld	a, (_RestartSideX+0)
	sub	a, #0x80
	ld	a, #0x00
	rla
	ld	b, a
;E:\Dropbox\FAUSTO\SVILUPPI\MSX\CODE\C\MSXgl\projects\soccerlgMSX2/soccerlg_s9_b3.c:61: if (i < 7) {
	ld	a, c
	or	a, a
	jr	Z, 00121$
;E:\Dropbox\FAUSTO\SVILUPPI\MSX\CODE\C\MSXgl\projects\soccerlgMSX2/soccerlg_s9_b3.c:62: p->frame = (RestartSideX < 128) ? SPR_T1_PLAYER_THROWIN_FROM_WEST_1 : SPR_T1_PLAYER_THROWIN_FROM_EAST_1;
	ld	a, b
	or	a, a
	jr	Z, 00358$
	ld	bc, #0x0025
	jp	00359$
00358$:
	ld	bc, #0x0022
00359$:
	ld	l, -13 (ix)
	ld	h, -12 (ix)
	ld	(hl), c
	inc	hl
	ld	(hl), b
	jp	00330$
00121$:
;E:\Dropbox\FAUSTO\SVILUPPI\MSX\CODE\C\MSXgl\projects\soccerlgMSX2/soccerlg_s9_b3.c:64: p->frame = (RestartSideX < 128) ? SPR_T2_PLAYER_THROWIN_FROM_WEST_1 : SPR_T2_PLAYER_THROWIN_FROM_EAST_1;
	ld	a, b
	or	a, a
	jr	Z, 00360$
	ld	bc, #0x0095
	jp	00361$
00360$:
	ld	bc, #0x0092
00361$:
	ld	l, -13 (ix)
	ld	h, -12 (ix)
	ld	(hl), c
	inc	hl
	ld	(hl), b
	jp	00330$
00124$:
;E:\Dropbox\FAUSTO\SVILUPPI\MSX\CODE\C\MSXgl\projects\soccerlgMSX2/soccerlg_s9_b3.c:67: p->frame = CallFnc_U16_P4(SEG_GAMESTATE_2, GetPlayerAnimFrame, i, dir_x, dir_y, 0); // Posa ferma (0) verso la palla
	xor	a, a
	push	af
	inc	sp
	ld	c, e
	push	bc
	ld	a, -1 (ix)
	push	af
	inc	sp
	ld	de, #_GetPlayerAnimFrame
	ld	a, #0x0b
	call	_CallFnc_U16_P4
	ld	l, -13 (ix)
	ld	h, -12 (ix)
	ld	(hl), e
	inc	hl
	ld	(hl), d
00330$:
;E:\Dropbox\FAUSTO\SVILUPPI\MSX\CODE\C\MSXgl\projects\soccerlgMSX2/soccerlg_s9_b3.c:36: for (u8 i = 0; i < 14; i++) {
	inc	-1 (ix)
	jp	00329$
00131$:
;E:\Dropbox\FAUSTO\SVILUPPI\MSX\CODE\C\MSXgl\projects\soccerlgMSX2/soccerlg_s9_b3.c:71: if (all_in_position) {
	ld	a, -30 (ix)
	or	a, a
	jp	Z, 00342$
;E:\Dropbox\FAUSTO\SVILUPPI\MSX\CODE\C\MSXgl\projects\soccerlgMSX2/soccerlg_s9_b3.c:18: *start_sec = Frms;
	ld	a, 4 (ix)
	ld	-8 (ix), a
	ld	a, 5 (ix)
	ld	-7 (ix), a
;E:\Dropbox\FAUSTO\SVILUPPI\MSX\CODE\C\MSXgl\projects\soccerlgMSX2/soccerlg_s9_b3.c:72: if (RestartType == RESTART_THROWIN || RestartType == RESTART_CORNERKICK) {
	ld	a, (_RestartType+0)
	dec	a
	jr	Z, 00146$
	ld	a, (_RestartType+0)
	sub	a, #0x03
	jp	NZ,00147$
00146$:
;E:\Dropbox\FAUSTO\SVILUPPI\MSX\CODE\C\MSXgl\projects\soccerlgMSX2/soccerlg_s9_b3.c:73: *game_state = 7;
	ld	l, -3 (ix)
	ld	h, -2 (ix)
	ld	(hl), #0x07
;E:\Dropbox\FAUSTO\SVILUPPI\MSX\CODE\C\MSXgl\projects\soccerlgMSX2/soccerlg_s9_b3.c:74: u8 throw_team = (g_thrower_id < 7) ? TEAM_1 : TEAM_2;
	ld	a, (_g_thrower_id+0)
	sub	a, #0x07
	jr	NC, 00362$
	xor	a, a
	ld	-10 (ix), a
	ld	-9 (ix), a
	jp	00363$
00362$:
	ld	-10 (ix), #0x01
	ld	-9 (ix), #0
00363$:
	ld	a, -10 (ix)
	ld	-6 (ix), a
;E:\Dropbox\FAUSTO\SVILUPPI\MSX\CODE\C\MSXgl\projects\soccerlgMSX2/soccerlg_s9_b3.c:75: bool is_human = FALSE;
	ld	-1 (ix), #0x00
;E:\Dropbox\FAUSTO\SVILUPPI\MSX\CODE\C\MSXgl\projects\soccerlgMSX2/soccerlg_s9_b3.c:76: if (throw_team == TEAM_2) is_human = TRUE;
	ld	a, -6 (ix)
	dec	a
	jr	NZ, 00136$
	ld	-1 (ix), #0x01
	jp	00137$
00136$:
;E:\Dropbox\FAUSTO\SVILUPPI\MSX\CODE\C\MSXgl\projects\soccerlgMSX2/soccerlg_s9_b3.c:77: else if (throw_team == TEAM_1 && GameMode == GAMEMODE_P1_VS_P2) is_human = TRUE;
	ld	a, -6 (ix)
	or	a, a
	jr	NZ, 00137$
	ld	a, (_GameMode+0)
	dec	a
	jr	NZ, 00137$
	ld	-1 (ix), #0x01
00137$:
;E:\Dropbox\FAUSTO\SVILUPPI\MSX\CODE\C\MSXgl\projects\soccerlgMSX2/soccerlg_s9_b3.c:79: *wait_secs = is_human ? 5 : 1; // 5 secondi per il giocatore, 1 per la CPU
	ld	a, -1 (ix)
	or	a, a
	jr	Z, 00364$
	ld	-10 (ix), #0x05
	ld	-9 (ix), #0
	jp	00365$
00364$:
	ld	-10 (ix), #0x01
	ld	-9 (ix), #0
00365$:
	ld	a, -10 (ix)
	ld	l, -5 (ix)
	ld	h, -4 (ix)
	ld	(hl), a
;E:\Dropbox\FAUSTO\SVILUPPI\MSX\CODE\C\MSXgl\projects\soccerlgMSX2/soccerlg_s9_b3.c:80: *start_sec = Frms;
	ld	l, -8 (ix)
	ld	h, -7 (ix)
	ld	a, (_Frms+0)
	ld	(hl), a
;E:\Dropbox\FAUSTO\SVILUPPI\MSX\CODE\C\MSXgl\projects\soccerlgMSX2/soccerlg_s9_b3.c:81: g_last_input_dir = DIRECTION_NONE; // Resetta l'input per la selezione
	ld	iy, #_g_last_input_dir
	ld	0 (iy), #0x00
;E:\Dropbox\FAUSTO\SVILUPPI\MSX\CODE\C\MSXgl\projects\soccerlgMSX2/soccerlg_s9_b3.c:83: return;
	jp	00342$
00147$:
;E:\Dropbox\FAUSTO\SVILUPPI\MSX\CODE\C\MSXgl\projects\soccerlgMSX2/soccerlg_s9_b3.c:84: } else if (RestartType == RESTART_GOALKICK) {
	ld	a, (_RestartType+0)
	sub	a, #0x02
	jp	NZ,00148$
;E:\Dropbox\FAUSTO\SVILUPPI\MSX\CODE\C\MSXgl\projects\soccerlgMSX2/soccerlg_s9_b3.c:85: *game_state = 8; // Stato di attesa e rincorsa rinvio
	ld	l, -3 (ix)
	ld	h, -2 (ix)
	ld	(hl), #0x08
;E:\Dropbox\FAUSTO\SVILUPPI\MSX\CODE\C\MSXgl\projects\soccerlgMSX2/soccerlg_s9_b3.c:87: u8 gk = (RestartSideY < 256) ? 0 : 7;
	ld	hl, (_RestartSideY)
	ld	a, h
	sub	a, #0x01
	jr	NC, 00366$
	xor	a, a
	ld	-10 (ix), a
	ld	-9 (ix), a
	jp	00367$
00366$:
	ld	-10 (ix), #0x07
	ld	-9 (ix), #0
00367$:
	ld	a, -10 (ix)
;E:\Dropbox\FAUSTO\SVILUPPI\MSX\CODE\C\MSXgl\projects\soccerlgMSX2/soccerlg_s9_b3.c:88: u8 team_to_kick = (gk == 0) ? TEAM_1 : TEAM_2;
	or	a,a
	jr	NZ, 00368$
	ld	-10 (ix), a
	ld	-9 (ix), a
	jp	00369$
00368$:
	ld	-10 (ix), #0x01
	ld	-9 (ix), #0
00369$:
	ld	a, -10 (ix)
	ld	-6 (ix), a
;E:\Dropbox\FAUSTO\SVILUPPI\MSX\CODE\C\MSXgl\projects\soccerlgMSX2/soccerlg_s9_b3.c:89: bool is_human = FALSE;
	ld	-1 (ix), #0x00
;E:\Dropbox\FAUSTO\SVILUPPI\MSX\CODE\C\MSXgl\projects\soccerlgMSX2/soccerlg_s9_b3.c:90: if (team_to_kick == TEAM_2) is_human = TRUE;
	ld	a, -6 (ix)
	dec	a
	jr	NZ, 00142$
	ld	-1 (ix), #0x01
	jp	00143$
00142$:
;E:\Dropbox\FAUSTO\SVILUPPI\MSX\CODE\C\MSXgl\projects\soccerlgMSX2/soccerlg_s9_b3.c:91: else if (team_to_kick == TEAM_1 && GameMode == GAMEMODE_P1_VS_P2) is_human = TRUE;
	ld	a, -6 (ix)
	or	a, a
	jr	NZ, 00143$
	ld	a, (_GameMode+0)
	dec	a
	jr	NZ, 00143$
	ld	-1 (ix), #0x01
00143$:
;E:\Dropbox\FAUSTO\SVILUPPI\MSX\CODE\C\MSXgl\projects\soccerlgMSX2/soccerlg_s9_b3.c:93: *wait_secs = is_human ? 5 : 1; // 5s per l'umano, 1s per la CPU
	ld	a, -1 (ix)
	or	a, a
	jr	Z, 00370$
	ld	-10 (ix), #0x05
	ld	-9 (ix), #0
	jp	00371$
00370$:
	ld	-10 (ix), #0x01
	ld	-9 (ix), #0
00371$:
	ld	a, -10 (ix)
	ld	l, -5 (ix)
	ld	h, -4 (ix)
	ld	(hl), a
;E:\Dropbox\FAUSTO\SVILUPPI\MSX\CODE\C\MSXgl\projects\soccerlgMSX2/soccerlg_s9_b3.c:94: *start_sec = Frms;
	ld	l, -8 (ix)
	ld	h, -7 (ix)
	ld	a, (_Frms+0)
	ld	(hl), a
;E:\Dropbox\FAUSTO\SVILUPPI\MSX\CODE\C\MSXgl\projects\soccerlgMSX2/soccerlg_s9_b3.c:95: g_last_input_dir = DIRECTION_NONE; // Resetta l'input per la selezione
	ld	iy, #_g_last_input_dir
	ld	0 (iy), #0x00
;E:\Dropbox\FAUSTO\SVILUPPI\MSX\CODE\C\MSXgl\projects\soccerlgMSX2/soccerlg_s9_b3.c:97: return;
	jp	00342$
00148$:
;E:\Dropbox\FAUSTO\SVILUPPI\MSX\CODE\C\MSXgl\projects\soccerlgMSX2/soccerlg_s9_b3.c:99: *game_state = 3;
	ld	l, -3 (ix)
	ld	h, -2 (ix)
	ld	(hl), #0x03
;E:\Dropbox\FAUSTO\SVILUPPI\MSX\CODE\C\MSXgl\projects\soccerlgMSX2/soccerlg_s9_b3.c:102: if (KickOffTeam == TEAM_1) {
	ld	a, (_KickOffTeam+0)
	or	a, a
	jr	NZ, 00151$
;E:\Dropbox\FAUSTO\SVILUPPI\MSX\CODE\C\MSXgl\projects\soccerlgMSX2/soccerlg_s9_b3.c:103: T1_Carrier = 3; // Giocatore a sinistra della palla
	ld	hl, #_T1_Carrier
	ld	(hl), #0x03
;E:\Dropbox\FAUSTO\SVILUPPI\MSX\CODE\C\MSXgl\projects\soccerlgMSX2/soccerlg_s9_b3.c:104: T1_Receiver = (u8)CallFnc_U16_P4B(SEG_LOGIC, FindReceiver, T1_Carrier, 4, 0, 1); // Ignora il compagno (4)
	ld	a, #0x01
	push	af
	inc	sp
	xor	a, a
	ld	h, a
	ld	l, #0x04
	push	hl
	ld	a, #0x03
	push	af
	inc	sp
	ld	de, #_FindReceiver
	ld	a, #0x06
	call	_CallFnc_U16_P4B
	ld	a, e
	ld	(#_T1_Receiver), a
;E:\Dropbox\FAUSTO\SVILUPPI\MSX\CODE\C\MSXgl\projects\soccerlgMSX2/soccerlg_s9_b3.c:105: T2_Carrier = T2_Receiver = 0xFF; // Difesa senza palla
	ld	a,#0xff
	ld	(#_T2_Receiver),a
	ld	(#_T2_Carrier), a
	jp	00152$
00151$:
;E:\Dropbox\FAUSTO\SVILUPPI\MSX\CODE\C\MSXgl\projects\soccerlgMSX2/soccerlg_s9_b3.c:107: T2_Carrier = 11; // Giocatore a destra della palla
	ld	hl, #_T2_Carrier
	ld	(hl), #0x0b
;E:\Dropbox\FAUSTO\SVILUPPI\MSX\CODE\C\MSXgl\projects\soccerlgMSX2/soccerlg_s9_b3.c:108: T2_Receiver = (u8)CallFnc_U16_P4B(SEG_LOGIC, FindReceiver, T2_Carrier, 10, 0, -1); // Ignora il compagno (10)
	ld	a, #0xff
	push	af
	inc	sp
	xor	a, a
	ld	h, a
	ld	l, #0x0a
	push	hl
	ld	a, #0x0b
	push	af
	inc	sp
	ld	de, #_FindReceiver
	ld	a, #0x06
	call	_CallFnc_U16_P4B
	ld	a, e
	ld	(#_T2_Receiver), a
;E:\Dropbox\FAUSTO\SVILUPPI\MSX\CODE\C\MSXgl\projects\soccerlgMSX2/soccerlg_s9_b3.c:109: T1_Carrier = T1_Receiver = 0xFF; // Difesa senza palla
	ld	a,#0xff
	ld	(#_T1_Receiver),a
	ld	(#_T1_Carrier), a
00152$:
;E:\Dropbox\FAUSTO\SVILUPPI\MSX\CODE\C\MSXgl\projects\soccerlgMSX2/soccerlg_s9_b3.c:112: LastTouchTeam = KickOffTeam; // Assegna possesso fittizio al team che batte per far allargare i compagni
	ld	a, (_KickOffTeam+0)
	ld	(_LastTouchTeam+0), a
;E:\Dropbox\FAUSTO\SVILUPPI\MSX\CODE\C\MSXgl\projects\soccerlgMSX2/soccerlg_s9_b3.c:114: *wait_secs = 2;
	ld	l, -5 (ix)
	ld	h, -4 (ix)
	ld	(hl), #0x02
;E:\Dropbox\FAUSTO\SVILUPPI\MSX\CODE\C\MSXgl\projects\soccerlgMSX2/soccerlg_s9_b3.c:115: *start_sec = Frms;
	ld	l, -8 (ix)
	ld	h, -7 (ix)
	ld	a, (_Frms+0)
	ld	(hl), a
;E:\Dropbox\FAUSTO\SVILUPPI\MSX\CODE\C\MSXgl\projects\soccerlgMSX2/soccerlg_s9_b3.c:116: CallFnc_VOID(SEG_EVENTS, EventKickOffReady);
	ld	de, #_EventKickOffReady
	ld	a, #0x08
	call	_CallFnc_VOID
	jp	00342$
00320$:
;E:\Dropbox\FAUSTO\SVILUPPI\MSX\CODE\C\MSXgl\projects\soccerlgMSX2/soccerlg_s9_b3.c:118: } else if (*game_state == 3) {
	ld	a, -1 (ix)
	sub	a, #0x03
	jp	NZ,00317$
;E:\Dropbox\FAUSTO\SVILUPPI\MSX\CODE\C\MSXgl\projects\soccerlgMSX2/soccerlg_s9_b3.c:120: if (Mins == 0 && Secs == 0) {
	ld	a, (_Mins+0)
	or	a, a
	jr	NZ, 00161$
	ld	a, (_Secs+0)
	or	a, a
	jr	NZ, 00161$
;E:\Dropbox\FAUSTO\SVILUPPI\MSX\CODE\C\MSXgl\projects\soccerlgMSX2/soccerlg_s9_b3.c:121: if (Half == 1) {
	ld	a, (_Half+0)
	dec	a
	jr	NZ, 00158$
;E:\Dropbox\FAUSTO\SVILUPPI\MSX\CODE\C\MSXgl\projects\soccerlgMSX2/soccerlg_s9_b3.c:122: *game_state = 4;
	ld	l, -3 (ix)
	ld	h, -2 (ix)
	ld	(hl), #0x04
;E:\Dropbox\FAUSTO\SVILUPPI\MSX\CODE\C\MSXgl\projects\soccerlgMSX2/soccerlg_s9_b3.c:123: *wait_secs = 2;
	ld	l, -5 (ix)
	ld	h, -4 (ix)
	ld	(hl), #0x02
;E:\Dropbox\FAUSTO\SVILUPPI\MSX\CODE\C\MSXgl\projects\soccerlgMSX2/soccerlg_s9_b3.c:124: *start_sec = Frms;
	ld	c, 4 (ix)
	ld	b, 5 (ix)
	ld	a, (_Frms+0)
	ld	(bc), a
;E:\Dropbox\FAUSTO\SVILUPPI\MSX\CODE\C\MSXgl\projects\soccerlgMSX2/soccerlg_s9_b3.c:125: CallFnc_VOID_16_P1(SEG_DRAW, ShowSpriteMessage, SPR_MSG_HALFTIME);
	ld	hl, #0x0144
	push	hl
	ld	de, #_ShowSpriteMessage
	ld	a, #0x05
	call	_CallFnc_VOID_16_P1
;E:\Dropbox\FAUSTO\SVILUPPI\MSX\CODE\C\MSXgl\projects\soccerlgMSX2/soccerlg_s9_b3.c:126: CallFnc_VOID(SEG_EVENTS, EventHalfTime);
	ld	de, #_EventHalfTime
	ld	a, #0x08
	call	_CallFnc_VOID
	jp	00342$
00158$:
;E:\Dropbox\FAUSTO\SVILUPPI\MSX\CODE\C\MSXgl\projects\soccerlgMSX2/soccerlg_s9_b3.c:127: } else if (Half == 2) {
	ld	a, (_Half+0)
	sub	a, #0x02
	jp	NZ,00342$
;E:\Dropbox\FAUSTO\SVILUPPI\MSX\CODE\C\MSXgl\projects\soccerlgMSX2/soccerlg_s9_b3.c:128: *game_state = 5;
	ld	l, -3 (ix)
	ld	h, -2 (ix)
	ld	(hl), #0x05
;E:\Dropbox\FAUSTO\SVILUPPI\MSX\CODE\C\MSXgl\projects\soccerlgMSX2/soccerlg_s9_b3.c:129: *wait_secs = 2;
	ld	l, -5 (ix)
	ld	h, -4 (ix)
	ld	(hl), #0x02
;E:\Dropbox\FAUSTO\SVILUPPI\MSX\CODE\C\MSXgl\projects\soccerlgMSX2/soccerlg_s9_b3.c:130: *start_sec = Frms;
	ld	c, 4 (ix)
	ld	b, 5 (ix)
	ld	a, (_Frms+0)
	ld	(bc), a
;E:\Dropbox\FAUSTO\SVILUPPI\MSX\CODE\C\MSXgl\projects\soccerlgMSX2/soccerlg_s9_b3.c:131: CallFnc_VOID_16_P1(SEG_DRAW, ShowSpriteMessage, SPR_MSG_TIMEUP);
	ld	hl, #0x0140
	push	hl
	ld	de, #_ShowSpriteMessage
	ld	a, #0x05
	call	_CallFnc_VOID_16_P1
;E:\Dropbox\FAUSTO\SVILUPPI\MSX\CODE\C\MSXgl\projects\soccerlgMSX2/soccerlg_s9_b3.c:133: return;
	jp	00342$
00161$:
;E:\Dropbox\FAUSTO\SVILUPPI\MSX\CODE\C\MSXgl\projects\soccerlgMSX2/soccerlg_s9_b3.c:137: if (*wait_secs > 0) {
	ld	l, -5 (ix)
	ld	h, -4 (ix)
	ld	a, (hl)
	ld	-1 (ix), a
	or	a, a
	jr	Z, 00168$
;E:\Dropbox\FAUSTO\SVILUPPI\MSX\CODE\C\MSXgl\projects\soccerlgMSX2/soccerlg_s9_b3.c:138: if (*start_sec < Frms) { // Frms wrapped from 1 to 60
	ld	a, 4 (ix)
	ld	-7 (ix), a
	ld	a, 5 (ix)
	ld	-6 (ix), a
	ld	l, -7 (ix)
	ld	h, -6 (ix)
	ld	c, (hl)
	ld	hl, #_Frms
	ld	a, c
	sub	a, (hl)
	jr	NC, 00166$
;E:\Dropbox\FAUSTO\SVILUPPI\MSX\CODE\C\MSXgl\projects\soccerlgMSX2/soccerlg_s9_b3.c:139: (*wait_secs)--;
	ld	a, -1 (ix)
	dec	a
	ld	l, -5 (ix)
	ld	h, -4 (ix)
	ld	(hl), a
;E:\Dropbox\FAUSTO\SVILUPPI\MSX\CODE\C\MSXgl\projects\soccerlgMSX2/soccerlg_s9_b3.c:140: if (*wait_secs == 0) {
	or	a, a
	jr	NZ, 00166$
;E:\Dropbox\FAUSTO\SVILUPPI\MSX\CODE\C\MSXgl\projects\soccerlgMSX2/soccerlg_s9_b3.c:141: CallFnc_VOID(SEG_DRAW, HideSpriteMessage);
	ld	de, #_HideSpriteMessage
	ld	a, #0x05
	call	_CallFnc_VOID
;E:\Dropbox\FAUSTO\SVILUPPI\MSX\CODE\C\MSXgl\projects\soccerlgMSX2/soccerlg_s9_b3.c:142: TimerEnabled = TRUE; // Avvia il cronometro alla sparizione della scritta
	ld	iy, #_TimerEnabled
	ld	0 (iy), #0x01
00166$:
;E:\Dropbox\FAUSTO\SVILUPPI\MSX\CODE\C\MSXgl\projects\soccerlgMSX2/soccerlg_s9_b3.c:145: *start_sec = Frms;
	ld	l, -7 (ix)
	ld	h, -6 (ix)
	ld	a, (_Frms+0)
	ld	(hl), a
;E:\Dropbox\FAUSTO\SVILUPPI\MSX\CODE\C\MSXgl\projects\soccerlgMSX2/soccerlg_s9_b3.c:147: return; // Ferma l'IA e il gioco finché la scritta non sparisce
	jp	00342$
00168$:
;E:\Dropbox\FAUSTO\SVILUPPI\MSX\CODE\C\MSXgl\projects\soccerlgMSX2/soccerlg_s9_b3.c:151: CallFnc_VOID(SEG_FIELD, UpdateFieldCamera);
	ld	de, #_UpdateFieldCamera
	ld	a, #0x0a
	call	_CallFnc_VOID
;E:\Dropbox\FAUSTO\SVILUPPI\MSX\CODE\C\MSXgl\projects\soccerlgMSX2/soccerlg_s9_b3.c:152: CallFnc_VOID_3PTR(SEG_FIELD, CheckFieldBoundaries, game_state, wait_secs, start_sec);
	ld	l, 4 (ix)
;	spillPairReg hl
;	spillPairReg hl
	ld	h, 5 (ix)
;	spillPairReg hl
;	spillPairReg hl
	push	hl
	ld	l, -5 (ix)
;	spillPairReg hl
;	spillPairReg hl
	ld	h, -4 (ix)
;	spillPairReg hl
;	spillPairReg hl
	push	hl
	ld	l, -3 (ix)
;	spillPairReg hl
;	spillPairReg hl
	ld	h, -2 (ix)
;	spillPairReg hl
;	spillPairReg hl
	push	hl
	ld	de, #_CheckFieldBoundaries
	ld	a, #0x0a
	call	_CallFnc_VOID_3PTR
;E:\Dropbox\FAUSTO\SVILUPPI\MSX\CODE\C\MSXgl\projects\soccerlgMSX2/soccerlg_s9_b3.c:155: g_h_arrow_x += g_h_arrow_dir;
	ld	a, (_g_h_arrow_dir+0)
	ld	-7 (ix), a
	rlca
	sbc	a, a
	ld	-6 (ix), a
	ld	hl, (_g_h_arrow_x)
	ld	-11 (ix), l
	ld	-10 (ix), h
	ld	a, -7 (ix)
	ld	-9 (ix), a
	ld	a, -6 (ix)
	ld	-8 (ix), a
	ld	a, -11 (ix)
	add	a, -9 (ix)
	ld	-7 (ix), a
	ld	a, -10 (ix)
	adc	a, -8 (ix)
	ld	-6 (ix), a
	ld	l, -7 (ix)
	ld	h, -6 (ix)
;E:\Dropbox\FAUSTO\SVILUPPI\MSX\CODE\C\MSXgl\projects\soccerlgMSX2/soccerlg_s9_b3.c:156: if (g_h_arrow_x < 50) { g_h_arrow_x = 50; g_h_arrow_dir = 1; }
	ld	(_g_h_arrow_x), hl
	ld	a, l
	sub	a, #0x32
	ld	a, h
	sbc	a, #0x00
	jr	NC, 00172$
	ld	hl, #0x0032
	ld	(_g_h_arrow_x), hl
	ld	hl, #_g_h_arrow_dir
	ld	(hl), #0x01
	jp	00173$
00172$:
;E:\Dropbox\FAUSTO\SVILUPPI\MSX\CODE\C\MSXgl\projects\soccerlgMSX2/soccerlg_s9_b3.c:157: else if (g_h_arrow_x > 150) { g_h_arrow_x = 150; g_h_arrow_dir = -1; }
	ld	a, #0x96
	cp	a, l
	ld	a, #0x00
	sbc	a, h
	jr	NC, 00173$
	ld	hl, #0x0096
	ld	(_g_h_arrow_x), hl
	ld	hl, #_g_h_arrow_dir
	ld	(hl), #0xff
00173$:
;E:\Dropbox\FAUSTO\SVILUPPI\MSX\CODE\C\MSXgl\projects\soccerlgMSX2/soccerlg_s9_b3.c:159: SwSprite[24].lx = (u8)g_h_arrow_x;
	ld	a, (_g_h_arrow_x+0)
	ld	-1 (ix), a
	ld	hl, #(_SwSprite + 552)
	ld	a, -1 (ix)
	ld	(hl), a
;E:\Dropbox\FAUSTO\SVILUPPI\MSX\CODE\C\MSXgl\projects\soccerlgMSX2/soccerlg_s9_b3.c:160: SwSprite[24].ly = 50; 
	ld	hl, #0x0032
	ld	((_SwSprite + 556)), hl
;E:\Dropbox\FAUSTO\SVILUPPI\MSX\CODE\C\MSXgl\projects\soccerlgMSX2/soccerlg_s9_b3.c:161: SwSprite[24].frame = SPR_BIG_ARROW_TOP;
	ld	l, #0x6c
	ld	((_SwSprite + 567)), hl
;E:\Dropbox\FAUSTO\SVILUPPI\MSX\CODE\C\MSXgl\projects\soccerlgMSX2/soccerlg_s9_b3.c:165: struct ObjectInfo* Ball = &SwSprite[14];
;E:\Dropbox\FAUSTO\SVILUPPI\MSX\CODE\C\MSXgl\projects\soccerlgMSX2/soccerlg_s9_b3.c:167: u8 closest_t1 = 1; u16 min_dist_t1 = 0xFFFF;
	ld	-17 (ix), #0x01
	ld	-16 (ix), #0xff
	ld	-15 (ix), #0xff
;E:\Dropbox\FAUSTO\SVILUPPI\MSX\CODE\C\MSXgl\projects\soccerlgMSX2/soccerlg_s9_b3.c:168: u8 closest_t2 = 8; u16 min_dist_t2 = 0xFFFF;
	ld	-14 (ix), #0x08
	ld	-13 (ix), #0xff
	ld	-12 (ix), #0xff
;E:\Dropbox\FAUSTO\SVILUPPI\MSX\CODE\C\MSXgl\projects\soccerlgMSX2/soccerlg_s9_b3.c:170: for (u8 i = 1; i < 7; i++) { 
	ld	-1 (ix), #0x01
00332$:
	ld	a, -1 (ix)
	sub	a, #0x07
	jp	NC, 00176$
;E:\Dropbox\FAUSTO\SVILUPPI\MSX\CODE\C\MSXgl\projects\soccerlgMSX2/soccerlg_s9_b3.c:171: u8 dx_diff = (u8)(SwSprite[i].lx - Ball->lx);
	ld	c, -1 (ix)
	ld	b, #0x00
	ld	l, c
	ld	h, b
	add	hl, hl
	add	hl, hl
	add	hl, bc
	add	hl, hl
	add	hl, bc
	add	hl, hl
	add	hl, bc
	ld	de, #_SwSprite
	add	hl, de
	ld	c, l
	ld	b, h
	ld	a, (bc)
	ld	hl, #(_SwSprite + 322)
	ld	e, (hl)
	sub	a, e
;E:\Dropbox\FAUSTO\SVILUPPI\MSX\CODE\C\MSXgl\projects\soccerlgMSX2/soccerlg_s9_b3.c:172: u16 dist_x = (dx_diff < 128) ? dx_diff : (256 - dx_diff);
	ld	e, a
	ld	d, #0x00
	sub	a, #0x80
	jr	NC, 00372$
	ld	a, d
	jp	00373$
00372$:
	xor	a, a
	sub	a, e
	ld	e, a
	ld	a, #0x01
	sbc	a, d
00373$:
	ld	-11 (ix), e
	ld	-10 (ix), a
;E:\Dropbox\FAUSTO\SVILUPPI\MSX\CODE\C\MSXgl\projects\soccerlgMSX2/soccerlg_s9_b3.c:173: u16 dy_diff = (u16)(SwSprite[i].ly - Ball->ly) & 511;
	ld	hl, #4
	add	hl, bc
	ld	c, (hl)
	inc	hl
	ld	b, (hl)
	ld	hl, (#(_SwSprite + 326) + 0)
	ld	a, c
	sub	a, l
	ld	c, a
	ld	a, b
	sbc	a, h
	and	a, #0x01
	ld	-9 (ix), c
;E:\Dropbox\FAUSTO\SVILUPPI\MSX\CODE\C\MSXgl\projects\soccerlgMSX2/soccerlg_s9_b3.c:174: u16 dist_y = (dy_diff < 256) ? dy_diff : (512 - dy_diff);
	ld	-8 (ix), a
	sub	a, #0x01
	jr	NC, 00374$
	ld	a, -9 (ix)
	ld	-7 (ix), a
	ld	a, -8 (ix)
	ld	-6 (ix), a
	jp	00375$
00374$:
	xor	a, a
	sub	a, -9 (ix)
	ld	-7 (ix), a
	ld	a, #0x02
	sbc	a, -8 (ix)
	ld	-6 (ix), a
00375$:
	ld	a, -7 (ix)
	ld	b, -6 (ix)
;E:\Dropbox\FAUSTO\SVILUPPI\MSX\CODE\C\MSXgl\projects\soccerlgMSX2/soccerlg_s9_b3.c:175: if (dist_x + dist_y < min_dist_t1) { min_dist_t1 = dist_x + dist_y; closest_t1 = i; }
	add	a, -11 (ix)
	ld	c, a
	ld	a, b
	adc	a, -10 (ix)
	ld	b, a
	ld	a, c
	sub	a, -16 (ix)
	ld	a, b
	sbc	a, -15 (ix)
	jr	NC, 00333$
	ld	-16 (ix), c
	ld	-15 (ix), b
	ld	a, -1 (ix)
	ld	-17 (ix), a
00333$:
;E:\Dropbox\FAUSTO\SVILUPPI\MSX\CODE\C\MSXgl\projects\soccerlgMSX2/soccerlg_s9_b3.c:170: for (u8 i = 1; i < 7; i++) { 
	inc	-1 (ix)
	jp	00332$
00176$:
;E:\Dropbox\FAUSTO\SVILUPPI\MSX\CODE\C\MSXgl\projects\soccerlgMSX2/soccerlg_s9_b3.c:177: for (u8 i = 8; i < 14; i++) {
	ld	c, #0x08
00335$:
	ld	a, c
	sub	a, #0x0e
	jr	NC, 00179$
;E:\Dropbox\FAUSTO\SVILUPPI\MSX\CODE\C\MSXgl\projects\soccerlgMSX2/soccerlg_s9_b3.c:178: u8 dx_diff = (u8)(SwSprite[i].lx - Ball->lx);
	ld	b, #0x00
	ld	l, c
	ld	h, b
	add	hl, hl
	add	hl, hl
	add	hl, bc
	add	hl, hl
	add	hl, bc
	add	hl, hl
	add	hl, bc
	ld	de, #_SwSprite
	add	hl, de
	ld	-9 (ix), l
	ld	-8 (ix), h
	ld	a, (hl)
	ld	hl, #(_SwSprite + 322)
	ld	b, (hl)
	sub	a, b
;E:\Dropbox\FAUSTO\SVILUPPI\MSX\CODE\C\MSXgl\projects\soccerlgMSX2/soccerlg_s9_b3.c:179: u16 dist_x = (dx_diff < 128) ? dx_diff : (256 - dx_diff);
	ld	e, a
	ld	d, #0x00
	sub	a, #0x80
	jr	NC, 00376$
	ld	a, d
	jp	00377$
00376$:
	xor	a, a
	sub	a, e
	ld	e, a
	ld	a, #0x01
	sbc	a, d
00377$:
	ld	-7 (ix), e
	ld	-6 (ix), a
;E:\Dropbox\FAUSTO\SVILUPPI\MSX\CODE\C\MSXgl\projects\soccerlgMSX2/soccerlg_s9_b3.c:180: u16 dy_diff = (u16)(SwSprite[i].ly - Ball->ly) & 511;
	ld	e, -9 (ix)
	ld	d, -8 (ix)
	ld	hl, #4
	add	hl, de
	ld	e, (hl)
	inc	hl
	ld	d, (hl)
	ld	hl, (#(_SwSprite + 326) + 0)
	ld	a, e
	sub	a, l
	ld	e, a
	ld	a, d
	sbc	a, h
	and	a, #0x01
;E:\Dropbox\FAUSTO\SVILUPPI\MSX\CODE\C\MSXgl\projects\soccerlgMSX2/soccerlg_s9_b3.c:181: u16 dist_y = (dy_diff < 256) ? dy_diff : (512 - dy_diff);
;	spillPairReg hl
;	spillPairReg hl
	ld	d, a
	sub	a, #0x01
	jr	C, 00379$
	ld	hl, #0x0200
	cp	a, a
	sbc	hl, de
	ex	de, hl
00379$:
;E:\Dropbox\FAUSTO\SVILUPPI\MSX\CODE\C\MSXgl\projects\soccerlgMSX2/soccerlg_s9_b3.c:182: if (dist_x + dist_y < min_dist_t2) { min_dist_t2 = dist_x + dist_y; closest_t2 = i; }
	ld	a, -7 (ix)
	add	a, e
	ld	b, a
	ld	a, -6 (ix)
	adc	a, d
	ld	e, a
	ld	a, b
	sub	a, -13 (ix)
	ld	a, e
	sbc	a, -12 (ix)
	jr	NC, 00336$
	ld	-13 (ix), b
	ld	-12 (ix), e
	ld	-14 (ix), c
00336$:
;E:\Dropbox\FAUSTO\SVILUPPI\MSX\CODE\C\MSXgl\projects\soccerlgMSX2/soccerlg_s9_b3.c:177: for (u8 i = 8; i < 14; i++) {
	inc	c
	jp	00335$
00179$:
;E:\Dropbox\FAUSTO\SVILUPPI\MSX\CODE\C\MSXgl\projects\soccerlgMSX2/soccerlg_s9_b3.c:186: T2_Carrier = closest_t2;
	ld	a, -14 (ix)
	ld	(_T2_Carrier+0), a
;E:\Dropbox\FAUSTO\SVILUPPI\MSX\CODE\C\MSXgl\projects\soccerlgMSX2/soccerlg_s9_b3.c:187: if (GameMode == GAMEMODE_P1_VS_P2) T1_Carrier = closest_t1;
	ld	a, (_GameMode+0)
	dec	a
	jr	NZ, 00181$
	ld	a, -17 (ix)
	ld	(_T1_Carrier+0), a
	jp	00182$
00181$:
;E:\Dropbox\FAUSTO\SVILUPPI\MSX\CODE\C\MSXgl\projects\soccerlgMSX2/soccerlg_s9_b3.c:188: else T1_Carrier = 0xFF;
	ld	hl, #_T1_Carrier
	ld	(hl), #0xff
00182$:
;E:\Dropbox\FAUSTO\SVILUPPI\MSX\CODE\C\MSXgl\projects\soccerlgMSX2/soccerlg_s9_b3.c:191: if (min_dist_t2 <= 24) T2_Receiver = (u8)CallFnc_U16_P4B(SEG_LOGIC, FindReceiver, T2_Carrier, 0xFF, g_last_dx[1], g_last_dy[1]);
	ld	c, -13 (ix)
	ld	b, -12 (ix)
	ld	a, #0x18
	cp	a, c
	ld	a, #0x00
	sbc	a, b
	jr	C, 00184$
	ld	hl, #_g_last_dy+1
	ld	b, (hl)
	ld	a, (#(_g_last_dx + 1) + 0)
	push	bc
	inc	sp
	ld	h, a
	ld	l, #0xff
	push	hl
	ld	a, (_T2_Carrier+0)
	push	af
	inc	sp
	ld	de, #_FindReceiver
	ld	a, #0x06
	call	_CallFnc_U16_P4B
	ld	iy, #_T2_Receiver
	ld	0 (iy), e
	jp	00185$
00184$:
;E:\Dropbox\FAUSTO\SVILUPPI\MSX\CODE\C\MSXgl\projects\soccerlgMSX2/soccerlg_s9_b3.c:192: else T2_Receiver = 0xFF;
	ld	iy, #_T2_Receiver
	ld	0 (iy), #0xff
00185$:
;E:\Dropbox\FAUSTO\SVILUPPI\MSX\CODE\C\MSXgl\projects\soccerlgMSX2/soccerlg_s9_b3.c:194: if (GameMode == GAMEMODE_P1_VS_P2) {
	ld	a, (_GameMode+0)
	dec	a
	jr	NZ, 00190$
;E:\Dropbox\FAUSTO\SVILUPPI\MSX\CODE\C\MSXgl\projects\soccerlgMSX2/soccerlg_s9_b3.c:195: if (min_dist_t1 <= 24) T1_Receiver = (u8)CallFnc_U16_P4B(SEG_LOGIC, FindReceiver, T1_Carrier, 0xFF, g_last_dx[0], g_last_dy[0]);
	ld	c, -16 (ix)
	ld	b, -15 (ix)
	ld	a, #0x18
	cp	a, c
	ld	a, #0x00
	sbc	a, b
	jr	C, 00187$
	ld	hl, #_g_last_dy+0
	ld	b, (hl)
	ld	a, (#_g_last_dx + 0)
	push	bc
	inc	sp
	ld	h, a
	ld	l, #0xff
	push	hl
	ld	a, (_T1_Carrier+0)
	push	af
	inc	sp
	ld	de, #_FindReceiver
	ld	a, #0x06
	call	_CallFnc_U16_P4B
	ld	iy, #_T1_Receiver
	ld	0 (iy), e
	jp	00190$
00187$:
;E:\Dropbox\FAUSTO\SVILUPPI\MSX\CODE\C\MSXgl\projects\soccerlgMSX2/soccerlg_s9_b3.c:196: else T1_Receiver = 0xFF;
	ld	iy, #_T1_Receiver
	ld	0 (iy), #0xff
00190$:
;E:\Dropbox\FAUSTO\SVILUPPI\MSX\CODE\C\MSXgl\projects\soccerlgMSX2/soccerlg_s9_b3.c:202: if (Ball->anim > 0) {
	ld	bc, (#(_SwSprite + 341) + 0)
;E:\Dropbox\FAUSTO\SVILUPPI\MSX\CODE\C\MSXgl\projects\soccerlgMSX2/soccerlg_s9_b3.c:240: Ball->dx = Ball->dy = 0;
;E:\Dropbox\FAUSTO\SVILUPPI\MSX\CODE\C\MSXgl\projects\soccerlgMSX2/soccerlg_s9_b3.c:202: if (Ball->anim > 0) {
	ld	a, b
	or	a, c
	jp	Z, 00218$
;E:\Dropbox\FAUSTO\SVILUPPI\MSX\CODE\C\MSXgl\projects\soccerlgMSX2/soccerlg_s9_b3.c:203: if (Ball->anim == 5) {
	ld	e, c
	ld	d, b
	ld	a, e
	sub	a, #0x05
	or	a, d
	jp	NZ,00215$
;E:\Dropbox\FAUSTO\SVILUPPI\MSX\CODE\C\MSXgl\projects\soccerlgMSX2/soccerlg_s9_b3.c:205: u8 progress = Ball->count; // 0 = inizio da tiratore, max = fine verso ricevitore
	ld	a, (#(_SwSprite + 343) + 0)
	ld	-6 (ix), a
;E:\Dropbox\FAUSTO\SVILUPPI\MSX\CODE\C\MSXgl\projects\soccerlgMSX2/soccerlg_s9_b3.c:206: u8 half_frame = g_pass_max_frames >> 1; // metà del percorso
	ld	a, (_g_pass_max_frames+0)
	srl	a
	ld	-1 (ix), a
;E:\Dropbox\FAUSTO\SVILUPPI\MSX\CODE\C\MSXgl\projects\soccerlgMSX2/soccerlg_s9_b3.c:209: if (progress == 0) {
	ld	a, -6 (ix)
	or	a, a
	jr	NZ, 00195$
;E:\Dropbox\FAUSTO\SVILUPPI\MSX\CODE\C\MSXgl\projects\soccerlgMSX2/soccerlg_s9_b3.c:210: Ball->lx = g_pass_start_x;
	ld	a, (_g_pass_start_x+0)
	ld	(#(_SwSprite + 322)),a
;E:\Dropbox\FAUSTO\SVILUPPI\MSX\CODE\C\MSXgl\projects\soccerlgMSX2/soccerlg_s9_b3.c:211: Ball->ly = g_pass_start_y;
	ld	hl, #(_SwSprite + 326)
	ld	a, (_g_pass_start_y+0)
	ld	(hl), a
	inc	hl
	ld	a, (_g_pass_start_y+1)
	ld	(hl), a
	jp	00196$
00195$:
;E:\Dropbox\FAUSTO\SVILUPPI\MSX\CODE\C\MSXgl\projects\soccerlgMSX2/soccerlg_s9_b3.c:212: } else if (progress >= g_pass_max_frames) {
	ld	hl, #_g_pass_max_frames
	ld	a, -6 (ix)
	sub	a, (hl)
	jr	C, 00192$
;E:\Dropbox\FAUSTO\SVILUPPI\MSX\CODE\C\MSXgl\projects\soccerlgMSX2/soccerlg_s9_b3.c:213: Ball->lx = g_pass_target_x;
	ld	a, (_g_pass_target_x+0)
	ld	(#(_SwSprite + 322)),a
;E:\Dropbox\FAUSTO\SVILUPPI\MSX\CODE\C\MSXgl\projects\soccerlgMSX2/soccerlg_s9_b3.c:214: Ball->ly = g_pass_target_y;
	ld	hl, #(_SwSprite + 326)
	ld	a, (_g_pass_target_y+0)
	ld	(hl), a
	inc	hl
	ld	a, (_g_pass_target_y+1)
	ld	(hl), a
	jp	00196$
00192$:
;E:\Dropbox\FAUSTO\SVILUPPI\MSX\CODE\C\MSXgl\projects\soccerlgMSX2/soccerlg_s9_b3.c:217: i16 dx_total = (i16)g_pass_target_x - (i16)g_pass_start_x;
	ld	hl, (_g_pass_target_x)
	ld	bc, (_g_pass_start_x)
	cp	a, a
	sbc	hl, bc
;E:\Dropbox\FAUSTO\SVILUPPI\MSX\CODE\C\MSXgl\projects\soccerlgMSX2/soccerlg_s9_b3.c:218: i16 dy_total = (i16)g_pass_target_y - (i16)g_pass_start_y;
	ld	bc, (_g_pass_target_y)
	ld	de, (_g_pass_start_y)
	ld	a, c
	sub	a, e
	ld	c, a
	ld	a, b
	sbc	a, d
	ld	b, a
	ld	-9 (ix), c
	ld	-8 (ix), b
;E:\Dropbox\FAUSTO\SVILUPPI\MSX\CODE\C\MSXgl\projects\soccerlgMSX2/soccerlg_s9_b3.c:219: Ball->lx = (u16)((i16)g_pass_start_x + (dx_total * progress) / g_pass_max_frames);
	ld	a, (_g_pass_start_x+0)
	ld	-7 (ix), a
	ld	c, -6 (ix)
	ld	b, #0x00
	push	bc
	ld	e, c
	ld	d, b
	call	__mulint
	ex	de, hl
	pop	bc
	ld	a, (_g_pass_max_frames+0)
	ld	e, a
	ld	d, #0x00
	push	bc
	call	__divsint
	pop	bc
	ld	a, e
	add	a, -7 (ix)
	ld	(#(_SwSprite + 322)),a
;E:\Dropbox\FAUSTO\SVILUPPI\MSX\CODE\C\MSXgl\projects\soccerlgMSX2/soccerlg_s9_b3.c:220: Ball->ly = (u16)((i16)g_pass_start_y + (dy_total * progress) / g_pass_max_frames);
	ld	hl, (_g_pass_start_y)
	push	hl
	ld	e, c
	ld	d, b
	ld	l, -9 (ix)
;	spillPairReg hl
;	spillPairReg hl
	ld	h, -8 (ix)
;	spillPairReg hl
;	spillPairReg hl
	call	__mulint
	ld	c, e
	ld	b, d
	pop	hl
	ld	a, (_g_pass_max_frames+0)
	ld	e, a
	ld	d, #0x00
	push	hl
	ld	l, c
;	spillPairReg hl
;	spillPairReg hl
	ld	h, b
;	spillPairReg hl
;	spillPairReg hl
	call	__divsint
	pop	hl
	add	hl, de
	ex	de, hl
	ld	((_SwSprite + 326)), de
00196$:
;E:\Dropbox\FAUSTO\SVILUPPI\MSX\CODE\C\MSXgl\projects\soccerlgMSX2/soccerlg_s9_b3.c:227: scale = 1 + (progress * g_pass_max_height) / half_frame;
	ld	a, -1 (ix)
	ld	-13 (ix), a
	ld	-12 (ix), #0x00
;E:\Dropbox\FAUSTO\SVILUPPI\MSX\CODE\C\MSXgl\projects\soccerlgMSX2/soccerlg_s9_b3.c:225: if (progress <= half_frame) {
	ld	a, -1 (ix)
	sub	a, -6 (ix)
	jr	C, 00198$
;E:\Dropbox\FAUSTO\SVILUPPI\MSX\CODE\C\MSXgl\projects\soccerlgMSX2/soccerlg_s9_b3.c:227: scale = 1 + (progress * g_pass_max_height) / half_frame;
	ld	a, (#_g_pass_max_height + 0)
	ld	e, a
	ld	h, -6 (ix)
;	spillPairReg hl
;	spillPairReg hl
	ld	l, #0x00
	ld	d, l
	ld	b, #0x08
01144$:
	add	hl, hl
	jr	NC, 01145$
	add	hl, de
01145$:
	djnz	01144$
	ld	e, -13 (ix)
	ld	d, -12 (ix)
	call	__divsint
	ld	b, e
	inc	b
	jp	00199$
00198$:
;E:\Dropbox\FAUSTO\SVILUPPI\MSX\CODE\C\MSXgl\projects\soccerlgMSX2/soccerlg_s9_b3.c:230: u8 progress_down = progress - half_frame;
	ld	a, -6 (ix)
	sub	a, -1 (ix)
	ld	-1 (ix), a
	ld	-6 (ix), a
;E:\Dropbox\FAUSTO\SVILUPPI\MSX\CODE\C\MSXgl\projects\soccerlgMSX2/soccerlg_s9_b3.c:231: scale = 1 + g_pass_max_height - (progress_down * g_pass_max_height) / (g_pass_max_frames - half_frame);
	ld	a, (_g_pass_max_height+0)
	ld	-1 (ix), a
	inc	-1 (ix)
	ld	a, (#_g_pass_max_height + 0)
	ld	e, a
	ld	h, -6 (ix)
;	spillPairReg hl
;	spillPairReg hl
	ld	l, #0x00
	ld	d, l
	ld	b, #0x08
01146$:
	add	hl, hl
	jr	NC, 01147$
	add	hl, de
01147$:
	djnz	01146$
	ld	-11 (ix), l
	ld	-10 (ix), h
	ld	a, (_g_pass_max_frames+0)
	ld	-9 (ix), a
	ld	-8 (ix), #0x00
	ld	a, -9 (ix)
	sub	a, -13 (ix)
	ld	-7 (ix), a
	ld	a, -8 (ix)
	sbc	a, -12 (ix)
	ld	-6 (ix), a
	ld	e, -7 (ix)
	ld	d, -6 (ix)
	ld	l, -11 (ix)
;	spillPairReg hl
;	spillPairReg hl
	ld	h, -10 (ix)
;	spillPairReg hl
;	spillPairReg hl
	call	__divsint
	ld	-7 (ix), e
	ld	-6 (ix), d
	ld	a, -7 (ix)
	ld	-6 (ix), a
	ld	a, -1 (ix)
	sub	a, -6 (ix)
	ld	b, a
00199$:
;E:\Dropbox\FAUSTO\SVILUPPI\MSX\CODE\C\MSXgl\projects\soccerlgMSX2/soccerlg_s9_b3.c:233: if (scale > 7) scale = 7; // Clamp a 7 (SPR_BALL_SIZE_8 = SPR_BALL_SIZE_1 + 7)
	ld	a, #0x07
	sub	a, b
	jr	NC, 00201$
	ld	b, #0x07
00201$:
;E:\Dropbox\FAUSTO\SVILUPPI\MSX\CODE\C\MSXgl\projects\soccerlgMSX2/soccerlg_s9_b3.c:234: CallFnc_VOID_P1(SEG_DRAW, SetBallSprite, scale);
	push	bc
	inc	sp
	ld	de, #_SetBallSprite
	ld	a, #0x05
	call	_CallFnc_VOID_P1
;E:\Dropbox\FAUSTO\SVILUPPI\MSX\CODE\C\MSXgl\projects\soccerlgMSX2/soccerlg_s9_b3.c:236: Ball->count++;
	ld	bc, (#(_SwSprite + 343) + 0)
	inc	bc
	ld	((_SwSprite + 343)), bc
;E:\Dropbox\FAUSTO\SVILUPPI\MSX\CODE\C\MSXgl\projects\soccerlgMSX2/soccerlg_s9_b3.c:237: if (Ball->count >= g_pass_max_frames) {
	ld	a, (_g_pass_max_frames+0)
	ld	e, a
	ld	d, #0x00
	ld	a, c
	sub	a, e
	ld	a, b
	sbc	a, d
	jp	C, 00218$
;E:\Dropbox\FAUSTO\SVILUPPI\MSX\CODE\C\MSXgl\projects\soccerlgMSX2/soccerlg_s9_b3.c:238: Ball->anim = 0; // Passaggio completato
	ld	hl, #0x0000
	ld	((_SwSprite + 341)), hl
;E:\Dropbox\FAUSTO\SVILUPPI\MSX\CODE\C\MSXgl\projects\soccerlgMSX2/soccerlg_s9_b3.c:239: Ball->count = 0;
	ld	((_SwSprite + 343)), hl
;E:\Dropbox\FAUSTO\SVILUPPI\MSX\CODE\C\MSXgl\projects\soccerlgMSX2/soccerlg_s9_b3.c:240: Ball->dx = Ball->dy = 0;
	ld	hl, #(_SwSprite + 340)
	ld	(hl), #0x00
	ld	hl, #(_SwSprite + 339)
	ld	(hl), #0x00
;E:\Dropbox\FAUSTO\SVILUPPI\MSX\CODE\C\MSXgl\projects\soccerlgMSX2/soccerlg_s9_b3.c:241: CallFnc_VOID_P1(SEG_DRAW, SetBallSprite, 0); // Torna a scale 1
	xor	a, a
	push	af
	inc	sp
	ld	de, #_SetBallSprite
	ld	a, #0x05
	call	_CallFnc_VOID_P1
	jp	00218$
00215$:
;E:\Dropbox\FAUSTO\SVILUPPI\MSX\CODE\C\MSXgl\projects\soccerlgMSX2/soccerlg_s9_b3.c:245: u8 speed = Ball->anim + 1;
	ld	a, c
	inc	a
	ld	-1 (ix), a
;E:\Dropbox\FAUSTO\SVILUPPI\MSX\CODE\C\MSXgl\projects\soccerlgMSX2/soccerlg_s9_b3.c:246: if (Ball->dx > 0) Ball->lx += speed;
	ld	hl, #(_SwSprite + 322) + 17
	ld	c, (hl)
	xor	a, a
	sub	a, c
	jp	PO, 01148$
	xor	a, #0x80
01148$:
	jp	P, 00207$
	ld	a, (#(_SwSprite + 322) + 0)
	ld	-6 (ix), a
	add	a, -1 (ix)
	ld	-6 (ix), a
	ld	hl, #(_SwSprite + 322)
	ld	a, -6 (ix)
	ld	(hl), a
	jp	00208$
00207$:
;E:\Dropbox\FAUSTO\SVILUPPI\MSX\CODE\C\MSXgl\projects\soccerlgMSX2/soccerlg_s9_b3.c:247: else if (Ball->dx < 0) Ball->lx -= speed;
	bit	7, c
	jr	Z, 00208$
	ld	a, (#(_SwSprite + 322) + 0)
	sub	a, -1 (ix)
	ld	(#(_SwSprite + 322)),a
00208$:
;E:\Dropbox\FAUSTO\SVILUPPI\MSX\CODE\C\MSXgl\projects\soccerlgMSX2/soccerlg_s9_b3.c:249: if (Ball->dy > 0) Ball->ly += speed;
	ld	a, (#(_SwSprite + 340) + 0)
	ld	-6 (ix), a
	xor	a, a
	sub	a, -6 (ix)
	jp	PO, 01149$
	xor	a, #0x80
01149$:
	jp	P, 00212$
	ld	hl, #(_SwSprite + 326)
	ld	a, (hl)
	ld	-9 (ix), a
	inc	hl
	ld	a, (hl)
	ld	-8 (ix), a
	ld	a, -1 (ix)
	ld	-7 (ix), a
	ld	-6 (ix), #0x00
	ld	a, -7 (ix)
	add	a, -9 (ix)
	ld	-11 (ix), a
	ld	a, -6 (ix)
	adc	a, -8 (ix)
	ld	-10 (ix), a
	ld	a, -11 (ix)
	ld	-7 (ix), a
	ld	a, -10 (ix)
	ld	-6 (ix), a
	ld	hl, #(_SwSprite + 326)
	ld	a, -7 (ix)
	ld	(hl), a
	inc	hl
	ld	a, -6 (ix)
	ld	(hl), a
	jp	00213$
00212$:
;E:\Dropbox\FAUSTO\SVILUPPI\MSX\CODE\C\MSXgl\projects\soccerlgMSX2/soccerlg_s9_b3.c:250: else if (Ball->dy < 0) Ball->ly -= speed;
	bit	7, -6 (ix)
	jr	Z, 00213$
	ld	hl, #(_SwSprite + 326)
	ld	a, (hl)
	ld	-9 (ix), a
	inc	hl
	ld	a, (hl)
	ld	-8 (ix), a
	ld	a, -1 (ix)
	ld	-7 (ix), a
	ld	-6 (ix), #0x00
	ld	a, -9 (ix)
	ld	-11 (ix), a
	ld	a, -8 (ix)
	ld	-10 (ix), a
	ld	a, -7 (ix)
	ld	-9 (ix), a
	ld	a, -6 (ix)
	ld	-8 (ix), a
	ld	a, -11 (ix)
	sub	a, -9 (ix)
	ld	-7 (ix), a
	ld	a, -10 (ix)
	sbc	a, -8 (ix)
	ld	-6 (ix), a
	ld	hl, #(_SwSprite + 326)
	ld	a, -7 (ix)
	ld	(hl), a
	inc	hl
	ld	a, -6 (ix)
	ld	(hl), a
00213$:
;E:\Dropbox\FAUSTO\SVILUPPI\MSX\CODE\C\MSXgl\projects\soccerlgMSX2/soccerlg_s9_b3.c:252: Ball->anim--;
	ld	bc, (#(_SwSprite + 341) + 0)
	dec	bc
	ld	((_SwSprite + 341)), bc
00218$:
;E:\Dropbox\FAUSTO\SVILUPPI\MSX\CODE\C\MSXgl\projects\soccerlgMSX2/soccerlg_s9_b3.c:257: u8 carriers[2] = {T1_Carrier, T2_Carrier};
	ld	a, (_T1_Carrier+0)
	ld	-27 (ix), a
	ld	a, (_T2_Carrier+0)
	ld	-26 (ix), a
;E:\Dropbox\FAUSTO\SVILUPPI\MSX\CODE\C\MSXgl\projects\soccerlgMSX2/soccerlg_s9_b3.c:258: u8 receivers[2] = {T1_Receiver, T2_Receiver};
	ld	a, (_T1_Receiver+0)
	ld	-25 (ix), a
	ld	a, (_T2_Receiver+0)
	ld	-24 (ix), a
;E:\Dropbox\FAUSTO\SVILUPPI\MSX\CODE\C\MSXgl\projects\soccerlgMSX2/soccerlg_s9_b3.c:260: for (u8 i = 0; i < 2; i++) { // i=0 per Team 1 (P2/CPU), i=1 per Team 2 (P1)
	ld	-1 (ix), #0x00
00338$:
	ld	a, -1 (ix)
	sub	a, #0x02
	jp	NC, 00314$
;E:\Dropbox\FAUSTO\SVILUPPI\MSX\CODE\C\MSXgl\projects\soccerlgMSX2/soccerlg_s9_b3.c:261: u8 carrier = carriers[i];
	ld	e, -1 (ix)
	ld	d, #0x00
	ld	hl, #3
	add	hl, sp
	add	hl, de
	ld	-7 (ix), l
	ld	-6 (ix), h
	ld	a, (hl)
;E:\Dropbox\FAUSTO\SVILUPPI\MSX\CODE\C\MSXgl\projects\soccerlgMSX2/soccerlg_s9_b3.c:262: if (carrier == 0xFF) continue;
	ld	-23 (ix), a
	inc	a
	jp	Z,00313$
;E:\Dropbox\FAUSTO\SVILUPPI\MSX\CODE\C\MSXgl\projects\soccerlgMSX2/soccerlg_s9_b3.c:264: u8 dir = g_player_input[i].direction;
	ld	c, -1 (ix)
	ld	b, #0x00
	ld	l, c
	ld	h, b
	add	hl, hl
	add	hl, bc
	ld	-10 (ix), l
	ld	-9 (ix), h
	ld	a, -10 (ix)
	add	a, #<(_g_player_input)
	ld	-8 (ix), a
	ld	a, -9 (ix)
	adc	a, #>(_g_player_input)
	ld	-7 (ix), a
	ld	l, -8 (ix)
	ld	h, -7 (ix)
	ld	a, (hl)
	ld	-6 (ix), a
;E:\Dropbox\FAUSTO\SVILUPPI\MSX\CODE\C\MSXgl\projects\soccerlgMSX2/soccerlg_s9_b3.c:265: bool trigger_pressed = g_player_input[i].trigger_pressed;
	ld	l, -8 (ix)
	ld	h, -7 (ix)
	inc	hl
	ld	a, (hl)
	ld	-22 (ix), a
;E:\Dropbox\FAUSTO\SVILUPPI\MSX\CODE\C\MSXgl\projects\soccerlgMSX2/soccerlg_s9_b3.c:266: struct ObjectInfo* Carrier = &SwSprite[carrier];
	ld	c, -23 (ix)
	ld	b, #0x00
	ld	l, c
	ld	h, b
	add	hl, hl
	add	hl, hl
	add	hl, bc
	add	hl, hl
	add	hl, bc
	add	hl, hl
	add	hl, bc
	ld	-10 (ix), l
	ld	-9 (ix), h
	ld	a, #<(_SwSprite)
	add	a, -10 (ix)
	ld	-8 (ix), a
	ld	a, #>(_SwSprite)
	adc	a, -9 (ix)
	ld	-7 (ix), a
	ld	a, -8 (ix)
	ld	-21 (ix), a
	ld	a, -7 (ix)
	ld	-20 (ix), a
;E:\Dropbox\FAUSTO\SVILUPPI\MSX\CODE\C\MSXgl\projects\soccerlgMSX2/soccerlg_s9_b3.c:268: Carrier->dx = 0; Carrier->dy = 0;
	ld	a, -21 (ix)
	add	a, #0x11
	ld	-19 (ix), a
	ld	a, -20 (ix)
	adc	a, #0x00
	ld	-18 (ix), a
	ld	l, -19 (ix)
	ld	h, -18 (ix)
	ld	(hl), #0x00
	ld	a, -21 (ix)
	add	a, #0x12
	ld	-17 (ix), a
	ld	a, -20 (ix)
	adc	a, #0x00
	ld	-16 (ix), a
	ld	l, -17 (ix)
	ld	h, -16 (ix)
	ld	(hl), #0x00
;E:\Dropbox\FAUSTO\SVILUPPI\MSX\CODE\C\MSXgl\projects\soccerlgMSX2/soccerlg_s9_b3.c:269: switch(dir) {
	ld	a, #0x08
	sub	a, -6 (ix)
	jp	C, 00229$
	ld	c, -6 (ix)
	ld	b, #0x00
	ld	hl, #01151$
	add	hl, bc
	add	hl, bc
	add	hl, bc
	jp	(hl)
01151$:
	jp	00229$
	jp	00221$
	jp	00222$
	jp	00223$
	jp	00224$
	jp	00225$
	jp	00226$
	jp	00227$
	jp	00228$
;E:\Dropbox\FAUSTO\SVILUPPI\MSX\CODE\C\MSXgl\projects\soccerlgMSX2/soccerlg_s9_b3.c:270: case DIRECTION_UP: Carrier->dy = -2; break;
00221$:
	ld	l, -17 (ix)
	ld	h, -16 (ix)
	ld	(hl), #0xfe
	jp	00229$
;E:\Dropbox\FAUSTO\SVILUPPI\MSX\CODE\C\MSXgl\projects\soccerlgMSX2/soccerlg_s9_b3.c:271: case DIRECTION_UP_RIGHT: Carrier->dy = -2; Carrier->dx = 2; break;
00222$:
	ld	l, -17 (ix)
	ld	h, -16 (ix)
	ld	(hl), #0xfe
	ld	l, -19 (ix)
	ld	h, -18 (ix)
	ld	(hl), #0x02
	jp	00229$
;E:\Dropbox\FAUSTO\SVILUPPI\MSX\CODE\C\MSXgl\projects\soccerlgMSX2/soccerlg_s9_b3.c:272: case DIRECTION_RIGHT: Carrier->dx = 2; break;
00223$:
	ld	l, -19 (ix)
	ld	h, -18 (ix)
	ld	(hl), #0x02
	jp	00229$
;E:\Dropbox\FAUSTO\SVILUPPI\MSX\CODE\C\MSXgl\projects\soccerlgMSX2/soccerlg_s9_b3.c:273: case DIRECTION_DOWN_RIGHT: Carrier->dy = 2; Carrier->dx = 2; break;
00224$:
	ld	l, -17 (ix)
	ld	h, -16 (ix)
	ld	(hl), #0x02
	ld	l, -19 (ix)
	ld	h, -18 (ix)
	ld	(hl), #0x02
	jp	00229$
;E:\Dropbox\FAUSTO\SVILUPPI\MSX\CODE\C\MSXgl\projects\soccerlgMSX2/soccerlg_s9_b3.c:274: case DIRECTION_DOWN: Carrier->dy = 2; break;
00225$:
	ld	l, -17 (ix)
	ld	h, -16 (ix)
	ld	(hl), #0x02
	jp	00229$
;E:\Dropbox\FAUSTO\SVILUPPI\MSX\CODE\C\MSXgl\projects\soccerlgMSX2/soccerlg_s9_b3.c:275: case DIRECTION_DOWN_LEFT: Carrier->dy = 2; Carrier->dx = -2; break;
00226$:
	ld	l, -17 (ix)
	ld	h, -16 (ix)
	ld	(hl), #0x02
	ld	l, -19 (ix)
	ld	h, -18 (ix)
	ld	(hl), #0xfe
	jp	00229$
;E:\Dropbox\FAUSTO\SVILUPPI\MSX\CODE\C\MSXgl\projects\soccerlgMSX2/soccerlg_s9_b3.c:276: case DIRECTION_LEFT: Carrier->dx = -2; break;
00227$:
	ld	l, -19 (ix)
	ld	h, -18 (ix)
	ld	(hl), #0xfe
	jp	00229$
;E:\Dropbox\FAUSTO\SVILUPPI\MSX\CODE\C\MSXgl\projects\soccerlgMSX2/soccerlg_s9_b3.c:277: case DIRECTION_UP_LEFT: Carrier->dy = -2; Carrier->dx = -2; break;
00228$:
	ld	l, -17 (ix)
	ld	h, -16 (ix)
	ld	(hl), #0xfe
	ld	l, -19 (ix)
	ld	h, -18 (ix)
	ld	(hl), #0xfe
;E:\Dropbox\FAUSTO\SVILUPPI\MSX\CODE\C\MSXgl\projects\soccerlgMSX2/soccerlg_s9_b3.c:278: }
00229$:
;E:\Dropbox\FAUSTO\SVILUPPI\MSX\CODE\C\MSXgl\projects\soccerlgMSX2/soccerlg_s9_b3.c:281: if (Carrier->dx != 0 || Carrier->dy != 0) {
	ld	l, -19 (ix)
	ld	h, -18 (ix)
	ld	e, (hl)
;E:\Dropbox\FAUSTO\SVILUPPI\MSX\CODE\C\MSXgl\projects\soccerlgMSX2/soccerlg_s9_b3.c:290: i16 next_y = (i16)Carrier->ly + Carrier->dy;
	ld	a, -21 (ix)
	add	a, #0x04
	ld	-15 (ix), a
	ld	a, -20 (ix)
	adc	a, #0x00
	ld	-14 (ix), a
;E:\Dropbox\FAUSTO\SVILUPPI\MSX\CODE\C\MSXgl\projects\soccerlgMSX2/soccerlg_s9_b3.c:297: Carrier->frame = CallFnc_U16_P4(SEG_GAMESTATE_2, GetPlayerAnimFrame, carrier, Carrier->dx, Carrier->dy, walk_seq[(Carrier->anim / 3) % 4]);
	ld	a, -21 (ix)
	add	a, #0x0f
	ld	c, a
	ld	a, -20 (ix)
	adc	a, #0x00
	ld	b, a
;E:\Dropbox\FAUSTO\SVILUPPI\MSX\CODE\C\MSXgl\projects\soccerlgMSX2/soccerlg_s9_b3.c:281: if (Carrier->dx != 0 || Carrier->dy != 0) {
	ld	a, e
	or	a, a
	jr	NZ, 00242$
	ld	l, -17 (ix)
	ld	h, -16 (ix)
	ld	a, (hl)
	or	a, a
	jp	Z, 00243$
00242$:
;E:\Dropbox\FAUSTO\SVILUPPI\MSX\CODE\C\MSXgl\projects\soccerlgMSX2/soccerlg_s9_b3.c:282: g_last_dx[i] = Carrier->dx;
	ld	a, #<(_g_last_dx)
	add	a, -1 (ix)
	ld	l, a
;	spillPairReg hl
;	spillPairReg hl
	ld	a, #>(_g_last_dx)
	adc	a, #0x00
	ld	h, a
	ld	(hl), e
;E:\Dropbox\FAUSTO\SVILUPPI\MSX\CODE\C\MSXgl\projects\soccerlgMSX2/soccerlg_s9_b3.c:283: g_last_dy[i] = Carrier->dy;
	ld	a, #<(_g_last_dy)
	add	a, -1 (ix)
	ld	e, a
	ld	a, #>(_g_last_dy)
	adc	a, #0x00
	ld	d, a
	ld	l, -17 (ix)
	ld	h, -16 (ix)
	ld	a, (hl)
	ld	(de), a
;E:\Dropbox\FAUSTO\SVILUPPI\MSX\CODE\C\MSXgl\projects\soccerlgMSX2/soccerlg_s9_b3.c:285: i16 next_x = (i16)Carrier->lx + Carrier->dx;
	ld	l, -21 (ix)
	ld	h, -20 (ix)
	ld	e, (hl)
	ld	d, #0x00
	ld	l, -19 (ix)
	ld	h, -18 (ix)
	ld	a, (hl)
	ld	l, a
;	spillPairReg hl
;	spillPairReg hl
	rlca
	sbc	a, a
	ld	h, a
;	spillPairReg hl
;	spillPairReg hl
	add	hl, de
;E:\Dropbox\FAUSTO\SVILUPPI\MSX\CODE\C\MSXgl\projects\soccerlgMSX2/soccerlg_s9_b3.c:286: if (next_x < 16) Carrier->lx = 16;
	ld	-7 (ix), l
	ld	-6 (ix), h
	ex	de,hl
	ld	a, e
	sub	a, #0x10
	ld	a, d
	rla
	ccf
	rra
	sbc	a, #0x80
	jr	NC, 00234$
	ld	l, -21 (ix)
	ld	h, -20 (ix)
	ld	(hl), #0x10
	jp	00235$
00234$:
;E:\Dropbox\FAUSTO\SVILUPPI\MSX\CODE\C\MSXgl\projects\soccerlgMSX2/soccerlg_s9_b3.c:287: else if (next_x > 240) Carrier->lx = 240;
	ld	a, #0xf0
	cp	a, e
	ld	a, #0x00
	sbc	a, d
	jp	PO, 01152$
	xor	a, #0x80
01152$:
	jp	P, 00231$
	ld	l, -21 (ix)
	ld	h, -20 (ix)
	ld	(hl), #0xf0
	jp	00235$
00231$:
;E:\Dropbox\FAUSTO\SVILUPPI\MSX\CODE\C\MSXgl\projects\soccerlgMSX2/soccerlg_s9_b3.c:288: else Carrier->lx = (u8)next_x;
	ld	a, -7 (ix)
	ld	l, -21 (ix)
	ld	h, -20 (ix)
	ld	(hl), a
00235$:
;E:\Dropbox\FAUSTO\SVILUPPI\MSX\CODE\C\MSXgl\projects\soccerlgMSX2/soccerlg_s9_b3.c:290: i16 next_y = (i16)Carrier->ly + Carrier->dy;
	ld	l, -15 (ix)
	ld	h, -14 (ix)
	ld	e, (hl)
	inc	hl
	ld	d, (hl)
	ld	l, -17 (ix)
	ld	h, -16 (ix)
	ld	a, (hl)
	ld	l, a
;	spillPairReg hl
;	spillPairReg hl
	rlca
	sbc	a, a
	ld	h, a
;	spillPairReg hl
;	spillPairReg hl
	add	hl, de
;E:\Dropbox\FAUSTO\SVILUPPI\MSX\CODE\C\MSXgl\projects\soccerlgMSX2/soccerlg_s9_b3.c:291: if (next_y < 24) Carrier->ly = 24;
	ld	-7 (ix), l
	ld	-6 (ix), h
	ex	de,hl
	ld	a, e
	sub	a, #0x18
	ld	a, d
	rla
	ccf
	rra
	sbc	a, #0x80
	jr	NC, 00240$
	ld	l, -15 (ix)
	ld	h, -14 (ix)
	ld	(hl), #0x18
	inc	hl
	ld	(hl), #0x00
	jp	00241$
00240$:
;E:\Dropbox\FAUSTO\SVILUPPI\MSX\CODE\C\MSXgl\projects\soccerlgMSX2/soccerlg_s9_b3.c:292: else if (next_y > 488) Carrier->ly = 488;
	ld	a, #0xe8
	cp	a, e
	ld	a, #0x01
	sbc	a, d
	jp	PO, 01153$
	xor	a, #0x80
01153$:
	jp	P, 00237$
	ld	l, -15 (ix)
	ld	h, -14 (ix)
	ld	(hl), #0xe8
	inc	hl
	ld	(hl), #0x01
	jp	00241$
00237$:
;E:\Dropbox\FAUSTO\SVILUPPI\MSX\CODE\C\MSXgl\projects\soccerlgMSX2/soccerlg_s9_b3.c:293: else Carrier->ly = (u16)next_y;
	ld	e, -7 (ix)
	ld	d, -6 (ix)
	ld	l, -15 (ix)
	ld	h, -14 (ix)
	ld	(hl), e
	inc	hl
	ld	(hl), d
00241$:
;E:\Dropbox\FAUSTO\SVILUPPI\MSX\CODE\C\MSXgl\projects\soccerlgMSX2/soccerlg_s9_b3.c:295: Carrier->anim++;
	ld	l, -21 (ix)
	ld	h, -20 (ix)
	ld	de, #0x0013
	add	hl, de
	ld	e, (hl)
	inc	hl
	ld	d, (hl)
	dec	hl
	inc	de
	ld	(hl), e
	inc	hl
	ld	(hl), d
;E:\Dropbox\FAUSTO\SVILUPPI\MSX\CODE\C\MSXgl\projects\soccerlgMSX2/soccerlg_s9_b3.c:296: const u8 walk_seq[4] = {0, 1, 2, 1}; 
	ld	-27 (ix), #0x00
	ld	-26 (ix), #0x01
	ld	-25 (ix), #0x02
	ld	-24 (ix), #0x01
;E:\Dropbox\FAUSTO\SVILUPPI\MSX\CODE\C\MSXgl\projects\soccerlgMSX2/soccerlg_s9_b3.c:297: Carrier->frame = CallFnc_U16_P4(SEG_GAMESTATE_2, GetPlayerAnimFrame, carrier, Carrier->dx, Carrier->dy, walk_seq[(Carrier->anim / 3) % 4]);
	push	bc
	ex	de, hl
	ld	de, #0x0003
	call	__divuint
	pop	bc
	ld	a, e
	and	a, #0x03
	ld	e, a
	ld	d, #0x00
	ld	hl, #3
	add	hl, sp
	add	hl, de
	ld	d, (hl)
	ld	l, -17 (ix)
	ld	h, -16 (ix)
	ld	a, (hl)
	ld	l, -19 (ix)
	ld	h, -18 (ix)
	ld	h, (hl)
;	spillPairReg hl
	push	bc
	push	de
	inc	sp
	push	af
	inc	sp
	push	hl
	inc	sp
	ld	a, -23 (ix)
	push	af
	inc	sp
	ld	de, #_GetPlayerAnimFrame
	ld	a, #0x0b
	call	_CallFnc_U16_P4
	pop	bc
	ld	a, e
	ld	(bc), a
	inc	bc
	ld	a, d
	ld	(bc), a
	jp	00244$
00243$:
;E:\Dropbox\FAUSTO\SVILUPPI\MSX\CODE\C\MSXgl\projects\soccerlgMSX2/soccerlg_s9_b3.c:300: Carrier->frame = CallFnc_U16_P3(SEG_GAMESTATE_2, GetPlayerIdleFrame, carrier, g_last_dx[i], g_last_dy[i]);
	ld	a, #<(_g_last_dy)
	add	a, -1 (ix)
	ld	l, a
;	spillPairReg hl
;	spillPairReg hl
	ld	a, #>(_g_last_dy)
	adc	a, #0x00
	ld	h, a
	ld	d, (hl)
	ld	a, #<(_g_last_dx)
	add	a, -1 (ix)
	ld	l, a
;	spillPairReg hl
;	spillPairReg hl
	ld	a, #>(_g_last_dx)
	adc	a, #0x00
	ld	h, a
	ld	a, (hl)
	push	bc
	push	de
	inc	sp
	push	af
	inc	sp
	ld	a, -23 (ix)
	push	af
	inc	sp
	ld	de, #_GetPlayerIdleFrame
	ld	a, #0x0b
	call	_CallFnc_U16_P3
	pop	bc
	ld	a, e
	ld	(bc), a
	inc	bc
	ld	a, d
	ld	(bc), a
00244$:
;E:\Dropbox\FAUSTO\SVILUPPI\MSX\CODE\C\MSXgl\projects\soccerlgMSX2/soccerlg_s9_b3.c:304: u16 dist_x = (Carrier->lx > Ball->lx) ? (Carrier->lx - Ball->lx) : (Ball->lx - Carrier->lx);
	ld	l, -21 (ix)
	ld	h, -20 (ix)
	ld	e, (hl)
	ld	hl, #(_SwSprite + 322)
	ld	d, (hl)
	ld	c, e
	ld	b, #0x00
	ld	-7 (ix), d
	ld	-6 (ix), #0x00
	ld	a, d
	sub	a, e
	jr	NC, 00380$
	ld	a, c
	sub	a, -7 (ix)
	ld	c, a
	ld	a, b
	sbc	a, -6 (ix)
	jp	00381$
00380$:
	ld	a, -7 (ix)
	sub	a, c
	ld	c, a
	ld	a, -6 (ix)
	sbc	a, b
00381$:
	ld	b, a
;E:\Dropbox\FAUSTO\SVILUPPI\MSX\CODE\C\MSXgl\projects\soccerlgMSX2/soccerlg_s9_b3.c:305: u16 dist_y = (Carrier->ly > Ball->ly) ? (Carrier->ly - Ball->ly) : (Ball->ly - Carrier->ly);
	ld	l, -15 (ix)
	ld	h, -14 (ix)
	ld	a, (hl)
	ld	-13 (ix), a
	inc	hl
	ld	a, (hl)
	ld	-12 (ix), a
	ld	de, (#(_SwSprite + 326) + 0)
	ld	a, e
	sub	a, -13 (ix)
	ld	a, d
	sbc	a, -12 (ix)
	jr	NC, 00382$
	ld	a, -13 (ix)
	sub	a, e
	ld	e, a
	ld	a, -12 (ix)
	sbc	a, d
	jp	00383$
00382$:
	ld	a, e
	sub	a, -13 (ix)
	ld	e, a
	ld	a, d
	sbc	a, -12 (ix)
00383$:
	ld	d, a
;E:\Dropbox\FAUSTO\SVILUPPI\MSX\CODE\C\MSXgl\projects\soccerlgMSX2/soccerlg_s9_b3.c:307: u8 carrier_team = (carrier < 7) ? TEAM_1 : TEAM_2;
	ld	a, -23 (ix)
	sub	a, #0x07
	ld	a, #0x00
	rla
	ld	-11 (ix), a
	or	a, a
	jr	Z, 00384$
	xor	a, a
	ld	-7 (ix), a
	ld	-6 (ix), a
	jp	00385$
00384$:
	ld	-7 (ix), #0x01
	ld	-6 (ix), #0
00385$:
	ld	a, -7 (ix)
	ld	-6 (ix), a
;E:\Dropbox\FAUSTO\SVILUPPI\MSX\CODE\C\MSXgl\projects\soccerlgMSX2/soccerlg_s9_b3.c:308: u8 touch_dist = (LastTouchTeam == carrier_team || LastTouchTeam == 0xFF) ? 24 : 10; // 10 pixel per il tackle
	ld	a, (_LastTouchTeam+0)
	sub	a, -6 (ix)
	jr	Z, 00389$
	ld	a, (_LastTouchTeam+0)
	inc	a
	jr	NZ, 00386$
00389$:
	ld	hl, #0x0018
	jp	00387$
00386$:
	ld	hl, #0x000a
00387$:
	ld	-8 (ix), l
;E:\Dropbox\FAUSTO\SVILUPPI\MSX\CODE\C\MSXgl\projects\soccerlgMSX2/soccerlg_s9_b3.c:202: if (Ball->anim > 0) {
	ld	hl, (#(_SwSprite + 341) + 0)
;E:\Dropbox\FAUSTO\SVILUPPI\MSX\CODE\C\MSXgl\projects\soccerlgMSX2/soccerlg_s9_b3.c:309: if (Ball->anim >= 6) touch_dist = 8; // I tiri potenti sfuggono facilmente al tackle
	ld	-7 (ix), l
	ld	-6 (ix), h
	ld	a, -7 (ix)
	sub	a, #0x06
	ld	a, -6 (ix)
	sbc	a, #0x00
	jr	C, 00247$
	ld	-8 (ix), #0x08
00247$:
;E:\Dropbox\FAUSTO\SVILUPPI\MSX\CODE\C\MSXgl\projects\soccerlgMSX2/soccerlg_s9_b3.c:312: if (dist_x <= touch_dist && dist_y <= touch_dist && Ball->anim != 5) {
	ld	l, -8 (ix)
;	spillPairReg hl
;	spillPairReg hl
	ld	h, #0x00
;	spillPairReg hl
;	spillPairReg hl
	ld	a, l
	sub	a, c
	ld	a, h
	sbc	a, b
	jp	C, 00313$
	xor	a, a
	sbc	hl, de
	jp	C, 00313$
	ld	a, -7 (ix)
	sub	a, #0x05
	or	a, -6 (ix)
	jp	Z,00313$
;E:\Dropbox\FAUSTO\SVILUPPI\MSX\CODE\C\MSXgl\projects\soccerlgMSX2/soccerlg_s9_b3.c:314: bool offside = FALSE;
	ld	-8 (ix), #0x00
;E:\Dropbox\FAUSTO\SVILUPPI\MSX\CODE\C\MSXgl\projects\soccerlgMSX2/soccerlg_s9_b3.c:315: if (carrier < 7 && LastTouchTeam == TEAM_1 && LastTouchPlayer != carrier) {
	ld	a, -11 (ix)
	or	a, a
	jr	Z, 00259$
	ld	a, (_LastTouchTeam+0)
	or	a, a
	jr	NZ, 00259$
	ld	a, (_LastTouchPlayer+0)
	sub	a, -23 (ix)
	jr	Z, 00259$
;E:\Dropbox\FAUSTO\SVILUPPI\MSX\CODE\C\MSXgl\projects\soccerlgMSX2/soccerlg_s9_b3.c:316: u16 offside_line = (SwSprite[8].ly < SwSprite[9].ly) ? SwSprite[8].ly : SwSprite[9].ly;
	ld	bc, (#_SwSprite + 188)
	ld	de, (#_SwSprite + 211)
	ld	a, c
	sub	a, e
	ld	a, b
	sbc	a, d
	jr	NC, 00391$
	ld	e, c
	ld	d, b
00391$:
;E:\Dropbox\FAUSTO\SVILUPPI\MSX\CODE\C\MSXgl\projects\soccerlgMSX2/soccerlg_s9_b3.c:317: if (Carrier->ly > offside_line + 8 && Carrier->ly > 256) offside = TRUE;
	ld	hl, #0x0008
	add	hl, de
	ld	c, -13 (ix)
	ld	b, -12 (ix)
	xor	a, a
	sbc	hl, bc
	jr	NC, 00260$
	xor	a, a
	cp	a, c
	ld	a, #0x01
	sbc	a, b
	jr	NC, 00260$
	ld	-8 (ix), #0x01
	jp	00260$
00259$:
;E:\Dropbox\FAUSTO\SVILUPPI\MSX\CODE\C\MSXgl\projects\soccerlgMSX2/soccerlg_s9_b3.c:318: } else if (carrier >= 7 && LastTouchTeam == TEAM_2 && LastTouchPlayer != carrier) {
	ld	c, -11 (ix)
	bit	0, c
	jr	NZ, 00260$
	ld	a, (_LastTouchTeam+0)
	dec	a
	jr	NZ, 00260$
	ld	a, (_LastTouchPlayer+0)
	sub	a, -23 (ix)
	jr	Z, 00260$
;E:\Dropbox\FAUSTO\SVILUPPI\MSX\CODE\C\MSXgl\projects\soccerlgMSX2/soccerlg_s9_b3.c:319: u16 offside_line = (SwSprite[1].ly > SwSprite[2].ly) ? SwSprite[1].ly : SwSprite[2].ly;
	ld	hl, #_SwSprite + 27
	ld	a, (hl)
	ld	-10 (ix), a
	inc	hl
	ld	a, (hl)
	ld	-9 (ix), a
	ld	hl, #_SwSprite + 50
	ld	a, (hl)
	ld	-7 (ix), a
	inc	hl
	ld	a, (hl)
	ld	-6 (ix), a
	ld	a, -7 (ix)
	sub	a, -10 (ix)
	ld	a, -6 (ix)
	sbc	a, -9 (ix)
	jr	NC, 00393$
	ld	a, -10 (ix)
	ld	-7 (ix), a
	ld	a, -9 (ix)
	ld	-6 (ix), a
00393$:
;E:\Dropbox\FAUSTO\SVILUPPI\MSX\CODE\C\MSXgl\projects\soccerlgMSX2/soccerlg_s9_b3.c:320: if (Carrier->ly < offside_line - 8 && Carrier->ly < 256) offside = TRUE;
	ld	a, -7 (ix)
	ld	b, -6 (ix)
	add	a, #0xf8
	ld	e, a
	ld	a, b
	adc	a, #0xff
	ld	d, a
	ld	c, -13 (ix)
	ld	b, -12 (ix)
	ld	a, c
	sub	a, e
	ld	a, b
	sbc	a, d
	jr	NC, 00260$
	ld	a, b
	sub	a, #0x01
	jr	NC, 00260$
	ld	-8 (ix), #0x01
00260$:
;E:\Dropbox\FAUSTO\SVILUPPI\MSX\CODE\C\MSXgl\projects\soccerlgMSX2/soccerlg_s9_b3.c:322: if (offside) {
	ld	a, -8 (ix)
	or	a, a
	jr	Z, 00264$
;E:\Dropbox\FAUSTO\SVILUPPI\MSX\CODE\C\MSXgl\projects\soccerlgMSX2/soccerlg_s9_b3.c:323: *game_state = 6; // Ferma il gioco
	ld	l, -3 (ix)
	ld	h, -2 (ix)
	ld	(hl), #0x06
;E:\Dropbox\FAUSTO\SVILUPPI\MSX\CODE\C\MSXgl\projects\soccerlgMSX2/soccerlg_s9_b3.c:324: RestartType = 0; // Temporaneo fallback a KickOff per la ripresa
	ld	hl, #_RestartType
	ld	(hl), #0x00
;E:\Dropbox\FAUSTO\SVILUPPI\MSX\CODE\C\MSXgl\projects\soccerlgMSX2/soccerlg_s9_b3.c:325: CallFnc_VOID(SEG_EVENTS, EventOffside);
	ld	de, #_EventOffside
	ld	a, #0x08
	call	_CallFnc_VOID
;E:\Dropbox\FAUSTO\SVILUPPI\MSX\CODE\C\MSXgl\projects\soccerlgMSX2/soccerlg_s9_b3.c:326: Ball->anim = Ball->dx = Ball->dy = 0;
	ld	hl, #(_SwSprite + 340)
	ld	(hl), #0x00
	ld	hl, #(_SwSprite + 339)
	ld	(hl), #0x00
	ld	hl, #0x0000
	ld	((_SwSprite + 341)), hl
;E:\Dropbox\FAUSTO\SVILUPPI\MSX\CODE\C\MSXgl\projects\soccerlgMSX2/soccerlg_s9_b3.c:327: T1_Carrier = T2_Carrier = 0xFF;
	ld	hl, #_T2_Carrier
	ld	(hl), #0xff
	ld	hl, #_T1_Carrier
	ld	(hl), #0xff
;E:\Dropbox\FAUSTO\SVILUPPI\MSX\CODE\C\MSXgl\projects\soccerlgMSX2/soccerlg_s9_b3.c:328: TimerEnabled = FALSE;
	ld	iy, #_TimerEnabled
	ld	0 (iy), #0x00
;E:\Dropbox\FAUSTO\SVILUPPI\MSX\CODE\C\MSXgl\projects\soccerlgMSX2/soccerlg_s9_b3.c:329: *wait_secs = 2; *start_sec = Frms;
	ld	l, -5 (ix)
	ld	h, -4 (ix)
	ld	(hl), #0x02
	ld	c, 4 (ix)
	ld	b, 5 (ix)
	ld	a, (_Frms+0)
	ld	(bc), a
;E:\Dropbox\FAUSTO\SVILUPPI\MSX\CODE\C\MSXgl\projects\soccerlgMSX2/soccerlg_s9_b3.c:330: continue; // Salta il controllo palla
	jp	00313$
00264$:
;E:\Dropbox\FAUSTO\SVILUPPI\MSX\CODE\C\MSXgl\projects\soccerlgMSX2/soccerlg_s9_b3.c:333: LastTouchTeam = (carrier < 7) ? TEAM_1 : TEAM_2;
	ld	a, -11 (ix)
	or	a, a
	jr	Z, 00395$
	xor	a, a
	ld	-7 (ix), a
	ld	-6 (ix), a
	jp	00396$
00395$:
	ld	-7 (ix), #0x01
	ld	-6 (ix), #0
00396$:
	ld	a, -7 (ix)
	ld	(_LastTouchTeam+0), a
;E:\Dropbox\FAUSTO\SVILUPPI\MSX\CODE\C\MSXgl\projects\soccerlgMSX2/soccerlg_s9_b3.c:334: LastTouchPlayer = carrier;
	ld	a, -23 (ix)
	ld	(_LastTouchPlayer+0), a
;E:\Dropbox\FAUSTO\SVILUPPI\MSX\CODE\C\MSXgl\projects\soccerlgMSX2/soccerlg_s9_b3.c:281: if (Carrier->dx != 0 || Carrier->dy != 0) {
	ld	l, -19 (ix)
	ld	h, -18 (ix)
	ld	a, (hl)
	ld	-7 (ix), a
	ld	l, -17 (ix)
	ld	h, -16 (ix)
	ld	a, (hl)
	ld	-6 (ix), a
;E:\Dropbox\FAUSTO\SVILUPPI\MSX\CODE\C\MSXgl\projects\soccerlgMSX2/soccerlg_s9_b3.c:338: if (Carrier->dx != 0 || Carrier->dy != 0) {
	ld	a, -7 (ix)
	or	a, a
	jr	NZ, 00265$
	ld	a, -6 (ix)
	or	a, a
	jr	Z, 00266$
00265$:
;E:\Dropbox\FAUSTO\SVILUPPI\MSX\CODE\C\MSXgl\projects\soccerlgMSX2/soccerlg_s9_b3.c:339: c_dx = (Carrier->dx > 0) ? 1 : ((Carrier->dx < 0) ? -1 : 0);
	xor	a, a
	sub	a, -7 (ix)
	jp	PO, 01162$
	xor	a, #0x80
01162$:
	jp	P, 00397$
	ld	-10 (ix), #0x01
	ld	-9 (ix), #0
	jp	00398$
00397$:
	bit	7, -7 (ix)
	jr	Z, 00399$
	ld	-8 (ix), #0xff
	ld	-7 (ix), #0xff
	jp	00400$
00399$:
	xor	a, a
	ld	-8 (ix), a
	ld	-7 (ix), a
00400$:
	ld	a, -8 (ix)
	ld	-10 (ix), a
	ld	a, -7 (ix)
	ld	-9 (ix), a
00398$:
	ld	a, -10 (ix)
	ld	-7 (ix), a
;E:\Dropbox\FAUSTO\SVILUPPI\MSX\CODE\C\MSXgl\projects\soccerlgMSX2/soccerlg_s9_b3.c:340: c_dy = (Carrier->dy > 0) ? 1 : ((Carrier->dy < 0) ? -1 : 0);
	xor	a, a
	sub	a, -6 (ix)
	jp	PO, 01163$
	xor	a, #0x80
01163$:
	jp	P, 00401$
	ld	-9 (ix), #0x01
	ld	-8 (ix), #0
	jp	00402$
00401$:
	bit	7, -6 (ix)
	jr	Z, 00403$
	ld	-9 (ix), #0xff
	ld	-8 (ix), #0xff
	jp	00404$
00403$:
	xor	a, a
	ld	-9 (ix), a
	ld	-8 (ix), a
00404$:
00402$:
	ld	a, -9 (ix)
	ld	-6 (ix), a
	jp	00267$
00266$:
;E:\Dropbox\FAUSTO\SVILUPPI\MSX\CODE\C\MSXgl\projects\soccerlgMSX2/soccerlg_s9_b3.c:343: c_dx = (g_last_dx[i] > 0) ? 1 : ((g_last_dx[i] < 0) ? -1 : 0);
	ld	a, #<(_g_last_dx)
	add	a, -1 (ix)
	ld	-7 (ix), a
	ld	a, #>(_g_last_dx)
	adc	a, #0x00
	ld	-6 (ix), a
	ld	l, -7 (ix)
	ld	h, -6 (ix)
	ld	a, (hl)
	ld	-6 (ix), a
	xor	a, a
	sub	a, -6 (ix)
	jp	PO, 01164$
	xor	a, #0x80
01164$:
	jp	P, 00405$
	ld	-10 (ix), #0x01
	ld	-9 (ix), #0
	jp	00406$
00405$:
	bit	7, -6 (ix)
	jr	Z, 00407$
	ld	-7 (ix), #0xff
	ld	-6 (ix), #0xff
	jp	00408$
00407$:
	xor	a, a
	ld	-7 (ix), a
	ld	-6 (ix), a
00408$:
	ld	a, -7 (ix)
	ld	-10 (ix), a
	ld	a, -6 (ix)
	ld	-9 (ix), a
00406$:
	ld	a, -10 (ix)
	ld	-7 (ix), a
;E:\Dropbox\FAUSTO\SVILUPPI\MSX\CODE\C\MSXgl\projects\soccerlgMSX2/soccerlg_s9_b3.c:344: c_dy = (g_last_dy[i] > 0) ? 1 : ((g_last_dy[i] < 0) ? -1 : 0);
	ld	a, #<(_g_last_dy)
	add	a, -1 (ix)
	ld	-9 (ix), a
	ld	a, #>(_g_last_dy)
	adc	a, #0x00
	ld	-8 (ix), a
	ld	l, -9 (ix)
	ld	h, -8 (ix)
	ld	a, (hl)
	ld	-6 (ix), a
	xor	a, a
	sub	a, -6 (ix)
	jp	PO, 01165$
	xor	a, #0x80
01165$:
	jp	P, 00409$
	ld	-9 (ix), #0x01
	ld	-8 (ix), #0
	jp	00410$
00409$:
	bit	7, -6 (ix)
	jr	Z, 00411$
	ld	-9 (ix), #0xff
	ld	-8 (ix), #0xff
	jp	00412$
00411$:
	xor	a, a
	ld	-9 (ix), a
	ld	-8 (ix), a
00412$:
00410$:
	ld	a, -9 (ix)
	ld	-6 (ix), a
00267$:
;E:\Dropbox\FAUSTO\SVILUPPI\MSX\CODE\C\MSXgl\projects\soccerlgMSX2/soccerlg_s9_b3.c:346: receivers[i] = (u8)CallFnc_U16_P4B(SEG_LOGIC, FindReceiver, carrier, 0xFF, c_dx, c_dy);
	ld	e, -1 (ix)
	ld	d, #0x00
	ld	hl, #5
	add	hl, sp
	add	hl, de
	ld	-9 (ix), l
	ld	-8 (ix), h
	ld	a, -6 (ix)
	push	af
	inc	sp
	ld	h, -7 (ix)
	ld	l, #0xff
	push	hl
	ld	a, -23 (ix)
	push	af
	inc	sp
	ld	de, #_FindReceiver
	ld	a, #0x06
	call	_CallFnc_U16_P4B
	ld	l, -9 (ix)
	ld	h, -8 (ix)
	ld	(hl), e
;E:\Dropbox\FAUSTO\SVILUPPI\MSX\CODE\C\MSXgl\projects\soccerlgMSX2/soccerlg_s9_b3.c:349: bool action_taken = FALSE;
	ld	-10 (ix), #0x00
;E:\Dropbox\FAUSTO\SVILUPPI\MSX\CODE\C\MSXgl\projects\soccerlgMSX2/soccerlg_s9_b3.c:350: if (trigger_pressed) {
	ld	a, -22 (ix)
	or	a, a
	jp	Z, 00276$
;E:\Dropbox\FAUSTO\SVILUPPI\MSX\CODE\C\MSXgl\projects\soccerlgMSX2/soccerlg_s9_b3.c:352: u8 receiver = receivers[i];
	ld	l, -9 (ix)
	ld	h, -8 (ix)
	ld	a, (hl)
;E:\Dropbox\FAUSTO\SVILUPPI\MSX\CODE\C\MSXgl\projects\soccerlgMSX2/soccerlg_s9_b3.c:354: if (receiver != 0xFF) {
	ld	-8 (ix), a
	inc	a
	jp	Z,00276$
;E:\Dropbox\FAUSTO\SVILUPPI\MSX\CODE\C\MSXgl\projects\soccerlgMSX2/soccerlg_s9_b3.c:357: Ball->anim = 0;
	ld	hl, #0x0000
	ld	((_SwSprite + 341)), hl
;E:\Dropbox\FAUSTO\SVILUPPI\MSX\CODE\C\MSXgl\projects\soccerlgMSX2/soccerlg_s9_b3.c:358: Ball->count = 0;
	ld	((_SwSprite + 343)), hl
;E:\Dropbox\FAUSTO\SVILUPPI\MSX\CODE\C\MSXgl\projects\soccerlgMSX2/soccerlg_s9_b3.c:360: g_pass_receiver = receiver;
	ld	a, -8 (ix)
	ld	(_g_pass_receiver+0), a
;E:\Dropbox\FAUSTO\SVILUPPI\MSX\CODE\C\MSXgl\projects\soccerlgMSX2/soccerlg_s9_b3.c:361: g_pass_start_x = Carrier->lx;
	ld	l, -21 (ix)
	ld	h, -20 (ix)
	ld	a, (hl)
	ld	(_g_pass_start_x+0), a
	ld	hl, #_g_pass_start_x + 1
	ld	(hl), #0x00
;E:\Dropbox\FAUSTO\SVILUPPI\MSX\CODE\C\MSXgl\projects\soccerlgMSX2/soccerlg_s9_b3.c:362: g_pass_start_y = Carrier->ly;
	ld	l, -15 (ix)
	ld	h, -14 (ix)
	ld	a, (hl)
	inc	hl
	ld	(_g_pass_start_y+0), a
	ld	a, (hl)
	ld	(_g_pass_start_y+1), a
;E:\Dropbox\FAUSTO\SVILUPPI\MSX\CODE\C\MSXgl\projects\soccerlgMSX2/soccerlg_s9_b3.c:363: g_pass_target_x = SwSprite[receiver].lx;
	ld	c, -8 (ix)
	ld	b, #0x00
	ld	l, c
	ld	h, b
	add	hl, hl
	add	hl, hl
	add	hl, bc
	add	hl, hl
	add	hl, bc
	add	hl, hl
	add	hl, bc
	ld	-9 (ix), l
	ld	-8 (ix), h
	ld	a, #<(_SwSprite)
	add	a, -9 (ix)
	ld	-11 (ix), a
	ld	a, #>(_SwSprite)
	adc	a, -8 (ix)
	ld	-10 (ix), a
	ld	l, -11 (ix)
	ld	h, -10 (ix)
	ld	a, (hl)
	ld	(_g_pass_target_x+0), a
	ld	iy, #_g_pass_target_x
	ld	1 (iy), #0x00
;E:\Dropbox\FAUSTO\SVILUPPI\MSX\CODE\C\MSXgl\projects\soccerlgMSX2/soccerlg_s9_b3.c:364: g_pass_target_y = SwSprite[receiver].ly;
	ld	c, -11 (ix)
	ld	b, -10 (ix)
	ld	hl, #4
	add	hl, bc
	ld	a, (hl)
	inc	hl
	ld	(_g_pass_target_y+0), a
	ld	a, (hl)
	ld	(_g_pass_target_y+1), a
;E:\Dropbox\FAUSTO\SVILUPPI\MSX\CODE\C\MSXgl\projects\soccerlgMSX2/soccerlg_s9_b3.c:366: u16 r_dx = (g_pass_target_x > g_pass_start_x) ? (g_pass_target_x - g_pass_start_x) : (g_pass_start_x - g_pass_target_x);
	ld	hl, #_g_pass_start_x
	ld	a, (hl)
	sub	a, 0 (iy)
	inc	hl
	ld	a, (hl)
	sbc	a, 1 (iy)
	jr	NC, 00413$
	ld	hl, #_g_pass_start_x
	ld	a, (_g_pass_target_x+0)
	sub	a, (hl)
	ld	-9 (ix), a
	inc	hl
	ld	a, (_g_pass_target_x+1)
	sbc	a, (hl)
	ld	-8 (ix), a
	jp	00414$
00413$:
	ld	hl, #_g_pass_target_x
	ld	a, (_g_pass_start_x+0)
	sub	a, (hl)
	ld	-9 (ix), a
	inc	hl
	ld	a, (_g_pass_start_x+1)
	sbc	a, (hl)
	ld	-8 (ix), a
00414$:
	ld	a, -9 (ix)
	ld	-13 (ix), a
	ld	a, -8 (ix)
	ld	-12 (ix), a
;E:\Dropbox\FAUSTO\SVILUPPI\MSX\CODE\C\MSXgl\projects\soccerlgMSX2/soccerlg_s9_b3.c:367: u16 r_dy = (g_pass_target_y > g_pass_start_y) ? (g_pass_target_y - g_pass_start_y) : (g_pass_start_y - g_pass_target_y);
	ld	hl, #_g_pass_start_y
	ld	a, (hl)
	ld	iy, #_g_pass_target_y
	sub	a, 0 (iy)
	inc	hl
	ld	a, (hl)
	sbc	a, 1 (iy)
	jr	NC, 00415$
	ld	hl, #_g_pass_start_y
	ld	a, (_g_pass_target_y+0)
	sub	a, (hl)
	ld	-9 (ix), a
	inc	hl
	ld	a, (_g_pass_target_y+1)
	sbc	a, (hl)
	ld	-8 (ix), a
	jp	00416$
00415$:
	ld	hl, #_g_pass_target_y
	ld	a, (_g_pass_start_y+0)
	sub	a, (hl)
	ld	-9 (ix), a
	inc	hl
	ld	a, (_g_pass_start_y+1)
	sbc	a, (hl)
	ld	-8 (ix), a
00416$:
	ld	a, -9 (ix)
	ld	-11 (ix), a
	ld	a, -8 (ix)
	ld	-10 (ix), a
;E:\Dropbox\FAUSTO\SVILUPPI\MSX\CODE\C\MSXgl\projects\soccerlgMSX2/soccerlg_s9_b3.c:368: g_pass_max_frames = (r_dx + r_dy) / 5; // Velocità di volo passaggi
	ld	a, -13 (ix)
	add	a, -11 (ix)
	ld	-9 (ix), a
	ld	a, -12 (ix)
	adc	a, -10 (ix)
	ld	-8 (ix), a
	ld	de, #0x0005
	ld	l, -9 (ix)
;	spillPairReg hl
;	spillPairReg hl
	ld	h, -8 (ix)
;	spillPairReg hl
;	spillPairReg hl
	call	__divuint
	ld	iy, #_g_pass_max_frames
	ld	0 (iy), e
;E:\Dropbox\FAUSTO\SVILUPPI\MSX\CODE\C\MSXgl\projects\soccerlgMSX2/soccerlg_s9_b3.c:369: if (g_pass_max_frames < 8) g_pass_max_frames = 8;
	ld	a, (_g_pass_max_frames+0)
	sub	a, #0x08
	jr	NC, 00270$
	ld	0 (iy), #0x08
00270$:
;E:\Dropbox\FAUSTO\SVILUPPI\MSX\CODE\C\MSXgl\projects\soccerlgMSX2/soccerlg_s9_b3.c:370: if (g_pass_max_frames > 34) g_pass_max_frames = 34;
	ld	a, #0x22
	ld	iy, #_g_pass_max_frames
	sub	a, 0 (iy)
	jr	NC, 00272$
	ld	0 (iy), #0x22
00272$:
;E:\Dropbox\FAUSTO\SVILUPPI\MSX\CODE\C\MSXgl\projects\soccerlgMSX2/soccerlg_s9_b3.c:371: g_pass_max_height = 7; // Passaggio normale alto
	ld	hl, #_g_pass_max_height
	ld	(hl), #0x07
;E:\Dropbox\FAUSTO\SVILUPPI\MSX\CODE\C\MSXgl\projects\soccerlgMSX2/soccerlg_s9_b3.c:373: Ball->lx = g_pass_start_x;
	ld	a, (_g_pass_start_x+0)
	ld	(#(_SwSprite + 322)),a
;E:\Dropbox\FAUSTO\SVILUPPI\MSX\CODE\C\MSXgl\projects\soccerlgMSX2/soccerlg_s9_b3.c:374: Ball->ly = g_pass_start_y;
	ld	hl, #(_SwSprite + 326)
	ld	a, (_g_pass_start_y+0)
	ld	(hl), a
	inc	hl
	ld	a, (_g_pass_start_y+1)
	ld	(hl), a
;E:\Dropbox\FAUSTO\SVILUPPI\MSX\CODE\C\MSXgl\projects\soccerlgMSX2/soccerlg_s9_b3.c:375: Ball->anim = 5; // Flag per passaggio
	ld	hl, #0x0005
	ld	((_SwSprite + 341)), hl
;E:\Dropbox\FAUSTO\SVILUPPI\MSX\CODE\C\MSXgl\projects\soccerlgMSX2/soccerlg_s9_b3.c:376: Ball->count = 0; // Inizio dell'interpolazione
	ld	l, h
	ld	((_SwSprite + 343)), hl
;E:\Dropbox\FAUSTO\SVILUPPI\MSX\CODE\C\MSXgl\projects\soccerlgMSX2/soccerlg_s9_b3.c:377: Ball->dx = Ball->dy = 0; // Non usato nel passaggio, ma azzera lo stato
	ld	hl, #(_SwSprite + 340)
	ld	(hl), #0x00
	ld	hl, #(_SwSprite + 339)
	ld	(hl), #0x00
;E:\Dropbox\FAUSTO\SVILUPPI\MSX\CODE\C\MSXgl\projects\soccerlgMSX2/soccerlg_s9_b3.c:378: CallFnc_VOID(SEG_EVENTS, EventBallKicked);
	ld	de, #_EventBallKicked
	ld	a, #0x08
	call	_CallFnc_VOID
;E:\Dropbox\FAUSTO\SVILUPPI\MSX\CODE\C\MSXgl\projects\soccerlgMSX2/soccerlg_s9_b3.c:379: action_taken = TRUE;
	ld	-10 (ix), #0x01
00276$:
;E:\Dropbox\FAUSTO\SVILUPPI\MSX\CODE\C\MSXgl\projects\soccerlgMSX2/soccerlg_s9_b3.c:383: if (!action_taken && Ball->anim == 0 && (Ball->dx != c_dx || Ball->dy != c_dy)) {
	ld	a, -10 (ix)
	or	a, a
	jp	NZ, 00304$
	ld	hl, (#(_SwSprite + 341) + 0)
	ld	a, h
	or	a, l
	jp	NZ, 00304$
	ld	hl, #(_SwSprite + 339)
	ld	c, (hl)
	ld	a, -7 (ix)
	sub	a, c
	jr	NZ, 00303$
	ld	hl, #(_SwSprite + 340)
	ld	c, (hl)
	ld	a, -6 (ix)
	sub	a, c
	jp	Z,00304$
00303$:
;E:\Dropbox\FAUSTO\SVILUPPI\MSX\CODE\C\MSXgl\projects\soccerlgMSX2/soccerlg_s9_b3.c:385: i8 off_x = 0; i8 off_y = 6;
	ld	-9 (ix), #0x00
	ld	-8 (ix), #0x06
;E:\Dropbox\FAUSTO\SVILUPPI\MSX\CODE\C\MSXgl\projects\soccerlgMSX2/soccerlg_s9_b3.c:386: if (c_dx > 0) off_x = 9; else if (c_dx < 0) off_x = -9;
	xor	a, a
	sub	a, -7 (ix)
	jp	PO, 01170$
	xor	a, #0x80
01170$:
	jp	P, 00280$
	ld	-9 (ix), #0x09
	jp	00281$
00280$:
	bit	7, -7 (ix)
	jr	Z, 00281$
	ld	-9 (ix), #0xf7
00281$:
;E:\Dropbox\FAUSTO\SVILUPPI\MSX\CODE\C\MSXgl\projects\soccerlgMSX2/soccerlg_s9_b3.c:387: if (c_dy > 0) off_y = 8; else if (c_dy < 0) off_y = -3;
	xor	a, a
	sub	a, -6 (ix)
	jp	PO, 01171$
	xor	a, #0x80
01171$:
	jp	P, 00285$
	ld	-8 (ix), #0x08
	jp	00286$
00285$:
	bit	7, -6 (ix)
	jr	Z, 00286$
	ld	-8 (ix), #0xfd
00286$:
;E:\Dropbox\FAUSTO\SVILUPPI\MSX\CODE\C\MSXgl\projects\soccerlgMSX2/soccerlg_s9_b3.c:389: Ball->dx = c_dx;
	ld	hl, #(_SwSprite + 339)
	ld	a, -7 (ix)
	ld	(hl), a
;E:\Dropbox\FAUSTO\SVILUPPI\MSX\CODE\C\MSXgl\projects\soccerlgMSX2/soccerlg_s9_b3.c:390: Ball->dy = c_dy;
	ld	hl, #(_SwSprite + 340)
	ld	a, -6 (ix)
	ld	(hl), a
;E:\Dropbox\FAUSTO\SVILUPPI\MSX\CODE\C\MSXgl\projects\soccerlgMSX2/soccerlg_s9_b3.c:391: Ball->lx = (u8)(Carrier->lx + off_x);
	ld	l, -21 (ix)
	ld	h, -20 (ix)
	ld	a, (hl)
	ld	-6 (ix), a
	add	a, -9 (ix)
	ld	-6 (ix), a
	ld	hl, #(_SwSprite + 322)
	ld	a, -6 (ix)
	ld	(hl), a
;E:\Dropbox\FAUSTO\SVILUPPI\MSX\CODE\C\MSXgl\projects\soccerlgMSX2/soccerlg_s9_b3.c:392: Ball->ly = (Carrier->ly + off_y) & 511;
	ld	l, -15 (ix)
	ld	h, -14 (ix)
	ld	a, (hl)
	ld	-7 (ix), a
	inc	hl
	ld	a, (hl)
	ld	-6 (ix), a
	ld	a, -8 (ix)
	ld	-9 (ix), a
	rlca
	sbc	a, a
	ld	-8 (ix), a
	ld	a, -9 (ix)
	add	a, -7 (ix)
	ld	-11 (ix), a
	ld	a, -8 (ix)
	adc	a, -6 (ix)
	ld	-10 (ix), a
	ld	a, -11 (ix)
	ld	-7 (ix), a
	ld	a, -10 (ix)
	and	a, #0x01
	ld	-6 (ix), a
	ld	hl, #(_SwSprite + 326)
	ld	a, -7 (ix)
	ld	(hl), a
	inc	hl
	ld	a, -6 (ix)
	ld	(hl), a
	jp	00313$
00304$:
;E:\Dropbox\FAUSTO\SVILUPPI\MSX\CODE\C\MSXgl\projects\soccerlgMSX2/soccerlg_s9_b3.c:393: } else if (!action_taken && Ball->anim == 0) {
	ld	a, -10 (ix)
	or	a, a
	jp	NZ, 00313$
	ld	hl, (#(_SwSprite + 341) + 0)
	ld	a, h
	or	a, l
	jp	NZ, 00313$
;E:\Dropbox\FAUSTO\SVILUPPI\MSX\CODE\C\MSXgl\projects\soccerlgMSX2/soccerlg_s9_b3.c:395: i8 off_x = 0; i8 off_y = 6;
	ld	-9 (ix), #0x00
	ld	-8 (ix), #0x06
;E:\Dropbox\FAUSTO\SVILUPPI\MSX\CODE\C\MSXgl\projects\soccerlgMSX2/soccerlg_s9_b3.c:396: if (c_dx > 0) off_x = 9; else if (c_dx < 0) off_x = -9;
	xor	a, a
	sub	a, -7 (ix)
	jp	PO, 01172$
	xor	a, #0x80
01172$:
	jp	P, 00290$
	ld	-9 (ix), #0x09
	jp	00291$
00290$:
	bit	7, -7 (ix)
	jr	Z, 00291$
	ld	-9 (ix), #0xf7
00291$:
;E:\Dropbox\FAUSTO\SVILUPPI\MSX\CODE\C\MSXgl\projects\soccerlgMSX2/soccerlg_s9_b3.c:397: if (c_dy > 0) off_y = 8; else if (c_dy < 0) off_y = -3;
	xor	a, a
	sub	a, -6 (ix)
	jp	PO, 01173$
	xor	a, #0x80
01173$:
	jp	P, 00295$
	ld	-8 (ix), #0x08
	jp	00296$
00295$:
	bit	7, -6 (ix)
	jr	Z, 00296$
	ld	-8 (ix), #0xfd
00296$:
;E:\Dropbox\FAUSTO\SVILUPPI\MSX\CODE\C\MSXgl\projects\soccerlgMSX2/soccerlg_s9_b3.c:399: Ball->lx = (u8)(Carrier->lx + off_x);
	ld	l, -21 (ix)
	ld	h, -20 (ix)
	ld	a, (hl)
	ld	-6 (ix), a
	ld	a, -9 (ix)
	add	a, -6 (ix)
	ld	-6 (ix), a
	ld	hl, #(_SwSprite + 322)
	ld	a, -6 (ix)
	ld	(hl), a
;E:\Dropbox\FAUSTO\SVILUPPI\MSX\CODE\C\MSXgl\projects\soccerlgMSX2/soccerlg_s9_b3.c:400: Ball->ly = (Carrier->ly + off_y) & 511;
	ld	l, -15 (ix)
	ld	h, -14 (ix)
	ld	a, (hl)
	ld	-7 (ix), a
	inc	hl
	ld	a, (hl)
	ld	-6 (ix), a
	ld	a, -8 (ix)
	ld	-9 (ix), a
	rlca
	sbc	a, a
	ld	-8 (ix), a
	ld	a, -9 (ix)
	add	a, -7 (ix)
	ld	-11 (ix), a
	ld	a, -8 (ix)
	adc	a, -6 (ix)
	ld	-10 (ix), a
	ld	a, -11 (ix)
	ld	-7 (ix), a
	ld	a, -10 (ix)
	and	a, #0x01
	ld	-6 (ix), a
	ld	hl, #(_SwSprite + 326)
	ld	a, -7 (ix)
	ld	(hl), a
	inc	hl
	ld	a, -6 (ix)
	ld	(hl), a
;E:\Dropbox\FAUSTO\SVILUPPI\MSX\CODE\C\MSXgl\projects\soccerlgMSX2/soccerlg_s9_b3.c:402: if (Carrier->dx != 0 || Carrier->dy != 0) {
	ld	l, -19 (ix)
	ld	h, -18 (ix)
	ld	a, (hl)
	ld	-6 (ix), a
	or	a, a
	jr	NZ, 00297$
	ld	l, -17 (ix)
	ld	h, -16 (ix)
	ld	a, (hl)
	ld	-6 (ix), a
	or	a, a
	jr	Z, 00313$
00297$:
;E:\Dropbox\FAUSTO\SVILUPPI\MSX\CODE\C\MSXgl\projects\soccerlgMSX2/soccerlg_s9_b3.c:403: Ball->anim = 3; // Colpetto in avanti medio-corto
	ld	hl, #0x0003
	ld	((_SwSprite + 341)), hl
;E:\Dropbox\FAUSTO\SVILUPPI\MSX\CODE\C\MSXgl\projects\soccerlgMSX2/soccerlg_s9_b3.c:404: CallFnc_VOID(SEG_EVENTS, EventBallKicked);
	ld	de, #_EventBallKicked
	ld	a, #0x08
	call	_CallFnc_VOID
00313$:
;E:\Dropbox\FAUSTO\SVILUPPI\MSX\CODE\C\MSXgl\projects\soccerlgMSX2/soccerlg_s9_b3.c:260: for (u8 i = 0; i < 2; i++) { // i=0 per Team 1 (P2/CPU), i=1 per Team 2 (P1)
	inc	-1 (ix)
	jp	00338$
00314$:
;E:\Dropbox\FAUSTO\SVILUPPI\MSX\CODE\C\MSXgl\projects\soccerlgMSX2/soccerlg_s9_b3.c:411: for (u8 i = 0; i < 14; i++) {
	ld	b, #0x00
00340$:
	ld	a, b
	sub	a, #0x0e
	jr	NC, 00342$
;E:\Dropbox\FAUSTO\SVILUPPI\MSX\CODE\C\MSXgl\projects\soccerlgMSX2/soccerlg_s9_b3.c:412: CallFnc_VOID_P1(SEG_LOGIC, PlayerAI, i);
	push	bc
	push	bc
	inc	sp
	ld	de, #_PlayerAI
	ld	a, #0x06
	call	_CallFnc_VOID_P1
	pop	bc
;E:\Dropbox\FAUSTO\SVILUPPI\MSX\CODE\C\MSXgl\projects\soccerlgMSX2/soccerlg_s9_b3.c:411: for (u8 i = 0; i < 14; i++) {
	inc	b
	jp	00340$
00317$:
;E:\Dropbox\FAUSTO\SVILUPPI\MSX\CODE\C\MSXgl\projects\soccerlgMSX2/soccerlg_s9_b3.c:415: SwSprite[24].ly = 1000; // Nasconde la freccia orizzontale durante le pause
	ld	hl, #0x03e8
	ld	((_SwSprite + 556)), hl
;E:\Dropbox\FAUSTO\SVILUPPI\MSX\CODE\C\MSXgl\projects\soccerlgMSX2/soccerlg_s9_b3.c:416: CallFnc_VOID_3PTR_U16(SEG_GAMESTATE_3, UpdateGameState_Restarts, game_state, wait_secs, start_sec, target_ly);
	ld	l, 6 (ix)
;	spillPairReg hl
;	spillPairReg hl
	ld	h, 7 (ix)
;	spillPairReg hl
;	spillPairReg hl
	push	hl
	ld	l, 4 (ix)
;	spillPairReg hl
;	spillPairReg hl
	ld	h, 5 (ix)
;	spillPairReg hl
;	spillPairReg hl
	push	hl
	ld	l, -5 (ix)
;	spillPairReg hl
;	spillPairReg hl
	ld	h, -4 (ix)
;	spillPairReg hl
;	spillPairReg hl
	push	hl
	ld	l, -3 (ix)
;	spillPairReg hl
;	spillPairReg hl
	ld	h, -2 (ix)
;	spillPairReg hl
;	spillPairReg hl
	push	hl
	ld	de, #_UpdateGameState_Restarts
	ld	a, #0x0c
	call	_CallFnc_VOID_3PTR_U16
00342$:
;E:\Dropbox\FAUSTO\SVILUPPI\MSX\CODE\C\MSXgl\projects\soccerlgMSX2/soccerlg_s9_b3.c:418: }
	ld	sp, ix
	pop	ix
	pop	hl
	pop	af
	pop	af
	jp	(hl)
_g_RDPRIM	=	0xf380
_g_WRPRIM	=	0xf385
_g_CLPRIM	=	0xf38c
_g_USRTAB	=	0xf39a
_g_CNSDFG	=	0xf3de
_g_RG0SAV	=	0xf3df
_g_RG1SAV	=	0xf3e0
_g_RG2SAV	=	0xf3e1
_g_RG3SAV	=	0xf3e2
_g_RG4SAV	=	0xf3e3
_g_RG5SAV	=	0xf3e4
_g_RG6SAV	=	0xf3e5
_g_RG7SAV	=	0xf3e6
_g_STATFL	=	0xf3e7
_g_TRGFLG	=	0xf3e8
_g_MAXUPD	=	0xf3ec
_g_MINUPD	=	0xf3ef
_g_QUEUES	=	0xf3f3
_g_FRCNEW	=	0xf3f5
_g_SCNCNT	=	0xf3f6
_g_REPCNT	=	0xf3f7
_g_PUTPNT	=	0xf3f8
_g_GETPNT	=	0xf3fa
_g_CS120	=	0xf3fc
_g_CS240	=	0xf401
_g_LOW	=	0xf406
_g_HIGH	=	0xf408
_g_HEADER	=	0xf40a
_g_ASPCT1	=	0xf40b
_g_ASPCT2	=	0xf40d
_g_QUETAB	=	0xf959
_g_QUEBAK	=	0xf971
_g_VOICAQ	=	0xf975
_g_VOICBQ	=	0xf9f5
_g_VOICCQ	=	0xfa75
_g_RS2IQ	=	0xfaf5
_g_DPPAGE	=	0xfaf5
_g_ACPAGE	=	0xfaf6
_g_AVCSAV	=	0xfaf7
_g_EXBRSA	=	0xfaf8
_g_CHRCNT	=	0xfaf9
_g_ROMA	=	0xfafa
_g_MODE	=	0xfafc
_g_NORUSE	=	0xfafd
_g_XSAVE	=	0xfafe
_g_YSAVE	=	0xfb00
_g_RSTMP	=	0xfb03
_g_TOCNT	=	0xfb03
_g_RSFCB	=	0xfb04
_g_RSIQLN	=	0xfb06
_g_MEXBIh	=	0xfb07
_g_OLDSTT	=	0xfb0c
_g_OLDINT	=	0xfb0c
_g_DEVNUM	=	0xfb16
_g_DATCNT	=	0xfb17
_g_ERRORS	=	0xfb1a
_g_FLAGS	=	0xfb1b
_g_ESTBLS	=	0xfb1c
_g_COMMSK	=	0xfb1d
_g_LSTCOM	=	0xfb1e
_g_LSTMOD	=	0xfb1f
_g_PRSCNT	=	0xfb35
_g_SAVSP	=	0xfb36
_g_VOICEN	=	0xfb38
_g_SAVVOL	=	0xfb39
_g_MCLLEN	=	0xfb3b
_g_MCLPTR	=	0xfb3c
_g_QUEUEN	=	0xfb3e
_g_MUSICF	=	0xfb3f
_g_PLYCNT	=	0xfb40
_g_VCBA	=	0xfb41
_g_VCBB	=	0xfb66
_g_VCBC	=	0xfb8b
_g_ENSTOP	=	0xfbb0
_g_BASROM	=	0xfbb1
_g_LINTTB	=	0xfbb2
_g_FSTPOS	=	0xfbca
_g_CODSAV	=	0xfbcc
_g_FNKSWI	=	0xfbcd
_g_FNKFLG	=	0xfbce
_g_ONGSBF	=	0xfbd8
_g_CLIKFL	=	0xfbd9
_g_OLDKEY	=	0xfbda
_g_NEWKEY	=	0xfbe5
_g_KEYBUF	=	0xfbf0
_g_LINWRK	=	0xfc18
_g_PATWRK	=	0xfc40
_g_BOTTOM	=	0xfc48
_g_HIMEM	=	0xfc4a
_g_TRPTBL	=	0xfc4c
_g_RTYCNT	=	0xfc9a
_g_INTFLG	=	0xfc9b
_g_PADY	=	0xfc9c
_g_PADX	=	0xfc9d
_g_JIFFY	=	0xfc9e
_g_INTVAL	=	0xfca0
_g_INTCNT	=	0xfca2
_g_LOWLIM	=	0xfca4
_g_WINWID	=	0xfca5
_g_GRPHED	=	0xfca6
_g_ESCCNT	=	0xfca7
_g_INSFLG	=	0xfca8
_g_CSRSW	=	0xfca9
_g_CSTYLE	=	0xfcaa
_g_CAPST	=	0xfcab
_g_KANAST	=	0xfcac
_g_KANAMD	=	0xfcad
_g_FLBMEM	=	0xfcae
_g_SCRMOD	=	0xfcaf
_g_OLDSCR	=	0xfcb0
_g_CASPRV	=	0xfcb1
_g_BRDATR	=	0xfcb2
_g_GXPOS	=	0xfcb3
_g_GYPOS	=	0xfcb5
_g_DRWFLG	=	0xfcbb
_g_DRWSCL	=	0xfcbc
_g_DRWANG	=	0xfcbd
_g_MNROM	=	0xfcc1
_g_EXPTBL	=	0xfcc1
_g_SLTTBL	=	0xfcc5
_g_SLTATR	=	0xfcc9
_g_SLTWRK	=	0xfd09
_g_PROCNM	=	0xfd89
_g_RG08SAV	=	0xffe7
_g_RG09SAV	=	0xffe8
_g_RG10SAV	=	0xffe9
_g_RG11SAV	=	0xffea
_g_RG12SAV	=	0xffeb
_g_RG13SAV	=	0xffec
_g_RG14SAV	=	0xffed
_g_RG15SAV	=	0xffee
_g_RG16SAV	=	0xffef
_g_RG17SAV	=	0xfff0
_g_RG18SAV	=	0xfff1
_g_RG19SAV	=	0xfff2
_g_RG20SAV	=	0xfff3
_g_RG21SAV	=	0xfff4
_g_RG22SAV	=	0xfff5
_g_RG23SAV	=	0xfff6
_g_MINROM	=	0xfff7
_g_SVFFF8	=	0xfff8
_g_RG25SAV	=	0xfffa
_g_RG26SAV	=	0xfffb
_g_RG27SAV	=	0xfffc
_g_SVFFFD	=	0xfffd
_g_CGTABL	=	0x0004
_g_VDP_DR	=	0x0006
_g_VDP_DW	=	0x0007
_g_BASRVN	=	0x002b
_g_ROMVersion	=	0x002b
_g_MSXVER	=	0x002d
_g_MSXMID	=	0x002e
_g_CHAR_16	=	0x0034
_g_SUBRID	=	0x0000
_g_STRSRC	=	0x0002
_g_KANJTABLE	=	0xf30f
_g_DISKVE	=	0xf323
_g_BREAKV	=	0xf325
_g_RAMAD0	=	0xf341
_g_RAMAD1	=	0xf342
_g_RAMAD2	=	0xf343
_g_RAMAD3	=	0xf344
_g_MASTER	=	0xf348
_g_BDOS	=	0xf37d
	.area _SEG9
	.area _INITIALIZER
	.area _CABS (ABS)
