                                      1 ;--------------------------------------------------------
                                      2 ; File Created by SDCC : free open source ANSI-C Compiler
                                      3 ; Version 4.2.0 #13081 (MINGW64)
                                      4 ;--------------------------------------------------------
                                      5 	.module soccerlg_s10_b3
                                      6 	.optsdcc -mz80
                                      7 	
                                      8 ;--------------------------------------------------------
                                      9 ; Public variables in this module
                                     10 ;--------------------------------------------------------
                                     11 	.globl _EventGoal
                                     12 	.globl _EventGoalKick
                                     13 	.globl _EventCornerKick
                                     14 	.globl _EventThrowIn
                                     15 	.globl _CallFnc_VOID
                                     16 	.globl _g_SLTSL
                                     17 	.globl _g_GRPACY
                                     18 	.globl _g_GRPACX
                                     19 	.globl _g_LOGOPR
                                     20 	.globl _g_CMASK
                                     21 	.globl _g_CLOC
                                     22 	.globl _g_FNKSTR
                                     23 	.globl _g_ATRBYT
                                     24 	.globl _g_BDRCLR
                                     25 	.globl _g_BAKCLR
                                     26 	.globl _g_FORCLR
                                     27 	.globl _g_CSRX
                                     28 	.globl _g_CSRY
                                     29 	.globl _g_CLIKSW
                                     30 	.globl _g_MLTPAT
                                     31 	.globl _g_MLTATR
                                     32 	.globl _g_MLTCGP
                                     33 	.globl _g_MLTCOL
                                     34 	.globl _g_MLTNAM
                                     35 	.globl _g_GRPPAT
                                     36 	.globl _g_GRPATR
                                     37 	.globl _g_GRPCGP
                                     38 	.globl _g_GRPCOL
                                     39 	.globl _g_GRPNAM
                                     40 	.globl _g_T32PAT
                                     41 	.globl _g_T32ATR
                                     42 	.globl _g_T32CGP
                                     43 	.globl _g_T32COL
                                     44 	.globl _g_T32NAM
                                     45 	.globl _g_TXTPAT
                                     46 	.globl _g_TXTATR
                                     47 	.globl _g_TXTCGP
                                     48 	.globl _g_TXTCOL
                                     49 	.globl _g_TXTNAM
                                     50 	.globl _g_CLMLST
                                     51 	.globl _g_CRTCNT
                                     52 	.globl _g_LINLEN
                                     53 	.globl _g_LINL32
                                     54 	.globl _g_LINL40
                                     55 	.globl _g_BDOS
                                     56 	.globl _g_MASTER
                                     57 	.globl _g_RAMAD3
                                     58 	.globl _g_RAMAD2
                                     59 	.globl _g_RAMAD1
                                     60 	.globl _g_RAMAD0
                                     61 	.globl _g_BREAKV
                                     62 	.globl _g_DISKVE
                                     63 	.globl _g_KANJTABLE
                                     64 	.globl _g_STRSRC
                                     65 	.globl _g_SUBRID
                                     66 	.globl _g_CHAR_16
                                     67 	.globl _g_MSXMID
                                     68 	.globl _g_MSXVER
                                     69 	.globl _g_ROMVersion
                                     70 	.globl _g_BASRVN
                                     71 	.globl _g_VDP_DW
                                     72 	.globl _g_VDP_DR
                                     73 	.globl _g_CGTABL
                                     74 	.globl _g_SVFFFD
                                     75 	.globl _g_RG27SAV
                                     76 	.globl _g_RG26SAV
                                     77 	.globl _g_RG25SAV
                                     78 	.globl _g_SVFFF8
                                     79 	.globl _g_MINROM
                                     80 	.globl _g_RG23SAV
                                     81 	.globl _g_RG22SAV
                                     82 	.globl _g_RG21SAV
                                     83 	.globl _g_RG20SAV
                                     84 	.globl _g_RG19SAV
                                     85 	.globl _g_RG18SAV
                                     86 	.globl _g_RG17SAV
                                     87 	.globl _g_RG16SAV
                                     88 	.globl _g_RG15SAV
                                     89 	.globl _g_RG14SAV
                                     90 	.globl _g_RG13SAV
                                     91 	.globl _g_RG12SAV
                                     92 	.globl _g_RG11SAV
                                     93 	.globl _g_RG10SAV
                                     94 	.globl _g_RG09SAV
                                     95 	.globl _g_RG08SAV
                                     96 	.globl _g_PROCNM
                                     97 	.globl _g_SLTWRK
                                     98 	.globl _g_SLTATR
                                     99 	.globl _g_SLTTBL
                                    100 	.globl _g_EXPTBL
                                    101 	.globl _g_MNROM
                                    102 	.globl _g_DRWANG
                                    103 	.globl _g_DRWSCL
                                    104 	.globl _g_DRWFLG
                                    105 	.globl _g_GYPOS
                                    106 	.globl _g_GXPOS
                                    107 	.globl _g_BRDATR
                                    108 	.globl _g_CASPRV
                                    109 	.globl _g_OLDSCR
                                    110 	.globl _g_SCRMOD
                                    111 	.globl _g_FLBMEM
                                    112 	.globl _g_KANAMD
                                    113 	.globl _g_KANAST
                                    114 	.globl _g_CAPST
                                    115 	.globl _g_CSTYLE
                                    116 	.globl _g_CSRSW
                                    117 	.globl _g_INSFLG
                                    118 	.globl _g_ESCCNT
                                    119 	.globl _g_GRPHED
                                    120 	.globl _g_WINWID
                                    121 	.globl _g_LOWLIM
                                    122 	.globl _g_INTCNT
                                    123 	.globl _g_INTVAL
                                    124 	.globl _g_JIFFY
                                    125 	.globl _g_PADX
                                    126 	.globl _g_PADY
                                    127 	.globl _g_INTFLG
                                    128 	.globl _g_RTYCNT
                                    129 	.globl _g_TRPTBL
                                    130 	.globl _g_HIMEM
                                    131 	.globl _g_BOTTOM
                                    132 	.globl _g_PATWRK
                                    133 	.globl _g_LINWRK
                                    134 	.globl _g_KEYBUF
                                    135 	.globl _g_NEWKEY
                                    136 	.globl _g_OLDKEY
                                    137 	.globl _g_CLIKFL
                                    138 	.globl _g_ONGSBF
                                    139 	.globl _g_FNKFLG
                                    140 	.globl _g_FNKSWI
                                    141 	.globl _g_CODSAV
                                    142 	.globl _g_FSTPOS
                                    143 	.globl _g_LINTTB
                                    144 	.globl _g_BASROM
                                    145 	.globl _g_ENSTOP
                                    146 	.globl _g_VCBC
                                    147 	.globl _g_VCBB
                                    148 	.globl _g_VCBA
                                    149 	.globl _g_PLYCNT
                                    150 	.globl _g_MUSICF
                                    151 	.globl _g_QUEUEN
                                    152 	.globl _g_MCLPTR
                                    153 	.globl _g_MCLLEN
                                    154 	.globl _g_SAVVOL
                                    155 	.globl _g_VOICEN
                                    156 	.globl _g_SAVSP
                                    157 	.globl _g_PRSCNT
                                    158 	.globl _g_LSTMOD
                                    159 	.globl _g_LSTCOM
                                    160 	.globl _g_COMMSK
                                    161 	.globl _g_ESTBLS
                                    162 	.globl _g_FLAGS
                                    163 	.globl _g_ERRORS
                                    164 	.globl _g_DATCNT
                                    165 	.globl _g_DEVNUM
                                    166 	.globl _g_OLDINT
                                    167 	.globl _g_OLDSTT
                                    168 	.globl _g_MEXBIh
                                    169 	.globl _g_RSIQLN
                                    170 	.globl _g_RSFCB
                                    171 	.globl _g_TOCNT
                                    172 	.globl _g_RSTMP
                                    173 	.globl _g_YSAVE
                                    174 	.globl _g_XSAVE
                                    175 	.globl _g_NORUSE
                                    176 	.globl _g_MODE
                                    177 	.globl _g_ROMA
                                    178 	.globl _g_CHRCNT
                                    179 	.globl _g_EXBRSA
                                    180 	.globl _g_AVCSAV
                                    181 	.globl _g_ACPAGE
                                    182 	.globl _g_DPPAGE
                                    183 	.globl _g_RS2IQ
                                    184 	.globl _g_VOICCQ
                                    185 	.globl _g_VOICBQ
                                    186 	.globl _g_VOICAQ
                                    187 	.globl _g_QUEBAK
                                    188 	.globl _g_QUETAB
                                    189 	.globl _g_ASPCT2
                                    190 	.globl _g_ASPCT1
                                    191 	.globl _g_HEADER
                                    192 	.globl _g_HIGH
                                    193 	.globl _g_LOW
                                    194 	.globl _g_CS240
                                    195 	.globl _g_CS120
                                    196 	.globl _g_GETPNT
                                    197 	.globl _g_PUTPNT
                                    198 	.globl _g_REPCNT
                                    199 	.globl _g_SCNCNT
                                    200 	.globl _g_FRCNEW
                                    201 	.globl _g_QUEUES
                                    202 	.globl _g_MINUPD
                                    203 	.globl _g_MAXUPD
                                    204 	.globl _g_TRGFLG
                                    205 	.globl _g_STATFL
                                    206 	.globl _g_RG7SAV
                                    207 	.globl _g_RG6SAV
                                    208 	.globl _g_RG5SAV
                                    209 	.globl _g_RG4SAV
                                    210 	.globl _g_RG3SAV
                                    211 	.globl _g_RG2SAV
                                    212 	.globl _g_RG1SAV
                                    213 	.globl _g_RG0SAV
                                    214 	.globl _g_CNSDFG
                                    215 	.globl _g_USRTAB
                                    216 	.globl _g_CLPRIM
                                    217 	.globl _g_WRPRIM
                                    218 	.globl _g_RDPRIM
                                    219 	.globl _UpdateFieldCamera
                                    220 	.globl _CheckFieldBoundaries
                                    221 ;--------------------------------------------------------
                                    222 ; special function registers
                                    223 ;--------------------------------------------------------
                         000000A8   224 _g_PortPrimarySlot	=	0x00a8
                         000000A9   225 _g_PortReadKeyboard	=	0x00a9
                         000000AA   226 _g_PortAccessKeyboard	=	0x00aa
                         000000AB   227 _g_PortControl	=	0x00ab
                         00000098   228 _g_VDP_DataPort	=	0x0098
                         00000099   229 _g_VDP_RegPort	=	0x0099
                         00000099   230 _g_VDP_AddrPort	=	0x0099
                         00000099   231 _g_VDP_StatPort	=	0x0099
                         0000009A   232 _g_VDP_PalPort	=	0x009a
                         0000009B   233 _g_VDP_IRegPort	=	0x009b
                         000000A0   234 _g_PSG_RegPort	=	0x00a0
                         000000A1   235 _g_PSG_DataPort	=	0x00a1
                         000000A2   236 _g_PSG_StatPort	=	0x00a2
                         00000010   237 _g_PSG_Ext_RegPort	=	0x0010
                         00000011   238 _g_PSG_Ext_DataPort	=	0x0011
                         00000012   239 _g_PSG_Ext_StatPort	=	0x0012
                         0000007C   240 _g_MSXMusic_IndexPort	=	0x007c
                         0000007D   241 _g_MSXMusic_DataPort	=	0x007d
                         000000C0   242 _g_MSXAudio_IndexPort	=	0x00c0
                         000000C1   243 _g_MSXAudio_DataPort	=	0x00c1
                         000000C2   244 _g_MSXAudio_IndexPort2	=	0x00c2
                         000000C3   245 _g_MSXAudio_DataPort2	=	0x00c3
                         000000B4   246 _g_RTC_AddrPort	=	0x00b4
                         000000B5   247 _g_RTC_DataPort	=	0x00b5
                                    248 ;--------------------------------------------------------
                                    249 ; ram data
                                    250 ;--------------------------------------------------------
                                    251 	.area _DATA
                         0000F3AE   252 _g_LINL40	=	0xf3ae
                         0000F3AF   253 _g_LINL32	=	0xf3af
                         0000F3B0   254 _g_LINLEN	=	0xf3b0
                         0000F3B1   255 _g_CRTCNT	=	0xf3b1
                         0000F3B2   256 _g_CLMLST	=	0xf3b2
                         0000F3B3   257 _g_TXTNAM	=	0xf3b3
                         0000F3B5   258 _g_TXTCOL	=	0xf3b5
                         0000F3B7   259 _g_TXTCGP	=	0xf3b7
                         0000F3B9   260 _g_TXTATR	=	0xf3b9
                         0000F3BB   261 _g_TXTPAT	=	0xf3bb
                         0000F3BD   262 _g_T32NAM	=	0xf3bd
                         0000F3BF   263 _g_T32COL	=	0xf3bf
                         0000F3C1   264 _g_T32CGP	=	0xf3c1
                         0000F3C3   265 _g_T32ATR	=	0xf3c3
                         0000F3C5   266 _g_T32PAT	=	0xf3c5
                         0000F3C7   267 _g_GRPNAM	=	0xf3c7
                         0000F3C9   268 _g_GRPCOL	=	0xf3c9
                         0000F3CB   269 _g_GRPCGP	=	0xf3cb
                         0000F3CD   270 _g_GRPATR	=	0xf3cd
                         0000F3CF   271 _g_GRPPAT	=	0xf3cf
                         0000F3D1   272 _g_MLTNAM	=	0xf3d1
                         0000F3D3   273 _g_MLTCOL	=	0xf3d3
                         0000F3D5   274 _g_MLTCGP	=	0xf3d5
                         0000F3D7   275 _g_MLTATR	=	0xf3d7
                         0000F3D9   276 _g_MLTPAT	=	0xf3d9
                         0000F3DB   277 _g_CLIKSW	=	0xf3db
                         0000F3DC   278 _g_CSRY	=	0xf3dc
                         0000F3DD   279 _g_CSRX	=	0xf3dd
                         0000F3E9   280 _g_FORCLR	=	0xf3e9
                         0000F3EA   281 _g_BAKCLR	=	0xf3ea
                         0000F3EB   282 _g_BDRCLR	=	0xf3eb
                         0000F3F2   283 _g_ATRBYT	=	0xf3f2
                         0000F87F   284 _g_FNKSTR	=	0xf87f
                         0000F92A   285 _g_CLOC	=	0xf92a
                         0000F92C   286 _g_CMASK	=	0xf92c
                         0000FB02   287 _g_LOGOPR	=	0xfb02
                         0000FCB7   288 _g_GRPACX	=	0xfcb7
                         0000FCB9   289 _g_GRPACY	=	0xfcb9
                         0000FFFF   290 _g_SLTSL	=	0xffff
                                    291 ;--------------------------------------------------------
                                    292 ; ram data
                                    293 ;--------------------------------------------------------
                                    294 	.area _INITIALIZED
                                    295 ;--------------------------------------------------------
                                    296 ; absolute external ram data
                                    297 ;--------------------------------------------------------
                                    298 	.area _DABS (ABS)
                                    299 ;--------------------------------------------------------
                                    300 ; global & static initialisations
                                    301 ;--------------------------------------------------------
                                    302 	.area _HOME
                                    303 	.area _GSINIT
                                    304 	.area _GSFINAL
                                    305 	.area _GSINIT
                                    306 ;--------------------------------------------------------
                                    307 ; Home
                                    308 ;--------------------------------------------------------
                                    309 	.area _HOME
                                    310 	.area _HOME
                                    311 ;--------------------------------------------------------
                                    312 ; code
                                    313 ;--------------------------------------------------------
                                    314 	.area _SEG10
                                    315 ;E:\Dropbox\FAUSTO\SVILUPPI\MSX\CODE\C\MSXgl\projects\soccerlgMSX2/soccerlg_s10_b3.c:9: void UpdateFieldCamera()
                                    316 ;	---------------------------------
                                    317 ; Function UpdateFieldCamera
                                    318 ; ---------------------------------
    00000000                        319 _UpdateFieldCamera::
    00000000 DD E5            [15]  320 	push	ix
    00000002 DD 21 00 00      [14]  321 	ld	ix,#0
    00000006 DD 39            [15]  322 	add	ix,sp
    00000008 21 F6 FF         [10]  323 	ld	hl, #-10
    0000000B 39               [11]  324 	add	hl, sp
    0000000C F9               [ 6]  325 	ld	sp, hl
                                    326 ;E:\Dropbox\FAUSTO\SVILUPPI\MSX\CODE\C\MSXgl\projects\soccerlgMSX2/soccerlg_s10_b3.c:11: struct ObjectInfo* Ball = &SwSprite[14];
                                    327 ;E:\Dropbox\FAUSTO\SVILUPPI\MSX\CODE\C\MSXgl\projects\soccerlgMSX2/soccerlg_s10_b3.c:13: i16 camera_dy = 0;
    0000000D 01 00 00         [10]  328 	ld	bc, #0x0000
                                    329 ;E:\Dropbox\FAUSTO\SVILUPPI\MSX\CODE\C\MSXgl\projects\soccerlgMSX2/soccerlg_s10_b3.c:18: u16 top_margin = 64;
    00000010 21 40 00         [10]  330 	ld	hl, #0x0040
    00000013 E3               [19]  331 	ex	(sp), hl
                                    332 ;E:\Dropbox\FAUSTO\SVILUPPI\MSX\CODE\C\MSXgl\projects\soccerlgMSX2/soccerlg_s10_b3.c:19: u16 bottom_margin = 64;
    00000014 DD 36 F8 40      [19]  333 	ld	-8 (ix), #0x40
    00000018 DD 36 F9 00      [19]  334 	ld	-7 (ix), #0
                                    335 ;E:\Dropbox\FAUSTO\SVILUPPI\MSX\CODE\C\MSXgl\projects\soccerlgMSX2/soccerlg_s10_b3.c:21: if (Ball->ly < 256) {
    0000001C 21r46r01         [10]  336 	ld	hl, #(_SwSprite + 322) + 4
    0000001F 7E               [ 7]  337 	ld	a, (hl)
    00000020 DD 77 FA         [19]  338 	ld	-6 (ix), a
    00000023 23               [ 6]  339 	inc	hl
    00000024 7E               [ 7]  340 	ld	a, (hl)
    00000025 DD 77 FB         [19]  341 	ld	-5 (ix), a
    00000028 DD 5E FA         [19]  342 	ld	e, -6 (ix)
    0000002B DD 56 FB         [19]  343 	ld	d, -5 (ix)
    0000002E 7A               [ 4]  344 	ld	a, d
    0000002F D6 01            [ 7]  345 	sub	a, #0x01
    00000031 30 25            [12]  346 	jr	NC, 00108$
                                    347 ;E:\Dropbox\FAUSTO\SVILUPPI\MSX\CODE\C\MSXgl\projects\soccerlgMSX2/soccerlg_s10_b3.c:22: top_margin = 64 + (256 - Ball->ly) / 2;
    00000033 AF               [ 4]  348 	xor	a, a
    00000034 DD 96 FA         [19]  349 	sub	a, -6 (ix)
    00000037 5F               [ 4]  350 	ld	e, a
    00000038 3E 01            [ 7]  351 	ld	a, #0x01
    0000003A DD 9E FB         [19]  352 	sbc	a, -5 (ix)
    0000003D 57               [ 4]  353 	ld	d, a
    0000003E CB 3A            [ 8]  354 	srl	d
    00000040 CB 1B            [ 8]  355 	rr	e
    00000042 21 40 00         [10]  356 	ld	hl, #0x0040
    00000045 19               [11]  357 	add	hl, de
    00000046 E3               [19]  358 	ex	(sp), hl
                                    359 ;E:\Dropbox\FAUSTO\SVILUPPI\MSX\CODE\C\MSXgl\projects\soccerlgMSX2/soccerlg_s10_b3.c:23: if (top_margin > 140) top_margin = 140;
    00000047 D1               [10]  360 	pop	de
    00000048 D5               [11]  361 	push	de
    00000049 3E 8C            [ 7]  362 	ld	a, #0x8c
    0000004B BB               [ 4]  363 	cp	a, e
    0000004C 3E 00            [ 7]  364 	ld	a, #0x00
    0000004E 9A               [ 4]  365 	sbc	a, d
    0000004F 30 2E            [12]  366 	jr	NC, 00109$
    00000051 21 8C 00         [10]  367 	ld	hl, #0x008c
    00000054 E3               [19]  368 	ex	(sp), hl
    00000055 C3r7Fr00         [10]  369 	jp	00109$
    00000058                        370 00108$:
                                    371 ;E:\Dropbox\FAUSTO\SVILUPPI\MSX\CODE\C\MSXgl\projects\soccerlgMSX2/soccerlg_s10_b3.c:24: } else if (Ball->ly > 256) {
    00000058 AF               [ 4]  372 	xor	a, a
    00000059 BB               [ 4]  373 	cp	a, e
    0000005A 3E 01            [ 7]  374 	ld	a, #0x01
    0000005C 9A               [ 4]  375 	sbc	a, d
    0000005D 30 20            [12]  376 	jr	NC, 00109$
                                    377 ;E:\Dropbox\FAUSTO\SVILUPPI\MSX\CODE\C\MSXgl\projects\soccerlgMSX2/soccerlg_s10_b3.c:25: bottom_margin = 64 + (Ball->ly - 256) / 2;
    0000005F 15               [ 4]  378 	dec	d
    00000060 CB 3A            [ 8]  379 	srl	d
    00000062 CB 1B            [ 8]  380 	rr	e
    00000064 21 40 00         [10]  381 	ld	hl, #0x0040
    00000067 19               [11]  382 	add	hl, de
                                    383 ;E:\Dropbox\FAUSTO\SVILUPPI\MSX\CODE\C\MSXgl\projects\soccerlgMSX2/soccerlg_s10_b3.c:26: if (bottom_margin > 140) bottom_margin = 140;
    00000068 DD 75 F8         [19]  384 	ld	-8 (ix), l
    0000006B DD 74 F9         [19]  385 	ld	-7 (ix), h
    0000006E EB               [ 4]  386 	ex	de,hl
    0000006F 3E 8C            [ 7]  387 	ld	a, #0x8c
    00000071 BB               [ 4]  388 	cp	a, e
    00000072 3E 00            [ 7]  389 	ld	a, #0x00
    00000074 9A               [ 4]  390 	sbc	a, d
    00000075 30 08            [12]  391 	jr	NC, 00109$
    00000077 DD 36 F8 8C      [19]  392 	ld	-8 (ix), #0x8c
    0000007B DD 36 F9 00      [19]  393 	ld	-7 (ix), #0
    0000007F                        394 00109$:
                                    395 ;E:\Dropbox\FAUSTO\SVILUPPI\MSX\CODE\C\MSXgl\projects\soccerlgMSX2/soccerlg_s10_b3.c:30: if (Ball->ly < Field.ly + top_margin && Field.ly > 0) {
    0000007F 21r04r00         [10]  396 	ld	hl, #(_Field + 4)
    00000082 7E               [ 7]  397 	ld	a, (hl)
    00000083 DD 77 FC         [19]  398 	ld	-4 (ix), a
    00000086 23               [ 6]  399 	inc	hl
    00000087 7E               [ 7]  400 	ld	a, (hl)
    00000088 DD 77 FD         [19]  401 	ld	-3 (ix), a
    0000008B DD 7E F6         [19]  402 	ld	a, -10 (ix)
    0000008E DD 86 FC         [19]  403 	add	a, -4 (ix)
    00000091 DD 77 FE         [19]  404 	ld	-2 (ix), a
    00000094 DD 7E F7         [19]  405 	ld	a, -9 (ix)
    00000097 DD 8E FD         [19]  406 	adc	a, -3 (ix)
    0000009A DD 77 FF         [19]  407 	ld	-1 (ix), a
    0000009D DD 7E FA         [19]  408 	ld	a, -6 (ix)
    000000A0 DD 96 FE         [19]  409 	sub	a, -2 (ix)
    000000A3 DD 7E FB         [19]  410 	ld	a, -5 (ix)
    000000A6 DD 9E FF         [19]  411 	sbc	a, -1 (ix)
    000000A9 D2r5Cr01         [10]  412 	jp	NC, 00128$
    000000AC DD 7E FD         [19]  413 	ld	a, -3 (ix)
    000000AF DD B6 FC         [19]  414 	or	a, -4 (ix)
    000000B2 CAr5Cr01         [10]  415 	jp	Z, 00128$
                                    416 ;E:\Dropbox\FAUSTO\SVILUPPI\MSX\CODE\C\MSXgl\projects\soccerlgMSX2/soccerlg_s10_b3.c:31: i16 diff = (i16)(Field.ly + top_margin) - (i16)Ball->ly;
    000000B5 DD 6E FE         [19]  417 	ld	l, -2 (ix)
                                    418 ;	spillPairReg hl
                                    419 ;	spillPairReg hl
    000000B8 DD 66 FF         [19]  420 	ld	h, -1 (ix)
                                    421 ;	spillPairReg hl
                                    422 ;	spillPairReg hl
    000000BB DD 4E FA         [19]  423 	ld	c, -6 (ix)
    000000BE DD 46 FB         [19]  424 	ld	b, -5 (ix)
    000000C1 BF               [ 4]  425 	cp	a, a
    000000C2 ED 42            [15]  426 	sbc	hl, bc
    000000C4 DD 75 FE         [19]  427 	ld	-2 (ix), l
    000000C7 DD 74 FF         [19]  428 	ld	-1 (ix), h
                                    429 ;E:\Dropbox\FAUSTO\SVILUPPI\MSX\CODE\C\MSXgl\projects\soccerlgMSX2/soccerlg_s10_b3.c:32: if (diff > 5) {
    000000CA DD 7E FE         [19]  430 	ld	a, -2 (ix)
    000000CD DD 77 FA         [19]  431 	ld	-6 (ix), a
    000000D0 DD 7E FF         [19]  432 	ld	a, -1 (ix)
    000000D3 DD 77 FB         [19]  433 	ld	-5 (ix), a
    000000D6 3E 05            [ 7]  434 	ld	a, #0x05
    000000D8 DD BE FA         [19]  435 	cp	a, -6 (ix)
    000000DB 3E 00            [ 7]  436 	ld	a, #0x00
    000000DD DD 9E FB         [19]  437 	sbc	a, -5 (ix)
    000000E0 E2rE5r00         [10]  438 	jp	PO, 00215$
    000000E3 EE 80            [ 7]  439 	xor	a, #0x80
    000000E5                        440 00215$:
    000000E5 F2r3Br01         [10]  441 	jp	P, 00113$
                                    442 ;E:\Dropbox\FAUSTO\SVILUPPI\MSX\CODE\C\MSXgl\projects\soccerlgMSX2/soccerlg_s10_b3.c:33: camera_dy = -(5 + diff / 16); // Accelera dolcemente se è molto indietro
    000000E8 DD 7E FA         [19]  443 	ld	a, -6 (ix)
    000000EB DD 77 FE         [19]  444 	ld	-2 (ix), a
    000000EE DD 7E FB         [19]  445 	ld	a, -5 (ix)
    000000F1 DD 77 FF         [19]  446 	ld	-1 (ix), a
    000000F4 DD CB FB 7E      [20]  447 	bit	7, -5 (ix)
    000000F8 28 10            [12]  448 	jr	Z, 00133$
    000000FA DD 7E FA         [19]  449 	ld	a, -6 (ix)
    000000FD C6 0F            [ 7]  450 	add	a, #0x0f
    000000FF DD 77 FE         [19]  451 	ld	-2 (ix), a
    00000102 DD 7E FB         [19]  452 	ld	a, -5 (ix)
    00000105 CE 00            [ 7]  453 	adc	a, #0x00
    00000107 DD 77 FF         [19]  454 	ld	-1 (ix), a
    0000010A                        455 00133$:
    0000010A DD 4E FE         [19]  456 	ld	c, -2 (ix)
    0000010D DD 46 FF         [19]  457 	ld	b, -1 (ix)
    00000110 CB 28            [ 8]  458 	sra	b
    00000112 CB 19            [ 8]  459 	rr	c
    00000114 CB 28            [ 8]  460 	sra	b
    00000116 CB 19            [ 8]  461 	rr	c
    00000118 CB 28            [ 8]  462 	sra	b
    0000011A CB 19            [ 8]  463 	rr	c
    0000011C CB 28            [ 8]  464 	sra	b
    0000011E CB 19            [ 8]  465 	rr	c
    00000120 21 05 00         [10]  466 	ld	hl, #0x0005
    00000123 09               [11]  467 	add	hl, bc
    00000124 AF               [ 4]  468 	xor	a, a
    00000125 95               [ 4]  469 	sub	a, l
    00000126 4F               [ 4]  470 	ld	c, a
    00000127 9F               [ 4]  471 	sbc	a, a
    00000128 94               [ 4]  472 	sub	a, h
    00000129 47               [ 4]  473 	ld	b, a
                                    474 ;E:\Dropbox\FAUSTO\SVILUPPI\MSX\CODE\C\MSXgl\projects\soccerlgMSX2/soccerlg_s10_b3.c:34: if (camera_dy < -8) camera_dy = -8; // Velocità massima di recupero (fluida)
    0000012A 79               [ 4]  475 	ld	a, c
    0000012B D6 F8            [ 7]  476 	sub	a, #0xf8
    0000012D 78               [ 4]  477 	ld	a, b
    0000012E 17               [ 4]  478 	rla
    0000012F 3F               [ 4]  479 	ccf
    00000130 1F               [ 4]  480 	rra
    00000131 DE 7F            [ 7]  481 	sbc	a, #0x7f
    00000133 30 10            [12]  482 	jr	NC, 00114$
    00000135 01 F8 FF         [10]  483 	ld	bc, #0xfff8
    00000138 C3r45r01         [10]  484 	jp	00114$
    0000013B                        485 00113$:
                                    486 ;E:\Dropbox\FAUSTO\SVILUPPI\MSX\CODE\C\MSXgl\projects\soccerlgMSX2/soccerlg_s10_b3.c:36: camera_dy = -diff;
    0000013B AF               [ 4]  487 	xor	a, a
    0000013C DD 96 FE         [19]  488 	sub	a, -2 (ix)
    0000013F 4F               [ 4]  489 	ld	c, a
    00000140 9F               [ 4]  490 	sbc	a, a
    00000141 DD 96 FF         [19]  491 	sub	a, -1 (ix)
    00000144 47               [ 4]  492 	ld	b, a
    00000145                        493 00114$:
                                    494 ;E:\Dropbox\FAUSTO\SVILUPPI\MSX\CODE\C\MSXgl\projects\soccerlgMSX2/soccerlg_s10_b3.c:40: if ((i16)Field.ly + camera_dy < 0) {
    00000145 DD 5E FC         [19]  495 	ld	e, -4 (ix)
    00000148 DD 56 FD         [19]  496 	ld	d, -3 (ix)
    0000014B 69               [ 4]  497 	ld	l, c
    0000014C 60               [ 4]  498 	ld	h, b
    0000014D 19               [11]  499 	add	hl, de
    0000014E CB 7C            [ 8]  500 	bit	7, h
    00000150 CArEEr01         [10]  501 	jp	Z, 00129$
                                    502 ;E:\Dropbox\FAUSTO\SVILUPPI\MSX\CODE\C\MSXgl\projects\soccerlgMSX2/soccerlg_s10_b3.c:41: camera_dy = -(i16)Field.ly;
    00000153 AF               [ 4]  503 	xor	a, a
    00000154 93               [ 4]  504 	sub	a, e
    00000155 4F               [ 4]  505 	ld	c, a
    00000156 9F               [ 4]  506 	sbc	a, a
    00000157 92               [ 4]  507 	sub	a, d
    00000158 47               [ 4]  508 	ld	b, a
    00000159 C3rEEr01         [10]  509 	jp	00129$
    0000015C                        510 00128$:
                                    511 ;E:\Dropbox\FAUSTO\SVILUPPI\MSX\CODE\C\MSXgl\projects\soccerlgMSX2/soccerlg_s10_b3.c:44: else if (Ball->ly > Field.ly + 192 - bottom_margin && Field.ly < (FIELD_HEIGHT - 192)) {
    0000015C DD 5E FC         [19]  512 	ld	e, -4 (ix)
    0000015F DD 56 FD         [19]  513 	ld	d, -3 (ix)
    00000162 21 C0 00         [10]  514 	ld	hl, #0x00c0
    00000165 19               [11]  515 	add	hl, de
    00000166 7D               [ 4]  516 	ld	a, l
    00000167 DD 96 F8         [19]  517 	sub	a, -8 (ix)
    0000016A 6F               [ 4]  518 	ld	l, a
                                    519 ;	spillPairReg hl
                                    520 ;	spillPairReg hl
    0000016B 7C               [ 4]  521 	ld	a, h
    0000016C DD 9E F9         [19]  522 	sbc	a, -7 (ix)
    0000016F 67               [ 4]  523 	ld	h, a
                                    524 ;	spillPairReg hl
                                    525 ;	spillPairReg hl
    00000170 7D               [ 4]  526 	ld	a, l
    00000171 DD 96 FA         [19]  527 	sub	a, -6 (ix)
    00000174 7C               [ 4]  528 	ld	a, h
    00000175 DD 9E FB         [19]  529 	sbc	a, -5 (ix)
    00000178 30 74            [12]  530 	jr	NC, 00129$
    0000017A 7B               [ 4]  531 	ld	a, e
    0000017B D6 40            [ 7]  532 	sub	a, #0x40
    0000017D 7A               [ 4]  533 	ld	a, d
    0000017E DE 01            [ 7]  534 	sbc	a, #0x01
    00000180 30 6C            [12]  535 	jr	NC, 00129$
                                    536 ;E:\Dropbox\FAUSTO\SVILUPPI\MSX\CODE\C\MSXgl\projects\soccerlgMSX2/soccerlg_s10_b3.c:45: i16 diff = (i16)Ball->ly - (i16)(Field.ly + 192 - bottom_margin);
    00000182 DD 7E FA         [19]  537 	ld	a, -6 (ix)
    00000185 DD 46 FB         [19]  538 	ld	b, -5 (ix)
    00000188 95               [ 4]  539 	sub	a, l
    00000189 4F               [ 4]  540 	ld	c, a
    0000018A 78               [ 4]  541 	ld	a, b
    0000018B 9C               [ 4]  542 	sbc	a, h
    0000018C 47               [ 4]  543 	ld	b, a
                                    544 ;E:\Dropbox\FAUSTO\SVILUPPI\MSX\CODE\C\MSXgl\projects\soccerlgMSX2/soccerlg_s10_b3.c:46: if (diff > 5) {
    0000018D 59               [ 4]  545 	ld	e, c
    0000018E 50               [ 4]  546 	ld	d, b
    0000018F 3E 05            [ 7]  547 	ld	a, #0x05
    00000191 BB               [ 4]  548 	cp	a, e
    00000192 3E 00            [ 7]  549 	ld	a, #0x00
    00000194 9A               [ 4]  550 	sbc	a, d
    00000195 E2r9Ar01         [10]  551 	jp	PO, 00216$
    00000198 EE 80            [ 7]  552 	xor	a, #0x80
    0000019A                        553 00216$:
    0000019A F2rD1r01         [10]  554 	jp	P, 00120$
                                    555 ;E:\Dropbox\FAUSTO\SVILUPPI\MSX\CODE\C\MSXgl\projects\soccerlgMSX2/soccerlg_s10_b3.c:47: camera_dy = 5 + diff / 16; // Accelera dolcemente
    0000019D 4B               [ 4]  556 	ld	c, e
    0000019E 42               [ 4]  557 	ld	b, d
    0000019F CB 7A            [ 8]  558 	bit	7, d
    000001A1 28 06            [12]  559 	jr	Z, 00134$
    000001A3 21 0F 00         [10]  560 	ld	hl, #0x000f
    000001A6 19               [11]  561 	add	hl, de
    000001A7 4D               [ 4]  562 	ld	c, l
    000001A8 44               [ 4]  563 	ld	b, h
    000001A9                        564 00134$:
    000001A9 CB 28            [ 8]  565 	sra	b
    000001AB CB 19            [ 8]  566 	rr	c
    000001AD CB 28            [ 8]  567 	sra	b
    000001AF CB 19            [ 8]  568 	rr	c
    000001B1 CB 28            [ 8]  569 	sra	b
    000001B3 CB 19            [ 8]  570 	rr	c
    000001B5 CB 28            [ 8]  571 	sra	b
    000001B7 CB 19            [ 8]  572 	rr	c
    000001B9 03               [ 6]  573 	inc	bc
    000001BA 03               [ 6]  574 	inc	bc
    000001BB 03               [ 6]  575 	inc	bc
    000001BC 03               [ 6]  576 	inc	bc
    000001BD 03               [ 6]  577 	inc	bc
                                    578 ;E:\Dropbox\FAUSTO\SVILUPPI\MSX\CODE\C\MSXgl\projects\soccerlgMSX2/soccerlg_s10_b3.c:48: if (camera_dy > 8) camera_dy = 8; // Velocità massima di recupero
    000001BE 59               [ 4]  579 	ld	e, c
    000001BF 50               [ 4]  580 	ld	d, b
    000001C0 3E 08            [ 7]  581 	ld	a, #0x08
    000001C2 BB               [ 4]  582 	cp	a, e
    000001C3 3E 00            [ 7]  583 	ld	a, #0x00
    000001C5 9A               [ 4]  584 	sbc	a, d
    000001C6 E2rCBr01         [10]  585 	jp	PO, 00217$
    000001C9 EE 80            [ 7]  586 	xor	a, #0x80
    000001CB                        587 00217$:
    000001CB F2rD1r01         [10]  588 	jp	P, 00121$
    000001CE 01 08 00         [10]  589 	ld	bc, #0x0008
                                    590 ;E:\Dropbox\FAUSTO\SVILUPPI\MSX\CODE\C\MSXgl\projects\soccerlgMSX2/soccerlg_s10_b3.c:50: camera_dy = diff;
    000001D1                        591 00120$:
    000001D1                        592 00121$:
                                    593 ;E:\Dropbox\FAUSTO\SVILUPPI\MSX\CODE\C\MSXgl\projects\soccerlgMSX2/soccerlg_s10_b3.c:54: if (Field.ly + camera_dy > (FIELD_HEIGHT - 192)) {
    000001D1 59               [ 4]  594 	ld	e, c
    000001D2 50               [ 4]  595 	ld	d, b
    000001D3 DD 6E FC         [19]  596 	ld	l, -4 (ix)
    000001D6 DD 66 FD         [19]  597 	ld	h, -3 (ix)
    000001D9 19               [11]  598 	add	hl, de
    000001DA 3E 40            [ 7]  599 	ld	a, #0x40
    000001DC BD               [ 4]  600 	cp	a, l
    000001DD 3E 01            [ 7]  601 	ld	a, #0x01
    000001DF 9C               [ 4]  602 	sbc	a, h
    000001E0 30 0C            [12]  603 	jr	NC, 00129$
                                    604 ;E:\Dropbox\FAUSTO\SVILUPPI\MSX\CODE\C\MSXgl\projects\soccerlgMSX2/soccerlg_s10_b3.c:55: camera_dy = (FIELD_HEIGHT - 192) - Field.ly;
    000001E2 3E 40            [ 7]  605 	ld	a, #0x40
    000001E4 DD 96 FC         [19]  606 	sub	a, -4 (ix)
    000001E7 4F               [ 4]  607 	ld	c, a
    000001E8 3E 01            [ 7]  608 	ld	a, #0x01
    000001EA DD 9E FD         [19]  609 	sbc	a, -3 (ix)
    000001ED 47               [ 4]  610 	ld	b, a
    000001EE                        611 00129$:
                                    612 ;E:\Dropbox\FAUSTO\SVILUPPI\MSX\CODE\C\MSXgl\projects\soccerlgMSX2/soccerlg_s10_b3.c:59: Field.ly += camera_dy;
    000001EE 79               [ 4]  613 	ld	a, c
    000001EF 50               [ 4]  614 	ld	d, b
    000001F0 DD 86 FC         [19]  615 	add	a, -4 (ix)
    000001F3 5F               [ 4]  616 	ld	e, a
    000001F4 7A               [ 4]  617 	ld	a, d
    000001F5 DD 8E FD         [19]  618 	adc	a, -3 (ix)
    000001F8 57               [ 4]  619 	ld	d, a
    000001F9 ED 53r04r00      [20]  620 	ld	((_Field + 4)), de
                                    621 ;E:\Dropbox\FAUSTO\SVILUPPI\MSX\CODE\C\MSXgl\projects\soccerlgMSX2/soccerlg_s10_b3.c:60: Field.dy = (i8)camera_dy;
    000001FD 21r12r00         [10]  622 	ld	hl, #(_Field + 18)
    00000200 71               [ 7]  623 	ld	(hl), c
                                    624 ;E:\Dropbox\FAUSTO\SVILUPPI\MSX\CODE\C\MSXgl\projects\soccerlgMSX2/soccerlg_s10_b3.c:61: }
    00000201 DD F9            [10]  625 	ld	sp, ix
    00000203 DD E1            [14]  626 	pop	ix
    00000205 C9               [10]  627 	ret
                         0000F380   628 _g_RDPRIM	=	0xf380
                         0000F385   629 _g_WRPRIM	=	0xf385
                         0000F38C   630 _g_CLPRIM	=	0xf38c
                         0000F39A   631 _g_USRTAB	=	0xf39a
                         0000F3DE   632 _g_CNSDFG	=	0xf3de
                         0000F3DF   633 _g_RG0SAV	=	0xf3df
                         0000F3E0   634 _g_RG1SAV	=	0xf3e0
                         0000F3E1   635 _g_RG2SAV	=	0xf3e1
                         0000F3E2   636 _g_RG3SAV	=	0xf3e2
                         0000F3E3   637 _g_RG4SAV	=	0xf3e3
                         0000F3E4   638 _g_RG5SAV	=	0xf3e4
                         0000F3E5   639 _g_RG6SAV	=	0xf3e5
                         0000F3E6   640 _g_RG7SAV	=	0xf3e6
                         0000F3E7   641 _g_STATFL	=	0xf3e7
                         0000F3E8   642 _g_TRGFLG	=	0xf3e8
                         0000F3EC   643 _g_MAXUPD	=	0xf3ec
                         0000F3EF   644 _g_MINUPD	=	0xf3ef
                         0000F3F3   645 _g_QUEUES	=	0xf3f3
                         0000F3F5   646 _g_FRCNEW	=	0xf3f5
                         0000F3F6   647 _g_SCNCNT	=	0xf3f6
                         0000F3F7   648 _g_REPCNT	=	0xf3f7
                         0000F3F8   649 _g_PUTPNT	=	0xf3f8
                         0000F3FA   650 _g_GETPNT	=	0xf3fa
                         0000F3FC   651 _g_CS120	=	0xf3fc
                         0000F401   652 _g_CS240	=	0xf401
                         0000F406   653 _g_LOW	=	0xf406
                         0000F408   654 _g_HIGH	=	0xf408
                         0000F40A   655 _g_HEADER	=	0xf40a
                         0000F40B   656 _g_ASPCT1	=	0xf40b
                         0000F40D   657 _g_ASPCT2	=	0xf40d
                         0000F959   658 _g_QUETAB	=	0xf959
                         0000F971   659 _g_QUEBAK	=	0xf971
                         0000F975   660 _g_VOICAQ	=	0xf975
                         0000F9F5   661 _g_VOICBQ	=	0xf9f5
                         0000FA75   662 _g_VOICCQ	=	0xfa75
                         0000FAF5   663 _g_RS2IQ	=	0xfaf5
                         0000FAF5   664 _g_DPPAGE	=	0xfaf5
                         0000FAF6   665 _g_ACPAGE	=	0xfaf6
                         0000FAF7   666 _g_AVCSAV	=	0xfaf7
                         0000FAF8   667 _g_EXBRSA	=	0xfaf8
                         0000FAF9   668 _g_CHRCNT	=	0xfaf9
                         0000FAFA   669 _g_ROMA	=	0xfafa
                         0000FAFC   670 _g_MODE	=	0xfafc
                         0000FAFD   671 _g_NORUSE	=	0xfafd
                         0000FAFE   672 _g_XSAVE	=	0xfafe
                         0000FB00   673 _g_YSAVE	=	0xfb00
                         0000FB03   674 _g_RSTMP	=	0xfb03
                         0000FB03   675 _g_TOCNT	=	0xfb03
                         0000FB04   676 _g_RSFCB	=	0xfb04
                         0000FB06   677 _g_RSIQLN	=	0xfb06
                         0000FB07   678 _g_MEXBIh	=	0xfb07
                         0000FB0C   679 _g_OLDSTT	=	0xfb0c
                         0000FB0C   680 _g_OLDINT	=	0xfb0c
                         0000FB16   681 _g_DEVNUM	=	0xfb16
                         0000FB17   682 _g_DATCNT	=	0xfb17
                         0000FB1A   683 _g_ERRORS	=	0xfb1a
                         0000FB1B   684 _g_FLAGS	=	0xfb1b
                         0000FB1C   685 _g_ESTBLS	=	0xfb1c
                         0000FB1D   686 _g_COMMSK	=	0xfb1d
                         0000FB1E   687 _g_LSTCOM	=	0xfb1e
                         0000FB1F   688 _g_LSTMOD	=	0xfb1f
                         0000FB35   689 _g_PRSCNT	=	0xfb35
                         0000FB36   690 _g_SAVSP	=	0xfb36
                         0000FB38   691 _g_VOICEN	=	0xfb38
                         0000FB39   692 _g_SAVVOL	=	0xfb39
                         0000FB3B   693 _g_MCLLEN	=	0xfb3b
                         0000FB3C   694 _g_MCLPTR	=	0xfb3c
                         0000FB3E   695 _g_QUEUEN	=	0xfb3e
                         0000FB3F   696 _g_MUSICF	=	0xfb3f
                         0000FB40   697 _g_PLYCNT	=	0xfb40
                         0000FB41   698 _g_VCBA	=	0xfb41
                         0000FB66   699 _g_VCBB	=	0xfb66
                         0000FB8B   700 _g_VCBC	=	0xfb8b
                         0000FBB0   701 _g_ENSTOP	=	0xfbb0
                         0000FBB1   702 _g_BASROM	=	0xfbb1
                         0000FBB2   703 _g_LINTTB	=	0xfbb2
                         0000FBCA   704 _g_FSTPOS	=	0xfbca
                         0000FBCC   705 _g_CODSAV	=	0xfbcc
                         0000FBCD   706 _g_FNKSWI	=	0xfbcd
                         0000FBCE   707 _g_FNKFLG	=	0xfbce
                         0000FBD8   708 _g_ONGSBF	=	0xfbd8
                         0000FBD9   709 _g_CLIKFL	=	0xfbd9
                         0000FBDA   710 _g_OLDKEY	=	0xfbda
                         0000FBE5   711 _g_NEWKEY	=	0xfbe5
                         0000FBF0   712 _g_KEYBUF	=	0xfbf0
                         0000FC18   713 _g_LINWRK	=	0xfc18
                         0000FC40   714 _g_PATWRK	=	0xfc40
                         0000FC48   715 _g_BOTTOM	=	0xfc48
                         0000FC4A   716 _g_HIMEM	=	0xfc4a
                         0000FC4C   717 _g_TRPTBL	=	0xfc4c
                         0000FC9A   718 _g_RTYCNT	=	0xfc9a
                         0000FC9B   719 _g_INTFLG	=	0xfc9b
                         0000FC9C   720 _g_PADY	=	0xfc9c
                         0000FC9D   721 _g_PADX	=	0xfc9d
                         0000FC9E   722 _g_JIFFY	=	0xfc9e
                         0000FCA0   723 _g_INTVAL	=	0xfca0
                         0000FCA2   724 _g_INTCNT	=	0xfca2
                         0000FCA4   725 _g_LOWLIM	=	0xfca4
                         0000FCA5   726 _g_WINWID	=	0xfca5
                         0000FCA6   727 _g_GRPHED	=	0xfca6
                         0000FCA7   728 _g_ESCCNT	=	0xfca7
                         0000FCA8   729 _g_INSFLG	=	0xfca8
                         0000FCA9   730 _g_CSRSW	=	0xfca9
                         0000FCAA   731 _g_CSTYLE	=	0xfcaa
                         0000FCAB   732 _g_CAPST	=	0xfcab
                         0000FCAC   733 _g_KANAST	=	0xfcac
                         0000FCAD   734 _g_KANAMD	=	0xfcad
                         0000FCAE   735 _g_FLBMEM	=	0xfcae
                         0000FCAF   736 _g_SCRMOD	=	0xfcaf
                         0000FCB0   737 _g_OLDSCR	=	0xfcb0
                         0000FCB1   738 _g_CASPRV	=	0xfcb1
                         0000FCB2   739 _g_BRDATR	=	0xfcb2
                         0000FCB3   740 _g_GXPOS	=	0xfcb3
                         0000FCB5   741 _g_GYPOS	=	0xfcb5
                         0000FCBB   742 _g_DRWFLG	=	0xfcbb
                         0000FCBC   743 _g_DRWSCL	=	0xfcbc
                         0000FCBD   744 _g_DRWANG	=	0xfcbd
                         0000FCC1   745 _g_MNROM	=	0xfcc1
                         0000FCC1   746 _g_EXPTBL	=	0xfcc1
                         0000FCC5   747 _g_SLTTBL	=	0xfcc5
                         0000FCC9   748 _g_SLTATR	=	0xfcc9
                         0000FD09   749 _g_SLTWRK	=	0xfd09
                         0000FD89   750 _g_PROCNM	=	0xfd89
                         0000FFE7   751 _g_RG08SAV	=	0xffe7
                         0000FFE8   752 _g_RG09SAV	=	0xffe8
                         0000FFE9   753 _g_RG10SAV	=	0xffe9
                         0000FFEA   754 _g_RG11SAV	=	0xffea
                         0000FFEB   755 _g_RG12SAV	=	0xffeb
                         0000FFEC   756 _g_RG13SAV	=	0xffec
                         0000FFED   757 _g_RG14SAV	=	0xffed
                         0000FFEE   758 _g_RG15SAV	=	0xffee
                         0000FFEF   759 _g_RG16SAV	=	0xffef
                         0000FFF0   760 _g_RG17SAV	=	0xfff0
                         0000FFF1   761 _g_RG18SAV	=	0xfff1
                         0000FFF2   762 _g_RG19SAV	=	0xfff2
                         0000FFF3   763 _g_RG20SAV	=	0xfff3
                         0000FFF4   764 _g_RG21SAV	=	0xfff4
                         0000FFF5   765 _g_RG22SAV	=	0xfff5
                         0000FFF6   766 _g_RG23SAV	=	0xfff6
                         0000FFF7   767 _g_MINROM	=	0xfff7
                         0000FFF8   768 _g_SVFFF8	=	0xfff8
                         0000FFFA   769 _g_RG25SAV	=	0xfffa
                         0000FFFB   770 _g_RG26SAV	=	0xfffb
                         0000FFFC   771 _g_RG27SAV	=	0xfffc
                         0000FFFD   772 _g_SVFFFD	=	0xfffd
                         00000004   773 _g_CGTABL	=	0x0004
                         00000006   774 _g_VDP_DR	=	0x0006
                         00000007   775 _g_VDP_DW	=	0x0007
                         0000002B   776 _g_BASRVN	=	0x002b
                         0000002B   777 _g_ROMVersion	=	0x002b
                         0000002D   778 _g_MSXVER	=	0x002d
                         0000002E   779 _g_MSXMID	=	0x002e
                         00000034   780 _g_CHAR_16	=	0x0034
                         00000000   781 _g_SUBRID	=	0x0000
                         00000002   782 _g_STRSRC	=	0x0002
                         0000F30F   783 _g_KANJTABLE	=	0xf30f
                         0000F323   784 _g_DISKVE	=	0xf323
                         0000F325   785 _g_BREAKV	=	0xf325
                         0000F341   786 _g_RAMAD0	=	0xf341
                         0000F342   787 _g_RAMAD1	=	0xf342
                         0000F343   788 _g_RAMAD2	=	0xf343
                         0000F344   789 _g_RAMAD3	=	0xf344
                         0000F348   790 _g_MASTER	=	0xf348
                         0000F37D   791 _g_BDOS	=	0xf37d
                                    792 ;E:\Dropbox\FAUSTO\SVILUPPI\MSX\CODE\C\MSXgl\projects\soccerlgMSX2/soccerlg_s10_b3.c:63: void CheckFieldBoundaries(u8* game_state, u8* wait_secs, u8* start_sec)
                                    793 ;	---------------------------------
                                    794 ; Function CheckFieldBoundaries
                                    795 ; ---------------------------------
    00000206                        796 _CheckFieldBoundaries::
    00000206 DD E5            [15]  797 	push	ix
    00000208 DD 21 00 00      [14]  798 	ld	ix,#0
    0000020C DD 39            [15]  799 	add	ix,sp
    0000020E FD 21 F7 FF      [14]  800 	ld	iy, #-9
    00000212 FD 39            [15]  801 	add	iy, sp
    00000214 FD F9            [10]  802 	ld	sp, iy
    00000216 DD 75 FE         [19]  803 	ld	-2 (ix), l
    00000219 DD 74 FF         [19]  804 	ld	-1 (ix), h
    0000021C DD 73 FC         [19]  805 	ld	-4 (ix), e
    0000021F DD 72 FD         [19]  806 	ld	-3 (ix), d
                                    807 ;E:\Dropbox\FAUSTO\SVILUPPI\MSX\CODE\C\MSXgl\projects\soccerlgMSX2/soccerlg_s10_b3.c:65: struct ObjectInfo* Ball = &SwSprite[14];
                                    808 ;E:\Dropbox\FAUSTO\SVILUPPI\MSX\CODE\C\MSXgl\projects\soccerlgMSX2/soccerlg_s10_b3.c:74: if (Ball->lx >= left_boundary && Ball->lx <= right_boundary && Ball->ly >= top_boundary && Ball->ly <= bottom_boundary) {
    00000222 21r42r01         [10]  809 	ld	hl, #(_SwSprite + 322)
    00000225 4E               [ 7]  810 	ld	c, (hl)
    00000226 79               [ 4]  811 	ld	a, c
    00000227 D6 10            [ 7]  812 	sub	a, #0x10
    00000229 38 20            [12]  813 	jr	C, 00102$
    0000022B 3E DF            [ 7]  814 	ld	a, #0xdf
    0000022D 91               [ 4]  815 	sub	a, c
    0000022E 38 1B            [12]  816 	jr	C, 00102$
    00000230 2Ar46r01         [16]  817 	ld	hl, (#(_SwSprite + 326) + 0)
    00000233 7D               [ 4]  818 	ld	a, l
    00000234 D6 18            [ 7]  819 	sub	a, #0x18
    00000236 7C               [ 4]  820 	ld	a, h
    00000237 DE 00            [ 7]  821 	sbc	a, #0x00
    00000239 38 10            [12]  822 	jr	C, 00102$
    0000023B 3E DE            [ 7]  823 	ld	a, #0xde
    0000023D BD               [ 4]  824 	cp	a, l
    0000023E 3E 01            [ 7]  825 	ld	a, #0x01
    00000240 9C               [ 4]  826 	sbc	a, h
    00000241 38 08            [12]  827 	jr	C, 00102$
                                    828 ;E:\Dropbox\FAUSTO\SVILUPPI\MSX\CODE\C\MSXgl\projects\soccerlgMSX2/soccerlg_s10_b3.c:75: RestartType = 0;
    00000243 FD 21r00r00      [14]  829 	ld	iy, #_RestartType
    00000247 FD 36 00 00      [19]  830 	ld	0 (iy), #0x00
    0000024B                        831 00102$:
                                    832 ;E:\Dropbox\FAUSTO\SVILUPPI\MSX\CODE\C\MSXgl\projects\soccerlgMSX2/soccerlg_s10_b3.c:74: if (Ball->lx >= left_boundary && Ball->lx <= right_boundary && Ball->ly >= top_boundary && Ball->ly <= bottom_boundary) {
    0000024B 3Ar42r01         [13]  833 	ld	a, (#(_SwSprite + 322) + 0)
    0000024E DD 77 F7         [19]  834 	ld	-9 (ix), a
                                    835 ;E:\Dropbox\FAUSTO\SVILUPPI\MSX\CODE\C\MSXgl\projects\soccerlgMSX2/soccerlg_s10_b3.c:92: if (Ball->ly < top_boundary && Ball->lx >= goal_left && Ball->lx <= goal_right) {
    00000251 21r46r01         [10]  836 	ld	hl, #(_SwSprite + 326)
    00000254 7E               [ 7]  837 	ld	a, (hl)
    00000255 DD 77 F8         [19]  838 	ld	-8 (ix), a
    00000258 23               [ 6]  839 	inc	hl
    00000259 7E               [ 7]  840 	ld	a, (hl)
    0000025A DD 77 F9         [19]  841 	ld	-7 (ix), a
                                    842 ;E:\Dropbox\FAUSTO\SVILUPPI\MSX\CODE\C\MSXgl\projects\soccerlgMSX2/soccerlg_s10_b3.c:84: if (LastTouchPlayer != 0xFF && Ball->anim != 5) {
    0000025D 3Ar00r00         [13]  843 	ld	a, (_LastTouchPlayer+0)
    00000260 3C               [ 4]  844 	inc	a
    00000261 28 00            [12]  845 	jr	Z, 00260$
    00000263                        846 00260$:
                                    847 ;E:\Dropbox\FAUSTO\SVILUPPI\MSX\CODE\C\MSXgl\projects\soccerlgMSX2/soccerlg_s10_b3.c:92: if (Ball->ly < top_boundary && Ball->lx >= goal_left && Ball->lx <= goal_right) {
    00000263 DD 7E F8         [19]  848 	ld	a, -8 (ix)
    00000266 D6 18            [ 7]  849 	sub	a, #0x18
    00000268 DD 7E F9         [19]  850 	ld	a, -7 (ix)
    0000026B DE 00            [ 7]  851 	sbc	a, #0x00
    0000026D 3E 00            [ 7]  852 	ld	a, #0x00
    0000026F 17               [ 4]  853 	rla
    00000270 DD 77 FA         [19]  854 	ld	-6 (ix), a
    00000273 B7               [ 4]  855 	or	a, a
    00000274 CAr0Br03         [10]  856 	jp	Z, 00115$
    00000277 DD 7E F7         [19]  857 	ld	a, -9 (ix)
    0000027A D6 52            [ 7]  858 	sub	a, #0x52
    0000027C DAr0Br03         [10]  859 	jp	C, 00115$
    0000027F 3E 92            [ 7]  860 	ld	a, #0x92
    00000281 DD 96 F7         [19]  861 	sub	a, -9 (ix)
    00000284 DAr0Br03         [10]  862 	jp	C, 00115$
                                    863 ;E:\Dropbox\FAUSTO\SVILUPPI\MSX\CODE\C\MSXgl\projects\soccerlgMSX2/soccerlg_s10_b3.c:84: if (LastTouchPlayer != 0xFF && Ball->anim != 5) {
                                    864 ;E:\Dropbox\FAUSTO\SVILUPPI\MSX\CODE\C\MSXgl\projects\soccerlgMSX2/soccerlg_s10_b3.c:93: if(g_is_penalty_shootout) {
    00000287 3Ar00r00         [13]  865 	ld	a, (_g_is_penalty_shootout+0)
    0000028A B7               [ 4]  866 	or	a, a
    0000028B 28 15            [12]  867 	jr	Z, 00113$
                                    868 ;E:\Dropbox\FAUSTO\SVILUPPI\MSX\CODE\C\MSXgl\projects\soccerlgMSX2/soccerlg_s10_b3.c:94: ScoreTeam2++;
    0000028D 21r00r00         [10]  869 	ld	hl, #_ScoreTeam2
    00000290 34               [11]  870 	inc	(hl)
                                    871 ;E:\Dropbox\FAUSTO\SVILUPPI\MSX\CODE\C\MSXgl\projects\soccerlgMSX2/soccerlg_s10_b3.c:95: RestartType = RESTART_GOAL; // Segnala il goal per lo stato 15
    00000291 FD 21r00r00      [14]  872 	ld	iy, #_RestartType
    00000295 FD 36 00 05      [19]  873 	ld	0 (iy), #0x05
                                    874 ;E:\Dropbox\FAUSTO\SVILUPPI\MSX\CODE\C\MSXgl\projects\soccerlgMSX2/soccerlg_s10_b3.c:96: Ball->anim = 0; // Ferma la palla
    00000299 21 00 00         [10]  875 	ld	hl, #0x0000
    0000029C 22r55r01         [16]  876 	ld	((_SwSprite + 341)), hl
                                    877 ;E:\Dropbox\FAUSTO\SVILUPPI\MSX\CODE\C\MSXgl\projects\soccerlgMSX2/soccerlg_s10_b3.c:97: return;
    0000029F C3r29r05         [10]  878 	jp	00144$
    000002A2                        879 00113$:
                                    880 ;E:\Dropbox\FAUSTO\SVILUPPI\MSX\CODE\C\MSXgl\projects\soccerlgMSX2/soccerlg_s10_b3.c:99: *game_state = 9;
    000002A2 DD 6E FE         [19]  881 	ld	l, -2 (ix)
    000002A5 DD 66 FF         [19]  882 	ld	h, -1 (ix)
    000002A8 36 09            [10]  883 	ld	(hl), #0x09
                                    884 ;E:\Dropbox\FAUSTO\SVILUPPI\MSX\CODE\C\MSXgl\projects\soccerlgMSX2/soccerlg_s10_b3.c:100: Field.dy = 0; // Ferma il motore di scrolling per evitare che AddLines cancelli la UI
    000002AA 21r12r00         [10]  885 	ld	hl, #(_Field + 18)
    000002AD 36 00            [10]  886 	ld	(hl), #0x00
                                    887 ;E:\Dropbox\FAUSTO\SVILUPPI\MSX\CODE\C\MSXgl\projects\soccerlgMSX2/soccerlg_s10_b3.c:101: RestartType = RESTART_GOAL;
    000002AF 21r00r00         [10]  888 	ld	hl, #_RestartType
    000002B2 36 05            [10]  889 	ld	(hl), #0x05
                                    890 ;E:\Dropbox\FAUSTO\SVILUPPI\MSX\CODE\C\MSXgl\projects\soccerlgMSX2/soccerlg_s10_b3.c:102: KickOffTeam = TEAM_1; // Il Team 1 subisce gol, quindi batte
    000002B4 21r00r00         [10]  891 	ld	hl, #_KickOffTeam
    000002B7 36 00            [10]  892 	ld	(hl), #0x00
                                    893 ;E:\Dropbox\FAUSTO\SVILUPPI\MSX\CODE\C\MSXgl\projects\soccerlgMSX2/soccerlg_s10_b3.c:103: ScoreTeam2++; // Aumenta il punteggio
    000002B9 21r00r00         [10]  894 	ld	hl, #_ScoreTeam2
    000002BC 34               [11]  895 	inc	(hl)
                                    896 ;E:\Dropbox\FAUSTO\SVILUPPI\MSX\CODE\C\MSXgl\projects\soccerlgMSX2/soccerlg_s10_b3.c:104: CallFnc_VOID(SEG_EVENTS, EventGoal);  // Team 2 segna
    000002BD 11r00r00         [10]  897 	ld	de, #_EventGoal
    000002C0 3E 08            [ 7]  898 	ld	a, #0x08
    000002C2 CDr00r00         [17]  899 	call	_CallFnc_VOID
                                    900 ;E:\Dropbox\FAUSTO\SVILUPPI\MSX\CODE\C\MSXgl\projects\soccerlgMSX2/soccerlg_s10_b3.c:105: Ball->anim = Ball->dx = Ball->dy = 0;
    000002C5 21r54r01         [10]  901 	ld	hl, #(_SwSprite + 340)
    000002C8 36 00            [10]  902 	ld	(hl), #0x00
    000002CA 21r53r01         [10]  903 	ld	hl, #(_SwSprite + 339)
    000002CD 36 00            [10]  904 	ld	(hl), #0x00
    000002CF 21 00 00         [10]  905 	ld	hl, #0x0000
    000002D2 22r55r01         [16]  906 	ld	((_SwSprite + 341)), hl
                                    907 ;E:\Dropbox\FAUSTO\SVILUPPI\MSX\CODE\C\MSXgl\projects\soccerlgMSX2/soccerlg_s10_b3.c:106: Ball->frame = SPR_BALL_SIZE_1; // Forza la dimensione a terra
    000002D5 2E 60            [ 7]  908 	ld	l, #0x60
    000002D7 22r51r01         [16]  909 	ld	((_SwSprite + 337)), hl
                                    910 ;E:\Dropbox\FAUSTO\SVILUPPI\MSX\CODE\C\MSXgl\projects\soccerlgMSX2/soccerlg_s10_b3.c:107: T1_Carrier = T2_Carrier = T1_Receiver = T2_Receiver = 0xFF;
    000002DA 21r00r00         [10]  911 	ld	hl, #_T2_Receiver
    000002DD 36 FF            [10]  912 	ld	(hl), #0xff
    000002DF 21r00r00         [10]  913 	ld	hl, #_T1_Receiver
    000002E2 36 FF            [10]  914 	ld	(hl), #0xff
    000002E4 21r00r00         [10]  915 	ld	hl, #_T2_Carrier
    000002E7 36 FF            [10]  916 	ld	(hl), #0xff
    000002E9 21r00r00         [10]  917 	ld	hl, #_T1_Carrier
    000002EC 36 FF            [10]  918 	ld	(hl), #0xff
                                    919 ;E:\Dropbox\FAUSTO\SVILUPPI\MSX\CODE\C\MSXgl\projects\soccerlgMSX2/soccerlg_s10_b3.c:108: TimerEnabled = FALSE;
    000002EE FD 21r00r00      [14]  920 	ld	iy, #_TimerEnabled
    000002F2 FD 36 00 00      [19]  921 	ld	0 (iy), #0x00
                                    922 ;E:\Dropbox\FAUSTO\SVILUPPI\MSX\CODE\C\MSXgl\projects\soccerlgMSX2/soccerlg_s10_b3.c:109: *wait_secs = 3; *start_sec = Frms;  // 3 secondi di festeggiamenti
    000002F6 DD 6E FC         [19]  923 	ld	l, -4 (ix)
    000002F9 DD 66 FD         [19]  924 	ld	h, -3 (ix)
    000002FC 36 03            [10]  925 	ld	(hl), #0x03
    000002FE DD 4E 04         [19]  926 	ld	c, 4 (ix)
    00000301 DD 46 05         [19]  927 	ld	b, 5 (ix)
    00000304 3Ar00r00         [13]  928 	ld	a, (_Frms+0)
    00000307 02               [ 7]  929 	ld	(bc), a
                                    930 ;E:\Dropbox\FAUSTO\SVILUPPI\MSX\CODE\C\MSXgl\projects\soccerlgMSX2/soccerlg_s10_b3.c:110: return;
    00000308 C3r29r05         [10]  931 	jp	00144$
    0000030B                        932 00115$:
                                    933 ;E:\Dropbox\FAUSTO\SVILUPPI\MSX\CODE\C\MSXgl\projects\soccerlgMSX2/soccerlg_s10_b3.c:114: if (Ball->ly > bottom_boundary && Ball->lx >= goal_left && Ball->lx <= goal_right) {
    0000030B 3E DE            [ 7]  934 	ld	a, #0xde
    0000030D DD BE F8         [19]  935 	cp	a, -8 (ix)
    00000310 3E 01            [ 7]  936 	ld	a, #0x01
    00000312 DD 9E F9         [19]  937 	sbc	a, -7 (ix)
    00000315 3E 00            [ 7]  938 	ld	a, #0x00
    00000317 17               [ 4]  939 	rla
    00000318 DD 77 FB         [19]  940 	ld	-5 (ix), a
    0000031B B7               [ 4]  941 	or	a, a
    0000031C CArB3r03         [10]  942 	jp	Z, 00121$
    0000031F DD 7E F7         [19]  943 	ld	a, -9 (ix)
    00000322 D6 52            [ 7]  944 	sub	a, #0x52
    00000324 DArB3r03         [10]  945 	jp	C, 00121$
    00000327 3E 92            [ 7]  946 	ld	a, #0x92
    00000329 DD 96 F7         [19]  947 	sub	a, -9 (ix)
    0000032C DArB3r03         [10]  948 	jp	C, 00121$
                                    949 ;E:\Dropbox\FAUSTO\SVILUPPI\MSX\CODE\C\MSXgl\projects\soccerlgMSX2/soccerlg_s10_b3.c:84: if (LastTouchPlayer != 0xFF && Ball->anim != 5) {
                                    950 ;E:\Dropbox\FAUSTO\SVILUPPI\MSX\CODE\C\MSXgl\projects\soccerlgMSX2/soccerlg_s10_b3.c:115: if(g_is_penalty_shootout) {
    0000032F 3Ar00r00         [13]  951 	ld	a, (_g_is_penalty_shootout+0)
    00000332 B7               [ 4]  952 	or	a, a
    00000333 28 15            [12]  953 	jr	Z, 00119$
                                    954 ;E:\Dropbox\FAUSTO\SVILUPPI\MSX\CODE\C\MSXgl\projects\soccerlgMSX2/soccerlg_s10_b3.c:116: ScoreTeam1++;
    00000335 21r00r00         [10]  955 	ld	hl, #_ScoreTeam1
    00000338 34               [11]  956 	inc	(hl)
                                    957 ;E:\Dropbox\FAUSTO\SVILUPPI\MSX\CODE\C\MSXgl\projects\soccerlgMSX2/soccerlg_s10_b3.c:117: RestartType = RESTART_GOAL; // Segnala il goal per lo stato 15
    00000339 FD 21r00r00      [14]  958 	ld	iy, #_RestartType
    0000033D FD 36 00 05      [19]  959 	ld	0 (iy), #0x05
                                    960 ;E:\Dropbox\FAUSTO\SVILUPPI\MSX\CODE\C\MSXgl\projects\soccerlgMSX2/soccerlg_s10_b3.c:118: Ball->anim = 0; // Ferma la palla
    00000341 21 00 00         [10]  961 	ld	hl, #0x0000
    00000344 22r55r01         [16]  962 	ld	((_SwSprite + 341)), hl
                                    963 ;E:\Dropbox\FAUSTO\SVILUPPI\MSX\CODE\C\MSXgl\projects\soccerlgMSX2/soccerlg_s10_b3.c:119: return;
    00000347 C3r29r05         [10]  964 	jp	00144$
    0000034A                        965 00119$:
                                    966 ;E:\Dropbox\FAUSTO\SVILUPPI\MSX\CODE\C\MSXgl\projects\soccerlgMSX2/soccerlg_s10_b3.c:121: *game_state = 9;
    0000034A DD 6E FE         [19]  967 	ld	l, -2 (ix)
    0000034D DD 66 FF         [19]  968 	ld	h, -1 (ix)
    00000350 36 09            [10]  969 	ld	(hl), #0x09
                                    970 ;E:\Dropbox\FAUSTO\SVILUPPI\MSX\CODE\C\MSXgl\projects\soccerlgMSX2/soccerlg_s10_b3.c:122: Field.dy = 0;
    00000352 21r12r00         [10]  971 	ld	hl, #(_Field + 18)
    00000355 36 00            [10]  972 	ld	(hl), #0x00
                                    973 ;E:\Dropbox\FAUSTO\SVILUPPI\MSX\CODE\C\MSXgl\projects\soccerlgMSX2/soccerlg_s10_b3.c:123: RestartType = RESTART_GOAL;
    00000357 21r00r00         [10]  974 	ld	hl, #_RestartType
    0000035A 36 05            [10]  975 	ld	(hl), #0x05
                                    976 ;E:\Dropbox\FAUSTO\SVILUPPI\MSX\CODE\C\MSXgl\projects\soccerlgMSX2/soccerlg_s10_b3.c:124: KickOffTeam = TEAM_2; // Il Team 2 subisce gol, quindi batte
    0000035C 21r00r00         [10]  977 	ld	hl, #_KickOffTeam
    0000035F 36 01            [10]  978 	ld	(hl), #0x01
                                    979 ;E:\Dropbox\FAUSTO\SVILUPPI\MSX\CODE\C\MSXgl\projects\soccerlgMSX2/soccerlg_s10_b3.c:125: ScoreTeam1++; // Aumenta il punteggio
    00000361 21r00r00         [10]  980 	ld	hl, #_ScoreTeam1
    00000364 34               [11]  981 	inc	(hl)
                                    982 ;E:\Dropbox\FAUSTO\SVILUPPI\MSX\CODE\C\MSXgl\projects\soccerlgMSX2/soccerlg_s10_b3.c:126: CallFnc_VOID(SEG_EVENTS, EventGoal);  // Team 1 segna
    00000365 11r00r00         [10]  983 	ld	de, #_EventGoal
    00000368 3E 08            [ 7]  984 	ld	a, #0x08
    0000036A CDr00r00         [17]  985 	call	_CallFnc_VOID
                                    986 ;E:\Dropbox\FAUSTO\SVILUPPI\MSX\CODE\C\MSXgl\projects\soccerlgMSX2/soccerlg_s10_b3.c:127: Ball->anim = Ball->dx = Ball->dy = 0;
    0000036D 21r54r01         [10]  987 	ld	hl, #(_SwSprite + 340)
    00000370 36 00            [10]  988 	ld	(hl), #0x00
    00000372 21r53r01         [10]  989 	ld	hl, #(_SwSprite + 339)
    00000375 36 00            [10]  990 	ld	(hl), #0x00
    00000377 21 00 00         [10]  991 	ld	hl, #0x0000
    0000037A 22r55r01         [16]  992 	ld	((_SwSprite + 341)), hl
                                    993 ;E:\Dropbox\FAUSTO\SVILUPPI\MSX\CODE\C\MSXgl\projects\soccerlgMSX2/soccerlg_s10_b3.c:128: Ball->frame = SPR_BALL_SIZE_1; // Forza la dimensione a terra
    0000037D 2E 60            [ 7]  994 	ld	l, #0x60
    0000037F 22r51r01         [16]  995 	ld	((_SwSprite + 337)), hl
                                    996 ;E:\Dropbox\FAUSTO\SVILUPPI\MSX\CODE\C\MSXgl\projects\soccerlgMSX2/soccerlg_s10_b3.c:129: T1_Carrier = T2_Carrier = T1_Receiver = T2_Receiver = 0xFF;
    00000382 21r00r00         [10]  997 	ld	hl, #_T2_Receiver
    00000385 36 FF            [10]  998 	ld	(hl), #0xff
    00000387 21r00r00         [10]  999 	ld	hl, #_T1_Receiver
    0000038A 36 FF            [10] 1000 	ld	(hl), #0xff
    0000038C 21r00r00         [10] 1001 	ld	hl, #_T2_Carrier
    0000038F 36 FF            [10] 1002 	ld	(hl), #0xff
    00000391 21r00r00         [10] 1003 	ld	hl, #_T1_Carrier
    00000394 36 FF            [10] 1004 	ld	(hl), #0xff
                                   1005 ;E:\Dropbox\FAUSTO\SVILUPPI\MSX\CODE\C\MSXgl\projects\soccerlgMSX2/soccerlg_s10_b3.c:130: TimerEnabled = FALSE;
    00000396 FD 21r00r00      [14] 1006 	ld	iy, #_TimerEnabled
    0000039A FD 36 00 00      [19] 1007 	ld	0 (iy), #0x00
                                   1008 ;E:\Dropbox\FAUSTO\SVILUPPI\MSX\CODE\C\MSXgl\projects\soccerlgMSX2/soccerlg_s10_b3.c:131: *wait_secs = 3; *start_sec = Frms;  // 3 secondi di festeggiamenti
    0000039E DD 6E FC         [19] 1009 	ld	l, -4 (ix)
    000003A1 DD 66 FD         [19] 1010 	ld	h, -3 (ix)
    000003A4 36 03            [10] 1011 	ld	(hl), #0x03
    000003A6 DD 4E 04         [19] 1012 	ld	c, 4 (ix)
    000003A9 DD 46 05         [19] 1013 	ld	b, 5 (ix)
    000003AC 3Ar00r00         [13] 1014 	ld	a, (_Frms+0)
    000003AF 02               [ 7] 1015 	ld	(bc), a
                                   1016 ;E:\Dropbox\FAUSTO\SVILUPPI\MSX\CODE\C\MSXgl\projects\soccerlgMSX2/soccerlg_s10_b3.c:132: return;
    000003B0 C3r29r05         [10] 1017 	jp	00144$
    000003B3                       1018 00121$:
                                   1019 ;E:\Dropbox\FAUSTO\SVILUPPI\MSX\CODE\C\MSXgl\projects\soccerlgMSX2/soccerlg_s10_b3.c:136: if (Ball->lx < left_boundary || Ball->lx > right_boundary) {
    000003B3 DD 7E F7         [19] 1020 	ld	a, -9 (ix)
    000003B6 D6 10            [ 7] 1021 	sub	a, #0x10
    000003B8 38 08            [12] 1022 	jr	C, 00128$
    000003BA 3E DF            [ 7] 1023 	ld	a, #0xdf
    000003BC DD 96 F7         [19] 1024 	sub	a, -9 (ix)
    000003BF D2r56r04         [10] 1025 	jp	NC, 00129$
    000003C2                       1026 00128$:
                                   1027 ;E:\Dropbox\FAUSTO\SVILUPPI\MSX\CODE\C\MSXgl\projects\soccerlgMSX2/soccerlg_s10_b3.c:84: if (LastTouchPlayer != 0xFF && Ball->anim != 5) {
                                   1028 ;E:\Dropbox\FAUSTO\SVILUPPI\MSX\CODE\C\MSXgl\projects\soccerlgMSX2/soccerlg_s10_b3.c:138: if (RestartType != 0 && Ball->anim == 5) {
    000003C2 3Ar00r00         [13] 1029 	ld	a, (_RestartType+0)
    000003C5 B7               [ 4] 1030 	or	a, a
    000003C6 28 0A            [12] 1031 	jr	Z, 00125$
    000003C8 2Ar55r01         [16] 1032 	ld	hl, (#(_SwSprite + 341) + 0)
    000003CB 7D               [ 4] 1033 	ld	a, l
    000003CC D6 05            [ 7] 1034 	sub	a, #0x05
    000003CE B4               [ 4] 1035 	or	a, h
    000003CF CAr56r04         [10] 1036 	jp	Z,00129$
    000003D2                       1037 00125$:
                                   1038 ;E:\Dropbox\FAUSTO\SVILUPPI\MSX\CODE\C\MSXgl\projects\soccerlgMSX2/soccerlg_s10_b3.c:141: *game_state = 6;
    000003D2 DD 6E FE         [19] 1039 	ld	l, -2 (ix)
    000003D5 DD 66 FF         [19] 1040 	ld	h, -1 (ix)
    000003D8 36 06            [10] 1041 	ld	(hl), #0x06
                                   1042 ;E:\Dropbox\FAUSTO\SVILUPPI\MSX\CODE\C\MSXgl\projects\soccerlgMSX2/soccerlg_s10_b3.c:142: Field.dy = 0;
    000003DA 21r12r00         [10] 1043 	ld	hl, #(_Field + 18)
    000003DD 36 00            [10] 1044 	ld	(hl), #0x00
                                   1045 ;E:\Dropbox\FAUSTO\SVILUPPI\MSX\CODE\C\MSXgl\projects\soccerlgMSX2/soccerlg_s10_b3.c:143: RestartType = RESTART_THROWIN;
    000003DF 21r00r00         [10] 1046 	ld	hl, #_RestartType
    000003E2 36 01            [10] 1047 	ld	(hl), #0x01
                                   1048 ;E:\Dropbox\FAUSTO\SVILUPPI\MSX\CODE\C\MSXgl\projects\soccerlgMSX2/soccerlg_s10_b3.c:145: RestartSideX = (Ball->lx < 128) ? left_boundary : right_boundary - 1;
    000003E4 3Ar42r01         [13] 1049 	ld	a, (#(_SwSprite + 322) + 0)
    000003E7 D6 80            [ 7] 1050 	sub	a, #0x80
    000003E9 30 07            [12] 1051 	jr	NC, 00150$
    000003EB DD 36 FB 10      [19] 1052 	ld	-5 (ix), #0x10
    000003EF C3rF6r03         [10] 1053 	jp	00151$
    000003F2                       1054 00150$:
    000003F2 DD 36 FB DE      [19] 1055 	ld	-5 (ix), #0xde
    000003F6                       1056 00151$:
    000003F6 DD 7E FB         [19] 1057 	ld	a, -5 (ix)
    000003F9 32r00r00         [13] 1058 	ld	(_RestartSideX+0), a
                                   1059 ;E:\Dropbox\FAUSTO\SVILUPPI\MSX\CODE\C\MSXgl\projects\soccerlgMSX2/soccerlg_s10_b3.c:146: RestartSideY = Ball->ly;
    000003FC 21r46r01         [10] 1060 	ld	hl, #(_SwSprite + 326)
    000003FF 7E               [ 7] 1061 	ld	a, (hl)
    00000400 23               [ 6] 1062 	inc	hl
    00000401 32r00r00         [13] 1063 	ld	(_RestartSideY+0), a
    00000404 7E               [ 7] 1064 	ld	a, (hl)
    00000405 32r01r00         [13] 1065 	ld	(_RestartSideY+1), a
                                   1066 ;E:\Dropbox\FAUSTO\SVILUPPI\MSX\CODE\C\MSXgl\projects\soccerlgMSX2/soccerlg_s10_b3.c:147: CallFnc_VOID(SEG_EVENTS, EventThrowIn);
    00000408 11r00r00         [10] 1067 	ld	de, #_EventThrowIn
    0000040B 3E 08            [ 7] 1068 	ld	a, #0x08
    0000040D CDr00r00         [17] 1069 	call	_CallFnc_VOID
                                   1070 ;E:\Dropbox\FAUSTO\SVILUPPI\MSX\CODE\C\MSXgl\projects\soccerlgMSX2/soccerlg_s10_b3.c:148: Ball->anim = Ball->dx = Ball->dy = 0;
    00000410 21r54r01         [10] 1071 	ld	hl, #(_SwSprite + 340)
    00000413 36 00            [10] 1072 	ld	(hl), #0x00
    00000415 21r53r01         [10] 1073 	ld	hl, #(_SwSprite + 339)
    00000418 36 00            [10] 1074 	ld	(hl), #0x00
    0000041A 21 00 00         [10] 1075 	ld	hl, #0x0000
    0000041D 22r55r01         [16] 1076 	ld	((_SwSprite + 341)), hl
                                   1077 ;E:\Dropbox\FAUSTO\SVILUPPI\MSX\CODE\C\MSXgl\projects\soccerlgMSX2/soccerlg_s10_b3.c:149: Ball->frame = SPR_BALL_SIZE_1; // Forza la dimensione a terra
    00000420 2E 60            [ 7] 1078 	ld	l, #0x60
    00000422 22r51r01         [16] 1079 	ld	((_SwSprite + 337)), hl
                                   1080 ;E:\Dropbox\FAUSTO\SVILUPPI\MSX\CODE\C\MSXgl\projects\soccerlgMSX2/soccerlg_s10_b3.c:150: T1_Carrier = T2_Carrier = T1_Receiver = T2_Receiver = 0xFF;
    00000425 21r00r00         [10] 1081 	ld	hl, #_T2_Receiver
    00000428 36 FF            [10] 1082 	ld	(hl), #0xff
    0000042A 21r00r00         [10] 1083 	ld	hl, #_T1_Receiver
    0000042D 36 FF            [10] 1084 	ld	(hl), #0xff
    0000042F 21r00r00         [10] 1085 	ld	hl, #_T2_Carrier
    00000432 36 FF            [10] 1086 	ld	(hl), #0xff
    00000434 21r00r00         [10] 1087 	ld	hl, #_T1_Carrier
    00000437 36 FF            [10] 1088 	ld	(hl), #0xff
                                   1089 ;E:\Dropbox\FAUSTO\SVILUPPI\MSX\CODE\C\MSXgl\projects\soccerlgMSX2/soccerlg_s10_b3.c:151: TimerEnabled = FALSE;
    00000439 FD 21r00r00      [14] 1090 	ld	iy, #_TimerEnabled
    0000043D FD 36 00 00      [19] 1091 	ld	0 (iy), #0x00
                                   1092 ;E:\Dropbox\FAUSTO\SVILUPPI\MSX\CODE\C\MSXgl\projects\soccerlgMSX2/soccerlg_s10_b3.c:152: *wait_secs = 2; *start_sec = Frms;
    00000441 DD 6E FC         [19] 1093 	ld	l, -4 (ix)
    00000444 DD 66 FD         [19] 1094 	ld	h, -3 (ix)
    00000447 36 02            [10] 1095 	ld	(hl), #0x02
    00000449 DD 4E 04         [19] 1096 	ld	c, 4 (ix)
    0000044C DD 46 05         [19] 1097 	ld	b, 5 (ix)
    0000044F 3Ar00r00         [13] 1098 	ld	a, (_Frms+0)
    00000452 02               [ 7] 1099 	ld	(bc), a
                                   1100 ;E:\Dropbox\FAUSTO\SVILUPPI\MSX\CODE\C\MSXgl\projects\soccerlgMSX2/soccerlg_s10_b3.c:153: return;
    00000453 C3r29r05         [10] 1101 	jp	00144$
    00000456                       1102 00129$:
                                   1103 ;E:\Dropbox\FAUSTO\SVILUPPI\MSX\CODE\C\MSXgl\projects\soccerlgMSX2/soccerlg_s10_b3.c:158: if (Ball->ly < top_boundary || Ball->ly > bottom_boundary) {
    00000456 DD 7E FA         [19] 1104 	ld	a, -6 (ix)
    00000459 B7               [ 4] 1105 	or	a, a
    0000045A 20 07            [12] 1106 	jr	NZ, 00141$
    0000045C DD 7E FB         [19] 1107 	ld	a, -5 (ix)
    0000045F B7               [ 4] 1108 	or	a, a
    00000460 CAr29r05         [10] 1109 	jp	Z, 00144$
    00000463                       1110 00141$:
                                   1111 ;E:\Dropbox\FAUSTO\SVILUPPI\MSX\CODE\C\MSXgl\projects\soccerlgMSX2/soccerlg_s10_b3.c:84: if (LastTouchPlayer != 0xFF && Ball->anim != 5) {
                                   1112 ;E:\Dropbox\FAUSTO\SVILUPPI\MSX\CODE\C\MSXgl\projects\soccerlgMSX2/soccerlg_s10_b3.c:160: if (RestartType != 0 && Ball->anim == 5) {
    00000463 3Ar00r00         [13] 1113 	ld	a, (_RestartType+0)
    00000466 B7               [ 4] 1114 	or	a, a
    00000467 28 0A            [12] 1115 	jr	Z, 00138$
    00000469 2Ar55r01         [16] 1116 	ld	hl, (#(_SwSprite + 341) + 0)
    0000046C 7D               [ 4] 1117 	ld	a, l
    0000046D D6 05            [ 7] 1118 	sub	a, #0x05
    0000046F B4               [ 4] 1119 	or	a, h
    00000470 CAr29r05         [10] 1120 	jp	Z,00144$
    00000473                       1121 00138$:
                                   1122 ;E:\Dropbox\FAUSTO\SVILUPPI\MSX\CODE\C\MSXgl\projects\soccerlgMSX2/soccerlg_s10_b3.c:163: *game_state = 6;
    00000473 DD 6E FE         [19] 1123 	ld	l, -2 (ix)
    00000476 DD 66 FF         [19] 1124 	ld	h, -1 (ix)
    00000479 36 06            [10] 1125 	ld	(hl), #0x06
                                   1126 ;E:\Dropbox\FAUSTO\SVILUPPI\MSX\CODE\C\MSXgl\projects\soccerlgMSX2/soccerlg_s10_b3.c:164: Field.dy = 0;
    0000047B 21r12r00         [10] 1127 	ld	hl, #(_Field + 18)
    0000047E 36 00            [10] 1128 	ld	(hl), #0x00
                                   1129 ;E:\Dropbox\FAUSTO\SVILUPPI\MSX\CODE\C\MSXgl\projects\soccerlgMSX2/soccerlg_s10_b3.c:165: RestartType = 0;
    00000480 21r00r00         [10] 1130 	ld	hl, #_RestartType
    00000483 36 00            [10] 1131 	ld	(hl), #0x00
                                   1132 ;E:\Dropbox\FAUSTO\SVILUPPI\MSX\CODE\C\MSXgl\projects\soccerlgMSX2/soccerlg_s10_b3.c:168: if ((Ball->ly < top_boundary && LastTouchTeam == TEAM_1) || 
    00000485 ED 4Br46r01      [20] 1133 	ld	bc, (#(_SwSprite + 326) + 0)
    00000489 79               [ 4] 1134 	ld	a, c
    0000048A D6 18            [ 7] 1135 	sub	a, #0x18
    0000048C 78               [ 4] 1136 	ld	a, b
    0000048D DE 00            [ 7] 1137 	sbc	a, #0x00
    0000048F 30 06            [12] 1138 	jr	NC, 00136$
    00000491 3Ar00r00         [13] 1139 	ld	a, (_LastTouchTeam+0)
    00000494 B7               [ 4] 1140 	or	a, a
    00000495 28 0E            [12] 1141 	jr	Z, 00131$
    00000497                       1142 00136$:
                                   1143 ;E:\Dropbox\FAUSTO\SVILUPPI\MSX\CODE\C\MSXgl\projects\soccerlgMSX2/soccerlg_s10_b3.c:169: (Ball->ly > bottom_boundary && LastTouchTeam == TEAM_2)) {
    00000497 3E DE            [ 7] 1144 	ld	a, #0xde
    00000499 B9               [ 4] 1145 	cp	a, c
    0000049A 3E 01            [ 7] 1146 	ld	a, #0x01
    0000049C 98               [ 4] 1147 	sbc	a, b
    0000049D 30 28            [12] 1148 	jr	NC, 00132$
    0000049F 3Ar00r00         [13] 1149 	ld	a, (_LastTouchTeam+0)
    000004A2 3D               [ 4] 1150 	dec	a
    000004A3 20 22            [12] 1151 	jr	NZ, 00132$
    000004A5                       1152 00131$:
                                   1153 ;E:\Dropbox\FAUSTO\SVILUPPI\MSX\CODE\C\MSXgl\projects\soccerlgMSX2/soccerlg_s10_b3.c:170: RestartType = RESTART_CORNERKICK;
    000004A5 21r00r00         [10] 1154 	ld	hl, #_RestartType
    000004A8 36 03            [10] 1155 	ld	(hl), #0x03
                                   1156 ;E:\Dropbox\FAUSTO\SVILUPPI\MSX\CODE\C\MSXgl\projects\soccerlgMSX2/soccerlg_s10_b3.c:171: RestartSideX = Ball->lx;
    000004AA 3Ar42r01         [13] 1157 	ld	a, (#(_SwSprite + 322) + 0)
    000004AD 32r00r00         [13] 1158 	ld	(_RestartSideX+0), a
                                   1159 ;E:\Dropbox\FAUSTO\SVILUPPI\MSX\CODE\C\MSXgl\projects\soccerlgMSX2/soccerlg_s10_b3.c:172: RestartSideY = Ball->ly;
    000004B0 21r46r01         [10] 1160 	ld	hl, #(_SwSprite + 326)
    000004B3 7E               [ 7] 1161 	ld	a, (hl)
    000004B4 23               [ 6] 1162 	inc	hl
    000004B5 32r00r00         [13] 1163 	ld	(_RestartSideY+0), a
    000004B8 7E               [ 7] 1164 	ld	a, (hl)
    000004B9 32r01r00         [13] 1165 	ld	(_RestartSideY+1), a
                                   1166 ;E:\Dropbox\FAUSTO\SVILUPPI\MSX\CODE\C\MSXgl\projects\soccerlgMSX2/soccerlg_s10_b3.c:173: CallFnc_VOID(SEG_EVENTS, EventCornerKick);
    000004BC 11r00r00         [10] 1167 	ld	de, #_EventCornerKick
    000004BF 3E 08            [ 7] 1168 	ld	a, #0x08
    000004C1 CDr00r00         [17] 1169 	call	_CallFnc_VOID
    000004C4 C3rE6r04         [10] 1170 	jp	00133$
    000004C7                       1171 00132$:
                                   1172 ;E:\Dropbox\FAUSTO\SVILUPPI\MSX\CODE\C\MSXgl\projects\soccerlgMSX2/soccerlg_s10_b3.c:175: RestartType = RESTART_GOALKICK;
    000004C7 21r00r00         [10] 1173 	ld	hl, #_RestartType
    000004CA 36 02            [10] 1174 	ld	(hl), #0x02
                                   1175 ;E:\Dropbox\FAUSTO\SVILUPPI\MSX\CODE\C\MSXgl\projects\soccerlgMSX2/soccerlg_s10_b3.c:176: RestartSideX = Ball->lx;
    000004CC 3Ar42r01         [13] 1176 	ld	a, (#(_SwSprite + 322) + 0)
    000004CF 32r00r00         [13] 1177 	ld	(_RestartSideX+0), a
                                   1178 ;E:\Dropbox\FAUSTO\SVILUPPI\MSX\CODE\C\MSXgl\projects\soccerlgMSX2/soccerlg_s10_b3.c:177: RestartSideY = Ball->ly;
    000004D2 21r46r01         [10] 1179 	ld	hl, #(_SwSprite + 326)
    000004D5 7E               [ 7] 1180 	ld	a, (hl)
    000004D6 23               [ 6] 1181 	inc	hl
    000004D7 32r00r00         [13] 1182 	ld	(_RestartSideY+0), a
    000004DA 7E               [ 7] 1183 	ld	a, (hl)
    000004DB 32r01r00         [13] 1184 	ld	(_RestartSideY+1), a
                                   1185 ;E:\Dropbox\FAUSTO\SVILUPPI\MSX\CODE\C\MSXgl\projects\soccerlgMSX2/soccerlg_s10_b3.c:178: CallFnc_VOID(SEG_EVENTS, EventGoalKick);
    000004DE 11r00r00         [10] 1186 	ld	de, #_EventGoalKick
    000004E1 3E 08            [ 7] 1187 	ld	a, #0x08
    000004E3 CDr00r00         [17] 1188 	call	_CallFnc_VOID
    000004E6                       1189 00133$:
                                   1190 ;E:\Dropbox\FAUSTO\SVILUPPI\MSX\CODE\C\MSXgl\projects\soccerlgMSX2/soccerlg_s10_b3.c:181: Ball->anim = Ball->dx = Ball->dy = 0;
    000004E6 21r54r01         [10] 1191 	ld	hl, #(_SwSprite + 340)
    000004E9 36 00            [10] 1192 	ld	(hl), #0x00
    000004EB 21r53r01         [10] 1193 	ld	hl, #(_SwSprite + 339)
    000004EE 36 00            [10] 1194 	ld	(hl), #0x00
    000004F0 21 00 00         [10] 1195 	ld	hl, #0x0000
    000004F3 22r55r01         [16] 1196 	ld	((_SwSprite + 341)), hl
                                   1197 ;E:\Dropbox\FAUSTO\SVILUPPI\MSX\CODE\C\MSXgl\projects\soccerlgMSX2/soccerlg_s10_b3.c:182: Ball->frame = SPR_BALL_SIZE_1; // Forza la dimensione a terra
    000004F6 2E 60            [ 7] 1198 	ld	l, #0x60
    000004F8 22r51r01         [16] 1199 	ld	((_SwSprite + 337)), hl
                                   1200 ;E:\Dropbox\FAUSTO\SVILUPPI\MSX\CODE\C\MSXgl\projects\soccerlgMSX2/soccerlg_s10_b3.c:183: T1_Carrier = T2_Carrier = T1_Receiver = T2_Receiver = 0xFF;
    000004FB 21r00r00         [10] 1201 	ld	hl, #_T2_Receiver
    000004FE 36 FF            [10] 1202 	ld	(hl), #0xff
    00000500 21r00r00         [10] 1203 	ld	hl, #_T1_Receiver
    00000503 36 FF            [10] 1204 	ld	(hl), #0xff
    00000505 21r00r00         [10] 1205 	ld	hl, #_T2_Carrier
    00000508 36 FF            [10] 1206 	ld	(hl), #0xff
    0000050A 21r00r00         [10] 1207 	ld	hl, #_T1_Carrier
    0000050D 36 FF            [10] 1208 	ld	(hl), #0xff
                                   1209 ;E:\Dropbox\FAUSTO\SVILUPPI\MSX\CODE\C\MSXgl\projects\soccerlgMSX2/soccerlg_s10_b3.c:184: TimerEnabled = FALSE;
    0000050F FD 21r00r00      [14] 1210 	ld	iy, #_TimerEnabled
    00000513 FD 36 00 00      [19] 1211 	ld	0 (iy), #0x00
                                   1212 ;E:\Dropbox\FAUSTO\SVILUPPI\MSX\CODE\C\MSXgl\projects\soccerlgMSX2/soccerlg_s10_b3.c:185: *wait_secs = 2; *start_sec = Frms;
    00000517 DD 6E FC         [19] 1213 	ld	l, -4 (ix)
    0000051A DD 66 FD         [19] 1214 	ld	h, -3 (ix)
    0000051D 36 02            [10] 1215 	ld	(hl), #0x02
    0000051F DD 4E 04         [19] 1216 	ld	c, 4 (ix)
    00000522 DD 46 05         [19] 1217 	ld	b, 5 (ix)
    00000525 3Ar00r00         [13] 1218 	ld	a, (_Frms+0)
    00000528 02               [ 7] 1219 	ld	(bc), a
                                   1220 ;E:\Dropbox\FAUSTO\SVILUPPI\MSX\CODE\C\MSXgl\projects\soccerlgMSX2/soccerlg_s10_b3.c:186: return;
    00000529                       1221 00144$:
                                   1222 ;E:\Dropbox\FAUSTO\SVILUPPI\MSX\CODE\C\MSXgl\projects\soccerlgMSX2/soccerlg_s10_b3.c:189: }
    00000529 DD F9            [10] 1223 	ld	sp, ix
    0000052B DD E1            [14] 1224 	pop	ix
    0000052D E1               [10] 1225 	pop	hl
    0000052E F1               [10] 1226 	pop	af
    0000052F E9               [ 4] 1227 	jp	(hl)
                                   1228 	.area _SEG10
                                   1229 	.area _INITIALIZER
                                   1230 	.area _CABS (ABS)
