;--------------------------------------------------------
; File Created by SDCC : free open source ANSI-C Compiler
; Version 4.2.0 #13081 (MINGW64)
;--------------------------------------------------------
	.module soccerlg_s12_b3
	.optsdcc -mz80
	
;--------------------------------------------------------
; Public variables in this module
;--------------------------------------------------------
	.globl _UpdateGameState_Penalties
	.globl _UpdateGameState_Celebrations
	.globl _UpdateGameState_Penalties_End
	.globl _UpdateGameState_SetPieces
	.globl _AssignOffsideTargets
	.globl _AssignCornerKickTargets
	.globl _AssignGoalKickTargets
	.globl _AssignThrowInTargets
	.globl _AssignKickOffTargets
	.globl _EventTimeUp
	.globl _HideSpriteMessage
	.globl _ShowSpriteMessage
	.globl _IsBallForeground
	.globl _PrintScoreBoardRight
	.globl _PrintScoreBoardLeft
	.globl _RemoveSwSprite
	.globl _PlotField
	.globl _CallFnc_VOID_16_P2
	.globl _CallFnc_BOOL
	.globl _CallFnc_VOID_16_P1
	.globl _CallFnc_VOID_3PTR_U16
	.globl _CallFnc_VOID_U8U16U16
	.globl _CallFnc_VOID
	.globl _CallSpriteFrame
	.globl _VDP_RegWriteBakMask
	.globl _VDP_RegWrite
	.globl _g_SLTSL
	.globl _g_GRPACY
	.globl _g_GRPACX
	.globl _g_LOGOPR
	.globl _g_CMASK
	.globl _g_CLOC
	.globl _g_FNKSTR
	.globl _g_ATRBYT
	.globl _g_BDRCLR
	.globl _g_BAKCLR
	.globl _g_FORCLR
	.globl _g_CSRX
	.globl _g_CSRY
	.globl _g_CLIKSW
	.globl _g_MLTPAT
	.globl _g_MLTATR
	.globl _g_MLTCGP
	.globl _g_MLTCOL
	.globl _g_MLTNAM
	.globl _g_GRPPAT
	.globl _g_GRPATR
	.globl _g_GRPCGP
	.globl _g_GRPCOL
	.globl _g_GRPNAM
	.globl _g_T32PAT
	.globl _g_T32ATR
	.globl _g_T32CGP
	.globl _g_T32COL
	.globl _g_T32NAM
	.globl _g_TXTPAT
	.globl _g_TXTATR
	.globl _g_TXTCGP
	.globl _g_TXTCOL
	.globl _g_TXTNAM
	.globl _g_CLMLST
	.globl _g_CRTCNT
	.globl _g_LINLEN
	.globl _g_LINL32
	.globl _g_LINL40
	.globl _g_BDOS
	.globl _g_MASTER
	.globl _g_RAMAD3
	.globl _g_RAMAD2
	.globl _g_RAMAD1
	.globl _g_RAMAD0
	.globl _g_BREAKV
	.globl _g_DISKVE
	.globl _g_KANJTABLE
	.globl _g_STRSRC
	.globl _g_SUBRID
	.globl _g_CHAR_16
	.globl _g_MSXMID
	.globl _g_MSXVER
	.globl _g_ROMVersion
	.globl _g_BASRVN
	.globl _g_VDP_DW
	.globl _g_VDP_DR
	.globl _g_CGTABL
	.globl _g_SVFFFD
	.globl _g_RG27SAV
	.globl _g_RG26SAV
	.globl _g_RG25SAV
	.globl _g_SVFFF8
	.globl _g_MINROM
	.globl _g_RG23SAV
	.globl _g_RG22SAV
	.globl _g_RG21SAV
	.globl _g_RG20SAV
	.globl _g_RG19SAV
	.globl _g_RG18SAV
	.globl _g_RG17SAV
	.globl _g_RG16SAV
	.globl _g_RG15SAV
	.globl _g_RG14SAV
	.globl _g_RG13SAV
	.globl _g_RG12SAV
	.globl _g_RG11SAV
	.globl _g_RG10SAV
	.globl _g_RG09SAV
	.globl _g_RG08SAV
	.globl _g_PROCNM
	.globl _g_SLTWRK
	.globl _g_SLTATR
	.globl _g_SLTTBL
	.globl _g_EXPTBL
	.globl _g_MNROM
	.globl _g_DRWANG
	.globl _g_DRWSCL
	.globl _g_DRWFLG
	.globl _g_GYPOS
	.globl _g_GXPOS
	.globl _g_BRDATR
	.globl _g_CASPRV
	.globl _g_OLDSCR
	.globl _g_SCRMOD
	.globl _g_FLBMEM
	.globl _g_KANAMD
	.globl _g_KANAST
	.globl _g_CAPST
	.globl _g_CSTYLE
	.globl _g_CSRSW
	.globl _g_INSFLG
	.globl _g_ESCCNT
	.globl _g_GRPHED
	.globl _g_WINWID
	.globl _g_LOWLIM
	.globl _g_INTCNT
	.globl _g_INTVAL
	.globl _g_JIFFY
	.globl _g_PADX
	.globl _g_PADY
	.globl _g_INTFLG
	.globl _g_RTYCNT
	.globl _g_TRPTBL
	.globl _g_HIMEM
	.globl _g_BOTTOM
	.globl _g_PATWRK
	.globl _g_LINWRK
	.globl _g_KEYBUF
	.globl _g_NEWKEY
	.globl _g_OLDKEY
	.globl _g_CLIKFL
	.globl _g_ONGSBF
	.globl _g_FNKFLG
	.globl _g_FNKSWI
	.globl _g_CODSAV
	.globl _g_FSTPOS
	.globl _g_LINTTB
	.globl _g_BASROM
	.globl _g_ENSTOP
	.globl _g_VCBC
	.globl _g_VCBB
	.globl _g_VCBA
	.globl _g_PLYCNT
	.globl _g_MUSICF
	.globl _g_QUEUEN
	.globl _g_MCLPTR
	.globl _g_MCLLEN
	.globl _g_SAVVOL
	.globl _g_VOICEN
	.globl _g_SAVSP
	.globl _g_PRSCNT
	.globl _g_LSTMOD
	.globl _g_LSTCOM
	.globl _g_COMMSK
	.globl _g_ESTBLS
	.globl _g_FLAGS
	.globl _g_ERRORS
	.globl _g_DATCNT
	.globl _g_DEVNUM
	.globl _g_OLDINT
	.globl _g_OLDSTT
	.globl _g_MEXBIh
	.globl _g_RSIQLN
	.globl _g_RSFCB
	.globl _g_TOCNT
	.globl _g_RSTMP
	.globl _g_YSAVE
	.globl _g_XSAVE
	.globl _g_NORUSE
	.globl _g_MODE
	.globl _g_ROMA
	.globl _g_CHRCNT
	.globl _g_EXBRSA
	.globl _g_AVCSAV
	.globl _g_ACPAGE
	.globl _g_DPPAGE
	.globl _g_RS2IQ
	.globl _g_VOICCQ
	.globl _g_VOICBQ
	.globl _g_VOICAQ
	.globl _g_QUEBAK
	.globl _g_QUETAB
	.globl _g_ASPCT2
	.globl _g_ASPCT1
	.globl _g_HEADER
	.globl _g_HIGH
	.globl _g_LOW
	.globl _g_CS240
	.globl _g_CS120
	.globl _g_GETPNT
	.globl _g_PUTPNT
	.globl _g_REPCNT
	.globl _g_SCNCNT
	.globl _g_FRCNEW
	.globl _g_QUEUES
	.globl _g_MINUPD
	.globl _g_MAXUPD
	.globl _g_TRGFLG
	.globl _g_STATFL
	.globl _g_RG7SAV
	.globl _g_RG6SAV
	.globl _g_RG5SAV
	.globl _g_RG4SAV
	.globl _g_RG3SAV
	.globl _g_RG2SAV
	.globl _g_RG1SAV
	.globl _g_RG0SAV
	.globl _g_CNSDFG
	.globl _g_USRTAB
	.globl _g_CLPRIM
	.globl _g_WRPRIM
	.globl _g_RDPRIM
	.globl _UpdateGameState_Restarts
;--------------------------------------------------------
; special function registers
;--------------------------------------------------------
_g_PortPrimarySlot	=	0x00a8
_g_PortReadKeyboard	=	0x00a9
_g_PortAccessKeyboard	=	0x00aa
_g_PortControl	=	0x00ab
_g_VDP_DataPort	=	0x0098
_g_VDP_RegPort	=	0x0099
_g_VDP_AddrPort	=	0x0099
_g_VDP_StatPort	=	0x0099
_g_VDP_PalPort	=	0x009a
_g_VDP_IRegPort	=	0x009b
_g_PSG_RegPort	=	0x00a0
_g_PSG_DataPort	=	0x00a1
_g_PSG_StatPort	=	0x00a2
_g_PSG_Ext_RegPort	=	0x0010
_g_PSG_Ext_DataPort	=	0x0011
_g_PSG_Ext_StatPort	=	0x0012
_g_MSXMusic_IndexPort	=	0x007c
_g_MSXMusic_DataPort	=	0x007d
_g_MSXAudio_IndexPort	=	0x00c0
_g_MSXAudio_DataPort	=	0x00c1
_g_MSXAudio_IndexPort2	=	0x00c2
_g_MSXAudio_DataPort2	=	0x00c3
_g_RTC_AddrPort	=	0x00b4
_g_RTC_DataPort	=	0x00b5
;--------------------------------------------------------
; ram data
;--------------------------------------------------------
	.area _DATA
_g_LINL40	=	0xf3ae
_g_LINL32	=	0xf3af
_g_LINLEN	=	0xf3b0
_g_CRTCNT	=	0xf3b1
_g_CLMLST	=	0xf3b2
_g_TXTNAM	=	0xf3b3
_g_TXTCOL	=	0xf3b5
_g_TXTCGP	=	0xf3b7
_g_TXTATR	=	0xf3b9
_g_TXTPAT	=	0xf3bb
_g_T32NAM	=	0xf3bd
_g_T32COL	=	0xf3bf
_g_T32CGP	=	0xf3c1
_g_T32ATR	=	0xf3c3
_g_T32PAT	=	0xf3c5
_g_GRPNAM	=	0xf3c7
_g_GRPCOL	=	0xf3c9
_g_GRPCGP	=	0xf3cb
_g_GRPATR	=	0xf3cd
_g_GRPPAT	=	0xf3cf
_g_MLTNAM	=	0xf3d1
_g_MLTCOL	=	0xf3d3
_g_MLTCGP	=	0xf3d5
_g_MLTATR	=	0xf3d7
_g_MLTPAT	=	0xf3d9
_g_CLIKSW	=	0xf3db
_g_CSRY	=	0xf3dc
_g_CSRX	=	0xf3dd
_g_FORCLR	=	0xf3e9
_g_BAKCLR	=	0xf3ea
_g_BDRCLR	=	0xf3eb
_g_ATRBYT	=	0xf3f2
_g_FNKSTR	=	0xf87f
_g_CLOC	=	0xf92a
_g_CMASK	=	0xf92c
_g_LOGOPR	=	0xfb02
_g_GRPACX	=	0xfcb7
_g_GRPACY	=	0xfcb9
_g_SLTSL	=	0xffff
;--------------------------------------------------------
; ram data
;--------------------------------------------------------
	.area _INITIALIZED
;--------------------------------------------------------
; absolute external ram data
;--------------------------------------------------------
	.area _DABS (ABS)
;--------------------------------------------------------
; global & static initialisations
;--------------------------------------------------------
	.area _HOME
	.area _GSINIT
	.area _GSFINAL
	.area _GSINIT
;--------------------------------------------------------
; Home
;--------------------------------------------------------
	.area _HOME
	.area _HOME
;--------------------------------------------------------
; code
;--------------------------------------------------------
	.area _SEG12
;E:\Dropbox\FAUSTO\SVILUPPI\MSX\CODE\C\MSXgl\projects\soccerlgMSX2/soccerlg_s12_b3.c:11: void UpdateGameState_Restarts(u8* game_state, u8* wait_secs, u8* start_sec, u16 target_ly) 
;	---------------------------------
; Function UpdateGameState_Restarts
; ---------------------------------
_UpdateGameState_Restarts::
	push	ix
	ld	ix,#0
	add	ix,sp
	ld	iy, #-18
	add	iy, sp
	ld	sp, iy
	ld	-3 (ix), l
	ld	-2 (ix), h
	ld	-5 (ix), e
	ld	-4 (ix), d
;E:\Dropbox\FAUSTO\SVILUPPI\MSX\CODE\C\MSXgl\projects\soccerlgMSX2/soccerlg_s12_b3.c:13: if (*game_state == 4) {
	ld	l, -3 (ix)
	ld	h, -2 (ix)
	ld	c, (hl)
	ld	a, c
	sub	a, #0x04
	jp	NZ,00221$
;E:\Dropbox\FAUSTO\SVILUPPI\MSX\CODE\C\MSXgl\projects\soccerlgMSX2/soccerlg_s12_b3.c:15: if (*wait_secs > 0) {
	ld	l, -5 (ix)
	ld	h, -4 (ix)
	ld	a, (hl)
	ld	-1 (ix), a
	or	a, a
	jp	Z, 00262$
;E:\Dropbox\FAUSTO\SVILUPPI\MSX\CODE\C\MSXgl\projects\soccerlgMSX2/soccerlg_s12_b3.c:16: if (*start_sec < Frms) { // Frms wrapped from 1 to 60
	ld	a, 4 (ix)
	ld	-18 (ix), a
	ld	a, 5 (ix)
	ld	-17 (ix), a
	pop	hl
	push	hl
	ld	c, (hl)
	ld	hl, #_Frms
	ld	a, c
	sub	a, (hl)
	jp	NC, 00127$
;E:\Dropbox\FAUSTO\SVILUPPI\MSX\CODE\C\MSXgl\projects\soccerlgMSX2/soccerlg_s12_b3.c:17: (*wait_secs)--;
	ld	a, -1 (ix)
	dec	a
	ld	l, -5 (ix)
	ld	h, -4 (ix)
	ld	(hl), a
;E:\Dropbox\FAUSTO\SVILUPPI\MSX\CODE\C\MSXgl\projects\soccerlgMSX2/soccerlg_s12_b3.c:18: if (*wait_secs == 0) {
	or	a, a
	jp	NZ, 00127$
;E:\Dropbox\FAUSTO\SVILUPPI\MSX\CODE\C\MSXgl\projects\soccerlgMSX2/soccerlg_s12_b3.c:19: CallFnc_VOID(SEG_DRAW, HideSpriteMessage);
	ld	de, #_HideSpriteMessage
	ld	a, #0x05
	call	_CallFnc_VOID
;E:/Dropbox/FAUSTO/SVILUPPI/MSX/CODE/C/MSXgl/engine/src/vdp.h:705: inline void VDP_EnableDisplay(bool enable) { VDP_RegWriteBakMask(1, (u8)~R01_BL, enable ? R01_BL : 0); }
	xor	a, a
	push	af
	inc	sp
	ld	l, #0xbf
;	spillPairReg hl
;	spillPairReg hl
	ld	a, #0x01
	call	_VDP_RegWriteBakMask
;E:\Dropbox\FAUSTO\SVILUPPI\MSX\CODE\C\MSXgl\projects\soccerlgMSX2/soccerlg_s12_b3.c:24: Half = 2;
	ld	hl, #_Half
	ld	(hl), #0x02
;E:\Dropbox\FAUSTO\SVILUPPI\MSX\CODE\C\MSXgl\projects\soccerlgMSX2/soccerlg_s12_b3.c:25: Mins = HALF_TIME_MINS; Secs = HALF_TIME_SECS;
	ld	hl, #_Mins
	ld	(hl), #0x01
	ld	hl, #_Secs
	ld	(hl), #0x00
;E:\Dropbox\FAUSTO\SVILUPPI\MSX\CODE\C\MSXgl\projects\soccerlgMSX2/soccerlg_s12_b3.c:26: KickOffTeam = TEAM_1; // Secondo tempo batte il Team 1
	ld	hl, #_KickOffTeam
	ld	(hl), #0x00
;E:\Dropbox\FAUSTO\SVILUPPI\MSX\CODE\C\MSXgl\projects\soccerlgMSX2/soccerlg_s12_b3.c:27: TimerEnabled = FALSE; // Congela il timer fino al prossimo tocco
	ld	hl, #_TimerEnabled
	ld	(hl), #0x00
;E:\Dropbox\FAUSTO\SVILUPPI\MSX\CODE\C\MSXgl\projects\soccerlgMSX2/soccerlg_s12_b3.c:30: SwSprite[14].lx = BALL_START_X;
	ld	hl, #(_SwSprite + 322)
	ld	(hl), #0x78
;E:\Dropbox\FAUSTO\SVILUPPI\MSX\CODE\C\MSXgl\projects\soccerlgMSX2/soccerlg_s12_b3.c:31: SwSprite[14].ly = BALL_START_Y;
	ld	hl, #0x0100
	ld	((_SwSprite + 326)), hl
;E:\Dropbox\FAUSTO\SVILUPPI\MSX\CODE\C\MSXgl\projects\soccerlgMSX2/soccerlg_s12_b3.c:32: SwSprite[14].dx = 0; SwSprite[14].dy = 0; SwSprite[14].anim = 0;
	ld	hl, #(_SwSprite + 339)
	ld	(hl), #0x00
	ld	hl, #(_SwSprite + 340)
	ld	(hl), #0x00
	ld	hl, #0x0000
	ld	((_SwSprite + 341)), hl
;E:\Dropbox\FAUSTO\SVILUPPI\MSX\CODE\C\MSXgl\projects\soccerlgMSX2/soccerlg_s12_b3.c:33: SwSprite[14].frame = SPR_BALL_SIZE_1;
	ld	l, #0x60
	ld	((_SwSprite + 337)), hl
;E:\Dropbox\FAUSTO\SVILUPPI\MSX\CODE\C\MSXgl\projects\soccerlgMSX2/soccerlg_s12_b3.c:35: Field.ly = target_ly; // Centra campo immediatamente per 2T
	ld	hl, #(_Field + 4)
	ld	a, 6 (ix)
	ld	(hl), a
	inc	hl
	ld	a, 7 (ix)
	ld	(hl), a
;E:\Dropbox\FAUSTO\SVILUPPI\MSX\CODE\C\MSXgl\projects\soccerlgMSX2/soccerlg_s12_b3.c:36: Field.dy = 0; // Impedisce ad AddLines di far scorrere lo sfondo non esistente
	ld	hl, #(_Field + 18)
	ld	(hl), #0x00
;E:\Dropbox\FAUSTO\SVILUPPI\MSX\CODE\C\MSXgl\projects\soccerlgMSX2/soccerlg_s12_b3.c:39: ScoreBoardLeft.y0 = ScoreBoardLeft.y1 = ScoreBoardLeft.y2 = Field.ly;
	ld	hl, #(_ScoreBoardLeft + 10)
	ld	a, 6 (ix)
	ld	(hl), a
	inc	hl
	ld	a, 7 (ix)
	ld	(hl), a
	ld	hl, #(_ScoreBoardLeft + 8)
	ld	a, 6 (ix)
	ld	(hl), a
	inc	hl
	ld	a, 7 (ix)
	ld	(hl), a
	ld	hl, #(_ScoreBoardLeft + 6)
	ld	a, 6 (ix)
	ld	(hl), a
	inc	hl
	ld	a, 7 (ix)
	ld	(hl), a
;E:\Dropbox\FAUSTO\SVILUPPI\MSX\CODE\C\MSXgl\projects\soccerlgMSX2/soccerlg_s12_b3.c:40: ScoreBoardRight.y0 = ScoreBoardRight.y1 = ScoreBoardRight.y2 = Field.ly;
	ld	hl, #(_ScoreBoardRight + 10)
	ld	a, 6 (ix)
	ld	(hl), a
	inc	hl
	ld	a, 7 (ix)
	ld	(hl), a
	ld	hl, #(_ScoreBoardRight + 8)
	ld	a, 6 (ix)
	ld	(hl), a
	inc	hl
	ld	a, 7 (ix)
	ld	(hl), a
	ld	hl, #(_ScoreBoardRight + 6)
	ld	a, 6 (ix)
	ld	(hl), a
	inc	hl
	ld	a, 7 (ix)
	ld	(hl), a
;E:\Dropbox\FAUSTO\SVILUPPI\MSX\CODE\C\MSXgl\projects\soccerlgMSX2/soccerlg_s12_b3.c:41: VDP_SetVerticalOffset(Field.ly & 255);
	ld	l, 6 (ix)
;	spillPairReg hl
;	spillPairReg hl
;E:/Dropbox/FAUSTO/SVILUPPI/MSX/CODE/C/MSXgl/engine/src/vdp.h:777: inline void VDP_SetVerticalOffset(u8 offset) { VDP_RegWrite(23, offset); }
	ld	a, #0x17
	call	_VDP_RegWrite
;E:\Dropbox\FAUSTO\SVILUPPI\MSX\CODE\C\MSXgl\projects\soccerlgMSX2/soccerlg_s12_b3.c:43: CallFnc_VOID(SEG_GAMESTATE_2, AssignKickOffTargets);
	ld	de, #_AssignKickOffTargets
	ld	a, #0x0b
	call	_CallFnc_VOID
;E:\Dropbox\FAUSTO\SVILUPPI\MSX\CODE\C\MSXgl\projects\soccerlgMSX2/soccerlg_s12_b3.c:44: for (u8 i = 0; i < 14; i++) {
	ld	c, #0x00
00227$:
	ld	a, c
	sub	a, #0x0e
	jr	NC, 00101$
;E:\Dropbox\FAUSTO\SVILUPPI\MSX\CODE\C\MSXgl\projects\soccerlgMSX2/soccerlg_s12_b3.c:45: SwSprite[i].lx = SwSprite[i].tx;
	ld	b, #0x00
	ld	l, c
	ld	h, b
	add	hl, hl
	add	hl, hl
	add	hl, bc
	add	hl, hl
	add	hl, bc
	add	hl, hl
	add	hl, bc
	ex	de, hl
	ld	hl, #_SwSprite
	add	hl, de
	ex	de, hl
	push	de
	pop	iy
	ld	a, 12 (iy)
	ld	(de), a
;E:\Dropbox\FAUSTO\SVILUPPI\MSX\CODE\C\MSXgl\projects\soccerlgMSX2/soccerlg_s12_b3.c:46: SwSprite[i].ly = SwSprite[i].ty;
	ld	hl, #0x0004
	add	hl, de
	ld	-9 (ix), l
	ld	-8 (ix), h
	push	de
	pop	iy
	ld	a, 13 (iy)
	ld	-7 (ix), a
	ld	a, 14 (iy)
	ld	-6 (ix), a
	ld	l, -9 (ix)
	ld	h, -8 (ix)
	ld	a, -7 (ix)
	ld	(hl), a
	inc	hl
	ld	a, -6 (ix)
	ld	(hl), a
;E:\Dropbox\FAUSTO\SVILUPPI\MSX\CODE\C\MSXgl\projects\soccerlgMSX2/soccerlg_s12_b3.c:47: SwSprite[i].dx = 0; SwSprite[i].dy = 0;
	ld	hl, #0x0011
	add	hl, de
	ld	(hl), #0x00
	ld	hl, #0x0012
	add	hl, de
	ld	(hl), #0x00
;E:\Dropbox\FAUSTO\SVILUPPI\MSX\CODE\C\MSXgl\projects\soccerlgMSX2/soccerlg_s12_b3.c:44: for (u8 i = 0; i < 14; i++) {
	inc	c
	jp	00227$
00101$:
;E:\Dropbox\FAUSTO\SVILUPPI\MSX\CODE\C\MSXgl\projects\soccerlgMSX2/soccerlg_s12_b3.c:51: bool ball_fg = CallFnc_BOOL(SEG_DRAW, IsBallForeground);
	ld	de, #_IsBallForeground
	ld	a, #0x05
	call	_CallFnc_BOOL
	ld	-16 (ix), a
;E:\Dropbox\FAUSTO\SVILUPPI\MSX\CODE\C\MSXgl\projects\soccerlgMSX2/soccerlg_s12_b3.c:52: for (u16 page = 0; page <= 512; page += 256) {
	xor	a, a
	ld	-15 (ix), a
	ld	-14 (ix), a
00239$:
	ld	c, -15 (ix)
	ld	b, -14 (ix)
	xor	a, a
	cp	a, c
	ld	a, #0x02
	sbc	a, b
	jp	C, 00306$
;E:\Dropbox\FAUSTO\SVILUPPI\MSX\CODE\C\MSXgl\projects\soccerlgMSX2/soccerlg_s12_b3.c:53: CallFnc_VOID_16_P2(SEG_DRAW, PlotField, Field.ly, page);
	ld	hl, (#(_Field + 4) + 0)
	ld	e, -15 (ix)
	ld	d, -14 (ix)
	push	de
	push	hl
	ld	de, #_PlotField
	ld	a, #0x05
	call	_CallFnc_VOID_16_P2
;E:\Dropbox\FAUSTO\SVILUPPI\MSX\CODE\C\MSXgl\projects\soccerlgMSX2/soccerlg_s12_b3.c:54: for (u8 i=37; i<NumSprite; i++) if (OnScreen(SwSprite[i].ly)) CallSpriteFrame(SwSprite[i].lx, (SwSprite[i].ly & 255) + page, SwSprite[i].frame);
	ld	-1 (ix), #0x25
00230$:
	ld	a, -1 (ix)
	sub	a, #0x27
	jr	NC, 00105$
	ld	c, -1 (ix)
	ld	b, #0x00
	ld	l, c
	ld	h, b
	add	hl, hl
	add	hl, hl
	add	hl, bc
	add	hl, hl
	add	hl, bc
	add	hl, hl
	add	hl, bc
	ex	de, hl
	ld	hl, #_SwSprite
	add	hl, de
	ld	-9 (ix), l
	ld	-8 (ix), h
	ld	bc,#4
	add	hl,bc
	ld	c, (hl)
	inc	hl
	ld	a, (hl)
	ld	-7 (ix), c
	ld	-6 (ix), a
	sub	a, #0x02
	jr	NC, 00231$
	ld	a, -7 (ix)
	add	a, #0x0f
	ld	e, a
	ld	a, -6 (ix)
	adc	a, #0x02
	ld	d, a
	ld	bc, (#(_Field + 4) + 0)
	ex	de, hl
	cp	a, a
	sbc	hl, bc
	ld	a, h
	and	a, #0x01
	ld	c, a
	ld	a, l
	sub	a, #0xcf
	ld	a, c
	sbc	a, #0x00
	jr	NC, 00231$
	ld	c, -9 (ix)
	ld	b, -8 (ix)
	ld	hl, #15
	add	hl, bc
	ld	c, (hl)
	inc	hl
	ld	b, (hl)
	ld	a, -7 (ix)
	ld	d, #0x00
	add	a, -15 (ix)
	ld	e, a
	ld	a, d
	adc	a, -14 (ix)
	ld	d, a
	ld	l, -9 (ix)
	ld	h, -8 (ix)
	ld	l, (hl)
;	spillPairReg hl
	push	bc
	ld	a, l
	call	_CallSpriteFrame
00231$:
	inc	-1 (ix)
	jp	00230$
00105$:
;E:\Dropbox\FAUSTO\SVILUPPI\MSX\CODE\C\MSXgl\projects\soccerlgMSX2/soccerlg_s12_b3.c:55: if (!ball_fg && OnScreen(SwSprite[14].ly)) CallSpriteFrame(SwSprite[14].lx, (SwSprite[14].ly & 255) + page, SwSprite[14].frame);
	ld	a, -16 (ix)
	or	a, a
	jr	NZ, 00296$
	ld	de, (#(_SwSprite + 326) + 0)
	ld	a, d
	sub	a, #0x02
	jr	NC, 00296$
	ld	hl, #0x020f
	add	hl, de
	ld	c, l
	ld	b, h
	ld	hl, (#(_Field + 4) + 0)
	ld	a, c
	sub	a, l
	ld	c, a
	ld	a, b
	sbc	a, h
	and	a, #0x01
	ld	b, a
	ld	a, c
	sub	a, #0xcf
	ld	a, b
	sbc	a, #0x00
	jr	NC, 00296$
	ld	bc, (#(_SwSprite + 337) + 0)
	ld	d, #0x00
	ld	a, e
	add	a, -15 (ix)
	ld	e, a
	ld	a, d
	adc	a, -14 (ix)
	ld	d, a
	ld	hl, #(_SwSprite + 322)
	ld	l, (hl)
;	spillPairReg hl
	push	bc
	ld	a, l
	call	_CallSpriteFrame
;E:\Dropbox\FAUSTO\SVILUPPI\MSX\CODE\C\MSXgl\projects\soccerlgMSX2/soccerlg_s12_b3.c:56: for (u8 i=0; i<14; i++) if (OnScreen(SwSprite[i].ly)) CallSpriteFrame(SwSprite[i].lx, (SwSprite[i].ly & 255) + page, SwSprite[i].frame);
00296$:
	ld	-1 (ix), #0x00
00233$:
	ld	a, -1 (ix)
	sub	a, #0x0e
	jp	NC, 00113$
	ld	c, -1 (ix)
	ld	b, #0x00
	ld	l, c
	ld	h, b
	add	hl, hl
	add	hl, hl
	add	hl, bc
	add	hl, hl
	add	hl, bc
	add	hl, hl
	add	hl, bc
	ex	de, hl
	ld	hl, #_SwSprite
	add	hl, de
	ld	-13 (ix), l
	ld	-12 (ix), h
	ld	bc,#4
	add	hl,bc
	ld	c, (hl)
	inc	hl
	ld	a, (hl)
	ld	-11 (ix), c
	ld	-10 (ix), a
	sub	a, #0x02
	jr	NC, 00234$
	ld	a, -11 (ix)
	add	a, #0x0f
	ld	-9 (ix), a
	ld	a, -10 (ix)
	adc	a, #0x02
	ld	-8 (ix), a
	ld	hl, #(_Field + 4)
	ld	a, (hl)
	ld	-7 (ix), a
	inc	hl
	ld	a, (hl)
	ld	-6 (ix), a
	ld	a, -9 (ix)
	ld	b, -8 (ix)
	sub	a, -7 (ix)
	ld	c, a
	ld	a, b
	sbc	a, -6 (ix)
	and	a, #0x01
	ld	b, a
	ld	a, c
	sub	a, #0xcf
	ld	a, b
	sbc	a, #0x00
	jr	NC, 00234$
	ld	c, -13 (ix)
	ld	b, -12 (ix)
	ld	hl, #15
	add	hl, bc
	ld	c, (hl)
	inc	hl
	ld	b, (hl)
	ld	a, -11 (ix)
	ld	d, #0x00
	add	a, -15 (ix)
	ld	e, a
	ld	a, d
	adc	a, -14 (ix)
	ld	d, a
	ld	l, -13 (ix)
	ld	h, -12 (ix)
	ld	l, (hl)
;	spillPairReg hl
	push	bc
	ld	a, l
	call	_CallSpriteFrame
00234$:
	inc	-1 (ix)
	jp	00233$
00113$:
;E:\Dropbox\FAUSTO\SVILUPPI\MSX\CODE\C\MSXgl\projects\soccerlgMSX2/soccerlg_s12_b3.c:57: if (ball_fg && OnScreen(SwSprite[14].ly)) CallSpriteFrame(SwSprite[14].lx, (SwSprite[14].ly & 255) + page, SwSprite[14].frame);
	ld	a, -16 (ix)
	or	a, a
	jr	Z, 00303$
;E:\Dropbox\FAUSTO\SVILUPPI\MSX\CODE\C\MSXgl\projects\soccerlgMSX2/soccerlg_s12_b3.c:55: if (!ball_fg && OnScreen(SwSprite[14].ly)) CallSpriteFrame(SwSprite[14].lx, (SwSprite[14].ly & 255) + page, SwSprite[14].frame);
	ld	de, (#(_SwSprite + 326) + 0)
;E:\Dropbox\FAUSTO\SVILUPPI\MSX\CODE\C\MSXgl\projects\soccerlgMSX2/soccerlg_s12_b3.c:57: if (ball_fg && OnScreen(SwSprite[14].ly)) CallSpriteFrame(SwSprite[14].lx, (SwSprite[14].ly & 255) + page, SwSprite[14].frame);
	ld	a, d
	sub	a, #0x02
	jr	NC, 00303$
	ld	hl, #0x020f
	add	hl, de
	ld	c, l
	ld	b, h
	ld	hl, (#(_Field + 4) + 0)
	ld	a, c
	sub	a, l
	ld	c, a
	ld	a, b
	sbc	a, h
	and	a, #0x01
	ld	b, a
	ld	a, c
	sub	a, #0xcf
	ld	a, b
	sbc	a, #0x00
	jr	NC, 00303$
	ld	bc, (#(_SwSprite + 337) + 0)
	ld	d, #0x00
	ld	a, e
	add	a, -15 (ix)
	ld	e, a
	ld	a, d
	adc	a, -14 (ix)
	ld	d, a
	ld	hl, #(_SwSprite + 322)
	ld	l, (hl)
;	spillPairReg hl
	push	bc
	ld	a, l
	call	_CallSpriteFrame
;E:\Dropbox\FAUSTO\SVILUPPI\MSX\CODE\C\MSXgl\projects\soccerlgMSX2/soccerlg_s12_b3.c:58: for (u8 i=15; i<37; i++) if (OnScreen(SwSprite[i].ly)) CallSpriteFrame(SwSprite[i].lx, (SwSprite[i].ly & 255) + page, SwSprite[i].frame);
00303$:
	ld	c, #0x0f
00236$:
	ld	a, c
	sub	a, #0x25
	jr	NC, 00240$
	ld	b, #0x00
	ld	l, c
	ld	h, b
	add	hl, hl
	add	hl, hl
	add	hl, bc
	add	hl, hl
	add	hl, bc
	add	hl, hl
	add	hl, bc
	ld	de, #_SwSprite
	add	hl, de
	ld	-9 (ix), l
	ld	-8 (ix), h
	ld	de, #4
	add	hl, de
	ld	b, (hl)
	inc	hl
	ld	a, (hl)
	ld	-7 (ix), b
	ld	-6 (ix), a
	sub	a, #0x02
	jr	NC, 00237$
	ld	a, -7 (ix)
	add	a, #0x0f
	ld	e, a
	ld	a, -6 (ix)
	adc	a, #0x02
	ld	d, a
	ld	hl, (#(_Field + 4) + 0)
	ld	a, e
	sub	a, l
	ld	e, a
	ld	a, d
	sbc	a, h
	and	a, #0x01
	ld	b, a
	ld	a, e
	sub	a, #0xcf
	ld	a, b
	sbc	a, #0x00
	jr	NC, 00237$
	ld	e, -9 (ix)
	ld	d, -8 (ix)
	ld	hl, #15
	add	hl, de
	ld	e, (hl)
	inc	hl
	ld	d, (hl)
	ld	l, -7 (ix)
;	spillPairReg hl
;	spillPairReg hl
	ld	h, #0x00
;	spillPairReg hl
;	spillPairReg hl
	push	hl
	pop	iy
	push	bc
	ld	c, -15 (ix)
	ld	b, -14 (ix)
	add	iy, bc
	pop	bc
	ld	l, -9 (ix)
	ld	h, -8 (ix)
	ld	b, (hl)
	push	bc
	push	de
	push	iy
	pop	de
	ld	a, b
	call	_CallSpriteFrame
	pop	bc
00237$:
	inc	c
	jp	00236$
00240$:
;E:\Dropbox\FAUSTO\SVILUPPI\MSX\CODE\C\MSXgl\projects\soccerlgMSX2/soccerlg_s12_b3.c:52: for (u16 page = 0; page <= 512; page += 256) {
	ld	c, -15 (ix)
	ld	a, -14 (ix)
	inc	a
	ld	-15 (ix), c
	ld	-14 (ix), a
	jp	00239$
;E:\Dropbox\FAUSTO\SVILUPPI\MSX\CODE\C\MSXgl\projects\soccerlgMSX2/soccerlg_s12_b3.c:62: for (u8 i = 0; i < NumSprite; i++) {
00306$:
	ld	c, #0x00
00242$:
	ld	a, c
	sub	a, #0x27
	jr	NC, 00123$
;E:\Dropbox\FAUSTO\SVILUPPI\MSX\CODE\C\MSXgl\projects\soccerlgMSX2/soccerlg_s12_b3.c:63: SwSprite[i].x0 = SwSprite[i].x1 = SwSprite[i].x2 = SwSprite[i].lx;
	ld	b, #0x00
	ld	l, c
	ld	h, b
	add	hl, hl
	add	hl, hl
	add	hl, bc
	add	hl, hl
	add	hl, bc
	add	hl, hl
	add	hl, bc
	ld	de, #_SwSprite
	add	hl, de
	ld	e, l
	ld	d, h
	inc	hl
	ld	-9 (ix), l
	ld	-8 (ix), h
	ld	hl, #0x0002
	add	hl, de
	ld	-7 (ix), l
	ld	-6 (ix), h
	ld	l, e
;	spillPairReg hl
;	spillPairReg hl
	ld	h, d
;	spillPairReg hl
;	spillPairReg hl
	inc	hl
	inc	hl
	inc	hl
	ld	a, (de)
	ld	(hl), a
	ld	l, -7 (ix)
	ld	h, -6 (ix)
	ld	(hl), a
	ld	l, -9 (ix)
	ld	h, -8 (ix)
	ld	(hl), a
;E:\Dropbox\FAUSTO\SVILUPPI\MSX\CODE\C\MSXgl\projects\soccerlgMSX2/soccerlg_s12_b3.c:64: SwSprite[i].y0 = SwSprite[i].y1 = SwSprite[i].y2 = SwSprite[i].ly;
	ld	hl, #0x0006
	add	hl, de
	ld	-11 (ix), l
	ld	-10 (ix), h
	ld	hl, #0x0008
	add	hl, de
	ld	-9 (ix), l
	ld	-8 (ix), h
	ld	hl, #0x000a
	add	hl, de
	ld	-7 (ix), l
	ld	-6 (ix), h
	ld	hl, #4
	add	hl, de
	ld	b, (hl)
	inc	hl
	ld	e, (hl)
	ld	l, -7 (ix)
	ld	h, -6 (ix)
	ld	(hl), b
	inc	hl
	ld	(hl), e
	ld	l, -9 (ix)
	ld	h, -8 (ix)
	ld	(hl), b
	inc	hl
	ld	(hl), e
	ld	l, -11 (ix)
	ld	h, -10 (ix)
	ld	(hl), b
	inc	hl
	ld	(hl), e
;E:\Dropbox\FAUSTO\SVILUPPI\MSX\CODE\C\MSXgl\projects\soccerlgMSX2/soccerlg_s12_b3.c:62: for (u8 i = 0; i < NumSprite; i++) {
	inc	c
	jp	00242$
00123$:
;E:\Dropbox\FAUSTO\SVILUPPI\MSX\CODE\C\MSXgl\projects\soccerlgMSX2/soccerlg_s12_b3.c:68: CallFnc_VOID_U8U16U16(SEG_DRAW, PrintScoreBoardLeft, ScoreBoardLeft.lx, Field.ly, 0);
	ld	bc, (#(_Field + 4) + 0)
	ld	a, (#_ScoreBoardLeft + 0)
	ld	hl, #0x0000
	push	hl
	push	bc
	push	af
	inc	sp
	ld	de, #_PrintScoreBoardLeft
	ld	a, #0x05
	call	_CallFnc_VOID_U8U16U16
;E:\Dropbox\FAUSTO\SVILUPPI\MSX\CODE\C\MSXgl\projects\soccerlgMSX2/soccerlg_s12_b3.c:69: CallFnc_VOID_U8U16U16(SEG_DRAW, PrintScoreBoardRight, ScoreBoardRight.lx, Field.ly, 0);
	ld	bc, (#(_Field + 4) + 0)
	ld	a, (#_ScoreBoardRight + 0)
	ld	hl, #0x0000
	push	hl
	push	bc
	push	af
	inc	sp
	ld	de, #_PrintScoreBoardRight
	ld	a, #0x05
	call	_CallFnc_VOID_U8U16U16
;E:\Dropbox\FAUSTO\SVILUPPI\MSX\CODE\C\MSXgl\projects\soccerlgMSX2/soccerlg_s12_b3.c:70: CallFnc_VOID_U8U16U16(SEG_DRAW, PrintScoreBoardLeft, ScoreBoardLeft.lx, Field.ly, 256);
	ld	bc, (#(_Field + 4) + 0)
	ld	a, (#_ScoreBoardLeft + 0)
	ld	hl, #0x0100
	push	hl
	push	bc
	push	af
	inc	sp
	ld	de, #_PrintScoreBoardLeft
	ld	a, #0x05
	call	_CallFnc_VOID_U8U16U16
;E:\Dropbox\FAUSTO\SVILUPPI\MSX\CODE\C\MSXgl\projects\soccerlgMSX2/soccerlg_s12_b3.c:71: CallFnc_VOID_U8U16U16(SEG_DRAW, PrintScoreBoardRight, ScoreBoardRight.lx, Field.ly, 256);
	ld	bc, (#(_Field + 4) + 0)
	ld	a, (#_ScoreBoardRight + 0)
	ld	hl, #0x0100
	push	hl
	push	bc
	push	af
	inc	sp
	ld	de, #_PrintScoreBoardRight
	ld	a, #0x05
	call	_CallFnc_VOID_U8U16U16
;E:\Dropbox\FAUSTO\SVILUPPI\MSX\CODE\C\MSXgl\projects\soccerlgMSX2/soccerlg_s12_b3.c:72: CallFnc_VOID_U8U16U16(SEG_DRAW, PrintScoreBoardLeft, ScoreBoardLeft.lx, Field.ly, 512);
	ld	bc, (#(_Field + 4) + 0)
	ld	a, (#_ScoreBoardLeft + 0)
	ld	hl, #0x0200
	push	hl
	push	bc
	push	af
	inc	sp
	ld	de, #_PrintScoreBoardLeft
	ld	a, #0x05
	call	_CallFnc_VOID_U8U16U16
;E:\Dropbox\FAUSTO\SVILUPPI\MSX\CODE\C\MSXgl\projects\soccerlgMSX2/soccerlg_s12_b3.c:73: CallFnc_VOID_U8U16U16(SEG_DRAW, PrintScoreBoardRight, ScoreBoardRight.lx, Field.ly, 512);
	ld	bc, (#(_Field + 4) + 0)
	ld	a, (#_ScoreBoardRight + 0)
	ld	hl, #0x0200
	push	hl
	push	bc
	push	af
	inc	sp
	ld	de, #_PrintScoreBoardRight
	ld	a, #0x05
	call	_CallFnc_VOID_U8U16U16
;E:/Dropbox/FAUSTO/SVILUPPI/MSX/CODE/C/MSXgl/engine/src/vdp.h:705: inline void VDP_EnableDisplay(bool enable) { VDP_RegWriteBakMask(1, (u8)~R01_BL, enable ? R01_BL : 0); }
	ld	a, #0x40
	push	af
	inc	sp
	ld	l, #0xbf
;	spillPairReg hl
;	spillPairReg hl
	ld	a, #0x01
	call	_VDP_RegWriteBakMask
;E:\Dropbox\FAUSTO\SVILUPPI\MSX\CODE\C\MSXgl\projects\soccerlgMSX2/soccerlg_s12_b3.c:77: *game_state = 2;
	ld	l, -3 (ix)
	ld	h, -2 (ix)
	ld	(hl), #0x02
00127$:
;E:\Dropbox\FAUSTO\SVILUPPI\MSX\CODE\C\MSXgl\projects\soccerlgMSX2/soccerlg_s12_b3.c:80: *start_sec = Frms;
	pop	hl
	push	hl
	ld	a, (_Frms+0)
	ld	(hl), a
	jp	00262$
00221$:
;E:\Dropbox\FAUSTO\SVILUPPI\MSX\CODE\C\MSXgl\projects\soccerlgMSX2/soccerlg_s12_b3.c:82: } else if (*game_state == 5) {
	ld	a, c
	sub	a, #0x05
	jp	NZ,00218$
;E:\Dropbox\FAUSTO\SVILUPPI\MSX\CODE\C\MSXgl\projects\soccerlgMSX2/soccerlg_s12_b3.c:84: T1_Carrier = T2_Carrier = T1_Receiver = T2_Receiver = 0xFF;
	ld	hl, #_T2_Receiver
	ld	(hl), #0xff
	ld	hl, #_T1_Receiver
	ld	(hl), #0xff
	ld	hl, #_T2_Carrier
	ld	(hl), #0xff
	ld	iy, #_T1_Carrier
	ld	0 (iy), #0xff
;E:\Dropbox\FAUSTO\SVILUPPI\MSX\CODE\C\MSXgl\projects\soccerlgMSX2/soccerlg_s12_b3.c:85: if (*wait_secs > 0) {
	ld	l, -5 (ix)
	ld	h, -4 (ix)
	ld	e, (hl)
	ld	a, e
	or	a, a
	jp	Z, 00262$
;E:\Dropbox\FAUSTO\SVILUPPI\MSX\CODE\C\MSXgl\projects\soccerlgMSX2/soccerlg_s12_b3.c:86: if (*start_sec < Frms) { // Frms wrapped from 1 to 60
	ld	c, 4 (ix)
	ld	b, 5 (ix)
	ld	a, (bc)
	ld	d, a
	ld	hl, #_Frms
	ld	a, d
	sub	a, (hl)
	jr	NC, 00136$
;E:\Dropbox\FAUSTO\SVILUPPI\MSX\CODE\C\MSXgl\projects\soccerlgMSX2/soccerlg_s12_b3.c:87: (*wait_secs)--;
	ld	a, e
	dec	a
	ld	l, -5 (ix)
	ld	h, -4 (ix)
	ld	(hl), a
;E:\Dropbox\FAUSTO\SVILUPPI\MSX\CODE\C\MSXgl\projects\soccerlgMSX2/soccerlg_s12_b3.c:88: if (*wait_secs == 0) {
	or	a, a
	jr	NZ, 00136$
;E:\Dropbox\FAUSTO\SVILUPPI\MSX\CODE\C\MSXgl\projects\soccerlgMSX2/soccerlg_s12_b3.c:89: CallFnc_VOID(SEG_DRAW, HideSpriteMessage);
	push	bc
	ld	de, #_HideSpriteMessage
	ld	a, #0x05
	call	_CallFnc_VOID
	ld	de, #_EventTimeUp
	ld	a, #0x08
	call	_CallFnc_VOID
	pop	bc
;E:\Dropbox\FAUSTO\SVILUPPI\MSX\CODE\C\MSXgl\projects\soccerlgMSX2/soccerlg_s12_b3.c:92: if (ScoreTeam1 != ScoreTeam2) {
	ld	a, (_ScoreTeam1+0)
	ld	hl, #_ScoreTeam2
	sub	a, (hl)
	jr	Z, 00131$
;E:\Dropbox\FAUSTO\SVILUPPI\MSX\CODE\C\MSXgl\projects\soccerlgMSX2/soccerlg_s12_b3.c:93: *game_state = 10; // Vittoria: Esultanza e Uscita
	ld	l, -3 (ix)
	ld	h, -2 (ix)
	ld	(hl), #0x0a
;E:\Dropbox\FAUSTO\SVILUPPI\MSX\CODE\C\MSXgl\projects\soccerlgMSX2/soccerlg_s12_b3.c:94: *wait_secs = 3;
	ld	l, -5 (ix)
	ld	h, -4 (ix)
	ld	(hl), #0x03
;E:\Dropbox\FAUSTO\SVILUPPI\MSX\CODE\C\MSXgl\projects\soccerlgMSX2/soccerlg_s12_b3.c:95: *start_sec = Frms;
	ld	a, (_Frms+0)
	ld	(bc), a
;E:\Dropbox\FAUSTO\SVILUPPI\MSX\CODE\C\MSXgl\projects\soccerlgMSX2/soccerlg_s12_b3.c:96: g_is_penalty_shootout = FALSE;
	ld	iy, #_g_is_penalty_shootout
	ld	0 (iy), #0x00
	jp	00136$
00131$:
;E:\Dropbox\FAUSTO\SVILUPPI\MSX\CODE\C\MSXgl\projects\soccerlgMSX2/soccerlg_s12_b3.c:98: *game_state = 11; // Pareggio: Setup Rigori
	ld	l, -3 (ix)
	ld	h, -2 (ix)
	ld	(hl), #0x0b
;E:\Dropbox\FAUSTO\SVILUPPI\MSX\CODE\C\MSXgl\projects\soccerlgMSX2/soccerlg_s12_b3.c:99: CallFnc_VOID_16_P1(SEG_DRAW, ShowSpriteMessage, SPR_MSG_PENALTIES);
	push	bc
	ld	hl, #0x0149
	push	hl
	ld	de, #_ShowSpriteMessage
	ld	a, #0x05
	call	_CallFnc_VOID_16_P1
	pop	bc
;E:\Dropbox\FAUSTO\SVILUPPI\MSX\CODE\C\MSXgl\projects\soccerlgMSX2/soccerlg_s12_b3.c:100: *wait_secs = 2;
	ld	l, -5 (ix)
	ld	h, -4 (ix)
	ld	(hl), #0x02
;E:\Dropbox\FAUSTO\SVILUPPI\MSX\CODE\C\MSXgl\projects\soccerlgMSX2/soccerlg_s12_b3.c:101: *start_sec = Frms;
	ld	a, (_Frms+0)
	ld	(bc), a
00136$:
;E:\Dropbox\FAUSTO\SVILUPPI\MSX\CODE\C\MSXgl\projects\soccerlgMSX2/soccerlg_s12_b3.c:105: *start_sec = Frms;
	ld	a, (_Frms+0)
	ld	(bc), a
	jp	00262$
00218$:
;E:\Dropbox\FAUSTO\SVILUPPI\MSX\CODE\C\MSXgl\projects\soccerlgMSX2/soccerlg_s12_b3.c:107: } else if (*game_state == 6) {
	ld	a, c
	sub	a, #0x06
	jp	NZ,00215$
;E:\Dropbox\FAUSTO\SVILUPPI\MSX\CODE\C\MSXgl\projects\soccerlgMSX2/soccerlg_s12_b3.c:109: if (*wait_secs > 0) {
	ld	l, -5 (ix)
	ld	h, -4 (ix)
	ld	a, (hl)
	ld	-1 (ix), a
	or	a, a
	jp	Z, 00262$
;E:\Dropbox\FAUSTO\SVILUPPI\MSX\CODE\C\MSXgl\projects\soccerlgMSX2/soccerlg_s12_b3.c:110: if (*start_sec < Frms) { // Frms wrapped from 1 to 60
	ld	a, 4 (ix)
	ld	-14 (ix), a
	ld	a, 5 (ix)
	ld	-13 (ix), a
	ld	l, -14 (ix)
	ld	h, -13 (ix)
	ld	c, (hl)
	ld	hl, #_Frms
	ld	a, c
	sub	a, (hl)
	jp	NC, 00196$
;E:\Dropbox\FAUSTO\SVILUPPI\MSX\CODE\C\MSXgl\projects\soccerlgMSX2/soccerlg_s12_b3.c:111: (*wait_secs)--;
	ld	a, -1 (ix)
	dec	a
	ld	l, -5 (ix)
	ld	h, -4 (ix)
	ld	(hl), a
;E:\Dropbox\FAUSTO\SVILUPPI\MSX\CODE\C\MSXgl\projects\soccerlgMSX2/soccerlg_s12_b3.c:112: if (*wait_secs == 0) {
	or	a, a
	jp	NZ, 00196$
;E:\Dropbox\FAUSTO\SVILUPPI\MSX\CODE\C\MSXgl\projects\soccerlgMSX2/soccerlg_s12_b3.c:113: CallFnc_VOID(SEG_DRAW, HideSpriteMessage);
	ld	de, #_HideSpriteMessage
	ld	a, #0x05
	call	_CallFnc_VOID
;E:\Dropbox\FAUSTO\SVILUPPI\MSX\CODE\C\MSXgl\projects\soccerlgMSX2/soccerlg_s12_b3.c:115: if (RestartType == RESTART_THROWIN) {
	ld	a, (_RestartType+0)
	dec	a
	jr	NZ, 00152$
;E:\Dropbox\FAUSTO\SVILUPPI\MSX\CODE\C\MSXgl\projects\soccerlgMSX2/soccerlg_s12_b3.c:116: CallFnc_VOID(SEG_GAMESTATE_7, AssignThrowInTargets);
	ld	de, #_AssignThrowInTargets
	ld	a, #0x11
	call	_CallFnc_VOID
	jp	00153$
00152$:
;E:\Dropbox\FAUSTO\SVILUPPI\MSX\CODE\C\MSXgl\projects\soccerlgMSX2/soccerlg_s12_b3.c:117: } else if (RestartType == RESTART_GOALKICK || RestartType == RESTART_GKSAVE) {
	ld	a,(_RestartType+0)
	cp	a,#0x02
	jr	Z, 00147$
	sub	a, #0x04
	jr	NZ, 00148$
00147$:
;E:\Dropbox\FAUSTO\SVILUPPI\MSX\CODE\C\MSXgl\projects\soccerlgMSX2/soccerlg_s12_b3.c:118: CallFnc_VOID(SEG_GAMESTATE_7, AssignGoalKickTargets);
	ld	de, #_AssignGoalKickTargets
	ld	a, #0x11
	call	_CallFnc_VOID
	jp	00153$
00148$:
;E:\Dropbox\FAUSTO\SVILUPPI\MSX\CODE\C\MSXgl\projects\soccerlgMSX2/soccerlg_s12_b3.c:119: } else if (RestartType == RESTART_CORNERKICK) {
	ld	a, (_RestartType+0)
	sub	a, #0x03
	jr	NZ, 00145$
;E:\Dropbox\FAUSTO\SVILUPPI\MSX\CODE\C\MSXgl\projects\soccerlgMSX2/soccerlg_s12_b3.c:120: CallFnc_VOID(SEG_GAMESTATE_7, AssignCornerKickTargets);
	ld	de, #_AssignCornerKickTargets
	ld	a, #0x11
	call	_CallFnc_VOID
	jp	00153$
00145$:
;E:\Dropbox\FAUSTO\SVILUPPI\MSX\CODE\C\MSXgl\projects\soccerlgMSX2/soccerlg_s12_b3.c:121: } else if (RestartType == RESTART_OFFSIDE) {
	ld	a, (_RestartType+0)
	sub	a, #0x07
	jr	NZ, 00142$
;E:\Dropbox\FAUSTO\SVILUPPI\MSX\CODE\C\MSXgl\projects\soccerlgMSX2/soccerlg_s12_b3.c:122: CallFnc_VOID(SEG_GAMESTATE_7, AssignOffsideTargets);
	ld	de, #_AssignOffsideTargets
	ld	a, #0x11
	call	_CallFnc_VOID
	jp	00153$
00142$:
;E:\Dropbox\FAUSTO\SVILUPPI\MSX\CODE\C\MSXgl\projects\soccerlgMSX2/soccerlg_s12_b3.c:125: SwSprite[14].lx = BALL_START_X;
	ld	hl, #(_SwSprite + 322)
	ld	(hl), #0x78
;E:\Dropbox\FAUSTO\SVILUPPI\MSX\CODE\C\MSXgl\projects\soccerlgMSX2/soccerlg_s12_b3.c:126: SwSprite[14].ly = BALL_START_Y;
	ld	hl, #0x0100
	ld	((_SwSprite + 326)), hl
;E:\Dropbox\FAUSTO\SVILUPPI\MSX\CODE\C\MSXgl\projects\soccerlgMSX2/soccerlg_s12_b3.c:127: SwSprite[14].dx = 0; SwSprite[14].dy = 0; SwSprite[14].anim = 0;
	ld	hl, #(_SwSprite + 339)
	ld	(hl), #0x00
	ld	hl, #(_SwSprite + 340)
	ld	(hl), #0x00
	ld	hl, #0x0000
	ld	((_SwSprite + 341)), hl
;E:\Dropbox\FAUSTO\SVILUPPI\MSX\CODE\C\MSXgl\projects\soccerlgMSX2/soccerlg_s12_b3.c:128: SwSprite[14].frame = SPR_BALL_SIZE_1;
	ld	l, #0x60
	ld	((_SwSprite + 337)), hl
;E:\Dropbox\FAUSTO\SVILUPPI\MSX\CODE\C\MSXgl\projects\soccerlgMSX2/soccerlg_s12_b3.c:130: if (RestartType != RESTART_GOAL) Field.ly = target_ly; // Teletrasporta solo se NON è un Goal
	ld	a, (_RestartType+0)
	sub	a, #0x05
	jr	Z, 00140$
	ld	hl, #(_Field + 4)
	ld	a, 6 (ix)
	ld	(hl), a
	inc	hl
	ld	a, 7 (ix)
	ld	(hl), a
00140$:
;E:\Dropbox\FAUSTO\SVILUPPI\MSX\CODE\C\MSXgl\projects\soccerlgMSX2/soccerlg_s12_b3.c:131: CallFnc_VOID(SEG_GAMESTATE_2, AssignKickOffTargets);
	ld	de, #_AssignKickOffTargets
	ld	a, #0x0b
	call	_CallFnc_VOID
00153$:
;E:\Dropbox\FAUSTO\SVILUPPI\MSX\CODE\C\MSXgl\projects\soccerlgMSX2/soccerlg_s12_b3.c:117: } else if (RestartType == RESTART_GOALKICK || RestartType == RESTART_GKSAVE) {
	ld	a, (_RestartType+0)
	sub	a, #0x04
	ld	a, #0x01
	jr	Z, 00723$
	xor	a, a
00723$:
	ld	-1 (ix), a
;E:\Dropbox\FAUSTO\SVILUPPI\MSX\CODE\C\MSXgl\projects\soccerlgMSX2/soccerlg_s12_b3.c:135: if (RestartType == RESTART_THROWIN || RestartType == RESTART_GOALKICK || RestartType == RESTART_GKSAVE || RestartType == RESTART_OFFSIDE) {
	ld	a, (_RestartType+0)
	dec	a
	jr	Z, 00160$
	ld	a, (_RestartType+0)
	sub	a, #0x02
	jr	Z, 00160$
	ld	a, -1 (ix)
	or	a, a
	jr	NZ, 00160$
	ld	a, (_RestartType+0)
	sub	a, #0x07
	jr	NZ, 00161$
00160$:
;E:\Dropbox\FAUSTO\SVILUPPI\MSX\CODE\C\MSXgl\projects\soccerlgMSX2/soccerlg_s12_b3.c:136: u16 cam_target_y = (RestartType == RESTART_GKSAVE || RestartType == RESTART_OFFSIDE) ? RestartSideY : SwSprite[14].ly;
	bit	0, -1 (ix)
	jr	NZ, 00271$
	ld	a, (_RestartType+0)
	sub	a, #0x07
	jr	NZ, 00268$
00271$:
	ld	hl, (_RestartSideY)
	ld	-7 (ix), l
	ld	-6 (ix), h
	jp	00269$
00268$:
	ld	hl, #(_SwSprite + 326)
	ld	a, (hl)
	ld	-7 (ix), a
	inc	hl
	ld	a, (hl)
	ld	-6 (ix), a
00269$:
;E:\Dropbox\FAUSTO\SVILUPPI\MSX\CODE\C\MSXgl\projects\soccerlgMSX2/soccerlg_s12_b3.c:137: if (cam_target_y < 96) Field.ly = 0;
	ld	a, -7 (ix)
	sub	a, #0x60
	ld	a, -6 (ix)
	sbc	a, #0x00
	jr	NC, 00158$
	ld	hl, #0x0000
	ld	((_Field + 4)), hl
	jp	00159$
00158$:
;E:\Dropbox\FAUSTO\SVILUPPI\MSX\CODE\C\MSXgl\projects\soccerlgMSX2/soccerlg_s12_b3.c:138: else if (cam_target_y > 512 - 192) Field.ly = 512 - 192;
	ld	a, #0x40
	cp	a, -7 (ix)
	ld	a, #0x01
	sbc	a, -6 (ix)
	jr	NC, 00155$
	ld	hl, #0x0140
	ld	((_Field + 4)), hl
	jp	00159$
00155$:
;E:\Dropbox\FAUSTO\SVILUPPI\MSX\CODE\C\MSXgl\projects\soccerlgMSX2/soccerlg_s12_b3.c:139: else Field.ly = cam_target_y - 96;
	ld	a, -7 (ix)
	add	a, #0xa0
	ld	c, a
	ld	a, -6 (ix)
	adc	a, #0xff
	ld	b, a
	ld	((_Field + 4)), bc
00159$:
;E:\Dropbox\FAUSTO\SVILUPPI\MSX\CODE\C\MSXgl\projects\soccerlgMSX2/soccerlg_s12_b3.c:141: T1_Carrier = T2_Carrier = T1_Receiver = T2_Receiver = 0xFF;
	ld	hl, #_T2_Receiver
	ld	(hl), #0xff
	ld	hl, #_T1_Receiver
	ld	(hl), #0xff
	ld	hl, #_T2_Carrier
	ld	(hl), #0xff
	ld	hl, #_T1_Carrier
	ld	(hl), #0xff
00161$:
;E:\Dropbox\FAUSTO\SVILUPPI\MSX\CODE\C\MSXgl\projects\soccerlgMSX2/soccerlg_s12_b3.c:144: Field.dy = 0;
	ld	hl, #(_Field + 18)
	ld	(hl), #0x00
;E:\Dropbox\FAUSTO\SVILUPPI\MSX\CODE\C\MSXgl\projects\soccerlgMSX2/soccerlg_s12_b3.c:148: if (RestartType != RESTART_GKSAVE) {
	ld	a, (_RestartType+0)
	sub	a, #0x04
	jp	Z,00189$
;E:\Dropbox\FAUSTO\SVILUPPI\MSX\CODE\C\MSXgl\projects\soccerlgMSX2/soccerlg_s12_b3.c:149: bool ball_fg = CallFnc_BOOL(SEG_DRAW, IsBallForeground);
	ld	de, #_IsBallForeground
	ld	a, #0x05
	call	_CallFnc_BOOL
	ld	-12 (ix), a
;E:\Dropbox\FAUSTO\SVILUPPI\MSX\CODE\C\MSXgl\projects\soccerlgMSX2/soccerlg_s12_b3.c:150: for (u16 page = 0; page <= 512; page += 256) {
	xor	a, a
	ld	-11 (ix), a
	ld	-10 (ix), a
00254$:
	ld	c, -11 (ix)
	ld	b, -10 (ix)
	xor	a, a
	cp	a, c
	ld	a, #0x02
	sbc	a, b
	jp	C, 00351$
;E:\Dropbox\FAUSTO\SVILUPPI\MSX\CODE\C\MSXgl\projects\soccerlgMSX2/soccerlg_s12_b3.c:151: CallFnc_VOID_16_P2(SEG_DRAW, PlotField, Field.ly, page);
	ld	hl, (#(_Field + 4) + 0)
	ld	e, -11 (ix)
	ld	d, -10 (ix)
	push	de
	push	hl
	ld	de, #_PlotField
	ld	a, #0x05
	call	_CallFnc_VOID_16_P2
;E:\Dropbox\FAUSTO\SVILUPPI\MSX\CODE\C\MSXgl\projects\soccerlgMSX2/soccerlg_s12_b3.c:152: for (u8 i=37; i<NumSprite; i++) if (OnScreen(SwSprite[i].ly)) CallSpriteFrame(SwSprite[i].lx, (SwSprite[i].ly & 255) + page, SwSprite[i].frame);
	ld	-1 (ix), #0x25
00245$:
	ld	a, -1 (ix)
	sub	a, #0x27
	jr	NC, 00168$
	ld	c, -1 (ix)
	ld	b, #0x00
	ld	l, c
	ld	h, b
	add	hl, hl
	add	hl, hl
	add	hl, bc
	add	hl, hl
	add	hl, bc
	add	hl, hl
	add	hl, bc
	ex	de, hl
	ld	hl, #_SwSprite
	add	hl, de
	ld	-9 (ix), l
	ld	-8 (ix), h
	ld	bc,#4
	add	hl,bc
	ld	c, (hl)
	inc	hl
	ld	a, (hl)
	ld	-7 (ix), c
	ld	-6 (ix), a
	sub	a, #0x02
	jr	NC, 00246$
	ld	a, -7 (ix)
	add	a, #0x0f
	ld	e, a
	ld	a, -6 (ix)
	adc	a, #0x02
	ld	d, a
	ld	bc, (#(_Field + 4) + 0)
	ex	de, hl
	cp	a, a
	sbc	hl, bc
	ld	a, h
	and	a, #0x01
	ld	c, a
	ld	a, l
	sub	a, #0xcf
	ld	a, c
	sbc	a, #0x00
	jr	NC, 00246$
	ld	c, -9 (ix)
	ld	b, -8 (ix)
	ld	hl, #15
	add	hl, bc
	ld	c, (hl)
	inc	hl
	ld	b, (hl)
	ld	a, -7 (ix)
	ld	d, #0x00
	add	a, -11 (ix)
	ld	e, a
	ld	a, d
	adc	a, -10 (ix)
	ld	d, a
	ld	l, -9 (ix)
	ld	h, -8 (ix)
	ld	l, (hl)
;	spillPairReg hl
	push	bc
	ld	a, l
	call	_CallSpriteFrame
00246$:
	inc	-1 (ix)
	jp	00245$
00168$:
;E:\Dropbox\FAUSTO\SVILUPPI\MSX\CODE\C\MSXgl\projects\soccerlgMSX2/soccerlg_s12_b3.c:153: if (!ball_fg && OnScreen(SwSprite[14].ly)) CallSpriteFrame(SwSprite[14].lx, (SwSprite[14].ly & 255) + page, SwSprite[14].frame);
	ld	a, -12 (ix)
	or	a, a
	jr	NZ, 00341$
	ld	de, (#(_SwSprite + 326) + 0)
	ld	a, d
	sub	a, #0x02
	jr	NC, 00341$
	ld	hl, #0x020f
	add	hl, de
	ld	c, l
	ld	b, h
	ld	hl, (#(_Field + 4) + 0)
	ld	a, c
	sub	a, l
	ld	c, a
	ld	a, b
	sbc	a, h
	and	a, #0x01
	ld	b, a
	ld	a, c
	sub	a, #0xcf
	ld	a, b
	sbc	a, #0x00
	jr	NC, 00341$
	ld	bc, (#_SwSprite + 337)
	ld	d, #0x00
	ld	a, e
	add	a, -11 (ix)
	ld	e, a
	ld	a, d
	adc	a, -10 (ix)
	ld	d, a
	ld	hl, #(_SwSprite + 322)
	ld	l, (hl)
;	spillPairReg hl
	push	bc
	ld	a, l
	call	_CallSpriteFrame
;E:\Dropbox\FAUSTO\SVILUPPI\MSX\CODE\C\MSXgl\projects\soccerlgMSX2/soccerlg_s12_b3.c:154: for (u8 i=0; i<14; i++) if (OnScreen(SwSprite[i].ly)) CallSpriteFrame(SwSprite[i].lx, (SwSprite[i].ly & 255) + page, SwSprite[i].frame);
00341$:
	ld	-1 (ix), #0x00
00248$:
	ld	a, -1 (ix)
	sub	a, #0x0e
	jr	NC, 00176$
	ld	c, -1 (ix)
	ld	b, #0x00
	ld	l, c
	ld	h, b
	add	hl, hl
	add	hl, hl
	add	hl, bc
	add	hl, hl
	add	hl, bc
	add	hl, hl
	add	hl, bc
	ex	de, hl
	ld	hl, #_SwSprite
	add	hl, de
	ld	-9 (ix), l
	ld	-8 (ix), h
	ld	bc,#4
	add	hl,bc
	ld	c, (hl)
	inc	hl
	ld	a, (hl)
	ld	-7 (ix), c
	ld	-6 (ix), a
	sub	a, #0x02
	jr	NC, 00249$
	ld	a, -7 (ix)
	add	a, #0x0f
	ld	e, a
	ld	a, -6 (ix)
	adc	a, #0x02
	ld	d, a
	ld	bc, (#(_Field + 4) + 0)
	ex	de, hl
	cp	a, a
	sbc	hl, bc
	ld	a, h
	and	a, #0x01
	ld	c, a
	ld	a, l
	sub	a, #0xcf
	ld	a, c
	sbc	a, #0x00
	jr	NC, 00249$
	ld	c, -9 (ix)
	ld	b, -8 (ix)
	ld	hl, #15
	add	hl, bc
	ld	c, (hl)
	inc	hl
	ld	b, (hl)
	ld	a, -7 (ix)
	ld	d, #0x00
	add	a, -11 (ix)
	ld	e, a
	ld	a, d
	adc	a, -10 (ix)
	ld	d, a
	ld	l, -9 (ix)
	ld	h, -8 (ix)
	ld	l, (hl)
;	spillPairReg hl
	push	bc
	ld	a, l
	call	_CallSpriteFrame
00249$:
	inc	-1 (ix)
	jp	00248$
00176$:
;E:\Dropbox\FAUSTO\SVILUPPI\MSX\CODE\C\MSXgl\projects\soccerlgMSX2/soccerlg_s12_b3.c:155: if (ball_fg && OnScreen(SwSprite[14].ly)) CallSpriteFrame(SwSprite[14].lx, (SwSprite[14].ly & 255) + page, SwSprite[14].frame);
	ld	a, -12 (ix)
	or	a, a
	jr	Z, 00348$
	ld	de, (#(_SwSprite + 326) + 0)
	ld	a, d
	sub	a, #0x02
	jr	NC, 00348$
	ld	hl, #0x020f
	add	hl, de
	ld	c, l
	ld	b, h
	ld	hl, (#(_Field + 4) + 0)
	ld	a, c
	sub	a, l
	ld	c, a
	ld	a, b
	sbc	a, h
	and	a, #0x01
	ld	b, a
	ld	a, c
	sub	a, #0xcf
	ld	a, b
	sbc	a, #0x00
	jr	NC, 00348$
	ld	bc, (#_SwSprite + 337)
	ld	d, #0x00
	ld	a, e
	add	a, -11 (ix)
	ld	e, a
	ld	a, d
	adc	a, -10 (ix)
	ld	d, a
	ld	hl, #(_SwSprite + 322)
	ld	l, (hl)
;	spillPairReg hl
	push	bc
	ld	a, l
	call	_CallSpriteFrame
;E:\Dropbox\FAUSTO\SVILUPPI\MSX\CODE\C\MSXgl\projects\soccerlgMSX2/soccerlg_s12_b3.c:156: for (u8 i=15; i<37; i++) if (OnScreen(SwSprite[i].ly)) CallSpriteFrame(SwSprite[i].lx, (SwSprite[i].ly & 255) + page, SwSprite[i].frame);
00348$:
	ld	c, #0x0f
00251$:
	ld	a, c
	sub	a, #0x25
	jr	NC, 00255$
	ld	b, #0x00
	ld	l, c
	ld	h, b
	add	hl, hl
	add	hl, hl
	add	hl, bc
	add	hl, hl
	add	hl, bc
	add	hl, hl
	add	hl, bc
	ld	de, #_SwSprite
	add	hl, de
	ld	-9 (ix), l
	ld	-8 (ix), h
	ex	de,hl
	ld	hl, #4
	add	hl, de
	ld	b, (hl)
	inc	hl
	ld	a, (hl)
	ld	-7 (ix), b
	ld	-6 (ix), a
	sub	a, #0x02
	jr	NC, 00252$
	ld	a, -7 (ix)
	add	a, #0x0f
	ld	e, a
	ld	a, -6 (ix)
	adc	a, #0x02
	ld	b, a
	ld	hl, (#(_Field + 4) + 0)
	ld	a, e
	sub	a, l
	ld	e, a
	ld	a, b
	sbc	a, h
	and	a, #0x01
	ld	d, a
	ld	a, e
	sub	a, #0xcf
	ld	a, d
	sbc	a, #0x00
	jr	NC, 00252$
	ld	e, -9 (ix)
	ld	d, -8 (ix)
	ld	hl, #15
	add	hl, de
	ld	e, (hl)
	inc	hl
	ld	d, (hl)
	ld	l, -7 (ix)
;	spillPairReg hl
;	spillPairReg hl
	ld	h, #0x00
;	spillPairReg hl
;	spillPairReg hl
	push	hl
	pop	iy
	push	bc
	ld	c, -11 (ix)
	ld	b, -10 (ix)
	add	iy, bc
	pop	bc
	ld	l, -9 (ix)
	ld	h, -8 (ix)
	ld	b, (hl)
	push	bc
	push	de
	push	iy
	pop	de
	ld	a, b
	call	_CallSpriteFrame
	pop	bc
00252$:
	inc	c
	jp	00251$
00255$:
;E:\Dropbox\FAUSTO\SVILUPPI\MSX\CODE\C\MSXgl\projects\soccerlgMSX2/soccerlg_s12_b3.c:150: for (u16 page = 0; page <= 512; page += 256) {
	ld	c, -11 (ix)
	ld	e, -10 (ix)
	ld	a, e
	inc	a
	ld	-11 (ix), c
	ld	-10 (ix), a
	jp	00254$
;E:\Dropbox\FAUSTO\SVILUPPI\MSX\CODE\C\MSXgl\projects\soccerlgMSX2/soccerlg_s12_b3.c:160: for (u8 i = 0; i < NumSprite; i++) {
00351$:
	ld	-1 (ix), #0x00
00257$:
	ld	a, -1 (ix)
	sub	a, #0x27
	jr	NC, 00186$
;E:\Dropbox\FAUSTO\SVILUPPI\MSX\CODE\C\MSXgl\projects\soccerlgMSX2/soccerlg_s12_b3.c:161: SwSprite[i].x0 = SwSprite[i].x1 = SwSprite[i].x2 = SwSprite[i].lx;
	ld	c, -1 (ix)
	ld	b, #0x00
	ld	l, c
	ld	h, b
	add	hl, hl
	add	hl, hl
	add	hl, bc
	add	hl, hl
	add	hl, bc
	add	hl, hl
	add	hl, bc
	ex	de, hl
	ld	hl, #_SwSprite
	add	hl, de
	ex	de, hl
	ld	c, e
	ld	b, d
	inc	bc
	ld	hl, #0x0002
	add	hl, de
	ld	-7 (ix), l
	ld	-6 (ix), h
	ld	l, e
;	spillPairReg hl
;	spillPairReg hl
	ld	h, d
;	spillPairReg hl
;	spillPairReg hl
	inc	hl
	inc	hl
	inc	hl
	ld	a, (de)
	ld	(hl), a
	ld	l, -7 (ix)
	ld	h, -6 (ix)
	ld	(hl), a
	ld	(bc), a
;E:\Dropbox\FAUSTO\SVILUPPI\MSX\CODE\C\MSXgl\projects\soccerlgMSX2/soccerlg_s12_b3.c:162: SwSprite[i].y0 = SwSprite[i].y1 = SwSprite[i].y2 = SwSprite[i].ly;
	ld	hl, #0x0006
	add	hl, de
	ld	c, l
	ld	b, h
	ld	hl, #0x0008
	add	hl, de
	ld	-9 (ix), l
	ld	-8 (ix), h
	ld	hl, #0x000a
	add	hl, de
	ld	-7 (ix), l
	ld	-6 (ix), h
	ld	hl, #4
	add	hl, de
	ld	e, (hl)
	inc	hl
	ld	d, (hl)
	ld	l, -7 (ix)
	ld	h, -6 (ix)
	ld	(hl), e
	inc	hl
	ld	(hl), d
	ld	l, -9 (ix)
	ld	h, -8 (ix)
	ld	(hl), e
	inc	hl
	ld	(hl), d
	ld	a, e
	ld	(bc), a
	inc	bc
	ld	a, d
	ld	(bc), a
;E:\Dropbox\FAUSTO\SVILUPPI\MSX\CODE\C\MSXgl\projects\soccerlgMSX2/soccerlg_s12_b3.c:160: for (u8 i = 0; i < NumSprite; i++) {
	inc	-1 (ix)
	jp	00257$
00186$:
;E:\Dropbox\FAUSTO\SVILUPPI\MSX\CODE\C\MSXgl\projects\soccerlgMSX2/soccerlg_s12_b3.c:166: CallFnc_VOID_U8U16U16(SEG_DRAW, PrintScoreBoardLeft, ScoreBoardLeft.lx, Field.ly, 0);
	ld	bc, (#(_Field + 4) + 0)
	ld	a, (#_ScoreBoardLeft + 0)
	ld	hl, #0x0000
	push	hl
	push	bc
	push	af
	inc	sp
	ld	de, #_PrintScoreBoardLeft
	ld	a, #0x05
	call	_CallFnc_VOID_U8U16U16
;E:\Dropbox\FAUSTO\SVILUPPI\MSX\CODE\C\MSXgl\projects\soccerlgMSX2/soccerlg_s12_b3.c:167: CallFnc_VOID_U8U16U16(SEG_DRAW, PrintScoreBoardRight, ScoreBoardRight.lx, Field.ly, 0);
	ld	bc, (#(_Field + 4) + 0)
	ld	a, (#_ScoreBoardRight + 0)
	ld	hl, #0x0000
	push	hl
	push	bc
	push	af
	inc	sp
	ld	de, #_PrintScoreBoardRight
	ld	a, #0x05
	call	_CallFnc_VOID_U8U16U16
;E:\Dropbox\FAUSTO\SVILUPPI\MSX\CODE\C\MSXgl\projects\soccerlgMSX2/soccerlg_s12_b3.c:168: CallFnc_VOID_U8U16U16(SEG_DRAW, PrintScoreBoardLeft, ScoreBoardLeft.lx, Field.ly, 256);
	ld	bc, (#(_Field + 4) + 0)
	ld	a, (#_ScoreBoardLeft + 0)
	ld	hl, #0x0100
	push	hl
	push	bc
	push	af
	inc	sp
	ld	de, #_PrintScoreBoardLeft
	ld	a, #0x05
	call	_CallFnc_VOID_U8U16U16
;E:\Dropbox\FAUSTO\SVILUPPI\MSX\CODE\C\MSXgl\projects\soccerlgMSX2/soccerlg_s12_b3.c:169: CallFnc_VOID_U8U16U16(SEG_DRAW, PrintScoreBoardRight, ScoreBoardRight.lx, Field.ly, 256);
	ld	bc, (#(_Field + 4) + 0)
	ld	a, (#_ScoreBoardRight + 0)
	ld	hl, #0x0100
	push	hl
	push	bc
	push	af
	inc	sp
	ld	de, #_PrintScoreBoardRight
	ld	a, #0x05
	call	_CallFnc_VOID_U8U16U16
;E:\Dropbox\FAUSTO\SVILUPPI\MSX\CODE\C\MSXgl\projects\soccerlgMSX2/soccerlg_s12_b3.c:170: CallFnc_VOID_U8U16U16(SEG_DRAW, PrintScoreBoardLeft, ScoreBoardLeft.lx, Field.ly, 512);
	ld	bc, (#(_Field + 4) + 0)
	ld	a, (#_ScoreBoardLeft + 0)
	ld	hl, #0x0200
	push	hl
	push	bc
	push	af
	inc	sp
	ld	de, #_PrintScoreBoardLeft
	ld	a, #0x05
	call	_CallFnc_VOID_U8U16U16
;E:\Dropbox\FAUSTO\SVILUPPI\MSX\CODE\C\MSXgl\projects\soccerlgMSX2/soccerlg_s12_b3.c:171: CallFnc_VOID_U8U16U16(SEG_DRAW, PrintScoreBoardRight, ScoreBoardRight.lx, Field.ly, 512);
	ld	bc, (#(_Field + 4) + 0)
	ld	a, (#_ScoreBoardRight + 0)
	ld	hl, #0x0200
	push	hl
	push	bc
	push	af
	inc	sp
	ld	de, #_PrintScoreBoardRight
	ld	a, #0x05
	call	_CallFnc_VOID_U8U16U16
	jp	00190$
00189$:
;E:\Dropbox\FAUSTO\SVILUPPI\MSX\CODE\C\MSXgl\projects\soccerlgMSX2/soccerlg_s12_b3.c:176: struct ObjectInfo* Ball = &SwSprite[14];
;E:\Dropbox\FAUSTO\SVILUPPI\MSX\CODE\C\MSXgl\projects\soccerlgMSX2/soccerlg_s12_b3.c:177: CallFnc_VOID_U8U16U16(SEG_DRAW, RemoveSwSprite, Ball->x0, Ball->y0, 0);
	ld	bc, (#(_SwSprite + 322) + 6)
	ld	a, (#(_SwSprite + 322) + 1)
	ld	hl, #0x0000
	push	hl
	push	bc
	push	af
	inc	sp
	ld	de, #_RemoveSwSprite
	ld	a, #0x05
	call	_CallFnc_VOID_U8U16U16
;E:\Dropbox\FAUSTO\SVILUPPI\MSX\CODE\C\MSXgl\projects\soccerlgMSX2/soccerlg_s12_b3.c:178: CallFnc_VOID_U8U16U16(SEG_DRAW, RemoveSwSprite, Ball->x1, Ball->y1, 256);
	ld	bc, (#(_SwSprite + 322) + 8)
	ld	a, (#(_SwSprite + 322) + 2)
	ld	hl, #0x0100
	push	hl
	push	bc
	push	af
	inc	sp
	ld	de, #_RemoveSwSprite
	ld	a, #0x05
	call	_CallFnc_VOID_U8U16U16
;E:\Dropbox\FAUSTO\SVILUPPI\MSX\CODE\C\MSXgl\projects\soccerlgMSX2/soccerlg_s12_b3.c:179: CallFnc_VOID_U8U16U16(SEG_DRAW, RemoveSwSprite, Ball->x2, Ball->y2, 512);
	ld	bc, (#(_SwSprite + 322) + 10)
	ld	a, (#(_SwSprite + 322) + 3)
	ld	hl, #0x0200
	push	hl
	push	bc
	push	af
	inc	sp
	ld	de, #_RemoveSwSprite
	ld	a, #0x05
	call	_CallFnc_VOID_U8U16U16
;E:\Dropbox\FAUSTO\SVILUPPI\MSX\CODE\C\MSXgl\projects\soccerlgMSX2/soccerlg_s12_b3.c:182: CallFnc_VOID_U8U16U16(SEG_DRAW, RemoveSwSprite, SwSprite[24].x0, SwSprite[24].y0, 0);
	ld	bc, (#_SwSprite + 558)
	ld	a, (#_SwSprite + 553)
	ld	hl, #0x0000
	push	hl
	push	bc
	push	af
	inc	sp
	ld	de, #_RemoveSwSprite
	ld	a, #0x05
	call	_CallFnc_VOID_U8U16U16
;E:\Dropbox\FAUSTO\SVILUPPI\MSX\CODE\C\MSXgl\projects\soccerlgMSX2/soccerlg_s12_b3.c:183: CallFnc_VOID_U8U16U16(SEG_DRAW, RemoveSwSprite, SwSprite[24].x1, SwSprite[24].y1, 256);
	ld	bc, (#_SwSprite + 560)
	ld	a, (#_SwSprite + 554)
	ld	hl, #0x0100
	push	hl
	push	bc
	push	af
	inc	sp
	ld	de, #_RemoveSwSprite
	ld	a, #0x05
	call	_CallFnc_VOID_U8U16U16
;E:\Dropbox\FAUSTO\SVILUPPI\MSX\CODE\C\MSXgl\projects\soccerlgMSX2/soccerlg_s12_b3.c:184: CallFnc_VOID_U8U16U16(SEG_DRAW, RemoveSwSprite, SwSprite[24].x2, SwSprite[24].y2, 512);
	ld	bc, (#_SwSprite + 562)
	ld	a, (#_SwSprite + 555)
	ld	hl, #0x0200
	push	hl
	push	bc
	push	af
	inc	sp
	ld	de, #_RemoveSwSprite
	ld	a, #0x05
	call	_CallFnc_VOID_U8U16U16
;E:\Dropbox\FAUSTO\SVILUPPI\MSX\CODE\C\MSXgl\projects\soccerlgMSX2/soccerlg_s12_b3.c:185: CallFnc_VOID_U8U16U16(SEG_DRAW, RemoveSwSprite, SwSprite[25].x0, SwSprite[25].y0, 0);
	ld	bc, (#_SwSprite + 581)
	ld	a, (#_SwSprite + 576)
	ld	hl, #0x0000
	push	hl
	push	bc
	push	af
	inc	sp
	ld	de, #_RemoveSwSprite
	ld	a, #0x05
	call	_CallFnc_VOID_U8U16U16
;E:\Dropbox\FAUSTO\SVILUPPI\MSX\CODE\C\MSXgl\projects\soccerlgMSX2/soccerlg_s12_b3.c:186: CallFnc_VOID_U8U16U16(SEG_DRAW, RemoveSwSprite, SwSprite[25].x1, SwSprite[25].y1, 256);
	ld	bc, (#_SwSprite + 583)
	ld	a, (#_SwSprite + 577)
	ld	hl, #0x0100
	push	hl
	push	bc
	push	af
	inc	sp
	ld	de, #_RemoveSwSprite
	ld	a, #0x05
	call	_CallFnc_VOID_U8U16U16
;E:\Dropbox\FAUSTO\SVILUPPI\MSX\CODE\C\MSXgl\projects\soccerlgMSX2/soccerlg_s12_b3.c:187: CallFnc_VOID_U8U16U16(SEG_DRAW, RemoveSwSprite, SwSprite[25].x2, SwSprite[25].y2, 512);
	ld	bc, (#_SwSprite + 585)
	ld	a, (#_SwSprite + 578)
	ld	hl, #0x0200
	push	hl
	push	bc
	push	af
	inc	sp
	ld	de, #_RemoveSwSprite
	ld	a, #0x05
	call	_CallFnc_VOID_U8U16U16
;E:\Dropbox\FAUSTO\SVILUPPI\MSX\CODE\C\MSXgl\projects\soccerlgMSX2/soccerlg_s12_b3.c:190: CallSpriteFrame(Ball->lx, (Ball->ly & 255) + 0,   Ball->frame);
	ld	bc, (#(_SwSprite + 337) + 0)
	ld	de, (#(_SwSprite + 326) + 0)
	ld	d, #0x00
	ld	hl, #(_SwSprite + 322)
	ld	l, (hl)
;	spillPairReg hl
	push	bc
	ld	a, l
	call	_CallSpriteFrame
;E:\Dropbox\FAUSTO\SVILUPPI\MSX\CODE\C\MSXgl\projects\soccerlgMSX2/soccerlg_s12_b3.c:191: CallSpriteFrame(Ball->lx, (Ball->ly & 255) + 256, Ball->frame);
	ld	bc, (#(_SwSprite + 337) + 0)
	ld	hl, (#(_SwSprite + 326) + 0)
	ld	h, #0x00
;	spillPairReg hl
;	spillPairReg hl
	ld	e, l
	ld	a, h
	inc	a
	ld	d, a
	ld	hl, #(_SwSprite + 322)
	ld	l, (hl)
;	spillPairReg hl
	push	bc
	ld	a, l
	call	_CallSpriteFrame
;E:\Dropbox\FAUSTO\SVILUPPI\MSX\CODE\C\MSXgl\projects\soccerlgMSX2/soccerlg_s12_b3.c:192: CallSpriteFrame(Ball->lx, (Ball->ly & 255) + 512, Ball->frame);
	ld	bc, (#(_SwSprite + 337) + 0)
	ld	hl, (#(_SwSprite + 326) + 0)
	ld	h, #0x00
;	spillPairReg hl
;	spillPairReg hl
	ld	e, l
	ld	a, h
	add	a, #0x02
	ld	d, a
	ld	hl, #(_SwSprite + 322)
	ld	l, (hl)
;	spillPairReg hl
	push	bc
	ld	a, l
	call	_CallSpriteFrame
;E:\Dropbox\FAUSTO\SVILUPPI\MSX\CODE\C\MSXgl\projects\soccerlgMSX2/soccerlg_s12_b3.c:193: for (u8 i = 0; i < NumSprite; i++) {
	ld	c, #0x00
00260$:
	ld	a, c
	sub	a, #0x27
	jr	NC, 00190$
;E:\Dropbox\FAUSTO\SVILUPPI\MSX\CODE\C\MSXgl\projects\soccerlgMSX2/soccerlg_s12_b3.c:194: SwSprite[i].x0 = SwSprite[i].x1 = SwSprite[i].x2 = SwSprite[i].lx;
	ld	b, #0x00
	ld	l, c
	ld	h, b
	add	hl, hl
	add	hl, hl
	add	hl, bc
	add	hl, hl
	add	hl, bc
	add	hl, hl
	add	hl, bc
	ld	de, #_SwSprite
	add	hl, de
	ld	e, l
	ld	d, h
	inc	hl
	ld	-9 (ix), l
	ld	-8 (ix), h
	ld	hl, #0x0002
	add	hl, de
	ld	-7 (ix), l
	ld	-6 (ix), h
	ld	l, e
;	spillPairReg hl
;	spillPairReg hl
	ld	h, d
;	spillPairReg hl
;	spillPairReg hl
	inc	hl
	inc	hl
	inc	hl
	ld	a, (de)
	ld	(hl), a
	ld	l, -7 (ix)
	ld	h, -6 (ix)
	ld	(hl), a
	ld	l, -9 (ix)
	ld	h, -8 (ix)
	ld	(hl), a
;E:\Dropbox\FAUSTO\SVILUPPI\MSX\CODE\C\MSXgl\projects\soccerlgMSX2/soccerlg_s12_b3.c:195: SwSprite[i].y0 = SwSprite[i].y1 = SwSprite[i].y2 = SwSprite[i].ly;
	ld	hl, #0x0006
	add	hl, de
	ld	-11 (ix), l
	ld	-10 (ix), h
	ld	hl, #0x0008
	add	hl, de
	ld	-9 (ix), l
	ld	-8 (ix), h
	ld	hl, #0x000a
	add	hl, de
	ld	-7 (ix), l
	ld	-6 (ix), h
	ld	hl, #4
	add	hl, de
	ld	e, (hl)
	inc	hl
	ld	d, (hl)
	ld	l, -7 (ix)
	ld	h, -6 (ix)
	ld	(hl), e
	inc	hl
	ld	(hl), d
	ld	l, -9 (ix)
	ld	h, -8 (ix)
	ld	(hl), e
	inc	hl
	ld	(hl), d
	ld	l, -11 (ix)
	ld	h, -10 (ix)
	ld	(hl), e
	inc	hl
	ld	(hl), d
;E:\Dropbox\FAUSTO\SVILUPPI\MSX\CODE\C\MSXgl\projects\soccerlgMSX2/soccerlg_s12_b3.c:193: for (u8 i = 0; i < NumSprite; i++) {
	inc	c
	jp	00260$
00190$:
;E:\Dropbox\FAUSTO\SVILUPPI\MSX\CODE\C\MSXgl\projects\soccerlgMSX2/soccerlg_s12_b3.c:199: *game_state = 2; // Riparte la coreografia di schieramento
	ld	l, -3 (ix)
	ld	h, -2 (ix)
	ld	(hl), #0x02
;E:\Dropbox\FAUSTO\SVILUPPI\MSX\CODE\C\MSXgl\projects\soccerlgMSX2/soccerlg_s12_b3.c:200: if (RestartType == RESTART_GOAL) RestartType = RESTART_KICKOFF_SCROLL;
	ld	a, (_RestartType+0)
	sub	a, #0x05
	jr	NZ, 00196$
	ld	iy, #_RestartType
	ld	0 (iy), #0x06
00196$:
;E:\Dropbox\FAUSTO\SVILUPPI\MSX\CODE\C\MSXgl\projects\soccerlgMSX2/soccerlg_s12_b3.c:203: *start_sec = Frms;
	ld	l, -14 (ix)
	ld	h, -13 (ix)
	ld	a, (_Frms+0)
	ld	(hl), a
	jp	00262$
00215$:
;E:\Dropbox\FAUSTO\SVILUPPI\MSX\CODE\C\MSXgl\projects\soccerlgMSX2/soccerlg_s12_b3.c:205: } else if (*game_state >= 9 && *game_state <= 11) {
	ld	a, c
	sub	a, #0x09
	jr	C, 00211$
	ld	a, #0x0b
	sub	a, c
	jr	C, 00211$
;E:\Dropbox\FAUSTO\SVILUPPI\MSX\CODE\C\MSXgl\projects\soccerlgMSX2/soccerlg_s12_b3.c:206: CallFnc_VOID_3PTR_U16(SEG_GAMESTATE_10, UpdateGameState_Celebrations, game_state, wait_secs, start_sec, target_ly);
	ld	l, 6 (ix)
;	spillPairReg hl
;	spillPairReg hl
	ld	h, 7 (ix)
;	spillPairReg hl
;	spillPairReg hl
	push	hl
	ld	l, 4 (ix)
;	spillPairReg hl
;	spillPairReg hl
	ld	h, 5 (ix)
;	spillPairReg hl
;	spillPairReg hl
	push	hl
	ld	l, -5 (ix)
;	spillPairReg hl
;	spillPairReg hl
	ld	h, -4 (ix)
;	spillPairReg hl
;	spillPairReg hl
	push	hl
	ld	l, -3 (ix)
;	spillPairReg hl
;	spillPairReg hl
	ld	h, -2 (ix)
;	spillPairReg hl
;	spillPairReg hl
	push	hl
	ld	de, #_UpdateGameState_Celebrations
	ld	a, #0x16
	call	_CallFnc_VOID_3PTR_U16
;E:\Dropbox\FAUSTO\SVILUPPI\MSX\CODE\C\MSXgl\projects\soccerlgMSX2/soccerlg_s12_b3.c:207: return;
	jp	00262$
00211$:
;E:\Dropbox\FAUSTO\SVILUPPI\MSX\CODE\C\MSXgl\projects\soccerlgMSX2/soccerlg_s12_b3.c:208: } else if (*game_state == 7 || *game_state == 8) {
	ld	a,c
	cp	a,#0x07
	jr	Z, 00206$
	sub	a, #0x08
	jr	NZ, 00207$
00206$:
;E:\Dropbox\FAUSTO\SVILUPPI\MSX\CODE\C\MSXgl\projects\soccerlgMSX2/soccerlg_s12_b3.c:209: CallFnc_VOID_3PTR_U16(SEG_GAMESTATE_5, UpdateGameState_SetPieces, game_state, wait_secs, start_sec, target_ly);
	ld	l, 6 (ix)
;	spillPairReg hl
;	spillPairReg hl
	ld	h, 7 (ix)
;	spillPairReg hl
;	spillPairReg hl
	push	hl
	ld	l, 4 (ix)
;	spillPairReg hl
;	spillPairReg hl
	ld	h, 5 (ix)
;	spillPairReg hl
;	spillPairReg hl
	push	hl
	ld	l, -5 (ix)
;	spillPairReg hl
;	spillPairReg hl
	ld	h, -4 (ix)
;	spillPairReg hl
;	spillPairReg hl
	push	hl
	ld	l, -3 (ix)
;	spillPairReg hl
;	spillPairReg hl
	ld	h, -2 (ix)
;	spillPairReg hl
;	spillPairReg hl
	push	hl
	ld	de, #_UpdateGameState_SetPieces
	ld	a, #0x0f
	call	_CallFnc_VOID_3PTR_U16
;E:\Dropbox\FAUSTO\SVILUPPI\MSX\CODE\C\MSXgl\projects\soccerlgMSX2/soccerlg_s12_b3.c:210: return;
	jp	00262$
00207$:
;E:\Dropbox\FAUSTO\SVILUPPI\MSX\CODE\C\MSXgl\projects\soccerlgMSX2/soccerlg_s12_b3.c:211: } else if (*game_state >= 12 && *game_state <= 14) {
	ld	a, c
	sub	a, #0x0c
	jr	C, 00203$
	ld	a, #0x0e
	sub	a, c
	jr	C, 00203$
;E:\Dropbox\FAUSTO\SVILUPPI\MSX\CODE\C\MSXgl\projects\soccerlgMSX2/soccerlg_s12_b3.c:212: CallFnc_VOID_3PTR_U16(SEG_GAMESTATE_6, UpdateGameState_Penalties, game_state, wait_secs, start_sec, target_ly);
	ld	l, 6 (ix)
;	spillPairReg hl
;	spillPairReg hl
	ld	h, 7 (ix)
;	spillPairReg hl
;	spillPairReg hl
	push	hl
	ld	l, 4 (ix)
;	spillPairReg hl
;	spillPairReg hl
	ld	h, 5 (ix)
;	spillPairReg hl
;	spillPairReg hl
	push	hl
	ld	l, -5 (ix)
;	spillPairReg hl
;	spillPairReg hl
	ld	h, -4 (ix)
;	spillPairReg hl
;	spillPairReg hl
	push	hl
	ld	l, -3 (ix)
;	spillPairReg hl
;	spillPairReg hl
	ld	h, -2 (ix)
;	spillPairReg hl
;	spillPairReg hl
	push	hl
	ld	de, #_UpdateGameState_Penalties
	ld	a, #0x10
	call	_CallFnc_VOID_3PTR_U16
;E:\Dropbox\FAUSTO\SVILUPPI\MSX\CODE\C\MSXgl\projects\soccerlgMSX2/soccerlg_s12_b3.c:213: return;
	jp	00262$
00203$:
;E:\Dropbox\FAUSTO\SVILUPPI\MSX\CODE\C\MSXgl\projects\soccerlgMSX2/soccerlg_s12_b3.c:214: } else if (*game_state >= 15 && *game_state <= 17) {
	ld	a, c
	sub	a, #0x0f
	jr	C, 00262$
	ld	a, #0x11
	sub	a, c
	jr	C, 00262$
;E:\Dropbox\FAUSTO\SVILUPPI\MSX\CODE\C\MSXgl\projects\soccerlgMSX2/soccerlg_s12_b3.c:216: SwSprite[38].lx = PENALTY_DISH_X; SwSprite[38].frame = SPR_BIG_PENALTY_DISH;
	ld	hl, #(_SwSprite + 874)
	ld	(hl), #0x78
	ld	hl, #0x006d
	ld	((_SwSprite + 889)), hl
;E:\Dropbox\FAUSTO\SVILUPPI\MSX\CODE\C\MSXgl\projects\soccerlgMSX2/soccerlg_s12_b3.c:217: SwSprite[38].ly = (SwSprite[14].lx == PENALTY_DISH_X && SwSprite[14].ly == PENALTY_NORTH_Y) ? 1000 : PENALTY_NORTH_Y;
	ld	de, #_SwSprite + 878
	ld	a, (#_SwSprite + 322)
	sub	a, #0x78
	jr	NZ, 00273$
	ld	hl, (#_SwSprite + 326)
	ld	a, l
	sub	a, #0x4a
	or	a, h
	jr	NZ, 00273$
	ld	bc, #0x03e8
	jp	00274$
00273$:
	ld	bc, #0x004a
00274$:
	ld	a, c
	ld	(de), a
	inc	de
	ld	a, b
	ld	(de), a
;E:\Dropbox\FAUSTO\SVILUPPI\MSX\CODE\C\MSXgl\projects\soccerlgMSX2/soccerlg_s12_b3.c:218: CallFnc_VOID_3PTR_U16(SEG_GAMESTATE_5, UpdateGameState_Penalties_End, game_state, wait_secs, start_sec, target_ly);
	ld	l, 6 (ix)
;	spillPairReg hl
;	spillPairReg hl
	ld	h, 7 (ix)
;	spillPairReg hl
;	spillPairReg hl
	push	hl
	ld	l, 4 (ix)
;	spillPairReg hl
;	spillPairReg hl
	ld	h, 5 (ix)
;	spillPairReg hl
;	spillPairReg hl
	push	hl
	ld	l, -5 (ix)
;	spillPairReg hl
;	spillPairReg hl
	ld	h, -4 (ix)
;	spillPairReg hl
;	spillPairReg hl
	push	hl
	ld	l, -3 (ix)
;	spillPairReg hl
;	spillPairReg hl
	ld	h, -2 (ix)
;	spillPairReg hl
;	spillPairReg hl
	push	hl
	ld	de, #_UpdateGameState_Penalties_End
	ld	a, #0x0f
	call	_CallFnc_VOID_3PTR_U16
;E:\Dropbox\FAUSTO\SVILUPPI\MSX\CODE\C\MSXgl\projects\soccerlgMSX2/soccerlg_s12_b3.c:219: return;
00262$:
;E:\Dropbox\FAUSTO\SVILUPPI\MSX\CODE\C\MSXgl\projects\soccerlgMSX2/soccerlg_s12_b3.c:221: }
	ld	sp, ix
	pop	ix
	pop	hl
	pop	af
	pop	af
	jp	(hl)
_g_RDPRIM	=	0xf380
_g_WRPRIM	=	0xf385
_g_CLPRIM	=	0xf38c
_g_USRTAB	=	0xf39a
_g_CNSDFG	=	0xf3de
_g_RG0SAV	=	0xf3df
_g_RG1SAV	=	0xf3e0
_g_RG2SAV	=	0xf3e1
_g_RG3SAV	=	0xf3e2
_g_RG4SAV	=	0xf3e3
_g_RG5SAV	=	0xf3e4
_g_RG6SAV	=	0xf3e5
_g_RG7SAV	=	0xf3e6
_g_STATFL	=	0xf3e7
_g_TRGFLG	=	0xf3e8
_g_MAXUPD	=	0xf3ec
_g_MINUPD	=	0xf3ef
_g_QUEUES	=	0xf3f3
_g_FRCNEW	=	0xf3f5
_g_SCNCNT	=	0xf3f6
_g_REPCNT	=	0xf3f7
_g_PUTPNT	=	0xf3f8
_g_GETPNT	=	0xf3fa
_g_CS120	=	0xf3fc
_g_CS240	=	0xf401
_g_LOW	=	0xf406
_g_HIGH	=	0xf408
_g_HEADER	=	0xf40a
_g_ASPCT1	=	0xf40b
_g_ASPCT2	=	0xf40d
_g_QUETAB	=	0xf959
_g_QUEBAK	=	0xf971
_g_VOICAQ	=	0xf975
_g_VOICBQ	=	0xf9f5
_g_VOICCQ	=	0xfa75
_g_RS2IQ	=	0xfaf5
_g_DPPAGE	=	0xfaf5
_g_ACPAGE	=	0xfaf6
_g_AVCSAV	=	0xfaf7
_g_EXBRSA	=	0xfaf8
_g_CHRCNT	=	0xfaf9
_g_ROMA	=	0xfafa
_g_MODE	=	0xfafc
_g_NORUSE	=	0xfafd
_g_XSAVE	=	0xfafe
_g_YSAVE	=	0xfb00
_g_RSTMP	=	0xfb03
_g_TOCNT	=	0xfb03
_g_RSFCB	=	0xfb04
_g_RSIQLN	=	0xfb06
_g_MEXBIh	=	0xfb07
_g_OLDSTT	=	0xfb0c
_g_OLDINT	=	0xfb0c
_g_DEVNUM	=	0xfb16
_g_DATCNT	=	0xfb17
_g_ERRORS	=	0xfb1a
_g_FLAGS	=	0xfb1b
_g_ESTBLS	=	0xfb1c
_g_COMMSK	=	0xfb1d
_g_LSTCOM	=	0xfb1e
_g_LSTMOD	=	0xfb1f
_g_PRSCNT	=	0xfb35
_g_SAVSP	=	0xfb36
_g_VOICEN	=	0xfb38
_g_SAVVOL	=	0xfb39
_g_MCLLEN	=	0xfb3b
_g_MCLPTR	=	0xfb3c
_g_QUEUEN	=	0xfb3e
_g_MUSICF	=	0xfb3f
_g_PLYCNT	=	0xfb40
_g_VCBA	=	0xfb41
_g_VCBB	=	0xfb66
_g_VCBC	=	0xfb8b
_g_ENSTOP	=	0xfbb0
_g_BASROM	=	0xfbb1
_g_LINTTB	=	0xfbb2
_g_FSTPOS	=	0xfbca
_g_CODSAV	=	0xfbcc
_g_FNKSWI	=	0xfbcd
_g_FNKFLG	=	0xfbce
_g_ONGSBF	=	0xfbd8
_g_CLIKFL	=	0xfbd9
_g_OLDKEY	=	0xfbda
_g_NEWKEY	=	0xfbe5
_g_KEYBUF	=	0xfbf0
_g_LINWRK	=	0xfc18
_g_PATWRK	=	0xfc40
_g_BOTTOM	=	0xfc48
_g_HIMEM	=	0xfc4a
_g_TRPTBL	=	0xfc4c
_g_RTYCNT	=	0xfc9a
_g_INTFLG	=	0xfc9b
_g_PADY	=	0xfc9c
_g_PADX	=	0xfc9d
_g_JIFFY	=	0xfc9e
_g_INTVAL	=	0xfca0
_g_INTCNT	=	0xfca2
_g_LOWLIM	=	0xfca4
_g_WINWID	=	0xfca5
_g_GRPHED	=	0xfca6
_g_ESCCNT	=	0xfca7
_g_INSFLG	=	0xfca8
_g_CSRSW	=	0xfca9
_g_CSTYLE	=	0xfcaa
_g_CAPST	=	0xfcab
_g_KANAST	=	0xfcac
_g_KANAMD	=	0xfcad
_g_FLBMEM	=	0xfcae
_g_SCRMOD	=	0xfcaf
_g_OLDSCR	=	0xfcb0
_g_CASPRV	=	0xfcb1
_g_BRDATR	=	0xfcb2
_g_GXPOS	=	0xfcb3
_g_GYPOS	=	0xfcb5
_g_DRWFLG	=	0xfcbb
_g_DRWSCL	=	0xfcbc
_g_DRWANG	=	0xfcbd
_g_MNROM	=	0xfcc1
_g_EXPTBL	=	0xfcc1
_g_SLTTBL	=	0xfcc5
_g_SLTATR	=	0xfcc9
_g_SLTWRK	=	0xfd09
_g_PROCNM	=	0xfd89
_g_RG08SAV	=	0xffe7
_g_RG09SAV	=	0xffe8
_g_RG10SAV	=	0xffe9
_g_RG11SAV	=	0xffea
_g_RG12SAV	=	0xffeb
_g_RG13SAV	=	0xffec
_g_RG14SAV	=	0xffed
_g_RG15SAV	=	0xffee
_g_RG16SAV	=	0xffef
_g_RG17SAV	=	0xfff0
_g_RG18SAV	=	0xfff1
_g_RG19SAV	=	0xfff2
_g_RG20SAV	=	0xfff3
_g_RG21SAV	=	0xfff4
_g_RG22SAV	=	0xfff5
_g_RG23SAV	=	0xfff6
_g_MINROM	=	0xfff7
_g_SVFFF8	=	0xfff8
_g_RG25SAV	=	0xfffa
_g_RG26SAV	=	0xfffb
_g_RG27SAV	=	0xfffc
_g_SVFFFD	=	0xfffd
_g_CGTABL	=	0x0004
_g_VDP_DR	=	0x0006
_g_VDP_DW	=	0x0007
_g_BASRVN	=	0x002b
_g_ROMVersion	=	0x002b
_g_MSXVER	=	0x002d
_g_MSXMID	=	0x002e
_g_CHAR_16	=	0x0034
_g_SUBRID	=	0x0000
_g_STRSRC	=	0x0002
_g_KANJTABLE	=	0xf30f
_g_DISKVE	=	0xf323
_g_BREAKV	=	0xf325
_g_RAMAD0	=	0xf341
_g_RAMAD1	=	0xf342
_g_RAMAD2	=	0xf343
_g_RAMAD3	=	0xf344
_g_MASTER	=	0xf348
_g_BDOS	=	0xf37d
	.area _SEG12
	.area _INITIALIZER
	.area _CABS (ABS)
