                                      1 ;--------------------------------------------------------
                                      2 ; File Created by SDCC : free open source ANSI-C Compiler
                                      3 ; Version 4.2.0 #13081 (MINGW64)
                                      4 ;--------------------------------------------------------
                                      5 	.module soccerlg_s16_b3
                                      6 	.optsdcc -mz80
                                      7 	
                                      8 ;--------------------------------------------------------
                                      9 ; Public variables in this module
                                     10 ;--------------------------------------------------------
                                     11 	.globl _GetPlayerIdleFrame
                                     12 	.globl _GetPlayerAnimFrame
                                     13 	.globl _EventPenaltyWhistle
                                     14 	.globl _CallFnc_U16_P4
                                     15 	.globl _CallFnc_U16_P3
                                     16 	.globl _CallFnc_VOID
                                     17 	.globl _g_SLTSL
                                     18 	.globl _g_GRPACY
                                     19 	.globl _g_GRPACX
                                     20 	.globl _g_LOGOPR
                                     21 	.globl _g_CMASK
                                     22 	.globl _g_CLOC
                                     23 	.globl _g_FNKSTR
                                     24 	.globl _g_ATRBYT
                                     25 	.globl _g_BDRCLR
                                     26 	.globl _g_BAKCLR
                                     27 	.globl _g_FORCLR
                                     28 	.globl _g_CSRX
                                     29 	.globl _g_CSRY
                                     30 	.globl _g_CLIKSW
                                     31 	.globl _g_MLTPAT
                                     32 	.globl _g_MLTATR
                                     33 	.globl _g_MLTCGP
                                     34 	.globl _g_MLTCOL
                                     35 	.globl _g_MLTNAM
                                     36 	.globl _g_GRPPAT
                                     37 	.globl _g_GRPATR
                                     38 	.globl _g_GRPCGP
                                     39 	.globl _g_GRPCOL
                                     40 	.globl _g_GRPNAM
                                     41 	.globl _g_T32PAT
                                     42 	.globl _g_T32ATR
                                     43 	.globl _g_T32CGP
                                     44 	.globl _g_T32COL
                                     45 	.globl _g_T32NAM
                                     46 	.globl _g_TXTPAT
                                     47 	.globl _g_TXTATR
                                     48 	.globl _g_TXTCGP
                                     49 	.globl _g_TXTCOL
                                     50 	.globl _g_TXTNAM
                                     51 	.globl _g_CLMLST
                                     52 	.globl _g_CRTCNT
                                     53 	.globl _g_LINLEN
                                     54 	.globl _g_LINL32
                                     55 	.globl _g_LINL40
                                     56 	.globl _g_BDOS
                                     57 	.globl _g_MASTER
                                     58 	.globl _g_RAMAD3
                                     59 	.globl _g_RAMAD2
                                     60 	.globl _g_RAMAD1
                                     61 	.globl _g_RAMAD0
                                     62 	.globl _g_BREAKV
                                     63 	.globl _g_DISKVE
                                     64 	.globl _g_KANJTABLE
                                     65 	.globl _g_STRSRC
                                     66 	.globl _g_SUBRID
                                     67 	.globl _g_CHAR_16
                                     68 	.globl _g_MSXMID
                                     69 	.globl _g_MSXVER
                                     70 	.globl _g_ROMVersion
                                     71 	.globl _g_BASRVN
                                     72 	.globl _g_VDP_DW
                                     73 	.globl _g_VDP_DR
                                     74 	.globl _g_CGTABL
                                     75 	.globl _g_SVFFFD
                                     76 	.globl _g_RG27SAV
                                     77 	.globl _g_RG26SAV
                                     78 	.globl _g_RG25SAV
                                     79 	.globl _g_SVFFF8
                                     80 	.globl _g_MINROM
                                     81 	.globl _g_RG23SAV
                                     82 	.globl _g_RG22SAV
                                     83 	.globl _g_RG21SAV
                                     84 	.globl _g_RG20SAV
                                     85 	.globl _g_RG19SAV
                                     86 	.globl _g_RG18SAV
                                     87 	.globl _g_RG17SAV
                                     88 	.globl _g_RG16SAV
                                     89 	.globl _g_RG15SAV
                                     90 	.globl _g_RG14SAV
                                     91 	.globl _g_RG13SAV
                                     92 	.globl _g_RG12SAV
                                     93 	.globl _g_RG11SAV
                                     94 	.globl _g_RG10SAV
                                     95 	.globl _g_RG09SAV
                                     96 	.globl _g_RG08SAV
                                     97 	.globl _g_PROCNM
                                     98 	.globl _g_SLTWRK
                                     99 	.globl _g_SLTATR
                                    100 	.globl _g_SLTTBL
                                    101 	.globl _g_EXPTBL
                                    102 	.globl _g_MNROM
                                    103 	.globl _g_DRWANG
                                    104 	.globl _g_DRWSCL
                                    105 	.globl _g_DRWFLG
                                    106 	.globl _g_GYPOS
                                    107 	.globl _g_GXPOS
                                    108 	.globl _g_BRDATR
                                    109 	.globl _g_CASPRV
                                    110 	.globl _g_OLDSCR
                                    111 	.globl _g_SCRMOD
                                    112 	.globl _g_FLBMEM
                                    113 	.globl _g_KANAMD
                                    114 	.globl _g_KANAST
                                    115 	.globl _g_CAPST
                                    116 	.globl _g_CSTYLE
                                    117 	.globl _g_CSRSW
                                    118 	.globl _g_INSFLG
                                    119 	.globl _g_ESCCNT
                                    120 	.globl _g_GRPHED
                                    121 	.globl _g_WINWID
                                    122 	.globl _g_LOWLIM
                                    123 	.globl _g_INTCNT
                                    124 	.globl _g_INTVAL
                                    125 	.globl _g_JIFFY
                                    126 	.globl _g_PADX
                                    127 	.globl _g_PADY
                                    128 	.globl _g_INTFLG
                                    129 	.globl _g_RTYCNT
                                    130 	.globl _g_TRPTBL
                                    131 	.globl _g_HIMEM
                                    132 	.globl _g_BOTTOM
                                    133 	.globl _g_PATWRK
                                    134 	.globl _g_LINWRK
                                    135 	.globl _g_KEYBUF
                                    136 	.globl _g_NEWKEY
                                    137 	.globl _g_OLDKEY
                                    138 	.globl _g_CLIKFL
                                    139 	.globl _g_ONGSBF
                                    140 	.globl _g_FNKFLG
                                    141 	.globl _g_FNKSWI
                                    142 	.globl _g_CODSAV
                                    143 	.globl _g_FSTPOS
                                    144 	.globl _g_LINTTB
                                    145 	.globl _g_BASROM
                                    146 	.globl _g_ENSTOP
                                    147 	.globl _g_VCBC
                                    148 	.globl _g_VCBB
                                    149 	.globl _g_VCBA
                                    150 	.globl _g_PLYCNT
                                    151 	.globl _g_MUSICF
                                    152 	.globl _g_QUEUEN
                                    153 	.globl _g_MCLPTR
                                    154 	.globl _g_MCLLEN
                                    155 	.globl _g_SAVVOL
                                    156 	.globl _g_VOICEN
                                    157 	.globl _g_SAVSP
                                    158 	.globl _g_PRSCNT
                                    159 	.globl _g_LSTMOD
                                    160 	.globl _g_LSTCOM
                                    161 	.globl _g_COMMSK
                                    162 	.globl _g_ESTBLS
                                    163 	.globl _g_FLAGS
                                    164 	.globl _g_ERRORS
                                    165 	.globl _g_DATCNT
                                    166 	.globl _g_DEVNUM
                                    167 	.globl _g_OLDINT
                                    168 	.globl _g_OLDSTT
                                    169 	.globl _g_MEXBIh
                                    170 	.globl _g_RSIQLN
                                    171 	.globl _g_RSFCB
                                    172 	.globl _g_TOCNT
                                    173 	.globl _g_RSTMP
                                    174 	.globl _g_YSAVE
                                    175 	.globl _g_XSAVE
                                    176 	.globl _g_NORUSE
                                    177 	.globl _g_MODE
                                    178 	.globl _g_ROMA
                                    179 	.globl _g_CHRCNT
                                    180 	.globl _g_EXBRSA
                                    181 	.globl _g_AVCSAV
                                    182 	.globl _g_ACPAGE
                                    183 	.globl _g_DPPAGE
                                    184 	.globl _g_RS2IQ
                                    185 	.globl _g_VOICCQ
                                    186 	.globl _g_VOICBQ
                                    187 	.globl _g_VOICAQ
                                    188 	.globl _g_QUEBAK
                                    189 	.globl _g_QUETAB
                                    190 	.globl _g_ASPCT2
                                    191 	.globl _g_ASPCT1
                                    192 	.globl _g_HEADER
                                    193 	.globl _g_HIGH
                                    194 	.globl _g_LOW
                                    195 	.globl _g_CS240
                                    196 	.globl _g_CS120
                                    197 	.globl _g_GETPNT
                                    198 	.globl _g_PUTPNT
                                    199 	.globl _g_REPCNT
                                    200 	.globl _g_SCNCNT
                                    201 	.globl _g_FRCNEW
                                    202 	.globl _g_QUEUES
                                    203 	.globl _g_MINUPD
                                    204 	.globl _g_MAXUPD
                                    205 	.globl _g_TRGFLG
                                    206 	.globl _g_STATFL
                                    207 	.globl _g_RG7SAV
                                    208 	.globl _g_RG6SAV
                                    209 	.globl _g_RG5SAV
                                    210 	.globl _g_RG4SAV
                                    211 	.globl _g_RG3SAV
                                    212 	.globl _g_RG2SAV
                                    213 	.globl _g_RG1SAV
                                    214 	.globl _g_RG0SAV
                                    215 	.globl _g_CNSDFG
                                    216 	.globl _g_USRTAB
                                    217 	.globl _g_CLPRIM
                                    218 	.globl _g_WRPRIM
                                    219 	.globl _g_RDPRIM
                                    220 	.globl _UpdateGameState_Penalties
                                    221 ;--------------------------------------------------------
                                    222 ; special function registers
                                    223 ;--------------------------------------------------------
                         000000A8   224 _g_PortPrimarySlot	=	0x00a8
                         000000A9   225 _g_PortReadKeyboard	=	0x00a9
                         000000AA   226 _g_PortAccessKeyboard	=	0x00aa
                         000000AB   227 _g_PortControl	=	0x00ab
                         00000098   228 _g_VDP_DataPort	=	0x0098
                         00000099   229 _g_VDP_RegPort	=	0x0099
                         00000099   230 _g_VDP_AddrPort	=	0x0099
                         00000099   231 _g_VDP_StatPort	=	0x0099
                         0000009A   232 _g_VDP_PalPort	=	0x009a
                         0000009B   233 _g_VDP_IRegPort	=	0x009b
                         000000A0   234 _g_PSG_RegPort	=	0x00a0
                         000000A1   235 _g_PSG_DataPort	=	0x00a1
                         000000A2   236 _g_PSG_StatPort	=	0x00a2
                         00000010   237 _g_PSG_Ext_RegPort	=	0x0010
                         00000011   238 _g_PSG_Ext_DataPort	=	0x0011
                         00000012   239 _g_PSG_Ext_StatPort	=	0x0012
                         0000007C   240 _g_MSXMusic_IndexPort	=	0x007c
                         0000007D   241 _g_MSXMusic_DataPort	=	0x007d
                         000000C0   242 _g_MSXAudio_IndexPort	=	0x00c0
                         000000C1   243 _g_MSXAudio_DataPort	=	0x00c1
                         000000C2   244 _g_MSXAudio_IndexPort2	=	0x00c2
                         000000C3   245 _g_MSXAudio_DataPort2	=	0x00c3
                         000000B4   246 _g_RTC_AddrPort	=	0x00b4
                         000000B5   247 _g_RTC_DataPort	=	0x00b5
                                    248 ;--------------------------------------------------------
                                    249 ; ram data
                                    250 ;--------------------------------------------------------
                                    251 	.area _DATA
                         0000F3AE   252 _g_LINL40	=	0xf3ae
                         0000F3AF   253 _g_LINL32	=	0xf3af
                         0000F3B0   254 _g_LINLEN	=	0xf3b0
                         0000F3B1   255 _g_CRTCNT	=	0xf3b1
                         0000F3B2   256 _g_CLMLST	=	0xf3b2
                         0000F3B3   257 _g_TXTNAM	=	0xf3b3
                         0000F3B5   258 _g_TXTCOL	=	0xf3b5
                         0000F3B7   259 _g_TXTCGP	=	0xf3b7
                         0000F3B9   260 _g_TXTATR	=	0xf3b9
                         0000F3BB   261 _g_TXTPAT	=	0xf3bb
                         0000F3BD   262 _g_T32NAM	=	0xf3bd
                         0000F3BF   263 _g_T32COL	=	0xf3bf
                         0000F3C1   264 _g_T32CGP	=	0xf3c1
                         0000F3C3   265 _g_T32ATR	=	0xf3c3
                         0000F3C5   266 _g_T32PAT	=	0xf3c5
                         0000F3C7   267 _g_GRPNAM	=	0xf3c7
                         0000F3C9   268 _g_GRPCOL	=	0xf3c9
                         0000F3CB   269 _g_GRPCGP	=	0xf3cb
                         0000F3CD   270 _g_GRPATR	=	0xf3cd
                         0000F3CF   271 _g_GRPPAT	=	0xf3cf
                         0000F3D1   272 _g_MLTNAM	=	0xf3d1
                         0000F3D3   273 _g_MLTCOL	=	0xf3d3
                         0000F3D5   274 _g_MLTCGP	=	0xf3d5
                         0000F3D7   275 _g_MLTATR	=	0xf3d7
                         0000F3D9   276 _g_MLTPAT	=	0xf3d9
                         0000F3DB   277 _g_CLIKSW	=	0xf3db
                         0000F3DC   278 _g_CSRY	=	0xf3dc
                         0000F3DD   279 _g_CSRX	=	0xf3dd
                         0000F3E9   280 _g_FORCLR	=	0xf3e9
                         0000F3EA   281 _g_BAKCLR	=	0xf3ea
                         0000F3EB   282 _g_BDRCLR	=	0xf3eb
                         0000F3F2   283 _g_ATRBYT	=	0xf3f2
                         0000F87F   284 _g_FNKSTR	=	0xf87f
                         0000F92A   285 _g_CLOC	=	0xf92a
                         0000F92C   286 _g_CMASK	=	0xf92c
                         0000FB02   287 _g_LOGOPR	=	0xfb02
                         0000FCB7   288 _g_GRPACX	=	0xfcb7
                         0000FCB9   289 _g_GRPACY	=	0xfcb9
                         0000FFFF   290 _g_SLTSL	=	0xffff
                                    291 ;--------------------------------------------------------
                                    292 ; ram data
                                    293 ;--------------------------------------------------------
                                    294 	.area _INITIALIZED
                                    295 ;--------------------------------------------------------
                                    296 ; absolute external ram data
                                    297 ;--------------------------------------------------------
                                    298 	.area _DABS (ABS)
                                    299 ;--------------------------------------------------------
                                    300 ; global & static initialisations
                                    301 ;--------------------------------------------------------
                                    302 	.area _HOME
                                    303 	.area _GSINIT
                                    304 	.area _GSFINAL
                                    305 	.area _GSINIT
                                    306 ;--------------------------------------------------------
                                    307 ; Home
                                    308 ;--------------------------------------------------------
                                    309 	.area _HOME
                                    310 	.area _HOME
                                    311 ;--------------------------------------------------------
                                    312 ; code
                                    313 ;--------------------------------------------------------
                                    314 	.area _SEG16
                                    315 ;E:\Dropbox\FAUSTO\SVILUPPI\MSX\CODE\C\MSXgl\projects\soccerlgMSX2/soccerlg_s16_b3.c:11: void UpdateGameState_Penalties(u8* game_state, u8* wait_secs, u8* start_sec, u16 target_ly)
                                    316 ;	---------------------------------
                                    317 ; Function UpdateGameState_Penalties
                                    318 ; ---------------------------------
    00000000                        319 _UpdateGameState_Penalties::
    00000000 DD E5            [15]  320 	push	ix
    00000002 DD 21 00 00      [14]  321 	ld	ix,#0
    00000006 DD 39            [15]  322 	add	ix,sp
    00000008 FD 21 E0 FF      [14]  323 	ld	iy, #-32
    0000000C FD 39            [15]  324 	add	iy, sp
    0000000E FD F9            [10]  325 	ld	sp, iy
    00000010 DD 75 FD         [19]  326 	ld	-3 (ix), l
    00000013 DD 74 FE         [19]  327 	ld	-2 (ix), h
    00000016 DD 73 FB         [19]  328 	ld	-5 (ix), e
    00000019 DD 72 FC         [19]  329 	ld	-4 (ix), d
                                    330 ;E:\Dropbox\FAUSTO\SVILUPPI\MSX\CODE\C\MSXgl\projects\soccerlgMSX2/soccerlg_s16_b3.c:15: if (*game_state >= 12 && *game_state <= 14) { // --- RIGORI ---		
    0000001C DD 6E FD         [19]  331 	ld	l, -3 (ix)
    0000001F DD 66 FE         [19]  332 	ld	h, -2 (ix)
    00000022 7E               [ 7]  333 	ld	a, (hl)
    00000023 DD 77 FF         [19]  334 	ld	-1 (ix), a
    00000026 D6 0C            [ 7]  335 	sub	a, #0x0c
    00000028 DArA1r0C         [10]  336 	jp	C, 00228$
    0000002B 3E 0E            [ 7]  337 	ld	a, #0x0e
    0000002D DD 96 FF         [19]  338 	sub	a, -1 (ix)
    00000030 DArA1r0C         [10]  339 	jp	C, 00228$
                                    340 ;E:\Dropbox\FAUSTO\SVILUPPI\MSX\CODE\C\MSXgl\projects\soccerlgMSX2/soccerlg_s16_b3.c:16: struct ObjectInfo* Ball = &SwSprite[14];
                                    341 ;E:\Dropbox\FAUSTO\SVILUPPI\MSX\CODE\C\MSXgl\projects\soccerlgMSX2/soccerlg_s16_b3.c:19: SwSprite[38].lx = PENALTY_DISH_X; SwSprite[38].frame = SPR_BIG_PENALTY_DISH;
    00000033 21r6Ar03         [10]  342 	ld	hl, #(_SwSprite + 874)
    00000036 36 78            [10]  343 	ld	(hl), #0x78
    00000038 21 6D 00         [10]  344 	ld	hl, #0x006d
    0000003B 22r79r03         [16]  345 	ld	((_SwSprite + 889)), hl
                                    346 ;E:\Dropbox\FAUSTO\SVILUPPI\MSX\CODE\C\MSXgl\projects\soccerlgMSX2/soccerlg_s16_b3.c:20: SwSprite[38].ly = (Ball->lx == PENALTY_DISH_X && Ball->ly == PENALTY_NORTH_Y) ? 1000 : PENALTY_NORTH_Y;
    0000003E 3Ar42r01         [13]  347 	ld	a, (#(_SwSprite + 322) + 0)
    00000041 D6 78            [ 7]  348 	sub	a, #0x78
    00000043 20 1C            [12]  349 	jr	NZ, 00230$
    00000045 21r46r01         [10]  350 	ld	hl, #(_SwSprite + 322) + 4
    00000048 7E               [ 7]  351 	ld	a, (hl)
    00000049 DD 77 F9         [19]  352 	ld	-7 (ix), a
    0000004C 23               [ 6]  353 	inc	hl
    0000004D 7E               [ 7]  354 	ld	a, (hl)
    0000004E DD 77 FA         [19]  355 	ld	-6 (ix), a
    00000051 DD 7E F9         [19]  356 	ld	a, -7 (ix)
    00000054 D6 4A            [ 7]  357 	sub	a, #0x4a
    00000056 DD B6 FA         [19]  358 	or	a, -6 (ix)
    00000059 20 06            [12]  359 	jr	NZ, 00230$
    0000005B 01 E8 03         [10]  360 	ld	bc, #0x03e8
    0000005E C3r64r00         [10]  361 	jp	00231$
    00000061                        362 00230$:
    00000061 01 4A 00         [10]  363 	ld	bc, #0x004a
    00000064                        364 00231$:
    00000064 ED 43r6Er03      [20]  365 	ld	((_SwSprite + 878)), bc
                                    366 ;E:\Dropbox\FAUSTO\SVILUPPI\MSX\CODE\C\MSXgl\projects\soccerlgMSX2/soccerlg_s16_b3.c:21: u8 keeper_idx = (g_penalty_team == TEAM_1) ? 7 : 0; // Il portiere che deve parare
    00000068 3Ar00r00         [13]  367 	ld	a, (_g_penalty_team+0)
    0000006B B7               [ 4]  368 	or	a, a
    0000006C 20 06            [12]  369 	jr	NZ, 00235$
    0000006E 01 07 00         [10]  370 	ld	bc, #0x0007
    00000071 C3r77r00         [10]  371 	jp	00236$
    00000074                        372 00235$:
    00000074 01 00 00         [10]  373 	ld	bc, #0x0000
    00000077                        374 00236$:
    00000077 DD 71 E4         [19]  375 	ld	-28 (ix), c
                                    376 ;E:\Dropbox\FAUSTO\SVILUPPI\MSX\CODE\C\MSXgl\projects\soccerlgMSX2/soccerlg_s16_b3.c:23: if(*game_state == 12) { // STATO 12: Setup del prossimo rigore
    0000007A DD 6E FD         [19]  377 	ld	l, -3 (ix)
    0000007D DD 66 FE         [19]  378 	ld	h, -2 (ix)
    00000080 7E               [ 7]  379 	ld	a, (hl)
    00000081 DD 77 FF         [19]  380 	ld	-1 (ix), a
    00000084 D6 0C            [ 7]  381 	sub	a, #0x0c
    00000086 C2rBCr01         [10]  382 	jp	NZ,00218$
                                    383 ;E:\Dropbox\FAUSTO\SVILUPPI\MSX\CODE\C\MSXgl\projects\soccerlgMSX2/soccerlg_s16_b3.c:24: g_is_penalty_shootout = TRUE; // Attiva la modalità rigori
    00000089 21r00r00         [10]  384 	ld	hl, #_g_is_penalty_shootout
    0000008C 36 01            [10]  385 	ld	(hl), #0x01
                                    386 ;E:\Dropbox\FAUSTO\SVILUPPI\MSX\CODE\C\MSXgl\projects\soccerlgMSX2/soccerlg_s16_b3.c:27: u8 shooter_role = 1 + (g_penalty_shot_count[g_penalty_team] % 6);
    0000008E 3Ar00r00         [13]  387 	ld	a, (_g_penalty_team+0)
    00000091 C6r00            [ 7]  388 	add	a, #<(_g_penalty_shot_count)
    00000093 DD 77 F9         [19]  389 	ld	-7 (ix), a
    00000096 3E 00            [ 7]  390 	ld	a, #0x00
    00000098 CEs00            [ 7]  391 	adc	a, #>(_g_penalty_shot_count)
    0000009A DD 77 FA         [19]  392 	ld	-6 (ix), a
    0000009D DD 6E F9         [19]  393 	ld	l, -7 (ix)
    000000A0 DD 66 FA         [19]  394 	ld	h, -6 (ix)
    000000A3 7E               [ 7]  395 	ld	a, (hl)
    000000A4 DD 77 FF         [19]  396 	ld	-1 (ix), a
    000000A7 DD 77 F9         [19]  397 	ld	-7 (ix), a
    000000AA DD 36 FA 00      [19]  398 	ld	-6 (ix), #0x00
    000000AE 11 06 00         [10]  399 	ld	de, #0x0006
    000000B1 DD 6E F9         [19]  400 	ld	l, -7 (ix)
                                    401 ;	spillPairReg hl
                                    402 ;	spillPairReg hl
    000000B4 DD 66 FA         [19]  403 	ld	h, -6 (ix)
                                    404 ;	spillPairReg hl
                                    405 ;	spillPairReg hl
    000000B7 CDr00r00         [17]  406 	call	__modsint
    000000BA DD 73 F9         [19]  407 	ld	-7 (ix), e
    000000BD DD 72 FA         [19]  408 	ld	-6 (ix), d
    000000C0 DD 7E F9         [19]  409 	ld	a, -7 (ix)
    000000C3 DD 77 FF         [19]  410 	ld	-1 (ix), a
    000000C6 4F               [ 4]  411 	ld	c, a
    000000C7 0C               [ 4]  412 	inc	c
                                    413 ;E:\Dropbox\FAUSTO\SVILUPPI\MSX\CODE\C\MSXgl\projects\soccerlgMSX2/soccerlg_s16_b3.c:28: g_penalty_shooter_idx = (g_penalty_team == TEAM_1) ? shooter_role : shooter_role + 7;
    000000C8 3Ar00r00         [13]  414 	ld	a, (_g_penalty_team+0)
    000000CB B7               [ 4]  415 	or	a, a
    000000CC 20 04            [12]  416 	jr	NZ, 00237$
    000000CE 79               [ 4]  417 	ld	a, c
    000000CF C3rD5r00         [10]  418 	jp	00238$
    000000D2                        419 00237$:
    000000D2 79               [ 4]  420 	ld	a, c
    000000D3 C6 07            [ 7]  421 	add	a, #0x07
    000000D5                        422 00238$:
    000000D5 32r00r00         [13]  423 	ld	(_g_penalty_shooter_idx+0), a
                                    424 ;E:\Dropbox\FAUSTO\SVILUPPI\MSX\CODE\C\MSXgl\projects\soccerlgMSX2/soccerlg_s16_b3.c:31: Ball->lx = PENALTY_DISH_X; Ball->ty = PENALTY_NORTH_Y; Ball->tx = PENALTY_DISH_X; Ball->ly = PENALTY_NORTH_Y;
    000000D8 21r42r01         [10]  425 	ld	hl, #(_SwSprite + 322)
    000000DB 36 78            [10]  426 	ld	(hl), #0x78
    000000DD 21 4A 00         [10]  427 	ld	hl, #0x004a
    000000E0 22r4Fr01         [16]  428 	ld	((_SwSprite + 335)), hl
    000000E3 21r4Er01         [10]  429 	ld	hl, #(_SwSprite + 334)
    000000E6 36 78            [10]  430 	ld	(hl), #0x78
    000000E8 21 4A 00         [10]  431 	ld	hl, #0x004a
    000000EB 22r46r01         [16]  432 	ld	((_SwSprite + 326)), hl
                                    433 ;E:\Dropbox\FAUSTO\SVILUPPI\MSX\CODE\C\MSXgl\projects\soccerlgMSX2/soccerlg_s16_b3.c:32: Ball->anim = 0; Ball->frame = SPR_BALL_SIZE_1;
    000000EE 6C               [ 4]  434 	ld	l, h
    000000EF 22r55r01         [16]  435 	ld	((_SwSprite + 341)), hl
    000000F2 2E 60            [ 7]  436 	ld	l, #0x60
    000000F4 22r51r01         [16]  437 	ld	((_SwSprite + 337)), hl
                                    438 ;E:\Dropbox\FAUSTO\SVILUPPI\MSX\CODE\C\MSXgl\projects\soccerlgMSX2/soccerlg_s16_b3.c:35: SwSprite[g_penalty_shooter_idx].tx = PENALTY_DISH_X;  // Tiratore dietro la palla
    000000F7 ED 4Br00r00      [20]  439 	ld	bc, (_g_penalty_shooter_idx)
    000000FB 06 00            [ 7]  440 	ld	b, #0x00
    000000FD 69               [ 4]  441 	ld	l, c
    000000FE 60               [ 4]  442 	ld	h, b
    000000FF 29               [11]  443 	add	hl, hl
    00000100 29               [11]  444 	add	hl, hl
    00000101 09               [11]  445 	add	hl, bc
    00000102 29               [11]  446 	add	hl, hl
    00000103 09               [11]  447 	add	hl, bc
    00000104 29               [11]  448 	add	hl, hl
    00000105 09               [11]  449 	add	hl, bc
    00000106 11r00r00         [10]  450 	ld	de, #_SwSprite
    00000109 19               [11]  451 	add	hl, de
    0000010A 01 0C 00         [10]  452 	ld	bc, #0x000c
    0000010D 09               [11]  453 	add	hl, bc
    0000010E 36 78            [10]  454 	ld	(hl), #0x78
                                    455 ;E:\Dropbox\FAUSTO\SVILUPPI\MSX\CODE\C\MSXgl\projects\soccerlgMSX2/soccerlg_s16_b3.c:36: SwSprite[g_penalty_shooter_idx].ty = PENALTY_NORTH_Y + 16; // 16px dietro il dischetto
    00000110 ED 4Br00r00      [20]  456 	ld	bc, (_g_penalty_shooter_idx)
    00000114 06 00            [ 7]  457 	ld	b, #0x00
    00000116 69               [ 4]  458 	ld	l, c
    00000117 60               [ 4]  459 	ld	h, b
    00000118 29               [11]  460 	add	hl, hl
    00000119 29               [11]  461 	add	hl, hl
    0000011A 09               [11]  462 	add	hl, bc
    0000011B 29               [11]  463 	add	hl, hl
    0000011C 09               [11]  464 	add	hl, bc
    0000011D 29               [11]  465 	add	hl, hl
    0000011E 09               [11]  466 	add	hl, bc
    0000011F 11r00r00         [10]  467 	ld	de, #_SwSprite
    00000122 19               [11]  468 	add	hl, de
    00000123 01 0D 00         [10]  469 	ld	bc, #0x000d
    00000126 09               [11]  470 	add	hl, bc
    00000127 36 5A            [10]  471 	ld	(hl), #0x5a
    00000129 23               [ 6]  472 	inc	hl
    0000012A 36 00            [10]  473 	ld	(hl), #0x00
                                    474 ;E:\Dropbox\FAUSTO\SVILUPPI\MSX\CODE\C\MSXgl\projects\soccerlgMSX2/soccerlg_s16_b3.c:37: SwSprite[keeper_idx].tx = 120;                // Portiere al centro della porta
    0000012C DD 4E E4         [19]  475 	ld	c, -28 (ix)
    0000012F 06 00            [ 7]  476 	ld	b, #0x00
    00000131 69               [ 4]  477 	ld	l, c
    00000132 60               [ 4]  478 	ld	h, b
    00000133 29               [11]  479 	add	hl, hl
    00000134 29               [11]  480 	add	hl, hl
    00000135 09               [11]  481 	add	hl, bc
    00000136 29               [11]  482 	add	hl, hl
    00000137 09               [11]  483 	add	hl, bc
    00000138 29               [11]  484 	add	hl, hl
    00000139 09               [11]  485 	add	hl, bc
    0000013A EB               [ 4]  486 	ex	de, hl
    0000013B 21r00r00         [10]  487 	ld	hl, #_SwSprite
    0000013E 19               [11]  488 	add	hl, de
    0000013F EB               [ 4]  489 	ex	de, hl
    00000140 21 0C 00         [10]  490 	ld	hl, #0x000c
    00000143 19               [11]  491 	add	hl, de
    00000144 36 78            [10]  492 	ld	(hl), #0x78
                                    493 ;E:\Dropbox\FAUSTO\SVILUPPI\MSX\CODE\C\MSXgl\projects\soccerlgMSX2/soccerlg_s16_b3.c:38: SwSprite[keeper_idx].ty = 32;
    00000146 21 0D 00         [10]  494 	ld	hl, #0x000d
    00000149 19               [11]  495 	add	hl, de
    0000014A 36 20            [10]  496 	ld	(hl), #0x20
    0000014C 23               [ 6]  497 	inc	hl
    0000014D 36 00            [10]  498 	ld	(hl), #0x00
                                    499 ;E:\Dropbox\FAUSTO\SVILUPPI\MSX\CODE\C\MSXgl\projects\soccerlgMSX2/soccerlg_s16_b3.c:39: SwSprite[26].tx = 62;                         // Arbitro a lato dell'area
    0000014F 21r62r02         [10]  500 	ld	hl, #(_SwSprite + 610)
    00000152 36 3E            [10]  501 	ld	(hl), #0x3e
                                    502 ;E:\Dropbox\FAUSTO\SVILUPPI\MSX\CODE\C\MSXgl\projects\soccerlgMSX2/soccerlg_s16_b3.c:40: SwSprite[26].ty = 56;
    00000154 21 38 00         [10]  503 	ld	hl, #0x0038
    00000157 22r63r02         [16]  504 	ld	((_SwSprite + 611)), hl
                                    505 ;E:\Dropbox\FAUSTO\SVILUPPI\MSX\CODE\C\MSXgl\projects\soccerlgMSX2/soccerlg_s16_b3.c:43: for(u8 i=0; i<=26; i++) {
    0000015A 06 00            [ 7]  506 	ld	b, #0x00
    0000015C                        507 00224$:
    0000015C 3E 1A            [ 7]  508 	ld	a, #0x1a
    0000015E 90               [ 4]  509 	sub	a, b
    0000015F 38 50            [12]  510 	jr	C, 00108$
                                    511 ;E:\Dropbox\FAUSTO\SVILUPPI\MSX\CODE\C\MSXgl\projects\soccerlgMSX2/soccerlg_s16_b3.c:44: if(i == g_penalty_shooter_idx || i == keeper_idx || i == 26 || (i>=14 && i<26)) continue;
    00000161 3Ar00r00         [13]  512 	ld	a, (_g_penalty_shooter_idx+0)
    00000164 90               [ 4]  513 	sub	a, b
    00000165 28 46            [12]  514 	jr	Z, 00107$
    00000167 DD 7E E4         [19]  515 	ld	a, -28 (ix)
    0000016A 90               [ 4]  516 	sub	a, b
    0000016B 28 40            [12]  517 	jr	Z, 00107$
    0000016D 78               [ 4]  518 	ld	a,b
    0000016E FE 1A            [ 7]  519 	cp	a,#0x1a
    00000170 28 3B            [12]  520 	jr	Z, 00107$
    00000172 FE 0E            [ 7]  521 	cp	a,#0x0e
    00000174 38 04            [12]  522 	jr	C, 00102$
    00000176 D6 1A            [ 7]  523 	sub	a, #0x1a
    00000178 38 33            [12]  524 	jr	C, 00107$
    0000017A                        525 00102$:
                                    526 ;E:\Dropbox\FAUSTO\SVILUPPI\MSX\CODE\C\MSXgl\projects\soccerlgMSX2/soccerlg_s16_b3.c:45: SwSprite[i].lx = SwSprite[i].tx;
    0000017A 58               [ 4]  527 	ld	e, b
    0000017B 16 00            [ 7]  528 	ld	d, #0x00
    0000017D 6B               [ 4]  529 	ld	l, e
    0000017E 62               [ 4]  530 	ld	h, d
    0000017F 29               [11]  531 	add	hl, hl
    00000180 29               [11]  532 	add	hl, hl
    00000181 19               [11]  533 	add	hl, de
    00000182 29               [11]  534 	add	hl, hl
    00000183 19               [11]  535 	add	hl, de
    00000184 29               [11]  536 	add	hl, hl
    00000185 19               [11]  537 	add	hl, de
    00000186 EB               [ 4]  538 	ex	de, hl
    00000187 21r00r00         [10]  539 	ld	hl, #_SwSprite
    0000018A 19               [11]  540 	add	hl, de
    0000018B EB               [ 4]  541 	ex	de, hl
    0000018C D5               [11]  542 	push	de
    0000018D FD E1            [14]  543 	pop	iy
    0000018F FD 7E 0C         [19]  544 	ld	a, 12 (iy)
    00000192 12               [ 7]  545 	ld	(de), a
                                    546 ;E:\Dropbox\FAUSTO\SVILUPPI\MSX\CODE\C\MSXgl\projects\soccerlgMSX2/soccerlg_s16_b3.c:46: SwSprite[i].ly = SwSprite[i].ty;
    00000193 21 04 00         [10]  547 	ld	hl, #0x0004
    00000196 19               [11]  548 	add	hl, de
    00000197 DD 75 F9         [19]  549 	ld	-7 (ix), l
    0000019A DD 74 FA         [19]  550 	ld	-6 (ix), h
    0000019D 21 0D 00         [10]  551 	ld	hl, #13
    000001A0 19               [11]  552 	add	hl, de
    000001A1 4E               [ 7]  553 	ld	c, (hl)
    000001A2 23               [ 6]  554 	inc	hl
    000001A3 5E               [ 7]  555 	ld	e, (hl)
    000001A4 DD 6E F9         [19]  556 	ld	l, -7 (ix)
    000001A7 DD 66 FA         [19]  557 	ld	h, -6 (ix)
    000001AA 71               [ 7]  558 	ld	(hl), c
    000001AB 23               [ 6]  559 	inc	hl
    000001AC 73               [ 7]  560 	ld	(hl), e
    000001AD                        561 00107$:
                                    562 ;E:\Dropbox\FAUSTO\SVILUPPI\MSX\CODE\C\MSXgl\projects\soccerlgMSX2/soccerlg_s16_b3.c:43: for(u8 i=0; i<=26; i++) {
    000001AD 04               [ 4]  563 	inc	b
    000001AE C3r5Cr01         [10]  564 	jp	00224$
    000001B1                        565 00108$:
                                    566 ;E:\Dropbox\FAUSTO\SVILUPPI\MSX\CODE\C\MSXgl\projects\soccerlgMSX2/soccerlg_s16_b3.c:49: *game_state = 13; // Passa alla fase di avvicinamento
    000001B1 DD 6E FD         [19]  567 	ld	l, -3 (ix)
    000001B4 DD 66 FE         [19]  568 	ld	h, -2 (ix)
    000001B7 36 0D            [10]  569 	ld	(hl), #0x0d
    000001B9 C3rA1r0C         [10]  570 	jp	00219$
    000001BC                        571 00218$:
                                    572 ;E:\Dropbox\FAUSTO\SVILUPPI\MSX\CODE\C\MSXgl\projects\soccerlgMSX2/soccerlg_s16_b3.c:51: else if(*game_state == 13) { // STATO 13: Avvicinamento al dischetto
    000001BC DD 7E FF         [19]  573 	ld	a, -1 (ix)
    000001BF D6 0D            [ 7]  574 	sub	a, #0x0d
    000001C1 C2rE2r07         [10]  575 	jp	NZ,00215$
                                    576 ;E:\Dropbox\FAUSTO\SVILUPPI\MSX\CODE\C\MSXgl\projects\soccerlgMSX2/soccerlg_s16_b3.c:52: bool all_in_position = TRUE;
    000001C4 DD 36 E5 01      [19]  577 	ld	-27 (ix), #0x01
                                    578 ;E:\Dropbox\FAUSTO\SVILUPPI\MSX\CODE\C\MSXgl\projects\soccerlgMSX2/soccerlg_s16_b3.c:55: u16 cam_target = (SwSprite[keeper_idx].ly < 96) ? 0 : SwSprite[keeper_idx].ly - 96;
    000001C8 DD 4E E4         [19]  579 	ld	c, -28 (ix)
    000001CB 06 00            [ 7]  580 	ld	b, #0x00
    000001CD 69               [ 4]  581 	ld	l, c
    000001CE 60               [ 4]  582 	ld	h, b
    000001CF 29               [11]  583 	add	hl, hl
    000001D0 29               [11]  584 	add	hl, hl
    000001D1 09               [11]  585 	add	hl, bc
    000001D2 29               [11]  586 	add	hl, hl
    000001D3 09               [11]  587 	add	hl, bc
    000001D4 29               [11]  588 	add	hl, hl
    000001D5 09               [11]  589 	add	hl, bc
    000001D6 DD 75 F9         [19]  590 	ld	-7 (ix), l
    000001D9 DD 74 FA         [19]  591 	ld	-6 (ix), h
    000001DC 3Er00            [ 7]  592 	ld	a, #<(_SwSprite)
    000001DE DD 86 F9         [19]  593 	add	a, -7 (ix)
    000001E1 DD 77 E6         [19]  594 	ld	-26 (ix), a
    000001E4 3Es00            [ 7]  595 	ld	a, #>(_SwSprite)
    000001E6 DD 8E FA         [19]  596 	adc	a, -6 (ix)
    000001E9 DD 77 E7         [19]  597 	ld	-25 (ix), a
    000001EC DD 7E E6         [19]  598 	ld	a, -26 (ix)
    000001EF DD 77 F9         [19]  599 	ld	-7 (ix), a
    000001F2 DD 7E E7         [19]  600 	ld	a, -25 (ix)
    000001F5 DD 77 FA         [19]  601 	ld	-6 (ix), a
    000001F8 DD 6E F9         [19]  602 	ld	l, -7 (ix)
    000001FB DD 66 FA         [19]  603 	ld	h, -6 (ix)
    000001FE 11 04 00         [10]  604 	ld	de, #0x0004
    00000201 19               [11]  605 	add	hl, de
    00000202 7E               [ 7]  606 	ld	a, (hl)
    00000203 DD 77 F9         [19]  607 	ld	-7 (ix), a
    00000206 23               [ 6]  608 	inc	hl
    00000207 7E               [ 7]  609 	ld	a, (hl)
    00000208 DD 77 FA         [19]  610 	ld	-6 (ix), a
    0000020B DD 7E F9         [19]  611 	ld	a, -7 (ix)
    0000020E DD 77 F7         [19]  612 	ld	-9 (ix), a
    00000211 DD 7E FA         [19]  613 	ld	a, -6 (ix)
    00000214 DD 77 F8         [19]  614 	ld	-8 (ix), a
    00000217 DD 7E F7         [19]  615 	ld	a, -9 (ix)
    0000021A D6 60            [ 7]  616 	sub	a, #0x60
    0000021C DD 7E F8         [19]  617 	ld	a, -8 (ix)
    0000021F DE 00            [ 7]  618 	sbc	a, #0x00
    00000221 30 0A            [12]  619 	jr	NC, 00239$
    00000223 AF               [ 4]  620 	xor	a, a
    00000224 DD 77 F9         [19]  621 	ld	-7 (ix), a
    00000227 DD 77 FA         [19]  622 	ld	-6 (ix), a
    0000022A C3r3Dr02         [10]  623 	jp	00240$
    0000022D                        624 00239$:
    0000022D DD 7E F7         [19]  625 	ld	a, -9 (ix)
    00000230 C6 A0            [ 7]  626 	add	a, #0xa0
    00000232 DD 77 F9         [19]  627 	ld	-7 (ix), a
    00000235 DD 7E F8         [19]  628 	ld	a, -8 (ix)
    00000238 CE FF            [ 7]  629 	adc	a, #0xff
    0000023A DD 77 FA         [19]  630 	ld	-6 (ix), a
    0000023D                        631 00240$:
    0000023D DD 7E F9         [19]  632 	ld	a, -7 (ix)
    00000240 DD 77 F5         [19]  633 	ld	-11 (ix), a
    00000243 DD 7E FA         [19]  634 	ld	a, -6 (ix)
    00000246 DD 77 F6         [19]  635 	ld	-10 (ix), a
                                    636 ;E:\Dropbox\FAUSTO\SVILUPPI\MSX\CODE\C\MSXgl\projects\soccerlgMSX2/soccerlg_s16_b3.c:56: if (Field.ly > cam_target + 3) { Field.dy = -4; Field.ly += Field.dy; all_in_position = FALSE; }
    00000249 21r04r00         [10]  637 	ld	hl, #(_Field + 4)
    0000024C 7E               [ 7]  638 	ld	a, (hl)
    0000024D DD 77 F7         [19]  639 	ld	-9 (ix), a
    00000250 23               [ 6]  640 	inc	hl
    00000251 7E               [ 7]  641 	ld	a, (hl)
    00000252 DD 77 F8         [19]  642 	ld	-8 (ix), a
    00000255 DD 7E F5         [19]  643 	ld	a, -11 (ix)
    00000258 DD 77 F3         [19]  644 	ld	-13 (ix), a
    0000025B DD 7E F6         [19]  645 	ld	a, -10 (ix)
    0000025E DD 77 F4         [19]  646 	ld	-12 (ix), a
    00000261 DD 7E F3         [19]  647 	ld	a, -13 (ix)
    00000264 C6 03            [ 7]  648 	add	a, #0x03
    00000266 DD 77 F9         [19]  649 	ld	-7 (ix), a
    00000269 DD 7E F4         [19]  650 	ld	a, -12 (ix)
    0000026C CE 00            [ 7]  651 	adc	a, #0x00
    0000026E DD 77 FA         [19]  652 	ld	-6 (ix), a
    00000271 DD 7E F7         [19]  653 	ld	a, -9 (ix)
    00000274 DD 77 F3         [19]  654 	ld	-13 (ix), a
    00000277 DD 7E F8         [19]  655 	ld	a, -8 (ix)
    0000027A DD 77 F4         [19]  656 	ld	-12 (ix), a
    0000027D DD 7E F9         [19]  657 	ld	a, -7 (ix)
    00000280 DD 96 F3         [19]  658 	sub	a, -13 (ix)
    00000283 DD 7E FA         [19]  659 	ld	a, -6 (ix)
    00000286 DD 9E F4         [19]  660 	sbc	a, -12 (ix)
    00000289 30 5C            [12]  661 	jr	NC, 00116$
    0000028B 21r12r00         [10]  662 	ld	hl, #(_Field + 18)
    0000028E 36 FC            [10]  663 	ld	(hl), #0xfc
    00000290 21r04r00         [10]  664 	ld	hl, #(_Field + 4)
    00000293 7E               [ 7]  665 	ld	a, (hl)
    00000294 DD 77 F7         [19]  666 	ld	-9 (ix), a
    00000297 23               [ 6]  667 	inc	hl
    00000298 7E               [ 7]  668 	ld	a, (hl)
    00000299 DD 77 F8         [19]  669 	ld	-8 (ix), a
    0000029C 3Ar12r00         [13]  670 	ld	a, (#(_Field + 18) + 0)
    0000029F DD 77 FF         [19]  671 	ld	-1 (ix), a
    000002A2 DD 77 F9         [19]  672 	ld	-7 (ix), a
    000002A5 07               [ 4]  673 	rlca
    000002A6 9F               [ 4]  674 	sbc	a, a
    000002A7 DD 77 FA         [19]  675 	ld	-6 (ix), a
    000002AA DD 7E F7         [19]  676 	ld	a, -9 (ix)
    000002AD DD 77 F5         [19]  677 	ld	-11 (ix), a
    000002B0 DD 7E F8         [19]  678 	ld	a, -8 (ix)
    000002B3 DD 77 F6         [19]  679 	ld	-10 (ix), a
    000002B6 DD 7E F9         [19]  680 	ld	a, -7 (ix)
    000002B9 DD 77 F7         [19]  681 	ld	-9 (ix), a
    000002BC DD 7E FA         [19]  682 	ld	a, -6 (ix)
    000002BF DD 77 F8         [19]  683 	ld	-8 (ix), a
    000002C2 DD 7E F5         [19]  684 	ld	a, -11 (ix)
    000002C5 DD 86 F7         [19]  685 	add	a, -9 (ix)
    000002C8 DD 77 F9         [19]  686 	ld	-7 (ix), a
    000002CB DD 7E F6         [19]  687 	ld	a, -10 (ix)
    000002CE DD 8E F8         [19]  688 	adc	a, -8 (ix)
    000002D1 DD 77 FA         [19]  689 	ld	-6 (ix), a
    000002D4 21r04r00         [10]  690 	ld	hl, #(_Field + 4)
    000002D7 DD 7E F9         [19]  691 	ld	a, -7 (ix)
    000002DA 77               [ 7]  692 	ld	(hl), a
    000002DB 23               [ 6]  693 	inc	hl
    000002DC DD 7E FA         [19]  694 	ld	a, -6 (ix)
    000002DF 77               [ 7]  695 	ld	(hl), a
    000002E0 DD 36 E5 00      [19]  696 	ld	-27 (ix), #0x00
    000002E4 C3r93r03         [10]  697 	jp	00317$
    000002E7                        698 00116$:
                                    699 ;E:\Dropbox\FAUSTO\SVILUPPI\MSX\CODE\C\MSXgl\projects\soccerlgMSX2/soccerlg_s16_b3.c:57: else if (Field.ly + 3 < cam_target) { Field.dy = 4; Field.ly += Field.dy; all_in_position = FALSE; }
    000002E7 DD 7E F3         [19]  700 	ld	a, -13 (ix)
    000002EA C6 03            [ 7]  701 	add	a, #0x03
    000002EC DD 77 F9         [19]  702 	ld	-7 (ix), a
    000002EF DD 7E F4         [19]  703 	ld	a, -12 (ix)
    000002F2 CE 00            [ 7]  704 	adc	a, #0x00
    000002F4 DD 77 FA         [19]  705 	ld	-6 (ix), a
    000002F7 DD 7E F9         [19]  706 	ld	a, -7 (ix)
    000002FA DD 96 F5         [19]  707 	sub	a, -11 (ix)
    000002FD DD 7E FA         [19]  708 	ld	a, -6 (ix)
    00000300 DD 9E F6         [19]  709 	sbc	a, -10 (ix)
    00000303 30 5C            [12]  710 	jr	NC, 00113$
    00000305 21r12r00         [10]  711 	ld	hl, #(_Field + 18)
    00000308 36 04            [10]  712 	ld	(hl), #0x04
    0000030A 21r04r00         [10]  713 	ld	hl, #(_Field + 4)
    0000030D 7E               [ 7]  714 	ld	a, (hl)
    0000030E DD 77 F7         [19]  715 	ld	-9 (ix), a
    00000311 23               [ 6]  716 	inc	hl
    00000312 7E               [ 7]  717 	ld	a, (hl)
    00000313 DD 77 F8         [19]  718 	ld	-8 (ix), a
    00000316 3Ar12r00         [13]  719 	ld	a, (#(_Field + 18) + 0)
    00000319 DD 77 FF         [19]  720 	ld	-1 (ix), a
    0000031C DD 77 F9         [19]  721 	ld	-7 (ix), a
    0000031F 07               [ 4]  722 	rlca
    00000320 9F               [ 4]  723 	sbc	a, a
    00000321 DD 77 FA         [19]  724 	ld	-6 (ix), a
    00000324 DD 7E F7         [19]  725 	ld	a, -9 (ix)
    00000327 DD 77 F5         [19]  726 	ld	-11 (ix), a
    0000032A DD 7E F8         [19]  727 	ld	a, -8 (ix)
    0000032D DD 77 F6         [19]  728 	ld	-10 (ix), a
    00000330 DD 7E F9         [19]  729 	ld	a, -7 (ix)
    00000333 DD 77 F7         [19]  730 	ld	-9 (ix), a
    00000336 DD 7E FA         [19]  731 	ld	a, -6 (ix)
    00000339 DD 77 F8         [19]  732 	ld	-8 (ix), a
    0000033C DD 7E F5         [19]  733 	ld	a, -11 (ix)
    0000033F DD 86 F7         [19]  734 	add	a, -9 (ix)
    00000342 DD 77 F9         [19]  735 	ld	-7 (ix), a
    00000345 DD 7E F6         [19]  736 	ld	a, -10 (ix)
    00000348 DD 8E F8         [19]  737 	adc	a, -8 (ix)
    0000034B DD 77 FA         [19]  738 	ld	-6 (ix), a
    0000034E 21r04r00         [10]  739 	ld	hl, #(_Field + 4)
    00000351 DD 7E F9         [19]  740 	ld	a, -7 (ix)
    00000354 77               [ 7]  741 	ld	(hl), a
    00000355 23               [ 6]  742 	inc	hl
    00000356 DD 7E FA         [19]  743 	ld	a, -6 (ix)
    00000359 77               [ 7]  744 	ld	(hl), a
    0000035A DD 36 E5 00      [19]  745 	ld	-27 (ix), #0x00
    0000035E C3r93r03         [10]  746 	jp	00317$
    00000361                        747 00113$:
                                    748 ;E:\Dropbox\FAUSTO\SVILUPPI\MSX\CODE\C\MSXgl\projects\soccerlgMSX2/soccerlg_s16_b3.c:58: else if (Field.ly != cam_target) { Field.dy = (i8)(cam_target - Field.ly); Field.ly = cam_target; all_in_position = FALSE; }
    00000361 DD 7E F7         [19]  749 	ld	a, -9 (ix)
    00000364 DD 96 F5         [19]  750 	sub	a, -11 (ix)
    00000367 20 08            [12]  751 	jr	NZ, 00678$
    00000369 DD 7E F8         [19]  752 	ld	a, -8 (ix)
    0000036C DD 96 F6         [19]  753 	sub	a, -10 (ix)
    0000036F 28 1D            [12]  754 	jr	Z, 00110$
    00000371                        755 00678$:
    00000371 DD 7E F5         [19]  756 	ld	a, -11 (ix)
    00000374 DD 4E F7         [19]  757 	ld	c, -9 (ix)
    00000377 91               [ 4]  758 	sub	a, c
    00000378 32r12r00         [13]  759 	ld	(#(_Field + 18)),a
    0000037B 21r04r00         [10]  760 	ld	hl, #(_Field + 4)
    0000037E DD 7E F5         [19]  761 	ld	a, -11 (ix)
    00000381 77               [ 7]  762 	ld	(hl), a
    00000382 23               [ 6]  763 	inc	hl
    00000383 DD 7E F6         [19]  764 	ld	a, -10 (ix)
    00000386 77               [ 7]  765 	ld	(hl), a
    00000387 DD 36 E5 00      [19]  766 	ld	-27 (ix), #0x00
    0000038B C3r93r03         [10]  767 	jp	00317$
    0000038E                        768 00110$:
                                    769 ;E:\Dropbox\FAUSTO\SVILUPPI\MSX\CODE\C\MSXgl\projects\soccerlgMSX2/soccerlg_s16_b3.c:59: else { Field.dy = 0; }
    0000038E 21r12r00         [10]  770 	ld	hl, #(_Field + 18)
    00000391 36 00            [10]  771 	ld	(hl), #0x00
                                    772 ;E:\Dropbox\FAUSTO\SVILUPPI\MSX\CODE\C\MSXgl\projects\soccerlgMSX2/soccerlg_s16_b3.c:61: for(u8 i=0; i<3; i++) {
    00000393                        773 00317$:
    00000393 DD 36 FF 00      [19]  774 	ld	-1 (ix), #0x00
    00000397                        775 00226$:
    00000397 DD 7E FF         [19]  776 	ld	a, -1 (ix)
    0000039A D6 03            [ 7]  777 	sub	a, #0x03
    0000039C D2r91r07         [10]  778 	jp	NC, 00143$
                                    779 ;E:\Dropbox\FAUSTO\SVILUPPI\MSX\CODE\C\MSXgl\projects\soccerlgMSX2/soccerlg_s16_b3.c:62: u8 actor_idx = (i == 0) ? g_penalty_shooter_idx : ((i == 1) ? keeper_idx : 26);
    0000039F DD 7E FF         [19]  780 	ld	a, -1 (ix)
    000003A2 B7               [ 4]  781 	or	a, a
    000003A3 20 0D            [12]  782 	jr	NZ, 00241$
    000003A5 3Ar00r00         [13]  783 	ld	a, (_g_penalty_shooter_idx+0)
    000003A8 DD 77 F9         [19]  784 	ld	-7 (ix), a
    000003AB DD 36 FA 00      [19]  785 	ld	-6 (ix), #0x00
    000003AF C3rCDr03         [10]  786 	jp	00242$
    000003B2                        787 00241$:
    000003B2 DD 7E FF         [19]  788 	ld	a, -1 (ix)
    000003B5 3D               [ 4]  789 	dec	a
    000003B6 20 0D            [12]  790 	jr	NZ, 00243$
    000003B8 DD 7E E4         [19]  791 	ld	a, -28 (ix)
    000003BB DD 77 F9         [19]  792 	ld	-7 (ix), a
    000003BE DD 36 FA 00      [19]  793 	ld	-6 (ix), #0x00
    000003C2 C3rCDr03         [10]  794 	jp	00244$
    000003C5                        795 00243$:
    000003C5 DD 36 F9 1A      [19]  796 	ld	-7 (ix), #0x1a
    000003C9 DD 36 FA 00      [19]  797 	ld	-6 (ix), #0
    000003CD                        798 00244$:
    000003CD                        799 00242$:
    000003CD DD 7E F9         [19]  800 	ld	a, -7 (ix)
                                    801 ;E:\Dropbox\FAUSTO\SVILUPPI\MSX\CODE\C\MSXgl\projects\soccerlgMSX2/soccerlg_s16_b3.c:63: struct ObjectInfo* p = &SwSprite[actor_idx];
    000003D0 DD 77 E8         [19]  802 	ld	-24 (ix), a
    000003D3 4F               [ 4]  803 	ld	c, a
    000003D4 06 00            [ 7]  804 	ld	b, #0x00
    000003D6 69               [ 4]  805 	ld	l, c
    000003D7 60               [ 4]  806 	ld	h, b
    000003D8 29               [11]  807 	add	hl, hl
    000003D9 29               [11]  808 	add	hl, hl
    000003DA 09               [11]  809 	add	hl, bc
    000003DB 29               [11]  810 	add	hl, hl
    000003DC 09               [11]  811 	add	hl, bc
    000003DD 29               [11]  812 	add	hl, hl
    000003DE 09               [11]  813 	add	hl, bc
    000003DF DD 75 F7         [19]  814 	ld	-9 (ix), l
    000003E2 DD 74 F8         [19]  815 	ld	-8 (ix), h
    000003E5 3Er00            [ 7]  816 	ld	a, #<(_SwSprite)
    000003E7 DD 86 F7         [19]  817 	add	a, -9 (ix)
    000003EA DD 77 F9         [19]  818 	ld	-7 (ix), a
    000003ED 3Es00            [ 7]  819 	ld	a, #>(_SwSprite)
    000003EF DD 8E F8         [19]  820 	adc	a, -8 (ix)
    000003F2 DD 77 FA         [19]  821 	ld	-6 (ix), a
    000003F5 DD 7E F9         [19]  822 	ld	a, -7 (ix)
    000003F8 DD 77 E9         [19]  823 	ld	-23 (ix), a
    000003FB DD 7E FA         [19]  824 	ld	a, -6 (ix)
    000003FE DD 77 EA         [19]  825 	ld	-22 (ix), a
                                    826 ;E:\Dropbox\FAUSTO\SVILUPPI\MSX\CODE\C\MSXgl\projects\soccerlgMSX2/soccerlg_s16_b3.c:66: u8 final_tx = (actor_idx == 26) ? 62 : 120; 
    00000401 DD 7E E8         [19]  827 	ld	a, -24 (ix)
    00000404 D6 1A            [ 7]  828 	sub	a, #0x1a
    00000406 20 06            [12]  829 	jr	NZ, 00245$
    00000408 01 3E 00         [10]  830 	ld	bc, #0x003e
    0000040B C3r11r04         [10]  831 	jp	00246$
    0000040E                        832 00245$:
    0000040E 01 78 00         [10]  833 	ld	bc, #0x0078
    00000411                        834 00246$:
    00000411 DD 71 FA         [19]  835 	ld	-6 (ix), c
                                    836 ;E:\Dropbox\FAUSTO\SVILUPPI\MSX\CODE\C\MSXgl\projects\soccerlgMSX2/soccerlg_s16_b3.c:68: if (actor_idx == g_penalty_shooter_idx && p->ly > p->ty + 4) current_tx = 96;
    00000414 DD 7E E9         [19]  837 	ld	a, -23 (ix)
    00000417 C6 04            [ 7]  838 	add	a, #0x04
    00000419 DD 77 EB         [19]  839 	ld	-21 (ix), a
    0000041C DD 7E EA         [19]  840 	ld	a, -22 (ix)
    0000041F CE 00            [ 7]  841 	adc	a, #0x00
    00000421 DD 77 EC         [19]  842 	ld	-20 (ix), a
    00000424 DD 7E E9         [19]  843 	ld	a, -23 (ix)
    00000427 C6 0D            [ 7]  844 	add	a, #0x0d
    00000429 DD 77 ED         [19]  845 	ld	-19 (ix), a
    0000042C DD 7E EA         [19]  846 	ld	a, -22 (ix)
    0000042F CE 00            [ 7]  847 	adc	a, #0x00
    00000431 DD 77 EE         [19]  848 	ld	-18 (ix), a
    00000434 DD 7E E8         [19]  849 	ld	a, -24 (ix)
    00000437 21r00r00         [10]  850 	ld	hl, #_g_penalty_shooter_idx
    0000043A 96               [ 7]  851 	sub	a, (hl)
    0000043B 20 4C            [12]  852 	jr	NZ, 00119$
    0000043D DD 6E EB         [19]  853 	ld	l, -21 (ix)
    00000440 DD 66 EC         [19]  854 	ld	h, -20 (ix)
    00000443 7E               [ 7]  855 	ld	a, (hl)
    00000444 DD 77 F8         [19]  856 	ld	-8 (ix), a
    00000447 23               [ 6]  857 	inc	hl
    00000448 7E               [ 7]  858 	ld	a, (hl)
    00000449 DD 77 F9         [19]  859 	ld	-7 (ix), a
    0000044C DD 6E ED         [19]  860 	ld	l, -19 (ix)
    0000044F DD 66 EE         [19]  861 	ld	h, -18 (ix)
    00000452 7E               [ 7]  862 	ld	a, (hl)
    00000453 DD 77 F6         [19]  863 	ld	-10 (ix), a
    00000456 23               [ 6]  864 	inc	hl
    00000457 7E               [ 7]  865 	ld	a, (hl)
    00000458 DD 77 F7         [19]  866 	ld	-9 (ix), a
    0000045B DD 7E F6         [19]  867 	ld	a, -10 (ix)
    0000045E DD 77 F4         [19]  868 	ld	-12 (ix), a
    00000461 DD 7E F7         [19]  869 	ld	a, -9 (ix)
    00000464 DD 77 F5         [19]  870 	ld	-11 (ix), a
    00000467 DD 7E F4         [19]  871 	ld	a, -12 (ix)
    0000046A C6 04            [ 7]  872 	add	a, #0x04
    0000046C DD 77 F6         [19]  873 	ld	-10 (ix), a
    0000046F DD 7E F5         [19]  874 	ld	a, -11 (ix)
    00000472 CE 00            [ 7]  875 	adc	a, #0x00
    00000474 DD 77 F7         [19]  876 	ld	-9 (ix), a
    00000477 DD 7E F6         [19]  877 	ld	a, -10 (ix)
    0000047A DD 96 F8         [19]  878 	sub	a, -8 (ix)
    0000047D DD 7E F7         [19]  879 	ld	a, -9 (ix)
    00000480 DD 9E F9         [19]  880 	sbc	a, -7 (ix)
    00000483 30 04            [12]  881 	jr	NC, 00119$
    00000485 DD 36 FA 60      [19]  882 	ld	-6 (ix), #0x60
    00000489                        883 00119$:
                                    884 ;E:\Dropbox\FAUSTO\SVILUPPI\MSX\CODE\C\MSXgl\projects\soccerlgMSX2/soccerlg_s16_b3.c:69: if (actor_idx == keeper_idx && p->ly > p->ty + 4) current_tx = 144;
    00000489 DD 7E E8         [19]  885 	ld	a, -24 (ix)
    0000048C DD 96 E4         [19]  886 	sub	a, -28 (ix)
    0000048F 3E 01            [ 7]  887 	ld	a, #0x01
    00000491 28 01            [12]  888 	jr	Z, 00686$
    00000493 AF               [ 4]  889 	xor	a, a
    00000494                        890 00686$:
    00000494 DD 77 F8         [19]  891 	ld	-8 (ix), a
    00000497 B7               [ 4]  892 	or	a, a
    00000498 28 4C            [12]  893 	jr	Z, 00122$
    0000049A DD 6E EB         [19]  894 	ld	l, -21 (ix)
    0000049D DD 66 EC         [19]  895 	ld	h, -20 (ix)
    000004A0 7E               [ 7]  896 	ld	a, (hl)
    000004A1 DD 77 F6         [19]  897 	ld	-10 (ix), a
    000004A4 23               [ 6]  898 	inc	hl
    000004A5 7E               [ 7]  899 	ld	a, (hl)
    000004A6 DD 77 F7         [19]  900 	ld	-9 (ix), a
    000004A9 DD 6E ED         [19]  901 	ld	l, -19 (ix)
    000004AC DD 66 EE         [19]  902 	ld	h, -18 (ix)
    000004AF 7E               [ 7]  903 	ld	a, (hl)
    000004B0 DD 77 F4         [19]  904 	ld	-12 (ix), a
    000004B3 23               [ 6]  905 	inc	hl
    000004B4 7E               [ 7]  906 	ld	a, (hl)
    000004B5 DD 77 F5         [19]  907 	ld	-11 (ix), a
    000004B8 DD 7E F4         [19]  908 	ld	a, -12 (ix)
    000004BB DD 77 F2         [19]  909 	ld	-14 (ix), a
    000004BE DD 7E F5         [19]  910 	ld	a, -11 (ix)
    000004C1 DD 77 F3         [19]  911 	ld	-13 (ix), a
    000004C4 DD 7E F2         [19]  912 	ld	a, -14 (ix)
    000004C7 C6 04            [ 7]  913 	add	a, #0x04
    000004C9 DD 77 F4         [19]  914 	ld	-12 (ix), a
    000004CC DD 7E F3         [19]  915 	ld	a, -13 (ix)
    000004CF CE 00            [ 7]  916 	adc	a, #0x00
    000004D1 DD 77 F5         [19]  917 	ld	-11 (ix), a
    000004D4 DD 7E F4         [19]  918 	ld	a, -12 (ix)
    000004D7 DD 96 F6         [19]  919 	sub	a, -10 (ix)
    000004DA DD 7E F5         [19]  920 	ld	a, -11 (ix)
    000004DD DD 9E F7         [19]  921 	sbc	a, -9 (ix)
    000004E0 30 04            [12]  922 	jr	NC, 00122$
    000004E2 DD 36 FA 90      [19]  923 	ld	-6 (ix), #0x90
    000004E6                        924 00122$:
                                    925 ;E:\Dropbox\FAUSTO\SVILUPPI\MSX\CODE\C\MSXgl\projects\soccerlgMSX2/soccerlg_s16_b3.c:71: if (p->lx != current_tx || p->ly != p->ty) {
    000004E6 DD 6E E9         [19]  926 	ld	l, -23 (ix)
    000004E9 DD 66 EA         [19]  927 	ld	h, -22 (ix)
    000004EC 7E               [ 7]  928 	ld	a, (hl)
    000004ED DD 77 F9         [19]  929 	ld	-7 (ix), a
                                    930 ;E:\Dropbox\FAUSTO\SVILUPPI\MSX\CODE\C\MSXgl\projects\soccerlgMSX2/soccerlg_s16_b3.c:74: if (current_tx > p->lx) p->dx = (i8)((current_tx - p->lx >= 2) ? 2 : 1); 
    000004F0 DD 7E E9         [19]  931 	ld	a, -23 (ix)
    000004F3 C6 11            [ 7]  932 	add	a, #0x11
    000004F5 DD 77 EF         [19]  933 	ld	-17 (ix), a
    000004F8 DD 7E EA         [19]  934 	ld	a, -22 (ix)
    000004FB CE 00            [ 7]  935 	adc	a, #0x00
    000004FD DD 77 F0         [19]  936 	ld	-16 (ix), a
                                    937 ;E:\Dropbox\FAUSTO\SVILUPPI\MSX\CODE\C\MSXgl\projects\soccerlgMSX2/soccerlg_s16_b3.c:78: if (p->ty > p->ly) p->dy = (i8)((p->ty - p->ly >= 2) ? 2 : 1); 
    00000500 DD 7E E9         [19]  938 	ld	a, -23 (ix)
    00000503 C6 12            [ 7]  939 	add	a, #0x12
    00000505 DD 77 F1         [19]  940 	ld	-15 (ix), a
    00000508 DD 7E EA         [19]  941 	ld	a, -22 (ix)
    0000050B CE 00            [ 7]  942 	adc	a, #0x00
    0000050D DD 77 F2         [19]  943 	ld	-14 (ix), a
                                    944 ;E:\Dropbox\FAUSTO\SVILUPPI\MSX\CODE\C\MSXgl\projects\soccerlgMSX2/soccerlg_s16_b3.c:84: p->frame = CallFnc_U16_P4(SEG_GAMESTATE_9, GetPlayerAnimFrame, actor_idx, p->dx, p->dy, walk_seq[(p->anim / 3) % 4]); 
    00000510 DD 7E E9         [19]  945 	ld	a, -23 (ix)
    00000513 C6 0F            [ 7]  946 	add	a, #0x0f
    00000515 DD 77 F3         [19]  947 	ld	-13 (ix), a
    00000518 DD 7E EA         [19]  948 	ld	a, -22 (ix)
    0000051B CE 00            [ 7]  949 	adc	a, #0x00
    0000051D DD 77 F4         [19]  950 	ld	-12 (ix), a
                                    951 ;E:\Dropbox\FAUSTO\SVILUPPI\MSX\CODE\C\MSXgl\projects\soccerlgMSX2/soccerlg_s16_b3.c:71: if (p->lx != current_tx || p->ly != p->ty) {
    00000520 DD 7E FA         [19]  952 	ld	a, -6 (ix)
    00000523 DD 96 F9         [19]  953 	sub	a, -7 (ix)
    00000526 20 19            [12]  954 	jr	NZ, 00139$
    00000528 DD 6E EB         [19]  955 	ld	l, -21 (ix)
    0000052B DD 66 EC         [19]  956 	ld	h, -20 (ix)
    0000052E 4E               [ 7]  957 	ld	c, (hl)
    0000052F 23               [ 6]  958 	inc	hl
    00000530 46               [ 7]  959 	ld	b, (hl)
    00000531 DD 6E ED         [19]  960 	ld	l, -19 (ix)
    00000534 DD 66 EE         [19]  961 	ld	h, -18 (ix)
    00000537 5E               [ 7]  962 	ld	e, (hl)
    00000538 23               [ 6]  963 	inc	hl
    00000539 66               [ 7]  964 	ld	h, (hl)
                                    965 ;	spillPairReg hl
    0000053A 6B               [ 4]  966 	ld	l, e
    0000053B BF               [ 4]  967 	cp	a, a
    0000053C ED 42            [15]  968 	sbc	hl, bc
    0000053E CAr26r07         [10]  969 	jp	Z,00140$
    00000541                        970 00139$:
                                    971 ;E:\Dropbox\FAUSTO\SVILUPPI\MSX\CODE\C\MSXgl\projects\soccerlgMSX2/soccerlg_s16_b3.c:72: all_in_position = FALSE;
    00000541 DD 36 E5 00      [19]  972 	ld	-27 (ix), #0x00
                                    973 ;E:\Dropbox\FAUSTO\SVILUPPI\MSX\CODE\C\MSXgl\projects\soccerlgMSX2/soccerlg_s16_b3.c:74: if (current_tx > p->lx) p->dx = (i8)((current_tx - p->lx >= 2) ? 2 : 1); 
    00000545 DD 7E F9         [19]  974 	ld	a, -7 (ix)
    00000548 DD 96 FA         [19]  975 	sub	a, -6 (ix)
    0000054B 30 48            [12]  976 	jr	NC, 00128$
    0000054D DD 7E FA         [19]  977 	ld	a, -6 (ix)
    00000550 DD 77 F7         [19]  978 	ld	-9 (ix), a
    00000553 DD 36 F8 00      [19]  979 	ld	-8 (ix), #0x00
    00000557 DD 7E F9         [19]  980 	ld	a, -7 (ix)
    0000055A DD 77 F5         [19]  981 	ld	-11 (ix), a
    0000055D DD 36 F6 00      [19]  982 	ld	-10 (ix), #0x00
    00000561 DD 7E F7         [19]  983 	ld	a, -9 (ix)
    00000564 DD 96 F5         [19]  984 	sub	a, -11 (ix)
    00000567 DD 77 F9         [19]  985 	ld	-7 (ix), a
    0000056A DD 7E F8         [19]  986 	ld	a, -8 (ix)
    0000056D DD 9E F6         [19]  987 	sbc	a, -10 (ix)
    00000570 DD 77 FA         [19]  988 	ld	-6 (ix), a
    00000573 DD 7E F9         [19]  989 	ld	a, -7 (ix)
    00000576 D6 02            [ 7]  990 	sub	a, #0x02
    00000578 DD 7E FA         [19]  991 	ld	a, -6 (ix)
    0000057B 17               [ 4]  992 	rla
    0000057C 3F               [ 4]  993 	ccf
    0000057D 1F               [ 4]  994 	rra
    0000057E DE 80            [ 7]  995 	sbc	a, #0x80
    00000580 38 06            [12]  996 	jr	C, 00247$
    00000582 11 02 00         [10]  997 	ld	de, #0x0002
    00000585 C3r8Br05         [10]  998 	jp	00248$
    00000588                        999 00247$:
    00000588 11 01 00         [10] 1000 	ld	de, #0x0001
    0000058B                       1001 00248$:
    0000058B DD 6E EF         [19] 1002 	ld	l, -17 (ix)
    0000058E DD 66 F0         [19] 1003 	ld	h, -16 (ix)
    00000591 73               [ 7] 1004 	ld	(hl), e
    00000592 C3rEBr05         [10] 1005 	jp	00129$
    00000595                       1006 00128$:
                                   1007 ;E:\Dropbox\FAUSTO\SVILUPPI\MSX\CODE\C\MSXgl\projects\soccerlgMSX2/soccerlg_s16_b3.c:75: else if (current_tx < p->lx) p->dx = (i8)((p->lx - current_tx >= 2) ? -2 : -1); 
    00000595 DD 7E FA         [19] 1008 	ld	a, -6 (ix)
    00000598 DD 96 F9         [19] 1009 	sub	a, -7 (ix)
    0000059B 30 46            [12] 1010 	jr	NC, 00125$
    0000059D DD 7E F9         [19] 1011 	ld	a, -7 (ix)
    000005A0 DD 77 F5         [19] 1012 	ld	-11 (ix), a
    000005A3 DD 36 F6 00      [19] 1013 	ld	-10 (ix), #0x00
    000005A7 DD 7E FA         [19] 1014 	ld	a, -6 (ix)
    000005AA DD 77 F7         [19] 1015 	ld	-9 (ix), a
    000005AD DD 36 F8 00      [19] 1016 	ld	-8 (ix), #0x00
    000005B1 DD 7E F5         [19] 1017 	ld	a, -11 (ix)
    000005B4 DD 96 F7         [19] 1018 	sub	a, -9 (ix)
    000005B7 DD 77 F9         [19] 1019 	ld	-7 (ix), a
    000005BA DD 7E F6         [19] 1020 	ld	a, -10 (ix)
    000005BD DD 9E F8         [19] 1021 	sbc	a, -8 (ix)
    000005C0 DD 77 FA         [19] 1022 	ld	-6 (ix), a
    000005C3 DD 7E F9         [19] 1023 	ld	a, -7 (ix)
    000005C6 D6 02            [ 7] 1024 	sub	a, #0x02
    000005C8 DD 7E FA         [19] 1025 	ld	a, -6 (ix)
    000005CB 17               [ 4] 1026 	rla
    000005CC 3F               [ 4] 1027 	ccf
    000005CD 1F               [ 4] 1028 	rra
    000005CE DE 80            [ 7] 1029 	sbc	a, #0x80
    000005D0 38 05            [12] 1030 	jr	C, 00249$
    000005D2 3E FE            [ 7] 1031 	ld	a, #0xfe
    000005D4 C3rD9r05         [10] 1032 	jp	00250$
    000005D7                       1033 00249$:
    000005D7 3E FF            [ 7] 1034 	ld	a, #0xff
    000005D9                       1035 00250$:
    000005D9 DD 6E EF         [19] 1036 	ld	l, -17 (ix)
    000005DC DD 66 F0         [19] 1037 	ld	h, -16 (ix)
    000005DF 77               [ 7] 1038 	ld	(hl), a
    000005E0 C3rEBr05         [10] 1039 	jp	00129$
    000005E3                       1040 00125$:
                                   1041 ;E:\Dropbox\FAUSTO\SVILUPPI\MSX\CODE\C\MSXgl\projects\soccerlgMSX2/soccerlg_s16_b3.c:76: else p->dx = 0;
    000005E3 DD 6E EF         [19] 1042 	ld	l, -17 (ix)
    000005E6 DD 66 F0         [19] 1043 	ld	h, -16 (ix)
    000005E9 36 00            [10] 1044 	ld	(hl), #0x00
    000005EB                       1045 00129$:
                                   1046 ;E:\Dropbox\FAUSTO\SVILUPPI\MSX\CODE\C\MSXgl\projects\soccerlgMSX2/soccerlg_s16_b3.c:78: if (p->ty > p->ly) p->dy = (i8)((p->ty - p->ly >= 2) ? 2 : 1); 
    000005EB DD 6E ED         [19] 1047 	ld	l, -19 (ix)
    000005EE DD 66 EE         [19] 1048 	ld	h, -18 (ix)
    000005F1 7E               [ 7] 1049 	ld	a, (hl)
    000005F2 DD 77 F9         [19] 1050 	ld	-7 (ix), a
    000005F5 23               [ 6] 1051 	inc	hl
    000005F6 7E               [ 7] 1052 	ld	a, (hl)
    000005F7 DD 77 FA         [19] 1053 	ld	-6 (ix), a
    000005FA DD 6E EB         [19] 1054 	ld	l, -21 (ix)
    000005FD DD 66 EC         [19] 1055 	ld	h, -20 (ix)
    00000600 7E               [ 7] 1056 	ld	a, (hl)
    00000601 DD 77 F5         [19] 1057 	ld	-11 (ix), a
    00000604 23               [ 6] 1058 	inc	hl
    00000605 7E               [ 7] 1059 	ld	a, (hl)
    00000606 DD 77 F6         [19] 1060 	ld	-10 (ix), a
    00000609 DD 7E F5         [19] 1061 	ld	a, -11 (ix)
    0000060C DD 96 F9         [19] 1062 	sub	a, -7 (ix)
    0000060F DD 7E F6         [19] 1063 	ld	a, -10 (ix)
    00000612 DD 9E FA         [19] 1064 	sbc	a, -6 (ix)
    00000615 30 3D            [12] 1065 	jr	NC, 00134$
    00000617 DD 7E F9         [19] 1066 	ld	a, -7 (ix)
    0000061A DD 96 F5         [19] 1067 	sub	a, -11 (ix)
    0000061D DD 77 F7         [19] 1068 	ld	-9 (ix), a
    00000620 DD 7E FA         [19] 1069 	ld	a, -6 (ix)
    00000623 DD 9E F6         [19] 1070 	sbc	a, -10 (ix)
    00000626 DD 77 F8         [19] 1071 	ld	-8 (ix), a
    00000629 DD 7E F7         [19] 1072 	ld	a, -9 (ix)
    0000062C DD 77 F9         [19] 1073 	ld	-7 (ix), a
    0000062F DD 7E F8         [19] 1074 	ld	a, -8 (ix)
    00000632 DD 77 FA         [19] 1075 	ld	-6 (ix), a
    00000635 DD 7E F9         [19] 1076 	ld	a, -7 (ix)
    00000638 D6 02            [ 7] 1077 	sub	a, #0x02
    0000063A DD 7E FA         [19] 1078 	ld	a, -6 (ix)
    0000063D DE 00            [ 7] 1079 	sbc	a, #0x00
    0000063F 38 06            [12] 1080 	jr	C, 00251$
    00000641 11 02 00         [10] 1081 	ld	de, #0x0002
    00000644 C3r4Ar06         [10] 1082 	jp	00252$
    00000647                       1083 00251$:
    00000647 11 01 00         [10] 1084 	ld	de, #0x0001
    0000064A                       1085 00252$:
    0000064A DD 6E F1         [19] 1086 	ld	l, -15 (ix)
    0000064D DD 66 F2         [19] 1087 	ld	h, -14 (ix)
    00000650 73               [ 7] 1088 	ld	(hl), e
    00000651 C3r91r06         [10] 1089 	jp	00135$
    00000654                       1090 00134$:
                                   1091 ;E:\Dropbox\FAUSTO\SVILUPPI\MSX\CODE\C\MSXgl\projects\soccerlgMSX2/soccerlg_s16_b3.c:79: else if (p->ty < p->ly) p->dy = (i8)((p->ly - p->ty >= 2) ? -2 : -1); 
    00000654 DD 7E F9         [19] 1092 	ld	a, -7 (ix)
    00000657 DD 96 F5         [19] 1093 	sub	a, -11 (ix)
    0000065A DD 7E FA         [19] 1094 	ld	a, -6 (ix)
    0000065D DD 9E F6         [19] 1095 	sbc	a, -10 (ix)
    00000660 30 27            [12] 1096 	jr	NC, 00131$
    00000662 DD 7E F5         [19] 1097 	ld	a, -11 (ix)
    00000665 DD 96 F9         [19] 1098 	sub	a, -7 (ix)
    00000668 4F               [ 4] 1099 	ld	c, a
    00000669 DD 7E F6         [19] 1100 	ld	a, -10 (ix)
    0000066C DD 9E FA         [19] 1101 	sbc	a, -6 (ix)
    0000066F 47               [ 4] 1102 	ld	b, a
                                   1103 ;	spillPairReg hl
                                   1104 ;	spillPairReg hl
    00000670 79               [ 4] 1105 	ld	a, c
    00000671 D6 02            [ 7] 1106 	sub	a, #0x02
    00000673 78               [ 4] 1107 	ld	a, b
    00000674 DE 00            [ 7] 1108 	sbc	a, #0x00
    00000676 38 05            [12] 1109 	jr	C, 00253$
    00000678 3E FE            [ 7] 1110 	ld	a, #0xfe
    0000067A C3r7Fr06         [10] 1111 	jp	00254$
    0000067D                       1112 00253$:
    0000067D 3E FF            [ 7] 1113 	ld	a, #0xff
    0000067F                       1114 00254$:
    0000067F DD 6E F1         [19] 1115 	ld	l, -15 (ix)
    00000682 DD 66 F2         [19] 1116 	ld	h, -14 (ix)
    00000685 77               [ 7] 1117 	ld	(hl), a
    00000686 C3r91r06         [10] 1118 	jp	00135$
    00000689                       1119 00131$:
                                   1120 ;E:\Dropbox\FAUSTO\SVILUPPI\MSX\CODE\C\MSXgl\projects\soccerlgMSX2/soccerlg_s16_b3.c:80: else p->dy = 0;
    00000689 DD 6E F1         [19] 1121 	ld	l, -15 (ix)
    0000068C DD 66 F2         [19] 1122 	ld	h, -14 (ix)
    0000068F 36 00            [10] 1123 	ld	(hl), #0x00
    00000691                       1124 00135$:
                                   1125 ;E:\Dropbox\FAUSTO\SVILUPPI\MSX\CODE\C\MSXgl\projects\soccerlgMSX2/soccerlg_s16_b3.c:82: p->lx += p->dx; p->ly += p->dy; p->anim++;
    00000691 DD 6E E9         [19] 1126 	ld	l, -23 (ix)
    00000694 DD 66 EA         [19] 1127 	ld	h, -22 (ix)
    00000697 7E               [ 7] 1128 	ld	a, (hl)
    00000698 DD 6E EF         [19] 1129 	ld	l, -17 (ix)
    0000069B DD 66 F0         [19] 1130 	ld	h, -16 (ix)
    0000069E 4E               [ 7] 1131 	ld	c, (hl)
    0000069F 81               [ 4] 1132 	add	a, c
    000006A0 DD 6E E9         [19] 1133 	ld	l, -23 (ix)
    000006A3 DD 66 EA         [19] 1134 	ld	h, -22 (ix)
    000006A6 77               [ 7] 1135 	ld	(hl), a
    000006A7 DD 6E EB         [19] 1136 	ld	l, -21 (ix)
    000006AA DD 66 EC         [19] 1137 	ld	h, -20 (ix)
    000006AD 4E               [ 7] 1138 	ld	c, (hl)
    000006AE 23               [ 6] 1139 	inc	hl
    000006AF 46               [ 7] 1140 	ld	b, (hl)
    000006B0 DD 6E F1         [19] 1141 	ld	l, -15 (ix)
    000006B3 DD 66 F2         [19] 1142 	ld	h, -14 (ix)
    000006B6 7E               [ 7] 1143 	ld	a, (hl)
    000006B7 6F               [ 4] 1144 	ld	l, a
                                   1145 ;	spillPairReg hl
                                   1146 ;	spillPairReg hl
    000006B8 07               [ 4] 1147 	rlca
    000006B9 9F               [ 4] 1148 	sbc	a, a
    000006BA 67               [ 4] 1149 	ld	h, a
                                   1150 ;	spillPairReg hl
                                   1151 ;	spillPairReg hl
    000006BB 09               [11] 1152 	add	hl, bc
    000006BC EB               [ 4] 1153 	ex	de, hl
    000006BD DD 6E EB         [19] 1154 	ld	l, -21 (ix)
    000006C0 DD 66 EC         [19] 1155 	ld	h, -20 (ix)
    000006C3 73               [ 7] 1156 	ld	(hl), e
    000006C4 23               [ 6] 1157 	inc	hl
    000006C5 72               [ 7] 1158 	ld	(hl), d
    000006C6 DD 6E E9         [19] 1159 	ld	l, -23 (ix)
    000006C9 DD 66 EA         [19] 1160 	ld	h, -22 (ix)
    000006CC 11 13 00         [10] 1161 	ld	de, #0x0013
    000006CF 19               [11] 1162 	add	hl, de
    000006D0 5E               [ 7] 1163 	ld	e, (hl)
    000006D1 23               [ 6] 1164 	inc	hl
    000006D2 56               [ 7] 1165 	ld	d, (hl)
    000006D3 2B               [ 6] 1166 	dec	hl
    000006D4 13               [ 6] 1167 	inc	de
    000006D5 73               [ 7] 1168 	ld	(hl), e
    000006D6 23               [ 6] 1169 	inc	hl
    000006D7 72               [ 7] 1170 	ld	(hl), d
                                   1171 ;E:\Dropbox\FAUSTO\SVILUPPI\MSX\CODE\C\MSXgl\projects\soccerlgMSX2/soccerlg_s16_b3.c:83: const u8 walk_seq[4] = {0, 1, 2, 1};
    000006D8 DD 36 E0 00      [19] 1172 	ld	-32 (ix), #0x00
    000006DC DD 36 E1 01      [19] 1173 	ld	-31 (ix), #0x01
    000006E0 DD 36 E2 02      [19] 1174 	ld	-30 (ix), #0x02
    000006E4 DD 36 E3 01      [19] 1175 	ld	-29 (ix), #0x01
                                   1176 ;E:\Dropbox\FAUSTO\SVILUPPI\MSX\CODE\C\MSXgl\projects\soccerlgMSX2/soccerlg_s16_b3.c:84: p->frame = CallFnc_U16_P4(SEG_GAMESTATE_9, GetPlayerAnimFrame, actor_idx, p->dx, p->dy, walk_seq[(p->anim / 3) % 4]); 
    000006E8 EB               [ 4] 1177 	ex	de, hl
    000006E9 11 03 00         [10] 1178 	ld	de, #0x0003
    000006EC CDr00r00         [17] 1179 	call	__divuint
    000006EF 7B               [ 4] 1180 	ld	a, e
    000006F0 E6 03            [ 7] 1181 	and	a, #0x03
    000006F2 4F               [ 4] 1182 	ld	c, a
    000006F3 06 00            [ 7] 1183 	ld	b, #0x00
    000006F5 21 00 00         [10] 1184 	ld	hl, #0
    000006F8 39               [11] 1185 	add	hl, sp
    000006F9 09               [11] 1186 	add	hl, bc
    000006FA 7E               [ 7] 1187 	ld	a, (hl)
    000006FB DD 6E F1         [19] 1188 	ld	l, -15 (ix)
    000006FE DD 66 F2         [19] 1189 	ld	h, -14 (ix)
    00000701 46               [ 7] 1190 	ld	b, (hl)
    00000702 DD 6E EF         [19] 1191 	ld	l, -17 (ix)
    00000705 DD 66 F0         [19] 1192 	ld	h, -16 (ix)
    00000708 56               [ 7] 1193 	ld	d, (hl)
    00000709 F5               [11] 1194 	push	af
    0000070A 33               [ 6] 1195 	inc	sp
    0000070B 4A               [ 4] 1196 	ld	c, d
    0000070C C5               [11] 1197 	push	bc
    0000070D DD 7E E8         [19] 1198 	ld	a, -24 (ix)
    00000710 F5               [11] 1199 	push	af
    00000711 33               [ 6] 1200 	inc	sp
    00000712 11r00r00         [10] 1201 	ld	de, #_GetPlayerAnimFrame
    00000715 3E 13            [ 7] 1202 	ld	a, #0x13
    00000717 CDr00r00         [17] 1203 	call	_CallFnc_U16_P4
    0000071A DD 6E F3         [19] 1204 	ld	l, -13 (ix)
    0000071D DD 66 F4         [19] 1205 	ld	h, -12 (ix)
    00000720 73               [ 7] 1206 	ld	(hl), e
    00000721 23               [ 6] 1207 	inc	hl
    00000722 72               [ 7] 1208 	ld	(hl), d
    00000723 C3r8Br07         [10] 1209 	jp	00227$
    00000726                       1210 00140$:
                                   1211 ;E:\Dropbox\FAUSTO\SVILUPPI\MSX\CODE\C\MSXgl\projects\soccerlgMSX2/soccerlg_s16_b3.c:86: p->dx = 0; p->dy = 0;
    00000726 DD 6E EF         [19] 1212 	ld	l, -17 (ix)
    00000729 DD 66 F0         [19] 1213 	ld	h, -16 (ix)
    0000072C 36 00            [10] 1214 	ld	(hl), #0x00
    0000072E DD 6E F1         [19] 1215 	ld	l, -15 (ix)
    00000731 DD 66 F2         [19] 1216 	ld	h, -14 (ix)
    00000734 36 00            [10] 1217 	ld	(hl), #0x00
                                   1218 ;E:\Dropbox\FAUSTO\SVILUPPI\MSX\CODE\C\MSXgl\projects\soccerlgMSX2/soccerlg_s16_b3.c:87: if (actor_idx == keeper_idx) {
    00000736 DD 7E F8         [19] 1219 	ld	a, -8 (ix)
    00000739 B7               [ 4] 1220 	or	a, a
    0000073A 28 32            [12] 1221 	jr	Z, 00137$
                                   1222 ;E:\Dropbox\FAUSTO\SVILUPPI\MSX\CODE\C\MSXgl\projects\soccerlgMSX2/soccerlg_s16_b3.c:88: p->anim++;
    0000073C DD 6E E9         [19] 1223 	ld	l, -23 (ix)
    0000073F DD 66 EA         [19] 1224 	ld	h, -22 (ix)
    00000742 11 13 00         [10] 1225 	ld	de, #0x0013
    00000745 19               [11] 1226 	add	hl, de
    00000746 5E               [ 7] 1227 	ld	e, (hl)
    00000747 23               [ 6] 1228 	inc	hl
    00000748 56               [ 7] 1229 	ld	d, (hl)
    00000749 2B               [ 6] 1230 	dec	hl
    0000074A 13               [ 6] 1231 	inc	de
    0000074B 73               [ 7] 1232 	ld	(hl), e
    0000074C 23               [ 6] 1233 	inc	hl
    0000074D 72               [ 7] 1234 	ld	(hl), d
                                   1235 ;E:\Dropbox\FAUSTO\SVILUPPI\MSX\CODE\C\MSXgl\projects\soccerlgMSX2/soccerlg_s16_b3.c:89: p->frame = ((p->anim / 15) % 2 == 0) ? SPR_GK_PLAYER_SOUTH_1 : SPR_GK_PLAYER_SOUTH_2;
    0000074E EB               [ 4] 1236 	ex	de, hl
    0000074F 11 0F 00         [10] 1237 	ld	de, #0x000f
    00000752 CDr00r00         [17] 1238 	call	__divuint
    00000755 CB 43            [ 8] 1239 	bit	0, e
    00000757 20 06            [12] 1240 	jr	NZ, 00255$
    00000759 01 F3 00         [10] 1241 	ld	bc, #0x00f3
    0000075C C3r62r07         [10] 1242 	jp	00256$
    0000075F                       1243 00255$:
    0000075F 01 F4 00         [10] 1244 	ld	bc, #0x00f4
    00000762                       1245 00256$:
    00000762 DD 6E F3         [19] 1246 	ld	l, -13 (ix)
    00000765 DD 66 F4         [19] 1247 	ld	h, -12 (ix)
    00000768 71               [ 7] 1248 	ld	(hl), c
    00000769 23               [ 6] 1249 	inc	hl
    0000076A 70               [ 7] 1250 	ld	(hl), b
    0000076B C3r8Br07         [10] 1251 	jp	00227$
    0000076E                       1252 00137$:
                                   1253 ;E:\Dropbox\FAUSTO\SVILUPPI\MSX\CODE\C\MSXgl\projects\soccerlgMSX2/soccerlg_s16_b3.c:91: p->frame = CallFnc_U16_P3(SEG_GAMESTATE_9, GetPlayerIdleFrame, actor_idx, 0, (i8)-1);
    0000076E 3E FF            [ 7] 1254 	ld	a, #0xff
    00000770 F5               [11] 1255 	push	af
    00000771 33               [ 6] 1256 	inc	sp
    00000772 AF               [ 4] 1257 	xor	a, a
    00000773 F5               [11] 1258 	push	af
    00000774 33               [ 6] 1259 	inc	sp
    00000775 DD 7E E8         [19] 1260 	ld	a, -24 (ix)
    00000778 F5               [11] 1261 	push	af
    00000779 33               [ 6] 1262 	inc	sp
    0000077A 11r00r00         [10] 1263 	ld	de, #_GetPlayerIdleFrame
    0000077D 3E 13            [ 7] 1264 	ld	a, #0x13
    0000077F CDr00r00         [17] 1265 	call	_CallFnc_U16_P3
    00000782 DD 6E F3         [19] 1266 	ld	l, -13 (ix)
    00000785 DD 66 F4         [19] 1267 	ld	h, -12 (ix)
    00000788 73               [ 7] 1268 	ld	(hl), e
    00000789 23               [ 6] 1269 	inc	hl
    0000078A 72               [ 7] 1270 	ld	(hl), d
    0000078B                       1271 00227$:
                                   1272 ;E:\Dropbox\FAUSTO\SVILUPPI\MSX\CODE\C\MSXgl\projects\soccerlgMSX2/soccerlg_s16_b3.c:61: for(u8 i=0; i<3; i++) {
    0000078B DD 34 FF         [23] 1273 	inc	-1 (ix)
    0000078E C3r97r03         [10] 1274 	jp	00226$
    00000791                       1275 00143$:
                                   1276 ;E:\Dropbox\FAUSTO\SVILUPPI\MSX\CODE\C\MSXgl\projects\soccerlgMSX2/soccerlg_s16_b3.c:96: if (all_in_position) {
    00000791 DD 7E E5         [19] 1277 	ld	a, -27 (ix)
    00000794 B7               [ 4] 1278 	or	a, a
    00000795 CArA1r0C         [10] 1279 	jp	Z, 00219$
                                   1280 ;E:\Dropbox\FAUSTO\SVILUPPI\MSX\CODE\C\MSXgl\projects\soccerlgMSX2/soccerlg_s16_b3.c:97: CallFnc_VOID(SEG_EVENTS, EventPenaltyWhistle);
    00000798 11r00r00         [10] 1281 	ld	de, #_EventPenaltyWhistle
    0000079B 3E 08            [ 7] 1282 	ld	a, #0x08
    0000079D CDr00r00         [17] 1283 	call	_CallFnc_VOID
                                   1284 ;E:\Dropbox\FAUSTO\SVILUPPI\MSX\CODE\C\MSXgl\projects\soccerlgMSX2/soccerlg_s16_b3.c:98: *wait_secs = 5; *start_sec = Frms;
    000007A0 DD 6E FB         [19] 1285 	ld	l, -5 (ix)
    000007A3 DD 66 FC         [19] 1286 	ld	h, -4 (ix)
    000007A6 36 05            [10] 1287 	ld	(hl), #0x05
    000007A8 DD 4E 04         [19] 1288 	ld	c, 4 (ix)
    000007AB DD 46 05         [19] 1289 	ld	b, 5 (ix)
    000007AE 3Ar00r00         [13] 1290 	ld	a, (_Frms+0)
    000007B1 02               [ 7] 1291 	ld	(bc), a
                                   1292 ;E:\Dropbox\FAUSTO\SVILUPPI\MSX\CODE\C\MSXgl\projects\soccerlgMSX2/soccerlg_s16_b3.c:99: SwSprite[keeper_idx].dx = 1; // Default fermo al centro per il portiere
    000007B2 DD 6E E6         [19] 1293 	ld	l, -26 (ix)
    000007B5 DD 66 E7         [19] 1294 	ld	h, -25 (ix)
    000007B8 11 11 00         [10] 1295 	ld	de, #0x0011
    000007BB 19               [11] 1296 	add	hl, de
    000007BC 36 01            [10] 1297 	ld	(hl), #0x01
                                   1298 ;E:\Dropbox\FAUSTO\SVILUPPI\MSX\CODE\C\MSXgl\projects\soccerlgMSX2/soccerlg_s16_b3.c:100: SwSprite[g_penalty_shooter_idx].dx = 1; // Default dritto per il tiratore
    000007BE ED 4Br00r00      [20] 1299 	ld	bc, (_g_penalty_shooter_idx)
    000007C2 06 00            [ 7] 1300 	ld	b, #0x00
    000007C4 69               [ 4] 1301 	ld	l, c
    000007C5 60               [ 4] 1302 	ld	h, b
    000007C6 29               [11] 1303 	add	hl, hl
    000007C7 29               [11] 1304 	add	hl, hl
    000007C8 09               [11] 1305 	add	hl, bc
    000007C9 29               [11] 1306 	add	hl, hl
    000007CA 09               [11] 1307 	add	hl, bc
    000007CB 29               [11] 1308 	add	hl, hl
    000007CC 09               [11] 1309 	add	hl, bc
    000007CD 11r00r00         [10] 1310 	ld	de, #_SwSprite
    000007D0 19               [11] 1311 	add	hl, de
    000007D1 01 11 00         [10] 1312 	ld	bc, #0x0011
    000007D4 09               [11] 1313 	add	hl, bc
    000007D5 36 01            [10] 1314 	ld	(hl), #0x01
                                   1315 ;E:\Dropbox\FAUSTO\SVILUPPI\MSX\CODE\C\MSXgl\projects\soccerlgMSX2/soccerlg_s16_b3.c:101: *game_state = 14;
    000007D7 DD 6E FD         [19] 1316 	ld	l, -3 (ix)
    000007DA DD 66 FE         [19] 1317 	ld	h, -2 (ix)
    000007DD 36 0E            [10] 1318 	ld	(hl), #0x0e
    000007DF C3rA1r0C         [10] 1319 	jp	00219$
    000007E2                       1320 00215$:
                                   1321 ;E:\Dropbox\FAUSTO\SVILUPPI\MSX\CODE\C\MSXgl\projects\soccerlgMSX2/soccerlg_s16_b3.c:104: else if(*game_state == 14) { // STATO 14: Mira e Tiro
    000007E2 DD 7E FF         [19] 1322 	ld	a, -1 (ix)
    000007E5 D6 0E            [ 7] 1323 	sub	a, #0x0e
    000007E7 C2rA1r0C         [10] 1324 	jp	NZ,00219$
                                   1325 ;E:\Dropbox\FAUSTO\SVILUPPI\MSX\CODE\C\MSXgl\projects\soccerlgMSX2/soccerlg_s16_b3.c:105: struct ObjectInfo* Keeper = &SwSprite[keeper_idx];
    000007EA DD 4E E4         [19] 1326 	ld	c, -28 (ix)
    000007ED 06 00            [ 7] 1327 	ld	b, #0x00
    000007EF 69               [ 4] 1328 	ld	l, c
    000007F0 60               [ 4] 1329 	ld	h, b
    000007F1 29               [11] 1330 	add	hl, hl
    000007F2 29               [11] 1331 	add	hl, hl
    000007F3 09               [11] 1332 	add	hl, bc
    000007F4 29               [11] 1333 	add	hl, hl
    000007F5 09               [11] 1334 	add	hl, bc
    000007F6 29               [11] 1335 	add	hl, hl
    000007F7 09               [11] 1336 	add	hl, bc
    000007F8 11r00r00         [10] 1337 	ld	de, #_SwSprite
    000007FB 19               [11] 1338 	add	hl, de
    000007FC DD 75 F0         [19] 1339 	ld	-16 (ix), l
    000007FF DD 74 F1         [19] 1340 	ld	-15 (ix), h
                                   1341 ;E:\Dropbox\FAUSTO\SVILUPPI\MSX\CODE\C\MSXgl\projects\soccerlgMSX2/soccerlg_s16_b3.c:106: u8 keeper_team_idx = (keeper_idx == 0) ? 0 : 1;
    00000802 DD 7E E4         [19] 1342 	ld	a, -28 (ix)
    00000805 B7               [ 4] 1343 	or	a, a
    00000806 20 06            [12] 1344 	jr	NZ, 00257$
    00000808 01 00 00         [10] 1345 	ld	bc, #0x0000
    0000080B C3r11r08         [10] 1346 	jp	00258$
    0000080E                       1347 00257$:
    0000080E 01 01 00         [10] 1348 	ld	bc, #0x0001
    00000811                       1349 00258$:
                                   1350 ;E:\Dropbox\FAUSTO\SVILUPPI\MSX\CODE\C\MSXgl\projects\soccerlgMSX2/soccerlg_s16_b3.c:107: bool is_keeper_human = (keeper_team_idx == TEAM_2) || (keeper_team_idx == TEAM_1 && GameMode == GAMEMODE_P1_VS_P2);
    00000811 DD 71 F2         [19] 1351 	ld	-14 (ix), c
    00000814 79               [ 4] 1352 	ld	a, c
    00000815 3D               [ 4] 1353 	dec	a
    00000816 28 10            [12] 1354 	jr	Z, 00260$
    00000818 DD 7E F2         [19] 1355 	ld	a, -14 (ix)
    0000081B B7               [ 4] 1356 	or	a, a
    0000081C 20 06            [12] 1357 	jr	NZ, 00259$
    0000081E 3Ar00r00         [13] 1358 	ld	a, (_GameMode+0)
    00000821 3D               [ 4] 1359 	dec	a
    00000822 28 04            [12] 1360 	jr	Z, 00260$
    00000824                       1361 00259$:
    00000824 AF               [ 4] 1362 	xor	a, a
    00000825 C3r2Ar08         [10] 1363 	jp	00261$
    00000828                       1364 00260$:
    00000828 3E 01            [ 7] 1365 	ld	a, #0x01
    0000082A                       1366 00261$:
    0000082A DD 77 F3         [19] 1367 	ld	-13 (ix), a
                                   1368 ;E:\Dropbox\FAUSTO\SVILUPPI\MSX\CODE\C\MSXgl\projects\soccerlgMSX2/soccerlg_s16_b3.c:108: bool is_shooter_human = (g_penalty_team == TEAM_2) || (g_penalty_team == TEAM_1 && GameMode == GAMEMODE_P1_VS_P2);
    0000082D 3Ar00r00         [13] 1369 	ld	a, (_g_penalty_team+0)
    00000830 3D               [ 4] 1370 	dec	a
    00000831 28 10            [12] 1371 	jr	Z, 00266$
    00000833 3Ar00r00         [13] 1372 	ld	a, (_g_penalty_team+0)
    00000836 B7               [ 4] 1373 	or	a, a
    00000837 20 06            [12] 1374 	jr	NZ, 00265$
    00000839 3Ar00r00         [13] 1375 	ld	a, (_GameMode+0)
    0000083C 3D               [ 4] 1376 	dec	a
    0000083D 28 04            [12] 1377 	jr	Z, 00266$
    0000083F                       1378 00265$:
    0000083F AF               [ 4] 1379 	xor	a, a
    00000840 C3r45r08         [10] 1380 	jp	00267$
    00000843                       1381 00266$:
    00000843 3E 01            [ 7] 1382 	ld	a, #0x01
    00000845                       1383 00267$:
    00000845 DD 77 F4         [19] 1384 	ld	-12 (ix), a
                                   1385 ;E:\Dropbox\FAUSTO\SVILUPPI\MSX\CODE\C\MSXgl\projects\soccerlgMSX2/soccerlg_s16_b3.c:109: bool do_shot = FALSE;
    00000848 DD 36 F5 00      [19] 1386 	ld	-11 (ix), #0x00
                                   1387 ;E:\Dropbox\FAUSTO\SVILUPPI\MSX\CODE\C\MSXgl\projects\soccerlgMSX2/soccerlg_s16_b3.c:110: u8 shot_dir = 1; // 0=sx, 1=centro, 2=dx
    0000084C DD 36 F6 01      [19] 1388 	ld	-10 (ix), #0x01
                                   1389 ;E:\Dropbox\FAUSTO\SVILUPPI\MSX\CODE\C\MSXgl\projects\soccerlgMSX2/soccerlg_s16_b3.c:113: SwSprite[25].ly = 1000;
    00000850 21 E8 03         [10] 1390 	ld	hl, #0x03e8
    00000853 22r43r02         [16] 1391 	ld	((_SwSprite + 579)), hl
                                   1392 ;E:\Dropbox\FAUSTO\SVILUPPI\MSX\CODE\C\MSXgl\projects\soccerlgMSX2/soccerlg_s16_b3.c:116: if(is_keeper_human) {
    00000856 DD 7E F3         [19] 1393 	ld	a, -13 (ix)
    00000859 B7               [ 4] 1394 	or	a, a
    0000085A 28 3E            [12] 1395 	jr	Z, 00157$
                                   1396 ;E:\Dropbox\FAUSTO\SVILUPPI\MSX\CODE\C\MSXgl\projects\soccerlgMSX2/soccerlg_s16_b3.c:117: u8 k_dir = g_player_input[keeper_team_idx].direction;
    0000085C 01r00r00         [10] 1397 	ld	bc, #_g_player_input+0
    0000085F DD 5E F2         [19] 1398 	ld	e, -14 (ix)
    00000862 16 00            [ 7] 1399 	ld	d, #0x00
    00000864 6B               [ 4] 1400 	ld	l, e
    00000865 62               [ 4] 1401 	ld	h, d
    00000866 29               [11] 1402 	add	hl, hl
    00000867 19               [11] 1403 	add	hl, de
    00000868 09               [11] 1404 	add	hl, bc
    00000869 4E               [ 7] 1405 	ld	c, (hl)
                                   1406 ;E:\Dropbox\FAUSTO\SVILUPPI\MSX\CODE\C\MSXgl\projects\soccerlgMSX2/soccerlg_s16_b3.c:118: if(k_dir == DIRECTION_LEFT || k_dir == DIRECTION_UP_LEFT || k_dir == DIRECTION_DOWN_LEFT) Keeper->dx = 0; // Sinistra del tiratore (Ovest)
    0000086A DD 6E F0         [19] 1407 	ld	l, -16 (ix)
    0000086D DD 66 F1         [19] 1408 	ld	h, -15 (ix)
    00000870 11 11 00         [10] 1409 	ld	de, #0x0011
    00000873 19               [11] 1410 	add	hl, de
    00000874 79               [ 4] 1411 	ld	a,c
    00000875 FE 07            [ 7] 1412 	cp	a,#0x07
    00000877 28 08            [12] 1413 	jr	Z, 00151$
    00000879 FE 08            [ 7] 1414 	cp	a,#0x08
    0000087B 28 04            [12] 1415 	jr	Z, 00151$
    0000087D D6 06            [ 7] 1416 	sub	a, #0x06
    0000087F 20 05            [12] 1417 	jr	NZ, 00152$
    00000881                       1418 00151$:
    00000881 36 00            [10] 1419 	ld	(hl), #0x00
    00000883 C3r9Ar08         [10] 1420 	jp	00157$
    00000886                       1421 00152$:
                                   1422 ;E:\Dropbox\FAUSTO\SVILUPPI\MSX\CODE\C\MSXgl\projects\soccerlgMSX2/soccerlg_s16_b3.c:119: else if (k_dir == DIRECTION_RIGHT || k_dir == DIRECTION_UP_RIGHT || k_dir == DIRECTION_DOWN_RIGHT) Keeper->dx = 2; // Destra del tiratore (Est)
    00000886 79               [ 4] 1423 	ld	a,c
    00000887 FE 03            [ 7] 1424 	cp	a,#0x03
    00000889 28 08            [12] 1425 	jr	Z, 00146$
    0000088B FE 02            [ 7] 1426 	cp	a,#0x02
    0000088D 28 04            [12] 1427 	jr	Z, 00146$
    0000088F D6 04            [ 7] 1428 	sub	a, #0x04
    00000891 20 05            [12] 1429 	jr	NZ, 00147$
    00000893                       1430 00146$:
    00000893 36 02            [10] 1431 	ld	(hl), #0x02
    00000895 C3r9Ar08         [10] 1432 	jp	00157$
    00000898                       1433 00147$:
                                   1434 ;E:\Dropbox\FAUSTO\SVILUPPI\MSX\CODE\C\MSXgl\projects\soccerlgMSX2/soccerlg_s16_b3.c:120: else Keeper->dx = 1; // Nessuna direzione = Fermo al centro
    00000898 36 01            [10] 1435 	ld	(hl), #0x01
    0000089A                       1436 00157$:
                                   1437 ;E:\Dropbox\FAUSTO\SVILUPPI\MSX\CODE\C\MSXgl\projects\soccerlgMSX2/soccerlg_s16_b3.c:124: struct ObjectInfo* Shooter = &SwSprite[g_penalty_shooter_idx];
    0000089A ED 4Br00r00      [20] 1438 	ld	bc, (_g_penalty_shooter_idx)
    0000089E 06 00            [ 7] 1439 	ld	b, #0x00
    000008A0 69               [ 4] 1440 	ld	l, c
    000008A1 60               [ 4] 1441 	ld	h, b
    000008A2 29               [11] 1442 	add	hl, hl
    000008A3 29               [11] 1443 	add	hl, hl
    000008A4 09               [11] 1444 	add	hl, bc
    000008A5 29               [11] 1445 	add	hl, hl
    000008A6 09               [11] 1446 	add	hl, bc
    000008A7 29               [11] 1447 	add	hl, hl
    000008A8 09               [11] 1448 	add	hl, bc
    000008A9 11r00r00         [10] 1449 	ld	de, #_SwSprite
    000008AC 19               [11] 1450 	add	hl, de
    000008AD DD 75 F7         [19] 1451 	ld	-9 (ix), l
    000008B0 DD 74 F8         [19] 1452 	ld	-8 (ix), h
                                   1453 ;E:\Dropbox\FAUSTO\SVILUPPI\MSX\CODE\C\MSXgl\projects\soccerlgMSX2/soccerlg_s16_b3.c:125: if(is_shooter_human) {
    000008B3 DD 7E F4         [19] 1454 	ld	a, -12 (ix)
    000008B6 B7               [ 4] 1455 	or	a, a
    000008B7 CAr7Er09         [10] 1456 	jp	Z, 00175$
                                   1457 ;E:\Dropbox\FAUSTO\SVILUPPI\MSX\CODE\C\MSXgl\projects\soccerlgMSX2/soccerlg_s16_b3.c:126: u8 dir = g_player_input[g_penalty_team].direction;
    000008BA ED 4Br00r00      [20] 1458 	ld	bc, (_g_penalty_team)
    000008BE 06 00            [ 7] 1459 	ld	b, #0x00
    000008C0 69               [ 4] 1460 	ld	l, c
    000008C1 60               [ 4] 1461 	ld	h, b
    000008C2 29               [11] 1462 	add	hl, hl
    000008C3 09               [11] 1463 	add	hl, bc
    000008C4 DD 75 EE         [19] 1464 	ld	-18 (ix), l
    000008C7 DD 74 EF         [19] 1465 	ld	-17 (ix), h
    000008CA 3Er00            [ 7] 1466 	ld	a, #<(_g_player_input)
    000008CC DD 86 EE         [19] 1467 	add	a, -18 (ix)
    000008CF DD 77 F9         [19] 1468 	ld	-7 (ix), a
    000008D2 3Es00            [ 7] 1469 	ld	a, #>(_g_player_input)
    000008D4 DD 8E EF         [19] 1470 	adc	a, -17 (ix)
    000008D7 DD 77 FA         [19] 1471 	ld	-6 (ix), a
    000008DA DD 6E F9         [19] 1472 	ld	l, -7 (ix)
    000008DD DD 66 FA         [19] 1473 	ld	h, -6 (ix)
    000008E0 7E               [ 7] 1474 	ld	a, (hl)
    000008E1 DD 77 FF         [19] 1475 	ld	-1 (ix), a
                                   1476 ;E:\Dropbox\FAUSTO\SVILUPPI\MSX\CODE\C\MSXgl\projects\soccerlgMSX2/soccerlg_s16_b3.c:127: if(dir == DIRECTION_LEFT || dir == DIRECTION_UP_LEFT || dir == DIRECTION_DOWN_LEFT) Shooter->dx = 0; // Sinistra
    000008E4 DD 7E F7         [19] 1477 	ld	a, -9 (ix)
    000008E7 C6 11            [ 7] 1478 	add	a, #0x11
    000008E9 DD 77 F9         [19] 1479 	ld	-7 (ix), a
    000008EC DD 7E F8         [19] 1480 	ld	a, -8 (ix)
    000008EF CE 00            [ 7] 1481 	adc	a, #0x00
    000008F1 DD 77 FA         [19] 1482 	ld	-6 (ix), a
    000008F4 DD 7E FF         [19] 1483 	ld	a, -1 (ix)
    000008F7 D6 07            [ 7] 1484 	sub	a, #0x07
    000008F9 28 0E            [12] 1485 	jr	Z, 00165$
    000008FB DD 7E FF         [19] 1486 	ld	a, -1 (ix)
    000008FE D6 08            [ 7] 1487 	sub	a, #0x08
    00000900 28 07            [12] 1488 	jr	Z, 00165$
    00000902 DD 7E FF         [19] 1489 	ld	a, -1 (ix)
    00000905 D6 06            [ 7] 1490 	sub	a, #0x06
    00000907 20 0B            [12] 1491 	jr	NZ, 00166$
    00000909                       1492 00165$:
    00000909 DD 6E F9         [19] 1493 	ld	l, -7 (ix)
    0000090C DD 66 FA         [19] 1494 	ld	h, -6 (ix)
    0000090F 36 00            [10] 1495 	ld	(hl), #0x00
    00000911 C3r42r09         [10] 1496 	jp	00167$
    00000914                       1497 00166$:
                                   1498 ;E:\Dropbox\FAUSTO\SVILUPPI\MSX\CODE\C\MSXgl\projects\soccerlgMSX2/soccerlg_s16_b3.c:128: else if(dir == DIRECTION_RIGHT || dir == DIRECTION_UP_RIGHT || dir == DIRECTION_DOWN_RIGHT) Shooter->dx = 2; // Destra
    00000914 DD 7E FF         [19] 1499 	ld	a, -1 (ix)
    00000917 D6 03            [ 7] 1500 	sub	a, #0x03
    00000919 28 0E            [12] 1501 	jr	Z, 00160$
    0000091B DD 7E FF         [19] 1502 	ld	a, -1 (ix)
    0000091E D6 02            [ 7] 1503 	sub	a, #0x02
    00000920 28 07            [12] 1504 	jr	Z, 00160$
    00000922 DD 7E FF         [19] 1505 	ld	a, -1 (ix)
    00000925 D6 04            [ 7] 1506 	sub	a, #0x04
    00000927 20 0B            [12] 1507 	jr	NZ, 00161$
    00000929                       1508 00160$:
    00000929 DD 6E F9         [19] 1509 	ld	l, -7 (ix)
    0000092C DD 66 FA         [19] 1510 	ld	h, -6 (ix)
    0000092F 36 02            [10] 1511 	ld	(hl), #0x02
    00000931 C3r42r09         [10] 1512 	jp	00167$
    00000934                       1513 00161$:
                                   1514 ;E:\Dropbox\FAUSTO\SVILUPPI\MSX\CODE\C\MSXgl\projects\soccerlgMSX2/soccerlg_s16_b3.c:129: else if(dir != DIRECTION_NONE) Shooter->dx = 1; // Premendo Su o Giù si reimposta il tiro dritto
    00000934 DD 7E FF         [19] 1515 	ld	a, -1 (ix)
    00000937 B7               [ 4] 1516 	or	a, a
    00000938 28 08            [12] 1517 	jr	Z, 00167$
    0000093A DD 6E F9         [19] 1518 	ld	l, -7 (ix)
    0000093D DD 66 FA         [19] 1519 	ld	h, -6 (ix)
    00000940 36 01            [10] 1520 	ld	(hl), #0x01
    00000942                       1521 00167$:
                                   1522 ;E:\Dropbox\FAUSTO\SVILUPPI\MSX\CODE\C\MSXgl\projects\soccerlgMSX2/soccerlg_s16_b3.c:132: shot_dir = Shooter->dx;
    00000942 DD 6E F9         [19] 1523 	ld	l, -7 (ix)
    00000945 DD 66 FA         [19] 1524 	ld	h, -6 (ix)
    00000948 7E               [ 7] 1525 	ld	a, (hl)
    00000949 DD 77 F6         [19] 1526 	ld	-10 (ix), a
                                   1527 ;E:\Dropbox\FAUSTO\SVILUPPI\MSX\CODE\C\MSXgl\projects\soccerlgMSX2/soccerlg_s16_b3.c:134: if(g_player_input[g_penalty_team].trigger_pressed) do_shot = TRUE; // Impedisce tiri accidentali
    0000094C ED 4Br00r00      [20] 1528 	ld	bc, (_g_penalty_team)
    00000950 06 00            [ 7] 1529 	ld	b, #0x00
    00000952 69               [ 4] 1530 	ld	l, c
    00000953 60               [ 4] 1531 	ld	h, b
    00000954 29               [11] 1532 	add	hl, hl
    00000955 09               [11] 1533 	add	hl, bc
    00000956 DD 75 EE         [19] 1534 	ld	-18 (ix), l
    00000959 DD 74 EF         [19] 1535 	ld	-17 (ix), h
    0000095C 3Er00            [ 7] 1536 	ld	a, #<(_g_player_input)
    0000095E DD 86 EE         [19] 1537 	add	a, -18 (ix)
    00000961 DD 77 F9         [19] 1538 	ld	-7 (ix), a
    00000964 3Es00            [ 7] 1539 	ld	a, #>(_g_player_input)
    00000966 DD 8E EF         [19] 1540 	adc	a, -17 (ix)
    00000969 DD 77 FA         [19] 1541 	ld	-6 (ix), a
    0000096C DD 6E F9         [19] 1542 	ld	l, -7 (ix)
    0000096F DD 66 FA         [19] 1543 	ld	h, -6 (ix)
    00000972 23               [ 6] 1544 	inc	hl
    00000973 7E               [ 7] 1545 	ld	a, (hl)
    00000974 B7               [ 4] 1546 	or	a, a
    00000975 28 51            [12] 1547 	jr	Z, 00176$
    00000977 DD 36 F5 01      [19] 1548 	ld	-11 (ix), #0x01
    0000097B C3rC8r09         [10] 1549 	jp	00176$
    0000097E                       1550 00175$:
                                   1551 ;E:\Dropbox\FAUSTO\SVILUPPI\MSX\CODE\C\MSXgl\projects\soccerlgMSX2/soccerlg_s16_b3.c:137: u8 target_wait = 2 + (Frms % 3); // random tra 2, 3 o 4 (pari a 3s, 2s, 1s di attesa)
    0000097E 3Ar00r00         [13] 1552 	ld	a, (_Frms+0)
    00000981 DD 77 F9         [19] 1553 	ld	-7 (ix), a
    00000984 DD 36 FA 00      [19] 1554 	ld	-6 (ix), #0x00
    00000988 11 03 00         [10] 1555 	ld	de, #0x0003
    0000098B DD 6E F9         [19] 1556 	ld	l, -7 (ix)
                                   1557 ;	spillPairReg hl
                                   1558 ;	spillPairReg hl
    0000098E DD 66 FA         [19] 1559 	ld	h, -6 (ix)
                                   1560 ;	spillPairReg hl
                                   1561 ;	spillPairReg hl
    00000991 CDr00r00         [17] 1562 	call	__modsint
    00000994 DD 73 EE         [19] 1563 	ld	-18 (ix), e
    00000997 DD 72 EF         [19] 1564 	ld	-17 (ix), d
    0000099A DD 7E EE         [19] 1565 	ld	a, -18 (ix)
    0000099D DD 77 FF         [19] 1566 	ld	-1 (ix), a
    000009A0 DD 34 FF         [23] 1567 	inc	-1 (ix)
    000009A3 DD 34 FF         [23] 1568 	inc	-1 (ix)
                                   1569 ;E:\Dropbox\FAUSTO\SVILUPPI\MSX\CODE\C\MSXgl\projects\soccerlgMSX2/soccerlg_s16_b3.c:138: if(*wait_secs <= target_wait) {
    000009A6 DD 6E FB         [19] 1570 	ld	l, -5 (ix)
    000009A9 DD 66 FC         [19] 1571 	ld	h, -4 (ix)
    000009AC DD 7E FF         [19] 1572 	ld	a,-1 (ix)
    000009AF 96               [ 7] 1573 	sub	a,(hl)
    000009B0 38 16            [12] 1574 	jr	C, 00176$
                                   1575 ;E:\Dropbox\FAUSTO\SVILUPPI\MSX\CODE\C\MSXgl\projects\soccerlgMSX2/soccerlg_s16_b3.c:139: do_shot = TRUE;
    000009B2 DD 36 F5 01      [19] 1576 	ld	-11 (ix), #0x01
                                   1577 ;E:\Dropbox\FAUSTO\SVILUPPI\MSX\CODE\C\MSXgl\projects\soccerlgMSX2/soccerlg_s16_b3.c:140: shot_dir = ((Frms % 2) == 0) ? 0 : 2; // CPU sceglie a caso tra sx e dx
    000009B6 DD CB F9 46      [20] 1578 	bit	0, -7 (ix)
    000009BA 20 06            [12] 1579 	jr	NZ, 00271$
    000009BC 11 00 00         [10] 1580 	ld	de, #0x0000
    000009BF C3rC5r09         [10] 1581 	jp	00272$
    000009C2                       1582 00271$:
    000009C2 11 02 00         [10] 1583 	ld	de, #0x0002
    000009C5                       1584 00272$:
    000009C5 DD 73 F6         [19] 1585 	ld	-10 (ix), e
    000009C8                       1586 00176$:
                                   1587 ;E:\Dropbox\FAUSTO\SVILUPPI\MSX\CODE\C\MSXgl\projects\soccerlgMSX2/soccerlg_s16_b3.c:144: if (*start_sec < Frms) { if (*wait_secs > 0) (*wait_secs)--; }
    000009C8 DD 5E 04         [19] 1588 	ld	e, 4 (ix)
    000009CB DD 56 05         [19] 1589 	ld	d, 5 (ix)
    000009CE 1A               [ 7] 1590 	ld	a, (de)
    000009CF 4F               [ 4] 1591 	ld	c, a
    000009D0 21r00r00         [10] 1592 	ld	hl, #_Frms
    000009D3 79               [ 4] 1593 	ld	a, c
    000009D4 96               [ 7] 1594 	sub	a, (hl)
    000009D5 30 12            [12] 1595 	jr	NC, 00180$
    000009D7 DD 6E FB         [19] 1596 	ld	l, -5 (ix)
    000009DA DD 66 FC         [19] 1597 	ld	h, -4 (ix)
    000009DD 7E               [ 7] 1598 	ld	a, (hl)
    000009DE B7               [ 4] 1599 	or	a, a
    000009DF 28 08            [12] 1600 	jr	Z, 00180$
    000009E1 3D               [ 4] 1601 	dec	a
    000009E2 DD 6E FB         [19] 1602 	ld	l, -5 (ix)
    000009E5 DD 66 FC         [19] 1603 	ld	h, -4 (ix)
    000009E8 77               [ 7] 1604 	ld	(hl), a
    000009E9                       1605 00180$:
                                   1606 ;E:\Dropbox\FAUSTO\SVILUPPI\MSX\CODE\C\MSXgl\projects\soccerlgMSX2/soccerlg_s16_b3.c:145: *start_sec = Frms;
    000009E9 3Ar00r00         [13] 1607 	ld	a, (_Frms+0)
    000009EC 12               [ 7] 1608 	ld	(de), a
                                   1609 ;E:\Dropbox\FAUSTO\SVILUPPI\MSX\CODE\C\MSXgl\projects\soccerlgMSX2/soccerlg_s16_b3.c:148: if (*wait_secs == 0) {
    000009ED DD 6E FB         [19] 1610 	ld	l, -5 (ix)
    000009F0 DD 66 FC         [19] 1611 	ld	h, -4 (ix)
    000009F3 7E               [ 7] 1612 	ld	a, (hl)
    000009F4 B7               [ 4] 1613 	or	a, a
    000009F5 20 18            [12] 1614 	jr	NZ, 00184$
                                   1615 ;E:\Dropbox\FAUSTO\SVILUPPI\MSX\CODE\C\MSXgl\projects\soccerlgMSX2/soccerlg_s16_b3.c:149: do_shot = TRUE;
    000009F7 DD 36 F5 01      [19] 1616 	ld	-11 (ix), #0x01
                                   1617 ;E:\Dropbox\FAUSTO\SVILUPPI\MSX\CODE\C\MSXgl\projects\soccerlgMSX2/soccerlg_s16_b3.c:150: if (is_shooter_human) shot_dir = Shooter->dx;
    000009FB DD 7E F4         [19] 1618 	ld	a, -12 (ix)
    000009FE B7               [ 4] 1619 	or	a, a
    000009FF 28 0E            [12] 1620 	jr	Z, 00184$
    00000A01 DD 4E F7         [19] 1621 	ld	c, -9 (ix)
    00000A04 DD 46 F8         [19] 1622 	ld	b, -8 (ix)
    00000A07 21 11 00         [10] 1623 	ld	hl, #17
    00000A0A 09               [11] 1624 	add	hl, bc
    00000A0B 7E               [ 7] 1625 	ld	a, (hl)
    00000A0C DD 77 F6         [19] 1626 	ld	-10 (ix), a
    00000A0F                       1627 00184$:
                                   1628 ;E:\Dropbox\FAUSTO\SVILUPPI\MSX\CODE\C\MSXgl\projects\soccerlgMSX2/soccerlg_s16_b3.c:154: if (!do_shot) {
    00000A0F DD 7E F5         [19] 1629 	ld	a, -11 (ix)
    00000A12 B7               [ 4] 1630 	or	a, a
    00000A13 20 4F            [12] 1631 	jr	NZ, 00186$
                                   1632 ;E:\Dropbox\FAUSTO\SVILUPPI\MSX\CODE\C\MSXgl\projects\soccerlgMSX2/soccerlg_s16_b3.c:155: Keeper->anim++;
    00000A15 DD 6E F0         [19] 1633 	ld	l, -16 (ix)
    00000A18 DD 66 F1         [19] 1634 	ld	h, -15 (ix)
    00000A1B 11 13 00         [10] 1635 	ld	de, #0x0013
    00000A1E 19               [11] 1636 	add	hl, de
    00000A1F 5E               [ 7] 1637 	ld	e, (hl)
    00000A20 23               [ 6] 1638 	inc	hl
    00000A21 56               [ 7] 1639 	ld	d, (hl)
    00000A22 2B               [ 6] 1640 	dec	hl
    00000A23 13               [ 6] 1641 	inc	de
    00000A24 73               [ 7] 1642 	ld	(hl), e
    00000A25 23               [ 6] 1643 	inc	hl
    00000A26 72               [ 7] 1644 	ld	(hl), d
                                   1645 ;E:\Dropbox\FAUSTO\SVILUPPI\MSX\CODE\C\MSXgl\projects\soccerlgMSX2/soccerlg_s16_b3.c:156: Keeper->frame = ((Keeper->anim / 15) % 2 == 0) ? SPR_GK_PLAYER_SOUTH_1 : SPR_GK_PLAYER_SOUTH_2;
    00000A27 DD 7E F0         [19] 1646 	ld	a, -16 (ix)
    00000A2A C6 0F            [ 7] 1647 	add	a, #0x0f
    00000A2C DD 77 EE         [19] 1648 	ld	-18 (ix), a
    00000A2F DD 7E F1         [19] 1649 	ld	a, -15 (ix)
    00000A32 CE 00            [ 7] 1650 	adc	a, #0x00
    00000A34 DD 77 EF         [19] 1651 	ld	-17 (ix), a
    00000A37 EB               [ 4] 1652 	ex	de, hl
    00000A38 11 0F 00         [10] 1653 	ld	de, #0x000f
    00000A3B CDr00r00         [17] 1654 	call	__divuint
    00000A3E CB 43            [ 8] 1655 	bit	0, e
    00000A40 20 0B            [12] 1656 	jr	NZ, 00273$
    00000A42 DD 36 F9 F3      [19] 1657 	ld	-7 (ix), #0xf3
    00000A46 DD 36 FA 00      [19] 1658 	ld	-6 (ix), #0
    00000A4A C3r55r0A         [10] 1659 	jp	00274$
    00000A4D                       1660 00273$:
    00000A4D DD 36 F9 F4      [19] 1661 	ld	-7 (ix), #0xf4
    00000A51 DD 36 FA 00      [19] 1662 	ld	-6 (ix), #0
    00000A55                       1663 00274$:
    00000A55 DD 4E F9         [19] 1664 	ld	c, -7 (ix)
    00000A58 DD 46 FA         [19] 1665 	ld	b, -6 (ix)
    00000A5B DD 6E EE         [19] 1666 	ld	l, -18 (ix)
    00000A5E DD 66 EF         [19] 1667 	ld	h, -17 (ix)
    00000A61 71               [ 7] 1668 	ld	(hl), c
    00000A62 23               [ 6] 1669 	inc	hl
    00000A63 70               [ 7] 1670 	ld	(hl), b
    00000A64                       1671 00186$:
                                   1672 ;E:\Dropbox\FAUSTO\SVILUPPI\MSX\CODE\C\MSXgl\projects\soccerlgMSX2/soccerlg_s16_b3.c:159: if(do_shot) {
    00000A64 DD 7E F5         [19] 1673 	ld	a, -11 (ix)
    00000A67 B7               [ 4] 1674 	or	a, a
    00000A68 CArA1r0C         [10] 1675 	jp	Z, 00219$
                                   1676 ;E:\Dropbox\FAUSTO\SVILUPPI\MSX\CODE\C\MSXgl\projects\soccerlgMSX2/soccerlg_s16_b3.c:160: *wait_secs = 0; // Prepara il timer per lo stato 15
    00000A6B DD 6E FB         [19] 1677 	ld	l, -5 (ix)
    00000A6E DD 66 FC         [19] 1678 	ld	h, -4 (ix)
    00000A71 36 00            [10] 1679 	ld	(hl), #0x00
                                   1680 ;E:\Dropbox\FAUSTO\SVILUPPI\MSX\CODE\C\MSXgl\projects\soccerlgMSX2/soccerlg_s16_b3.c:162: u8 target_x_pos[] = {92, 120, 140};
    00000A73 DD 36 E1 5C      [19] 1681 	ld	-31 (ix), #0x5c
    00000A77 DD 36 E2 78      [19] 1682 	ld	-30 (ix), #0x78
    00000A7B DD 36 E3 8C      [19] 1683 	ld	-29 (ix), #0x8c
                                   1684 ;E:\Dropbox\FAUSTO\SVILUPPI\MSX\CODE\C\MSXgl\projects\soccerlgMSX2/soccerlg_s16_b3.c:163: g_pass_start_x = Ball->lx; g_pass_start_y = Ball->ly;
    00000A7F 3Ar42r01         [13] 1685 	ld	a, (#(_SwSprite + 322) + 0)
    00000A82 DD 77 FF         [19] 1686 	ld	-1 (ix), a
    00000A85 32r00r00         [13] 1687 	ld	(_g_pass_start_x+0), a
    00000A88 21r01r00         [10] 1688 	ld	hl, #_g_pass_start_x + 1
    00000A8B 36 00            [10] 1689 	ld	(hl), #0x00
    00000A8D 21r46r01         [10] 1690 	ld	hl, #(_SwSprite + 322) + 4
    00000A90 7E               [ 7] 1691 	ld	a, (hl)
    00000A91 23               [ 6] 1692 	inc	hl
    00000A92 32r00r00         [13] 1693 	ld	(_g_pass_start_y+0), a
    00000A95 7E               [ 7] 1694 	ld	a, (hl)
    00000A96 32r01r00         [13] 1695 	ld	(_g_pass_start_y+1), a
                                   1696 ;E:\Dropbox\FAUSTO\SVILUPPI\MSX\CODE\C\MSXgl\projects\soccerlgMSX2/soccerlg_s16_b3.c:164: g_pass_target_x = target_x_pos[shot_dir]; g_pass_target_y = 16;
    00000A99 DD 5E F6         [19] 1697 	ld	e, -10 (ix)
    00000A9C 16 00            [ 7] 1698 	ld	d, #0x00
    00000A9E 21 01 00         [10] 1699 	ld	hl, #1
    00000AA1 39               [11] 1700 	add	hl, sp
    00000AA2 19               [11] 1701 	add	hl, de
    00000AA3 DD 75 F9         [19] 1702 	ld	-7 (ix), l
    00000AA6 DD 74 FA         [19] 1703 	ld	-6 (ix), h
    00000AA9 7E               [ 7] 1704 	ld	a, (hl)
    00000AAA DD 77 FF         [19] 1705 	ld	-1 (ix), a
    00000AAD 32r00r00         [13] 1706 	ld	(_g_pass_target_x+0), a
    00000AB0 21r01r00         [10] 1707 	ld	hl, #_g_pass_target_x + 1
    00000AB3 36 00            [10] 1708 	ld	(hl), #0x00
    00000AB5 21 10 00         [10] 1709 	ld	hl, #0x0010
    00000AB8 22r00r00         [16] 1710 	ld	(_g_pass_target_y), hl
                                   1711 ;E:\Dropbox\FAUSTO\SVILUPPI\MSX\CODE\C\MSXgl\projects\soccerlgMSX2/soccerlg_s16_b3.c:165: g_pass_max_frames = 15; g_pass_max_height = 1; // Tiro basso e veloce (dimensione 1)
    00000ABB 3E 0F            [ 7] 1712 	ld	a, #0x0f
    00000ABD 32r00r00         [13] 1713 	ld	(#_g_pass_max_frames), a
    00000AC0 3E 01            [ 7] 1714 	ld	a, #0x01
    00000AC2 32r00r00         [13] 1715 	ld	(#_g_pass_max_height), a
                                   1716 ;E:\Dropbox\FAUSTO\SVILUPPI\MSX\CODE\C\MSXgl\projects\soccerlgMSX2/soccerlg_s16_b3.c:166: g_pass_receiver = 0xFF;
    00000AC5 3E FF            [ 7] 1717 	ld	a, #0xff
    00000AC7 32r00r00         [13] 1718 	ld	(#_g_pass_receiver), a
                                   1719 ;E:\Dropbox\FAUSTO\SVILUPPI\MSX\CODE\C\MSXgl\projects\soccerlgMSX2/soccerlg_s16_b3.c:167: Ball->anim = 5; Ball->count = 1;
    00000ACA 2E 05            [ 7] 1720 	ld	l, #0x05
    00000ACC 22r55r01         [16] 1721 	ld	((_SwSprite + 341)), hl
    00000ACF 2E 01            [ 7] 1722 	ld	l, #0x01
    00000AD1 22r57r01         [16] 1723 	ld	((_SwSprite + 343)), hl
                                   1724 ;E:\Dropbox\FAUSTO\SVILUPPI\MSX\CODE\C\MSXgl\projects\soccerlgMSX2/soccerlg_s16_b3.c:170: Shooter->frame = CallFnc_U16_P3(SEG_GAMESTATE_9, GetPlayerIdleFrame, g_penalty_shooter_idx, 0, (i8)-1);
    00000AD4 DD 7E F7         [19] 1725 	ld	a, -9 (ix)
    00000AD7 C6 0F            [ 7] 1726 	add	a, #0x0f
    00000AD9 DD 77 F9         [19] 1727 	ld	-7 (ix), a
    00000ADC DD 7E F8         [19] 1728 	ld	a, -8 (ix)
    00000ADF CE 00            [ 7] 1729 	adc	a, #0x00
    00000AE1 DD 77 FA         [19] 1730 	ld	-6 (ix), a
    00000AE4 3E FF            [ 7] 1731 	ld	a, #0xff
    00000AE6 F5               [11] 1732 	push	af
    00000AE7 33               [ 6] 1733 	inc	sp
    00000AE8 AF               [ 4] 1734 	xor	a, a
    00000AE9 F5               [11] 1735 	push	af
    00000AEA 33               [ 6] 1736 	inc	sp
    00000AEB 3Ar00r00         [13] 1737 	ld	a, (_g_penalty_shooter_idx+0)
    00000AEE F5               [11] 1738 	push	af
    00000AEF 33               [ 6] 1739 	inc	sp
    00000AF0 11r00r00         [10] 1740 	ld	de, #_GetPlayerIdleFrame
    00000AF3 3E 13            [ 7] 1741 	ld	a, #0x13
    00000AF5 CDr00r00         [17] 1742 	call	_CallFnc_U16_P3
    00000AF8 DD 73 F7         [19] 1743 	ld	-9 (ix), e
    00000AFB DD 72 F8         [19] 1744 	ld	-8 (ix), d
    00000AFE DD 6E F9         [19] 1745 	ld	l, -7 (ix)
    00000B01 DD 66 FA         [19] 1746 	ld	h, -6 (ix)
    00000B04 DD 7E F7         [19] 1747 	ld	a, -9 (ix)
    00000B07 77               [ 7] 1748 	ld	(hl), a
    00000B08 23               [ 6] 1749 	inc	hl
    00000B09 DD 7E F8         [19] 1750 	ld	a, -8 (ix)
    00000B0C 77               [ 7] 1751 	ld	(hl), a
                                   1752 ;E:\Dropbox\FAUSTO\SVILUPPI\MSX\CODE\C\MSXgl\projects\soccerlgMSX2/soccerlg_s16_b3.c:174: if(is_keeper_human) {
    00000B0D DD 7E F3         [19] 1753 	ld	a, -13 (ix)
    00000B10 B7               [ 4] 1754 	or	a, a
    00000B11 28 11            [12] 1755 	jr	Z, 00197$
                                   1756 ;E:\Dropbox\FAUSTO\SVILUPPI\MSX\CODE\C\MSXgl\projects\soccerlgMSX2/soccerlg_s16_b3.c:175: dive_dir = Keeper->dx; // Usa la direzione corrente
    00000B13 DD 4E F0         [19] 1757 	ld	c, -16 (ix)
    00000B16 DD 46 F1         [19] 1758 	ld	b, -15 (ix)
    00000B19 21 11 00         [10] 1759 	ld	hl, #17
    00000B1C 09               [11] 1760 	add	hl, bc
    00000B1D 7E               [ 7] 1761 	ld	a, (hl)
    00000B1E DD 77 FF         [19] 1762 	ld	-1 (ix), a
    00000B21 C3r06r0C         [10] 1763 	jp	00198$
    00000B24                       1764 00197$:
                                   1765 ;E:\Dropbox\FAUSTO\SVILUPPI\MSX\CODE\C\MSXgl\projects\soccerlgMSX2/soccerlg_s16_b3.c:178: u8 skill_chance = g_ActiveStats[keeper_team_idx].gk_penalty_skill * 12; // Es: Stat 5 = 60%
    00000B24 DD 4E F2         [19] 1766 	ld	c, -14 (ix)
    00000B27 06 00            [ 7] 1767 	ld	b, #0x00
    00000B29 69               [ 4] 1768 	ld	l, c
    00000B2A 60               [ 4] 1769 	ld	h, b
    00000B2B 29               [11] 1770 	add	hl, hl
    00000B2C 09               [11] 1771 	add	hl, bc
    00000B2D 29               [11] 1772 	add	hl, hl
    00000B2E 09               [11] 1773 	add	hl, bc
    00000B2F DD 75 F7         [19] 1774 	ld	-9 (ix), l
    00000B32 DD 74 F8         [19] 1775 	ld	-8 (ix), h
    00000B35 3Er00            [ 7] 1776 	ld	a, #<(_g_ActiveStats)
    00000B37 DD 86 F7         [19] 1777 	add	a, -9 (ix)
    00000B3A DD 77 F9         [19] 1778 	ld	-7 (ix), a
    00000B3D 3Es00            [ 7] 1779 	ld	a, #>(_g_ActiveStats)
    00000B3F DD 8E F8         [19] 1780 	adc	a, -8 (ix)
    00000B42 DD 77 FA         [19] 1781 	ld	-6 (ix), a
    00000B45 DD 6E F9         [19] 1782 	ld	l, -7 (ix)
    00000B48 DD 66 FA         [19] 1783 	ld	h, -6 (ix)
    00000B4B 11 06 00         [10] 1784 	ld	de, #0x0006
    00000B4E 19               [11] 1785 	add	hl, de
    00000B4F 7E               [ 7] 1786 	ld	a, (hl)
    00000B50 DD 77 FF         [19] 1787 	ld	-1 (ix), a
    00000B53 4F               [ 4] 1788 	ld	c, a
    00000B54 87               [ 4] 1789 	add	a, a
    00000B55 81               [ 4] 1790 	add	a, c
    00000B56 87               [ 4] 1791 	add	a, a
    00000B57 87               [ 4] 1792 	add	a, a
    00000B58 DD 77 FF         [19] 1793 	ld	-1 (ix), a
                                   1794 ;E:\Dropbox\FAUSTO\SVILUPPI\MSX\CODE\C\MSXgl\projects\soccerlgMSX2/soccerlg_s16_b3.c:179: if ((Frms % 100) < skill_chance) {
    00000B5B 3Ar00r00         [13] 1795 	ld	a, (_Frms+0)
    00000B5E DD 77 F4         [19] 1796 	ld	-12 (ix), a
    00000B61 DD 36 F5 00      [19] 1797 	ld	-11 (ix), #0x00
    00000B65 11 64 00         [10] 1798 	ld	de, #0x0064
    00000B68 DD 6E F4         [19] 1799 	ld	l, -12 (ix)
                                   1800 ;	spillPairReg hl
                                   1801 ;	spillPairReg hl
    00000B6B DD 66 F5         [19] 1802 	ld	h, -11 (ix)
                                   1803 ;	spillPairReg hl
                                   1804 ;	spillPairReg hl
    00000B6E CDr00r00         [17] 1805 	call	__modsint
    00000B71 DD 73 F7         [19] 1806 	ld	-9 (ix), e
    00000B74 DD 72 F8         [19] 1807 	ld	-8 (ix), d
    00000B77 DD 7E FF         [19] 1808 	ld	a, -1 (ix)
    00000B7A DD 77 F9         [19] 1809 	ld	-7 (ix), a
    00000B7D DD 36 FA 00      [19] 1810 	ld	-6 (ix), #0x00
    00000B81 DD 7E F7         [19] 1811 	ld	a, -9 (ix)
    00000B84 DD 96 F9         [19] 1812 	sub	a, -7 (ix)
    00000B87 DD 7E F8         [19] 1813 	ld	a, -8 (ix)
    00000B8A DD 9E FA         [19] 1814 	sbc	a, -6 (ix)
    00000B8D E2r92r0B         [10] 1815 	jp	PO, 00718$
    00000B90 EE 80            [ 7] 1816 	xor	a, #0x80
    00000B92                       1817 00718$:
    00000B92 F2r9Er0B         [10] 1818 	jp	P, 00194$
                                   1819 ;E:\Dropbox\FAUSTO\SVILUPPI\MSX\CODE\C\MSXgl\projects\soccerlgMSX2/soccerlg_s16_b3.c:180: dive_dir = shot_dir; // Il portiere intuisce la direzione corretta!
    00000B95 DD 7E F6         [19] 1820 	ld	a, -10 (ix)
    00000B98 DD 77 FF         [19] 1821 	ld	-1 (ix), a
    00000B9B C3r06r0C         [10] 1822 	jp	00198$
    00000B9E                       1823 00194$:
                                   1824 ;E:\Dropbox\FAUSTO\SVILUPPI\MSX\CODE\C\MSXgl\projects\soccerlgMSX2/soccerlg_s16_b3.c:183: if (shot_dir == 0) dive_dir = ((Frms % 2) == 0) ? 1 : 2;
    00000B9E DD 7E F4         [19] 1825 	ld	a, -12 (ix)
    00000BA1 E6 01            [ 7] 1826 	and	a, #0x01
    00000BA3 DD 77 F9         [19] 1827 	ld	-7 (ix), a
    00000BA6 DD 36 FA 00      [19] 1828 	ld	-6 (ix), #0x00
    00000BAA DD 7E F6         [19] 1829 	ld	a, -10 (ix)
    00000BAD B7               [ 4] 1830 	or	a, a
    00000BAE 20 24            [12] 1831 	jr	NZ, 00191$
    00000BB0 DD 7E FA         [19] 1832 	ld	a, -6 (ix)
    00000BB3 DD B6 F9         [19] 1833 	or	a, -7 (ix)
    00000BB6 20 0B            [12] 1834 	jr	NZ, 00275$
    00000BB8 DD 36 F9 01      [19] 1835 	ld	-7 (ix), #0x01
    00000BBC DD 36 FA 00      [19] 1836 	ld	-6 (ix), #0
    00000BC0 C3rCBr0B         [10] 1837 	jp	00276$
    00000BC3                       1838 00275$:
    00000BC3 DD 36 F9 02      [19] 1839 	ld	-7 (ix), #0x02
    00000BC7 DD 36 FA 00      [19] 1840 	ld	-6 (ix), #0
    00000BCB                       1841 00276$:
    00000BCB DD 7E F9         [19] 1842 	ld	a, -7 (ix)
    00000BCE DD 77 FF         [19] 1843 	ld	-1 (ix), a
    00000BD1 C3r06r0C         [10] 1844 	jp	00198$
    00000BD4                       1845 00191$:
                                   1846 ;E:\Dropbox\FAUSTO\SVILUPPI\MSX\CODE\C\MSXgl\projects\soccerlgMSX2/soccerlg_s16_b3.c:184: else if (shot_dir == 2) dive_dir = ((Frms % 2) == 0) ? 0 : 1;
    00000BD4 DD 7E F6         [19] 1847 	ld	a, -10 (ix)
    00000BD7 D6 02            [ 7] 1848 	sub	a, #0x02
    00000BD9 20 17            [12] 1849 	jr	NZ, 00188$
    00000BDB DD 7E FA         [19] 1850 	ld	a, -6 (ix)
    00000BDE DD B6 F9         [19] 1851 	or	a, -7 (ix)
    00000BE1 20 06            [12] 1852 	jr	NZ, 00277$
    00000BE3 01 00 00         [10] 1853 	ld	bc, #0x0000
    00000BE6 C3rECr0B         [10] 1854 	jp	00278$
    00000BE9                       1855 00277$:
    00000BE9 01 01 00         [10] 1856 	ld	bc, #0x0001
    00000BEC                       1857 00278$:
    00000BEC DD 71 FF         [19] 1858 	ld	-1 (ix), c
    00000BEF C3r06r0C         [10] 1859 	jp	00198$
    00000BF2                       1860 00188$:
                                   1861 ;E:\Dropbox\FAUSTO\SVILUPPI\MSX\CODE\C\MSXgl\projects\soccerlgMSX2/soccerlg_s16_b3.c:185: else dive_dir = ((Frms % 2) == 0) ? 0 : 2;
    00000BF2 DD 7E FA         [19] 1862 	ld	a, -6 (ix)
    00000BF5 DD B6 F9         [19] 1863 	or	a, -7 (ix)
    00000BF8 20 06            [12] 1864 	jr	NZ, 00279$
    00000BFA 01 00 00         [10] 1865 	ld	bc, #0x0000
    00000BFD C3r03r0C         [10] 1866 	jp	00280$
    00000C00                       1867 00279$:
    00000C00 01 02 00         [10] 1868 	ld	bc, #0x0002
    00000C03                       1869 00280$:
    00000C03 DD 71 FF         [19] 1870 	ld	-1 (ix), c
    00000C06                       1871 00198$:
                                   1872 ;E:\Dropbox\FAUSTO\SVILUPPI\MSX\CODE\C\MSXgl\projects\soccerlgMSX2/soccerlg_s16_b3.c:156: Keeper->frame = ((Keeper->anim / 15) % 2 == 0) ? SPR_GK_PLAYER_SOUTH_1 : SPR_GK_PLAYER_SOUTH_2;
    00000C06 DD 7E F0         [19] 1873 	ld	a, -16 (ix)
    00000C09 C6 0F            [ 7] 1874 	add	a, #0x0f
    00000C0B DD 77 F9         [19] 1875 	ld	-7 (ix), a
    00000C0E DD 7E F1         [19] 1876 	ld	a, -15 (ix)
    00000C11 CE 00            [ 7] 1877 	adc	a, #0x00
    00000C13 DD 77 FA         [19] 1878 	ld	-6 (ix), a
                                   1879 ;E:\Dropbox\FAUSTO\SVILUPPI\MSX\CODE\C\MSXgl\projects\soccerlgMSX2/soccerlg_s16_b3.c:190: if(dive_dir == 0) { // Tuffo a Sinistra (X=92)
    00000C16 DD 7E FF         [19] 1880 	ld	a, -1 (ix)
    00000C19 B7               [ 4] 1881 	or	a, a
    00000C1A 20 16            [12] 1882 	jr	NZ, 00203$
                                   1883 ;E:\Dropbox\FAUSTO\SVILUPPI\MSX\CODE\C\MSXgl\projects\soccerlgMSX2/soccerlg_s16_b3.c:191: Keeper->frame = SPR_GK_PLAYER_DOWN_WEST_NORTH; // Ovest = Tuffo a Sinistra
    00000C1C DD 6E F9         [19] 1884 	ld	l, -7 (ix)
    00000C1F DD 66 FA         [19] 1885 	ld	h, -6 (ix)
    00000C22 36 EF            [10] 1886 	ld	(hl), #0xef
    00000C24 23               [ 6] 1887 	inc	hl
    00000C25 36 00            [10] 1888 	ld	(hl), #0x00
                                   1889 ;E:\Dropbox\FAUSTO\SVILUPPI\MSX\CODE\C\MSXgl\projects\soccerlgMSX2/soccerlg_s16_b3.c:192: Keeper->lx = 100; // Sposta il body a 100, mani della maglietta a 92
    00000C27 DD 6E F0         [19] 1890 	ld	l, -16 (ix)
    00000C2A DD 66 F1         [19] 1891 	ld	h, -15 (ix)
    00000C2D 36 64            [10] 1892 	ld	(hl), #0x64
    00000C2F C3r74r0C         [10] 1893 	jp	00204$
    00000C32                       1894 00203$:
                                   1895 ;E:\Dropbox\FAUSTO\SVILUPPI\MSX\CODE\C\MSXgl\projects\soccerlgMSX2/soccerlg_s16_b3.c:194: else if(dive_dir == 2) { // Tuffo a Destra (X=140)
    00000C32 DD 7E FF         [19] 1896 	ld	a, -1 (ix)
    00000C35 D6 02            [ 7] 1897 	sub	a, #0x02
    00000C37 20 16            [12] 1898 	jr	NZ, 00200$
                                   1899 ;E:\Dropbox\FAUSTO\SVILUPPI\MSX\CODE\C\MSXgl\projects\soccerlgMSX2/soccerlg_s16_b3.c:195: Keeper->frame = SPR_GK_PLAYER_DOWN_EAST_NORTH; // Est = Tuffo a Destra
    00000C39 DD 6E F9         [19] 1900 	ld	l, -7 (ix)
    00000C3C DD 66 FA         [19] 1901 	ld	h, -6 (ix)
    00000C3F 36 EE            [10] 1902 	ld	(hl), #0xee
    00000C41 23               [ 6] 1903 	inc	hl
    00000C42 36 00            [10] 1904 	ld	(hl), #0x00
                                   1905 ;E:\Dropbox\FAUSTO\SVILUPPI\MSX\CODE\C\MSXgl\projects\soccerlgMSX2/soccerlg_s16_b3.c:196: Keeper->lx = 132; // Sposta il body a 132, mani della maglietta a 140
    00000C44 DD 6E F0         [19] 1906 	ld	l, -16 (ix)
    00000C47 DD 66 F1         [19] 1907 	ld	h, -15 (ix)
    00000C4A 36 84            [10] 1908 	ld	(hl), #0x84
    00000C4C C3r74r0C         [10] 1909 	jp	00204$
    00000C4F                       1910 00200$:
                                   1911 ;E:\Dropbox\FAUSTO\SVILUPPI\MSX\CODE\C\MSXgl\projects\soccerlgMSX2/soccerlg_s16_b3.c:199: Keeper->frame = CallFnc_U16_P3(SEG_GAMESTATE_9, GetPlayerIdleFrame, keeper_idx, 0, 1); // Posa in attesa centrale
    00000C4F 3E 01            [ 7] 1912 	ld	a, #0x01
    00000C51 F5               [11] 1913 	push	af
    00000C52 33               [ 6] 1914 	inc	sp
    00000C53 AF               [ 4] 1915 	xor	a, a
    00000C54 F5               [11] 1916 	push	af
    00000C55 33               [ 6] 1917 	inc	sp
    00000C56 DD 7E E4         [19] 1918 	ld	a, -28 (ix)
    00000C59 F5               [11] 1919 	push	af
    00000C5A 33               [ 6] 1920 	inc	sp
    00000C5B 11r00r00         [10] 1921 	ld	de, #_GetPlayerIdleFrame
    00000C5E 3E 13            [ 7] 1922 	ld	a, #0x13
    00000C60 CDr00r00         [17] 1923 	call	_CallFnc_U16_P3
    00000C63 DD 6E F9         [19] 1924 	ld	l, -7 (ix)
    00000C66 DD 66 FA         [19] 1925 	ld	h, -6 (ix)
    00000C69 73               [ 7] 1926 	ld	(hl), e
    00000C6A 23               [ 6] 1927 	inc	hl
    00000C6B 72               [ 7] 1928 	ld	(hl), d
                                   1929 ;E:\Dropbox\FAUSTO\SVILUPPI\MSX\CODE\C\MSXgl\projects\soccerlgMSX2/soccerlg_s16_b3.c:200: Keeper->lx = 120;
    00000C6C DD 6E F0         [19] 1930 	ld	l, -16 (ix)
    00000C6F DD 66 F1         [19] 1931 	ld	h, -15 (ix)
    00000C72 36 78            [10] 1932 	ld	(hl), #0x78
    00000C74                       1933 00204$:
                                   1934 ;E:\Dropbox\FAUSTO\SVILUPPI\MSX\CODE\C\MSXgl\projects\soccerlgMSX2/soccerlg_s16_b3.c:204: if(dive_dir == shot_dir) {
    00000C74 DD 7E F6         [19] 1935 	ld	a, -10 (ix)
    00000C77 DD 96 FF         [19] 1936 	sub	a, -1 (ix)
    00000C7A 20 1D            [12] 1937 	jr	NZ, 00209$
                                   1938 ;E:\Dropbox\FAUSTO\SVILUPPI\MSX\CODE\C\MSXgl\projects\soccerlgMSX2/soccerlg_s16_b3.c:205: g_pass_max_frames = 10; // Tiro smorzato
    00000C7C FD 21r00r00      [14] 1939 	ld	iy, #_g_pass_max_frames
    00000C80 FD 36 00 0A      [19] 1940 	ld	0 (iy), #0x0a
                                   1941 ;E:\Dropbox\FAUSTO\SVILUPPI\MSX\CODE\C\MSXgl\projects\soccerlgMSX2/soccerlg_s16_b3.c:206: if (shot_dir == 1) {
    00000C84 DD 7E F6         [19] 1942 	ld	a, -10 (ix)
    00000C87 3D               [ 4] 1943 	dec	a
    00000C88 20 09            [12] 1944 	jr	NZ, 00206$
                                   1945 ;E:\Dropbox\FAUSTO\SVILUPPI\MSX\CODE\C\MSXgl\projects\soccerlgMSX2/soccerlg_s16_b3.c:207: g_pass_target_y = 40;   // Fermiamo la palla prima per farla fermare sul petto
    00000C8A 21 28 00         [10] 1946 	ld	hl, #0x0028
    00000C8D 22r00r00         [16] 1947 	ld	(_g_pass_target_y), hl
    00000C90 C3r99r0C         [10] 1948 	jp	00209$
    00000C93                       1949 00206$:
                                   1950 ;E:\Dropbox\FAUSTO\SVILUPPI\MSX\CODE\C\MSXgl\projects\soccerlgMSX2/soccerlg_s16_b3.c:209: g_pass_target_y = 32;   // Tuffo laterale, manteniamo 32
    00000C93 21 20 00         [10] 1951 	ld	hl, #0x0020
    00000C96 22r00r00         [16] 1952 	ld	(_g_pass_target_y), hl
    00000C99                       1953 00209$:
                                   1954 ;E:\Dropbox\FAUSTO\SVILUPPI\MSX\CODE\C\MSXgl\projects\soccerlgMSX2/soccerlg_s16_b3.c:213: *game_state = 15;
    00000C99 DD 6E FD         [19] 1955 	ld	l, -3 (ix)
    00000C9C DD 66 FE         [19] 1956 	ld	h, -2 (ix)
    00000C9F 36 0F            [10] 1957 	ld	(hl), #0x0f
    00000CA1                       1958 00219$:
                                   1959 ;E:\Dropbox\FAUSTO\SVILUPPI\MSX\CODE\C\MSXgl\projects\soccerlgMSX2/soccerlg_s16_b3.c:216: return;
    00000CA1                       1960 00228$:
                                   1961 ;E:\Dropbox\FAUSTO\SVILUPPI\MSX\CODE\C\MSXgl\projects\soccerlgMSX2/soccerlg_s16_b3.c:218: }
    00000CA1 DD F9            [10] 1962 	ld	sp, ix
    00000CA3 DD E1            [14] 1963 	pop	ix
    00000CA5 E1               [10] 1964 	pop	hl
    00000CA6 F1               [10] 1965 	pop	af
    00000CA7 F1               [10] 1966 	pop	af
    00000CA8 E9               [ 4] 1967 	jp	(hl)
                         0000F380  1968 _g_RDPRIM	=	0xf380
                         0000F385  1969 _g_WRPRIM	=	0xf385
                         0000F38C  1970 _g_CLPRIM	=	0xf38c
                         0000F39A  1971 _g_USRTAB	=	0xf39a
                         0000F3DE  1972 _g_CNSDFG	=	0xf3de
                         0000F3DF  1973 _g_RG0SAV	=	0xf3df
                         0000F3E0  1974 _g_RG1SAV	=	0xf3e0
                         0000F3E1  1975 _g_RG2SAV	=	0xf3e1
                         0000F3E2  1976 _g_RG3SAV	=	0xf3e2
                         0000F3E3  1977 _g_RG4SAV	=	0xf3e3
                         0000F3E4  1978 _g_RG5SAV	=	0xf3e4
                         0000F3E5  1979 _g_RG6SAV	=	0xf3e5
                         0000F3E6  1980 _g_RG7SAV	=	0xf3e6
                         0000F3E7  1981 _g_STATFL	=	0xf3e7
                         0000F3E8  1982 _g_TRGFLG	=	0xf3e8
                         0000F3EC  1983 _g_MAXUPD	=	0xf3ec
                         0000F3EF  1984 _g_MINUPD	=	0xf3ef
                         0000F3F3  1985 _g_QUEUES	=	0xf3f3
                         0000F3F5  1986 _g_FRCNEW	=	0xf3f5
                         0000F3F6  1987 _g_SCNCNT	=	0xf3f6
                         0000F3F7  1988 _g_REPCNT	=	0xf3f7
                         0000F3F8  1989 _g_PUTPNT	=	0xf3f8
                         0000F3FA  1990 _g_GETPNT	=	0xf3fa
                         0000F3FC  1991 _g_CS120	=	0xf3fc
                         0000F401  1992 _g_CS240	=	0xf401
                         0000F406  1993 _g_LOW	=	0xf406
                         0000F408  1994 _g_HIGH	=	0xf408
                         0000F40A  1995 _g_HEADER	=	0xf40a
                         0000F40B  1996 _g_ASPCT1	=	0xf40b
                         0000F40D  1997 _g_ASPCT2	=	0xf40d
                         0000F959  1998 _g_QUETAB	=	0xf959
                         0000F971  1999 _g_QUEBAK	=	0xf971
                         0000F975  2000 _g_VOICAQ	=	0xf975
                         0000F9F5  2001 _g_VOICBQ	=	0xf9f5
                         0000FA75  2002 _g_VOICCQ	=	0xfa75
                         0000FAF5  2003 _g_RS2IQ	=	0xfaf5
                         0000FAF5  2004 _g_DPPAGE	=	0xfaf5
                         0000FAF6  2005 _g_ACPAGE	=	0xfaf6
                         0000FAF7  2006 _g_AVCSAV	=	0xfaf7
                         0000FAF8  2007 _g_EXBRSA	=	0xfaf8
                         0000FAF9  2008 _g_CHRCNT	=	0xfaf9
                         0000FAFA  2009 _g_ROMA	=	0xfafa
                         0000FAFC  2010 _g_MODE	=	0xfafc
                         0000FAFD  2011 _g_NORUSE	=	0xfafd
                         0000FAFE  2012 _g_XSAVE	=	0xfafe
                         0000FB00  2013 _g_YSAVE	=	0xfb00
                         0000FB03  2014 _g_RSTMP	=	0xfb03
                         0000FB03  2015 _g_TOCNT	=	0xfb03
                         0000FB04  2016 _g_RSFCB	=	0xfb04
                         0000FB06  2017 _g_RSIQLN	=	0xfb06
                         0000FB07  2018 _g_MEXBIh	=	0xfb07
                         0000FB0C  2019 _g_OLDSTT	=	0xfb0c
                         0000FB0C  2020 _g_OLDINT	=	0xfb0c
                         0000FB16  2021 _g_DEVNUM	=	0xfb16
                         0000FB17  2022 _g_DATCNT	=	0xfb17
                         0000FB1A  2023 _g_ERRORS	=	0xfb1a
                         0000FB1B  2024 _g_FLAGS	=	0xfb1b
                         0000FB1C  2025 _g_ESTBLS	=	0xfb1c
                         0000FB1D  2026 _g_COMMSK	=	0xfb1d
                         0000FB1E  2027 _g_LSTCOM	=	0xfb1e
                         0000FB1F  2028 _g_LSTMOD	=	0xfb1f
                         0000FB35  2029 _g_PRSCNT	=	0xfb35
                         0000FB36  2030 _g_SAVSP	=	0xfb36
                         0000FB38  2031 _g_VOICEN	=	0xfb38
                         0000FB39  2032 _g_SAVVOL	=	0xfb39
                         0000FB3B  2033 _g_MCLLEN	=	0xfb3b
                         0000FB3C  2034 _g_MCLPTR	=	0xfb3c
                         0000FB3E  2035 _g_QUEUEN	=	0xfb3e
                         0000FB3F  2036 _g_MUSICF	=	0xfb3f
                         0000FB40  2037 _g_PLYCNT	=	0xfb40
                         0000FB41  2038 _g_VCBA	=	0xfb41
                         0000FB66  2039 _g_VCBB	=	0xfb66
                         0000FB8B  2040 _g_VCBC	=	0xfb8b
                         0000FBB0  2041 _g_ENSTOP	=	0xfbb0
                         0000FBB1  2042 _g_BASROM	=	0xfbb1
                         0000FBB2  2043 _g_LINTTB	=	0xfbb2
                         0000FBCA  2044 _g_FSTPOS	=	0xfbca
                         0000FBCC  2045 _g_CODSAV	=	0xfbcc
                         0000FBCD  2046 _g_FNKSWI	=	0xfbcd
                         0000FBCE  2047 _g_FNKFLG	=	0xfbce
                         0000FBD8  2048 _g_ONGSBF	=	0xfbd8
                         0000FBD9  2049 _g_CLIKFL	=	0xfbd9
                         0000FBDA  2050 _g_OLDKEY	=	0xfbda
                         0000FBE5  2051 _g_NEWKEY	=	0xfbe5
                         0000FBF0  2052 _g_KEYBUF	=	0xfbf0
                         0000FC18  2053 _g_LINWRK	=	0xfc18
                         0000FC40  2054 _g_PATWRK	=	0xfc40
                         0000FC48  2055 _g_BOTTOM	=	0xfc48
                         0000FC4A  2056 _g_HIMEM	=	0xfc4a
                         0000FC4C  2057 _g_TRPTBL	=	0xfc4c
                         0000FC9A  2058 _g_RTYCNT	=	0xfc9a
                         0000FC9B  2059 _g_INTFLG	=	0xfc9b
                         0000FC9C  2060 _g_PADY	=	0xfc9c
                         0000FC9D  2061 _g_PADX	=	0xfc9d
                         0000FC9E  2062 _g_JIFFY	=	0xfc9e
                         0000FCA0  2063 _g_INTVAL	=	0xfca0
                         0000FCA2  2064 _g_INTCNT	=	0xfca2
                         0000FCA4  2065 _g_LOWLIM	=	0xfca4
                         0000FCA5  2066 _g_WINWID	=	0xfca5
                         0000FCA6  2067 _g_GRPHED	=	0xfca6
                         0000FCA7  2068 _g_ESCCNT	=	0xfca7
                         0000FCA8  2069 _g_INSFLG	=	0xfca8
                         0000FCA9  2070 _g_CSRSW	=	0xfca9
                         0000FCAA  2071 _g_CSTYLE	=	0xfcaa
                         0000FCAB  2072 _g_CAPST	=	0xfcab
                         0000FCAC  2073 _g_KANAST	=	0xfcac
                         0000FCAD  2074 _g_KANAMD	=	0xfcad
                         0000FCAE  2075 _g_FLBMEM	=	0xfcae
                         0000FCAF  2076 _g_SCRMOD	=	0xfcaf
                         0000FCB0  2077 _g_OLDSCR	=	0xfcb0
                         0000FCB1  2078 _g_CASPRV	=	0xfcb1
                         0000FCB2  2079 _g_BRDATR	=	0xfcb2
                         0000FCB3  2080 _g_GXPOS	=	0xfcb3
                         0000FCB5  2081 _g_GYPOS	=	0xfcb5
                         0000FCBB  2082 _g_DRWFLG	=	0xfcbb
                         0000FCBC  2083 _g_DRWSCL	=	0xfcbc
                         0000FCBD  2084 _g_DRWANG	=	0xfcbd
                         0000FCC1  2085 _g_MNROM	=	0xfcc1
                         0000FCC1  2086 _g_EXPTBL	=	0xfcc1
                         0000FCC5  2087 _g_SLTTBL	=	0xfcc5
                         0000FCC9  2088 _g_SLTATR	=	0xfcc9
                         0000FD09  2089 _g_SLTWRK	=	0xfd09
                         0000FD89  2090 _g_PROCNM	=	0xfd89
                         0000FFE7  2091 _g_RG08SAV	=	0xffe7
                         0000FFE8  2092 _g_RG09SAV	=	0xffe8
                         0000FFE9  2093 _g_RG10SAV	=	0xffe9
                         0000FFEA  2094 _g_RG11SAV	=	0xffea
                         0000FFEB  2095 _g_RG12SAV	=	0xffeb
                         0000FFEC  2096 _g_RG13SAV	=	0xffec
                         0000FFED  2097 _g_RG14SAV	=	0xffed
                         0000FFEE  2098 _g_RG15SAV	=	0xffee
                         0000FFEF  2099 _g_RG16SAV	=	0xffef
                         0000FFF0  2100 _g_RG17SAV	=	0xfff0
                         0000FFF1  2101 _g_RG18SAV	=	0xfff1
                         0000FFF2  2102 _g_RG19SAV	=	0xfff2
                         0000FFF3  2103 _g_RG20SAV	=	0xfff3
                         0000FFF4  2104 _g_RG21SAV	=	0xfff4
                         0000FFF5  2105 _g_RG22SAV	=	0xfff5
                         0000FFF6  2106 _g_RG23SAV	=	0xfff6
                         0000FFF7  2107 _g_MINROM	=	0xfff7
                         0000FFF8  2108 _g_SVFFF8	=	0xfff8
                         0000FFFA  2109 _g_RG25SAV	=	0xfffa
                         0000FFFB  2110 _g_RG26SAV	=	0xfffb
                         0000FFFC  2111 _g_RG27SAV	=	0xfffc
                         0000FFFD  2112 _g_SVFFFD	=	0xfffd
                         00000004  2113 _g_CGTABL	=	0x0004
                         00000006  2114 _g_VDP_DR	=	0x0006
                         00000007  2115 _g_VDP_DW	=	0x0007
                         0000002B  2116 _g_BASRVN	=	0x002b
                         0000002B  2117 _g_ROMVersion	=	0x002b
                         0000002D  2118 _g_MSXVER	=	0x002d
                         0000002E  2119 _g_MSXMID	=	0x002e
                         00000034  2120 _g_CHAR_16	=	0x0034
                         00000000  2121 _g_SUBRID	=	0x0000
                         00000002  2122 _g_STRSRC	=	0x0002
                         0000F30F  2123 _g_KANJTABLE	=	0xf30f
                         0000F323  2124 _g_DISKVE	=	0xf323
                         0000F325  2125 _g_BREAKV	=	0xf325
                         0000F341  2126 _g_RAMAD0	=	0xf341
                         0000F342  2127 _g_RAMAD1	=	0xf342
                         0000F343  2128 _g_RAMAD2	=	0xf343
                         0000F344  2129 _g_RAMAD3	=	0xf344
                         0000F348  2130 _g_MASTER	=	0xf348
                         0000F37D  2131 _g_BDOS	=	0xf37d
                                   2132 	.area _SEG16
                                   2133 	.area _INITIALIZER
                                   2134 	.area _CABS (ABS)
