                                      1 ;--------------------------------------------------------
                                      2 ; File Created by SDCC : free open source ANSI-C Compiler
                                      3 ; Version 4.2.0 #13081 (MINGW64)
                                      4 ;--------------------------------------------------------
                                      5 	.module soccerlg_s7_b3
                                      6 	.optsdcc -mz80
                                      7 	
                                      8 ;--------------------------------------------------------
                                      9 ; Public variables in this module
                                     10 ;--------------------------------------------------------
                                     11 	.globl _Keyboard_IsKeyPressed
                                     12 	.globl _Joystick_Read
                                     13 	.globl _g_SLTSL
                                     14 	.globl _g_GRPACY
                                     15 	.globl _g_GRPACX
                                     16 	.globl _g_LOGOPR
                                     17 	.globl _g_CMASK
                                     18 	.globl _g_CLOC
                                     19 	.globl _g_FNKSTR
                                     20 	.globl _g_ATRBYT
                                     21 	.globl _g_BDRCLR
                                     22 	.globl _g_BAKCLR
                                     23 	.globl _g_FORCLR
                                     24 	.globl _g_CSRX
                                     25 	.globl _g_CSRY
                                     26 	.globl _g_CLIKSW
                                     27 	.globl _g_MLTPAT
                                     28 	.globl _g_MLTATR
                                     29 	.globl _g_MLTCGP
                                     30 	.globl _g_MLTCOL
                                     31 	.globl _g_MLTNAM
                                     32 	.globl _g_GRPPAT
                                     33 	.globl _g_GRPATR
                                     34 	.globl _g_GRPCGP
                                     35 	.globl _g_GRPCOL
                                     36 	.globl _g_GRPNAM
                                     37 	.globl _g_T32PAT
                                     38 	.globl _g_T32ATR
                                     39 	.globl _g_T32CGP
                                     40 	.globl _g_T32COL
                                     41 	.globl _g_T32NAM
                                     42 	.globl _g_TXTPAT
                                     43 	.globl _g_TXTATR
                                     44 	.globl _g_TXTCGP
                                     45 	.globl _g_TXTCOL
                                     46 	.globl _g_TXTNAM
                                     47 	.globl _g_CLMLST
                                     48 	.globl _g_CRTCNT
                                     49 	.globl _g_LINLEN
                                     50 	.globl _g_LINL32
                                     51 	.globl _g_LINL40
                                     52 	.globl _g_BDOS
                                     53 	.globl _g_MASTER
                                     54 	.globl _g_RAMAD3
                                     55 	.globl _g_RAMAD2
                                     56 	.globl _g_RAMAD1
                                     57 	.globl _g_RAMAD0
                                     58 	.globl _g_BREAKV
                                     59 	.globl _g_DISKVE
                                     60 	.globl _g_KANJTABLE
                                     61 	.globl _g_STRSRC
                                     62 	.globl _g_SUBRID
                                     63 	.globl _g_CHAR_16
                                     64 	.globl _g_MSXMID
                                     65 	.globl _g_MSXVER
                                     66 	.globl _g_ROMVersion
                                     67 	.globl _g_BASRVN
                                     68 	.globl _g_VDP_DW
                                     69 	.globl _g_VDP_DR
                                     70 	.globl _g_CGTABL
                                     71 	.globl _g_SVFFFD
                                     72 	.globl _g_RG27SAV
                                     73 	.globl _g_RG26SAV
                                     74 	.globl _g_RG25SAV
                                     75 	.globl _g_SVFFF8
                                     76 	.globl _g_MINROM
                                     77 	.globl _g_RG23SAV
                                     78 	.globl _g_RG22SAV
                                     79 	.globl _g_RG21SAV
                                     80 	.globl _g_RG20SAV
                                     81 	.globl _g_RG19SAV
                                     82 	.globl _g_RG18SAV
                                     83 	.globl _g_RG17SAV
                                     84 	.globl _g_RG16SAV
                                     85 	.globl _g_RG15SAV
                                     86 	.globl _g_RG14SAV
                                     87 	.globl _g_RG13SAV
                                     88 	.globl _g_RG12SAV
                                     89 	.globl _g_RG11SAV
                                     90 	.globl _g_RG10SAV
                                     91 	.globl _g_RG09SAV
                                     92 	.globl _g_RG08SAV
                                     93 	.globl _g_PROCNM
                                     94 	.globl _g_SLTWRK
                                     95 	.globl _g_SLTATR
                                     96 	.globl _g_SLTTBL
                                     97 	.globl _g_EXPTBL
                                     98 	.globl _g_MNROM
                                     99 	.globl _g_DRWANG
                                    100 	.globl _g_DRWSCL
                                    101 	.globl _g_DRWFLG
                                    102 	.globl _g_GYPOS
                                    103 	.globl _g_GXPOS
                                    104 	.globl _g_BRDATR
                                    105 	.globl _g_CASPRV
                                    106 	.globl _g_OLDSCR
                                    107 	.globl _g_SCRMOD
                                    108 	.globl _g_FLBMEM
                                    109 	.globl _g_KANAMD
                                    110 	.globl _g_KANAST
                                    111 	.globl _g_CAPST
                                    112 	.globl _g_CSTYLE
                                    113 	.globl _g_CSRSW
                                    114 	.globl _g_INSFLG
                                    115 	.globl _g_ESCCNT
                                    116 	.globl _g_GRPHED
                                    117 	.globl _g_WINWID
                                    118 	.globl _g_LOWLIM
                                    119 	.globl _g_INTCNT
                                    120 	.globl _g_INTVAL
                                    121 	.globl _g_JIFFY
                                    122 	.globl _g_PADX
                                    123 	.globl _g_PADY
                                    124 	.globl _g_INTFLG
                                    125 	.globl _g_RTYCNT
                                    126 	.globl _g_TRPTBL
                                    127 	.globl _g_HIMEM
                                    128 	.globl _g_BOTTOM
                                    129 	.globl _g_PATWRK
                                    130 	.globl _g_LINWRK
                                    131 	.globl _g_KEYBUF
                                    132 	.globl _g_NEWKEY
                                    133 	.globl _g_OLDKEY
                                    134 	.globl _g_CLIKFL
                                    135 	.globl _g_ONGSBF
                                    136 	.globl _g_FNKFLG
                                    137 	.globl _g_FNKSWI
                                    138 	.globl _g_CODSAV
                                    139 	.globl _g_FSTPOS
                                    140 	.globl _g_LINTTB
                                    141 	.globl _g_BASROM
                                    142 	.globl _g_ENSTOP
                                    143 	.globl _g_VCBC
                                    144 	.globl _g_VCBB
                                    145 	.globl _g_VCBA
                                    146 	.globl _g_PLYCNT
                                    147 	.globl _g_MUSICF
                                    148 	.globl _g_QUEUEN
                                    149 	.globl _g_MCLPTR
                                    150 	.globl _g_MCLLEN
                                    151 	.globl _g_SAVVOL
                                    152 	.globl _g_VOICEN
                                    153 	.globl _g_SAVSP
                                    154 	.globl _g_PRSCNT
                                    155 	.globl _g_LSTMOD
                                    156 	.globl _g_LSTCOM
                                    157 	.globl _g_COMMSK
                                    158 	.globl _g_ESTBLS
                                    159 	.globl _g_FLAGS
                                    160 	.globl _g_ERRORS
                                    161 	.globl _g_DATCNT
                                    162 	.globl _g_DEVNUM
                                    163 	.globl _g_OLDINT
                                    164 	.globl _g_OLDSTT
                                    165 	.globl _g_MEXBIh
                                    166 	.globl _g_RSIQLN
                                    167 	.globl _g_RSFCB
                                    168 	.globl _g_TOCNT
                                    169 	.globl _g_RSTMP
                                    170 	.globl _g_YSAVE
                                    171 	.globl _g_XSAVE
                                    172 	.globl _g_NORUSE
                                    173 	.globl _g_MODE
                                    174 	.globl _g_ROMA
                                    175 	.globl _g_CHRCNT
                                    176 	.globl _g_EXBRSA
                                    177 	.globl _g_AVCSAV
                                    178 	.globl _g_ACPAGE
                                    179 	.globl _g_DPPAGE
                                    180 	.globl _g_RS2IQ
                                    181 	.globl _g_VOICCQ
                                    182 	.globl _g_VOICBQ
                                    183 	.globl _g_VOICAQ
                                    184 	.globl _g_QUEBAK
                                    185 	.globl _g_QUETAB
                                    186 	.globl _g_ASPCT2
                                    187 	.globl _g_ASPCT1
                                    188 	.globl _g_HEADER
                                    189 	.globl _g_HIGH
                                    190 	.globl _g_LOW
                                    191 	.globl _g_CS240
                                    192 	.globl _g_CS120
                                    193 	.globl _g_GETPNT
                                    194 	.globl _g_PUTPNT
                                    195 	.globl _g_REPCNT
                                    196 	.globl _g_SCNCNT
                                    197 	.globl _g_FRCNEW
                                    198 	.globl _g_QUEUES
                                    199 	.globl _g_MINUPD
                                    200 	.globl _g_MAXUPD
                                    201 	.globl _g_TRGFLG
                                    202 	.globl _g_STATFL
                                    203 	.globl _g_RG7SAV
                                    204 	.globl _g_RG6SAV
                                    205 	.globl _g_RG5SAV
                                    206 	.globl _g_RG4SAV
                                    207 	.globl _g_RG3SAV
                                    208 	.globl _g_RG2SAV
                                    209 	.globl _g_RG1SAV
                                    210 	.globl _g_RG0SAV
                                    211 	.globl _g_CNSDFG
                                    212 	.globl _g_USRTAB
                                    213 	.globl _g_CLPRIM
                                    214 	.globl _g_WRPRIM
                                    215 	.globl _g_RDPRIM
                                    216 	.globl _IsTeamJoystickTriggerPressed
                                    217 	.globl _GetJoystickDirection
                                    218 	.globl _UpdateAllInputs
                                    219 ;--------------------------------------------------------
                                    220 ; special function registers
                                    221 ;--------------------------------------------------------
                         000000A8   222 _g_PortPrimarySlot	=	0x00a8
                         000000A9   223 _g_PortReadKeyboard	=	0x00a9
                         000000AA   224 _g_PortAccessKeyboard	=	0x00aa
                         000000AB   225 _g_PortControl	=	0x00ab
                         00000098   226 _g_VDP_DataPort	=	0x0098
                         00000099   227 _g_VDP_RegPort	=	0x0099
                         00000099   228 _g_VDP_AddrPort	=	0x0099
                         00000099   229 _g_VDP_StatPort	=	0x0099
                         0000009A   230 _g_VDP_PalPort	=	0x009a
                         0000009B   231 _g_VDP_IRegPort	=	0x009b
                         000000A0   232 _g_PSG_RegPort	=	0x00a0
                         000000A1   233 _g_PSG_DataPort	=	0x00a1
                         000000A2   234 _g_PSG_StatPort	=	0x00a2
                         00000010   235 _g_PSG_Ext_RegPort	=	0x0010
                         00000011   236 _g_PSG_Ext_DataPort	=	0x0011
                         00000012   237 _g_PSG_Ext_StatPort	=	0x0012
                         0000007C   238 _g_MSXMusic_IndexPort	=	0x007c
                         0000007D   239 _g_MSXMusic_DataPort	=	0x007d
                         000000C0   240 _g_MSXAudio_IndexPort	=	0x00c0
                         000000C1   241 _g_MSXAudio_DataPort	=	0x00c1
                         000000C2   242 _g_MSXAudio_IndexPort2	=	0x00c2
                         000000C3   243 _g_MSXAudio_DataPort2	=	0x00c3
                         000000B4   244 _g_RTC_AddrPort	=	0x00b4
                         000000B5   245 _g_RTC_DataPort	=	0x00b5
                                    246 ;--------------------------------------------------------
                                    247 ; ram data
                                    248 ;--------------------------------------------------------
                                    249 	.area _DATA
                         0000F3AE   250 _g_LINL40	=	0xf3ae
                         0000F3AF   251 _g_LINL32	=	0xf3af
                         0000F3B0   252 _g_LINLEN	=	0xf3b0
                         0000F3B1   253 _g_CRTCNT	=	0xf3b1
                         0000F3B2   254 _g_CLMLST	=	0xf3b2
                         0000F3B3   255 _g_TXTNAM	=	0xf3b3
                         0000F3B5   256 _g_TXTCOL	=	0xf3b5
                         0000F3B7   257 _g_TXTCGP	=	0xf3b7
                         0000F3B9   258 _g_TXTATR	=	0xf3b9
                         0000F3BB   259 _g_TXTPAT	=	0xf3bb
                         0000F3BD   260 _g_T32NAM	=	0xf3bd
                         0000F3BF   261 _g_T32COL	=	0xf3bf
                         0000F3C1   262 _g_T32CGP	=	0xf3c1
                         0000F3C3   263 _g_T32ATR	=	0xf3c3
                         0000F3C5   264 _g_T32PAT	=	0xf3c5
                         0000F3C7   265 _g_GRPNAM	=	0xf3c7
                         0000F3C9   266 _g_GRPCOL	=	0xf3c9
                         0000F3CB   267 _g_GRPCGP	=	0xf3cb
                         0000F3CD   268 _g_GRPATR	=	0xf3cd
                         0000F3CF   269 _g_GRPPAT	=	0xf3cf
                         0000F3D1   270 _g_MLTNAM	=	0xf3d1
                         0000F3D3   271 _g_MLTCOL	=	0xf3d3
                         0000F3D5   272 _g_MLTCGP	=	0xf3d5
                         0000F3D7   273 _g_MLTATR	=	0xf3d7
                         0000F3D9   274 _g_MLTPAT	=	0xf3d9
                         0000F3DB   275 _g_CLIKSW	=	0xf3db
                         0000F3DC   276 _g_CSRY	=	0xf3dc
                         0000F3DD   277 _g_CSRX	=	0xf3dd
                         0000F3E9   278 _g_FORCLR	=	0xf3e9
                         0000F3EA   279 _g_BAKCLR	=	0xf3ea
                         0000F3EB   280 _g_BDRCLR	=	0xf3eb
                         0000F3F2   281 _g_ATRBYT	=	0xf3f2
                         0000F87F   282 _g_FNKSTR	=	0xf87f
                         0000F92A   283 _g_CLOC	=	0xf92a
                         0000F92C   284 _g_CMASK	=	0xf92c
                         0000FB02   285 _g_LOGOPR	=	0xfb02
                         0000FCB7   286 _g_GRPACX	=	0xfcb7
                         0000FCB9   287 _g_GRPACY	=	0xfcb9
                         0000FFFF   288 _g_SLTSL	=	0xffff
    00000000                        289 _UpdateAllInputs_s_prev_trigger_state_65536_799:
    00000000                        290 	.ds 2
                                    291 ;--------------------------------------------------------
                                    292 ; ram data
                                    293 ;--------------------------------------------------------
                                    294 	.area _INITIALIZED
                                    295 ;--------------------------------------------------------
                                    296 ; absolute external ram data
                                    297 ;--------------------------------------------------------
                                    298 	.area _DABS (ABS)
                                    299 ;--------------------------------------------------------
                                    300 ; global & static initialisations
                                    301 ;--------------------------------------------------------
                                    302 	.area _HOME
                                    303 	.area _GSINIT
                                    304 	.area _GSFINAL
                                    305 	.area _GSINIT
                                    306 ;E:\Dropbox\FAUSTO\SVILUPPI\MSX\CODE\C\MSXgl\projects\soccerlgMSX2/soccerlg_s7_b3.c:152: static bool s_prev_trigger_state[2] = {FALSE, FALSE};
    00000000 01r00r00         [10]  307 	ld	bc, #_UpdateAllInputs_s_prev_trigger_state_65536_799+0
    00000003 AF               [ 4]  308 	xor	a, a
    00000004 02               [ 7]  309 	ld	(bc), a
    00000005 03               [ 6]  310 	inc	bc
    00000006 AF               [ 4]  311 	xor	a, a
    00000007 02               [ 7]  312 	ld	(bc), a
                                    313 ;--------------------------------------------------------
                                    314 ; Home
                                    315 ;--------------------------------------------------------
                                    316 	.area _HOME
                                    317 	.area _HOME
                                    318 ;--------------------------------------------------------
                                    319 ; code
                                    320 ;--------------------------------------------------------
                                    321 	.area _SEG7
                                    322 ;E:\Dropbox\FAUSTO\SVILUPPI\MSX\CODE\C\MSXgl\projects\soccerlgMSX2/soccerlg_s7_b3.c:20: bool IsTeamJoystickTriggerPressed(u8 player){		
                                    323 ;	---------------------------------
                                    324 ; Function IsTeamJoystickTriggerPressed
                                    325 ; ---------------------------------
    00000000                        326 _IsTeamJoystickTriggerPressed::
                                    327 ;E:\Dropbox\FAUSTO\SVILUPPI\MSX\CODE\C\MSXgl\projects\soccerlgMSX2/soccerlg_s7_b3.c:21: if (player == 0) { // Player 1 (Joystick 1 + Tastiera)
    00000000 B7               [ 4]  328 	or	a, a
    00000001 20 17            [12]  329 	jr	NZ, 00110$
                                    330 ;E:\Dropbox\FAUSTO\SVILUPPI\MSX\CODE\C\MSXgl\projects\soccerlgMSX2/soccerlg_s7_b3.c:22: u8 joyStat = Joystick_Read(JOY_PORT_1);
    00000003 2E 0F            [ 7]  331 	ld	l, #0x0f
                                    332 ;	spillPairReg hl
                                    333 ;	spillPairReg hl
    00000005 CDr00r00         [17]  334 	call	_Joystick_Read
                                    335 ;E:\Dropbox\FAUSTO\SVILUPPI\MSX\CODE\C\MSXgl\projects\soccerlgMSX2/soccerlg_s7_b3.c:23: if (IS_JOY_PRESSED(joyStat, JOY_INPUT_TRIGGER_A))
    00000008 CB 65            [ 8]  336 	bit	4, l
    0000000A 20 03            [12]  337 	jr	NZ, 00102$
                                    338 ;E:\Dropbox\FAUSTO\SVILUPPI\MSX\CODE\C\MSXgl\projects\soccerlgMSX2/soccerlg_s7_b3.c:25: return true;
    0000000C 3E 01            [ 7]  339 	ld	a, #0x01
    0000000E C9               [10]  340 	ret
    0000000F                        341 00102$:
                                    342 ;E:\Dropbox\FAUSTO\SVILUPPI\MSX\CODE\C\MSXgl\projects\soccerlgMSX2/soccerlg_s7_b3.c:27: if(Keyboard_IsKeyPressed(KEY_SPACE))
    0000000F 3E 08            [ 7]  343 	ld	a, #0x08
    00000011 CDr00r00         [17]  344 	call	_Keyboard_IsKeyPressed
    00000014 B7               [ 4]  345 	or	a, a
    00000015 28 18            [12]  346 	jr	Z, 00111$
                                    347 ;E:\Dropbox\FAUSTO\SVILUPPI\MSX\CODE\C\MSXgl\projects\soccerlgMSX2/soccerlg_s7_b3.c:29: return true;
    00000017 3E 01            [ 7]  348 	ld	a, #0x01
    00000019 C9               [10]  349 	ret
    0000001A                        350 00110$:
                                    351 ;E:\Dropbox\FAUSTO\SVILUPPI\MSX\CODE\C\MSXgl\projects\soccerlgMSX2/soccerlg_s7_b3.c:32: u8 joyStat = Joystick_Read(JOY_PORT_2);
    0000001A 2E 4F            [ 7]  352 	ld	l, #0x4f
                                    353 ;	spillPairReg hl
                                    354 ;	spillPairReg hl
    0000001C CDr00r00         [17]  355 	call	_Joystick_Read
                                    356 ;E:\Dropbox\FAUSTO\SVILUPPI\MSX\CODE\C\MSXgl\projects\soccerlgMSX2/soccerlg_s7_b3.c:33: if (IS_JOY_PRESSED(joyStat, JOY_INPUT_TRIGGER_A))
    0000001F CB 65            [ 8]  357 	bit	4, l
    00000021 20 03            [12]  358 	jr	NZ, 00106$
                                    359 ;E:\Dropbox\FAUSTO\SVILUPPI\MSX\CODE\C\MSXgl\projects\soccerlgMSX2/soccerlg_s7_b3.c:35: return true;
    00000023 3E 01            [ 7]  360 	ld	a, #0x01
    00000025 C9               [10]  361 	ret
    00000026                        362 00106$:
                                    363 ;E:\Dropbox\FAUSTO\SVILUPPI\MSX\CODE\C\MSXgl\projects\soccerlgMSX2/soccerlg_s7_b3.c:37: if(Keyboard_IsKeyPressed(KEY_T))
    00000026 3E 15            [ 7]  364 	ld	a, #0x15
    00000028 CDr00r00         [17]  365 	call	_Keyboard_IsKeyPressed
    0000002B B7               [ 4]  366 	or	a, a
                                    367 ;E:\Dropbox\FAUSTO\SVILUPPI\MSX\CODE\C\MSXgl\projects\soccerlgMSX2/soccerlg_s7_b3.c:39: return true;
                                    368 ;E:\Dropbox\FAUSTO\SVILUPPI\MSX\CODE\C\MSXgl\projects\soccerlgMSX2/soccerlg_s7_b3.c:42: return FALSE;
    0000002C 3E 01            [ 7]  369 	ld	a, #0x01
    0000002E C0               [11]  370 	ret	NZ
    0000002F                        371 00111$:
    0000002F AF               [ 4]  372 	xor	a, a
                                    373 ;E:\Dropbox\FAUSTO\SVILUPPI\MSX\CODE\C\MSXgl\projects\soccerlgMSX2/soccerlg_s7_b3.c:43: }
    00000030 C9               [10]  374 	ret
                         0000F380   375 _g_RDPRIM	=	0xf380
                         0000F385   376 _g_WRPRIM	=	0xf385
                         0000F38C   377 _g_CLPRIM	=	0xf38c
                         0000F39A   378 _g_USRTAB	=	0xf39a
                         0000F3DE   379 _g_CNSDFG	=	0xf3de
                         0000F3DF   380 _g_RG0SAV	=	0xf3df
                         0000F3E0   381 _g_RG1SAV	=	0xf3e0
                         0000F3E1   382 _g_RG2SAV	=	0xf3e1
                         0000F3E2   383 _g_RG3SAV	=	0xf3e2
                         0000F3E3   384 _g_RG4SAV	=	0xf3e3
                         0000F3E4   385 _g_RG5SAV	=	0xf3e4
                         0000F3E5   386 _g_RG6SAV	=	0xf3e5
                         0000F3E6   387 _g_RG7SAV	=	0xf3e6
                         0000F3E7   388 _g_STATFL	=	0xf3e7
                         0000F3E8   389 _g_TRGFLG	=	0xf3e8
                         0000F3EC   390 _g_MAXUPD	=	0xf3ec
                         0000F3EF   391 _g_MINUPD	=	0xf3ef
                         0000F3F3   392 _g_QUEUES	=	0xf3f3
                         0000F3F5   393 _g_FRCNEW	=	0xf3f5
                         0000F3F6   394 _g_SCNCNT	=	0xf3f6
                         0000F3F7   395 _g_REPCNT	=	0xf3f7
                         0000F3F8   396 _g_PUTPNT	=	0xf3f8
                         0000F3FA   397 _g_GETPNT	=	0xf3fa
                         0000F3FC   398 _g_CS120	=	0xf3fc
                         0000F401   399 _g_CS240	=	0xf401
                         0000F406   400 _g_LOW	=	0xf406
                         0000F408   401 _g_HIGH	=	0xf408
                         0000F40A   402 _g_HEADER	=	0xf40a
                         0000F40B   403 _g_ASPCT1	=	0xf40b
                         0000F40D   404 _g_ASPCT2	=	0xf40d
                         0000F959   405 _g_QUETAB	=	0xf959
                         0000F971   406 _g_QUEBAK	=	0xf971
                         0000F975   407 _g_VOICAQ	=	0xf975
                         0000F9F5   408 _g_VOICBQ	=	0xf9f5
                         0000FA75   409 _g_VOICCQ	=	0xfa75
                         0000FAF5   410 _g_RS2IQ	=	0xfaf5
                         0000FAF5   411 _g_DPPAGE	=	0xfaf5
                         0000FAF6   412 _g_ACPAGE	=	0xfaf6
                         0000FAF7   413 _g_AVCSAV	=	0xfaf7
                         0000FAF8   414 _g_EXBRSA	=	0xfaf8
                         0000FAF9   415 _g_CHRCNT	=	0xfaf9
                         0000FAFA   416 _g_ROMA	=	0xfafa
                         0000FAFC   417 _g_MODE	=	0xfafc
                         0000FAFD   418 _g_NORUSE	=	0xfafd
                         0000FAFE   419 _g_XSAVE	=	0xfafe
                         0000FB00   420 _g_YSAVE	=	0xfb00
                         0000FB03   421 _g_RSTMP	=	0xfb03
                         0000FB03   422 _g_TOCNT	=	0xfb03
                         0000FB04   423 _g_RSFCB	=	0xfb04
                         0000FB06   424 _g_RSIQLN	=	0xfb06
                         0000FB07   425 _g_MEXBIh	=	0xfb07
                         0000FB0C   426 _g_OLDSTT	=	0xfb0c
                         0000FB0C   427 _g_OLDINT	=	0xfb0c
                         0000FB16   428 _g_DEVNUM	=	0xfb16
                         0000FB17   429 _g_DATCNT	=	0xfb17
                         0000FB1A   430 _g_ERRORS	=	0xfb1a
                         0000FB1B   431 _g_FLAGS	=	0xfb1b
                         0000FB1C   432 _g_ESTBLS	=	0xfb1c
                         0000FB1D   433 _g_COMMSK	=	0xfb1d
                         0000FB1E   434 _g_LSTCOM	=	0xfb1e
                         0000FB1F   435 _g_LSTMOD	=	0xfb1f
                         0000FB35   436 _g_PRSCNT	=	0xfb35
                         0000FB36   437 _g_SAVSP	=	0xfb36
                         0000FB38   438 _g_VOICEN	=	0xfb38
                         0000FB39   439 _g_SAVVOL	=	0xfb39
                         0000FB3B   440 _g_MCLLEN	=	0xfb3b
                         0000FB3C   441 _g_MCLPTR	=	0xfb3c
                         0000FB3E   442 _g_QUEUEN	=	0xfb3e
                         0000FB3F   443 _g_MUSICF	=	0xfb3f
                         0000FB40   444 _g_PLYCNT	=	0xfb40
                         0000FB41   445 _g_VCBA	=	0xfb41
                         0000FB66   446 _g_VCBB	=	0xfb66
                         0000FB8B   447 _g_VCBC	=	0xfb8b
                         0000FBB0   448 _g_ENSTOP	=	0xfbb0
                         0000FBB1   449 _g_BASROM	=	0xfbb1
                         0000FBB2   450 _g_LINTTB	=	0xfbb2
                         0000FBCA   451 _g_FSTPOS	=	0xfbca
                         0000FBCC   452 _g_CODSAV	=	0xfbcc
                         0000FBCD   453 _g_FNKSWI	=	0xfbcd
                         0000FBCE   454 _g_FNKFLG	=	0xfbce
                         0000FBD8   455 _g_ONGSBF	=	0xfbd8
                         0000FBD9   456 _g_CLIKFL	=	0xfbd9
                         0000FBDA   457 _g_OLDKEY	=	0xfbda
                         0000FBE5   458 _g_NEWKEY	=	0xfbe5
                         0000FBF0   459 _g_KEYBUF	=	0xfbf0
                         0000FC18   460 _g_LINWRK	=	0xfc18
                         0000FC40   461 _g_PATWRK	=	0xfc40
                         0000FC48   462 _g_BOTTOM	=	0xfc48
                         0000FC4A   463 _g_HIMEM	=	0xfc4a
                         0000FC4C   464 _g_TRPTBL	=	0xfc4c
                         0000FC9A   465 _g_RTYCNT	=	0xfc9a
                         0000FC9B   466 _g_INTFLG	=	0xfc9b
                         0000FC9C   467 _g_PADY	=	0xfc9c
                         0000FC9D   468 _g_PADX	=	0xfc9d
                         0000FC9E   469 _g_JIFFY	=	0xfc9e
                         0000FCA0   470 _g_INTVAL	=	0xfca0
                         0000FCA2   471 _g_INTCNT	=	0xfca2
                         0000FCA4   472 _g_LOWLIM	=	0xfca4
                         0000FCA5   473 _g_WINWID	=	0xfca5
                         0000FCA6   474 _g_GRPHED	=	0xfca6
                         0000FCA7   475 _g_ESCCNT	=	0xfca7
                         0000FCA8   476 _g_INSFLG	=	0xfca8
                         0000FCA9   477 _g_CSRSW	=	0xfca9
                         0000FCAA   478 _g_CSTYLE	=	0xfcaa
                         0000FCAB   479 _g_CAPST	=	0xfcab
                         0000FCAC   480 _g_KANAST	=	0xfcac
                         0000FCAD   481 _g_KANAMD	=	0xfcad
                         0000FCAE   482 _g_FLBMEM	=	0xfcae
                         0000FCAF   483 _g_SCRMOD	=	0xfcaf
                         0000FCB0   484 _g_OLDSCR	=	0xfcb0
                         0000FCB1   485 _g_CASPRV	=	0xfcb1
                         0000FCB2   486 _g_BRDATR	=	0xfcb2
                         0000FCB3   487 _g_GXPOS	=	0xfcb3
                         0000FCB5   488 _g_GYPOS	=	0xfcb5
                         0000FCBB   489 _g_DRWFLG	=	0xfcbb
                         0000FCBC   490 _g_DRWSCL	=	0xfcbc
                         0000FCBD   491 _g_DRWANG	=	0xfcbd
                         0000FCC1   492 _g_MNROM	=	0xfcc1
                         0000FCC1   493 _g_EXPTBL	=	0xfcc1
                         0000FCC5   494 _g_SLTTBL	=	0xfcc5
                         0000FCC9   495 _g_SLTATR	=	0xfcc9
                         0000FD09   496 _g_SLTWRK	=	0xfd09
                         0000FD89   497 _g_PROCNM	=	0xfd89
                         0000FFE7   498 _g_RG08SAV	=	0xffe7
                         0000FFE8   499 _g_RG09SAV	=	0xffe8
                         0000FFE9   500 _g_RG10SAV	=	0xffe9
                         0000FFEA   501 _g_RG11SAV	=	0xffea
                         0000FFEB   502 _g_RG12SAV	=	0xffeb
                         0000FFEC   503 _g_RG13SAV	=	0xffec
                         0000FFED   504 _g_RG14SAV	=	0xffed
                         0000FFEE   505 _g_RG15SAV	=	0xffee
                         0000FFEF   506 _g_RG16SAV	=	0xffef
                         0000FFF0   507 _g_RG17SAV	=	0xfff0
                         0000FFF1   508 _g_RG18SAV	=	0xfff1
                         0000FFF2   509 _g_RG19SAV	=	0xfff2
                         0000FFF3   510 _g_RG20SAV	=	0xfff3
                         0000FFF4   511 _g_RG21SAV	=	0xfff4
                         0000FFF5   512 _g_RG22SAV	=	0xfff5
                         0000FFF6   513 _g_RG23SAV	=	0xfff6
                         0000FFF7   514 _g_MINROM	=	0xfff7
                         0000FFF8   515 _g_SVFFF8	=	0xfff8
                         0000FFFA   516 _g_RG25SAV	=	0xfffa
                         0000FFFB   517 _g_RG26SAV	=	0xfffb
                         0000FFFC   518 _g_RG27SAV	=	0xfffc
                         0000FFFD   519 _g_SVFFFD	=	0xfffd
                         00000004   520 _g_CGTABL	=	0x0004
                         00000006   521 _g_VDP_DR	=	0x0006
                         00000007   522 _g_VDP_DW	=	0x0007
                         0000002B   523 _g_BASRVN	=	0x002b
                         0000002B   524 _g_ROMVersion	=	0x002b
                         0000002D   525 _g_MSXVER	=	0x002d
                         0000002E   526 _g_MSXMID	=	0x002e
                         00000034   527 _g_CHAR_16	=	0x0034
                         00000000   528 _g_SUBRID	=	0x0000
                         00000002   529 _g_STRSRC	=	0x0002
                         0000F30F   530 _g_KANJTABLE	=	0xf30f
                         0000F323   531 _g_DISKVE	=	0xf323
                         0000F325   532 _g_BREAKV	=	0xf325
                         0000F341   533 _g_RAMAD0	=	0xf341
                         0000F342   534 _g_RAMAD1	=	0xf342
                         0000F343   535 _g_RAMAD2	=	0xf343
                         0000F344   536 _g_RAMAD3	=	0xf344
                         0000F348   537 _g_MASTER	=	0xf348
                         0000F37D   538 _g_BDOS	=	0xf37d
                                    539 ;E:\Dropbox\FAUSTO\SVILUPPI\MSX\CODE\C\MSXgl\projects\soccerlgMSX2/soccerlg_s7_b3.c:46: u8 GetJoystickDirection(u8 player){
                                    540 ;	---------------------------------
                                    541 ; Function GetJoystickDirection
                                    542 ; ---------------------------------
    00000031                        543 _GetJoystickDirection::
                                    544 ;E:\Dropbox\FAUSTO\SVILUPPI\MSX\CODE\C\MSXgl\projects\soccerlgMSX2/soccerlg_s7_b3.c:47: u8 port = (player == 0) ? JOY_PORT_1 : JOY_PORT_2;
    00000031 4F               [ 4]  545 	ld	c, a
    00000032 B7               [ 4]  546 	or	a, a
    00000033 20 06            [12]  547 	jr	NZ, 00167$
    00000035 21 0F 00         [10]  548 	ld	hl, #0x000f
    00000038 C3r3Er00         [10]  549 	jp	00168$
    0000003B                        550 00167$:
    0000003B 21 4F 00         [10]  551 	ld	hl, #0x004f
    0000003E                        552 00168$:
                                    553 ;E:/Dropbox/FAUSTO/SVILUPPI/MSX/CODE/C/MSXgl/engine/src/input.h:182: u8 in = ~Joystick_Read(port);
    0000003E CDr00r00         [17]  554 	call	_Joystick_Read
    00000041 7D               [ 4]  555 	ld	a, l
    00000042 2F               [ 4]  556 	cpl
                                    557 ;E:\Dropbox\FAUSTO\SVILUPPI\MSX\CODE\C\MSXgl\projects\soccerlgMSX2/soccerlg_s7_b3.c:48: u8 dir = Joystick_GetDirection(port);
    00000043 E6 0F            [ 7]  558 	and	a, #0x0f
    00000045 57               [ 4]  559 	ld	d, a
    00000046 5A               [ 4]  560 	ld	e, d
                                    561 ;E:\Dropbox\FAUSTO\SVILUPPI\MSX\CODE\C\MSXgl\projects\soccerlgMSX2/soccerlg_s7_b3.c:49: u8 retValue=DIRECTION_NONE;
    00000047 06 00            [ 7]  562 	ld	b, #0x00
                                    563 ;E:\Dropbox\FAUSTO\SVILUPPI\MSX\CODE\C\MSXgl\projects\soccerlgMSX2/soccerlg_s7_b3.c:50: switch (dir){
    00000049 3E 0A            [ 7]  564 	ld	a, #0x0a
    0000004B 92               [ 4]  565 	sub	a, d
    0000004C 38 4F            [12]  566 	jr	C, 00109$
    0000004E 16 00            [ 7]  567 	ld	d, #0x00
    00000050 21r57r00         [10]  568 	ld	hl, #00359$
    00000053 19               [11]  569 	add	hl, de
    00000054 19               [11]  570 	add	hl, de
    00000055 19               [11]  571 	add	hl, de
    00000056 E9               [ 4]  572 	jp	(hl)
    00000057                        573 00359$:
    00000057 C3r9Dr00         [10]  574 	jp	00109$
    0000005A C3r78r00         [10]  575 	jp	00101$
    0000005D C3r7Dr00         [10]  576 	jp	00102$
    00000060 C3r9Dr00         [10]  577 	jp	00109$
    00000063 C3r82r00         [10]  578 	jp	00103$
    00000066 C3r91r00         [10]  579 	jp	00106$
    00000069 C3r9Br00         [10]  580 	jp	00108$
    0000006C C3r9Dr00         [10]  581 	jp	00109$
    0000006F C3r87r00         [10]  582 	jp	00104$
    00000072 C3r8Cr00         [10]  583 	jp	00105$
    00000075 C3r96r00         [10]  584 	jp	00107$
                                    585 ;E:\Dropbox\FAUSTO\SVILUPPI\MSX\CODE\C\MSXgl\projects\soccerlgMSX2/soccerlg_s7_b3.c:51: case JOY_INPUT_DIR_UP:
    00000078                        586 00101$:
                                    587 ;E:\Dropbox\FAUSTO\SVILUPPI\MSX\CODE\C\MSXgl\projects\soccerlgMSX2/soccerlg_s7_b3.c:52: retValue=DIRECTION_UP;
    00000078 06 01            [ 7]  588 	ld	b, #0x01
                                    589 ;E:\Dropbox\FAUSTO\SVILUPPI\MSX\CODE\C\MSXgl\projects\soccerlgMSX2/soccerlg_s7_b3.c:53: break;
    0000007A C3r9Dr00         [10]  590 	jp	00109$
                                    591 ;E:\Dropbox\FAUSTO\SVILUPPI\MSX\CODE\C\MSXgl\projects\soccerlgMSX2/soccerlg_s7_b3.c:54: case JOY_INPUT_DIR_DOWN:
    0000007D                        592 00102$:
                                    593 ;E:\Dropbox\FAUSTO\SVILUPPI\MSX\CODE\C\MSXgl\projects\soccerlgMSX2/soccerlg_s7_b3.c:55: retValue=DIRECTION_DOWN;
    0000007D 06 05            [ 7]  594 	ld	b, #0x05
                                    595 ;E:\Dropbox\FAUSTO\SVILUPPI\MSX\CODE\C\MSXgl\projects\soccerlgMSX2/soccerlg_s7_b3.c:56: break;
    0000007F C3r9Dr00         [10]  596 	jp	00109$
                                    597 ;E:\Dropbox\FAUSTO\SVILUPPI\MSX\CODE\C\MSXgl\projects\soccerlgMSX2/soccerlg_s7_b3.c:57: case JOY_INPUT_DIR_LEFT:
    00000082                        598 00103$:
                                    599 ;E:\Dropbox\FAUSTO\SVILUPPI\MSX\CODE\C\MSXgl\projects\soccerlgMSX2/soccerlg_s7_b3.c:58: retValue=DIRECTION_LEFT;
    00000082 06 07            [ 7]  600 	ld	b, #0x07
                                    601 ;E:\Dropbox\FAUSTO\SVILUPPI\MSX\CODE\C\MSXgl\projects\soccerlgMSX2/soccerlg_s7_b3.c:59: break;
    00000084 C3r9Dr00         [10]  602 	jp	00109$
                                    603 ;E:\Dropbox\FAUSTO\SVILUPPI\MSX\CODE\C\MSXgl\projects\soccerlgMSX2/soccerlg_s7_b3.c:60: case JOY_INPUT_DIR_RIGHT:
    00000087                        604 00104$:
                                    605 ;E:\Dropbox\FAUSTO\SVILUPPI\MSX\CODE\C\MSXgl\projects\soccerlgMSX2/soccerlg_s7_b3.c:61: retValue=DIRECTION_RIGHT;
    00000087 06 03            [ 7]  606 	ld	b, #0x03
                                    607 ;E:\Dropbox\FAUSTO\SVILUPPI\MSX\CODE\C\MSXgl\projects\soccerlgMSX2/soccerlg_s7_b3.c:62: break;
    00000089 C3r9Dr00         [10]  608 	jp	00109$
                                    609 ;E:\Dropbox\FAUSTO\SVILUPPI\MSX\CODE\C\MSXgl\projects\soccerlgMSX2/soccerlg_s7_b3.c:63: case JOY_INPUT_DIR_UP_RIGHT:
    0000008C                        610 00105$:
                                    611 ;E:\Dropbox\FAUSTO\SVILUPPI\MSX\CODE\C\MSXgl\projects\soccerlgMSX2/soccerlg_s7_b3.c:64: retValue=DIRECTION_UP_RIGHT;
    0000008C 06 02            [ 7]  612 	ld	b, #0x02
                                    613 ;E:\Dropbox\FAUSTO\SVILUPPI\MSX\CODE\C\MSXgl\projects\soccerlgMSX2/soccerlg_s7_b3.c:65: break;
    0000008E C3r9Dr00         [10]  614 	jp	00109$
                                    615 ;E:\Dropbox\FAUSTO\SVILUPPI\MSX\CODE\C\MSXgl\projects\soccerlgMSX2/soccerlg_s7_b3.c:66: case JOY_INPUT_DIR_UP_LEFT:
    00000091                        616 00106$:
                                    617 ;E:\Dropbox\FAUSTO\SVILUPPI\MSX\CODE\C\MSXgl\projects\soccerlgMSX2/soccerlg_s7_b3.c:67: retValue=DIRECTION_UP_LEFT;
    00000091 06 08            [ 7]  618 	ld	b, #0x08
                                    619 ;E:\Dropbox\FAUSTO\SVILUPPI\MSX\CODE\C\MSXgl\projects\soccerlgMSX2/soccerlg_s7_b3.c:68: break;
    00000093 C3r9Dr00         [10]  620 	jp	00109$
                                    621 ;E:\Dropbox\FAUSTO\SVILUPPI\MSX\CODE\C\MSXgl\projects\soccerlgMSX2/soccerlg_s7_b3.c:69: case JOY_INPUT_DIR_DOWN_RIGHT:
    00000096                        622 00107$:
                                    623 ;E:\Dropbox\FAUSTO\SVILUPPI\MSX\CODE\C\MSXgl\projects\soccerlgMSX2/soccerlg_s7_b3.c:70: retValue=DIRECTION_DOWN_RIGHT;
    00000096 06 04            [ 7]  624 	ld	b, #0x04
                                    625 ;E:\Dropbox\FAUSTO\SVILUPPI\MSX\CODE\C\MSXgl\projects\soccerlgMSX2/soccerlg_s7_b3.c:71: break;
    00000098 C3r9Dr00         [10]  626 	jp	00109$
                                    627 ;E:\Dropbox\FAUSTO\SVILUPPI\MSX\CODE\C\MSXgl\projects\soccerlgMSX2/soccerlg_s7_b3.c:72: case JOY_INPUT_DIR_DOWN_LEFT:
    0000009B                        628 00108$:
                                    629 ;E:\Dropbox\FAUSTO\SVILUPPI\MSX\CODE\C\MSXgl\projects\soccerlgMSX2/soccerlg_s7_b3.c:73: retValue=DIRECTION_DOWN_LEFT;
    0000009B 06 06            [ 7]  630 	ld	b, #0x06
                                    631 ;E:\Dropbox\FAUSTO\SVILUPPI\MSX\CODE\C\MSXgl\projects\soccerlgMSX2/soccerlg_s7_b3.c:75: }
    0000009D                        632 00109$:
                                    633 ;E:\Dropbox\FAUSTO\SVILUPPI\MSX\CODE\C\MSXgl\projects\soccerlgMSX2/soccerlg_s7_b3.c:76: if(retValue==DIRECTION_NONE && player == 0){
    0000009D 78               [ 4]  634 	ld	a, b
    0000009E B7               [ 4]  635 	or	a,a
    0000009F C2r3Er01         [10]  636 	jp	NZ,00135$
    000000A2 B1               [ 4]  637 	or	a,c
    000000A3 C2r3Er01         [10]  638 	jp	NZ, 00135$
                                    639 ;E:\Dropbox\FAUSTO\SVILUPPI\MSX\CODE\C\MSXgl\projects\soccerlgMSX2/soccerlg_s7_b3.c:77: if(Keyboard_IsKeyPressed(KEY_LEFT) && Keyboard_IsKeyPressed(KEY_UP))
    000000A6 C5               [11]  640 	push	bc
    000000A7 3E 48            [ 7]  641 	ld	a, #0x48
    000000A9 CDr00r00         [17]  642 	call	_Keyboard_IsKeyPressed
    000000AC C1               [10]  643 	pop	bc
    000000AD B7               [ 4]  644 	or	a, a
    000000AE 28 0C            [12]  645 	jr	Z, 00111$
    000000B0 C5               [11]  646 	push	bc
    000000B1 3E 58            [ 7]  647 	ld	a, #0x58
    000000B3 CDr00r00         [17]  648 	call	_Keyboard_IsKeyPressed
    000000B6 C1               [10]  649 	pop	bc
    000000B7 B7               [ 4]  650 	or	a, a
    000000B8 28 02            [12]  651 	jr	Z, 00111$
                                    652 ;E:\Dropbox\FAUSTO\SVILUPPI\MSX\CODE\C\MSXgl\projects\soccerlgMSX2/soccerlg_s7_b3.c:79: retValue=DIRECTION_UP_LEFT;
    000000BA 06 08            [ 7]  653 	ld	b, #0x08
    000000BC                        654 00111$:
                                    655 ;E:\Dropbox\FAUSTO\SVILUPPI\MSX\CODE\C\MSXgl\projects\soccerlgMSX2/soccerlg_s7_b3.c:81: if(Keyboard_IsKeyPressed(KEY_LEFT) && Keyboard_IsKeyPressed(KEY_DOWN))
    000000BC C5               [11]  656 	push	bc
    000000BD 3E 48            [ 7]  657 	ld	a, #0x48
    000000BF CDr00r00         [17]  658 	call	_Keyboard_IsKeyPressed
    000000C2 C1               [10]  659 	pop	bc
    000000C3 B7               [ 4]  660 	or	a, a
    000000C4 28 0C            [12]  661 	jr	Z, 00114$
    000000C6 C5               [11]  662 	push	bc
    000000C7 3E 68            [ 7]  663 	ld	a, #0x68
    000000C9 CDr00r00         [17]  664 	call	_Keyboard_IsKeyPressed
    000000CC C1               [10]  665 	pop	bc
    000000CD B7               [ 4]  666 	or	a, a
    000000CE 28 02            [12]  667 	jr	Z, 00114$
                                    668 ;E:\Dropbox\FAUSTO\SVILUPPI\MSX\CODE\C\MSXgl\projects\soccerlgMSX2/soccerlg_s7_b3.c:83: retValue=DIRECTION_DOWN_LEFT;
    000000D0 06 06            [ 7]  669 	ld	b, #0x06
    000000D2                        670 00114$:
                                    671 ;E:\Dropbox\FAUSTO\SVILUPPI\MSX\CODE\C\MSXgl\projects\soccerlgMSX2/soccerlg_s7_b3.c:85: if(Keyboard_IsKeyPressed(KEY_RIGHT) && Keyboard_IsKeyPressed(KEY_DOWN))
    000000D2 C5               [11]  672 	push	bc
    000000D3 3E 78            [ 7]  673 	ld	a, #0x78
    000000D5 CDr00r00         [17]  674 	call	_Keyboard_IsKeyPressed
    000000D8 C1               [10]  675 	pop	bc
    000000D9 B7               [ 4]  676 	or	a, a
    000000DA 28 0C            [12]  677 	jr	Z, 00117$
    000000DC C5               [11]  678 	push	bc
    000000DD 3E 68            [ 7]  679 	ld	a, #0x68
    000000DF CDr00r00         [17]  680 	call	_Keyboard_IsKeyPressed
    000000E2 C1               [10]  681 	pop	bc
    000000E3 B7               [ 4]  682 	or	a, a
    000000E4 28 02            [12]  683 	jr	Z, 00117$
                                    684 ;E:\Dropbox\FAUSTO\SVILUPPI\MSX\CODE\C\MSXgl\projects\soccerlgMSX2/soccerlg_s7_b3.c:87: retValue=DIRECTION_DOWN_RIGHT;
    000000E6 06 04            [ 7]  685 	ld	b, #0x04
    000000E8                        686 00117$:
                                    687 ;E:\Dropbox\FAUSTO\SVILUPPI\MSX\CODE\C\MSXgl\projects\soccerlgMSX2/soccerlg_s7_b3.c:89: if(Keyboard_IsKeyPressed(KEY_RIGHT) && Keyboard_IsKeyPressed(KEY_UP))
    000000E8 C5               [11]  688 	push	bc
    000000E9 3E 78            [ 7]  689 	ld	a, #0x78
    000000EB CDr00r00         [17]  690 	call	_Keyboard_IsKeyPressed
    000000EE C1               [10]  691 	pop	bc
    000000EF B7               [ 4]  692 	or	a, a
    000000F0 28 0C            [12]  693 	jr	Z, 00120$
    000000F2 C5               [11]  694 	push	bc
    000000F3 3E 58            [ 7]  695 	ld	a, #0x58
    000000F5 CDr00r00         [17]  696 	call	_Keyboard_IsKeyPressed
    000000F8 C1               [10]  697 	pop	bc
    000000F9 B7               [ 4]  698 	or	a, a
    000000FA 28 02            [12]  699 	jr	Z, 00120$
                                    700 ;E:\Dropbox\FAUSTO\SVILUPPI\MSX\CODE\C\MSXgl\projects\soccerlgMSX2/soccerlg_s7_b3.c:91: retValue=DIRECTION_UP_RIGHT;
    000000FC 06 02            [ 7]  701 	ld	b, #0x02
    000000FE                        702 00120$:
                                    703 ;E:\Dropbox\FAUSTO\SVILUPPI\MSX\CODE\C\MSXgl\projects\soccerlgMSX2/soccerlg_s7_b3.c:93: if(retValue==DIRECTION_NONE && Keyboard_IsKeyPressed(KEY_LEFT))
    000000FE 78               [ 4]  704 	ld	a, b
    000000FF B7               [ 4]  705 	or	a, a
    00000100 20 0C            [12]  706 	jr	NZ, 00123$
    00000102 C5               [11]  707 	push	bc
    00000103 3E 48            [ 7]  708 	ld	a, #0x48
    00000105 CDr00r00         [17]  709 	call	_Keyboard_IsKeyPressed
    00000108 C1               [10]  710 	pop	bc
    00000109 B7               [ 4]  711 	or	a, a
    0000010A 28 02            [12]  712 	jr	Z, 00123$
                                    713 ;E:\Dropbox\FAUSTO\SVILUPPI\MSX\CODE\C\MSXgl\projects\soccerlgMSX2/soccerlg_s7_b3.c:95: retValue=DIRECTION_LEFT;
    0000010C 06 07            [ 7]  714 	ld	b, #0x07
    0000010E                        715 00123$:
                                    716 ;E:\Dropbox\FAUSTO\SVILUPPI\MSX\CODE\C\MSXgl\projects\soccerlgMSX2/soccerlg_s7_b3.c:97: if(retValue==DIRECTION_NONE && Keyboard_IsKeyPressed(KEY_RIGHT))
    0000010E 78               [ 4]  717 	ld	a, b
    0000010F B7               [ 4]  718 	or	a, a
    00000110 20 0C            [12]  719 	jr	NZ, 00126$
    00000112 C5               [11]  720 	push	bc
    00000113 3E 78            [ 7]  721 	ld	a, #0x78
    00000115 CDr00r00         [17]  722 	call	_Keyboard_IsKeyPressed
    00000118 C1               [10]  723 	pop	bc
    00000119 B7               [ 4]  724 	or	a, a
    0000011A 28 02            [12]  725 	jr	Z, 00126$
                                    726 ;E:\Dropbox\FAUSTO\SVILUPPI\MSX\CODE\C\MSXgl\projects\soccerlgMSX2/soccerlg_s7_b3.c:99: retValue=DIRECTION_RIGHT;
    0000011C 06 03            [ 7]  727 	ld	b, #0x03
    0000011E                        728 00126$:
                                    729 ;E:\Dropbox\FAUSTO\SVILUPPI\MSX\CODE\C\MSXgl\projects\soccerlgMSX2/soccerlg_s7_b3.c:101: if(retValue==DIRECTION_NONE && Keyboard_IsKeyPressed(KEY_UP))
    0000011E 78               [ 4]  730 	ld	a, b
    0000011F B7               [ 4]  731 	or	a, a
    00000120 20 0C            [12]  732 	jr	NZ, 00129$
    00000122 C5               [11]  733 	push	bc
    00000123 3E 58            [ 7]  734 	ld	a, #0x58
    00000125 CDr00r00         [17]  735 	call	_Keyboard_IsKeyPressed
    00000128 C1               [10]  736 	pop	bc
    00000129 B7               [ 4]  737 	or	a, a
    0000012A 28 02            [12]  738 	jr	Z, 00129$
                                    739 ;E:\Dropbox\FAUSTO\SVILUPPI\MSX\CODE\C\MSXgl\projects\soccerlgMSX2/soccerlg_s7_b3.c:103: retValue=DIRECTION_UP;
    0000012C 06 01            [ 7]  740 	ld	b, #0x01
    0000012E                        741 00129$:
                                    742 ;E:\Dropbox\FAUSTO\SVILUPPI\MSX\CODE\C\MSXgl\projects\soccerlgMSX2/soccerlg_s7_b3.c:105: if(retValue==DIRECTION_NONE && Keyboard_IsKeyPressed(KEY_DOWN))
    0000012E 78               [ 4]  743 	ld	a, b
    0000012F B7               [ 4]  744 	or	a, a
    00000130 20 0C            [12]  745 	jr	NZ, 00135$
    00000132 C5               [11]  746 	push	bc
    00000133 3E 68            [ 7]  747 	ld	a, #0x68
    00000135 CDr00r00         [17]  748 	call	_Keyboard_IsKeyPressed
    00000138 C1               [10]  749 	pop	bc
    00000139 B7               [ 4]  750 	or	a, a
    0000013A 28 02            [12]  751 	jr	Z, 00135$
                                    752 ;E:\Dropbox\FAUSTO\SVILUPPI\MSX\CODE\C\MSXgl\projects\soccerlgMSX2/soccerlg_s7_b3.c:107: retValue=DIRECTION_DOWN;
    0000013C 06 05            [ 7]  753 	ld	b, #0x05
    0000013E                        754 00135$:
                                    755 ;E:\Dropbox\FAUSTO\SVILUPPI\MSX\CODE\C\MSXgl\projects\soccerlgMSX2/soccerlg_s7_b3.c:110: if(retValue==DIRECTION_NONE && player == 1){
    0000013E 78               [ 4]  756 	ld	a, b
    0000013F B7               [ 4]  757 	or	a, a
    00000140 C2rDFr01         [10]  758 	jp	NZ, 00162$
    00000143 0D               [ 4]  759 	dec	c
    00000144 C2rDFr01         [10]  760 	jp	NZ,00162$
                                    761 ;E:\Dropbox\FAUSTO\SVILUPPI\MSX\CODE\C\MSXgl\projects\soccerlgMSX2/soccerlg_s7_b3.c:111: if(Keyboard_IsKeyPressed(KEY_A) && Keyboard_IsKeyPressed(KEY_W))
    00000147 C5               [11]  762 	push	bc
    00000148 3E 62            [ 7]  763 	ld	a, #0x62
    0000014A CDr00r00         [17]  764 	call	_Keyboard_IsKeyPressed
    0000014D C1               [10]  765 	pop	bc
    0000014E B7               [ 4]  766 	or	a, a
    0000014F 28 0C            [12]  767 	jr	Z, 00138$
    00000151 C5               [11]  768 	push	bc
    00000152 3E 45            [ 7]  769 	ld	a, #0x45
    00000154 CDr00r00         [17]  770 	call	_Keyboard_IsKeyPressed
    00000157 C1               [10]  771 	pop	bc
    00000158 B7               [ 4]  772 	or	a, a
    00000159 28 02            [12]  773 	jr	Z, 00138$
                                    774 ;E:\Dropbox\FAUSTO\SVILUPPI\MSX\CODE\C\MSXgl\projects\soccerlgMSX2/soccerlg_s7_b3.c:113: retValue=DIRECTION_UP_LEFT;
    0000015B 06 08            [ 7]  775 	ld	b, #0x08
    0000015D                        776 00138$:
                                    777 ;E:\Dropbox\FAUSTO\SVILUPPI\MSX\CODE\C\MSXgl\projects\soccerlgMSX2/soccerlg_s7_b3.c:115: if(Keyboard_IsKeyPressed(KEY_A) && Keyboard_IsKeyPressed(KEY_Z))
    0000015D C5               [11]  778 	push	bc
    0000015E 3E 62            [ 7]  779 	ld	a, #0x62
    00000160 CDr00r00         [17]  780 	call	_Keyboard_IsKeyPressed
    00000163 C1               [10]  781 	pop	bc
    00000164 B7               [ 4]  782 	or	a, a
    00000165 28 0C            [12]  783 	jr	Z, 00141$
    00000167 C5               [11]  784 	push	bc
    00000168 3E 75            [ 7]  785 	ld	a, #0x75
    0000016A CDr00r00         [17]  786 	call	_Keyboard_IsKeyPressed
    0000016D C1               [10]  787 	pop	bc
    0000016E B7               [ 4]  788 	or	a, a
    0000016F 28 02            [12]  789 	jr	Z, 00141$
                                    790 ;E:\Dropbox\FAUSTO\SVILUPPI\MSX\CODE\C\MSXgl\projects\soccerlgMSX2/soccerlg_s7_b3.c:117: retValue=DIRECTION_DOWN_LEFT;
    00000171 06 06            [ 7]  791 	ld	b, #0x06
    00000173                        792 00141$:
                                    793 ;E:\Dropbox\FAUSTO\SVILUPPI\MSX\CODE\C\MSXgl\projects\soccerlgMSX2/soccerlg_s7_b3.c:119: if(Keyboard_IsKeyPressed(KEY_S) && Keyboard_IsKeyPressed(KEY_Z))
    00000173 C5               [11]  794 	push	bc
    00000174 3E 05            [ 7]  795 	ld	a, #0x05
    00000176 CDr00r00         [17]  796 	call	_Keyboard_IsKeyPressed
    00000179 C1               [10]  797 	pop	bc
    0000017A B7               [ 4]  798 	or	a, a
    0000017B 28 0C            [12]  799 	jr	Z, 00144$
    0000017D C5               [11]  800 	push	bc
    0000017E 3E 75            [ 7]  801 	ld	a, #0x75
    00000180 CDr00r00         [17]  802 	call	_Keyboard_IsKeyPressed
    00000183 C1               [10]  803 	pop	bc
    00000184 B7               [ 4]  804 	or	a, a
    00000185 28 02            [12]  805 	jr	Z, 00144$
                                    806 ;E:\Dropbox\FAUSTO\SVILUPPI\MSX\CODE\C\MSXgl\projects\soccerlgMSX2/soccerlg_s7_b3.c:121: retValue=DIRECTION_DOWN_RIGHT;
    00000187 06 04            [ 7]  807 	ld	b, #0x04
    00000189                        808 00144$:
                                    809 ;E:\Dropbox\FAUSTO\SVILUPPI\MSX\CODE\C\MSXgl\projects\soccerlgMSX2/soccerlg_s7_b3.c:123: if(Keyboard_IsKeyPressed(KEY_S) && Keyboard_IsKeyPressed(KEY_W))
    00000189 C5               [11]  810 	push	bc
    0000018A 3E 05            [ 7]  811 	ld	a, #0x05
    0000018C CDr00r00         [17]  812 	call	_Keyboard_IsKeyPressed
    0000018F C1               [10]  813 	pop	bc
    00000190 B7               [ 4]  814 	or	a, a
    00000191 28 0C            [12]  815 	jr	Z, 00147$
    00000193 C5               [11]  816 	push	bc
    00000194 3E 45            [ 7]  817 	ld	a, #0x45
    00000196 CDr00r00         [17]  818 	call	_Keyboard_IsKeyPressed
    00000199 C1               [10]  819 	pop	bc
    0000019A B7               [ 4]  820 	or	a, a
    0000019B 28 02            [12]  821 	jr	Z, 00147$
                                    822 ;E:\Dropbox\FAUSTO\SVILUPPI\MSX\CODE\C\MSXgl\projects\soccerlgMSX2/soccerlg_s7_b3.c:125: retValue=DIRECTION_UP_RIGHT;
    0000019D 06 02            [ 7]  823 	ld	b, #0x02
    0000019F                        824 00147$:
                                    825 ;E:\Dropbox\FAUSTO\SVILUPPI\MSX\CODE\C\MSXgl\projects\soccerlgMSX2/soccerlg_s7_b3.c:127: if(retValue==DIRECTION_NONE && Keyboard_IsKeyPressed(KEY_A))
    0000019F 78               [ 4]  826 	ld	a, b
    000001A0 B7               [ 4]  827 	or	a, a
    000001A1 20 0C            [12]  828 	jr	NZ, 00150$
    000001A3 C5               [11]  829 	push	bc
    000001A4 3E 62            [ 7]  830 	ld	a, #0x62
    000001A6 CDr00r00         [17]  831 	call	_Keyboard_IsKeyPressed
    000001A9 C1               [10]  832 	pop	bc
    000001AA B7               [ 4]  833 	or	a, a
    000001AB 28 02            [12]  834 	jr	Z, 00150$
                                    835 ;E:\Dropbox\FAUSTO\SVILUPPI\MSX\CODE\C\MSXgl\projects\soccerlgMSX2/soccerlg_s7_b3.c:129: retValue=DIRECTION_LEFT;
    000001AD 06 07            [ 7]  836 	ld	b, #0x07
    000001AF                        837 00150$:
                                    838 ;E:\Dropbox\FAUSTO\SVILUPPI\MSX\CODE\C\MSXgl\projects\soccerlgMSX2/soccerlg_s7_b3.c:131: if(retValue==DIRECTION_NONE && Keyboard_IsKeyPressed(KEY_S))
    000001AF 78               [ 4]  839 	ld	a, b
    000001B0 B7               [ 4]  840 	or	a, a
    000001B1 20 0C            [12]  841 	jr	NZ, 00153$
    000001B3 C5               [11]  842 	push	bc
    000001B4 3E 05            [ 7]  843 	ld	a, #0x05
    000001B6 CDr00r00         [17]  844 	call	_Keyboard_IsKeyPressed
    000001B9 C1               [10]  845 	pop	bc
    000001BA B7               [ 4]  846 	or	a, a
    000001BB 28 02            [12]  847 	jr	Z, 00153$
                                    848 ;E:\Dropbox\FAUSTO\SVILUPPI\MSX\CODE\C\MSXgl\projects\soccerlgMSX2/soccerlg_s7_b3.c:133: retValue=DIRECTION_RIGHT;
    000001BD 06 03            [ 7]  849 	ld	b, #0x03
    000001BF                        850 00153$:
                                    851 ;E:\Dropbox\FAUSTO\SVILUPPI\MSX\CODE\C\MSXgl\projects\soccerlgMSX2/soccerlg_s7_b3.c:135: if(retValue==DIRECTION_NONE && Keyboard_IsKeyPressed(KEY_W))
    000001BF 78               [ 4]  852 	ld	a, b
    000001C0 B7               [ 4]  853 	or	a, a
    000001C1 20 0C            [12]  854 	jr	NZ, 00156$
    000001C3 C5               [11]  855 	push	bc
    000001C4 3E 45            [ 7]  856 	ld	a, #0x45
    000001C6 CDr00r00         [17]  857 	call	_Keyboard_IsKeyPressed
    000001C9 C1               [10]  858 	pop	bc
    000001CA B7               [ 4]  859 	or	a, a
    000001CB 28 02            [12]  860 	jr	Z, 00156$
                                    861 ;E:\Dropbox\FAUSTO\SVILUPPI\MSX\CODE\C\MSXgl\projects\soccerlgMSX2/soccerlg_s7_b3.c:137: retValue=DIRECTION_UP;
    000001CD 06 01            [ 7]  862 	ld	b, #0x01
    000001CF                        863 00156$:
                                    864 ;E:\Dropbox\FAUSTO\SVILUPPI\MSX\CODE\C\MSXgl\projects\soccerlgMSX2/soccerlg_s7_b3.c:139: if(retValue==DIRECTION_NONE && Keyboard_IsKeyPressed(KEY_Z))
    000001CF 78               [ 4]  865 	ld	a, b
    000001D0 B7               [ 4]  866 	or	a, a
    000001D1 20 0C            [12]  867 	jr	NZ, 00162$
    000001D3 C5               [11]  868 	push	bc
    000001D4 3E 75            [ 7]  869 	ld	a, #0x75
    000001D6 CDr00r00         [17]  870 	call	_Keyboard_IsKeyPressed
    000001D9 C1               [10]  871 	pop	bc
    000001DA B7               [ 4]  872 	or	a, a
    000001DB 28 02            [12]  873 	jr	Z, 00162$
                                    874 ;E:\Dropbox\FAUSTO\SVILUPPI\MSX\CODE\C\MSXgl\projects\soccerlgMSX2/soccerlg_s7_b3.c:141: retValue=DIRECTION_DOWN;
    000001DD 06 05            [ 7]  875 	ld	b, #0x05
    000001DF                        876 00162$:
                                    877 ;E:\Dropbox\FAUSTO\SVILUPPI\MSX\CODE\C\MSXgl\projects\soccerlgMSX2/soccerlg_s7_b3.c:144: return retValue;
    000001DF 78               [ 4]  878 	ld	a, b
                                    879 ;E:\Dropbox\FAUSTO\SVILUPPI\MSX\CODE\C\MSXgl\projects\soccerlgMSX2/soccerlg_s7_b3.c:145: }
    000001E0 C9               [10]  880 	ret
                                    881 ;E:\Dropbox\FAUSTO\SVILUPPI\MSX\CODE\C\MSXgl\projects\soccerlgMSX2/soccerlg_s7_b3.c:148: void UpdateAllInputs()
                                    882 ;	---------------------------------
                                    883 ; Function UpdateAllInputs
                                    884 ; ---------------------------------
    000001E1                        885 _UpdateAllInputs::
    000001E1 DD E5            [15]  886 	push	ix
    000001E3 DD 21 00 00      [14]  887 	ld	ix,#0
    000001E7 DD 39            [15]  888 	add	ix,sp
    000001E9 3B               [ 6]  889 	dec	sp
                                    890 ;E:\Dropbox\FAUSTO\SVILUPPI\MSX\CODE\C\MSXgl\projects\soccerlgMSX2/soccerlg_s7_b3.c:156: g_player_input[1].direction = GetJoystickDirection(0);
    000001EA AF               [ 4]  891 	xor	a, a
    000001EB CDr31r00         [17]  892 	call	_GetJoystickDirection
    000001EE 32r03r00         [13]  893 	ld	(#(_g_player_input + 3)),a
                                    894 ;E:\Dropbox\FAUSTO\SVILUPPI\MSX\CODE\C\MSXgl\projects\soccerlgMSX2/soccerlg_s7_b3.c:157: bool p1_trigger_down = IsTeamJoystickTriggerPressed(0);
    000001F1 AF               [ 4]  895 	xor	a, a
    000001F2 CDr00r00         [17]  896 	call	_IsTeamJoystickTriggerPressed
    000001F5 5F               [ 4]  897 	ld	e, a
                                    898 ;E:\Dropbox\FAUSTO\SVILUPPI\MSX\CODE\C\MSXgl\projects\soccerlgMSX2/soccerlg_s7_b3.c:158: g_player_input[1].trigger_pressed = p1_trigger_down && !s_prev_trigger_state[1];
    000001F6 01r04r00         [10]  899 	ld	bc, #_g_player_input + 4
    000001F9 7B               [ 4]  900 	ld	a, e
    000001FA B7               [ 4]  901 	or	a, a
    000001FB 28 06            [12]  902 	jr	Z, 00106$
    000001FD 3Ar01r00         [13]  903 	ld	a, (#(_UpdateAllInputs_s_prev_trigger_state_65536_799 + 1) + 0)
    00000200 B7               [ 4]  904 	or	a, a
    00000201 28 04            [12]  905 	jr	Z, 00107$
    00000203                        906 00106$:
    00000203 AF               [ 4]  907 	xor	a, a
    00000204 C3r09r02         [10]  908 	jp	00108$
    00000207                        909 00107$:
    00000207 3E 01            [ 7]  910 	ld	a, #0x01
    00000209                        911 00108$:
    00000209 02               [ 7]  912 	ld	(bc), a
                                    913 ;E:\Dropbox\FAUSTO\SVILUPPI\MSX\CODE\C\MSXgl\projects\soccerlgMSX2/soccerlg_s7_b3.c:159: g_player_input[1].trigger_down = p1_trigger_down;
    0000020A 21r05r00         [10]  914 	ld	hl, #(_g_player_input + 5)
    0000020D 73               [ 7]  915 	ld	(hl), e
                                    916 ;E:\Dropbox\FAUSTO\SVILUPPI\MSX\CODE\C\MSXgl\projects\soccerlgMSX2/soccerlg_s7_b3.c:160: s_prev_trigger_state[1] = p1_trigger_down;
    0000020E 01r00r00         [10]  917 	ld	bc, #_UpdateAllInputs_s_prev_trigger_state_65536_799+0
    00000211 21r01r00         [10]  918 	ld	hl, #(_UpdateAllInputs_s_prev_trigger_state_65536_799 + 1)
    00000214 73               [ 7]  919 	ld	(hl), e
                                    920 ;E:\Dropbox\FAUSTO\SVILUPPI\MSX\CODE\C\MSXgl\projects\soccerlgMSX2/soccerlg_s7_b3.c:168: g_player_input[0].trigger_pressed = p2_trigger_down && !s_prev_trigger_state[0];
                                    921 ;E:\Dropbox\FAUSTO\SVILUPPI\MSX\CODE\C\MSXgl\projects\soccerlgMSX2/soccerlg_s7_b3.c:169: g_player_input[0].trigger_down = p2_trigger_down;
                                    922 ;E:\Dropbox\FAUSTO\SVILUPPI\MSX\CODE\C\MSXgl\projects\soccerlgMSX2/soccerlg_s7_b3.c:163: if (GameMode == GAMEMODE_P1_VS_P2)
    00000215 3Ar00r00         [13]  923 	ld	a, (_GameMode+0)
    00000218 3D               [ 4]  924 	dec	a
    00000219 20 32            [12]  925 	jr	NZ, 00102$
                                    926 ;E:\Dropbox\FAUSTO\SVILUPPI\MSX\CODE\C\MSXgl\projects\soccerlgMSX2/soccerlg_s7_b3.c:166: g_player_input[0].direction = GetJoystickDirection(1);
    0000021B C5               [11]  927 	push	bc
    0000021C 3E 01            [ 7]  928 	ld	a, #0x01
    0000021E CDr31r00         [17]  929 	call	_GetJoystickDirection
    00000221 C1               [10]  930 	pop	bc
    00000222 32r00r00         [13]  931 	ld	(#_g_player_input),a
                                    932 ;E:\Dropbox\FAUSTO\SVILUPPI\MSX\CODE\C\MSXgl\projects\soccerlgMSX2/soccerlg_s7_b3.c:167: bool p2_trigger_down = IsTeamJoystickTriggerPressed(1);
    00000225 C5               [11]  933 	push	bc
    00000226 3E 01            [ 7]  934 	ld	a, #0x01
    00000228 CDr00r00         [17]  935 	call	_IsTeamJoystickTriggerPressed
    0000022B C1               [10]  936 	pop	bc
                                    937 ;E:\Dropbox\FAUSTO\SVILUPPI\MSX\CODE\C\MSXgl\projects\soccerlgMSX2/soccerlg_s7_b3.c:168: g_player_input[0].trigger_pressed = p2_trigger_down && !s_prev_trigger_state[0];
    0000022C DD 77 FF         [19]  938 	ld	-1 (ix), a
    0000022F B7               [ 4]  939 	or	a, a
    00000230 28 04            [12]  940 	jr	Z, 00109$
    00000232 0A               [ 7]  941 	ld	a, (bc)
    00000233 B7               [ 4]  942 	or	a, a
    00000234 28 04            [12]  943 	jr	Z, 00110$
    00000236                        944 00109$:
    00000236 AF               [ 4]  945 	xor	a, a
    00000237 C3r3Cr02         [10]  946 	jp	00111$
    0000023A                        947 00110$:
    0000023A 3E 01            [ 7]  948 	ld	a, #0x01
    0000023C                        949 00111$:
    0000023C 32r01r00         [13]  950 	ld	(#(_g_player_input + 1)),a
                                    951 ;E:\Dropbox\FAUSTO\SVILUPPI\MSX\CODE\C\MSXgl\projects\soccerlgMSX2/soccerlg_s7_b3.c:169: g_player_input[0].trigger_down = p2_trigger_down;
    0000023F 21r02r00         [10]  952 	ld	hl, #(_g_player_input + 2)
    00000242 DD 7E FF         [19]  953 	ld	a, -1 (ix)
    00000245 77               [ 7]  954 	ld	(hl), a
                                    955 ;E:\Dropbox\FAUSTO\SVILUPPI\MSX\CODE\C\MSXgl\projects\soccerlgMSX2/soccerlg_s7_b3.c:170: s_prev_trigger_state[0] = p2_trigger_down;
    00000246 DD 7E FF         [19]  956 	ld	a, -1 (ix)
    00000249 02               [ 7]  957 	ld	(bc), a
    0000024A C3r5Er02         [10]  958 	jp	00104$
    0000024D                        959 00102$:
                                    960 ;E:\Dropbox\FAUSTO\SVILUPPI\MSX\CODE\C\MSXgl\projects\soccerlgMSX2/soccerlg_s7_b3.c:174: g_player_input[0].direction = DIRECTION_NONE;
    0000024D 21r00r00         [10]  961 	ld	hl, #_g_player_input
    00000250 36 00            [10]  962 	ld	(hl), #0x00
                                    963 ;E:\Dropbox\FAUSTO\SVILUPPI\MSX\CODE\C\MSXgl\projects\soccerlgMSX2/soccerlg_s7_b3.c:175: g_player_input[0].trigger_down = FALSE;
    00000252 21r02r00         [10]  964 	ld	hl, #(_g_player_input + 2)
    00000255 36 00            [10]  965 	ld	(hl), #0x00
                                    966 ;E:\Dropbox\FAUSTO\SVILUPPI\MSX\CODE\C\MSXgl\projects\soccerlgMSX2/soccerlg_s7_b3.c:176: g_player_input[0].trigger_pressed = FALSE;
    00000257 21r01r00         [10]  967 	ld	hl, #(_g_player_input + 1)
    0000025A 36 00            [10]  968 	ld	(hl), #0x00
                                    969 ;E:\Dropbox\FAUSTO\SVILUPPI\MSX\CODE\C\MSXgl\projects\soccerlgMSX2/soccerlg_s7_b3.c:177: s_prev_trigger_state[0] = FALSE; // Ensure state is clean
    0000025C AF               [ 4]  970 	xor	a, a
    0000025D 02               [ 7]  971 	ld	(bc), a
    0000025E                        972 00104$:
                                    973 ;E:\Dropbox\FAUSTO\SVILUPPI\MSX\CODE\C\MSXgl\projects\soccerlgMSX2/soccerlg_s7_b3.c:179: }
    0000025E 33               [ 6]  974 	inc	sp
    0000025F DD E1            [14]  975 	pop	ix
    00000261 C9               [10]  976 	ret
                                    977 	.area _SEG7
                                    978 	.area _INITIALIZER
                                    979 	.area _CABS (ABS)
