                                      1 ;--------------------------------------------------------
                                      2 ; File Created by SDCC : free open source ANSI-C Compiler
                                      3 ; Version 4.2.0 #13081 (MINGW64)
                                      4 ;--------------------------------------------------------
                                      5 	.module soccerlg
                                      6 	.optsdcc -mz80
                                      7 	
                                      8 ;--------------------------------------------------------
                                      9 ; Public variables in this module
                                     10 ;--------------------------------------------------------
                                     11 	.globl _CallFnc_VOID_P2
                                     12 	.globl _DEBUG_INIT
                                     13 	.globl _PlotField
                                     14 	.globl _MainLoop
                                     15 	.globl _Print_SetColor
                                     16 	.globl _Print_DrawFormat
                                     17 	.globl _Print_DrawText
                                     18 	.globl _Print_SetBitmapFont
                                     19 	.globl _VPD_CommandSetupR36
                                     20 	.globl _VPD_CommandSetupR32
                                     21 	.globl _VDP_SetPaletteEntry
                                     22 	.globl _VDP_SetPalette
                                     23 	.globl _VDP_FillVRAM_128K
                                     24 	.globl _VDP_WriteVRAM_128K
                                     25 	.globl _VDP_RegWriteBakMask
                                     26 	.globl _VDP_RegWrite
                                     27 	.globl _VDP_SetMode
                                     28 	.globl _VDP_ClearVRAM
                                     29 	.globl _Bios_ClearScreen
                                     30 	.globl _Bios_SetHookCallback
                                     31 	.globl _g_VSynch
                                     32 	.globl _g_last_input_dir
                                     33 	.globl _g_prev_trigger
                                     34 	.globl _g_last_dy
                                     35 	.globl _g_last_dx
                                     36 	.globl _g_pass_receiver
                                     37 	.globl _g_pass_max_height
                                     38 	.globl _g_pass_max_frames
                                     39 	.globl _g_pass_target_y
                                     40 	.globl _g_pass_target_x
                                     41 	.globl _g_pass_start_y
                                     42 	.globl _g_pass_start_x
                                     43 	.globl _g_thrower_id
                                     44 	.globl _g_selected_rec
                                     45 	.globl _g_throw_rec_2
                                     46 	.globl _g_throw_rec_1
                                     47 	.globl _RestartSideY
                                     48 	.globl _RestartSideX
                                     49 	.globl _RestartType
                                     50 	.globl _LastTouchPlayer
                                     51 	.globl _LastTouchTeam
                                     52 	.globl _TimerEnabled
                                     53 	.globl _T2_Receiver
                                     54 	.globl _T2_Carrier
                                     55 	.globl _T1_Receiver
                                     56 	.globl _T1_Carrier
                                     57 	.globl _GameMode
                                     58 	.globl _KickOffTeam
                                     59 	.globl _Team2Code
                                     60 	.globl _Team1Code
                                     61 	.globl _ScoreB
                                     62 	.globl _ScoreA
                                     63 	.globl _Half
                                     64 	.globl _LastSecs
                                     65 	.globl _Mins
                                     66 	.globl _Secs
                                     67 	.globl _Frms
                                     68 	.globl _ScoreBoardRight
                                     69 	.globl _ScoreBoardLeft
                                     70 	.globl _Field
                                     71 	.globl _SwSprite
                                     72 	.globl _g_SLTSL
                                     73 	.globl _g_GRPACY
                                     74 	.globl _g_GRPACX
                                     75 	.globl _g_LOGOPR
                                     76 	.globl _g_CMASK
                                     77 	.globl _g_CLOC
                                     78 	.globl _g_FNKSTR
                                     79 	.globl _g_ATRBYT
                                     80 	.globl _g_BDRCLR
                                     81 	.globl _g_BAKCLR
                                     82 	.globl _g_FORCLR
                                     83 	.globl _g_CSRX
                                     84 	.globl _g_CSRY
                                     85 	.globl _g_CLIKSW
                                     86 	.globl _g_MLTPAT
                                     87 	.globl _g_MLTATR
                                     88 	.globl _g_MLTCGP
                                     89 	.globl _g_MLTCOL
                                     90 	.globl _g_MLTNAM
                                     91 	.globl _g_GRPPAT
                                     92 	.globl _g_GRPATR
                                     93 	.globl _g_GRPCGP
                                     94 	.globl _g_GRPCOL
                                     95 	.globl _g_GRPNAM
                                     96 	.globl _g_T32PAT
                                     97 	.globl _g_T32ATR
                                     98 	.globl _g_T32CGP
                                     99 	.globl _g_T32COL
                                    100 	.globl _g_T32NAM
                                    101 	.globl _g_TXTPAT
                                    102 	.globl _g_TXTATR
                                    103 	.globl _g_TXTCGP
                                    104 	.globl _g_TXTCOL
                                    105 	.globl _g_TXTNAM
                                    106 	.globl _g_CLMLST
                                    107 	.globl _g_CRTCNT
                                    108 	.globl _g_LINLEN
                                    109 	.globl _g_LINL32
                                    110 	.globl _g_LINL40
                                    111 	.globl _dummy
                                    112 	.globl _g_TeamColorsArray
                                    113 	.globl _g_Palette
                                    114 	.globl _g_BDOS
                                    115 	.globl _g_MASTER
                                    116 	.globl _g_RAMAD3
                                    117 	.globl _g_RAMAD2
                                    118 	.globl _g_RAMAD1
                                    119 	.globl _g_RAMAD0
                                    120 	.globl _g_BREAKV
                                    121 	.globl _g_DISKVE
                                    122 	.globl _g_KANJTABLE
                                    123 	.globl _g_STRSRC
                                    124 	.globl _g_SUBRID
                                    125 	.globl _g_CHAR_16
                                    126 	.globl _g_MSXMID
                                    127 	.globl _g_MSXVER
                                    128 	.globl _g_ROMVersion
                                    129 	.globl _g_BASRVN
                                    130 	.globl _g_VDP_DW
                                    131 	.globl _g_VDP_DR
                                    132 	.globl _g_CGTABL
                                    133 	.globl _g_SVFFFD
                                    134 	.globl _g_RG27SAV
                                    135 	.globl _g_RG26SAV
                                    136 	.globl _g_RG25SAV
                                    137 	.globl _g_SVFFF8
                                    138 	.globl _g_MINROM
                                    139 	.globl _g_RG23SAV
                                    140 	.globl _g_RG22SAV
                                    141 	.globl _g_RG21SAV
                                    142 	.globl _g_RG20SAV
                                    143 	.globl _g_RG19SAV
                                    144 	.globl _g_RG18SAV
                                    145 	.globl _g_RG17SAV
                                    146 	.globl _g_RG16SAV
                                    147 	.globl _g_RG15SAV
                                    148 	.globl _g_RG14SAV
                                    149 	.globl _g_RG13SAV
                                    150 	.globl _g_RG12SAV
                                    151 	.globl _g_RG11SAV
                                    152 	.globl _g_RG10SAV
                                    153 	.globl _g_RG09SAV
                                    154 	.globl _g_RG08SAV
                                    155 	.globl _g_PROCNM
                                    156 	.globl _g_SLTWRK
                                    157 	.globl _g_SLTATR
                                    158 	.globl _g_SLTTBL
                                    159 	.globl _g_EXPTBL
                                    160 	.globl _g_MNROM
                                    161 	.globl _g_DRWANG
                                    162 	.globl _g_DRWSCL
                                    163 	.globl _g_DRWFLG
                                    164 	.globl _g_GYPOS
                                    165 	.globl _g_GXPOS
                                    166 	.globl _g_BRDATR
                                    167 	.globl _g_CASPRV
                                    168 	.globl _g_OLDSCR
                                    169 	.globl _g_SCRMOD
                                    170 	.globl _g_FLBMEM
                                    171 	.globl _g_KANAMD
                                    172 	.globl _g_KANAST
                                    173 	.globl _g_CAPST
                                    174 	.globl _g_CSTYLE
                                    175 	.globl _g_CSRSW
                                    176 	.globl _g_INSFLG
                                    177 	.globl _g_ESCCNT
                                    178 	.globl _g_GRPHED
                                    179 	.globl _g_WINWID
                                    180 	.globl _g_LOWLIM
                                    181 	.globl _g_INTCNT
                                    182 	.globl _g_INTVAL
                                    183 	.globl _g_JIFFY
                                    184 	.globl _g_PADX
                                    185 	.globl _g_PADY
                                    186 	.globl _g_INTFLG
                                    187 	.globl _g_RTYCNT
                                    188 	.globl _g_TRPTBL
                                    189 	.globl _g_HIMEM
                                    190 	.globl _g_BOTTOM
                                    191 	.globl _g_PATWRK
                                    192 	.globl _g_LINWRK
                                    193 	.globl _g_KEYBUF
                                    194 	.globl _g_NEWKEY
                                    195 	.globl _g_OLDKEY
                                    196 	.globl _g_CLIKFL
                                    197 	.globl _g_ONGSBF
                                    198 	.globl _g_FNKFLG
                                    199 	.globl _g_FNKSWI
                                    200 	.globl _g_CODSAV
                                    201 	.globl _g_FSTPOS
                                    202 	.globl _g_LINTTB
                                    203 	.globl _g_BASROM
                                    204 	.globl _g_ENSTOP
                                    205 	.globl _g_VCBC
                                    206 	.globl _g_VCBB
                                    207 	.globl _g_VCBA
                                    208 	.globl _g_PLYCNT
                                    209 	.globl _g_MUSICF
                                    210 	.globl _g_QUEUEN
                                    211 	.globl _g_MCLPTR
                                    212 	.globl _g_MCLLEN
                                    213 	.globl _g_SAVVOL
                                    214 	.globl _g_VOICEN
                                    215 	.globl _g_SAVSP
                                    216 	.globl _g_PRSCNT
                                    217 	.globl _g_LSTMOD
                                    218 	.globl _g_LSTCOM
                                    219 	.globl _g_COMMSK
                                    220 	.globl _g_ESTBLS
                                    221 	.globl _g_FLAGS
                                    222 	.globl _g_ERRORS
                                    223 	.globl _g_DATCNT
                                    224 	.globl _g_DEVNUM
                                    225 	.globl _g_OLDINT
                                    226 	.globl _g_OLDSTT
                                    227 	.globl _g_MEXBIh
                                    228 	.globl _g_RSIQLN
                                    229 	.globl _g_RSFCB
                                    230 	.globl _g_TOCNT
                                    231 	.globl _g_RSTMP
                                    232 	.globl _g_YSAVE
                                    233 	.globl _g_XSAVE
                                    234 	.globl _g_NORUSE
                                    235 	.globl _g_MODE
                                    236 	.globl _g_ROMA
                                    237 	.globl _g_CHRCNT
                                    238 	.globl _g_EXBRSA
                                    239 	.globl _g_AVCSAV
                                    240 	.globl _g_ACPAGE
                                    241 	.globl _g_DPPAGE
                                    242 	.globl _g_RS2IQ
                                    243 	.globl _g_VOICCQ
                                    244 	.globl _g_VOICBQ
                                    245 	.globl _g_VOICAQ
                                    246 	.globl _g_QUEBAK
                                    247 	.globl _g_QUETAB
                                    248 	.globl _g_ASPCT2
                                    249 	.globl _g_ASPCT1
                                    250 	.globl _g_HEADER
                                    251 	.globl _g_HIGH
                                    252 	.globl _g_LOW
                                    253 	.globl _g_CS240
                                    254 	.globl _g_CS120
                                    255 	.globl _g_GETPNT
                                    256 	.globl _g_PUTPNT
                                    257 	.globl _g_REPCNT
                                    258 	.globl _g_SCNCNT
                                    259 	.globl _g_FRCNEW
                                    260 	.globl _g_QUEUES
                                    261 	.globl _g_MINUPD
                                    262 	.globl _g_MAXUPD
                                    263 	.globl _g_TRGFLG
                                    264 	.globl _g_STATFL
                                    265 	.globl _g_RG7SAV
                                    266 	.globl _g_RG6SAV
                                    267 	.globl _g_RG5SAV
                                    268 	.globl _g_RG4SAV
                                    269 	.globl _g_RG3SAV
                                    270 	.globl _g_RG2SAV
                                    271 	.globl _g_RG1SAV
                                    272 	.globl _g_RG0SAV
                                    273 	.globl _g_CNSDFG
                                    274 	.globl _g_USRTAB
                                    275 	.globl _g_CLPRIM
                                    276 	.globl _g_WRPRIM
                                    277 	.globl _g_RDPRIM
                                    278 	.globl _CallFnc_VOID
                                    279 	.globl _CallFnc_VOID_P1
                                    280 	.globl _CallFnc_VOID_3PTR
                                    281 	.globl _CallFnc_VOID_3PTR_U16
                                    282 	.globl _CallFnc_VOID_U8U16U16
                                    283 	.globl _CallFnc_VOID_16_P1
                                    284 	.globl _CallFnc_VOID_16_P2
                                    285 	.globl _CallFnc_U8
                                    286 	.globl _CallFnc_U8_P1
                                    287 	.globl _CallFnc_U16_P1
                                    288 	.globl _CallFnc_U16_P3
                                    289 	.globl _CallFnc_U16_P4
                                    290 	.globl _CallFnc_U16_P4B
                                    291 	.globl _CallFnc_U8_P2
                                    292 	.globl _CallFnc_BOOL
                                    293 	.globl _CallFnc_BOOL_P1
                                    294 	.globl _CallFnc_VOID_U8U8
                                    295 	.globl _SetTeamColors
                                    296 	.globl _AddLines
                                    297 	.globl _CallSpriteFrame
                                    298 	.globl _VSyncCallback
                                    299 	.globl _WaitForVBlank
                                    300 	.globl _LoadField
                                    301 	.globl _main
                                    302 ;--------------------------------------------------------
                                    303 ; special function registers
                                    304 ;--------------------------------------------------------
                         000000A8   305 _g_PortPrimarySlot	=	0x00a8
                         000000A9   306 _g_PortReadKeyboard	=	0x00a9
                         000000AA   307 _g_PortAccessKeyboard	=	0x00aa
                         000000AB   308 _g_PortControl	=	0x00ab
                         00000098   309 _g_VDP_DataPort	=	0x0098
                         00000099   310 _g_VDP_RegPort	=	0x0099
                         00000099   311 _g_VDP_AddrPort	=	0x0099
                         00000099   312 _g_VDP_StatPort	=	0x0099
                         0000009A   313 _g_VDP_PalPort	=	0x009a
                         0000009B   314 _g_VDP_IRegPort	=	0x009b
                         000000A0   315 _g_PSG_RegPort	=	0x00a0
                         000000A1   316 _g_PSG_DataPort	=	0x00a1
                         000000A2   317 _g_PSG_StatPort	=	0x00a2
                         00000010   318 _g_PSG_Ext_RegPort	=	0x0010
                         00000011   319 _g_PSG_Ext_DataPort	=	0x0011
                         00000012   320 _g_PSG_Ext_StatPort	=	0x0012
                         0000007C   321 _g_MSXMusic_IndexPort	=	0x007c
                         0000007D   322 _g_MSXMusic_DataPort	=	0x007d
                         000000C0   323 _g_MSXAudio_IndexPort	=	0x00c0
                         000000C1   324 _g_MSXAudio_DataPort	=	0x00c1
                         000000C2   325 _g_MSXAudio_IndexPort2	=	0x00c2
                         000000C3   326 _g_MSXAudio_DataPort2	=	0x00c3
                         000000B4   327 _g_RTC_AddrPort	=	0x00b4
                         000000B5   328 _g_RTC_DataPort	=	0x00b5
                                    329 ;--------------------------------------------------------
                                    330 ; ram data
                                    331 ;--------------------------------------------------------
                                    332 	.area _DATA
                         0000F3AE   333 _g_LINL40	=	0xf3ae
                         0000F3AF   334 _g_LINL32	=	0xf3af
                         0000F3B0   335 _g_LINLEN	=	0xf3b0
                         0000F3B1   336 _g_CRTCNT	=	0xf3b1
                         0000F3B2   337 _g_CLMLST	=	0xf3b2
                         0000F3B3   338 _g_TXTNAM	=	0xf3b3
                         0000F3B5   339 _g_TXTCOL	=	0xf3b5
                         0000F3B7   340 _g_TXTCGP	=	0xf3b7
                         0000F3B9   341 _g_TXTATR	=	0xf3b9
                         0000F3BB   342 _g_TXTPAT	=	0xf3bb
                         0000F3BD   343 _g_T32NAM	=	0xf3bd
                         0000F3BF   344 _g_T32COL	=	0xf3bf
                         0000F3C1   345 _g_T32CGP	=	0xf3c1
                         0000F3C3   346 _g_T32ATR	=	0xf3c3
                         0000F3C5   347 _g_T32PAT	=	0xf3c5
                         0000F3C7   348 _g_GRPNAM	=	0xf3c7
                         0000F3C9   349 _g_GRPCOL	=	0xf3c9
                         0000F3CB   350 _g_GRPCGP	=	0xf3cb
                         0000F3CD   351 _g_GRPATR	=	0xf3cd
                         0000F3CF   352 _g_GRPPAT	=	0xf3cf
                         0000F3D1   353 _g_MLTNAM	=	0xf3d1
                         0000F3D3   354 _g_MLTCOL	=	0xf3d3
                         0000F3D5   355 _g_MLTCGP	=	0xf3d5
                         0000F3D7   356 _g_MLTATR	=	0xf3d7
                         0000F3D9   357 _g_MLTPAT	=	0xf3d9
                         0000F3DB   358 _g_CLIKSW	=	0xf3db
                         0000F3DC   359 _g_CSRY	=	0xf3dc
                         0000F3DD   360 _g_CSRX	=	0xf3dd
                         0000F3E9   361 _g_FORCLR	=	0xf3e9
                         0000F3EA   362 _g_BAKCLR	=	0xf3ea
                         0000F3EB   363 _g_BDRCLR	=	0xf3eb
                         0000F3F2   364 _g_ATRBYT	=	0xf3f2
                         0000F87F   365 _g_FNKSTR	=	0xf87f
                         0000F92A   366 _g_CLOC	=	0xf92a
                         0000F92C   367 _g_CMASK	=	0xf92c
                         0000FB02   368 _g_LOGOPR	=	0xfb02
                         0000FCB7   369 _g_GRPACX	=	0xfcb7
                         0000FCB9   370 _g_GRPACY	=	0xfcb9
                         0000FFFF   371 _g_SLTSL	=	0xffff
    00000000                        372 _SwSprite::
    00000000                        373 	.ds 552
    00000228                        374 _Field::
    00000228                        375 	.ds 23
    0000023F                        376 _ScoreBoardLeft::
    0000023F                        377 	.ds 23
    00000256                        378 _ScoreBoardRight::
    00000256                        379 	.ds 23
                                    380 ;--------------------------------------------------------
                                    381 ; ram data
                                    382 ;--------------------------------------------------------
                                    383 	.area _INITIALIZED
    00000000                        384 _Frms::
    00000000                        385 	.ds 1
    00000001                        386 _Secs::
    00000001                        387 	.ds 1
    00000002                        388 _Mins::
    00000002                        389 	.ds 1
    00000003                        390 _LastSecs::
    00000003                        391 	.ds 1
    00000004                        392 _Half::
    00000004                        393 	.ds 1
    00000005                        394 _ScoreA::
    00000005                        395 	.ds 1
    00000006                        396 _ScoreB::
    00000006                        397 	.ds 1
    00000007                        398 _Team1Code::
    00000007                        399 	.ds 1
    00000008                        400 _Team2Code::
    00000008                        401 	.ds 1
    00000009                        402 _KickOffTeam::
    00000009                        403 	.ds 1
    0000000A                        404 _GameMode::
    0000000A                        405 	.ds 1
    0000000B                        406 _T1_Carrier::
    0000000B                        407 	.ds 1
    0000000C                        408 _T1_Receiver::
    0000000C                        409 	.ds 1
    0000000D                        410 _T2_Carrier::
    0000000D                        411 	.ds 1
    0000000E                        412 _T2_Receiver::
    0000000E                        413 	.ds 1
    0000000F                        414 _TimerEnabled::
    0000000F                        415 	.ds 1
    00000010                        416 _LastTouchTeam::
    00000010                        417 	.ds 1
    00000011                        418 _LastTouchPlayer::
    00000011                        419 	.ds 1
    00000012                        420 _RestartType::
    00000012                        421 	.ds 1
    00000013                        422 _RestartSideX::
    00000013                        423 	.ds 1
    00000014                        424 _RestartSideY::
    00000014                        425 	.ds 2
    00000016                        426 _g_throw_rec_1::
    00000016                        427 	.ds 1
    00000017                        428 _g_throw_rec_2::
    00000017                        429 	.ds 1
    00000018                        430 _g_selected_rec::
    00000018                        431 	.ds 1
    00000019                        432 _g_thrower_id::
    00000019                        433 	.ds 1
    0000001A                        434 _g_pass_start_x::
    0000001A                        435 	.ds 2
    0000001C                        436 _g_pass_start_y::
    0000001C                        437 	.ds 2
    0000001E                        438 _g_pass_target_x::
    0000001E                        439 	.ds 2
    00000020                        440 _g_pass_target_y::
    00000020                        441 	.ds 2
    00000022                        442 _g_pass_max_frames::
    00000022                        443 	.ds 1
    00000023                        444 _g_pass_max_height::
    00000023                        445 	.ds 1
    00000024                        446 _g_pass_receiver::
    00000024                        447 	.ds 1
    00000025                        448 _g_last_dx::
    00000025                        449 	.ds 2
    00000027                        450 _g_last_dy::
    00000027                        451 	.ds 2
    00000029                        452 _g_prev_trigger::
    00000029                        453 	.ds 2
    0000002B                        454 _g_last_input_dir::
    0000002B                        455 	.ds 1
    0000002C                        456 _g_VSynch::
    0000002C                        457 	.ds 1
                                    458 ;--------------------------------------------------------
                                    459 ; absolute external ram data
                                    460 ;--------------------------------------------------------
                                    461 	.area _DABS (ABS)
                                    462 ;--------------------------------------------------------
                                    463 ; global & static initialisations
                                    464 ;--------------------------------------------------------
                                    465 	.area _HOME
                                    466 	.area _GSINIT
                                    467 	.area _GSFINAL
                                    468 	.area _GSINIT
                                    469 ;--------------------------------------------------------
                                    470 ; Home
                                    471 ;--------------------------------------------------------
                                    472 	.area _HOME
                                    473 	.area _HOME
                                    474 ;--------------------------------------------------------
                                    475 ; code
                                    476 ;--------------------------------------------------------
                                    477 	.area _CODE
                                    478 ;./soccerlg.c:105: void CallFnc_VOID(u8 segment, void (*func)()) {
                                    479 ;	---------------------------------
                                    480 ; Function CallFnc_VOID
                                    481 ; ---------------------------------
    00000000                        482 _CallFnc_VOID::
    00000000 DD E5            [15]  483 	push	ix
    00000002 DD 21 00 00      [14]  484 	ld	ix,#0
    00000006 DD 39            [15]  485 	add	ix,sp
    00000008 3B               [ 6]  486 	dec	sp
    00000009 4F               [ 4]  487 	ld	c, a
                                    488 ;./soccerlg.c:106: u8 _old = GET_BANK_SEGMENT(3);
    0000000A 2Ar06r00         [16]  489 	ld	hl, (#(_g_Bank0Segment + 6) + 0)
    0000000D DD 75 FF         [19]  490 	ld	-1 (ix), l
                                    491 ;./soccerlg.c:107: SET_BANK_SEGMENT(3, segment);
    00000010 06 00            [ 7]  492 	ld	b, #0x00
                                    493 ;E:/Dropbox/FAUSTO/SVILUPPI/MSX/CODE/C/MSXgl/engine/src/rom_mapper.h:190: g_Bank0Segment[b] = s;
    00000012 ED 43r06r00      [20]  494 	ld	((_g_Bank0Segment + 6)), bc
                                    495 ;E:/Dropbox/FAUSTO/SVILUPPI/MSX/CODE/C/MSXgl/engine/src/rom_mapper.h:191: Poke(YAMANOOTO_OFFR, (s >> 2) & 0xC0);
    00000016 69               [ 4]  496 	ld	l, c
    00000017 60               [ 4]  497 	ld	h, b
    00000018 CB 3C            [ 8]  498 	srl	h
    0000001A CB 1D            [ 8]  499 	rr	l
    0000001C CB 3C            [ 8]  500 	srl	h
    0000001E CB 1D            [ 8]  501 	rr	l
    00000020 7D               [ 4]  502 	ld	a, l
    00000021 E6 C0            [ 7]  503 	and	a, #0xc0
                                    504 ;E:/Dropbox/FAUSTO/SVILUPPI/MSX/CODE/C/MSXgl/engine/src/system.h:101: inline void Poke(u16 addr, u8 val) { *(u8*)addr = val; }
    00000023 32 FE 7F         [13]  505 	ld	(#0x7ffe),a
                                    506 ;E:/Dropbox/FAUSTO/SVILUPPI/MSX/CODE/C/MSXgl/engine/src/rom_mapper.h:195: else if (b == 3)	Poke(ADDR_BANK_3, s & 0xFF);
                                    507 ;E:/Dropbox/FAUSTO/SVILUPPI/MSX/CODE/C/MSXgl/engine/src/system.h:101: inline void Poke(u16 addr, u8 val) { *(u8*)addr = val; }
    00000026 21 00 B0         [10]  508 	ld	hl, #0xb000
    00000029 71               [ 7]  509 	ld	(hl), c
                                    510 ;./soccerlg.c:108: func();
    0000002A EB               [ 4]  511 	ex	de, hl
    0000002B CDr00r00         [17]  512 	call	___sdcc_call_hl
                                    513 ;./soccerlg.c:109: SET_BANK_SEGMENT(3, _old);
    0000002E DD 4E FF         [19]  514 	ld	c, -1 (ix)
    00000031 06 00            [ 7]  515 	ld	b, #0x00
                                    516 ;E:/Dropbox/FAUSTO/SVILUPPI/MSX/CODE/C/MSXgl/engine/src/rom_mapper.h:190: g_Bank0Segment[b] = s;
    00000033 ED 43r06r00      [20]  517 	ld	((_g_Bank0Segment + 6)), bc
                                    518 ;E:/Dropbox/FAUSTO/SVILUPPI/MSX/CODE/C/MSXgl/engine/src/rom_mapper.h:191: Poke(YAMANOOTO_OFFR, (s >> 2) & 0xC0);
    00000037 59               [ 4]  519 	ld	e, c
    00000038 50               [ 4]  520 	ld	d, b
    00000039 CB 3A            [ 8]  521 	srl	d
    0000003B CB 1B            [ 8]  522 	rr	e
    0000003D CB 3A            [ 8]  523 	srl	d
    0000003F CB 1B            [ 8]  524 	rr	e
    00000041 7B               [ 4]  525 	ld	a, e
    00000042 E6 C0            [ 7]  526 	and	a, #0xc0
                                    527 ;E:/Dropbox/FAUSTO/SVILUPPI/MSX/CODE/C/MSXgl/engine/src/system.h:101: inline void Poke(u16 addr, u8 val) { *(u8*)addr = val; }
    00000044 32 FE 7F         [13]  528 	ld	(#0x7ffe),a
                                    529 ;E:/Dropbox/FAUSTO/SVILUPPI/MSX/CODE/C/MSXgl/engine/src/rom_mapper.h:195: else if (b == 3)	Poke(ADDR_BANK_3, s & 0xFF);
                                    530 ;E:/Dropbox/FAUSTO/SVILUPPI/MSX/CODE/C/MSXgl/engine/src/system.h:101: inline void Poke(u16 addr, u8 val) { *(u8*)addr = val; }
    00000047 21 00 B0         [10]  531 	ld	hl, #0xb000
    0000004A 71               [ 7]  532 	ld	(hl), c
                                    533 ;./soccerlg.c:109: SET_BANK_SEGMENT(3, _old);
                                    534 ;./soccerlg.c:110: }
    0000004B 33               [ 6]  535 	inc	sp
    0000004C DD E1            [14]  536 	pop	ix
    0000004E C9               [10]  537 	ret
                         0000F380   538 _g_RDPRIM	=	0xf380
                         0000F385   539 _g_WRPRIM	=	0xf385
                         0000F38C   540 _g_CLPRIM	=	0xf38c
                         0000F39A   541 _g_USRTAB	=	0xf39a
                         0000F3DE   542 _g_CNSDFG	=	0xf3de
                         0000F3DF   543 _g_RG0SAV	=	0xf3df
                         0000F3E0   544 _g_RG1SAV	=	0xf3e0
                         0000F3E1   545 _g_RG2SAV	=	0xf3e1
                         0000F3E2   546 _g_RG3SAV	=	0xf3e2
                         0000F3E3   547 _g_RG4SAV	=	0xf3e3
                         0000F3E4   548 _g_RG5SAV	=	0xf3e4
                         0000F3E5   549 _g_RG6SAV	=	0xf3e5
                         0000F3E6   550 _g_RG7SAV	=	0xf3e6
                         0000F3E7   551 _g_STATFL	=	0xf3e7
                         0000F3E8   552 _g_TRGFLG	=	0xf3e8
                         0000F3EC   553 _g_MAXUPD	=	0xf3ec
                         0000F3EF   554 _g_MINUPD	=	0xf3ef
                         0000F3F3   555 _g_QUEUES	=	0xf3f3
                         0000F3F5   556 _g_FRCNEW	=	0xf3f5
                         0000F3F6   557 _g_SCNCNT	=	0xf3f6
                         0000F3F7   558 _g_REPCNT	=	0xf3f7
                         0000F3F8   559 _g_PUTPNT	=	0xf3f8
                         0000F3FA   560 _g_GETPNT	=	0xf3fa
                         0000F3FC   561 _g_CS120	=	0xf3fc
                         0000F401   562 _g_CS240	=	0xf401
                         0000F406   563 _g_LOW	=	0xf406
                         0000F408   564 _g_HIGH	=	0xf408
                         0000F40A   565 _g_HEADER	=	0xf40a
                         0000F40B   566 _g_ASPCT1	=	0xf40b
                         0000F40D   567 _g_ASPCT2	=	0xf40d
                         0000F959   568 _g_QUETAB	=	0xf959
                         0000F971   569 _g_QUEBAK	=	0xf971
                         0000F975   570 _g_VOICAQ	=	0xf975
                         0000F9F5   571 _g_VOICBQ	=	0xf9f5
                         0000FA75   572 _g_VOICCQ	=	0xfa75
                         0000FAF5   573 _g_RS2IQ	=	0xfaf5
                         0000FAF5   574 _g_DPPAGE	=	0xfaf5
                         0000FAF6   575 _g_ACPAGE	=	0xfaf6
                         0000FAF7   576 _g_AVCSAV	=	0xfaf7
                         0000FAF8   577 _g_EXBRSA	=	0xfaf8
                         0000FAF9   578 _g_CHRCNT	=	0xfaf9
                         0000FAFA   579 _g_ROMA	=	0xfafa
                         0000FAFC   580 _g_MODE	=	0xfafc
                         0000FAFD   581 _g_NORUSE	=	0xfafd
                         0000FAFE   582 _g_XSAVE	=	0xfafe
                         0000FB00   583 _g_YSAVE	=	0xfb00
                         0000FB03   584 _g_RSTMP	=	0xfb03
                         0000FB03   585 _g_TOCNT	=	0xfb03
                         0000FB04   586 _g_RSFCB	=	0xfb04
                         0000FB06   587 _g_RSIQLN	=	0xfb06
                         0000FB07   588 _g_MEXBIh	=	0xfb07
                         0000FB0C   589 _g_OLDSTT	=	0xfb0c
                         0000FB0C   590 _g_OLDINT	=	0xfb0c
                         0000FB16   591 _g_DEVNUM	=	0xfb16
                         0000FB17   592 _g_DATCNT	=	0xfb17
                         0000FB1A   593 _g_ERRORS	=	0xfb1a
                         0000FB1B   594 _g_FLAGS	=	0xfb1b
                         0000FB1C   595 _g_ESTBLS	=	0xfb1c
                         0000FB1D   596 _g_COMMSK	=	0xfb1d
                         0000FB1E   597 _g_LSTCOM	=	0xfb1e
                         0000FB1F   598 _g_LSTMOD	=	0xfb1f
                         0000FB35   599 _g_PRSCNT	=	0xfb35
                         0000FB36   600 _g_SAVSP	=	0xfb36
                         0000FB38   601 _g_VOICEN	=	0xfb38
                         0000FB39   602 _g_SAVVOL	=	0xfb39
                         0000FB3B   603 _g_MCLLEN	=	0xfb3b
                         0000FB3C   604 _g_MCLPTR	=	0xfb3c
                         0000FB3E   605 _g_QUEUEN	=	0xfb3e
                         0000FB3F   606 _g_MUSICF	=	0xfb3f
                         0000FB40   607 _g_PLYCNT	=	0xfb40
                         0000FB41   608 _g_VCBA	=	0xfb41
                         0000FB66   609 _g_VCBB	=	0xfb66
                         0000FB8B   610 _g_VCBC	=	0xfb8b
                         0000FBB0   611 _g_ENSTOP	=	0xfbb0
                         0000FBB1   612 _g_BASROM	=	0xfbb1
                         0000FBB2   613 _g_LINTTB	=	0xfbb2
                         0000FBCA   614 _g_FSTPOS	=	0xfbca
                         0000FBCC   615 _g_CODSAV	=	0xfbcc
                         0000FBCD   616 _g_FNKSWI	=	0xfbcd
                         0000FBCE   617 _g_FNKFLG	=	0xfbce
                         0000FBD8   618 _g_ONGSBF	=	0xfbd8
                         0000FBD9   619 _g_CLIKFL	=	0xfbd9
                         0000FBDA   620 _g_OLDKEY	=	0xfbda
                         0000FBE5   621 _g_NEWKEY	=	0xfbe5
                         0000FBF0   622 _g_KEYBUF	=	0xfbf0
                         0000FC18   623 _g_LINWRK	=	0xfc18
                         0000FC40   624 _g_PATWRK	=	0xfc40
                         0000FC48   625 _g_BOTTOM	=	0xfc48
                         0000FC4A   626 _g_HIMEM	=	0xfc4a
                         0000FC4C   627 _g_TRPTBL	=	0xfc4c
                         0000FC9A   628 _g_RTYCNT	=	0xfc9a
                         0000FC9B   629 _g_INTFLG	=	0xfc9b
                         0000FC9C   630 _g_PADY	=	0xfc9c
                         0000FC9D   631 _g_PADX	=	0xfc9d
                         0000FC9E   632 _g_JIFFY	=	0xfc9e
                         0000FCA0   633 _g_INTVAL	=	0xfca0
                         0000FCA2   634 _g_INTCNT	=	0xfca2
                         0000FCA4   635 _g_LOWLIM	=	0xfca4
                         0000FCA5   636 _g_WINWID	=	0xfca5
                         0000FCA6   637 _g_GRPHED	=	0xfca6
                         0000FCA7   638 _g_ESCCNT	=	0xfca7
                         0000FCA8   639 _g_INSFLG	=	0xfca8
                         0000FCA9   640 _g_CSRSW	=	0xfca9
                         0000FCAA   641 _g_CSTYLE	=	0xfcaa
                         0000FCAB   642 _g_CAPST	=	0xfcab
                         0000FCAC   643 _g_KANAST	=	0xfcac
                         0000FCAD   644 _g_KANAMD	=	0xfcad
                         0000FCAE   645 _g_FLBMEM	=	0xfcae
                         0000FCAF   646 _g_SCRMOD	=	0xfcaf
                         0000FCB0   647 _g_OLDSCR	=	0xfcb0
                         0000FCB1   648 _g_CASPRV	=	0xfcb1
                         0000FCB2   649 _g_BRDATR	=	0xfcb2
                         0000FCB3   650 _g_GXPOS	=	0xfcb3
                         0000FCB5   651 _g_GYPOS	=	0xfcb5
                         0000FCBB   652 _g_DRWFLG	=	0xfcbb
                         0000FCBC   653 _g_DRWSCL	=	0xfcbc
                         0000FCBD   654 _g_DRWANG	=	0xfcbd
                         0000FCC1   655 _g_MNROM	=	0xfcc1
                         0000FCC1   656 _g_EXPTBL	=	0xfcc1
                         0000FCC5   657 _g_SLTTBL	=	0xfcc5
                         0000FCC9   658 _g_SLTATR	=	0xfcc9
                         0000FD09   659 _g_SLTWRK	=	0xfd09
                         0000FD89   660 _g_PROCNM	=	0xfd89
                         0000FFE7   661 _g_RG08SAV	=	0xffe7
                         0000FFE8   662 _g_RG09SAV	=	0xffe8
                         0000FFE9   663 _g_RG10SAV	=	0xffe9
                         0000FFEA   664 _g_RG11SAV	=	0xffea
                         0000FFEB   665 _g_RG12SAV	=	0xffeb
                         0000FFEC   666 _g_RG13SAV	=	0xffec
                         0000FFED   667 _g_RG14SAV	=	0xffed
                         0000FFEE   668 _g_RG15SAV	=	0xffee
                         0000FFEF   669 _g_RG16SAV	=	0xffef
                         0000FFF0   670 _g_RG17SAV	=	0xfff0
                         0000FFF1   671 _g_RG18SAV	=	0xfff1
                         0000FFF2   672 _g_RG19SAV	=	0xfff2
                         0000FFF3   673 _g_RG20SAV	=	0xfff3
                         0000FFF4   674 _g_RG21SAV	=	0xfff4
                         0000FFF5   675 _g_RG22SAV	=	0xfff5
                         0000FFF6   676 _g_RG23SAV	=	0xfff6
                         0000FFF7   677 _g_MINROM	=	0xfff7
                         0000FFF8   678 _g_SVFFF8	=	0xfff8
                         0000FFFA   679 _g_RG25SAV	=	0xfffa
                         0000FFFB   680 _g_RG26SAV	=	0xfffb
                         0000FFFC   681 _g_RG27SAV	=	0xfffc
                         0000FFFD   682 _g_SVFFFD	=	0xfffd
                         00000004   683 _g_CGTABL	=	0x0004
                         00000006   684 _g_VDP_DR	=	0x0006
                         00000007   685 _g_VDP_DW	=	0x0007
                         0000002B   686 _g_BASRVN	=	0x002b
                         0000002B   687 _g_ROMVersion	=	0x002b
                         0000002D   688 _g_MSXVER	=	0x002d
                         0000002E   689 _g_MSXMID	=	0x002e
                         00000034   690 _g_CHAR_16	=	0x0034
                         00000000   691 _g_SUBRID	=	0x0000
                         00000002   692 _g_STRSRC	=	0x0002
                         0000F30F   693 _g_KANJTABLE	=	0xf30f
                         0000F323   694 _g_DISKVE	=	0xf323
                         0000F325   695 _g_BREAKV	=	0xf325
                         0000F341   696 _g_RAMAD0	=	0xf341
                         0000F342   697 _g_RAMAD1	=	0xf342
                         0000F343   698 _g_RAMAD2	=	0xf343
                         0000F344   699 _g_RAMAD3	=	0xf344
                         0000F348   700 _g_MASTER	=	0xf348
                         0000F37D   701 _g_BDOS	=	0xf37d
    0000004F                        702 _FieldMap:
    0000004F 00                     703 	.db #0x00	; 0
    00000050 01                     704 	.db #0x01	; 1
    00000051 02                     705 	.db #0x02	; 2
    00000052 03                     706 	.db #0x03	; 3
    00000053 04                     707 	.db #0x04	; 4
    00000054 05                     708 	.db #0x05	; 5
    00000055 06                     709 	.db #0x06	; 6
    00000056 07                     710 	.db #0x07	; 7
    00000057 08                     711 	.db #0x08	; 8
    00000058 09                     712 	.db #0x09	; 9
    00000059 0A                     713 	.db #0x0a	; 10
    0000005A 0B                     714 	.db #0x0b	; 11
    0000005B 0C                     715 	.db #0x0c	; 12
    0000005C 0D                     716 	.db #0x0d	; 13
    0000005D 0E                     717 	.db #0x0e	; 14
    0000005E 0F                     718 	.db #0x0f	; 15
    0000005F 10                     719 	.db #0x10	; 16
    00000060 11                     720 	.db #0x11	; 17
    00000061 12                     721 	.db #0x12	; 18
    00000062 13                     722 	.db #0x13	; 19
    00000063 14                     723 	.db #0x14	; 20
    00000064 15                     724 	.db #0x15	; 21
    00000065 16                     725 	.db #0x16	; 22
    00000066 17                     726 	.db #0x17	; 23
    00000067 18                     727 	.db #0x18	; 24
    00000068 19                     728 	.db #0x19	; 25
    00000069 1A                     729 	.db #0x1a	; 26
    0000006A 1B                     730 	.db #0x1b	; 27
    0000006B 1C                     731 	.db #0x1c	; 28
    0000006C 1D                     732 	.db #0x1d	; 29
    0000006D 1E                     733 	.db #0x1e	; 30
    0000006E 1F                     734 	.db #0x1f	; 31
    0000006F 20                     735 	.db #0x20	; 32
    00000070 21                     736 	.db #0x21	; 33
    00000071 22                     737 	.db #0x22	; 34
    00000072 23                     738 	.db #0x23	; 35
    00000073 24                     739 	.db #0x24	; 36
    00000074 25                     740 	.db #0x25	; 37
    00000075 26                     741 	.db #0x26	; 38
    00000076 27                     742 	.db #0x27	; 39
    00000077 28                     743 	.db #0x28	; 40
    00000078 29                     744 	.db #0x29	; 41
    00000079 2A                     745 	.db #0x2a	; 42
    0000007A 2B                     746 	.db #0x2b	; 43
    0000007B 2C                     747 	.db #0x2c	; 44
    0000007C 2D                     748 	.db #0x2d	; 45
    0000007D 2E                     749 	.db #0x2e	; 46
    0000007E 2F                     750 	.db #0x2f	; 47
    0000007F 30                     751 	.db #0x30	; 48	'0'
    00000080 31                     752 	.db #0x31	; 49	'1'
    00000081 32                     753 	.db #0x32	; 50	'2'
    00000082 33                     754 	.db #0x33	; 51	'3'
    00000083 34                     755 	.db #0x34	; 52	'4'
    00000084 35                     756 	.db #0x35	; 53	'5'
    00000085 36                     757 	.db #0x36	; 54	'6'
    00000086 37                     758 	.db #0x37	; 55	'7'
    00000087 38                     759 	.db #0x38	; 56	'8'
    00000088 39                     760 	.db #0x39	; 57	'9'
    00000089 3A                     761 	.db #0x3a	; 58
    0000008A 3B                     762 	.db #0x3b	; 59
    0000008B 3B                     763 	.db #0x3b	; 59
    0000008C 3B                     764 	.db #0x3b	; 59
    0000008D 3B                     765 	.db #0x3b	; 59
    0000008E 3B                     766 	.db #0x3b	; 59
    0000008F 3B                     767 	.db #0x3b	; 59
    00000090 3B                     768 	.db #0x3b	; 59
    00000091 3B                     769 	.db #0x3b	; 59
    00000092 3B                     770 	.db #0x3b	; 59
    00000093 3B                     771 	.db #0x3b	; 59
    00000094 3B                     772 	.db #0x3b	; 59
    00000095 3B                     773 	.db #0x3b	; 59
    00000096 3B                     774 	.db #0x3b	; 59
    00000097 3B                     775 	.db #0x3b	; 59
    00000098 3C                     776 	.db #0x3c	; 60
    00000099 3D                     777 	.db #0x3d	; 61
    0000009A 3E                     778 	.db #0x3e	; 62
    0000009B 3F                     779 	.db #0x3f	; 63
    0000009C 40                     780 	.db #0x40	; 64
    0000009D 41                     781 	.db #0x41	; 65	'A'
    0000009E 42                     782 	.db #0x42	; 66	'B'
    0000009F 43                     783 	.db #0x43	; 67	'C'
    000000A0 44                     784 	.db #0x44	; 68	'D'
    000000A1 45                     785 	.db #0x45	; 69	'E'
    000000A2 46                     786 	.db #0x46	; 70	'F'
    000000A3 47                     787 	.db #0x47	; 71	'G'
    000000A4 48                     788 	.db #0x48	; 72	'H'
    000000A5 49                     789 	.db #0x49	; 73	'I'
    000000A6 4A                     790 	.db #0x4a	; 74	'J'
    000000A7 4B                     791 	.db #0x4b	; 75	'K'
    000000A8 4C                     792 	.db #0x4c	; 76	'L'
    000000A9 4D                     793 	.db #0x4d	; 77	'M'
    000000AA 4E                     794 	.db #0x4e	; 78	'N'
    000000AB 4F                     795 	.db #0x4f	; 79	'O'
    000000AC 50                     796 	.db #0x50	; 80	'P'
    000000AD 51                     797 	.db #0x51	; 81	'Q'
    000000AE 52                     798 	.db #0x52	; 82	'R'
    000000AF 53                     799 	.db #0x53	; 83	'S'
    000000B0 54                     800 	.db #0x54	; 84	'T'
    000000B1 55                     801 	.db #0x55	; 85	'U'
    000000B2 56                     802 	.db #0x56	; 86	'V'
    000000B3 57                     803 	.db #0x57	; 87	'W'
    000000B4 58                     804 	.db #0x58	; 88	'X'
    000000B5 58                     805 	.db #0x58	; 88	'X'
    000000B6 58                     806 	.db #0x58	; 88	'X'
    000000B7 58                     807 	.db #0x58	; 88	'X'
    000000B8 58                     808 	.db #0x58	; 88	'X'
    000000B9 58                     809 	.db #0x58	; 88	'X'
    000000BA 58                     810 	.db #0x58	; 88	'X'
    000000BB 58                     811 	.db #0x58	; 88	'X'
    000000BC 58                     812 	.db #0x58	; 88	'X'
    000000BD 58                     813 	.db #0x58	; 88	'X'
    000000BE 58                     814 	.db #0x58	; 88	'X'
    000000BF 58                     815 	.db #0x58	; 88	'X'
    000000C0 58                     816 	.db #0x58	; 88	'X'
    000000C1 58                     817 	.db #0x58	; 88	'X'
    000000C2 58                     818 	.db #0x58	; 88	'X'
    000000C3 58                     819 	.db #0x58	; 88	'X'
    000000C4 58                     820 	.db #0x58	; 88	'X'
    000000C5 58                     821 	.db #0x58	; 88	'X'
    000000C6 58                     822 	.db #0x58	; 88	'X'
    000000C7 58                     823 	.db #0x58	; 88	'X'
    000000C8 58                     824 	.db #0x58	; 88	'X'
    000000C9 58                     825 	.db #0x58	; 88	'X'
    000000CA 58                     826 	.db #0x58	; 88	'X'
    000000CB 58                     827 	.db #0x58	; 88	'X'
    000000CC 58                     828 	.db #0x58	; 88	'X'
    000000CD 58                     829 	.db #0x58	; 88	'X'
    000000CE 58                     830 	.db #0x58	; 88	'X'
    000000CF 58                     831 	.db #0x58	; 88	'X'
    000000D0 58                     832 	.db #0x58	; 88	'X'
    000000D1 58                     833 	.db #0x58	; 88	'X'
    000000D2 58                     834 	.db #0x58	; 88	'X'
    000000D3 58                     835 	.db #0x58	; 88	'X'
    000000D4 58                     836 	.db #0x58	; 88	'X'
    000000D5 58                     837 	.db #0x58	; 88	'X'
    000000D6 58                     838 	.db #0x58	; 88	'X'
    000000D7 58                     839 	.db #0x58	; 88	'X'
    000000D8 58                     840 	.db #0x58	; 88	'X'
    000000D9 58                     841 	.db #0x58	; 88	'X'
    000000DA 58                     842 	.db #0x58	; 88	'X'
    000000DB 58                     843 	.db #0x58	; 88	'X'
    000000DC 58                     844 	.db #0x58	; 88	'X'
    000000DD 58                     845 	.db #0x58	; 88	'X'
    000000DE 58                     846 	.db #0x58	; 88	'X'
    000000DF 58                     847 	.db #0x58	; 88	'X'
    000000E0 58                     848 	.db #0x58	; 88	'X'
    000000E1 58                     849 	.db #0x58	; 88	'X'
    000000E2 58                     850 	.db #0x58	; 88	'X'
    000000E3 58                     851 	.db #0x58	; 88	'X'
    000000E4 58                     852 	.db #0x58	; 88	'X'
    000000E5 58                     853 	.db #0x58	; 88	'X'
    000000E6 58                     854 	.db #0x58	; 88	'X'
    000000E7 58                     855 	.db #0x58	; 88	'X'
    000000E8 58                     856 	.db #0x58	; 88	'X'
    000000E9 58                     857 	.db #0x58	; 88	'X'
    000000EA 58                     858 	.db #0x58	; 88	'X'
    000000EB 58                     859 	.db #0x58	; 88	'X'
    000000EC 58                     860 	.db #0x58	; 88	'X'
    000000ED 58                     861 	.db #0x58	; 88	'X'
    000000EE 58                     862 	.db #0x58	; 88	'X'
    000000EF 58                     863 	.db #0x58	; 88	'X'
    000000F0 58                     864 	.db #0x58	; 88	'X'
    000000F1 58                     865 	.db #0x58	; 88	'X'
    000000F2 58                     866 	.db #0x58	; 88	'X'
    000000F3 58                     867 	.db #0x58	; 88	'X'
    000000F4 58                     868 	.db #0x58	; 88	'X'
    000000F5 58                     869 	.db #0x58	; 88	'X'
    000000F6 58                     870 	.db #0x58	; 88	'X'
    000000F7 58                     871 	.db #0x58	; 88	'X'
    000000F8 58                     872 	.db #0x58	; 88	'X'
    000000F9 58                     873 	.db #0x58	; 88	'X'
    000000FA 58                     874 	.db #0x58	; 88	'X'
    000000FB 58                     875 	.db #0x58	; 88	'X'
    000000FC 58                     876 	.db #0x58	; 88	'X'
    000000FD 58                     877 	.db #0x58	; 88	'X'
    000000FE 58                     878 	.db #0x58	; 88	'X'
    000000FF 58                     879 	.db #0x58	; 88	'X'
    00000100 58                     880 	.db #0x58	; 88	'X'
    00000101 58                     881 	.db #0x58	; 88	'X'
    00000102 58                     882 	.db #0x58	; 88	'X'
    00000103 58                     883 	.db #0x58	; 88	'X'
    00000104 58                     884 	.db #0x58	; 88	'X'
    00000105 58                     885 	.db #0x58	; 88	'X'
    00000106 58                     886 	.db #0x58	; 88	'X'
    00000107 58                     887 	.db #0x58	; 88	'X'
    00000108 58                     888 	.db #0x58	; 88	'X'
    00000109 58                     889 	.db #0x58	; 88	'X'
    0000010A 58                     890 	.db #0x58	; 88	'X'
    0000010B 58                     891 	.db #0x58	; 88	'X'
    0000010C 58                     892 	.db #0x58	; 88	'X'
    0000010D 58                     893 	.db #0x58	; 88	'X'
    0000010E 58                     894 	.db #0x58	; 88	'X'
    0000010F 58                     895 	.db #0x58	; 88	'X'
    00000110 58                     896 	.db #0x58	; 88	'X'
    00000111 58                     897 	.db #0x58	; 88	'X'
    00000112 58                     898 	.db #0x58	; 88	'X'
    00000113 58                     899 	.db #0x58	; 88	'X'
    00000114 58                     900 	.db #0x58	; 88	'X'
    00000115 58                     901 	.db #0x58	; 88	'X'
    00000116 58                     902 	.db #0x58	; 88	'X'
    00000117 58                     903 	.db #0x58	; 88	'X'
    00000118 58                     904 	.db #0x58	; 88	'X'
    00000119 58                     905 	.db #0x58	; 88	'X'
    0000011A 58                     906 	.db #0x58	; 88	'X'
    0000011B 58                     907 	.db #0x58	; 88	'X'
    0000011C 58                     908 	.db #0x58	; 88	'X'
    0000011D 58                     909 	.db #0x58	; 88	'X'
    0000011E 58                     910 	.db #0x58	; 88	'X'
    0000011F 58                     911 	.db #0x58	; 88	'X'
    00000120 58                     912 	.db #0x58	; 88	'X'
    00000121 58                     913 	.db #0x58	; 88	'X'
    00000122 58                     914 	.db #0x58	; 88	'X'
    00000123 58                     915 	.db #0x58	; 88	'X'
    00000124 58                     916 	.db #0x58	; 88	'X'
    00000125 58                     917 	.db #0x58	; 88	'X'
    00000126 58                     918 	.db #0x58	; 88	'X'
    00000127 58                     919 	.db #0x58	; 88	'X'
    00000128 58                     920 	.db #0x58	; 88	'X'
    00000129 58                     921 	.db #0x58	; 88	'X'
    0000012A 58                     922 	.db #0x58	; 88	'X'
    0000012B 58                     923 	.db #0x58	; 88	'X'
    0000012C 59                     924 	.db #0x59	; 89	'Y'
    0000012D 5A                     925 	.db #0x5a	; 90	'Z'
    0000012E 5B                     926 	.db #0x5b	; 91
    0000012F 5C                     927 	.db #0x5c	; 92
    00000130 5D                     928 	.db #0x5d	; 93
    00000131 5E                     929 	.db #0x5e	; 94
    00000132 5F                     930 	.db #0x5f	; 95
    00000133 60                     931 	.db #0x60	; 96
    00000134 61                     932 	.db #0x61	; 97	'a'
    00000135 62                     933 	.db #0x62	; 98	'b'
    00000136 63                     934 	.db #0x63	; 99	'c'
    00000137 64                     935 	.db #0x64	; 100	'd'
    00000138 65                     936 	.db #0x65	; 101	'e'
    00000139 66                     937 	.db #0x66	; 102	'f'
    0000013A 67                     938 	.db #0x67	; 103	'g'
    0000013B 68                     939 	.db #0x68	; 104	'h'
    0000013C 69                     940 	.db #0x69	; 105	'i'
    0000013D 6A                     941 	.db #0x6a	; 106	'j'
    0000013E 6B                     942 	.db #0x6b	; 107	'k'
    0000013F 6C                     943 	.db #0x6c	; 108	'l'
    00000140 6D                     944 	.db #0x6d	; 109	'm'
    00000141 6E                     945 	.db #0x6e	; 110	'n'
    00000142 6F                     946 	.db #0x6f	; 111	'o'
    00000143 70                     947 	.db #0x70	; 112	'p'
    00000144 71                     948 	.db #0x71	; 113	'q'
    00000145 72                     949 	.db #0x72	; 114	'r'
    00000146 73                     950 	.db #0x73	; 115	's'
    00000147 74                     951 	.db #0x74	; 116	't'
    00000148 75                     952 	.db #0x75	; 117	'u'
    00000149 76                     953 	.db #0x76	; 118	'v'
    0000014A 77                     954 	.db #0x77	; 119	'w'
    0000014B 78                     955 	.db #0x78	; 120	'x'
    0000014C 79                     956 	.db #0x79	; 121	'y'
    0000014D 7A                     957 	.db #0x7a	; 122	'z'
    0000014E 7B                     958 	.db #0x7b	; 123
    0000014F 7C                     959 	.db #0x7c	; 124
    00000150 7D                     960 	.db #0x7d	; 125
    00000151 7E                     961 	.db #0x7e	; 126
    00000152 7F                     962 	.db #0x7f	; 127
    00000153 80                     963 	.db #0x80	; 128
    00000154 81                     964 	.db #0x81	; 129
    00000155 82                     965 	.db #0x82	; 130
    00000156 83                     966 	.db #0x83	; 131
    00000157 84                     967 	.db #0x84	; 132
    00000158 85                     968 	.db #0x85	; 133
    00000159 86                     969 	.db #0x86	; 134
    0000015A 87                     970 	.db #0x87	; 135
    0000015B 88                     971 	.db #0x88	; 136
    0000015C 89                     972 	.db #0x89	; 137
    0000015D 8A                     973 	.db #0x8a	; 138
    0000015E 8B                     974 	.db #0x8b	; 139
    0000015F 8C                     975 	.db #0x8c	; 140
    00000160 8D                     976 	.db #0x8d	; 141
    00000161 8E                     977 	.db #0x8e	; 142
    00000162 8F                     978 	.db #0x8f	; 143
    00000163 90                     979 	.db #0x90	; 144
    00000164 91                     980 	.db #0x91	; 145
    00000165 92                     981 	.db #0x92	; 146
    00000166 93                     982 	.db #0x93	; 147
    00000167 94                     983 	.db #0x94	; 148
    00000168 95                     984 	.db #0x95	; 149
    00000169 96                     985 	.db #0x96	; 150
    0000016A 97                     986 	.db #0x97	; 151
    0000016B 98                     987 	.db #0x98	; 152
    0000016C 98                     988 	.db #0x98	; 152
    0000016D 98                     989 	.db #0x98	; 152
    0000016E 98                     990 	.db #0x98	; 152
    0000016F 98                     991 	.db #0x98	; 152
    00000170 98                     992 	.db #0x98	; 152
    00000171 98                     993 	.db #0x98	; 152
    00000172 98                     994 	.db #0x98	; 152
    00000173 98                     995 	.db #0x98	; 152
    00000174 98                     996 	.db #0x98	; 152
    00000175 98                     997 	.db #0x98	; 152
    00000176 98                     998 	.db #0x98	; 152
    00000177 98                     999 	.db #0x98	; 152
    00000178 98                    1000 	.db #0x98	; 152
    00000179 98                    1001 	.db #0x98	; 152
    0000017A 98                    1002 	.db #0x98	; 152
    0000017B 98                    1003 	.db #0x98	; 152
    0000017C 98                    1004 	.db #0x98	; 152
    0000017D 98                    1005 	.db #0x98	; 152
    0000017E 98                    1006 	.db #0x98	; 152
    0000017F 98                    1007 	.db #0x98	; 152
    00000180 98                    1008 	.db #0x98	; 152
    00000181 98                    1009 	.db #0x98	; 152
    00000182 98                    1010 	.db #0x98	; 152
    00000183 98                    1011 	.db #0x98	; 152
    00000184 98                    1012 	.db #0x98	; 152
    00000185 98                    1013 	.db #0x98	; 152
    00000186 98                    1014 	.db #0x98	; 152
    00000187 98                    1015 	.db #0x98	; 152
    00000188 98                    1016 	.db #0x98	; 152
    00000189 98                    1017 	.db #0x98	; 152
    0000018A 98                    1018 	.db #0x98	; 152
    0000018B 98                    1019 	.db #0x98	; 152
    0000018C 98                    1020 	.db #0x98	; 152
    0000018D 98                    1021 	.db #0x98	; 152
    0000018E 98                    1022 	.db #0x98	; 152
    0000018F 98                    1023 	.db #0x98	; 152
    00000190 98                    1024 	.db #0x98	; 152
    00000191 98                    1025 	.db #0x98	; 152
    00000192 98                    1026 	.db #0x98	; 152
    00000193 98                    1027 	.db #0x98	; 152
    00000194 98                    1028 	.db #0x98	; 152
    00000195 98                    1029 	.db #0x98	; 152
    00000196 98                    1030 	.db #0x98	; 152
    00000197 98                    1031 	.db #0x98	; 152
    00000198 98                    1032 	.db #0x98	; 152
    00000199 98                    1033 	.db #0x98	; 152
    0000019A 98                    1034 	.db #0x98	; 152
    0000019B 98                    1035 	.db #0x98	; 152
    0000019C 98                    1036 	.db #0x98	; 152
    0000019D 98                    1037 	.db #0x98	; 152
    0000019E 98                    1038 	.db #0x98	; 152
    0000019F 98                    1039 	.db #0x98	; 152
    000001A0 98                    1040 	.db #0x98	; 152
    000001A1 98                    1041 	.db #0x98	; 152
    000001A2 98                    1042 	.db #0x98	; 152
    000001A3 98                    1043 	.db #0x98	; 152
    000001A4 98                    1044 	.db #0x98	; 152
    000001A5 98                    1045 	.db #0x98	; 152
    000001A6 98                    1046 	.db #0x98	; 152
    000001A7 98                    1047 	.db #0x98	; 152
    000001A8 98                    1048 	.db #0x98	; 152
    000001A9 98                    1049 	.db #0x98	; 152
    000001AA 98                    1050 	.db #0x98	; 152
    000001AB 98                    1051 	.db #0x98	; 152
    000001AC 98                    1052 	.db #0x98	; 152
    000001AD 98                    1053 	.db #0x98	; 152
    000001AE 98                    1054 	.db #0x98	; 152
    000001AF 98                    1055 	.db #0x98	; 152
    000001B0 98                    1056 	.db #0x98	; 152
    000001B1 98                    1057 	.db #0x98	; 152
    000001B2 98                    1058 	.db #0x98	; 152
    000001B3 98                    1059 	.db #0x98	; 152
    000001B4 98                    1060 	.db #0x98	; 152
    000001B5 98                    1061 	.db #0x98	; 152
    000001B6 98                    1062 	.db #0x98	; 152
    000001B7 98                    1063 	.db #0x98	; 152
    000001B8 98                    1064 	.db #0x98	; 152
    000001B9 98                    1065 	.db #0x98	; 152
    000001BA 98                    1066 	.db #0x98	; 152
    000001BB 98                    1067 	.db #0x98	; 152
    000001BC 98                    1068 	.db #0x98	; 152
    000001BD 98                    1069 	.db #0x98	; 152
    000001BE 98                    1070 	.db #0x98	; 152
    000001BF 98                    1071 	.db #0x98	; 152
    000001C0 98                    1072 	.db #0x98	; 152
    000001C1 98                    1073 	.db #0x98	; 152
    000001C2 98                    1074 	.db #0x98	; 152
    000001C3 98                    1075 	.db #0x98	; 152
    000001C4 98                    1076 	.db #0x98	; 152
    000001C5 98                    1077 	.db #0x98	; 152
    000001C6 98                    1078 	.db #0x98	; 152
    000001C7 98                    1079 	.db #0x98	; 152
    000001C8 98                    1080 	.db #0x98	; 152
    000001C9 98                    1081 	.db #0x98	; 152
    000001CA 98                    1082 	.db #0x98	; 152
    000001CB 98                    1083 	.db #0x98	; 152
    000001CC 98                    1084 	.db #0x98	; 152
    000001CD 98                    1085 	.db #0x98	; 152
    000001CE 98                    1086 	.db #0x98	; 152
    000001CF 98                    1087 	.db #0x98	; 152
    000001D0 98                    1088 	.db #0x98	; 152
    000001D1 98                    1089 	.db #0x98	; 152
    000001D2 98                    1090 	.db #0x98	; 152
    000001D3 98                    1091 	.db #0x98	; 152
    000001D4 98                    1092 	.db #0x98	; 152
    000001D5 98                    1093 	.db #0x98	; 152
    000001D6 98                    1094 	.db #0x98	; 152
    000001D7 98                    1095 	.db #0x98	; 152
    000001D8 98                    1096 	.db #0x98	; 152
    000001D9 98                    1097 	.db #0x98	; 152
    000001DA 98                    1098 	.db #0x98	; 152
    000001DB 99                    1099 	.db #0x99	; 153
    000001DC 9A                    1100 	.db #0x9a	; 154
    000001DD 9B                    1101 	.db #0x9b	; 155
    000001DE 9C                    1102 	.db #0x9c	; 156
    000001DF 9D                    1103 	.db #0x9d	; 157
    000001E0 9E                    1104 	.db #0x9e	; 158
    000001E1 9F                    1105 	.db #0x9f	; 159
    000001E2 A0                    1106 	.db #0xa0	; 160
    000001E3 A1                    1107 	.db #0xa1	; 161
    000001E4 A2                    1108 	.db #0xa2	; 162
    000001E5 A3                    1109 	.db #0xa3	; 163
    000001E6 A4                    1110 	.db #0xa4	; 164
    000001E7 A5                    1111 	.db #0xa5	; 165
    000001E8 A6                    1112 	.db #0xa6	; 166
    000001E9 A7                    1113 	.db #0xa7	; 167
    000001EA A8                    1114 	.db #0xa8	; 168
    000001EB A9                    1115 	.db #0xa9	; 169
    000001EC AA                    1116 	.db #0xaa	; 170
    000001ED AB                    1117 	.db #0xab	; 171
    000001EE AC                    1118 	.db #0xac	; 172
    000001EF AD                    1119 	.db #0xad	; 173
    000001F0 AE                    1120 	.db #0xae	; 174
    000001F1 AF                    1121 	.db #0xaf	; 175
    000001F2 B0                    1122 	.db #0xb0	; 176
    000001F3 B1                    1123 	.db #0xb1	; 177
    000001F4 B2                    1124 	.db #0xb2	; 178
    000001F5 B3                    1125 	.db #0xb3	; 179
    000001F6 B4                    1126 	.db #0xb4	; 180
    000001F7 B5                    1127 	.db #0xb5	; 181
    000001F8 B5                    1128 	.db #0xb5	; 181
    000001F9 B5                    1129 	.db #0xb5	; 181
    000001FA B5                    1130 	.db #0xb5	; 181
    000001FB B5                    1131 	.db #0xb5	; 181
    000001FC B5                    1132 	.db #0xb5	; 181
    000001FD B5                    1133 	.db #0xb5	; 181
    000001FE B5                    1134 	.db #0xb5	; 181
    000001FF B5                    1135 	.db #0xb5	; 181
    00000200 B5                    1136 	.db #0xb5	; 181
    00000201 B5                    1137 	.db #0xb5	; 181
    00000202 B5                    1138 	.db #0xb5	; 181
    00000203 B5                    1139 	.db #0xb5	; 181
    00000204 B5                    1140 	.db #0xb5	; 181
    00000205 B6                    1141 	.db #0xb6	; 182
    00000206 B7                    1142 	.db #0xb7	; 183
    00000207 B8                    1143 	.db #0xb8	; 184
    00000208 B9                    1144 	.db #0xb9	; 185
    00000209 BA                    1145 	.db #0xba	; 186
    0000020A BB                    1146 	.db #0xbb	; 187
    0000020B BC                    1147 	.db #0xbc	; 188
    0000020C BD                    1148 	.db #0xbd	; 189
    0000020D BE                    1149 	.db #0xbe	; 190
    0000020E BF                    1150 	.db #0xbf	; 191
    0000020F C0                    1151 	.db #0xc0	; 192
    00000210 C1                    1152 	.db #0xc1	; 193
    00000211 C2                    1153 	.db #0xc2	; 194
    00000212 C3                    1154 	.db #0xc3	; 195
    00000213 C4                    1155 	.db #0xc4	; 196
    00000214 C5                    1156 	.db #0xc5	; 197
    00000215 C6                    1157 	.db #0xc6	; 198
    00000216 C7                    1158 	.db #0xc7	; 199
    00000217 C8                    1159 	.db #0xc8	; 200
    00000218 C9                    1160 	.db #0xc9	; 201
    00000219 CA                    1161 	.db #0xca	; 202
    0000021A CB                    1162 	.db #0xcb	; 203
    0000021B CC                    1163 	.db #0xcc	; 204
    0000021C CD                    1164 	.db #0xcd	; 205
    0000021D CE                    1165 	.db #0xce	; 206
    0000021E CF                    1166 	.db #0xcf	; 207
    0000021F D0                    1167 	.db #0xd0	; 208
    00000220 D1                    1168 	.db #0xd1	; 209
    00000221 D2                    1169 	.db #0xd2	; 210
    00000222 D3                    1170 	.db #0xd3	; 211
    00000223 D4                    1171 	.db #0xd4	; 212
    00000224 D5                    1172 	.db #0xd5	; 213
    00000225 D6                    1173 	.db #0xd6	; 214
    00000226 D7                    1174 	.db #0xd7	; 215
    00000227 D8                    1175 	.db #0xd8	; 216
    00000228 D9                    1176 	.db #0xd9	; 217
    00000229 DA                    1177 	.db #0xda	; 218
    0000022A DB                    1178 	.db #0xdb	; 219
    0000022B DC                    1179 	.db #0xdc	; 220
    0000022C DD                    1180 	.db #0xdd	; 221
    0000022D DE                    1181 	.db #0xde	; 222
    0000022E DF                    1182 	.db #0xdf	; 223
    0000022F E0                    1183 	.db #0xe0	; 224
    00000230 E1                    1184 	.db #0xe1	; 225
    00000231 E2                    1185 	.db #0xe2	; 226
    00000232 E3                    1186 	.db #0xe3	; 227
    00000233 E4                    1187 	.db #0xe4	; 228
    00000234 E5                    1188 	.db #0xe5	; 229
    00000235 E6                    1189 	.db #0xe6	; 230
    00000236 E7                    1190 	.db #0xe7	; 231
    00000237 E8                    1191 	.db #0xe8	; 232
    00000238 E9                    1192 	.db #0xe9	; 233
    00000239 EA                    1193 	.db #0xea	; 234
    0000023A EB                    1194 	.db #0xeb	; 235
    0000023B EC                    1195 	.db #0xec	; 236
    0000023C ED                    1196 	.db #0xed	; 237
    0000023D EE                    1197 	.db #0xee	; 238
    0000023E EF                    1198 	.db #0xef	; 239
    0000023F F0                    1199 	.db #0xf0	; 240
    00000240 F1                    1200 	.db #0xf1	; 241
    00000241 F2                    1201 	.db #0xf2	; 242
    00000242 F3                    1202 	.db #0xf3	; 243
    00000243 F4                    1203 	.db #0xf4	; 244
    00000244 F5                    1204 	.db #0xf5	; 245
    00000245 F6                    1205 	.db #0xf6	; 246
    00000246 F7                    1206 	.db #0xf7	; 247
    00000247 F8                    1207 	.db #0xf8	; 248
    00000248 F9                    1208 	.db #0xf9	; 249
    00000249 FA                    1209 	.db #0xfa	; 250
    0000024A FB                    1210 	.db #0xfb	; 251
    0000024B FC                    1211 	.db #0xfc	; 252
    0000024C FD                    1212 	.db #0xfd	; 253
    0000024D FE                    1213 	.db #0xfe	; 254
    0000024E FF                    1214 	.db #0xff	; 255
    0000024F                       1215 _g_Palette:
    0000024F 00                    1216 	.db #0x00	; 0
    00000250 00                    1217 	.db #0x00	; 0
    00000251 00                    1218 	.db #0x00	; 0
    00000252 00                    1219 	.db #0x00	; 0
    00000253 71                    1220 	.db #0x71	; 113	'q'
    00000254 00                    1221 	.db #0x00	; 0
    00000255 72                    1222 	.db #0x72	; 114	'r'
    00000256 06                    1223 	.db #0x06	; 6
    00000257 77                    1224 	.db #0x77	; 119	'w'
    00000258 07                    1225 	.db #0x07	; 7
    00000259 03                    1226 	.db #0x03	; 3
    0000025A 00                    1227 	.db #0x00	; 0
    0000025B 00                    1228 	.db #0x00	; 0
    0000025C 05                    1229 	.db #0x05	; 5
    0000025D 33                    1230 	.db #0x33	; 51	'3'
    0000025E 03                    1231 	.db #0x03	; 3
    0000025F 55                    1232 	.db #0x55	; 85	'U'
    00000260 02                    1233 	.db #0x02	; 2
    00000261 45                    1234 	.db #0x45	; 69	'E'
    00000262 06                    1235 	.db #0x06	; 6
    00000263 40                    1236 	.db #0x40	; 64
    00000264 00                    1237 	.db #0x00	; 0
    00000265 26                    1238 	.db #0x26	; 38
    00000266 05                    1239 	.db #0x05	; 5
    00000267 55                    1240 	.db #0x55	; 85	'U'
    00000268 02                    1241 	.db #0x02	; 2
    00000269 06                    1242 	.db #0x06	; 6
    0000026A 06                    1243 	.db #0x06	; 6
    0000026B 16                    1244 	.db #0x16	; 22
    0000026C 02                    1245 	.db #0x02	; 2
    0000026D 66                    1246 	.db #0x66	; 102	'f'
    0000026E 06                    1247 	.db #0x06	; 6
    0000026F                       1248 _g_TeamColorsArray:
    0000026F 26 05                 1249 	.dw #0x0526
    00000271 77 07                 1250 	.dw #0x0777
    00000273 77 07                 1251 	.dw #0x0777
    00000275 15 02                 1252 	.dw #0x0215
    00000277 77 07                 1253 	.dw #0x0777
    00000279 77 07                 1254 	.dw #0x0777
    0000027B 11 05                 1255 	.dw #0x0511
    0000027D 71 06                 1256 	.dw #0x0671
    0000027F 71 06                 1257 	.dw #0x0671
    00000281 77 07                 1258 	.dw #0x0777
    00000283 11 01                 1259 	.dw #0x0111
    00000285 11 01                 1260 	.dw #0x0111
    00000287 70 04                 1261 	.dw #0x0470
    00000289 11 01                 1262 	.dw #0x0111
    0000028B 11 01                 1263 	.dw #0x0111
    0000028D 71 00                 1264 	.dw #0x0071
    0000028F 71 00                 1265 	.dw #0x0071
    00000291 77 07                 1266 	.dw #0x0777
                                   1267 ;./soccerlg.c:112: void CallFnc_VOID_P1(u8 segment, void (*func)(u8), u8 p1) {
                                   1268 ;	---------------------------------
                                   1269 ; Function CallFnc_VOID_P1
                                   1270 ; ---------------------------------
    00000293                       1271 _CallFnc_VOID_P1::
    00000293 DD E5            [15] 1272 	push	ix
    00000295 DD 21 00 00      [14] 1273 	ld	ix,#0
    00000299 DD 39            [15] 1274 	add	ix,sp
    0000029B 3B               [ 6] 1275 	dec	sp
    0000029C 4F               [ 4] 1276 	ld	c, a
                                   1277 ;./soccerlg.c:113: u8 _old = GET_BANK_SEGMENT(3);
    0000029D 2Ar06r00         [16] 1278 	ld	hl, (#(_g_Bank0Segment + 6) + 0)
    000002A0 DD 75 FF         [19] 1279 	ld	-1 (ix), l
                                   1280 ;./soccerlg.c:114: SET_BANK_SEGMENT(3, segment);
    000002A3 06 00            [ 7] 1281 	ld	b, #0x00
                                   1282 ;E:/Dropbox/FAUSTO/SVILUPPI/MSX/CODE/C/MSXgl/engine/src/rom_mapper.h:190: g_Bank0Segment[b] = s;
    000002A5 ED 43r06r00      [20] 1283 	ld	((_g_Bank0Segment + 6)), bc
                                   1284 ;E:/Dropbox/FAUSTO/SVILUPPI/MSX/CODE/C/MSXgl/engine/src/rom_mapper.h:191: Poke(YAMANOOTO_OFFR, (s >> 2) & 0xC0);
    000002A9 69               [ 4] 1285 	ld	l, c
    000002AA 60               [ 4] 1286 	ld	h, b
    000002AB CB 3C            [ 8] 1287 	srl	h
    000002AD CB 1D            [ 8] 1288 	rr	l
    000002AF CB 3C            [ 8] 1289 	srl	h
    000002B1 CB 1D            [ 8] 1290 	rr	l
    000002B3 7D               [ 4] 1291 	ld	a, l
    000002B4 E6 C0            [ 7] 1292 	and	a, #0xc0
                                   1293 ;E:/Dropbox/FAUSTO/SVILUPPI/MSX/CODE/C/MSXgl/engine/src/system.h:101: inline void Poke(u16 addr, u8 val) { *(u8*)addr = val; }
    000002B6 32 FE 7F         [13] 1294 	ld	(#0x7ffe),a
                                   1295 ;E:/Dropbox/FAUSTO/SVILUPPI/MSX/CODE/C/MSXgl/engine/src/rom_mapper.h:195: else if (b == 3)	Poke(ADDR_BANK_3, s & 0xFF);
                                   1296 ;E:/Dropbox/FAUSTO/SVILUPPI/MSX/CODE/C/MSXgl/engine/src/system.h:101: inline void Poke(u16 addr, u8 val) { *(u8*)addr = val; }
    000002B9 21 00 B0         [10] 1297 	ld	hl, #0xb000
    000002BC 71               [ 7] 1298 	ld	(hl), c
                                   1299 ;./soccerlg.c:115: func(p1);
    000002BD DD 7E 04         [19] 1300 	ld	a, 4 (ix)
    000002C0 EB               [ 4] 1301 	ex	de, hl
    000002C1 CDr00r00         [17] 1302 	call	___sdcc_call_hl
                                   1303 ;./soccerlg.c:116: SET_BANK_SEGMENT(3, _old);
    000002C4 DD 4E FF         [19] 1304 	ld	c, -1 (ix)
    000002C7 06 00            [ 7] 1305 	ld	b, #0x00
                                   1306 ;E:/Dropbox/FAUSTO/SVILUPPI/MSX/CODE/C/MSXgl/engine/src/rom_mapper.h:190: g_Bank0Segment[b] = s;
    000002C9 ED 43r06r00      [20] 1307 	ld	((_g_Bank0Segment + 6)), bc
                                   1308 ;E:/Dropbox/FAUSTO/SVILUPPI/MSX/CODE/C/MSXgl/engine/src/rom_mapper.h:191: Poke(YAMANOOTO_OFFR, (s >> 2) & 0xC0);
    000002CD 59               [ 4] 1309 	ld	e, c
    000002CE 50               [ 4] 1310 	ld	d, b
    000002CF CB 3A            [ 8] 1311 	srl	d
    000002D1 CB 1B            [ 8] 1312 	rr	e
    000002D3 CB 3A            [ 8] 1313 	srl	d
    000002D5 CB 1B            [ 8] 1314 	rr	e
    000002D7 7B               [ 4] 1315 	ld	a, e
    000002D8 E6 C0            [ 7] 1316 	and	a, #0xc0
                                   1317 ;E:/Dropbox/FAUSTO/SVILUPPI/MSX/CODE/C/MSXgl/engine/src/system.h:101: inline void Poke(u16 addr, u8 val) { *(u8*)addr = val; }
    000002DA 32 FE 7F         [13] 1318 	ld	(#0x7ffe),a
                                   1319 ;E:/Dropbox/FAUSTO/SVILUPPI/MSX/CODE/C/MSXgl/engine/src/rom_mapper.h:195: else if (b == 3)	Poke(ADDR_BANK_3, s & 0xFF);
                                   1320 ;E:/Dropbox/FAUSTO/SVILUPPI/MSX/CODE/C/MSXgl/engine/src/system.h:101: inline void Poke(u16 addr, u8 val) { *(u8*)addr = val; }
    000002DD 21 00 B0         [10] 1321 	ld	hl, #0xb000
    000002E0 71               [ 7] 1322 	ld	(hl), c
                                   1323 ;./soccerlg.c:116: SET_BANK_SEGMENT(3, _old);
                                   1324 ;./soccerlg.c:117: }
    000002E1 33               [ 6] 1325 	inc	sp
    000002E2 DD E1            [14] 1326 	pop	ix
    000002E4 E1               [10] 1327 	pop	hl
    000002E5 33               [ 6] 1328 	inc	sp
    000002E6 E9               [ 4] 1329 	jp	(hl)
                                   1330 ;./soccerlg.c:119: void CallFnc_VOID_3PTR(u8 segment, void (*func)(u8*, u8*, u8*), u8* p1, u8* p2, u8* p3) {
                                   1331 ;	---------------------------------
                                   1332 ; Function CallFnc_VOID_3PTR
                                   1333 ; ---------------------------------
    000002E7                       1334 _CallFnc_VOID_3PTR::
    000002E7 DD E5            [15] 1335 	push	ix
    000002E9 DD 21 00 00      [14] 1336 	ld	ix,#0
    000002ED DD 39            [15] 1337 	add	ix,sp
    000002EF F5               [11] 1338 	push	af
    000002F0 DD 77 FF         [19] 1339 	ld	-1 (ix), a
    000002F3 4B               [ 4] 1340 	ld	c, e
    000002F4 42               [ 4] 1341 	ld	b, d
                                   1342 ;./soccerlg.c:120: u8 _old = GET_BANK_SEGMENT(3);
    000002F5 2Ar06r00         [16] 1343 	ld	hl, (#(_g_Bank0Segment + 6) + 0)
    000002F8 DD 75 FE         [19] 1344 	ld	-2 (ix), l
                                   1345 ;./soccerlg.c:121: SET_BANK_SEGMENT(3, segment);
    000002FB DD 5E FF         [19] 1346 	ld	e, -1 (ix)
    000002FE 16 00            [ 7] 1347 	ld	d, #0x00
                                   1348 ;E:/Dropbox/FAUSTO/SVILUPPI/MSX/CODE/C/MSXgl/engine/src/rom_mapper.h:190: g_Bank0Segment[b] = s;
    00000300 ED 53r06r00      [20] 1349 	ld	((_g_Bank0Segment + 6)), de
                                   1350 ;E:/Dropbox/FAUSTO/SVILUPPI/MSX/CODE/C/MSXgl/engine/src/rom_mapper.h:191: Poke(YAMANOOTO_OFFR, (s >> 2) & 0xC0);
    00000304 6B               [ 4] 1351 	ld	l, e
    00000305 62               [ 4] 1352 	ld	h, d
    00000306 CB 3C            [ 8] 1353 	srl	h
    00000308 CB 1D            [ 8] 1354 	rr	l
    0000030A CB 3C            [ 8] 1355 	srl	h
    0000030C CB 1D            [ 8] 1356 	rr	l
    0000030E 7D               [ 4] 1357 	ld	a, l
    0000030F E6 C0            [ 7] 1358 	and	a, #0xc0
                                   1359 ;E:/Dropbox/FAUSTO/SVILUPPI/MSX/CODE/C/MSXgl/engine/src/system.h:101: inline void Poke(u16 addr, u8 val) { *(u8*)addr = val; }
    00000311 32 FE 7F         [13] 1360 	ld	(#0x7ffe),a
                                   1361 ;E:/Dropbox/FAUSTO/SVILUPPI/MSX/CODE/C/MSXgl/engine/src/rom_mapper.h:195: else if (b == 3)	Poke(ADDR_BANK_3, s & 0xFF);
                                   1362 ;E:/Dropbox/FAUSTO/SVILUPPI/MSX/CODE/C/MSXgl/engine/src/system.h:101: inline void Poke(u16 addr, u8 val) { *(u8*)addr = val; }
    00000314 21 00 B0         [10] 1363 	ld	hl, #0xb000
    00000317 73               [ 7] 1364 	ld	(hl), e
                                   1365 ;./soccerlg.c:122: func(p1, p2, p3);
    00000318 DD 6E 08         [19] 1366 	ld	l, 8 (ix)
                                   1367 ;	spillPairReg hl
                                   1368 ;	spillPairReg hl
    0000031B DD 66 09         [19] 1369 	ld	h, 9 (ix)
                                   1370 ;	spillPairReg hl
                                   1371 ;	spillPairReg hl
    0000031E E5               [11] 1372 	push	hl
    0000031F DD 5E 06         [19] 1373 	ld	e, 6 (ix)
    00000322 DD 56 07         [19] 1374 	ld	d, 7 (ix)
    00000325 DD 6E 04         [19] 1375 	ld	l, 4 (ix)
                                   1376 ;	spillPairReg hl
                                   1377 ;	spillPairReg hl
    00000328 DD 66 05         [19] 1378 	ld	h, 5 (ix)
                                   1379 ;	spillPairReg hl
                                   1380 ;	spillPairReg hl
    0000032B C5               [11] 1381 	push	bc
    0000032C FD E1            [14] 1382 	pop	iy
    0000032E CDr00r00         [17] 1383 	call	___sdcc_call_iy
                                   1384 ;./soccerlg.c:123: SET_BANK_SEGMENT(3, _old);
    00000331 DD 4E FE         [19] 1385 	ld	c, -2 (ix)
    00000334 06 00            [ 7] 1386 	ld	b, #0x00
                                   1387 ;E:/Dropbox/FAUSTO/SVILUPPI/MSX/CODE/C/MSXgl/engine/src/rom_mapper.h:190: g_Bank0Segment[b] = s;
    00000336 ED 43r06r00      [20] 1388 	ld	((_g_Bank0Segment + 6)), bc
                                   1389 ;E:/Dropbox/FAUSTO/SVILUPPI/MSX/CODE/C/MSXgl/engine/src/rom_mapper.h:191: Poke(YAMANOOTO_OFFR, (s >> 2) & 0xC0);
    0000033A 59               [ 4] 1390 	ld	e, c
    0000033B 50               [ 4] 1391 	ld	d, b
    0000033C CB 3A            [ 8] 1392 	srl	d
    0000033E CB 1B            [ 8] 1393 	rr	e
    00000340 CB 3A            [ 8] 1394 	srl	d
    00000342 CB 1B            [ 8] 1395 	rr	e
    00000344 7B               [ 4] 1396 	ld	a, e
    00000345 E6 C0            [ 7] 1397 	and	a, #0xc0
                                   1398 ;E:/Dropbox/FAUSTO/SVILUPPI/MSX/CODE/C/MSXgl/engine/src/system.h:101: inline void Poke(u16 addr, u8 val) { *(u8*)addr = val; }
    00000347 32 FE 7F         [13] 1399 	ld	(#0x7ffe),a
                                   1400 ;E:/Dropbox/FAUSTO/SVILUPPI/MSX/CODE/C/MSXgl/engine/src/rom_mapper.h:195: else if (b == 3)	Poke(ADDR_BANK_3, s & 0xFF);
                                   1401 ;E:/Dropbox/FAUSTO/SVILUPPI/MSX/CODE/C/MSXgl/engine/src/system.h:101: inline void Poke(u16 addr, u8 val) { *(u8*)addr = val; }
    0000034A 21 00 B0         [10] 1402 	ld	hl, #0xb000
    0000034D 71               [ 7] 1403 	ld	(hl), c
                                   1404 ;./soccerlg.c:123: SET_BANK_SEGMENT(3, _old);
                                   1405 ;./soccerlg.c:124: }
    0000034E DD F9            [10] 1406 	ld	sp, ix
    00000350 DD E1            [14] 1407 	pop	ix
    00000352 E1               [10] 1408 	pop	hl
    00000353 F1               [10] 1409 	pop	af
    00000354 F1               [10] 1410 	pop	af
    00000355 F1               [10] 1411 	pop	af
    00000356 E9               [ 4] 1412 	jp	(hl)
                                   1413 ;./soccerlg.c:126: void CallFnc_VOID_3PTR_U16(u8 segment, void (*func)(u8*, u8*, u8*, u16), u8* p1, u8* p2, u8* p3, u16 p4) {
                                   1414 ;	---------------------------------
                                   1415 ; Function CallFnc_VOID_3PTR_U16
                                   1416 ; ---------------------------------
    00000357                       1417 _CallFnc_VOID_3PTR_U16::
    00000357 DD E5            [15] 1418 	push	ix
    00000359 DD 21 00 00      [14] 1419 	ld	ix,#0
    0000035D DD 39            [15] 1420 	add	ix,sp
    0000035F F5               [11] 1421 	push	af
    00000360 DD 77 FF         [19] 1422 	ld	-1 (ix), a
    00000363 4B               [ 4] 1423 	ld	c, e
    00000364 42               [ 4] 1424 	ld	b, d
                                   1425 ;./soccerlg.c:127: u8 _old = GET_BANK_SEGMENT(3);
    00000365 2Ar06r00         [16] 1426 	ld	hl, (#(_g_Bank0Segment + 6) + 0)
    00000368 DD 75 FE         [19] 1427 	ld	-2 (ix), l
                                   1428 ;./soccerlg.c:128: SET_BANK_SEGMENT(3, segment);
    0000036B DD 5E FF         [19] 1429 	ld	e, -1 (ix)
    0000036E 16 00            [ 7] 1430 	ld	d, #0x00
                                   1431 ;E:/Dropbox/FAUSTO/SVILUPPI/MSX/CODE/C/MSXgl/engine/src/rom_mapper.h:190: g_Bank0Segment[b] = s;
    00000370 ED 53r06r00      [20] 1432 	ld	((_g_Bank0Segment + 6)), de
                                   1433 ;E:/Dropbox/FAUSTO/SVILUPPI/MSX/CODE/C/MSXgl/engine/src/rom_mapper.h:191: Poke(YAMANOOTO_OFFR, (s >> 2) & 0xC0);
    00000374 6B               [ 4] 1434 	ld	l, e
    00000375 62               [ 4] 1435 	ld	h, d
    00000376 CB 3C            [ 8] 1436 	srl	h
    00000378 CB 1D            [ 8] 1437 	rr	l
    0000037A CB 3C            [ 8] 1438 	srl	h
    0000037C CB 1D            [ 8] 1439 	rr	l
    0000037E 7D               [ 4] 1440 	ld	a, l
    0000037F E6 C0            [ 7] 1441 	and	a, #0xc0
                                   1442 ;E:/Dropbox/FAUSTO/SVILUPPI/MSX/CODE/C/MSXgl/engine/src/system.h:101: inline void Poke(u16 addr, u8 val) { *(u8*)addr = val; }
    00000381 32 FE 7F         [13] 1443 	ld	(#0x7ffe),a
                                   1444 ;E:/Dropbox/FAUSTO/SVILUPPI/MSX/CODE/C/MSXgl/engine/src/rom_mapper.h:195: else if (b == 3)	Poke(ADDR_BANK_3, s & 0xFF);
                                   1445 ;E:/Dropbox/FAUSTO/SVILUPPI/MSX/CODE/C/MSXgl/engine/src/system.h:101: inline void Poke(u16 addr, u8 val) { *(u8*)addr = val; }
    00000384 21 00 B0         [10] 1446 	ld	hl, #0xb000
    00000387 73               [ 7] 1447 	ld	(hl), e
                                   1448 ;./soccerlg.c:129: func(p1, p2, p3, p4);
    00000388 DD 6E 0A         [19] 1449 	ld	l, 10 (ix)
                                   1450 ;	spillPairReg hl
                                   1451 ;	spillPairReg hl
    0000038B DD 66 0B         [19] 1452 	ld	h, 11 (ix)
                                   1453 ;	spillPairReg hl
                                   1454 ;	spillPairReg hl
    0000038E E5               [11] 1455 	push	hl
    0000038F DD 6E 08         [19] 1456 	ld	l, 8 (ix)
                                   1457 ;	spillPairReg hl
                                   1458 ;	spillPairReg hl
    00000392 DD 66 09         [19] 1459 	ld	h, 9 (ix)
                                   1460 ;	spillPairReg hl
                                   1461 ;	spillPairReg hl
    00000395 E5               [11] 1462 	push	hl
    00000396 DD 5E 06         [19] 1463 	ld	e, 6 (ix)
    00000399 DD 56 07         [19] 1464 	ld	d, 7 (ix)
    0000039C DD 6E 04         [19] 1465 	ld	l, 4 (ix)
                                   1466 ;	spillPairReg hl
                                   1467 ;	spillPairReg hl
    0000039F DD 66 05         [19] 1468 	ld	h, 5 (ix)
                                   1469 ;	spillPairReg hl
                                   1470 ;	spillPairReg hl
    000003A2 C5               [11] 1471 	push	bc
    000003A3 FD E1            [14] 1472 	pop	iy
    000003A5 CDr00r00         [17] 1473 	call	___sdcc_call_iy
                                   1474 ;./soccerlg.c:130: SET_BANK_SEGMENT(3, _old);
    000003A8 DD 4E FE         [19] 1475 	ld	c, -2 (ix)
    000003AB 06 00            [ 7] 1476 	ld	b, #0x00
                                   1477 ;E:/Dropbox/FAUSTO/SVILUPPI/MSX/CODE/C/MSXgl/engine/src/rom_mapper.h:190: g_Bank0Segment[b] = s;
    000003AD ED 43r06r00      [20] 1478 	ld	((_g_Bank0Segment + 6)), bc
                                   1479 ;E:/Dropbox/FAUSTO/SVILUPPI/MSX/CODE/C/MSXgl/engine/src/rom_mapper.h:191: Poke(YAMANOOTO_OFFR, (s >> 2) & 0xC0);
    000003B1 59               [ 4] 1480 	ld	e, c
    000003B2 50               [ 4] 1481 	ld	d, b
    000003B3 CB 3A            [ 8] 1482 	srl	d
    000003B5 CB 1B            [ 8] 1483 	rr	e
    000003B7 CB 3A            [ 8] 1484 	srl	d
    000003B9 CB 1B            [ 8] 1485 	rr	e
    000003BB 7B               [ 4] 1486 	ld	a, e
    000003BC E6 C0            [ 7] 1487 	and	a, #0xc0
                                   1488 ;E:/Dropbox/FAUSTO/SVILUPPI/MSX/CODE/C/MSXgl/engine/src/system.h:101: inline void Poke(u16 addr, u8 val) { *(u8*)addr = val; }
    000003BE 32 FE 7F         [13] 1489 	ld	(#0x7ffe),a
                                   1490 ;E:/Dropbox/FAUSTO/SVILUPPI/MSX/CODE/C/MSXgl/engine/src/rom_mapper.h:195: else if (b == 3)	Poke(ADDR_BANK_3, s & 0xFF);
                                   1491 ;E:/Dropbox/FAUSTO/SVILUPPI/MSX/CODE/C/MSXgl/engine/src/system.h:101: inline void Poke(u16 addr, u8 val) { *(u8*)addr = val; }
    000003C1 21 00 B0         [10] 1492 	ld	hl, #0xb000
    000003C4 71               [ 7] 1493 	ld	(hl), c
                                   1494 ;./soccerlg.c:130: SET_BANK_SEGMENT(3, _old);
                                   1495 ;./soccerlg.c:131: }
    000003C5 DD F9            [10] 1496 	ld	sp, ix
    000003C7 DD E1            [14] 1497 	pop	ix
    000003C9 E1               [10] 1498 	pop	hl
    000003CA FD 21 08 00      [14] 1499 	ld	iy, #8
    000003CE FD 39            [15] 1500 	add	iy, sp
    000003D0 FD F9            [10] 1501 	ld	sp, iy
    000003D2 E9               [ 4] 1502 	jp	(hl)
                                   1503 ;./soccerlg.c:133: void CallFnc_VOID_U8U16U16(u8 segment, void (*func)(u8, u16, u16), u8 p1, u16 p2, u16 p3) {
                                   1504 ;	---------------------------------
                                   1505 ; Function CallFnc_VOID_U8U16U16
                                   1506 ; ---------------------------------
    000003D3                       1507 _CallFnc_VOID_U8U16U16::
    000003D3 DD E5            [15] 1508 	push	ix
    000003D5 DD 21 00 00      [14] 1509 	ld	ix,#0
    000003D9 DD 39            [15] 1510 	add	ix,sp
    000003DB F5               [11] 1511 	push	af
    000003DC DD 77 FF         [19] 1512 	ld	-1 (ix), a
    000003DF 4B               [ 4] 1513 	ld	c, e
    000003E0 42               [ 4] 1514 	ld	b, d
                                   1515 ;./soccerlg.c:134: u8 _old = GET_BANK_SEGMENT(3);
    000003E1 2Ar06r00         [16] 1516 	ld	hl, (#(_g_Bank0Segment + 6) + 0)
    000003E4 DD 75 FE         [19] 1517 	ld	-2 (ix), l
                                   1518 ;./soccerlg.c:135: SET_BANK_SEGMENT(3, segment);
    000003E7 DD 5E FF         [19] 1519 	ld	e, -1 (ix)
    000003EA 16 00            [ 7] 1520 	ld	d, #0x00
                                   1521 ;E:/Dropbox/FAUSTO/SVILUPPI/MSX/CODE/C/MSXgl/engine/src/rom_mapper.h:190: g_Bank0Segment[b] = s;
    000003EC ED 53r06r00      [20] 1522 	ld	((_g_Bank0Segment + 6)), de
                                   1523 ;E:/Dropbox/FAUSTO/SVILUPPI/MSX/CODE/C/MSXgl/engine/src/rom_mapper.h:191: Poke(YAMANOOTO_OFFR, (s >> 2) & 0xC0);
    000003F0 6B               [ 4] 1524 	ld	l, e
    000003F1 62               [ 4] 1525 	ld	h, d
    000003F2 CB 3C            [ 8] 1526 	srl	h
    000003F4 CB 1D            [ 8] 1527 	rr	l
    000003F6 CB 3C            [ 8] 1528 	srl	h
    000003F8 CB 1D            [ 8] 1529 	rr	l
    000003FA 7D               [ 4] 1530 	ld	a, l
    000003FB E6 C0            [ 7] 1531 	and	a, #0xc0
                                   1532 ;E:/Dropbox/FAUSTO/SVILUPPI/MSX/CODE/C/MSXgl/engine/src/system.h:101: inline void Poke(u16 addr, u8 val) { *(u8*)addr = val; }
    000003FD 32 FE 7F         [13] 1533 	ld	(#0x7ffe),a
                                   1534 ;E:/Dropbox/FAUSTO/SVILUPPI/MSX/CODE/C/MSXgl/engine/src/rom_mapper.h:195: else if (b == 3)	Poke(ADDR_BANK_3, s & 0xFF);
                                   1535 ;E:/Dropbox/FAUSTO/SVILUPPI/MSX/CODE/C/MSXgl/engine/src/system.h:101: inline void Poke(u16 addr, u8 val) { *(u8*)addr = val; }
    00000400 21 00 B0         [10] 1536 	ld	hl, #0xb000
    00000403 73               [ 7] 1537 	ld	(hl), e
                                   1538 ;./soccerlg.c:136: func(p1, p2, p3);
    00000404 DD 6E 07         [19] 1539 	ld	l, 7 (ix)
                                   1540 ;	spillPairReg hl
                                   1541 ;	spillPairReg hl
    00000407 DD 66 08         [19] 1542 	ld	h, 8 (ix)
                                   1543 ;	spillPairReg hl
                                   1544 ;	spillPairReg hl
    0000040A E5               [11] 1545 	push	hl
    0000040B DD 5E 05         [19] 1546 	ld	e, 5 (ix)
    0000040E DD 56 06         [19] 1547 	ld	d, 6 (ix)
    00000411 DD 7E 04         [19] 1548 	ld	a, 4 (ix)
    00000414 69               [ 4] 1549 	ld	l, c
                                   1550 ;	spillPairReg hl
                                   1551 ;	spillPairReg hl
    00000415 60               [ 4] 1552 	ld	h, b
                                   1553 ;	spillPairReg hl
                                   1554 ;	spillPairReg hl
    00000416 CDr00r00         [17] 1555 	call	___sdcc_call_hl
                                   1556 ;./soccerlg.c:137: SET_BANK_SEGMENT(3, _old);
    00000419 DD 4E FE         [19] 1557 	ld	c, -2 (ix)
    0000041C 06 00            [ 7] 1558 	ld	b, #0x00
                                   1559 ;E:/Dropbox/FAUSTO/SVILUPPI/MSX/CODE/C/MSXgl/engine/src/rom_mapper.h:190: g_Bank0Segment[b] = s;
    0000041E ED 43r06r00      [20] 1560 	ld	((_g_Bank0Segment + 6)), bc
                                   1561 ;E:/Dropbox/FAUSTO/SVILUPPI/MSX/CODE/C/MSXgl/engine/src/rom_mapper.h:191: Poke(YAMANOOTO_OFFR, (s >> 2) & 0xC0);
    00000422 59               [ 4] 1562 	ld	e, c
    00000423 50               [ 4] 1563 	ld	d, b
    00000424 CB 3A            [ 8] 1564 	srl	d
    00000426 CB 1B            [ 8] 1565 	rr	e
    00000428 CB 3A            [ 8] 1566 	srl	d
    0000042A CB 1B            [ 8] 1567 	rr	e
    0000042C 7B               [ 4] 1568 	ld	a, e
    0000042D E6 C0            [ 7] 1569 	and	a, #0xc0
                                   1570 ;E:/Dropbox/FAUSTO/SVILUPPI/MSX/CODE/C/MSXgl/engine/src/system.h:101: inline void Poke(u16 addr, u8 val) { *(u8*)addr = val; }
    0000042F 32 FE 7F         [13] 1571 	ld	(#0x7ffe),a
                                   1572 ;E:/Dropbox/FAUSTO/SVILUPPI/MSX/CODE/C/MSXgl/engine/src/rom_mapper.h:195: else if (b == 3)	Poke(ADDR_BANK_3, s & 0xFF);
                                   1573 ;E:/Dropbox/FAUSTO/SVILUPPI/MSX/CODE/C/MSXgl/engine/src/system.h:101: inline void Poke(u16 addr, u8 val) { *(u8*)addr = val; }
    00000432 21 00 B0         [10] 1574 	ld	hl, #0xb000
    00000435 71               [ 7] 1575 	ld	(hl), c
                                   1576 ;./soccerlg.c:137: SET_BANK_SEGMENT(3, _old);
                                   1577 ;./soccerlg.c:138: }
    00000436 DD F9            [10] 1578 	ld	sp, ix
    00000438 DD E1            [14] 1579 	pop	ix
    0000043A E1               [10] 1580 	pop	hl
    0000043B F1               [10] 1581 	pop	af
    0000043C F1               [10] 1582 	pop	af
    0000043D 33               [ 6] 1583 	inc	sp
    0000043E E9               [ 4] 1584 	jp	(hl)
                                   1585 ;./soccerlg.c:142: void CallFnc_VOID_P2(u8 segment, void (*func)(u8, bool), u8 p1, bool p2) {
                                   1586 ;	---------------------------------
                                   1587 ; Function CallFnc_VOID_P2
                                   1588 ; ---------------------------------
    0000043F                       1589 _CallFnc_VOID_P2::
    0000043F DD E5            [15] 1590 	push	ix
    00000441 DD 21 00 00      [14] 1591 	ld	ix,#0
    00000445 DD 39            [15] 1592 	add	ix,sp
    00000447 3B               [ 6] 1593 	dec	sp
    00000448 4F               [ 4] 1594 	ld	c, a
                                   1595 ;./soccerlg.c:143: u8 _old = GET_BANK_SEGMENT(3);
    00000449 2Ar06r00         [16] 1596 	ld	hl, (#(_g_Bank0Segment + 6) + 0)
    0000044C DD 75 FF         [19] 1597 	ld	-1 (ix), l
                                   1598 ;./soccerlg.c:144: SET_BANK_SEGMENT(3, segment);
    0000044F 06 00            [ 7] 1599 	ld	b, #0x00
                                   1600 ;E:/Dropbox/FAUSTO/SVILUPPI/MSX/CODE/C/MSXgl/engine/src/rom_mapper.h:190: g_Bank0Segment[b] = s;
    00000451 ED 43r06r00      [20] 1601 	ld	((_g_Bank0Segment + 6)), bc
                                   1602 ;E:/Dropbox/FAUSTO/SVILUPPI/MSX/CODE/C/MSXgl/engine/src/rom_mapper.h:191: Poke(YAMANOOTO_OFFR, (s >> 2) & 0xC0);
    00000455 69               [ 4] 1603 	ld	l, c
    00000456 60               [ 4] 1604 	ld	h, b
    00000457 CB 3C            [ 8] 1605 	srl	h
    00000459 CB 1D            [ 8] 1606 	rr	l
    0000045B CB 3C            [ 8] 1607 	srl	h
    0000045D CB 1D            [ 8] 1608 	rr	l
    0000045F 7D               [ 4] 1609 	ld	a, l
    00000460 E6 C0            [ 7] 1610 	and	a, #0xc0
                                   1611 ;E:/Dropbox/FAUSTO/SVILUPPI/MSX/CODE/C/MSXgl/engine/src/system.h:101: inline void Poke(u16 addr, u8 val) { *(u8*)addr = val; }
    00000462 32 FE 7F         [13] 1612 	ld	(#0x7ffe),a
                                   1613 ;E:/Dropbox/FAUSTO/SVILUPPI/MSX/CODE/C/MSXgl/engine/src/rom_mapper.h:195: else if (b == 3)	Poke(ADDR_BANK_3, s & 0xFF);
                                   1614 ;E:/Dropbox/FAUSTO/SVILUPPI/MSX/CODE/C/MSXgl/engine/src/system.h:101: inline void Poke(u16 addr, u8 val) { *(u8*)addr = val; }
    00000465 21 00 B0         [10] 1615 	ld	hl, #0xb000
    00000468 71               [ 7] 1616 	ld	(hl), c
                                   1617 ;./soccerlg.c:145: func(p1,p2);
    00000469 DD 6E 05         [19] 1618 	ld	l, 5 (ix)
                                   1619 ;	spillPairReg hl
                                   1620 ;	spillPairReg hl
    0000046C DD 7E 04         [19] 1621 	ld	a, 4 (ix)
    0000046F D5               [11] 1622 	push	de
    00000470 FD E1            [14] 1623 	pop	iy
    00000472 CDr00r00         [17] 1624 	call	___sdcc_call_iy
                                   1625 ;./soccerlg.c:146: SET_BANK_SEGMENT(3, _old);
    00000475 DD 4E FF         [19] 1626 	ld	c, -1 (ix)
    00000478 06 00            [ 7] 1627 	ld	b, #0x00
                                   1628 ;E:/Dropbox/FAUSTO/SVILUPPI/MSX/CODE/C/MSXgl/engine/src/rom_mapper.h:190: g_Bank0Segment[b] = s;
    0000047A ED 43r06r00      [20] 1629 	ld	((_g_Bank0Segment + 6)), bc
                                   1630 ;E:/Dropbox/FAUSTO/SVILUPPI/MSX/CODE/C/MSXgl/engine/src/rom_mapper.h:191: Poke(YAMANOOTO_OFFR, (s >> 2) & 0xC0);
    0000047E 59               [ 4] 1631 	ld	e, c
    0000047F 50               [ 4] 1632 	ld	d, b
    00000480 CB 3A            [ 8] 1633 	srl	d
    00000482 CB 1B            [ 8] 1634 	rr	e
    00000484 CB 3A            [ 8] 1635 	srl	d
    00000486 CB 1B            [ 8] 1636 	rr	e
    00000488 7B               [ 4] 1637 	ld	a, e
    00000489 E6 C0            [ 7] 1638 	and	a, #0xc0
                                   1639 ;E:/Dropbox/FAUSTO/SVILUPPI/MSX/CODE/C/MSXgl/engine/src/system.h:101: inline void Poke(u16 addr, u8 val) { *(u8*)addr = val; }
    0000048B 32 FE 7F         [13] 1640 	ld	(#0x7ffe),a
                                   1641 ;E:/Dropbox/FAUSTO/SVILUPPI/MSX/CODE/C/MSXgl/engine/src/rom_mapper.h:195: else if (b == 3)	Poke(ADDR_BANK_3, s & 0xFF);
                                   1642 ;E:/Dropbox/FAUSTO/SVILUPPI/MSX/CODE/C/MSXgl/engine/src/system.h:101: inline void Poke(u16 addr, u8 val) { *(u8*)addr = val; }
    0000048E 21 00 B0         [10] 1643 	ld	hl, #0xb000
    00000491 71               [ 7] 1644 	ld	(hl), c
                                   1645 ;./soccerlg.c:146: SET_BANK_SEGMENT(3, _old);
                                   1646 ;./soccerlg.c:147: }
    00000492 33               [ 6] 1647 	inc	sp
    00000493 DD E1            [14] 1648 	pop	ix
    00000495 E1               [10] 1649 	pop	hl
    00000496 F1               [10] 1650 	pop	af
    00000497 E9               [ 4] 1651 	jp	(hl)
                                   1652 ;./soccerlg.c:150: void CallFnc_VOID_16_P1(u8 segment, void (*func)(u16), u16 p1) {
                                   1653 ;	---------------------------------
                                   1654 ; Function CallFnc_VOID_16_P1
                                   1655 ; ---------------------------------
    00000498                       1656 _CallFnc_VOID_16_P1::
    00000498 DD E5            [15] 1657 	push	ix
    0000049A DD 21 00 00      [14] 1658 	ld	ix,#0
    0000049E DD 39            [15] 1659 	add	ix,sp
    000004A0 3B               [ 6] 1660 	dec	sp
    000004A1 4F               [ 4] 1661 	ld	c, a
                                   1662 ;./soccerlg.c:151: u8 _old = GET_BANK_SEGMENT(3);
    000004A2 2Ar06r00         [16] 1663 	ld	hl, (#(_g_Bank0Segment + 6) + 0)
    000004A5 DD 75 FF         [19] 1664 	ld	-1 (ix), l
                                   1665 ;./soccerlg.c:152: SET_BANK_SEGMENT(3, segment);
    000004A8 06 00            [ 7] 1666 	ld	b, #0x00
                                   1667 ;E:/Dropbox/FAUSTO/SVILUPPI/MSX/CODE/C/MSXgl/engine/src/rom_mapper.h:190: g_Bank0Segment[b] = s;
    000004AA ED 43r06r00      [20] 1668 	ld	((_g_Bank0Segment + 6)), bc
                                   1669 ;E:/Dropbox/FAUSTO/SVILUPPI/MSX/CODE/C/MSXgl/engine/src/rom_mapper.h:191: Poke(YAMANOOTO_OFFR, (s >> 2) & 0xC0);
    000004AE 69               [ 4] 1670 	ld	l, c
    000004AF 60               [ 4] 1671 	ld	h, b
    000004B0 CB 3C            [ 8] 1672 	srl	h
    000004B2 CB 1D            [ 8] 1673 	rr	l
    000004B4 CB 3C            [ 8] 1674 	srl	h
    000004B6 CB 1D            [ 8] 1675 	rr	l
    000004B8 7D               [ 4] 1676 	ld	a, l
    000004B9 E6 C0            [ 7] 1677 	and	a, #0xc0
                                   1678 ;E:/Dropbox/FAUSTO/SVILUPPI/MSX/CODE/C/MSXgl/engine/src/system.h:101: inline void Poke(u16 addr, u8 val) { *(u8*)addr = val; }
    000004BB 32 FE 7F         [13] 1679 	ld	(#0x7ffe),a
                                   1680 ;E:/Dropbox/FAUSTO/SVILUPPI/MSX/CODE/C/MSXgl/engine/src/rom_mapper.h:195: else if (b == 3)	Poke(ADDR_BANK_3, s & 0xFF);
                                   1681 ;E:/Dropbox/FAUSTO/SVILUPPI/MSX/CODE/C/MSXgl/engine/src/system.h:101: inline void Poke(u16 addr, u8 val) { *(u8*)addr = val; }
    000004BE 21 00 B0         [10] 1682 	ld	hl, #0xb000
    000004C1 71               [ 7] 1683 	ld	(hl), c
                                   1684 ;./soccerlg.c:153: func(p1);
    000004C2 DD 6E 04         [19] 1685 	ld	l, 4 (ix)
                                   1686 ;	spillPairReg hl
                                   1687 ;	spillPairReg hl
    000004C5 DD 66 05         [19] 1688 	ld	h, 5 (ix)
                                   1689 ;	spillPairReg hl
                                   1690 ;	spillPairReg hl
    000004C8 D5               [11] 1691 	push	de
    000004C9 FD E1            [14] 1692 	pop	iy
    000004CB CDr00r00         [17] 1693 	call	___sdcc_call_iy
                                   1694 ;./soccerlg.c:154: SET_BANK_SEGMENT(3, _old);
    000004CE DD 4E FF         [19] 1695 	ld	c, -1 (ix)
    000004D1 06 00            [ 7] 1696 	ld	b, #0x00
                                   1697 ;E:/Dropbox/FAUSTO/SVILUPPI/MSX/CODE/C/MSXgl/engine/src/rom_mapper.h:190: g_Bank0Segment[b] = s;
    000004D3 ED 43r06r00      [20] 1698 	ld	((_g_Bank0Segment + 6)), bc
                                   1699 ;E:/Dropbox/FAUSTO/SVILUPPI/MSX/CODE/C/MSXgl/engine/src/rom_mapper.h:191: Poke(YAMANOOTO_OFFR, (s >> 2) & 0xC0);
    000004D7 59               [ 4] 1700 	ld	e, c
    000004D8 50               [ 4] 1701 	ld	d, b
    000004D9 CB 3A            [ 8] 1702 	srl	d
    000004DB CB 1B            [ 8] 1703 	rr	e
    000004DD CB 3A            [ 8] 1704 	srl	d
    000004DF CB 1B            [ 8] 1705 	rr	e
    000004E1 7B               [ 4] 1706 	ld	a, e
    000004E2 E6 C0            [ 7] 1707 	and	a, #0xc0
                                   1708 ;E:/Dropbox/FAUSTO/SVILUPPI/MSX/CODE/C/MSXgl/engine/src/system.h:101: inline void Poke(u16 addr, u8 val) { *(u8*)addr = val; }
    000004E4 32 FE 7F         [13] 1709 	ld	(#0x7ffe),a
                                   1710 ;E:/Dropbox/FAUSTO/SVILUPPI/MSX/CODE/C/MSXgl/engine/src/rom_mapper.h:195: else if (b == 3)	Poke(ADDR_BANK_3, s & 0xFF);
                                   1711 ;E:/Dropbox/FAUSTO/SVILUPPI/MSX/CODE/C/MSXgl/engine/src/system.h:101: inline void Poke(u16 addr, u8 val) { *(u8*)addr = val; }
    000004E7 21 00 B0         [10] 1712 	ld	hl, #0xb000
    000004EA 71               [ 7] 1713 	ld	(hl), c
                                   1714 ;./soccerlg.c:154: SET_BANK_SEGMENT(3, _old);
                                   1715 ;./soccerlg.c:155: }
    000004EB 33               [ 6] 1716 	inc	sp
    000004EC DD E1            [14] 1717 	pop	ix
    000004EE E1               [10] 1718 	pop	hl
    000004EF F1               [10] 1719 	pop	af
    000004F0 E9               [ 4] 1720 	jp	(hl)
                                   1721 ;./soccerlg.c:158: void CallFnc_VOID_16_P2(u8 segment, void (*func)(u16,u16), u16 p1, u16 p2) {
                                   1722 ;	---------------------------------
                                   1723 ; Function CallFnc_VOID_16_P2
                                   1724 ; ---------------------------------
    000004F1                       1725 _CallFnc_VOID_16_P2::
    000004F1 DD E5            [15] 1726 	push	ix
    000004F3 DD 21 00 00      [14] 1727 	ld	ix,#0
    000004F7 DD 39            [15] 1728 	add	ix,sp
    000004F9 F5               [11] 1729 	push	af
    000004FA DD 77 FF         [19] 1730 	ld	-1 (ix), a
    000004FD 4B               [ 4] 1731 	ld	c, e
    000004FE 42               [ 4] 1732 	ld	b, d
                                   1733 ;./soccerlg.c:159: u8 _old = GET_BANK_SEGMENT(3);
    000004FF 2Ar06r00         [16] 1734 	ld	hl, (#(_g_Bank0Segment + 6) + 0)
    00000502 DD 75 FE         [19] 1735 	ld	-2 (ix), l
                                   1736 ;./soccerlg.c:160: SET_BANK_SEGMENT(3, segment);
    00000505 DD 5E FF         [19] 1737 	ld	e, -1 (ix)
    00000508 16 00            [ 7] 1738 	ld	d, #0x00
                                   1739 ;E:/Dropbox/FAUSTO/SVILUPPI/MSX/CODE/C/MSXgl/engine/src/rom_mapper.h:190: g_Bank0Segment[b] = s;
    0000050A ED 53r06r00      [20] 1740 	ld	((_g_Bank0Segment + 6)), de
                                   1741 ;E:/Dropbox/FAUSTO/SVILUPPI/MSX/CODE/C/MSXgl/engine/src/rom_mapper.h:191: Poke(YAMANOOTO_OFFR, (s >> 2) & 0xC0);
    0000050E 6B               [ 4] 1742 	ld	l, e
    0000050F 62               [ 4] 1743 	ld	h, d
    00000510 CB 3C            [ 8] 1744 	srl	h
    00000512 CB 1D            [ 8] 1745 	rr	l
    00000514 CB 3C            [ 8] 1746 	srl	h
    00000516 CB 1D            [ 8] 1747 	rr	l
    00000518 7D               [ 4] 1748 	ld	a, l
    00000519 E6 C0            [ 7] 1749 	and	a, #0xc0
                                   1750 ;E:/Dropbox/FAUSTO/SVILUPPI/MSX/CODE/C/MSXgl/engine/src/system.h:101: inline void Poke(u16 addr, u8 val) { *(u8*)addr = val; }
    0000051B 32 FE 7F         [13] 1751 	ld	(#0x7ffe),a
                                   1752 ;E:/Dropbox/FAUSTO/SVILUPPI/MSX/CODE/C/MSXgl/engine/src/rom_mapper.h:195: else if (b == 3)	Poke(ADDR_BANK_3, s & 0xFF);
                                   1753 ;E:/Dropbox/FAUSTO/SVILUPPI/MSX/CODE/C/MSXgl/engine/src/system.h:101: inline void Poke(u16 addr, u8 val) { *(u8*)addr = val; }
    0000051E 21 00 B0         [10] 1754 	ld	hl, #0xb000
    00000521 73               [ 7] 1755 	ld	(hl), e
                                   1756 ;./soccerlg.c:161: func(p1,p2);
    00000522 DD 5E 06         [19] 1757 	ld	e, 6 (ix)
    00000525 DD 56 07         [19] 1758 	ld	d, 7 (ix)
    00000528 DD 6E 04         [19] 1759 	ld	l, 4 (ix)
                                   1760 ;	spillPairReg hl
                                   1761 ;	spillPairReg hl
    0000052B DD 66 05         [19] 1762 	ld	h, 5 (ix)
                                   1763 ;	spillPairReg hl
                                   1764 ;	spillPairReg hl
    0000052E C5               [11] 1765 	push	bc
    0000052F FD E1            [14] 1766 	pop	iy
    00000531 CDr00r00         [17] 1767 	call	___sdcc_call_iy
                                   1768 ;./soccerlg.c:162: SET_BANK_SEGMENT(3, _old);
    00000534 DD 4E FE         [19] 1769 	ld	c, -2 (ix)
    00000537 06 00            [ 7] 1770 	ld	b, #0x00
                                   1771 ;E:/Dropbox/FAUSTO/SVILUPPI/MSX/CODE/C/MSXgl/engine/src/rom_mapper.h:190: g_Bank0Segment[b] = s;
    00000539 ED 43r06r00      [20] 1772 	ld	((_g_Bank0Segment + 6)), bc
                                   1773 ;E:/Dropbox/FAUSTO/SVILUPPI/MSX/CODE/C/MSXgl/engine/src/rom_mapper.h:191: Poke(YAMANOOTO_OFFR, (s >> 2) & 0xC0);
    0000053D 59               [ 4] 1774 	ld	e, c
    0000053E 50               [ 4] 1775 	ld	d, b
    0000053F CB 3A            [ 8] 1776 	srl	d
    00000541 CB 1B            [ 8] 1777 	rr	e
    00000543 CB 3A            [ 8] 1778 	srl	d
    00000545 CB 1B            [ 8] 1779 	rr	e
    00000547 7B               [ 4] 1780 	ld	a, e
    00000548 E6 C0            [ 7] 1781 	and	a, #0xc0
                                   1782 ;E:/Dropbox/FAUSTO/SVILUPPI/MSX/CODE/C/MSXgl/engine/src/system.h:101: inline void Poke(u16 addr, u8 val) { *(u8*)addr = val; }
    0000054A 32 FE 7F         [13] 1783 	ld	(#0x7ffe),a
                                   1784 ;E:/Dropbox/FAUSTO/SVILUPPI/MSX/CODE/C/MSXgl/engine/src/rom_mapper.h:195: else if (b == 3)	Poke(ADDR_BANK_3, s & 0xFF);
                                   1785 ;E:/Dropbox/FAUSTO/SVILUPPI/MSX/CODE/C/MSXgl/engine/src/system.h:101: inline void Poke(u16 addr, u8 val) { *(u8*)addr = val; }
    0000054D 21 00 B0         [10] 1786 	ld	hl, #0xb000
    00000550 71               [ 7] 1787 	ld	(hl), c
                                   1788 ;./soccerlg.c:162: SET_BANK_SEGMENT(3, _old);
                                   1789 ;./soccerlg.c:163: }
    00000551 DD F9            [10] 1790 	ld	sp, ix
    00000553 DD E1            [14] 1791 	pop	ix
    00000555 E1               [10] 1792 	pop	hl
    00000556 F1               [10] 1793 	pop	af
    00000557 F1               [10] 1794 	pop	af
    00000558 E9               [ 4] 1795 	jp	(hl)
                                   1796 ;./soccerlg.c:165: u8 CallFnc_U8(u8 segment, u8 (*func)()) {
                                   1797 ;	---------------------------------
                                   1798 ; Function CallFnc_U8
                                   1799 ; ---------------------------------
    00000559                       1800 _CallFnc_U8::
    00000559 DD E5            [15] 1801 	push	ix
    0000055B DD 21 00 00      [14] 1802 	ld	ix,#0
    0000055F DD 39            [15] 1803 	add	ix,sp
    00000561 3B               [ 6] 1804 	dec	sp
    00000562 4F               [ 4] 1805 	ld	c, a
                                   1806 ;./soccerlg.c:167: u8 _old = GET_BANK_SEGMENT(3);
    00000563 2Ar06r00         [16] 1807 	ld	hl, (#(_g_Bank0Segment + 6) + 0)
    00000566 DD 75 FF         [19] 1808 	ld	-1 (ix), l
                                   1809 ;./soccerlg.c:168: SET_BANK_SEGMENT(3, segment);
    00000569 06 00            [ 7] 1810 	ld	b, #0x00
                                   1811 ;E:/Dropbox/FAUSTO/SVILUPPI/MSX/CODE/C/MSXgl/engine/src/rom_mapper.h:190: g_Bank0Segment[b] = s;
    0000056B ED 43r06r00      [20] 1812 	ld	((_g_Bank0Segment + 6)), bc
                                   1813 ;E:/Dropbox/FAUSTO/SVILUPPI/MSX/CODE/C/MSXgl/engine/src/rom_mapper.h:191: Poke(YAMANOOTO_OFFR, (s >> 2) & 0xC0);
    0000056F 69               [ 4] 1814 	ld	l, c
    00000570 60               [ 4] 1815 	ld	h, b
    00000571 CB 3C            [ 8] 1816 	srl	h
    00000573 CB 1D            [ 8] 1817 	rr	l
    00000575 CB 3C            [ 8] 1818 	srl	h
    00000577 CB 1D            [ 8] 1819 	rr	l
    00000579 7D               [ 4] 1820 	ld	a, l
    0000057A E6 C0            [ 7] 1821 	and	a, #0xc0
                                   1822 ;E:/Dropbox/FAUSTO/SVILUPPI/MSX/CODE/C/MSXgl/engine/src/system.h:101: inline void Poke(u16 addr, u8 val) { *(u8*)addr = val; }
    0000057C 32 FE 7F         [13] 1823 	ld	(#0x7ffe),a
                                   1824 ;E:/Dropbox/FAUSTO/SVILUPPI/MSX/CODE/C/MSXgl/engine/src/rom_mapper.h:195: else if (b == 3)	Poke(ADDR_BANK_3, s & 0xFF);
                                   1825 ;E:/Dropbox/FAUSTO/SVILUPPI/MSX/CODE/C/MSXgl/engine/src/system.h:101: inline void Poke(u16 addr, u8 val) { *(u8*)addr = val; }
    0000057F 21 00 B0         [10] 1826 	ld	hl, #0xb000
    00000582 71               [ 7] 1827 	ld	(hl), c
                                   1828 ;./soccerlg.c:169: _res = func();
    00000583 EB               [ 4] 1829 	ex	de, hl
    00000584 CDr00r00         [17] 1830 	call	___sdcc_call_hl
    00000587 4F               [ 4] 1831 	ld	c, a
                                   1832 ;./soccerlg.c:170: SET_BANK_SEGMENT(3, _old);
    00000588 DD 5E FF         [19] 1833 	ld	e, -1 (ix)
    0000058B 16 00            [ 7] 1834 	ld	d, #0x00
                                   1835 ;E:/Dropbox/FAUSTO/SVILUPPI/MSX/CODE/C/MSXgl/engine/src/rom_mapper.h:190: g_Bank0Segment[b] = s;
    0000058D ED 53r06r00      [20] 1836 	ld	((_g_Bank0Segment + 6)), de
                                   1837 ;E:/Dropbox/FAUSTO/SVILUPPI/MSX/CODE/C/MSXgl/engine/src/rom_mapper.h:191: Poke(YAMANOOTO_OFFR, (s >> 2) & 0xC0);
    00000591 43               [ 4] 1838 	ld	b, e
    00000592 6A               [ 4] 1839 	ld	l, d
                                   1840 ;	spillPairReg hl
                                   1841 ;	spillPairReg hl
    00000593 CB 3D            [ 8] 1842 	srl	l
    00000595 CB 18            [ 8] 1843 	rr	b
    00000597 CB 3D            [ 8] 1844 	srl	l
    00000599 CB 18            [ 8] 1845 	rr	b
    0000059B 78               [ 4] 1846 	ld	a, b
    0000059C E6 C0            [ 7] 1847 	and	a, #0xc0
                                   1848 ;E:/Dropbox/FAUSTO/SVILUPPI/MSX/CODE/C/MSXgl/engine/src/system.h:101: inline void Poke(u16 addr, u8 val) { *(u8*)addr = val; }
    0000059E 32 FE 7F         [13] 1849 	ld	(#0x7ffe),a
                                   1850 ;E:/Dropbox/FAUSTO/SVILUPPI/MSX/CODE/C/MSXgl/engine/src/rom_mapper.h:195: else if (b == 3)	Poke(ADDR_BANK_3, s & 0xFF);
                                   1851 ;E:/Dropbox/FAUSTO/SVILUPPI/MSX/CODE/C/MSXgl/engine/src/system.h:101: inline void Poke(u16 addr, u8 val) { *(u8*)addr = val; }
    000005A1 21 00 B0         [10] 1852 	ld	hl, #0xb000
    000005A4 73               [ 7] 1853 	ld	(hl), e
                                   1854 ;./soccerlg.c:171: return _res;
    000005A5 79               [ 4] 1855 	ld	a, c
                                   1856 ;./soccerlg.c:172: }
    000005A6 33               [ 6] 1857 	inc	sp
    000005A7 DD E1            [14] 1858 	pop	ix
    000005A9 C9               [10] 1859 	ret
                                   1860 ;./soccerlg.c:174: u8 CallFnc_U8_P1(u8 segment, u8 (*func)(u8), u8 p1) {
                                   1861 ;	---------------------------------
                                   1862 ; Function CallFnc_U8_P1
                                   1863 ; ---------------------------------
    000005AA                       1864 _CallFnc_U8_P1::
    000005AA DD E5            [15] 1865 	push	ix
    000005AC DD 21 00 00      [14] 1866 	ld	ix,#0
    000005B0 DD 39            [15] 1867 	add	ix,sp
    000005B2 3B               [ 6] 1868 	dec	sp
    000005B3 4F               [ 4] 1869 	ld	c, a
                                   1870 ;./soccerlg.c:176: u8 _old = GET_BANK_SEGMENT(3);
    000005B4 2Ar06r00         [16] 1871 	ld	hl, (#(_g_Bank0Segment + 6) + 0)
    000005B7 DD 75 FF         [19] 1872 	ld	-1 (ix), l
                                   1873 ;./soccerlg.c:177: SET_BANK_SEGMENT(3, segment);
    000005BA 06 00            [ 7] 1874 	ld	b, #0x00
                                   1875 ;E:/Dropbox/FAUSTO/SVILUPPI/MSX/CODE/C/MSXgl/engine/src/rom_mapper.h:190: g_Bank0Segment[b] = s;
    000005BC ED 43r06r00      [20] 1876 	ld	((_g_Bank0Segment + 6)), bc
                                   1877 ;E:/Dropbox/FAUSTO/SVILUPPI/MSX/CODE/C/MSXgl/engine/src/rom_mapper.h:191: Poke(YAMANOOTO_OFFR, (s >> 2) & 0xC0);
    000005C0 69               [ 4] 1878 	ld	l, c
    000005C1 60               [ 4] 1879 	ld	h, b
    000005C2 CB 3C            [ 8] 1880 	srl	h
    000005C4 CB 1D            [ 8] 1881 	rr	l
    000005C6 CB 3C            [ 8] 1882 	srl	h
    000005C8 CB 1D            [ 8] 1883 	rr	l
    000005CA 7D               [ 4] 1884 	ld	a, l
    000005CB E6 C0            [ 7] 1885 	and	a, #0xc0
                                   1886 ;E:/Dropbox/FAUSTO/SVILUPPI/MSX/CODE/C/MSXgl/engine/src/system.h:101: inline void Poke(u16 addr, u8 val) { *(u8*)addr = val; }
    000005CD 32 FE 7F         [13] 1887 	ld	(#0x7ffe),a
                                   1888 ;E:/Dropbox/FAUSTO/SVILUPPI/MSX/CODE/C/MSXgl/engine/src/rom_mapper.h:195: else if (b == 3)	Poke(ADDR_BANK_3, s & 0xFF);
                                   1889 ;E:/Dropbox/FAUSTO/SVILUPPI/MSX/CODE/C/MSXgl/engine/src/system.h:101: inline void Poke(u16 addr, u8 val) { *(u8*)addr = val; }
    000005D0 21 00 B0         [10] 1890 	ld	hl, #0xb000
    000005D3 71               [ 7] 1891 	ld	(hl), c
                                   1892 ;./soccerlg.c:178: _res = func(p1);
    000005D4 DD 7E 04         [19] 1893 	ld	a, 4 (ix)
    000005D7 EB               [ 4] 1894 	ex	de, hl
    000005D8 CDr00r00         [17] 1895 	call	___sdcc_call_hl
    000005DB 4F               [ 4] 1896 	ld	c, a
                                   1897 ;./soccerlg.c:179: SET_BANK_SEGMENT(3, _old);
    000005DC DD 5E FF         [19] 1898 	ld	e, -1 (ix)
    000005DF 16 00            [ 7] 1899 	ld	d, #0x00
                                   1900 ;E:/Dropbox/FAUSTO/SVILUPPI/MSX/CODE/C/MSXgl/engine/src/rom_mapper.h:190: g_Bank0Segment[b] = s;
    000005E1 ED 53r06r00      [20] 1901 	ld	((_g_Bank0Segment + 6)), de
                                   1902 ;E:/Dropbox/FAUSTO/SVILUPPI/MSX/CODE/C/MSXgl/engine/src/rom_mapper.h:191: Poke(YAMANOOTO_OFFR, (s >> 2) & 0xC0);
    000005E5 43               [ 4] 1903 	ld	b, e
    000005E6 6A               [ 4] 1904 	ld	l, d
                                   1905 ;	spillPairReg hl
                                   1906 ;	spillPairReg hl
    000005E7 CB 3D            [ 8] 1907 	srl	l
    000005E9 CB 18            [ 8] 1908 	rr	b
    000005EB CB 3D            [ 8] 1909 	srl	l
    000005ED CB 18            [ 8] 1910 	rr	b
    000005EF 78               [ 4] 1911 	ld	a, b
    000005F0 E6 C0            [ 7] 1912 	and	a, #0xc0
                                   1913 ;E:/Dropbox/FAUSTO/SVILUPPI/MSX/CODE/C/MSXgl/engine/src/system.h:101: inline void Poke(u16 addr, u8 val) { *(u8*)addr = val; }
    000005F2 32 FE 7F         [13] 1914 	ld	(#0x7ffe),a
                                   1915 ;E:/Dropbox/FAUSTO/SVILUPPI/MSX/CODE/C/MSXgl/engine/src/rom_mapper.h:195: else if (b == 3)	Poke(ADDR_BANK_3, s & 0xFF);
                                   1916 ;E:/Dropbox/FAUSTO/SVILUPPI/MSX/CODE/C/MSXgl/engine/src/system.h:101: inline void Poke(u16 addr, u8 val) { *(u8*)addr = val; }
    000005F5 21 00 B0         [10] 1917 	ld	hl, #0xb000
    000005F8 73               [ 7] 1918 	ld	(hl), e
                                   1919 ;./soccerlg.c:180: return _res;
    000005F9 79               [ 4] 1920 	ld	a, c
                                   1921 ;./soccerlg.c:181: }
    000005FA 33               [ 6] 1922 	inc	sp
    000005FB DD E1            [14] 1923 	pop	ix
    000005FD E1               [10] 1924 	pop	hl
    000005FE 33               [ 6] 1925 	inc	sp
    000005FF E9               [ 4] 1926 	jp	(hl)
                                   1927 ;./soccerlg.c:183: u16 CallFnc_U16_P1(u8 segment, u16 (*func)(u8), u8 p1) {
                                   1928 ;	---------------------------------
                                   1929 ; Function CallFnc_U16_P1
                                   1930 ; ---------------------------------
    00000600                       1931 _CallFnc_U16_P1::
    00000600 DD E5            [15] 1932 	push	ix
    00000602 DD 21 00 00      [14] 1933 	ld	ix,#0
    00000606 DD 39            [15] 1934 	add	ix,sp
    00000608 3B               [ 6] 1935 	dec	sp
    00000609 4F               [ 4] 1936 	ld	c, a
                                   1937 ;./soccerlg.c:185: u8 _old = GET_BANK_SEGMENT(3);
    0000060A 2Ar06r00         [16] 1938 	ld	hl, (#(_g_Bank0Segment + 6) + 0)
    0000060D DD 75 FF         [19] 1939 	ld	-1 (ix), l
                                   1940 ;./soccerlg.c:186: SET_BANK_SEGMENT(3, segment);
    00000610 06 00            [ 7] 1941 	ld	b, #0x00
                                   1942 ;E:/Dropbox/FAUSTO/SVILUPPI/MSX/CODE/C/MSXgl/engine/src/rom_mapper.h:190: g_Bank0Segment[b] = s;
    00000612 ED 43r06r00      [20] 1943 	ld	((_g_Bank0Segment + 6)), bc
                                   1944 ;E:/Dropbox/FAUSTO/SVILUPPI/MSX/CODE/C/MSXgl/engine/src/rom_mapper.h:191: Poke(YAMANOOTO_OFFR, (s >> 2) & 0xC0);
    00000616 69               [ 4] 1945 	ld	l, c
    00000617 60               [ 4] 1946 	ld	h, b
    00000618 CB 3C            [ 8] 1947 	srl	h
    0000061A CB 1D            [ 8] 1948 	rr	l
    0000061C CB 3C            [ 8] 1949 	srl	h
    0000061E CB 1D            [ 8] 1950 	rr	l
    00000620 7D               [ 4] 1951 	ld	a, l
    00000621 E6 C0            [ 7] 1952 	and	a, #0xc0
                                   1953 ;E:/Dropbox/FAUSTO/SVILUPPI/MSX/CODE/C/MSXgl/engine/src/system.h:101: inline void Poke(u16 addr, u8 val) { *(u8*)addr = val; }
    00000623 32 FE 7F         [13] 1954 	ld	(#0x7ffe),a
                                   1955 ;E:/Dropbox/FAUSTO/SVILUPPI/MSX/CODE/C/MSXgl/engine/src/rom_mapper.h:195: else if (b == 3)	Poke(ADDR_BANK_3, s & 0xFF);
                                   1956 ;E:/Dropbox/FAUSTO/SVILUPPI/MSX/CODE/C/MSXgl/engine/src/system.h:101: inline void Poke(u16 addr, u8 val) { *(u8*)addr = val; }
    00000626 21 00 B0         [10] 1957 	ld	hl, #0xb000
    00000629 71               [ 7] 1958 	ld	(hl), c
                                   1959 ;./soccerlg.c:187: _res = func(p1);
    0000062A DD 7E 04         [19] 1960 	ld	a, 4 (ix)
    0000062D EB               [ 4] 1961 	ex	de, hl
    0000062E CDr00r00         [17] 1962 	call	___sdcc_call_hl
                                   1963 ;./soccerlg.c:188: SET_BANK_SEGMENT(3, _old);
    00000631 DD 4E FF         [19] 1964 	ld	c, -1 (ix)
    00000634 06 00            [ 7] 1965 	ld	b, #0x00
                                   1966 ;E:/Dropbox/FAUSTO/SVILUPPI/MSX/CODE/C/MSXgl/engine/src/rom_mapper.h:190: g_Bank0Segment[b] = s;
    00000636 ED 43r06r00      [20] 1967 	ld	((_g_Bank0Segment + 6)), bc
                                   1968 ;E:/Dropbox/FAUSTO/SVILUPPI/MSX/CODE/C/MSXgl/engine/src/rom_mapper.h:191: Poke(YAMANOOTO_OFFR, (s >> 2) & 0xC0);
    0000063A 69               [ 4] 1969 	ld	l, c
    0000063B 60               [ 4] 1970 	ld	h, b
    0000063C CB 3C            [ 8] 1971 	srl	h
    0000063E CB 1D            [ 8] 1972 	rr	l
    00000640 CB 3C            [ 8] 1973 	srl	h
    00000642 CB 1D            [ 8] 1974 	rr	l
    00000644 7D               [ 4] 1975 	ld	a, l
    00000645 E6 C0            [ 7] 1976 	and	a, #0xc0
                                   1977 ;E:/Dropbox/FAUSTO/SVILUPPI/MSX/CODE/C/MSXgl/engine/src/system.h:101: inline void Poke(u16 addr, u8 val) { *(u8*)addr = val; }
    00000647 32 FE 7F         [13] 1978 	ld	(#0x7ffe),a
                                   1979 ;E:/Dropbox/FAUSTO/SVILUPPI/MSX/CODE/C/MSXgl/engine/src/rom_mapper.h:195: else if (b == 3)	Poke(ADDR_BANK_3, s & 0xFF);
                                   1980 ;E:/Dropbox/FAUSTO/SVILUPPI/MSX/CODE/C/MSXgl/engine/src/system.h:101: inline void Poke(u16 addr, u8 val) { *(u8*)addr = val; }
    0000064A 21 00 B0         [10] 1981 	ld	hl, #0xb000
    0000064D 71               [ 7] 1982 	ld	(hl), c
                                   1983 ;./soccerlg.c:189: return _res;
                                   1984 ;./soccerlg.c:190: }
    0000064E 33               [ 6] 1985 	inc	sp
    0000064F DD E1            [14] 1986 	pop	ix
    00000651 E1               [10] 1987 	pop	hl
    00000652 33               [ 6] 1988 	inc	sp
    00000653 E9               [ 4] 1989 	jp	(hl)
                                   1990 ;./soccerlg.c:192: u16 CallFnc_U16_P3(u8 segment, u16 (*func)(u8, i8, i8), u8 p1, i8 p2, i8 p3) {
                                   1991 ;	---------------------------------
                                   1992 ; Function CallFnc_U16_P3
                                   1993 ; ---------------------------------
    00000654                       1994 _CallFnc_U16_P3::
    00000654 DD E5            [15] 1995 	push	ix
    00000656 DD 21 00 00      [14] 1996 	ld	ix,#0
    0000065A DD 39            [15] 1997 	add	ix,sp
    0000065C 3B               [ 6] 1998 	dec	sp
    0000065D 4F               [ 4] 1999 	ld	c, a
                                   2000 ;./soccerlg.c:194: u8 _old = GET_BANK_SEGMENT(3);
    0000065E 2Ar06r00         [16] 2001 	ld	hl, (#(_g_Bank0Segment + 6) + 0)
    00000661 DD 75 FF         [19] 2002 	ld	-1 (ix), l
                                   2003 ;./soccerlg.c:195: SET_BANK_SEGMENT(3, segment);
    00000664 06 00            [ 7] 2004 	ld	b, #0x00
                                   2005 ;E:/Dropbox/FAUSTO/SVILUPPI/MSX/CODE/C/MSXgl/engine/src/rom_mapper.h:190: g_Bank0Segment[b] = s;
    00000666 ED 43r06r00      [20] 2006 	ld	((_g_Bank0Segment + 6)), bc
                                   2007 ;E:/Dropbox/FAUSTO/SVILUPPI/MSX/CODE/C/MSXgl/engine/src/rom_mapper.h:191: Poke(YAMANOOTO_OFFR, (s >> 2) & 0xC0);
    0000066A 69               [ 4] 2008 	ld	l, c
    0000066B 60               [ 4] 2009 	ld	h, b
    0000066C CB 3C            [ 8] 2010 	srl	h
    0000066E CB 1D            [ 8] 2011 	rr	l
    00000670 CB 3C            [ 8] 2012 	srl	h
    00000672 CB 1D            [ 8] 2013 	rr	l
    00000674 7D               [ 4] 2014 	ld	a, l
    00000675 E6 C0            [ 7] 2015 	and	a, #0xc0
                                   2016 ;E:/Dropbox/FAUSTO/SVILUPPI/MSX/CODE/C/MSXgl/engine/src/system.h:101: inline void Poke(u16 addr, u8 val) { *(u8*)addr = val; }
    00000677 32 FE 7F         [13] 2017 	ld	(#0x7ffe),a
                                   2018 ;E:/Dropbox/FAUSTO/SVILUPPI/MSX/CODE/C/MSXgl/engine/src/rom_mapper.h:195: else if (b == 3)	Poke(ADDR_BANK_3, s & 0xFF);
                                   2019 ;E:/Dropbox/FAUSTO/SVILUPPI/MSX/CODE/C/MSXgl/engine/src/system.h:101: inline void Poke(u16 addr, u8 val) { *(u8*)addr = val; }
    0000067A 21 00 B0         [10] 2020 	ld	hl, #0xb000
    0000067D 71               [ 7] 2021 	ld	(hl), c
                                   2022 ;./soccerlg.c:196: _res = func(p1, p2, p3);
    0000067E DD 7E 06         [19] 2023 	ld	a, 6 (ix)
    00000681 F5               [11] 2024 	push	af
    00000682 33               [ 6] 2025 	inc	sp
    00000683 DD 6E 05         [19] 2026 	ld	l, 5 (ix)
                                   2027 ;	spillPairReg hl
                                   2028 ;	spillPairReg hl
    00000686 DD 7E 04         [19] 2029 	ld	a, 4 (ix)
    00000689 D5               [11] 2030 	push	de
    0000068A FD E1            [14] 2031 	pop	iy
    0000068C CDr00r00         [17] 2032 	call	___sdcc_call_iy
                                   2033 ;./soccerlg.c:197: SET_BANK_SEGMENT(3, _old);
    0000068F DD 4E FF         [19] 2034 	ld	c, -1 (ix)
    00000692 06 00            [ 7] 2035 	ld	b, #0x00
                                   2036 ;E:/Dropbox/FAUSTO/SVILUPPI/MSX/CODE/C/MSXgl/engine/src/rom_mapper.h:190: g_Bank0Segment[b] = s;
    00000694 ED 43r06r00      [20] 2037 	ld	((_g_Bank0Segment + 6)), bc
                                   2038 ;E:/Dropbox/FAUSTO/SVILUPPI/MSX/CODE/C/MSXgl/engine/src/rom_mapper.h:191: Poke(YAMANOOTO_OFFR, (s >> 2) & 0xC0);
    00000698 69               [ 4] 2039 	ld	l, c
    00000699 60               [ 4] 2040 	ld	h, b
    0000069A CB 3C            [ 8] 2041 	srl	h
    0000069C CB 1D            [ 8] 2042 	rr	l
    0000069E CB 3C            [ 8] 2043 	srl	h
    000006A0 CB 1D            [ 8] 2044 	rr	l
    000006A2 7D               [ 4] 2045 	ld	a, l
    000006A3 E6 C0            [ 7] 2046 	and	a, #0xc0
                                   2047 ;E:/Dropbox/FAUSTO/SVILUPPI/MSX/CODE/C/MSXgl/engine/src/system.h:101: inline void Poke(u16 addr, u8 val) { *(u8*)addr = val; }
    000006A5 32 FE 7F         [13] 2048 	ld	(#0x7ffe),a
                                   2049 ;E:/Dropbox/FAUSTO/SVILUPPI/MSX/CODE/C/MSXgl/engine/src/rom_mapper.h:195: else if (b == 3)	Poke(ADDR_BANK_3, s & 0xFF);
                                   2050 ;E:/Dropbox/FAUSTO/SVILUPPI/MSX/CODE/C/MSXgl/engine/src/system.h:101: inline void Poke(u16 addr, u8 val) { *(u8*)addr = val; }
    000006A8 21 00 B0         [10] 2051 	ld	hl, #0xb000
    000006AB 71               [ 7] 2052 	ld	(hl), c
                                   2053 ;./soccerlg.c:198: return _res;
                                   2054 ;./soccerlg.c:199: }
    000006AC 33               [ 6] 2055 	inc	sp
    000006AD DD E1            [14] 2056 	pop	ix
    000006AF E1               [10] 2057 	pop	hl
    000006B0 F1               [10] 2058 	pop	af
    000006B1 33               [ 6] 2059 	inc	sp
    000006B2 E9               [ 4] 2060 	jp	(hl)
                                   2061 ;./soccerlg.c:201: u16 CallFnc_U16_P4(u8 segment, u16 (*func)(u8, i8, i8, u8), u8 p1, i8 p2, i8 p3, u8 p4) {
                                   2062 ;	---------------------------------
                                   2063 ; Function CallFnc_U16_P4
                                   2064 ; ---------------------------------
    000006B3                       2065 _CallFnc_U16_P4::
    000006B3 DD E5            [15] 2066 	push	ix
    000006B5 DD 21 00 00      [14] 2067 	ld	ix,#0
    000006B9 DD 39            [15] 2068 	add	ix,sp
    000006BB 3B               [ 6] 2069 	dec	sp
    000006BC 4F               [ 4] 2070 	ld	c, a
                                   2071 ;./soccerlg.c:203: u8 _old = GET_BANK_SEGMENT(3);
    000006BD 2Ar06r00         [16] 2072 	ld	hl, (#(_g_Bank0Segment + 6) + 0)
    000006C0 DD 75 FF         [19] 2073 	ld	-1 (ix), l
                                   2074 ;./soccerlg.c:204: SET_BANK_SEGMENT(3, segment);
    000006C3 06 00            [ 7] 2075 	ld	b, #0x00
                                   2076 ;E:/Dropbox/FAUSTO/SVILUPPI/MSX/CODE/C/MSXgl/engine/src/rom_mapper.h:190: g_Bank0Segment[b] = s;
    000006C5 ED 43r06r00      [20] 2077 	ld	((_g_Bank0Segment + 6)), bc
                                   2078 ;E:/Dropbox/FAUSTO/SVILUPPI/MSX/CODE/C/MSXgl/engine/src/rom_mapper.h:191: Poke(YAMANOOTO_OFFR, (s >> 2) & 0xC0);
    000006C9 69               [ 4] 2079 	ld	l, c
    000006CA 60               [ 4] 2080 	ld	h, b
    000006CB CB 3C            [ 8] 2081 	srl	h
    000006CD CB 1D            [ 8] 2082 	rr	l
    000006CF CB 3C            [ 8] 2083 	srl	h
    000006D1 CB 1D            [ 8] 2084 	rr	l
    000006D3 7D               [ 4] 2085 	ld	a, l
    000006D4 E6 C0            [ 7] 2086 	and	a, #0xc0
                                   2087 ;E:/Dropbox/FAUSTO/SVILUPPI/MSX/CODE/C/MSXgl/engine/src/system.h:101: inline void Poke(u16 addr, u8 val) { *(u8*)addr = val; }
    000006D6 32 FE 7F         [13] 2088 	ld	(#0x7ffe),a
                                   2089 ;E:/Dropbox/FAUSTO/SVILUPPI/MSX/CODE/C/MSXgl/engine/src/rom_mapper.h:195: else if (b == 3)	Poke(ADDR_BANK_3, s & 0xFF);
                                   2090 ;E:/Dropbox/FAUSTO/SVILUPPI/MSX/CODE/C/MSXgl/engine/src/system.h:101: inline void Poke(u16 addr, u8 val) { *(u8*)addr = val; }
    000006D9 21 00 B0         [10] 2091 	ld	hl, #0xb000
    000006DC 71               [ 7] 2092 	ld	(hl), c
                                   2093 ;./soccerlg.c:205: _res = func(p1, p2, p3, p4);
    000006DD DD 66 07         [19] 2094 	ld	h, 7 (ix)
    000006E0 DD 6E 06         [19] 2095 	ld	l, 6 (ix)
    000006E3 E5               [11] 2096 	push	hl
    000006E4 DD 6E 05         [19] 2097 	ld	l, 5 (ix)
                                   2098 ;	spillPairReg hl
                                   2099 ;	spillPairReg hl
    000006E7 DD 7E 04         [19] 2100 	ld	a, 4 (ix)
    000006EA D5               [11] 2101 	push	de
    000006EB FD E1            [14] 2102 	pop	iy
    000006ED CDr00r00         [17] 2103 	call	___sdcc_call_iy
                                   2104 ;./soccerlg.c:206: SET_BANK_SEGMENT(3, _old);
    000006F0 DD 4E FF         [19] 2105 	ld	c, -1 (ix)
    000006F3 06 00            [ 7] 2106 	ld	b, #0x00
                                   2107 ;E:/Dropbox/FAUSTO/SVILUPPI/MSX/CODE/C/MSXgl/engine/src/rom_mapper.h:190: g_Bank0Segment[b] = s;
    000006F5 ED 43r06r00      [20] 2108 	ld	((_g_Bank0Segment + 6)), bc
                                   2109 ;E:/Dropbox/FAUSTO/SVILUPPI/MSX/CODE/C/MSXgl/engine/src/rom_mapper.h:191: Poke(YAMANOOTO_OFFR, (s >> 2) & 0xC0);
    000006F9 69               [ 4] 2110 	ld	l, c
    000006FA 60               [ 4] 2111 	ld	h, b
    000006FB CB 3C            [ 8] 2112 	srl	h
    000006FD CB 1D            [ 8] 2113 	rr	l
    000006FF CB 3C            [ 8] 2114 	srl	h
    00000701 CB 1D            [ 8] 2115 	rr	l
    00000703 7D               [ 4] 2116 	ld	a, l
    00000704 E6 C0            [ 7] 2117 	and	a, #0xc0
                                   2118 ;E:/Dropbox/FAUSTO/SVILUPPI/MSX/CODE/C/MSXgl/engine/src/system.h:101: inline void Poke(u16 addr, u8 val) { *(u8*)addr = val; }
    00000706 32 FE 7F         [13] 2119 	ld	(#0x7ffe),a
                                   2120 ;E:/Dropbox/FAUSTO/SVILUPPI/MSX/CODE/C/MSXgl/engine/src/rom_mapper.h:195: else if (b == 3)	Poke(ADDR_BANK_3, s & 0xFF);
                                   2121 ;E:/Dropbox/FAUSTO/SVILUPPI/MSX/CODE/C/MSXgl/engine/src/system.h:101: inline void Poke(u16 addr, u8 val) { *(u8*)addr = val; }
    00000709 21 00 B0         [10] 2122 	ld	hl, #0xb000
    0000070C 71               [ 7] 2123 	ld	(hl), c
                                   2124 ;./soccerlg.c:207: return _res;
                                   2125 ;./soccerlg.c:208: }
    0000070D 33               [ 6] 2126 	inc	sp
    0000070E DD E1            [14] 2127 	pop	ix
    00000710 E1               [10] 2128 	pop	hl
    00000711 F1               [10] 2129 	pop	af
    00000712 F1               [10] 2130 	pop	af
    00000713 E9               [ 4] 2131 	jp	(hl)
                                   2132 ;./soccerlg.c:210: u16 CallFnc_U16_P4B(u8 segment, u16 (*func)(u8, u8, i8, i8), u8 p1, u8 p2, i8 p3, i8 p4) {
                                   2133 ;	---------------------------------
                                   2134 ; Function CallFnc_U16_P4B
                                   2135 ; ---------------------------------
    00000714                       2136 _CallFnc_U16_P4B::
    00000714 DD E5            [15] 2137 	push	ix
    00000716 DD 21 00 00      [14] 2138 	ld	ix,#0
    0000071A DD 39            [15] 2139 	add	ix,sp
    0000071C 3B               [ 6] 2140 	dec	sp
    0000071D 4F               [ 4] 2141 	ld	c, a
                                   2142 ;./soccerlg.c:212: u8 _old = GET_BANK_SEGMENT(3);
    0000071E 2Ar06r00         [16] 2143 	ld	hl, (#(_g_Bank0Segment + 6) + 0)
    00000721 DD 75 FF         [19] 2144 	ld	-1 (ix), l
                                   2145 ;./soccerlg.c:213: SET_BANK_SEGMENT(3, segment);
    00000724 06 00            [ 7] 2146 	ld	b, #0x00
                                   2147 ;E:/Dropbox/FAUSTO/SVILUPPI/MSX/CODE/C/MSXgl/engine/src/rom_mapper.h:190: g_Bank0Segment[b] = s;
    00000726 ED 43r06r00      [20] 2148 	ld	((_g_Bank0Segment + 6)), bc
                                   2149 ;E:/Dropbox/FAUSTO/SVILUPPI/MSX/CODE/C/MSXgl/engine/src/rom_mapper.h:191: Poke(YAMANOOTO_OFFR, (s >> 2) & 0xC0);
    0000072A 69               [ 4] 2150 	ld	l, c
    0000072B 60               [ 4] 2151 	ld	h, b
    0000072C CB 3C            [ 8] 2152 	srl	h
    0000072E CB 1D            [ 8] 2153 	rr	l
    00000730 CB 3C            [ 8] 2154 	srl	h
    00000732 CB 1D            [ 8] 2155 	rr	l
    00000734 7D               [ 4] 2156 	ld	a, l
    00000735 E6 C0            [ 7] 2157 	and	a, #0xc0
                                   2158 ;E:/Dropbox/FAUSTO/SVILUPPI/MSX/CODE/C/MSXgl/engine/src/system.h:101: inline void Poke(u16 addr, u8 val) { *(u8*)addr = val; }
    00000737 32 FE 7F         [13] 2159 	ld	(#0x7ffe),a
                                   2160 ;E:/Dropbox/FAUSTO/SVILUPPI/MSX/CODE/C/MSXgl/engine/src/rom_mapper.h:195: else if (b == 3)	Poke(ADDR_BANK_3, s & 0xFF);
                                   2161 ;E:/Dropbox/FAUSTO/SVILUPPI/MSX/CODE/C/MSXgl/engine/src/system.h:101: inline void Poke(u16 addr, u8 val) { *(u8*)addr = val; }
    0000073A 21 00 B0         [10] 2162 	ld	hl, #0xb000
    0000073D 71               [ 7] 2163 	ld	(hl), c
                                   2164 ;./soccerlg.c:214: _res = func(p1, p2, p3, p4);
    0000073E DD 66 07         [19] 2165 	ld	h, 7 (ix)
    00000741 DD 6E 06         [19] 2166 	ld	l, 6 (ix)
    00000744 E5               [11] 2167 	push	hl
    00000745 DD 6E 05         [19] 2168 	ld	l, 5 (ix)
                                   2169 ;	spillPairReg hl
                                   2170 ;	spillPairReg hl
    00000748 DD 7E 04         [19] 2171 	ld	a, 4 (ix)
    0000074B D5               [11] 2172 	push	de
    0000074C FD E1            [14] 2173 	pop	iy
    0000074E CDr00r00         [17] 2174 	call	___sdcc_call_iy
                                   2175 ;./soccerlg.c:215: SET_BANK_SEGMENT(3, _old);
    00000751 DD 4E FF         [19] 2176 	ld	c, -1 (ix)
    00000754 06 00            [ 7] 2177 	ld	b, #0x00
                                   2178 ;E:/Dropbox/FAUSTO/SVILUPPI/MSX/CODE/C/MSXgl/engine/src/rom_mapper.h:190: g_Bank0Segment[b] = s;
    00000756 ED 43r06r00      [20] 2179 	ld	((_g_Bank0Segment + 6)), bc
                                   2180 ;E:/Dropbox/FAUSTO/SVILUPPI/MSX/CODE/C/MSXgl/engine/src/rom_mapper.h:191: Poke(YAMANOOTO_OFFR, (s >> 2) & 0xC0);
    0000075A 69               [ 4] 2181 	ld	l, c
    0000075B 60               [ 4] 2182 	ld	h, b
    0000075C CB 3C            [ 8] 2183 	srl	h
    0000075E CB 1D            [ 8] 2184 	rr	l
    00000760 CB 3C            [ 8] 2185 	srl	h
    00000762 CB 1D            [ 8] 2186 	rr	l
    00000764 7D               [ 4] 2187 	ld	a, l
    00000765 E6 C0            [ 7] 2188 	and	a, #0xc0
                                   2189 ;E:/Dropbox/FAUSTO/SVILUPPI/MSX/CODE/C/MSXgl/engine/src/system.h:101: inline void Poke(u16 addr, u8 val) { *(u8*)addr = val; }
    00000767 32 FE 7F         [13] 2190 	ld	(#0x7ffe),a
                                   2191 ;E:/Dropbox/FAUSTO/SVILUPPI/MSX/CODE/C/MSXgl/engine/src/rom_mapper.h:195: else if (b == 3)	Poke(ADDR_BANK_3, s & 0xFF);
                                   2192 ;E:/Dropbox/FAUSTO/SVILUPPI/MSX/CODE/C/MSXgl/engine/src/system.h:101: inline void Poke(u16 addr, u8 val) { *(u8*)addr = val; }
    0000076A 21 00 B0         [10] 2193 	ld	hl, #0xb000
    0000076D 71               [ 7] 2194 	ld	(hl), c
                                   2195 ;./soccerlg.c:216: return _res;
                                   2196 ;./soccerlg.c:217: }
    0000076E 33               [ 6] 2197 	inc	sp
    0000076F DD E1            [14] 2198 	pop	ix
    00000771 E1               [10] 2199 	pop	hl
    00000772 F1               [10] 2200 	pop	af
    00000773 F1               [10] 2201 	pop	af
    00000774 E9               [ 4] 2202 	jp	(hl)
                                   2203 ;./soccerlg.c:219: u8 CallFnc_U8_P2(u8 segment, u8 (*func)(u8, u8), u8 p1, u8 p2) {
                                   2204 ;	---------------------------------
                                   2205 ; Function CallFnc_U8_P2
                                   2206 ; ---------------------------------
    00000775                       2207 _CallFnc_U8_P2::
    00000775 DD E5            [15] 2208 	push	ix
    00000777 DD 21 00 00      [14] 2209 	ld	ix,#0
    0000077B DD 39            [15] 2210 	add	ix,sp
    0000077D 3B               [ 6] 2211 	dec	sp
    0000077E 4F               [ 4] 2212 	ld	c, a
                                   2213 ;./soccerlg.c:221: u8 _old = GET_BANK_SEGMENT(3);
    0000077F 2Ar06r00         [16] 2214 	ld	hl, (#(_g_Bank0Segment + 6) + 0)
    00000782 DD 75 FF         [19] 2215 	ld	-1 (ix), l
                                   2216 ;./soccerlg.c:222: SET_BANK_SEGMENT(3, segment);
    00000785 06 00            [ 7] 2217 	ld	b, #0x00
                                   2218 ;E:/Dropbox/FAUSTO/SVILUPPI/MSX/CODE/C/MSXgl/engine/src/rom_mapper.h:190: g_Bank0Segment[b] = s;
    00000787 ED 43r06r00      [20] 2219 	ld	((_g_Bank0Segment + 6)), bc
                                   2220 ;E:/Dropbox/FAUSTO/SVILUPPI/MSX/CODE/C/MSXgl/engine/src/rom_mapper.h:191: Poke(YAMANOOTO_OFFR, (s >> 2) & 0xC0);
    0000078B 69               [ 4] 2221 	ld	l, c
    0000078C 60               [ 4] 2222 	ld	h, b
    0000078D CB 3C            [ 8] 2223 	srl	h
    0000078F CB 1D            [ 8] 2224 	rr	l
    00000791 CB 3C            [ 8] 2225 	srl	h
    00000793 CB 1D            [ 8] 2226 	rr	l
    00000795 7D               [ 4] 2227 	ld	a, l
    00000796 E6 C0            [ 7] 2228 	and	a, #0xc0
                                   2229 ;E:/Dropbox/FAUSTO/SVILUPPI/MSX/CODE/C/MSXgl/engine/src/system.h:101: inline void Poke(u16 addr, u8 val) { *(u8*)addr = val; }
    00000798 32 FE 7F         [13] 2230 	ld	(#0x7ffe),a
                                   2231 ;E:/Dropbox/FAUSTO/SVILUPPI/MSX/CODE/C/MSXgl/engine/src/rom_mapper.h:195: else if (b == 3)	Poke(ADDR_BANK_3, s & 0xFF);
                                   2232 ;E:/Dropbox/FAUSTO/SVILUPPI/MSX/CODE/C/MSXgl/engine/src/system.h:101: inline void Poke(u16 addr, u8 val) { *(u8*)addr = val; }
    0000079B 21 00 B0         [10] 2233 	ld	hl, #0xb000
    0000079E 71               [ 7] 2234 	ld	(hl), c
                                   2235 ;./soccerlg.c:223: _res = func(p1,p2);
    0000079F DD 6E 05         [19] 2236 	ld	l, 5 (ix)
                                   2237 ;	spillPairReg hl
                                   2238 ;	spillPairReg hl
    000007A2 DD 7E 04         [19] 2239 	ld	a, 4 (ix)
    000007A5 D5               [11] 2240 	push	de
    000007A6 FD E1            [14] 2241 	pop	iy
    000007A8 CDr00r00         [17] 2242 	call	___sdcc_call_iy
    000007AB 4F               [ 4] 2243 	ld	c, a
                                   2244 ;./soccerlg.c:224: SET_BANK_SEGMENT(3, _old);
    000007AC DD 5E FF         [19] 2245 	ld	e, -1 (ix)
    000007AF 16 00            [ 7] 2246 	ld	d, #0x00
                                   2247 ;E:/Dropbox/FAUSTO/SVILUPPI/MSX/CODE/C/MSXgl/engine/src/rom_mapper.h:190: g_Bank0Segment[b] = s;
    000007B1 ED 53r06r00      [20] 2248 	ld	((_g_Bank0Segment + 6)), de
                                   2249 ;E:/Dropbox/FAUSTO/SVILUPPI/MSX/CODE/C/MSXgl/engine/src/rom_mapper.h:191: Poke(YAMANOOTO_OFFR, (s >> 2) & 0xC0);
    000007B5 43               [ 4] 2250 	ld	b, e
    000007B6 6A               [ 4] 2251 	ld	l, d
                                   2252 ;	spillPairReg hl
                                   2253 ;	spillPairReg hl
    000007B7 CB 3D            [ 8] 2254 	srl	l
    000007B9 CB 18            [ 8] 2255 	rr	b
    000007BB CB 3D            [ 8] 2256 	srl	l
    000007BD CB 18            [ 8] 2257 	rr	b
    000007BF 78               [ 4] 2258 	ld	a, b
    000007C0 E6 C0            [ 7] 2259 	and	a, #0xc0
                                   2260 ;E:/Dropbox/FAUSTO/SVILUPPI/MSX/CODE/C/MSXgl/engine/src/system.h:101: inline void Poke(u16 addr, u8 val) { *(u8*)addr = val; }
    000007C2 32 FE 7F         [13] 2261 	ld	(#0x7ffe),a
                                   2262 ;E:/Dropbox/FAUSTO/SVILUPPI/MSX/CODE/C/MSXgl/engine/src/rom_mapper.h:195: else if (b == 3)	Poke(ADDR_BANK_3, s & 0xFF);
                                   2263 ;E:/Dropbox/FAUSTO/SVILUPPI/MSX/CODE/C/MSXgl/engine/src/system.h:101: inline void Poke(u16 addr, u8 val) { *(u8*)addr = val; }
    000007C5 21 00 B0         [10] 2264 	ld	hl, #0xb000
    000007C8 73               [ 7] 2265 	ld	(hl), e
                                   2266 ;./soccerlg.c:225: return _res;
    000007C9 79               [ 4] 2267 	ld	a, c
                                   2268 ;./soccerlg.c:226: }
    000007CA 33               [ 6] 2269 	inc	sp
    000007CB DD E1            [14] 2270 	pop	ix
    000007CD E1               [10] 2271 	pop	hl
    000007CE C1               [10] 2272 	pop	bc
    000007CF E9               [ 4] 2273 	jp	(hl)
                                   2274 ;./soccerlg.c:228: bool CallFnc_BOOL(u8 segment, bool (*func)()) {
                                   2275 ;	---------------------------------
                                   2276 ; Function CallFnc_BOOL
                                   2277 ; ---------------------------------
    000007D0                       2278 _CallFnc_BOOL::
    000007D0 DD E5            [15] 2279 	push	ix
    000007D2 DD 21 00 00      [14] 2280 	ld	ix,#0
    000007D6 DD 39            [15] 2281 	add	ix,sp
    000007D8 3B               [ 6] 2282 	dec	sp
    000007D9 4F               [ 4] 2283 	ld	c, a
                                   2284 ;./soccerlg.c:230: u8 _old = GET_BANK_SEGMENT(3);
    000007DA 2Ar06r00         [16] 2285 	ld	hl, (#(_g_Bank0Segment + 6) + 0)
    000007DD DD 75 FF         [19] 2286 	ld	-1 (ix), l
                                   2287 ;./soccerlg.c:231: SET_BANK_SEGMENT(3, segment);
    000007E0 06 00            [ 7] 2288 	ld	b, #0x00
                                   2289 ;E:/Dropbox/FAUSTO/SVILUPPI/MSX/CODE/C/MSXgl/engine/src/rom_mapper.h:190: g_Bank0Segment[b] = s;
    000007E2 ED 43r06r00      [20] 2290 	ld	((_g_Bank0Segment + 6)), bc
                                   2291 ;E:/Dropbox/FAUSTO/SVILUPPI/MSX/CODE/C/MSXgl/engine/src/rom_mapper.h:191: Poke(YAMANOOTO_OFFR, (s >> 2) & 0xC0);
    000007E6 69               [ 4] 2292 	ld	l, c
    000007E7 60               [ 4] 2293 	ld	h, b
    000007E8 CB 3C            [ 8] 2294 	srl	h
    000007EA CB 1D            [ 8] 2295 	rr	l
    000007EC CB 3C            [ 8] 2296 	srl	h
    000007EE CB 1D            [ 8] 2297 	rr	l
    000007F0 7D               [ 4] 2298 	ld	a, l
    000007F1 E6 C0            [ 7] 2299 	and	a, #0xc0
                                   2300 ;E:/Dropbox/FAUSTO/SVILUPPI/MSX/CODE/C/MSXgl/engine/src/system.h:101: inline void Poke(u16 addr, u8 val) { *(u8*)addr = val; }
    000007F3 32 FE 7F         [13] 2301 	ld	(#0x7ffe),a
                                   2302 ;E:/Dropbox/FAUSTO/SVILUPPI/MSX/CODE/C/MSXgl/engine/src/rom_mapper.h:195: else if (b == 3)	Poke(ADDR_BANK_3, s & 0xFF);
                                   2303 ;E:/Dropbox/FAUSTO/SVILUPPI/MSX/CODE/C/MSXgl/engine/src/system.h:101: inline void Poke(u16 addr, u8 val) { *(u8*)addr = val; }
    000007F6 21 00 B0         [10] 2304 	ld	hl, #0xb000
    000007F9 71               [ 7] 2305 	ld	(hl), c
                                   2306 ;./soccerlg.c:232: _res = func();
    000007FA EB               [ 4] 2307 	ex	de, hl
    000007FB CDr00r00         [17] 2308 	call	___sdcc_call_hl
    000007FE 4F               [ 4] 2309 	ld	c, a
                                   2310 ;./soccerlg.c:233: SET_BANK_SEGMENT(3, _old);
    000007FF DD 5E FF         [19] 2311 	ld	e, -1 (ix)
    00000802 16 00            [ 7] 2312 	ld	d, #0x00
                                   2313 ;E:/Dropbox/FAUSTO/SVILUPPI/MSX/CODE/C/MSXgl/engine/src/rom_mapper.h:190: g_Bank0Segment[b] = s;
    00000804 ED 53r06r00      [20] 2314 	ld	((_g_Bank0Segment + 6)), de
                                   2315 ;E:/Dropbox/FAUSTO/SVILUPPI/MSX/CODE/C/MSXgl/engine/src/rom_mapper.h:191: Poke(YAMANOOTO_OFFR, (s >> 2) & 0xC0);
    00000808 43               [ 4] 2316 	ld	b, e
    00000809 6A               [ 4] 2317 	ld	l, d
                                   2318 ;	spillPairReg hl
                                   2319 ;	spillPairReg hl
    0000080A CB 3D            [ 8] 2320 	srl	l
    0000080C CB 18            [ 8] 2321 	rr	b
    0000080E CB 3D            [ 8] 2322 	srl	l
    00000810 CB 18            [ 8] 2323 	rr	b
    00000812 78               [ 4] 2324 	ld	a, b
    00000813 E6 C0            [ 7] 2325 	and	a, #0xc0
                                   2326 ;E:/Dropbox/FAUSTO/SVILUPPI/MSX/CODE/C/MSXgl/engine/src/system.h:101: inline void Poke(u16 addr, u8 val) { *(u8*)addr = val; }
    00000815 32 FE 7F         [13] 2327 	ld	(#0x7ffe),a
                                   2328 ;E:/Dropbox/FAUSTO/SVILUPPI/MSX/CODE/C/MSXgl/engine/src/rom_mapper.h:195: else if (b == 3)	Poke(ADDR_BANK_3, s & 0xFF);
                                   2329 ;E:/Dropbox/FAUSTO/SVILUPPI/MSX/CODE/C/MSXgl/engine/src/system.h:101: inline void Poke(u16 addr, u8 val) { *(u8*)addr = val; }
    00000818 21 00 B0         [10] 2330 	ld	hl, #0xb000
    0000081B 73               [ 7] 2331 	ld	(hl), e
                                   2332 ;./soccerlg.c:234: return _res;
    0000081C 79               [ 4] 2333 	ld	a, c
                                   2334 ;./soccerlg.c:235: }
    0000081D 33               [ 6] 2335 	inc	sp
    0000081E DD E1            [14] 2336 	pop	ix
    00000820 C9               [10] 2337 	ret
                                   2338 ;./soccerlg.c:237: bool CallFnc_BOOL_P1(u8 segment, bool (*func)(u8), u8 p1) {
                                   2339 ;	---------------------------------
                                   2340 ; Function CallFnc_BOOL_P1
                                   2341 ; ---------------------------------
    00000821                       2342 _CallFnc_BOOL_P1::
    00000821 DD E5            [15] 2343 	push	ix
    00000823 DD 21 00 00      [14] 2344 	ld	ix,#0
    00000827 DD 39            [15] 2345 	add	ix,sp
    00000829 3B               [ 6] 2346 	dec	sp
    0000082A 4F               [ 4] 2347 	ld	c, a
                                   2348 ;./soccerlg.c:239: u8 _old = GET_BANK_SEGMENT(3);
    0000082B 2Ar06r00         [16] 2349 	ld	hl, (#(_g_Bank0Segment + 6) + 0)
    0000082E DD 75 FF         [19] 2350 	ld	-1 (ix), l
                                   2351 ;./soccerlg.c:240: SET_BANK_SEGMENT(3, segment);
    00000831 06 00            [ 7] 2352 	ld	b, #0x00
                                   2353 ;E:/Dropbox/FAUSTO/SVILUPPI/MSX/CODE/C/MSXgl/engine/src/rom_mapper.h:190: g_Bank0Segment[b] = s;
    00000833 ED 43r06r00      [20] 2354 	ld	((_g_Bank0Segment + 6)), bc
                                   2355 ;E:/Dropbox/FAUSTO/SVILUPPI/MSX/CODE/C/MSXgl/engine/src/rom_mapper.h:191: Poke(YAMANOOTO_OFFR, (s >> 2) & 0xC0);
    00000837 69               [ 4] 2356 	ld	l, c
    00000838 60               [ 4] 2357 	ld	h, b
    00000839 CB 3C            [ 8] 2358 	srl	h
    0000083B CB 1D            [ 8] 2359 	rr	l
    0000083D CB 3C            [ 8] 2360 	srl	h
    0000083F CB 1D            [ 8] 2361 	rr	l
    00000841 7D               [ 4] 2362 	ld	a, l
    00000842 E6 C0            [ 7] 2363 	and	a, #0xc0
                                   2364 ;E:/Dropbox/FAUSTO/SVILUPPI/MSX/CODE/C/MSXgl/engine/src/system.h:101: inline void Poke(u16 addr, u8 val) { *(u8*)addr = val; }
    00000844 32 FE 7F         [13] 2365 	ld	(#0x7ffe),a
                                   2366 ;E:/Dropbox/FAUSTO/SVILUPPI/MSX/CODE/C/MSXgl/engine/src/rom_mapper.h:195: else if (b == 3)	Poke(ADDR_BANK_3, s & 0xFF);
                                   2367 ;E:/Dropbox/FAUSTO/SVILUPPI/MSX/CODE/C/MSXgl/engine/src/system.h:101: inline void Poke(u16 addr, u8 val) { *(u8*)addr = val; }
    00000847 21 00 B0         [10] 2368 	ld	hl, #0xb000
    0000084A 71               [ 7] 2369 	ld	(hl), c
                                   2370 ;./soccerlg.c:241: _res = func(p1);
    0000084B DD 7E 04         [19] 2371 	ld	a, 4 (ix)
    0000084E EB               [ 4] 2372 	ex	de, hl
    0000084F CDr00r00         [17] 2373 	call	___sdcc_call_hl
    00000852 4F               [ 4] 2374 	ld	c, a
                                   2375 ;./soccerlg.c:242: SET_BANK_SEGMENT(3, _old);
    00000853 DD 5E FF         [19] 2376 	ld	e, -1 (ix)
    00000856 16 00            [ 7] 2377 	ld	d, #0x00
                                   2378 ;E:/Dropbox/FAUSTO/SVILUPPI/MSX/CODE/C/MSXgl/engine/src/rom_mapper.h:190: g_Bank0Segment[b] = s;
    00000858 ED 53r06r00      [20] 2379 	ld	((_g_Bank0Segment + 6)), de
                                   2380 ;E:/Dropbox/FAUSTO/SVILUPPI/MSX/CODE/C/MSXgl/engine/src/rom_mapper.h:191: Poke(YAMANOOTO_OFFR, (s >> 2) & 0xC0);
    0000085C 43               [ 4] 2381 	ld	b, e
    0000085D 6A               [ 4] 2382 	ld	l, d
                                   2383 ;	spillPairReg hl
                                   2384 ;	spillPairReg hl
    0000085E CB 3D            [ 8] 2385 	srl	l
    00000860 CB 18            [ 8] 2386 	rr	b
    00000862 CB 3D            [ 8] 2387 	srl	l
    00000864 CB 18            [ 8] 2388 	rr	b
    00000866 78               [ 4] 2389 	ld	a, b
    00000867 E6 C0            [ 7] 2390 	and	a, #0xc0
                                   2391 ;E:/Dropbox/FAUSTO/SVILUPPI/MSX/CODE/C/MSXgl/engine/src/system.h:101: inline void Poke(u16 addr, u8 val) { *(u8*)addr = val; }
    00000869 32 FE 7F         [13] 2392 	ld	(#0x7ffe),a
                                   2393 ;E:/Dropbox/FAUSTO/SVILUPPI/MSX/CODE/C/MSXgl/engine/src/rom_mapper.h:195: else if (b == 3)	Poke(ADDR_BANK_3, s & 0xFF);
                                   2394 ;E:/Dropbox/FAUSTO/SVILUPPI/MSX/CODE/C/MSXgl/engine/src/system.h:101: inline void Poke(u16 addr, u8 val) { *(u8*)addr = val; }
    0000086C 21 00 B0         [10] 2395 	ld	hl, #0xb000
    0000086F 73               [ 7] 2396 	ld	(hl), e
                                   2397 ;./soccerlg.c:243: return _res;
    00000870 79               [ 4] 2398 	ld	a, c
                                   2399 ;./soccerlg.c:244: }
    00000871 33               [ 6] 2400 	inc	sp
    00000872 DD E1            [14] 2401 	pop	ix
    00000874 E1               [10] 2402 	pop	hl
    00000875 33               [ 6] 2403 	inc	sp
    00000876 E9               [ 4] 2404 	jp	(hl)
                                   2405 ;./soccerlg.c:247: void CallFnc_VOID_U8U8(u8 segment, void (*func)(u8, u8), u8 p1, u8 p2) {
                                   2406 ;	---------------------------------
                                   2407 ; Function CallFnc_VOID_U8U8
                                   2408 ; ---------------------------------
    00000877                       2409 _CallFnc_VOID_U8U8::
    00000877 DD E5            [15] 2410 	push	ix
    00000879 DD 21 00 00      [14] 2411 	ld	ix,#0
    0000087D DD 39            [15] 2412 	add	ix,sp
    0000087F 3B               [ 6] 2413 	dec	sp
    00000880 4F               [ 4] 2414 	ld	c, a
                                   2415 ;./soccerlg.c:248: u8 _old = GET_BANK_SEGMENT(3);
    00000881 2Ar06r00         [16] 2416 	ld	hl, (#(_g_Bank0Segment + 6) + 0)
    00000884 DD 75 FF         [19] 2417 	ld	-1 (ix), l
                                   2418 ;./soccerlg.c:249: SET_BANK_SEGMENT(3, segment);
    00000887 06 00            [ 7] 2419 	ld	b, #0x00
                                   2420 ;E:/Dropbox/FAUSTO/SVILUPPI/MSX/CODE/C/MSXgl/engine/src/rom_mapper.h:190: g_Bank0Segment[b] = s;
    00000889 ED 43r06r00      [20] 2421 	ld	((_g_Bank0Segment + 6)), bc
                                   2422 ;E:/Dropbox/FAUSTO/SVILUPPI/MSX/CODE/C/MSXgl/engine/src/rom_mapper.h:191: Poke(YAMANOOTO_OFFR, (s >> 2) & 0xC0);
    0000088D 69               [ 4] 2423 	ld	l, c
    0000088E 60               [ 4] 2424 	ld	h, b
    0000088F CB 3C            [ 8] 2425 	srl	h
    00000891 CB 1D            [ 8] 2426 	rr	l
    00000893 CB 3C            [ 8] 2427 	srl	h
    00000895 CB 1D            [ 8] 2428 	rr	l
    00000897 7D               [ 4] 2429 	ld	a, l
    00000898 E6 C0            [ 7] 2430 	and	a, #0xc0
                                   2431 ;E:/Dropbox/FAUSTO/SVILUPPI/MSX/CODE/C/MSXgl/engine/src/system.h:101: inline void Poke(u16 addr, u8 val) { *(u8*)addr = val; }
    0000089A 32 FE 7F         [13] 2432 	ld	(#0x7ffe),a
                                   2433 ;E:/Dropbox/FAUSTO/SVILUPPI/MSX/CODE/C/MSXgl/engine/src/rom_mapper.h:195: else if (b == 3)	Poke(ADDR_BANK_3, s & 0xFF);
                                   2434 ;E:/Dropbox/FAUSTO/SVILUPPI/MSX/CODE/C/MSXgl/engine/src/system.h:101: inline void Poke(u16 addr, u8 val) { *(u8*)addr = val; }
    0000089D 21 00 B0         [10] 2435 	ld	hl, #0xb000
    000008A0 71               [ 7] 2436 	ld	(hl), c
                                   2437 ;./soccerlg.c:250: func(p1,p2);
    000008A1 DD 6E 05         [19] 2438 	ld	l, 5 (ix)
                                   2439 ;	spillPairReg hl
                                   2440 ;	spillPairReg hl
    000008A4 DD 7E 04         [19] 2441 	ld	a, 4 (ix)
    000008A7 D5               [11] 2442 	push	de
    000008A8 FD E1            [14] 2443 	pop	iy
    000008AA CDr00r00         [17] 2444 	call	___sdcc_call_iy
                                   2445 ;./soccerlg.c:251: SET_BANK_SEGMENT(3, _old);
    000008AD DD 4E FF         [19] 2446 	ld	c, -1 (ix)
    000008B0 06 00            [ 7] 2447 	ld	b, #0x00
                                   2448 ;E:/Dropbox/FAUSTO/SVILUPPI/MSX/CODE/C/MSXgl/engine/src/rom_mapper.h:190: g_Bank0Segment[b] = s;
    000008B2 ED 43r06r00      [20] 2449 	ld	((_g_Bank0Segment + 6)), bc
                                   2450 ;E:/Dropbox/FAUSTO/SVILUPPI/MSX/CODE/C/MSXgl/engine/src/rom_mapper.h:191: Poke(YAMANOOTO_OFFR, (s >> 2) & 0xC0);
    000008B6 59               [ 4] 2451 	ld	e, c
    000008B7 50               [ 4] 2452 	ld	d, b
    000008B8 CB 3A            [ 8] 2453 	srl	d
    000008BA CB 1B            [ 8] 2454 	rr	e
    000008BC CB 3A            [ 8] 2455 	srl	d
    000008BE CB 1B            [ 8] 2456 	rr	e
    000008C0 7B               [ 4] 2457 	ld	a, e
    000008C1 E6 C0            [ 7] 2458 	and	a, #0xc0
                                   2459 ;E:/Dropbox/FAUSTO/SVILUPPI/MSX/CODE/C/MSXgl/engine/src/system.h:101: inline void Poke(u16 addr, u8 val) { *(u8*)addr = val; }
    000008C3 32 FE 7F         [13] 2460 	ld	(#0x7ffe),a
                                   2461 ;E:/Dropbox/FAUSTO/SVILUPPI/MSX/CODE/C/MSXgl/engine/src/rom_mapper.h:195: else if (b == 3)	Poke(ADDR_BANK_3, s & 0xFF);
                                   2462 ;E:/Dropbox/FAUSTO/SVILUPPI/MSX/CODE/C/MSXgl/engine/src/system.h:101: inline void Poke(u16 addr, u8 val) { *(u8*)addr = val; }
    000008C6 21 00 B0         [10] 2463 	ld	hl, #0xb000
    000008C9 71               [ 7] 2464 	ld	(hl), c
                                   2465 ;./soccerlg.c:251: SET_BANK_SEGMENT(3, _old);
                                   2466 ;./soccerlg.c:252: }
    000008CA 33               [ 6] 2467 	inc	sp
    000008CB DD E1            [14] 2468 	pop	ix
    000008CD E1               [10] 2469 	pop	hl
    000008CE F1               [10] 2470 	pop	af
    000008CF E9               [ 4] 2471 	jp	(hl)
                                   2472 ;./soccerlg.c:258: void SetTeamColors(u8 team, const struct TeamColors* colors)
                                   2473 ;	---------------------------------
                                   2474 ; Function SetTeamColors
                                   2475 ; ---------------------------------
    000008D0                       2476 _SetTeamColors::
                                   2477 ;./soccerlg.c:260: if (team == TEAM_1)
    000008D0 4F               [ 4] 2478 	ld	c, a
    000008D1 B7               [ 4] 2479 	or	a, a
    000008D2 20 2B            [12] 2480 	jr	NZ, 00104$
                                   2481 ;./soccerlg.c:262: VDP_SetPaletteEntry(10, colors->Stripes); // [A] Righe Squadra 1
    000008D4 4B               [ 4] 2482 	ld	c, e
    000008D5 42               [ 4] 2483 	ld	b, d
    000008D6 21 04 00         [10] 2484 	ld	hl, #4
    000008D9 09               [11] 2485 	add	hl, bc
    000008DA 4E               [ 7] 2486 	ld	c, (hl)
    000008DB 23               [ 6] 2487 	inc	hl
    000008DC 46               [ 7] 2488 	ld	b, (hl)
    000008DD D5               [11] 2489 	push	de
    000008DE 59               [ 4] 2490 	ld	e, c
    000008DF 50               [ 4] 2491 	ld	d, b
    000008E0 3E 0A            [ 7] 2492 	ld	a, #0x0a
    000008E2 CDr00r00         [17] 2493 	call	_VDP_SetPaletteEntry
    000008E5 D1               [10] 2494 	pop	de
                                   2495 ;./soccerlg.c:263: VDP_SetPaletteEntry(11, colors->Shirt);   // [B] Maglietta Squadra 1
    000008E6 6B               [ 4] 2496 	ld	l, e
    000008E7 62               [ 4] 2497 	ld	h, d
    000008E8 4E               [ 7] 2498 	ld	c, (hl)
    000008E9 23               [ 6] 2499 	inc	hl
    000008EA 46               [ 7] 2500 	ld	b, (hl)
    000008EB D5               [11] 2501 	push	de
    000008EC 59               [ 4] 2502 	ld	e, c
    000008ED 50               [ 4] 2503 	ld	d, b
    000008EE 3E 0B            [ 7] 2504 	ld	a, #0x0b
    000008F0 CDr00r00         [17] 2505 	call	_VDP_SetPaletteEntry
    000008F3 D1               [10] 2506 	pop	de
                                   2507 ;./soccerlg.c:264: VDP_SetPaletteEntry(13, colors->Shorts);  // [D] Pantaloncini Squadra 1
    000008F4 EB               [ 4] 2508 	ex	de, hl
    000008F5 23               [ 6] 2509 	inc	hl
    000008F6 23               [ 6] 2510 	inc	hl
    000008F7 5E               [ 7] 2511 	ld	e, (hl)
    000008F8 23               [ 6] 2512 	inc	hl
    000008F9 56               [ 7] 2513 	ld	d, (hl)
    000008FA 3E 0D            [ 7] 2514 	ld	a, #0x0d
    000008FC C3r00r00         [10] 2515 	jp	_VDP_SetPaletteEntry
    000008FF                       2516 00104$:
                                   2517 ;./soccerlg.c:266: else if (team == TEAM_2)
    000008FF 0D               [ 4] 2518 	dec	c
    00000900 C0               [11] 2519 	ret	NZ
                                   2520 ;./soccerlg.c:268: VDP_SetPaletteEntry(12, colors->Stripes); // [C] Righe Squadra 2
    00000901 D5               [11] 2521 	push	de
    00000902 FD E1            [14] 2522 	pop	iy
    00000904 FD 6E 04         [19] 2523 	ld	l, 4 (iy)
                                   2524 ;	spillPairReg hl
    00000907 FD 66 05         [19] 2525 	ld	h, 5 (iy)
                                   2526 ;	spillPairReg hl
    0000090A EB               [ 4] 2527 	ex	de, hl
    0000090B E5               [11] 2528 	push	hl
    0000090C 3E 0C            [ 7] 2529 	ld	a, #0x0c
    0000090E CDr00r00         [17] 2530 	call	_VDP_SetPaletteEntry
    00000911 D1               [10] 2531 	pop	de
                                   2532 ;./soccerlg.c:269: VDP_SetPaletteEntry(5,  colors->Shirt);   // [5] Maglietta Squadra 2
    00000912 6B               [ 4] 2533 	ld	l, e
    00000913 62               [ 4] 2534 	ld	h, d
    00000914 4E               [ 7] 2535 	ld	c, (hl)
    00000915 23               [ 6] 2536 	inc	hl
    00000916 46               [ 7] 2537 	ld	b, (hl)
    00000917 D5               [11] 2538 	push	de
    00000918 59               [ 4] 2539 	ld	e, c
    00000919 50               [ 4] 2540 	ld	d, b
    0000091A 3E 05            [ 7] 2541 	ld	a, #0x05
    0000091C CDr00r00         [17] 2542 	call	_VDP_SetPaletteEntry
    0000091F D1               [10] 2543 	pop	de
                                   2544 ;./soccerlg.c:270: VDP_SetPaletteEntry(9,  colors->Shorts);  // [9] Pantaloncini Squadra 2
    00000920 EB               [ 4] 2545 	ex	de, hl
    00000921 23               [ 6] 2546 	inc	hl
    00000922 23               [ 6] 2547 	inc	hl
    00000923 5E               [ 7] 2548 	ld	e, (hl)
    00000924 23               [ 6] 2549 	inc	hl
    00000925 56               [ 7] 2550 	ld	d, (hl)
    00000926 3E 09            [ 7] 2551 	ld	a, #0x09
                                   2552 ;./soccerlg.c:272: }
    00000928 C3r00r00         [10] 2553 	jp	_VDP_SetPaletteEntry
                                   2554 ;./soccerlg.c:274: void AddLines(struct ObjectInfo* Field) 
                                   2555 ;	---------------------------------
                                   2556 ; Function AddLines
                                   2557 ; ---------------------------------
    0000092B                       2558 _AddLines::
    0000092B DD E5            [15] 2559 	push	ix
    0000092D DD 21 00 00      [14] 2560 	ld	ix,#0
    00000931 DD 39            [15] 2561 	add	ix,sp
    00000933 FD 21 F5 FF      [14] 2562 	ld	iy, #-11
    00000937 FD 39            [15] 2563 	add	iy, sp
    00000939 FD F9            [10] 2564 	ld	sp, iy
                                   2565 ;./soccerlg.c:278: if (Field->dy==0) return;
    0000093B DD 75 FD         [19] 2566 	ld	-3 (ix), l
    0000093E DD 74 FE         [19] 2567 	ld	-2 (ix), h
    00000941 01 12 00         [10] 2568 	ld	bc,#18
    00000944 09               [11] 2569 	add	hl,bc
    00000945 7E               [ 7] 2570 	ld	a, (hl)
    00000946 DD 77 FF         [19] 2571 	ld	-1 (ix), a
    00000949 B7               [ 4] 2572 	or	a, a
    0000094A CAr40r0B         [10] 2573 	jp	Z,00120$
                                   2574 ;./soccerlg.c:281: for(i8 i=Field->dy; i>0; i--) {
    0000094D DD 7E FD         [19] 2575 	ld	a, -3 (ix)
    00000950 C6 04            [ 7] 2576 	add	a, #0x04
    00000952 DD 77 FB         [19] 2577 	ld	-5 (ix), a
    00000955 DD 7E FE         [19] 2578 	ld	a, -2 (ix)
    00000958 CE 00            [ 7] 2579 	adc	a, #0x00
    0000095A DD 77 FC         [19] 2580 	ld	-4 (ix), a
                                   2581 ;./soccerlg.c:280: if (Field->dy>0) {
    0000095D AF               [ 4] 2582 	xor	a, a
    0000095E DD 96 FF         [19] 2583 	sub	a, -1 (ix)
    00000961 E2r66r09         [10] 2584 	jp	PO, 00154$
    00000964 EE 80            [ 7] 2585 	xor	a, #0x80
    00000966                       2586 00154$:
    00000966 F2r4Ar0A         [10] 2587 	jp	P, 00106$
                                   2588 ;./soccerlg.c:281: for(i8 i=Field->dy; i>0; i--) {
    00000969                       2589 00115$:
    00000969 AF               [ 4] 2590 	xor	a, a
    0000096A DD 96 FF         [19] 2591 	sub	a, -1 (ix)
    0000096D E2r72r09         [10] 2592 	jp	PO, 00155$
    00000970 EE 80            [ 7] 2593 	xor	a, #0x80
    00000972                       2594 00155$:
    00000972 F2r40r0B         [10] 2595 	jp	P, 00120$
                                   2596 ;./soccerlg.c:282: v = (Field->ly + 192 - i) & 511;
    00000975 DD 6E FB         [19] 2597 	ld	l, -5 (ix)
    00000978 DD 66 FC         [19] 2598 	ld	h, -4 (ix)
    0000097B 7E               [ 7] 2599 	ld	a, (hl)
    0000097C DD 77 F9         [19] 2600 	ld	-7 (ix), a
    0000097F 23               [ 6] 2601 	inc	hl
    00000980 7E               [ 7] 2602 	ld	a, (hl)
    00000981 DD 77 FA         [19] 2603 	ld	-6 (ix), a
    00000984 DD 4E F9         [19] 2604 	ld	c, -7 (ix)
    00000987 DD 46 FA         [19] 2605 	ld	b, -6 (ix)
    0000098A 21 C0 00         [10] 2606 	ld	hl, #0x00c0
    0000098D 09               [11] 2607 	add	hl, bc
    0000098E DD 7E FF         [19] 2608 	ld	a, -1 (ix)
    00000991 4F               [ 4] 2609 	ld	c, a
    00000992 07               [ 4] 2610 	rlca
    00000993 9F               [ 4] 2611 	sbc	a, a
    00000994 47               [ 4] 2612 	ld	b, a
    00000995 BF               [ 4] 2613 	cp	a, a
    00000996 ED 42            [15] 2614 	sbc	hl, bc
    00000998 EB               [ 4] 2615 	ex	de, hl
    00000999 7A               [ 4] 2616 	ld	a, d
    0000099A E6 01            [ 7] 2617 	and	a, #0x01
    0000099C 57               [ 4] 2618 	ld	d, a
                                   2619 ;./soccerlg.c:283: VDP_CommandYMMM(FieldMap[v]+768,0,(v&255) +   0,1,0);	
    0000099D 7B               [ 4] 2620 	ld	a, e
    0000099E DD 77 F7         [19] 2621 	ld	-9 (ix), a
    000009A1 DD 36 F8 00      [19] 2622 	ld	-8 (ix), #0x00
    000009A5 4F               [ 4] 2623 	ld	c, a
    000009A6 06 00            [ 7] 2624 	ld	b, #0x00
    000009A8 21r4Fr00         [10] 2625 	ld	hl, #_FieldMap
    000009AB 19               [11] 2626 	add	hl, de
    000009AC DD 75 F9         [19] 2627 	ld	-7 (ix), l
    000009AF DD 74 FA         [19] 2628 	ld	-6 (ix), h
    000009B2 5E               [ 7] 2629 	ld	e, (hl)
                                   2630 ;	spillPairReg hl
                                   2631 ;	spillPairReg hl
    000009B3 AF               [ 4] 2632 	xor	a, a
    000009B4 C6 03            [ 7] 2633 	add	a, #0x03
    000009B6 57               [ 4] 2634 	ld	d, a
                                   2635 ;E:/Dropbox/FAUSTO/SVILUPPI/MSX/CODE/C/MSXgl/engine/src/vdp_inl.h:65: g_VDP_Command.SY = sy;
    000009B7 ED 53r02r00      [20] 2636 	ld	((_g_VDP_Command + 2)), de
                                   2637 ;E:/Dropbox/FAUSTO/SVILUPPI/MSX/CODE/C/MSXgl/engine/src/vdp_inl.h:66: g_VDP_Command.DX = dx;
    000009BB 21 00 00         [10] 2638 	ld	hl, #0x0000
    000009BE 22r04r00         [16] 2639 	ld	((_g_VDP_Command + 4)), hl
                                   2640 ;E:/Dropbox/FAUSTO/SVILUPPI/MSX/CODE/C/MSXgl/engine/src/vdp_inl.h:67: g_VDP_Command.DY = dy;
    000009C1 ED 43r06r00      [20] 2641 	ld	((_g_VDP_Command + 6)), bc
                                   2642 ;E:/Dropbox/FAUSTO/SVILUPPI/MSX/CODE/C/MSXgl/engine/src/vdp_inl.h:68: g_VDP_Command.NY = ny;
    000009C5 2E 01            [ 7] 2643 	ld	l, #0x01
    000009C7 22r0Ar00         [16] 2644 	ld	((_g_VDP_Command + 10)), hl
                                   2645 ;E:/Dropbox/FAUSTO/SVILUPPI/MSX/CODE/C/MSXgl/engine/src/vdp_inl.h:69: g_VDP_Command.ARG = dir; 
    000009CA 21r0Dr00         [10] 2646 	ld	hl, #(_g_VDP_Command + 13)
    000009CD 36 00            [10] 2647 	ld	(hl), #0x00
                                   2648 ;E:/Dropbox/FAUSTO/SVILUPPI/MSX/CODE/C/MSXgl/engine/src/vdp_inl.h:70: g_VDP_Command.CMD = VDP_CMD_YMMM;
    000009CF 21r0Er00         [10] 2649 	ld	hl, #(_g_VDP_Command + 14)
    000009D2 36 E0            [10] 2650 	ld	(hl), #0xe0
                                   2651 ;E:/Dropbox/FAUSTO/SVILUPPI/MSX/CODE/C/MSXgl/engine/src/vdp_inl.h:71: VPD_CommandSetupR32();
    000009D4 CDr00r00         [17] 2652 	call	_VPD_CommandSetupR32
                                   2653 ;./soccerlg.c:284: VDP_CommandYMMM(FieldMap[v]+768,0,(v&255) + 256,1,0);	
    000009D7 DD 4E F7         [19] 2654 	ld	c, -9 (ix)
    000009DA DD 7E F8         [19] 2655 	ld	a, -8 (ix)
    000009DD 3C               [ 4] 2656 	inc	a
    000009DE 47               [ 4] 2657 	ld	b, a
    000009DF DD 6E F9         [19] 2658 	ld	l, -7 (ix)
    000009E2 DD 66 FA         [19] 2659 	ld	h, -6 (ix)
    000009E5 7E               [ 7] 2660 	ld	a, (hl)
    000009E6 16 00            [ 7] 2661 	ld	d, #0x00
    000009E8 5F               [ 4] 2662 	ld	e, a
    000009E9 7A               [ 4] 2663 	ld	a, d
    000009EA C6 03            [ 7] 2664 	add	a, #0x03
    000009EC 57               [ 4] 2665 	ld	d, a
                                   2666 ;E:/Dropbox/FAUSTO/SVILUPPI/MSX/CODE/C/MSXgl/engine/src/vdp_inl.h:65: g_VDP_Command.SY = sy;
    000009ED ED 53r02r00      [20] 2667 	ld	((_g_VDP_Command + 2)), de
                                   2668 ;E:/Dropbox/FAUSTO/SVILUPPI/MSX/CODE/C/MSXgl/engine/src/vdp_inl.h:66: g_VDP_Command.DX = dx;
    000009F1 21 00 00         [10] 2669 	ld	hl, #0x0000
    000009F4 22r04r00         [16] 2670 	ld	((_g_VDP_Command + 4)), hl
                                   2671 ;E:/Dropbox/FAUSTO/SVILUPPI/MSX/CODE/C/MSXgl/engine/src/vdp_inl.h:67: g_VDP_Command.DY = dy;
    000009F7 ED 43r06r00      [20] 2672 	ld	((_g_VDP_Command + 6)), bc
                                   2673 ;E:/Dropbox/FAUSTO/SVILUPPI/MSX/CODE/C/MSXgl/engine/src/vdp_inl.h:68: g_VDP_Command.NY = ny;
    000009FB 2E 01            [ 7] 2674 	ld	l, #0x01
    000009FD 22r0Ar00         [16] 2675 	ld	((_g_VDP_Command + 10)), hl
                                   2676 ;E:/Dropbox/FAUSTO/SVILUPPI/MSX/CODE/C/MSXgl/engine/src/vdp_inl.h:69: g_VDP_Command.ARG = dir; 
    00000A00 21r0Dr00         [10] 2677 	ld	hl, #(_g_VDP_Command + 13)
    00000A03 36 00            [10] 2678 	ld	(hl), #0x00
                                   2679 ;E:/Dropbox/FAUSTO/SVILUPPI/MSX/CODE/C/MSXgl/engine/src/vdp_inl.h:70: g_VDP_Command.CMD = VDP_CMD_YMMM;
    00000A05 21r0Er00         [10] 2680 	ld	hl, #(_g_VDP_Command + 14)
    00000A08 36 E0            [10] 2681 	ld	(hl), #0xe0
                                   2682 ;E:/Dropbox/FAUSTO/SVILUPPI/MSX/CODE/C/MSXgl/engine/src/vdp_inl.h:71: VPD_CommandSetupR32();
    00000A0A CDr00r00         [17] 2683 	call	_VPD_CommandSetupR32
                                   2684 ;./soccerlg.c:285: VDP_CommandYMMM(FieldMap[v]+768,0,(v&255) + 512,1,0);	
    00000A0D DD 4E F7         [19] 2685 	ld	c, -9 (ix)
    00000A10 DD 7E F8         [19] 2686 	ld	a, -8 (ix)
    00000A13 C6 02            [ 7] 2687 	add	a, #0x02
    00000A15 47               [ 4] 2688 	ld	b, a
    00000A16 DD 6E F9         [19] 2689 	ld	l, -7 (ix)
    00000A19 DD 66 FA         [19] 2690 	ld	h, -6 (ix)
    00000A1C 5E               [ 7] 2691 	ld	e, (hl)
    00000A1D 16 00            [ 7] 2692 	ld	d, #0x00
    00000A1F 21 00 03         [10] 2693 	ld	hl, #0x0300
    00000A22 19               [11] 2694 	add	hl, de
    00000A23 EB               [ 4] 2695 	ex	de, hl
                                   2696 ;E:/Dropbox/FAUSTO/SVILUPPI/MSX/CODE/C/MSXgl/engine/src/vdp_inl.h:65: g_VDP_Command.SY = sy;
    00000A24 ED 53r02r00      [20] 2697 	ld	((_g_VDP_Command + 2)), de
                                   2698 ;E:/Dropbox/FAUSTO/SVILUPPI/MSX/CODE/C/MSXgl/engine/src/vdp_inl.h:66: g_VDP_Command.DX = dx;
    00000A28 21 00 00         [10] 2699 	ld	hl, #0x0000
    00000A2B 22r04r00         [16] 2700 	ld	((_g_VDP_Command + 4)), hl
                                   2701 ;E:/Dropbox/FAUSTO/SVILUPPI/MSX/CODE/C/MSXgl/engine/src/vdp_inl.h:67: g_VDP_Command.DY = dy;
    00000A2E ED 43r06r00      [20] 2702 	ld	((_g_VDP_Command + 6)), bc
                                   2703 ;E:/Dropbox/FAUSTO/SVILUPPI/MSX/CODE/C/MSXgl/engine/src/vdp_inl.h:68: g_VDP_Command.NY = ny;
    00000A32 2E 01            [ 7] 2704 	ld	l, #0x01
    00000A34 22r0Ar00         [16] 2705 	ld	((_g_VDP_Command + 10)), hl
                                   2706 ;E:/Dropbox/FAUSTO/SVILUPPI/MSX/CODE/C/MSXgl/engine/src/vdp_inl.h:69: g_VDP_Command.ARG = dir; 
    00000A37 21r0Dr00         [10] 2707 	ld	hl, #(_g_VDP_Command + 13)
    00000A3A 36 00            [10] 2708 	ld	(hl), #0x00
                                   2709 ;E:/Dropbox/FAUSTO/SVILUPPI/MSX/CODE/C/MSXgl/engine/src/vdp_inl.h:70: g_VDP_Command.CMD = VDP_CMD_YMMM;
    00000A3C 21r0Er00         [10] 2710 	ld	hl, #(_g_VDP_Command + 14)
    00000A3F 36 E0            [10] 2711 	ld	(hl), #0xe0
                                   2712 ;E:/Dropbox/FAUSTO/SVILUPPI/MSX/CODE/C/MSXgl/engine/src/vdp_inl.h:71: VPD_CommandSetupR32();
    00000A41 CDr00r00         [17] 2713 	call	_VPD_CommandSetupR32
                                   2714 ;./soccerlg.c:281: for(i8 i=Field->dy; i>0; i--) {
    00000A44 DD 35 FF         [23] 2715 	dec	-1 (ix)
    00000A47 C3r69r09         [10] 2716 	jp	00115$
    00000A4A                       2717 00106$:
                                   2718 ;./soccerlg.c:289: for(i8 i=-Field->dy; i>0; i--) {
    00000A4A AF               [ 4] 2719 	xor	a, a
    00000A4B DD 96 FF         [19] 2720 	sub	a, -1 (ix)
    00000A4E DD 77 FF         [19] 2721 	ld	-1 (ix), a
    00000A51 DD 7E FB         [19] 2722 	ld	a, -5 (ix)
    00000A54 DD 77 F5         [19] 2723 	ld	-11 (ix), a
    00000A57 DD 7E FC         [19] 2724 	ld	a, -4 (ix)
    00000A5A DD 77 F6         [19] 2725 	ld	-10 (ix), a
    00000A5D                       2726 00118$:
    00000A5D AF               [ 4] 2727 	xor	a, a
    00000A5E DD 96 FF         [19] 2728 	sub	a, -1 (ix)
    00000A61 E2r66r0A         [10] 2729 	jp	PO, 00156$
    00000A64 EE 80            [ 7] 2730 	xor	a, #0x80
    00000A66                       2731 00156$:
    00000A66 F2r40r0B         [10] 2732 	jp	P, 00120$
                                   2733 ;./soccerlg.c:290: v = (Field->ly + i - 1) & 511;
    00000A69 E1               [10] 2734 	pop	hl
    00000A6A E5               [11] 2735 	push	hl
    00000A6B 4E               [ 7] 2736 	ld	c, (hl)
    00000A6C 23               [ 6] 2737 	inc	hl
    00000A6D 46               [ 7] 2738 	ld	b, (hl)
    00000A6E DD 7E FF         [19] 2739 	ld	a, -1 (ix)
    00000A71 6F               [ 4] 2740 	ld	l, a
                                   2741 ;	spillPairReg hl
                                   2742 ;	spillPairReg hl
    00000A72 07               [ 4] 2743 	rlca
    00000A73 9F               [ 4] 2744 	sbc	a, a
    00000A74 67               [ 4] 2745 	ld	h, a
                                   2746 ;	spillPairReg hl
                                   2747 ;	spillPairReg hl
    00000A75 09               [11] 2748 	add	hl, bc
    00000A76 EB               [ 4] 2749 	ex	de, hl
    00000A77 1B               [ 6] 2750 	dec	de
    00000A78 7A               [ 4] 2751 	ld	a, d
    00000A79 E6 01            [ 7] 2752 	and	a, #0x01
    00000A7B 57               [ 4] 2753 	ld	d, a
                                   2754 ;./soccerlg.c:291: VDP_CommandYMMM(FieldMap[v]+768,0,(v&255) +   0,1,0);	
    00000A7C 7B               [ 4] 2755 	ld	a, e
    00000A7D DD 77 F7         [19] 2756 	ld	-9 (ix), a
    00000A80 DD 36 F8 00      [19] 2757 	ld	-8 (ix), #0x00
    00000A84 4F               [ 4] 2758 	ld	c, a
    00000A85 06 00            [ 7] 2759 	ld	b, #0x00
    00000A87 21r4Fr00         [10] 2760 	ld	hl, #_FieldMap
    00000A8A 19               [11] 2761 	add	hl, de
    00000A8B DD 75 F9         [19] 2762 	ld	-7 (ix), l
    00000A8E DD 74 FA         [19] 2763 	ld	-6 (ix), h
    00000A91 5E               [ 7] 2764 	ld	e, (hl)
                                   2765 ;	spillPairReg hl
                                   2766 ;	spillPairReg hl
    00000A92 AF               [ 4] 2767 	xor	a, a
    00000A93 C6 03            [ 7] 2768 	add	a, #0x03
    00000A95 57               [ 4] 2769 	ld	d, a
                                   2770 ;E:/Dropbox/FAUSTO/SVILUPPI/MSX/CODE/C/MSXgl/engine/src/vdp_inl.h:65: g_VDP_Command.SY = sy;
    00000A96 ED 53r02r00      [20] 2771 	ld	((_g_VDP_Command + 2)), de
                                   2772 ;E:/Dropbox/FAUSTO/SVILUPPI/MSX/CODE/C/MSXgl/engine/src/vdp_inl.h:66: g_VDP_Command.DX = dx;
    00000A9A 21 00 00         [10] 2773 	ld	hl, #0x0000
    00000A9D 22r04r00         [16] 2774 	ld	((_g_VDP_Command + 4)), hl
                                   2775 ;E:/Dropbox/FAUSTO/SVILUPPI/MSX/CODE/C/MSXgl/engine/src/vdp_inl.h:67: g_VDP_Command.DY = dy;
    00000AA0 ED 43r06r00      [20] 2776 	ld	((_g_VDP_Command + 6)), bc
                                   2777 ;E:/Dropbox/FAUSTO/SVILUPPI/MSX/CODE/C/MSXgl/engine/src/vdp_inl.h:68: g_VDP_Command.NY = ny;
    00000AA4 2E 01            [ 7] 2778 	ld	l, #0x01
    00000AA6 22r0Ar00         [16] 2779 	ld	((_g_VDP_Command + 10)), hl
                                   2780 ;E:/Dropbox/FAUSTO/SVILUPPI/MSX/CODE/C/MSXgl/engine/src/vdp_inl.h:69: g_VDP_Command.ARG = dir; 
    00000AA9 01r0Dr00         [10] 2781 	ld	bc, #_g_VDP_Command + 13
    00000AAC AF               [ 4] 2782 	xor	a, a
    00000AAD 02               [ 7] 2783 	ld	(bc), a
                                   2784 ;E:/Dropbox/FAUSTO/SVILUPPI/MSX/CODE/C/MSXgl/engine/src/vdp_inl.h:70: g_VDP_Command.CMD = VDP_CMD_YMMM;
    00000AAE 21r0Er00         [10] 2785 	ld	hl, #(_g_VDP_Command + 14)
    00000AB1 36 E0            [10] 2786 	ld	(hl), #0xe0
                                   2787 ;E:/Dropbox/FAUSTO/SVILUPPI/MSX/CODE/C/MSXgl/engine/src/vdp_inl.h:71: VPD_CommandSetupR32();
    00000AB3 C5               [11] 2788 	push	bc
    00000AB4 CDr00r00         [17] 2789 	call	_VPD_CommandSetupR32
    00000AB7 C1               [10] 2790 	pop	bc
                                   2791 ;./soccerlg.c:292: VDP_CommandYMMM(FieldMap[v]+768,0,(v&255) + 256,1,0);	
    00000AB8 DD 5E F7         [19] 2792 	ld	e, -9 (ix)
    00000ABB DD 7E F8         [19] 2793 	ld	a, -8 (ix)
    00000ABE 3C               [ 4] 2794 	inc	a
    00000ABF DD 73 FB         [19] 2795 	ld	-5 (ix), e
    00000AC2 DD 77 FC         [19] 2796 	ld	-4 (ix), a
    00000AC5 DD 6E F9         [19] 2797 	ld	l, -7 (ix)
    00000AC8 DD 66 FA         [19] 2798 	ld	h, -6 (ix)
    00000ACB 7E               [ 7] 2799 	ld	a, (hl)
    00000ACC 16 00            [ 7] 2800 	ld	d, #0x00
    00000ACE 5F               [ 4] 2801 	ld	e, a
    00000ACF 7A               [ 4] 2802 	ld	a, d
    00000AD0 C6 03            [ 7] 2803 	add	a, #0x03
    00000AD2 57               [ 4] 2804 	ld	d, a
                                   2805 ;E:/Dropbox/FAUSTO/SVILUPPI/MSX/CODE/C/MSXgl/engine/src/vdp_inl.h:65: g_VDP_Command.SY = sy;
    00000AD3 ED 53r02r00      [20] 2806 	ld	((_g_VDP_Command + 2)), de
                                   2807 ;E:/Dropbox/FAUSTO/SVILUPPI/MSX/CODE/C/MSXgl/engine/src/vdp_inl.h:66: g_VDP_Command.DX = dx;
    00000AD7 21 00 00         [10] 2808 	ld	hl, #0x0000
    00000ADA 22r04r00         [16] 2809 	ld	((_g_VDP_Command + 4)), hl
                                   2810 ;E:/Dropbox/FAUSTO/SVILUPPI/MSX/CODE/C/MSXgl/engine/src/vdp_inl.h:67: g_VDP_Command.DY = dy;
    00000ADD 21r06r00         [10] 2811 	ld	hl, #(_g_VDP_Command + 6)
    00000AE0 DD 7E FB         [19] 2812 	ld	a, -5 (ix)
    00000AE3 77               [ 7] 2813 	ld	(hl), a
    00000AE4 23               [ 6] 2814 	inc	hl
    00000AE5 DD 7E FC         [19] 2815 	ld	a, -4 (ix)
    00000AE8 77               [ 7] 2816 	ld	(hl), a
                                   2817 ;E:/Dropbox/FAUSTO/SVILUPPI/MSX/CODE/C/MSXgl/engine/src/vdp_inl.h:68: g_VDP_Command.NY = ny;
    00000AE9 21 01 00         [10] 2818 	ld	hl, #0x0001
    00000AEC 22r0Ar00         [16] 2819 	ld	((_g_VDP_Command + 10)), hl
                                   2820 ;E:/Dropbox/FAUSTO/SVILUPPI/MSX/CODE/C/MSXgl/engine/src/vdp_inl.h:69: g_VDP_Command.ARG = dir; 
    00000AEF AF               [ 4] 2821 	xor	a, a
    00000AF0 02               [ 7] 2822 	ld	(bc), a
                                   2823 ;E:/Dropbox/FAUSTO/SVILUPPI/MSX/CODE/C/MSXgl/engine/src/vdp_inl.h:70: g_VDP_Command.CMD = VDP_CMD_YMMM;
    00000AF1 21r0Er00         [10] 2824 	ld	hl, #(_g_VDP_Command + 14)
    00000AF4 36 E0            [10] 2825 	ld	(hl), #0xe0
                                   2826 ;E:/Dropbox/FAUSTO/SVILUPPI/MSX/CODE/C/MSXgl/engine/src/vdp_inl.h:71: VPD_CommandSetupR32();
    00000AF6 C5               [11] 2827 	push	bc
    00000AF7 CDr00r00         [17] 2828 	call	_VPD_CommandSetupR32
    00000AFA C1               [10] 2829 	pop	bc
                                   2830 ;./soccerlg.c:293: VDP_CommandYMMM(FieldMap[v]+768,0,(v&255) + 512,1,0);	
    00000AFB DD 5E F7         [19] 2831 	ld	e, -9 (ix)
    00000AFE DD 7E F8         [19] 2832 	ld	a, -8 (ix)
    00000B01 C6 02            [ 7] 2833 	add	a, #0x02
    00000B03 57               [ 4] 2834 	ld	d, a
    00000B04 DD 6E F9         [19] 2835 	ld	l, -7 (ix)
    00000B07 DD 66 FA         [19] 2836 	ld	h, -6 (ix)
    00000B0A 6E               [ 7] 2837 	ld	l, (hl)
                                   2838 ;	spillPairReg hl
                                   2839 ;	spillPairReg hl
                                   2840 ;	spillPairReg hl
    00000B0B AF               [ 4] 2841 	xor	a, a
    00000B0C C6 03            [ 7] 2842 	add	a, #0x03
    00000B0E 67               [ 4] 2843 	ld	h, a
                                   2844 ;	spillPairReg hl
                                   2845 ;	spillPairReg hl
    00000B0F DD 75 FB         [19] 2846 	ld	-5 (ix), l
    00000B12 DD 74 FC         [19] 2847 	ld	-4 (ix), h
                                   2848 ;E:/Dropbox/FAUSTO/SVILUPPI/MSX/CODE/C/MSXgl/engine/src/vdp_inl.h:65: g_VDP_Command.SY = sy;
    00000B15 21r02r00         [10] 2849 	ld	hl, #(_g_VDP_Command + 2)
    00000B18 DD 7E FB         [19] 2850 	ld	a, -5 (ix)
    00000B1B 77               [ 7] 2851 	ld	(hl), a
    00000B1C 23               [ 6] 2852 	inc	hl
    00000B1D DD 7E FC         [19] 2853 	ld	a, -4 (ix)
    00000B20 77               [ 7] 2854 	ld	(hl), a
                                   2855 ;E:/Dropbox/FAUSTO/SVILUPPI/MSX/CODE/C/MSXgl/engine/src/vdp_inl.h:66: g_VDP_Command.DX = dx;
    00000B21 21 00 00         [10] 2856 	ld	hl, #0x0000
    00000B24 22r04r00         [16] 2857 	ld	((_g_VDP_Command + 4)), hl
                                   2858 ;E:/Dropbox/FAUSTO/SVILUPPI/MSX/CODE/C/MSXgl/engine/src/vdp_inl.h:67: g_VDP_Command.DY = dy;
    00000B27 ED 53r06r00      [20] 2859 	ld	((_g_VDP_Command + 6)), de
                                   2860 ;E:/Dropbox/FAUSTO/SVILUPPI/MSX/CODE/C/MSXgl/engine/src/vdp_inl.h:68: g_VDP_Command.NY = ny;
    00000B2B 2E 01            [ 7] 2861 	ld	l, #0x01
    00000B2D 22r0Ar00         [16] 2862 	ld	((_g_VDP_Command + 10)), hl
                                   2863 ;E:/Dropbox/FAUSTO/SVILUPPI/MSX/CODE/C/MSXgl/engine/src/vdp_inl.h:69: g_VDP_Command.ARG = dir; 
    00000B30 AF               [ 4] 2864 	xor	a, a
    00000B31 02               [ 7] 2865 	ld	(bc), a
                                   2866 ;E:/Dropbox/FAUSTO/SVILUPPI/MSX/CODE/C/MSXgl/engine/src/vdp_inl.h:70: g_VDP_Command.CMD = VDP_CMD_YMMM;
    00000B32 21r0Er00         [10] 2867 	ld	hl, #(_g_VDP_Command + 14)
    00000B35 36 E0            [10] 2868 	ld	(hl), #0xe0
                                   2869 ;E:/Dropbox/FAUSTO/SVILUPPI/MSX/CODE/C/MSXgl/engine/src/vdp_inl.h:71: VPD_CommandSetupR32();
    00000B37 CDr00r00         [17] 2870 	call	_VPD_CommandSetupR32
                                   2871 ;./soccerlg.c:289: for(i8 i=-Field->dy; i>0; i--) {
    00000B3A DD 35 FF         [23] 2872 	dec	-1 (ix)
    00000B3D C3r5Dr0A         [10] 2873 	jp	00118$
    00000B40                       2874 00120$:
                                   2875 ;./soccerlg.c:296: }
    00000B40 DD F9            [10] 2876 	ld	sp, ix
    00000B42 DD E1            [14] 2877 	pop	ix
    00000B44 C9               [10] 2878 	ret
                                   2879 ;./soccerlg.c:298: void CallSpriteFrame(u8 x, u16 y, u16 frame)  __naked
                                   2880 ;	---------------------------------
                                   2881 ; Function CallSpriteFrame
                                   2882 ; ---------------------------------
    00000B45                       2883 _CallSpriteFrame::
                                   2884 ;./soccerlg.c:374: __endasm;
                         00007FFF  2885 	ENAR	.equ 0x7FFF ; enable register interface
                         00007FFE  2886 	OFFR	.equ 0x7FFE ; offset register (more on this later)
                         00007FFD  2887 	CFGR	.equ 0x7FFD ; configuration bits
    00000B45 47               [ 4] 2888 	ld	b,a ; b = x , de = y
    00000B46 F1               [10] 2889 	pop	af ; pop return
    00000B47 E1               [10] 2890 	pop	hl ; hl = frame
    00000B48 F5               [11] 2891 	push	af ; push return
    00000B49 3E C0            [ 7] 2892 	ld	a,#(768>>2) & #$%11000000
    00000B4B 32 FE 7F         [13] 2893 	ld	(OFFR),a ; Data offset
    00000B4E 3Ar06r00         [13] 2894 	ld	a,(#(_g_Bank0Segment + 6) + 0)
    00000B51 F5               [11] 2895 	push	af ; save the current mapper page (!!) has to be < 256
    00000B52 CDr61r0B         [17] 2896 	call	SpriteFrame
    00000B55 AF               [ 4] 2897 	xor	a,a ; lower 2MB
    00000B56 32 FE 7F         [13] 2898 	ld	(OFFR),a
    00000B59 F1               [10] 2899 	pop	af
    00000B5A 32 00 B0         [13] 2900 	ld	(#0xB000),a ; restore the mapper page
    00000B5D 32r06r00         [13] 2901 	ld	(#(_g_Bank0Segment + 6) + 0),a
    00000B60 C9               [10] 2902 	ret
    00000B61                       2903 	SpriteFrame::
    00000B61 7D               [ 4] 2904 	ld	a,l
    00000B62 E6 03            [ 7] 2905 	and	#3 ; 4 sprite per pagina
    00000B64 87               [ 4] 2906 	add	a,a
    00000B65 87               [ 4] 2907 	add	a,a
    00000B66 4F               [ 4] 2908 	ld	c,a ; in c the low address of the function to be called
    00000B67 CB 3C            [ 8] 2909 	srl	h ; page = 768 + frame / 4
    00000B69 CB 1D            [ 8] 2910 	rr	l
    00000B6B CB 3C            [ 8] 2911 	srl	h
    00000B6D CB 1D            [ 8] 2912 	rr	l
    00000B6F 3E 00            [ 7] 2913 	ld	a,#768
    00000B71 85               [ 4] 2914 	add	a,l ; segments in the current offset (!)
    00000B72 32 00 B0         [13] 2915 	ld	(#0xB000),a
    00000B75 32r06r00         [13] 2916 	ld	(#(_g_Bank0Segment + 6) + 0),a ; prevent future possible issues on the ISR
    00000B78 62               [ 4] 2917 	ld	h,d ; HLB = y*256+X = 2 * VRAM_address
    00000B79 6B               [ 4] 2918 	ld	l,e
    00000B7A 29               [11] 2919 	add	hl,hl ; in h 3 bit di indirizzo per R14
    00000B7B 7C               [ 4] 2920 	ld	a,h
    00000B7C E6 01            [ 7] 2921 	and	#1
    00000B7E FD                    2922 	.db	#0xFD
    00000B7F 6F               [ 4] 2923 	ld	l,a ;ld iyl,a ; save R14 in iyl
    00000B80 7C               [ 4] 2924 	ld	a,h
    00000B81 E6 06            [ 7] 2925 	and	#6
    00000B83 FD                    2926 	.db	#0xFD
    00000B84 67               [ 4] 2927 	ld	h,a ;ld iyh,a ; save vram page in iyh
    00000B85 CB 3A            [ 8] 2928 	srl	d
    00000B87 CB 1B            [ 8] 2929 	rr	e
    00000B89 CB 18            [ 8] 2930 	rr	b
    00000B8B 53               [ 4] 2931 	ld	d,e
    00000B8C 58               [ 4] 2932 	ld	e,b ; DE = (x + y*256)/2 & 0xFFFF
    00000B8D 69               [ 4] 2933 	ld	l,c
    00000B8E 26 A0            [ 7] 2934 	ld	h,#0xA000/256
    00000B90 7A               [ 4] 2935 	ld	a,d
    00000B91 F6 C0            [ 7] 2936 	or	#0xC0
    00000B93 57               [ 4] 2937 	ld	d,a
    00000B94 E9               [ 4] 2938 	jp	(hl)
                                   2939 ;./soccerlg.c:375: }
                                   2940 ;./soccerlg.c:388: void VSyncCallback()
                                   2941 ;	---------------------------------
                                   2942 ; Function VSyncCallback
                                   2943 ; ---------------------------------
    00000B95                       2944 _VSyncCallback::
                                   2945 ;./soccerlg.c:390: g_VSynch = TRUE;
    00000B95 21r2Cr00         [10] 2946 	ld	hl, #_g_VSynch
    00000B98 36 01            [10] 2947 	ld	(hl), #0x01
                                   2948 ;./soccerlg.c:392: Frms--;
    00000B9A FD 21r00r00      [14] 2949 	ld	iy, #_Frms
    00000B9E FD 35 00         [23] 2950 	dec	0 (iy)
                                   2951 ;./soccerlg.c:393: if (Frms==0) {
    00000BA1 3Ar00r00         [13] 2952 	ld	a, (_Frms+0)
    00000BA4 B7               [ 4] 2953 	or	a, a
    00000BA5 C0               [11] 2954 	ret	NZ
                                   2955 ;./soccerlg.c:394: Frms = 60;
    00000BA6 FD 36 00 3C      [19] 2956 	ld	0 (iy), #0x3c
                                   2957 ;./soccerlg.c:395: if (TimerEnabled) {
    00000BAA 3Ar0Fr00         [13] 2958 	ld	a, (_TimerEnabled+0)
    00000BAD B7               [ 4] 2959 	or	a, a
    00000BAE C8               [11] 2960 	ret	Z
                                   2961 ;./soccerlg.c:396: if (Mins > 0 || Secs > 0) {
    00000BAF 3Ar02r00         [13] 2962 	ld	a, (_Mins+0)
    00000BB2 B7               [ 4] 2963 	or	a, a
    00000BB3 20 05            [12] 2964 	jr	NZ, 00104$
    00000BB5 3Ar01r00         [13] 2965 	ld	a, (_Secs+0)
    00000BB8 B7               [ 4] 2966 	or	a, a
    00000BB9 C8               [11] 2967 	ret	Z
    00000BBA                       2968 00104$:
                                   2969 ;./soccerlg.c:397: if (Secs==0) {
    00000BBA 3Ar01r00         [13] 2970 	ld	a, (_Secs+0)
    00000BBD B7               [ 4] 2971 	or	a, a
    00000BBE 20 0A            [12] 2972 	jr	NZ, 00102$
                                   2973 ;./soccerlg.c:398: Secs = 59;
    00000BC0 21r01r00         [10] 2974 	ld	hl, #_Secs
    00000BC3 36 3B            [10] 2975 	ld	(hl), #0x3b
                                   2976 ;./soccerlg.c:399: Mins--;
    00000BC5 21r02r00         [10] 2977 	ld	hl, #_Mins
    00000BC8 35               [11] 2978 	dec	(hl)
    00000BC9 C9               [10] 2979 	ret
    00000BCA                       2980 00102$:
                                   2981 ;./soccerlg.c:401: Secs--;
    00000BCA 21r01r00         [10] 2982 	ld	hl, #_Secs
    00000BCD 35               [11] 2983 	dec	(hl)
                                   2984 ;./soccerlg.c:406: }
    00000BCE C9               [10] 2985 	ret
    00000BCF                       2986 _dummy:
    00000BCF 00                    2987 	.db #0x00	; 0
    00000BD0 00                    2988 	.db #0x00	; 0
    00000BD1 00                    2989 	.db #0x00	; 0
    00000BD2 00                    2990 	.db #0x00	; 0
    00000BD3 00                    2991 	.db #0x00	; 0
    00000BD4 00                    2992 	.db #0x00	; 0
    00000BD5 00                    2993 	.db #0x00	; 0
    00000BD6 00                    2994 	.db #0x00	; 0
                                   2995 ;./soccerlg.c:408: void WaitForVBlank(){
                                   2996 ;	---------------------------------
                                   2997 ; Function WaitForVBlank
                                   2998 ; ---------------------------------
    00000BD7                       2999 _WaitForVBlank::
                                   3000 ;./soccerlg.c:409: while(!g_VSynch) {}
    00000BD7                       3001 00101$:
    00000BD7 3Ar2Cr00         [13] 3002 	ld	a, (_g_VSynch+0)
    00000BDA B7               [ 4] 3003 	or	a, a
    00000BDB 28 FA            [12] 3004 	jr	Z, 00101$
                                   3005 ;./soccerlg.c:410: g_VSynch = FALSE;
    00000BDD 21r2Cr00         [10] 3006 	ld	hl, #_g_VSynch
    00000BE0 36 00            [10] 3007 	ld	(hl), #0x00
                                   3008 ;./soccerlg.c:411: }
    00000BE2 C9               [10] 3009 	ret
                                   3010 ;./soccerlg.c:413: void LoadField(u8 vdp_page)
                                   3011 ;	---------------------------------
                                   3012 ; Function LoadField
                                   3013 ; ---------------------------------
    00000BE3                       3014 _LoadField::
    00000BE3 DD E5            [15] 3015 	push	ix
    00000BE5 DD 21 00 00      [14] 3016 	ld	ix,#0
    00000BE9 DD 39            [15] 3017 	add	ix,sp
    00000BEB 21 FA FF         [10] 3018 	ld	hl, #-6
    00000BEE 39               [11] 3019 	add	hl, sp
    00000BEF F9               [ 6] 3020 	ld	sp, hl
    00000BF0 5F               [ 4] 3021 	ld	e, a
                                   3022 ;./soccerlg.c:415: u32 base     = (u32)vdp_page * 0x8000;
    00000BF1 16 00            [ 7] 3023 	ld	d, #0x00
    00000BF3 21 00 00         [10] 3024 	ld	hl, #0x0000
    00000BF6 65               [ 4] 3025 	ld	h, l
                                   3026 ;	spillPairReg hl
                                   3027 ;	spillPairReg hl
    00000BF7 6A               [ 4] 3028 	ld	l, d
                                   3029 ;	spillPairReg hl
                                   3030 ;	spillPairReg hl
    00000BF8 53               [ 4] 3031 	ld	d, e
    00000BF9 1E 00            [ 7] 3032 	ld	e, #0x00
    00000BFB 06 07            [ 7] 3033 	ld	b, #0x07
    00000BFD                       3034 00168$:
    00000BFD CB 22            [ 8] 3035 	sla	d
    00000BFF ED 6A            [15] 3036 	adc	hl, hl
    00000C01 10 FA            [13] 3037 	djnz	00168$
    00000C03 33               [ 6] 3038 	inc	sp
    00000C04 33               [ 6] 3039 	inc	sp
    00000C05 D5               [11] 3040 	push	de
    00000C06 DD 75 FC         [19] 3041 	ld	-4 (ix), l
    00000C09 DD 74 FD         [19] 3042 	ld	-3 (ix), h
                                   3043 ;./soccerlg.c:416: u8  u = GET_BANK_SEGMENT_HIGH(3);
    00000C0C 2Ar06r00         [16] 3044 	ld	hl, (#(_g_Bank0Segment + 6) + 0)
    00000C0F DD 74 FE         [19] 3045 	ld	-2 (ix), h
                                   3046 ;./soccerlg.c:417: u8  v = GET_BANK_SEGMENT_LOW(3);
    00000C12 DD 75 FF         [19] 3047 	ld	-1 (ix), l
                                   3048 ;./soccerlg.c:419: for (u8 i = 0; i < FIELD_SEG_COUNT; i++)
    00000C15 0E 00            [ 7] 3049 	ld	c, #0x00
    00000C17                       3050 00145$:
    00000C17 79               [ 4] 3051 	ld	a, c
    00000C18 D6 04            [ 7] 3052 	sub	a, #0x04
    00000C1A 30 5A            [12] 3053 	jr	NC, 00101$
                                   3054 ;./soccerlg.c:421: u32 addr    = base + (u32)i * 8192;
    00000C1C 59               [ 4] 3055 	ld	e, c
    00000C1D AF               [ 4] 3056 	xor	a, a
    00000C1E 6F               [ 4] 3057 	ld	l, a
                                   3058 ;	spillPairReg hl
                                   3059 ;	spillPairReg hl
    00000C1F 53               [ 4] 3060 	ld	d, e
    00000C20 67               [ 4] 3061 	ld	h, a
                                   3062 ;	spillPairReg hl
                                   3063 ;	spillPairReg hl
    00000C21 1E 00            [ 7] 3064 	ld	e, #0x00
    00000C23 06 05            [ 7] 3065 	ld	b, #0x05
    00000C25                       3066 00170$:
    00000C25 CB 22            [ 8] 3067 	sla	d
    00000C27 ED 6A            [15] 3068 	adc	hl, hl
    00000C29 10 FA            [13] 3069 	djnz	00170$
    00000C2B 7B               [ 4] 3070 	ld	a, e
    00000C2C DD 86 FA         [19] 3071 	add	a, -6 (ix)
    00000C2F 5F               [ 4] 3072 	ld	e, a
    00000C30 7A               [ 4] 3073 	ld	a, d
    00000C31 DD 8E FB         [19] 3074 	adc	a, -5 (ix)
    00000C34 57               [ 4] 3075 	ld	d, a
    00000C35 7D               [ 4] 3076 	ld	a, l
    00000C36 DD 8E FC         [19] 3077 	adc	a, -4 (ix)
    00000C39 6F               [ 4] 3078 	ld	l, a
                                   3079 ;	spillPairReg hl
                                   3080 ;	spillPairReg hl
    00000C3A 7C               [ 4] 3081 	ld	a, h
    00000C3B DD 8E FD         [19] 3082 	adc	a, -3 (ix)
    00000C3E 67               [ 4] 3083 	ld	h, a
                                   3084 ;	spillPairReg hl
                                   3085 ;	spillPairReg hl
    00000C3F D5               [11] 3086 	push	de
    00000C40 FD E1            [14] 3087 	pop	iy
    00000C42 EB               [ 4] 3088 	ex	de, hl
                                   3089 ;./soccerlg.c:423: SET_BANK_SEGMENT_LOW (3, (FIELD_BIN_SEG + i) & 255);
    00000C43 79               [ 4] 3090 	ld	a, c
    00000C44 C6 FC            [ 7] 3091 	add	a, #0xfc
                                   3092 ;E:/Dropbox/FAUSTO/SVILUPPI/MSX/CODE/C/MSXgl/engine/src/rom_mapper.h:199: Poke((u16)&g_Bank0Segment[b] + 0, s);
                                   3093 ;E:/Dropbox/FAUSTO/SVILUPPI/MSX/CODE/C/MSXgl/engine/src/system.h:101: inline void Poke(u16 addr, u8 val) { *(u8*)addr = val; }
    00000C46 32r06r00         [13] 3094 	ld	(#(_g_Bank0Segment + 6)),a
    00000C49 32 00 B0         [13] 3095 	ld	(#0xb000),a
                                   3096 ;./soccerlg.c:424: SET_BANK_SEGMENT_HIGH(3, (FIELD_BIN_SEG + i) >>8);
    00000C4C 79               [ 4] 3097 	ld	a, c
    00000C4D 26 00            [ 7] 3098 	ld	h, #0x00
                                   3099 ;	spillPairReg hl
                                   3100 ;	spillPairReg hl
    00000C4F C6 FC            [ 7] 3101 	add	a, #0xfc
                                   3102 ;	spillPairReg hl
                                   3103 ;	spillPairReg hl
    00000C51 30 01            [12] 3104 	jr	NC, 00172$
    00000C53 24               [ 4] 3105 	inc	h
    00000C54                       3106 00172$:
    00000C54 7C               [ 4] 3107 	ld	a, h
                                   3108 ;E:/Dropbox/FAUSTO/SVILUPPI/MSX/CODE/C/MSXgl/engine/src/rom_mapper.h:207: Poke((u16)&g_Bank0Segment[b] + 1, s);
    00000C55 21r06r00         [10] 3109 	ld	hl, #(_g_Bank0Segment + 6)
    00000C58 23               [ 6] 3110 	inc	hl
                                   3111 ;E:/Dropbox/FAUSTO/SVILUPPI/MSX/CODE/C/MSXgl/engine/src/system.h:101: inline void Poke(u16 addr, u8 val) { *(u8*)addr = val; }
    00000C59 77               [ 7] 3112 	ld	(hl), a
                                   3113 ;E:/Dropbox/FAUSTO/SVILUPPI/MSX/CODE/C/MSXgl/engine/src/rom_mapper.h:208: Poke(YAMANOOTO_OFFR, s << 6);
    00000C5A 0F               [ 4] 3114 	rrca
    00000C5B 0F               [ 4] 3115 	rrca
    00000C5C E6 C0            [ 7] 3116 	and	a, #0xc0
                                   3117 ;E:/Dropbox/FAUSTO/SVILUPPI/MSX/CODE/C/MSXgl/engine/src/system.h:101: inline void Poke(u16 addr, u8 val) { *(u8*)addr = val; }
    00000C5E 32 FE 7F         [13] 3118 	ld	(#0x7ffe),a
                                   3119 ;./soccerlg.c:425: VDP_WriteVRAM_128K((u8*)BANK3_BASE, (addr & 0xFFFF), (addr >> 16), 8192);
    00000C61 7B               [ 4] 3120 	ld	a, e
    00000C62 FD E5            [15] 3121 	push	iy
    00000C64 D1               [10] 3122 	pop	de
    00000C65 C5               [11] 3123 	push	bc
    00000C66 21 00 20         [10] 3124 	ld	hl, #0x2000
    00000C69 E5               [11] 3125 	push	hl
    00000C6A F5               [11] 3126 	push	af
    00000C6B 33               [ 6] 3127 	inc	sp
    00000C6C 26 A0            [ 7] 3128 	ld	h, #0xa0
    00000C6E CDr00r00         [17] 3129 	call	_VDP_WriteVRAM_128K
    00000C71 C1               [10] 3130 	pop	bc
                                   3131 ;./soccerlg.c:419: for (u8 i = 0; i < FIELD_SEG_COUNT; i++)
    00000C72 0C               [ 4] 3132 	inc	c
    00000C73 C3r17r0C         [10] 3133 	jp	00145$
    00000C76                       3134 00101$:
                                   3135 ;E:/Dropbox/FAUSTO/SVILUPPI/MSX/CODE/C/MSXgl/engine/src/rom_mapper.h:207: Poke((u16)&g_Bank0Segment[b] + 1, s);
    00000C76 01r06r00         [10] 3136 	ld	bc, #(_g_Bank0Segment + 6)
    00000C79 03               [ 6] 3137 	inc	bc
                                   3138 ;E:/Dropbox/FAUSTO/SVILUPPI/MSX/CODE/C/MSXgl/engine/src/system.h:101: inline void Poke(u16 addr, u8 val) { *(u8*)addr = val; }
    00000C7A DD 7E FE         [19] 3139 	ld	a, -2 (ix)
    00000C7D 02               [ 7] 3140 	ld	(bc), a
                                   3141 ;E:/Dropbox/FAUSTO/SVILUPPI/MSX/CODE/C/MSXgl/engine/src/rom_mapper.h:208: Poke(YAMANOOTO_OFFR, s << 6);
    00000C7E DD 7E FE         [19] 3142 	ld	a, -2 (ix)
    00000C81 0F               [ 4] 3143 	rrca
    00000C82 0F               [ 4] 3144 	rrca
    00000C83 E6 C0            [ 7] 3145 	and	a, #0xc0
                                   3146 ;E:/Dropbox/FAUSTO/SVILUPPI/MSX/CODE/C/MSXgl/engine/src/system.h:101: inline void Poke(u16 addr, u8 val) { *(u8*)addr = val; }
    00000C85 32 FE 7F         [13] 3147 	ld	(#0x7ffe),a
                                   3148 ;E:/Dropbox/FAUSTO/SVILUPPI/MSX/CODE/C/MSXgl/engine/src/rom_mapper.h:199: Poke((u16)&g_Bank0Segment[b] + 0, s);
                                   3149 ;E:/Dropbox/FAUSTO/SVILUPPI/MSX/CODE/C/MSXgl/engine/src/system.h:101: inline void Poke(u16 addr, u8 val) { *(u8*)addr = val; }
    00000C88 01r06r00         [10] 3150 	ld	bc, #(_g_Bank0Segment + 6)
    00000C8B DD 7E FF         [19] 3151 	ld	a, -1 (ix)
    00000C8E 02               [ 7] 3152 	ld	(bc), a
    00000C8F 21 00 B0         [10] 3153 	ld	hl, #0xb000
    00000C92 DD 7E FF         [19] 3154 	ld	a, -1 (ix)
    00000C95 77               [ 7] 3155 	ld	(hl), a
                                   3156 ;./soccerlg.c:429: SET_BANK_SEGMENT_LOW (3, v);
                                   3157 ;./soccerlg.c:430: }
    00000C96 DD F9            [10] 3158 	ld	sp, ix
    00000C98 DD E1            [14] 3159 	pop	ix
    00000C9A C9               [10] 3160 	ret
                                   3161 ;./soccerlg.c:437: void main()
                                   3162 ;	---------------------------------
                                   3163 ; Function main
                                   3164 ; ---------------------------------
    00000C9B                       3165 _main::
                                   3166 ;E:/Dropbox/FAUSTO/SVILUPPI/MSX/CODE/C/MSXgl/engine/src/system.h:193: inline u8 Sys_GetMSXVersion() { return g_MSXVER; } 
    00000C9B 3A 2D 00         [13] 3167 	ld	a, (_g_MSXVER+0)
                                   3168 ;./soccerlg.c:440: if (Sys_GetMSXVersion() == MSXVER_1)
    00000C9E B7               [ 4] 3169 	or	a, a
    00000C9F 20 16            [12] 3170 	jr	NZ, 00102$
                                   3171 ;./soccerlg.c:442: Bios_ClearScreen();
    00000CA1 CDr00r00         [17] 3172 	call	_Bios_ClearScreen
                                   3173 ;./soccerlg.c:443: Bios_TextPrintSting("This game need MSX2 or above");
    00000CA4 01r6Dr0F         [10] 3174 	ld	bc, #___str_0+0
                                   3175 ;E:/Dropbox/FAUSTO/SVILUPPI/MSX/CODE/C/MSXgl/engine/src/bios.h:343: inline void Bios_TextPrintString(const c8* str) { while (*str) Bios_TextPrintChar(*str++); }
    00000CA7                       3176 00104$:
    00000CA7 0A               [ 7] 3177 	ld	a, (bc)
    00000CA8 B7               [ 4] 3178 	or	a, a
    00000CA9 CA 9F 00         [10] 3179 	jp	Z,0x009f
    00000CAC 03               [ 6] 3180 	inc	bc
    00000CAD 5F               [ 4] 3181 	ld	e, a
                                   3182 ;E:/Dropbox/FAUSTO/SVILUPPI/MSX/CODE/C/MSXgl/engine/src/bios.h:339: inline void Bios_TextPrintChar(c8 chr) { ((void(*)(u8))R_CHPUT)(chr); }
    00000CAE C5               [11] 3183 	push	bc
    00000CAF 7B               [ 4] 3184 	ld	a, e
    00000CB0 CD A2 00         [17] 3185 	call	0x00a2
    00000CB3 C1               [10] 3186 	pop	bc
                                   3187 ;E:/Dropbox/FAUSTO/SVILUPPI/MSX/CODE/C/MSXgl/engine/src/bios.h:343: inline void Bios_TextPrintString(const c8* str) { while (*str) Bios_TextPrintChar(*str++); }
                                   3188 ;./soccerlg.c:443: Bios_TextPrintSting("This game need MSX2 or above");
                                   3189 ;E:/Dropbox/FAUSTO/SVILUPPI/MSX/CODE/C/MSXgl/engine/src/bios.h:331: inline c8 Bios_GetCharacter() { return ((u8(*)(void))R_CHGET)(); }
                                   3190 ;./soccerlg.c:445: return;
    00000CB4 C3rA7r0C         [10] 3191 	jp	00104$
    00000CB7                       3192 00102$:
                                   3193 ;./soccerlg.c:448: DEBUG_INIT();
    00000CB7 CDr00r00         [17] 3194 	call	_DEBUG_INIT
                                   3195 ;E:/Dropbox/FAUSTO/SVILUPPI/MSX/CODE/C/MSXgl/engine/src/bios.h:64: inline void Bios_SetKeyClick(bool enable) { g_CLIKSW = enable; }
    00000CBA 21 DB F3         [10] 3196 	ld	hl, #_g_CLIKSW
    00000CBD 36 00            [10] 3197 	ld	(hl), #0x00
                                   3198 ;./soccerlg.c:450: VDP_SetMode(VDP_MODE_SCREEN5);
    00000CBF 3E 06            [ 7] 3199 	ld	a, #0x06
    00000CC1 CDr00r00         [17] 3200 	call	_VDP_SetMode
                                   3201 ;E:/Dropbox/FAUSTO/SVILUPPI/MSX/CODE/C/MSXgl/engine/src/vdp.h:756: inline void VDP_EnableTransparency(u8 enable) { VDP_RegWriteBakMask(8, (u8)~R08_TP, !enable ? R08_TP : 0); }
    00000CC4 3E 20            [ 7] 3202 	ld	a, #0x20
    00000CC6 F5               [11] 3203 	push	af
    00000CC7 33               [ 6] 3204 	inc	sp
    00000CC8 2E DF            [ 7] 3205 	ld	l, #0xdf
                                   3206 ;	spillPairReg hl
                                   3207 ;	spillPairReg hl
    00000CCA 3E 08            [ 7] 3208 	ld	a, #0x08
    00000CCC CDr00r00         [17] 3209 	call	_VDP_RegWriteBakMask
                                   3210 ;./soccerlg.c:452: VDP_SetPalette(g_Palette);
    00000CCF 21r4Fr02         [10] 3211 	ld	hl, #_g_Palette
    00000CD2 CDr00r00         [17] 3212 	call	_VDP_SetPalette
                                   3213 ;E:/Dropbox/FAUSTO/SVILUPPI/MSX/CODE/C/MSXgl/engine/src/vdp.h:719: inline void VDP_SetColor(u8 color) { VDP_RegWrite(7, color); }
    00000CD5 2E 01            [ 7] 3214 	ld	l, #0x01
                                   3215 ;	spillPairReg hl
                                   3216 ;	spillPairReg hl
    00000CD7 3E 07            [ 7] 3217 	ld	a, #0x07
    00000CD9 CDr00r00         [17] 3218 	call	_VDP_RegWrite
                                   3219 ;E:/Dropbox/FAUSTO/SVILUPPI/MSX/CODE/C/MSXgl/engine/src/vdp.h:834: inline void VDP_SetLineCount(u8 lines) { VDP_RegWriteBakMask(9, (u8)~R09_LN, lines); }
    00000CDC AF               [ 4] 3220 	xor	a, a
    00000CDD F5               [11] 3221 	push	af
    00000CDE 33               [ 6] 3222 	inc	sp
    00000CDF 2E 7F            [ 7] 3223 	ld	l, #0x7f
                                   3224 ;	spillPairReg hl
                                   3225 ;	spillPairReg hl
    00000CE1 3E 09            [ 7] 3226 	ld	a, #0x09
    00000CE3 CDr00r00         [17] 3227 	call	_VDP_RegWriteBakMask
                                   3228 ;E:/Dropbox/FAUSTO/SVILUPPI/MSX/CODE/C/MSXgl/engine/src/vdp.h:745: inline void VDP_EnableSprite(u8 enable) { VDP_RegWriteBakMask(8, (u8)~R08_SPD, !enable ? R08_SPD : 0); }
    00000CE6 3E 02            [ 7] 3229 	ld	a, #0x02
    00000CE8 F5               [11] 3230 	push	af
    00000CE9 33               [ 6] 3231 	inc	sp
    00000CEA 2E FD            [ 7] 3232 	ld	l, #0xfd
                                   3233 ;	spillPairReg hl
                                   3234 ;	spillPairReg hl
    00000CEC 3E 08            [ 7] 3235 	ld	a, #0x08
    00000CEE CDr00r00         [17] 3236 	call	_VDP_RegWriteBakMask
                                   3237 ;./soccerlg.c:456: VDP_ClearVRAM();
    00000CF1 CDr00r00         [17] 3238 	call	_VDP_ClearVRAM
                                   3239 ;./soccerlg.c:457: VDP_FillVRAM(0x77, 0x0000, 0, 0x8000);
    00000CF4 21 00 80         [10] 3240 	ld	hl, #0x8000
    00000CF7 E5               [11] 3241 	push	hl
    00000CF8 AF               [ 4] 3242 	xor	a, a
    00000CF9 F5               [11] 3243 	push	af
    00000CFA 33               [ 6] 3244 	inc	sp
    00000CFB 11 00 00         [10] 3245 	ld	de, #0x0000
    00000CFE 3E 77            [ 7] 3246 	ld	a, #0x77
    00000D00 CDr00r00         [17] 3247 	call	_VDP_FillVRAM_128K
                                   3248 ;./soccerlg.c:462: LoadField(3);
    00000D03 3E 03            [ 7] 3249 	ld	a, #0x03
    00000D05 CDrE3r0B         [17] 3250 	call	_LoadField
                                   3251 ;E:/Dropbox/FAUSTO/SVILUPPI/MSX/CODE/C/MSXgl/engine/src/vdp_inl.h:167: g_VDP_Command.DX = dx; 
    00000D08 21 00 00         [10] 3252 	ld	hl, #0x0000
    00000D0B 22r04r00         [16] 3253 	ld	((_g_VDP_Command + 4)), hl
                                   3254 ;E:/Dropbox/FAUSTO/SVILUPPI/MSX/CODE/C/MSXgl/engine/src/vdp_inl.h:168: g_VDP_Command.DY = dy; 
    00000D0E 26 03            [ 7] 3255 	ld	h, #0x03
    00000D10 22r06r00         [16] 3256 	ld	((_g_VDP_Command + 6)), hl
                                   3257 ;E:/Dropbox/FAUSTO/SVILUPPI/MSX/CODE/C/MSXgl/engine/src/vdp_inl.h:169: g_VDP_Command.NX = nx; 
    00000D13 21 08 00         [10] 3258 	ld	hl, #0x0008
    00000D16 22r08r00         [16] 3259 	ld	((_g_VDP_Command + 8)), hl
                                   3260 ;E:/Dropbox/FAUSTO/SVILUPPI/MSX/CODE/C/MSXgl/engine/src/vdp_inl.h:170: g_VDP_Command.NY = ny; 
    00000D19 2E D4            [ 7] 3261 	ld	l, #0xd4
    00000D1B 22r0Ar00         [16] 3262 	ld	((_g_VDP_Command + 10)), hl
                                   3263 ;E:/Dropbox/FAUSTO/SVILUPPI/MSX/CODE/C/MSXgl/engine/src/vdp_inl.h:171: g_VDP_Command.CLR = col; 
    00000D1E 21r0Cr00         [10] 3264 	ld	hl, #(_g_VDP_Command + 12)
    00000D21 36 77            [10] 3265 	ld	(hl), #0x77
                                   3266 ;E:/Dropbox/FAUSTO/SVILUPPI/MSX/CODE/C/MSXgl/engine/src/vdp_inl.h:172: g_VDP_Command.ARG = arg; 
    00000D23 01r0Dr00         [10] 3267 	ld	bc, #_g_VDP_Command + 13
    00000D26 AF               [ 4] 3268 	xor	a, a
    00000D27 02               [ 7] 3269 	ld	(bc), a
                                   3270 ;E:/Dropbox/FAUSTO/SVILUPPI/MSX/CODE/C/MSXgl/engine/src/vdp_inl.h:173: g_VDP_Command.CMD = VDP_CMD_HMMV;
    00000D28 21r0Er00         [10] 3271 	ld	hl, #(_g_VDP_Command + 14)
    00000D2B 36 C0            [10] 3272 	ld	(hl), #0xc0
                                   3273 ;E:/Dropbox/FAUSTO/SVILUPPI/MSX/CODE/C/MSXgl/engine/src/vdp_inl.h:174: VPD_CommandSetupR36();
    00000D2D C5               [11] 3274 	push	bc
    00000D2E CDr00r00         [17] 3275 	call	_VPD_CommandSetupR36
    00000D31 C1               [10] 3276 	pop	bc
                                   3277 ;E:/Dropbox/FAUSTO/SVILUPPI/MSX/CODE/C/MSXgl/engine/src/vdp_inl.h:167: g_VDP_Command.DX = dx; 
    00000D32 21 00 00         [10] 3278 	ld	hl, #0x0000
    00000D35 22r04r00         [16] 3279 	ld	((_g_VDP_Command + 4)), hl
                                   3280 ;E:/Dropbox/FAUSTO/SVILUPPI/MSX/CODE/C/MSXgl/engine/src/vdp_inl.h:168: g_VDP_Command.DY = dy; 
    00000D38 26 03            [ 7] 3281 	ld	h, #0x03
    00000D3A 22r06r00         [16] 3282 	ld	((_g_VDP_Command + 6)), hl
                                   3283 ;E:/Dropbox/FAUSTO/SVILUPPI/MSX/CODE/C/MSXgl/engine/src/vdp_inl.h:169: g_VDP_Command.NX = nx; 
    00000D3D 21 08 00         [10] 3284 	ld	hl, #0x0008
    00000D40 22r08r00         [16] 3285 	ld	((_g_VDP_Command + 8)), hl
                                   3286 ;E:/Dropbox/FAUSTO/SVILUPPI/MSX/CODE/C/MSXgl/engine/src/vdp_inl.h:170: g_VDP_Command.NY = ny; 
    00000D43 2E D4            [ 7] 3287 	ld	l, #0xd4
    00000D45 22r0Ar00         [16] 3288 	ld	((_g_VDP_Command + 10)), hl
                                   3289 ;E:/Dropbox/FAUSTO/SVILUPPI/MSX/CODE/C/MSXgl/engine/src/vdp_inl.h:171: g_VDP_Command.CLR = col; 
    00000D48 21r0Cr00         [10] 3290 	ld	hl, #(_g_VDP_Command + 12)
    00000D4B 36 77            [10] 3291 	ld	(hl), #0x77
                                   3292 ;E:/Dropbox/FAUSTO/SVILUPPI/MSX/CODE/C/MSXgl/engine/src/vdp_inl.h:172: g_VDP_Command.ARG = arg; 
    00000D4D AF               [ 4] 3293 	xor	a, a
    00000D4E 02               [ 7] 3294 	ld	(bc), a
                                   3295 ;E:/Dropbox/FAUSTO/SVILUPPI/MSX/CODE/C/MSXgl/engine/src/vdp_inl.h:173: g_VDP_Command.CMD = VDP_CMD_HMMV;
    00000D4F 21r0Er00         [10] 3296 	ld	hl, #(_g_VDP_Command + 14)
    00000D52 36 C0            [10] 3297 	ld	(hl), #0xc0
                                   3298 ;E:/Dropbox/FAUSTO/SVILUPPI/MSX/CODE/C/MSXgl/engine/src/vdp_inl.h:174: VPD_CommandSetupR36();
    00000D54 CDr00r00         [17] 3299 	call	_VPD_CommandSetupR36
                                   3300 ;E:/Dropbox/FAUSTO/SVILUPPI/MSX/CODE/C/MSXgl/engine/src/rom_mapper.h:190: g_Bank0Segment[b] = s;
    00000D57 21 04 00         [10] 3301 	ld	hl, #0x0004
    00000D5A 22r06r00         [16] 3302 	ld	((_g_Bank0Segment + 6)), hl
                                   3303 ;E:/Dropbox/FAUSTO/SVILUPPI/MSX/CODE/C/MSXgl/engine/src/rom_mapper.h:191: Poke(YAMANOOTO_OFFR, (s >> 2) & 0xC0);
    00000D5D 3E 01            [ 7] 3304 	ld	a, #0x01
    00000D5F E6 C0            [ 7] 3305 	and	a, #0xc0
                                   3306 ;E:/Dropbox/FAUSTO/SVILUPPI/MSX/CODE/C/MSXgl/engine/src/system.h:101: inline void Poke(u16 addr, u8 val) { *(u8*)addr = val; }
    00000D61 32 FE 7F         [13] 3307 	ld	(#0x7ffe),a
                                   3308 ;E:/Dropbox/FAUSTO/SVILUPPI/MSX/CODE/C/MSXgl/engine/src/rom_mapper.h:195: else if (b == 3)	Poke(ADDR_BANK_3, s & 0xFF);
    00000D64 3E 04            [ 7] 3309 	ld	a, #0x04
                                   3310 ;E:/Dropbox/FAUSTO/SVILUPPI/MSX/CODE/C/MSXgl/engine/src/system.h:101: inline void Poke(u16 addr, u8 val) { *(u8*)addr = val; }
    00000D66 32 00 B0         [13] 3311 	ld	(#0xb000),a
                                   3312 ;./soccerlg.c:468: Print_SetBitmapFont(g_Fonts);
    00000D69 21r00r00         [10] 3313 	ld	hl, #_g_Fonts
    00000D6C CDr00r00         [17] 3314 	call	_Print_SetBitmapFont
                                   3315 ;./soccerlg.c:469: Print_SetColor(4, 7);
    00000D6F 2E 07            [ 7] 3316 	ld	l, #0x07
                                   3317 ;	spillPairReg hl
                                   3318 ;	spillPairReg hl
    00000D71 3E 04            [ 7] 3319 	ld	a, #0x04
    00000D73 CDr00r00         [17] 3320 	call	_Print_SetColor
                                   3321 ;E:/Dropbox/FAUSTO/SVILUPPI/MSX/CODE/C/MSXgl/engine/src/print.h:223: g_PrintData.CursorX = x;
    00000D76 01r05r00         [10] 3322 	ld	bc, #_g_PrintData + 5
    00000D79 AF               [ 4] 3323 	xor	a, a
    00000D7A 02               [ 7] 3324 	ld	(bc), a
                                   3325 ;E:/Dropbox/FAUSTO/SVILUPPI/MSX/CODE/C/MSXgl/engine/src/print.h:224: g_PrintData.CursorY = y;
    00000D7B 21 08 03         [10] 3326 	ld	hl, #0x0308
    00000D7E 22r06r00         [16] 3327 	ld	((_g_PrintData + 6)), hl
                                   3328 ;./soccerlg.c:471: Print_SetPosition(0,  8+768);Print_DrawText("A");
    00000D81 C5               [11] 3329 	push	bc
    00000D82 21r8Ar0F         [10] 3330 	ld	hl, #___str_1
    00000D85 CDr00r00         [17] 3331 	call	_Print_DrawText
    00000D88 C1               [10] 3332 	pop	bc
                                   3333 ;E:/Dropbox/FAUSTO/SVILUPPI/MSX/CODE/C/MSXgl/engine/src/print.h:223: g_PrintData.CursorX = x;
    00000D89 AF               [ 4] 3334 	xor	a, a
    00000D8A 02               [ 7] 3335 	ld	(bc), a
                                   3336 ;E:/Dropbox/FAUSTO/SVILUPPI/MSX/CODE/C/MSXgl/engine/src/print.h:224: g_PrintData.CursorY = y;
    00000D8B 21 10 03         [10] 3337 	ld	hl, #0x0310
    00000D8E 22r06r00         [16] 3338 	ld	((_g_PrintData + 6)), hl
                                   3339 ;./soccerlg.c:472: Print_SetPosition(0,  16+768);Print_DrawText("U");
    00000D91 C5               [11] 3340 	push	bc
    00000D92 21r8Cr0F         [10] 3341 	ld	hl, #___str_2
    00000D95 CDr00r00         [17] 3342 	call	_Print_DrawText
    00000D98 C1               [10] 3343 	pop	bc
                                   3344 ;E:/Dropbox/FAUSTO/SVILUPPI/MSX/CODE/C/MSXgl/engine/src/print.h:223: g_PrintData.CursorX = x;
    00000D99 AF               [ 4] 3345 	xor	a, a
    00000D9A 02               [ 7] 3346 	ld	(bc), a
                                   3347 ;E:/Dropbox/FAUSTO/SVILUPPI/MSX/CODE/C/MSXgl/engine/src/print.h:224: g_PrintData.CursorY = y;
    00000D9B 21 18 03         [10] 3348 	ld	hl, #0x0318
    00000D9E 22r06r00         [16] 3349 	ld	((_g_PrintData + 6)), hl
                                   3350 ;./soccerlg.c:473: Print_SetPosition(0,  24+768);Print_DrawText("S");
    00000DA1 C5               [11] 3351 	push	bc
    00000DA2 21r8Er0F         [10] 3352 	ld	hl, #___str_3
    00000DA5 CDr00r00         [17] 3353 	call	_Print_DrawText
    00000DA8 C1               [10] 3354 	pop	bc
                                   3355 ;E:/Dropbox/FAUSTO/SVILUPPI/MSX/CODE/C/MSXgl/engine/src/print.h:223: g_PrintData.CursorX = x;
    00000DA9 AF               [ 4] 3356 	xor	a, a
    00000DAA 02               [ 7] 3357 	ld	(bc), a
                                   3358 ;E:/Dropbox/FAUSTO/SVILUPPI/MSX/CODE/C/MSXgl/engine/src/print.h:224: g_PrintData.CursorY = y;
    00000DAB 21 20 03         [10] 3359 	ld	hl, #0x0320
    00000DAE 22r06r00         [16] 3360 	ld	((_g_PrintData + 6)), hl
                                   3361 ;./soccerlg.c:474: Print_SetPosition(0,  32+768);Print_DrawText(" ");
    00000DB1 C5               [11] 3362 	push	bc
    00000DB2 21r90r0F         [10] 3363 	ld	hl, #___str_4
    00000DB5 CDr00r00         [17] 3364 	call	_Print_DrawText
    00000DB8 C1               [10] 3365 	pop	bc
                                   3366 ;E:/Dropbox/FAUSTO/SVILUPPI/MSX/CODE/C/MSXgl/engine/src/print.h:223: g_PrintData.CursorX = x;
    00000DB9 AF               [ 4] 3367 	xor	a, a
    00000DBA 02               [ 7] 3368 	ld	(bc), a
                                   3369 ;E:/Dropbox/FAUSTO/SVILUPPI/MSX/CODE/C/MSXgl/engine/src/print.h:224: g_PrintData.CursorY = y;
    00000DBB 21 28 03         [10] 3370 	ld	hl, #0x0328
    00000DBE 22r06r00         [16] 3371 	ld	((_g_PrintData + 6)), hl
                                   3372 ;./soccerlg.c:475: Print_SetPosition(0,  40+768);Print_DrawText("1");
    00000DC1 C5               [11] 3373 	push	bc
    00000DC2 21r92r0F         [10] 3374 	ld	hl, #___str_5
    00000DC5 CDr00r00         [17] 3375 	call	_Print_DrawText
    00000DC8 C1               [10] 3376 	pop	bc
                                   3377 ;E:/Dropbox/FAUSTO/SVILUPPI/MSX/CODE/C/MSXgl/engine/src/print.h:223: g_PrintData.CursorX = x;
    00000DC9 AF               [ 4] 3378 	xor	a, a
    00000DCA 02               [ 7] 3379 	ld	(bc), a
                                   3380 ;E:/Dropbox/FAUSTO/SVILUPPI/MSX/CODE/C/MSXgl/engine/src/print.h:224: g_PrintData.CursorY = y;
    00000DCB 21 38 03         [10] 3381 	ld	hl, #0x0338
    00000DCE 22r06r00         [16] 3382 	ld	((_g_PrintData + 6)), hl
                                   3383 ;./soccerlg.c:477: Print_SetPosition(0,  56+768);Print_DrawText("I");
    00000DD1 C5               [11] 3384 	push	bc
    00000DD2 21r94r0F         [10] 3385 	ld	hl, #___str_6
    00000DD5 CDr00r00         [17] 3386 	call	_Print_DrawText
    00000DD8 C1               [10] 3387 	pop	bc
                                   3388 ;E:/Dropbox/FAUSTO/SVILUPPI/MSX/CODE/C/MSXgl/engine/src/print.h:223: g_PrintData.CursorX = x;
    00000DD9 AF               [ 4] 3389 	xor	a, a
    00000DDA 02               [ 7] 3390 	ld	(bc), a
                                   3391 ;E:/Dropbox/FAUSTO/SVILUPPI/MSX/CODE/C/MSXgl/engine/src/print.h:224: g_PrintData.CursorY = y;
    00000DDB 21 40 03         [10] 3392 	ld	hl, #0x0340
    00000DDE 22r06r00         [16] 3393 	ld	((_g_PrintData + 6)), hl
                                   3394 ;./soccerlg.c:478: Print_SetPosition(0,  64+768);Print_DrawText("T");
    00000DE1 C5               [11] 3395 	push	bc
    00000DE2 21r96r0F         [10] 3396 	ld	hl, #___str_7
    00000DE5 CDr00r00         [17] 3397 	call	_Print_DrawText
    00000DE8 C1               [10] 3398 	pop	bc
                                   3399 ;E:/Dropbox/FAUSTO/SVILUPPI/MSX/CODE/C/MSXgl/engine/src/print.h:223: g_PrintData.CursorX = x;
    00000DE9 AF               [ 4] 3400 	xor	a, a
    00000DEA 02               [ 7] 3401 	ld	(bc), a
                                   3402 ;E:/Dropbox/FAUSTO/SVILUPPI/MSX/CODE/C/MSXgl/engine/src/print.h:224: g_PrintData.CursorY = y;
    00000DEB 21 48 03         [10] 3403 	ld	hl, #0x0348
    00000DEE 22r06r00         [16] 3404 	ld	((_g_PrintData + 6)), hl
                                   3405 ;./soccerlg.c:479: Print_SetPosition(0,  72+768);Print_DrawText("A");
    00000DF1 C5               [11] 3406 	push	bc
    00000DF2 21r8Ar0F         [10] 3407 	ld	hl, #___str_1
    00000DF5 CDr00r00         [17] 3408 	call	_Print_DrawText
    00000DF8 C1               [10] 3409 	pop	bc
                                   3410 ;E:/Dropbox/FAUSTO/SVILUPPI/MSX/CODE/C/MSXgl/engine/src/print.h:223: g_PrintData.CursorX = x;
    00000DF9 AF               [ 4] 3411 	xor	a, a
    00000DFA 02               [ 7] 3412 	ld	(bc), a
                                   3413 ;E:/Dropbox/FAUSTO/SVILUPPI/MSX/CODE/C/MSXgl/engine/src/print.h:224: g_PrintData.CursorY = y;
    00000DFB 21 50 03         [10] 3414 	ld	hl, #0x0350
    00000DFE 22r06r00         [16] 3415 	ld	((_g_PrintData + 6)), hl
                                   3416 ;./soccerlg.c:480: Print_SetPosition(0,  80+768);Print_DrawText(" ");
    00000E01 C5               [11] 3417 	push	bc
    00000E02 21r90r0F         [10] 3418 	ld	hl, #___str_4
    00000E05 CDr00r00         [17] 3419 	call	_Print_DrawText
    00000E08 C1               [10] 3420 	pop	bc
                                   3421 ;E:/Dropbox/FAUSTO/SVILUPPI/MSX/CODE/C/MSXgl/engine/src/print.h:223: g_PrintData.CursorX = x;
    00000E09 AF               [ 4] 3422 	xor	a, a
    00000E0A 02               [ 7] 3423 	ld	(bc), a
                                   3424 ;E:/Dropbox/FAUSTO/SVILUPPI/MSX/CODE/C/MSXgl/engine/src/print.h:224: g_PrintData.CursorY = y;
    00000E0B 21 58 03         [10] 3425 	ld	hl, #0x0358
    00000E0E 22r06r00         [16] 3426 	ld	((_g_PrintData + 6)), hl
                                   3427 ;./soccerlg.c:481: Print_SetPosition(0,  88+768);Print_DrawText("2");
    00000E11 C5               [11] 3428 	push	bc
    00000E12 21r98r0F         [10] 3429 	ld	hl, #___str_8
    00000E15 CDr00r00         [17] 3430 	call	_Print_DrawText
    00000E18 C1               [10] 3431 	pop	bc
                                   3432 ;E:/Dropbox/FAUSTO/SVILUPPI/MSX/CODE/C/MSXgl/engine/src/print.h:223: g_PrintData.CursorX = x;
    00000E19 3E F8            [ 7] 3433 	ld	a, #0xf8
    00000E1B 02               [ 7] 3434 	ld	(bc), a
                                   3435 ;E:/Dropbox/FAUSTO/SVILUPPI/MSX/CODE/C/MSXgl/engine/src/print.h:224: g_PrintData.CursorY = y;
    00000E1C 21 08 03         [10] 3436 	ld	hl, #0x0308
    00000E1F 22r06r00         [16] 3437 	ld	((_g_PrintData + 6)), hl
                                   3438 ;./soccerlg.c:484: Print_SetPosition(248,  8+768);Print_DrawText("T");
    00000E22 C5               [11] 3439 	push	bc
    00000E23 21r96r0F         [10] 3440 	ld	hl, #___str_7
    00000E26 CDr00r00         [17] 3441 	call	_Print_DrawText
    00000E29 C1               [10] 3442 	pop	bc
                                   3443 ;E:/Dropbox/FAUSTO/SVILUPPI/MSX/CODE/C/MSXgl/engine/src/print.h:223: g_PrintData.CursorX = x;
    00000E2A 3E F8            [ 7] 3444 	ld	a, #0xf8
    00000E2C 02               [ 7] 3445 	ld	(bc), a
                                   3446 ;E:/Dropbox/FAUSTO/SVILUPPI/MSX/CODE/C/MSXgl/engine/src/print.h:224: g_PrintData.CursorY = y;
    00000E2D 21 10 03         [10] 3447 	ld	hl, #0x0310
    00000E30 22r06r00         [16] 3448 	ld	((_g_PrintData + 6)), hl
                                   3449 ;./soccerlg.c:485: Print_SetPosition(248,  16+768);Print_DrawText("I");
    00000E33 C5               [11] 3450 	push	bc
    00000E34 21r94r0F         [10] 3451 	ld	hl, #___str_6
    00000E37 CDr00r00         [17] 3452 	call	_Print_DrawText
    00000E3A C1               [10] 3453 	pop	bc
                                   3454 ;E:/Dropbox/FAUSTO/SVILUPPI/MSX/CODE/C/MSXgl/engine/src/print.h:223: g_PrintData.CursorX = x;
    00000E3B 3E F8            [ 7] 3455 	ld	a, #0xf8
    00000E3D 02               [ 7] 3456 	ld	(bc), a
                                   3457 ;E:/Dropbox/FAUSTO/SVILUPPI/MSX/CODE/C/MSXgl/engine/src/print.h:224: g_PrintData.CursorY = y;
    00000E3E 21 18 03         [10] 3458 	ld	hl, #0x0318
    00000E41 22r06r00         [16] 3459 	ld	((_g_PrintData + 6)), hl
                                   3460 ;./soccerlg.c:486: Print_SetPosition(248,  24+768);Print_DrawText("M");
    00000E44 C5               [11] 3461 	push	bc
    00000E45 21r9Ar0F         [10] 3462 	ld	hl, #___str_9
    00000E48 CDr00r00         [17] 3463 	call	_Print_DrawText
    00000E4B C1               [10] 3464 	pop	bc
                                   3465 ;E:/Dropbox/FAUSTO/SVILUPPI/MSX/CODE/C/MSXgl/engine/src/print.h:223: g_PrintData.CursorX = x;
    00000E4C 3E F8            [ 7] 3466 	ld	a, #0xf8
    00000E4E 02               [ 7] 3467 	ld	(bc), a
                                   3468 ;E:/Dropbox/FAUSTO/SVILUPPI/MSX/CODE/C/MSXgl/engine/src/print.h:224: g_PrintData.CursorY = y;
    00000E4F 21 20 03         [10] 3469 	ld	hl, #0x0320
    00000E52 22r06r00         [16] 3470 	ld	((_g_PrintData + 6)), hl
                                   3471 ;./soccerlg.c:487: Print_SetPosition(248,  32+768);Print_DrawText("E");
    00000E55 C5               [11] 3472 	push	bc
    00000E56 21r9Cr0F         [10] 3473 	ld	hl, #___str_10
    00000E59 CDr00r00         [17] 3474 	call	_Print_DrawText
    00000E5C C1               [10] 3475 	pop	bc
                                   3476 ;E:/Dropbox/FAUSTO/SVILUPPI/MSX/CODE/C/MSXgl/engine/src/print.h:223: g_PrintData.CursorX = x;
    00000E5D 3E F8            [ 7] 3477 	ld	a, #0xf8
    00000E5F 02               [ 7] 3478 	ld	(bc), a
                                   3479 ;E:/Dropbox/FAUSTO/SVILUPPI/MSX/CODE/C/MSXgl/engine/src/print.h:224: g_PrintData.CursorY = y;
    00000E60 21 30 03         [10] 3480 	ld	hl, #0x0330
    00000E63 22r06r00         [16] 3481 	ld	((_g_PrintData + 6)), hl
                                   3482 ;./soccerlg.c:489: Print_SetPosition(248,  48+768);Print_DrawFormat("%i",Mins);//Print_DrawText("3");	
    00000E66 3Ar02r00         [13] 3483 	ld	a, (_Mins+0)
    00000E69 5F               [ 4] 3484 	ld	e, a
    00000E6A 16 00            [ 7] 3485 	ld	d, #0x00
    00000E6C C5               [11] 3486 	push	bc
    00000E6D D5               [11] 3487 	push	de
    00000E6E 21r9Er0F         [10] 3488 	ld	hl, #___str_11
    00000E71 E5               [11] 3489 	push	hl
    00000E72 CDr00r00         [17] 3490 	call	_Print_DrawFormat
    00000E75 F1               [10] 3491 	pop	af
    00000E76 F1               [10] 3492 	pop	af
    00000E77 C1               [10] 3493 	pop	bc
                                   3494 ;E:/Dropbox/FAUSTO/SVILUPPI/MSX/CODE/C/MSXgl/engine/src/print.h:223: g_PrintData.CursorX = x;
    00000E78 3E F8            [ 7] 3495 	ld	a, #0xf8
    00000E7A 02               [ 7] 3496 	ld	(bc), a
                                   3497 ;E:/Dropbox/FAUSTO/SVILUPPI/MSX/CODE/C/MSXgl/engine/src/print.h:224: g_PrintData.CursorY = y;
    00000E7B 21 3C 03         [10] 3498 	ld	hl, #0x033c
    00000E7E 22r06r00         [16] 3499 	ld	((_g_PrintData + 6)), hl
                                   3500 ;./soccerlg.c:490: Print_SetPosition(248,  60+768);Print_DrawFormat("%i",Secs/10);	
    00000E81 3Ar01r00         [13] 3501 	ld	a, (_Secs+0)
    00000E84 6F               [ 4] 3502 	ld	l, a
                                   3503 ;	spillPairReg hl
                                   3504 ;	spillPairReg hl
    00000E85 26 00            [ 7] 3505 	ld	h, #0x00
                                   3506 ;	spillPairReg hl
                                   3507 ;	spillPairReg hl
    00000E87 C5               [11] 3508 	push	bc
    00000E88 11 0A 00         [10] 3509 	ld	de, #0x000a
    00000E8B CDr00r00         [17] 3510 	call	__divsint
    00000E8E D5               [11] 3511 	push	de
    00000E8F 21r9Er0F         [10] 3512 	ld	hl, #___str_11
    00000E92 E5               [11] 3513 	push	hl
    00000E93 CDr00r00         [17] 3514 	call	_Print_DrawFormat
    00000E96 F1               [10] 3515 	pop	af
    00000E97 F1               [10] 3516 	pop	af
    00000E98 C1               [10] 3517 	pop	bc
                                   3518 ;E:/Dropbox/FAUSTO/SVILUPPI/MSX/CODE/C/MSXgl/engine/src/print.h:223: g_PrintData.CursorX = x;
    00000E99 3E F8            [ 7] 3519 	ld	a, #0xf8
    00000E9B 02               [ 7] 3520 	ld	(bc), a
                                   3521 ;E:/Dropbox/FAUSTO/SVILUPPI/MSX/CODE/C/MSXgl/engine/src/print.h:224: g_PrintData.CursorY = y;
    00000E9C 21 44 03         [10] 3522 	ld	hl, #0x0344
    00000E9F 22r06r00         [16] 3523 	ld	((_g_PrintData + 6)), hl
                                   3524 ;./soccerlg.c:491: Print_SetPosition(248,  68+768);Print_DrawFormat("%i",Secs-Secs/10*10);	
    00000EA2 3Ar01r00         [13] 3525 	ld	a, (_Secs+0)
    00000EA5 4F               [ 4] 3526 	ld	c, a
    00000EA6 06 00            [ 7] 3527 	ld	b, #0x00
    00000EA8 C5               [11] 3528 	push	bc
    00000EA9 11 0A 00         [10] 3529 	ld	de, #0x000a
    00000EAC 69               [ 4] 3530 	ld	l, c
                                   3531 ;	spillPairReg hl
                                   3532 ;	spillPairReg hl
    00000EAD 60               [ 4] 3533 	ld	h, b
                                   3534 ;	spillPairReg hl
                                   3535 ;	spillPairReg hl
    00000EAE CDr00r00         [17] 3536 	call	__divsint
    00000EB1 C1               [10] 3537 	pop	bc
    00000EB2 6B               [ 4] 3538 	ld	l, e
    00000EB3 62               [ 4] 3539 	ld	h, d
    00000EB4 29               [11] 3540 	add	hl, hl
    00000EB5 29               [11] 3541 	add	hl, hl
    00000EB6 19               [11] 3542 	add	hl, de
    00000EB7 29               [11] 3543 	add	hl, hl
    00000EB8 79               [ 4] 3544 	ld	a, c
    00000EB9 95               [ 4] 3545 	sub	a, l
    00000EBA 4F               [ 4] 3546 	ld	c, a
    00000EBB 78               [ 4] 3547 	ld	a, b
    00000EBC 9C               [ 4] 3548 	sbc	a, h
    00000EBD 47               [ 4] 3549 	ld	b, a
    00000EBE C5               [11] 3550 	push	bc
    00000EBF 21r9Er0F         [10] 3551 	ld	hl, #___str_11
    00000EC2 E5               [11] 3552 	push	hl
    00000EC3 CDr00r00         [17] 3553 	call	_Print_DrawFormat
    00000EC6 F1               [10] 3554 	pop	af
    00000EC7 F1               [10] 3555 	pop	af
                                   3556 ;./soccerlg.c:500: Field.dy = 1;
    00000EC8 21r3Ar02         [10] 3557 	ld	hl, #(_Field + 18)
    00000ECB 36 01            [10] 3558 	ld	(hl), #0x01
                                   3559 ;./soccerlg.c:501: Field.ly = 0;
    00000ECD 21 00 00         [10] 3560 	ld	hl, #0x0000
    00000ED0 22r2Cr02         [16] 3561 	ld	((_Field + 4)), hl
                                   3562 ;./soccerlg.c:503: ScoreBoardLeft.lx = 0;
    00000ED3 21r3Fr02         [10] 3563 	ld	hl, #_ScoreBoardLeft
    00000ED6 36 00            [10] 3564 	ld	(hl), #0x00
                                   3565 ;./soccerlg.c:504: ScoreBoardLeft.ly = Field.ly;
    00000ED8 ED 4Br2Cr02      [20] 3566 	ld	bc, (#(_Field + 4) + 0)
    00000EDC ED 43r43r02      [20] 3567 	ld	((_ScoreBoardLeft + 4)), bc
                                   3568 ;./soccerlg.c:506: ScoreBoardRight.lx = 248;
    00000EE0 21r56r02         [10] 3569 	ld	hl, #_ScoreBoardRight
    00000EE3 36 F8            [10] 3570 	ld	(hl), #0xf8
                                   3571 ;./soccerlg.c:507: ScoreBoardRight.ly = Field.ly;
    00000EE5 ED 4Br2Cr02      [20] 3572 	ld	bc, (#(_Field + 4) + 0)
    00000EE9 ED 43r5Ar02      [20] 3573 	ld	((_ScoreBoardRight + 4)), bc
                                   3574 ;E:/Dropbox/FAUSTO/SVILUPPI/MSX/CODE/C/MSXgl/engine/src/vdp.h:705: inline void VDP_EnableDisplay(bool enable) { VDP_RegWriteBakMask(1, (u8)~R01_BL, enable ? R01_BL : 0); }
    00000EED AF               [ 4] 3575 	xor	a, a
    00000EEE F5               [11] 3576 	push	af
    00000EEF 33               [ 6] 3577 	inc	sp
    00000EF0 2E BF            [ 7] 3578 	ld	l, #0xbf
                                   3579 ;	spillPairReg hl
                                   3580 ;	spillPairReg hl
    00000EF2 3E 01            [ 7] 3581 	ld	a, #0x01
    00000EF4 CDr00r00         [17] 3582 	call	_VDP_RegWriteBakMask
                                   3583 ;./soccerlg.c:510: CallFnc_VOID_16_P2(SEG_DRAW, PlotField, Field.ly,   0);
    00000EF7 2Ar2Cr02         [16] 3584 	ld	hl, (#(_Field + 4) + 0)
    00000EFA 11 00 00         [10] 3585 	ld	de, #0x0000
    00000EFD D5               [11] 3586 	push	de
    00000EFE E5               [11] 3587 	push	hl
    00000EFF 11r00r00         [10] 3588 	ld	de, #_PlotField
    00000F02 3E 05            [ 7] 3589 	ld	a, #0x05
    00000F04 CDrF1r04         [17] 3590 	call	_CallFnc_VOID_16_P2
                                   3591 ;./soccerlg.c:511: CallFnc_VOID_16_P2(SEG_DRAW, PlotField, Field.ly, 256);
    00000F07 2Ar2Cr02         [16] 3592 	ld	hl, (#(_Field + 4) + 0)
    00000F0A 11 00 01         [10] 3593 	ld	de, #0x0100
    00000F0D D5               [11] 3594 	push	de
    00000F0E E5               [11] 3595 	push	hl
    00000F0F 11r00r00         [10] 3596 	ld	de, #_PlotField
    00000F12 3E 05            [ 7] 3597 	ld	a, #0x05
    00000F14 CDrF1r04         [17] 3598 	call	_CallFnc_VOID_16_P2
                                   3599 ;./soccerlg.c:512: CallFnc_VOID_16_P2(SEG_DRAW, PlotField, Field.ly, 512);
    00000F17 2Ar2Cr02         [16] 3600 	ld	hl, (#(_Field + 4) + 0)
    00000F1A 11 00 02         [10] 3601 	ld	de, #0x0200
    00000F1D D5               [11] 3602 	push	de
    00000F1E E5               [11] 3603 	push	hl
    00000F1F 11r00r00         [10] 3604 	ld	de, #_PlotField
    00000F22 3E 05            [ 7] 3605 	ld	a, #0x05
    00000F24 CDrF1r04         [17] 3606 	call	_CallFnc_VOID_16_P2
                                   3607 ;./soccerlg.c:522: Bios_SetHookCallback(H_TIMI, VSyncCallback);
    00000F27 11r95r0B         [10] 3608 	ld	de, #_VSyncCallback
    00000F2A 21 9F FD         [10] 3609 	ld	hl, #0xfd9f
    00000F2D CDr00r00         [17] 3610 	call	_Bios_SetHookCallback
                                   3611 ;./soccerlg.c:524: ScoreBoardLeft.x0 = ScoreBoardLeft.lx;
    00000F30 01r40r02         [10] 3612 	ld	bc, #_ScoreBoardLeft + 1
    00000F33 3Ar3Fr02         [13] 3613 	ld	a, (#_ScoreBoardLeft + 0)
    00000F36 02               [ 7] 3614 	ld	(bc), a
                                   3615 ;./soccerlg.c:525: ScoreBoardLeft.x1 = ScoreBoardLeft.lx;
    00000F37 01r41r02         [10] 3616 	ld	bc, #_ScoreBoardLeft + 2
    00000F3A 3Ar3Fr02         [13] 3617 	ld	a, (#_ScoreBoardLeft + 0)
    00000F3D 02               [ 7] 3618 	ld	(bc), a
                                   3619 ;./soccerlg.c:526: ScoreBoardLeft.x2 = ScoreBoardLeft.lx;
    00000F3E 01r42r02         [10] 3620 	ld	bc, #_ScoreBoardLeft + 3
    00000F41 3Ar3Fr02         [13] 3621 	ld	a, (#_ScoreBoardLeft + 0)
    00000F44 02               [ 7] 3622 	ld	(bc), a
                                   3623 ;./soccerlg.c:528: ScoreBoardRight.x0 = ScoreBoardRight.lx;
    00000F45 01r57r02         [10] 3624 	ld	bc, #_ScoreBoardRight + 1
    00000F48 3Ar56r02         [13] 3625 	ld	a, (#_ScoreBoardRight + 0)
    00000F4B 02               [ 7] 3626 	ld	(bc), a
                                   3627 ;./soccerlg.c:529: ScoreBoardRight.x1 = ScoreBoardRight.lx;
    00000F4C 01r58r02         [10] 3628 	ld	bc, #_ScoreBoardRight + 2
    00000F4F 3Ar56r02         [13] 3629 	ld	a, (#_ScoreBoardRight + 0)
    00000F52 02               [ 7] 3630 	ld	(bc), a
                                   3631 ;./soccerlg.c:530: ScoreBoardRight.x2 = ScoreBoardRight.lx;
    00000F53 01r59r02         [10] 3632 	ld	bc, #_ScoreBoardRight + 3
    00000F56 3Ar56r02         [13] 3633 	ld	a, (#_ScoreBoardRight + 0)
    00000F59 02               [ 7] 3634 	ld	(bc), a
                                   3635 ;E:/Dropbox/FAUSTO/SVILUPPI/MSX/CODE/C/MSXgl/engine/src/vdp.h:705: inline void VDP_EnableDisplay(bool enable) { VDP_RegWriteBakMask(1, (u8)~R01_BL, enable ? R01_BL : 0); }
    00000F5A 3E 40            [ 7] 3636 	ld	a, #0x40
    00000F5C F5               [11] 3637 	push	af
    00000F5D 33               [ 6] 3638 	inc	sp
    00000F5E 2E BF            [ 7] 3639 	ld	l, #0xbf
                                   3640 ;	spillPairReg hl
                                   3641 ;	spillPairReg hl
    00000F60 3E 01            [ 7] 3642 	ld	a, #0x01
    00000F62 CDr00r00         [17] 3643 	call	_VDP_RegWriteBakMask
                                   3644 ;./soccerlg.c:535: CallFnc_VOID(4,MainLoop);
    00000F65 11r00r00         [10] 3645 	ld	de, #_MainLoop
    00000F68 3E 04            [ 7] 3646 	ld	a, #0x04
                                   3647 ;./soccerlg.c:537: }
    00000F6A C3r00r00         [10] 3648 	jp	_CallFnc_VOID
    00000F6D                       3649 ___str_0:
    00000F6D 54 68 69 73 20 67 61  3650 	.ascii "This game need MSX2 or above"
             6D 65 20 6E 65 65 64
             20 4D 53 58 32 20 6F
             72 20 61 62 6F 76 65
    00000F89 00                    3651 	.db 0x00
    00000F8A                       3652 ___str_1:
    00000F8A 41                    3653 	.ascii "A"
    00000F8B 00                    3654 	.db 0x00
    00000F8C                       3655 ___str_2:
    00000F8C 55                    3656 	.ascii "U"
    00000F8D 00                    3657 	.db 0x00
    00000F8E                       3658 ___str_3:
    00000F8E 53                    3659 	.ascii "S"
    00000F8F 00                    3660 	.db 0x00
    00000F90                       3661 ___str_4:
    00000F90 20                    3662 	.ascii " "
    00000F91 00                    3663 	.db 0x00
    00000F92                       3664 ___str_5:
    00000F92 31                    3665 	.ascii "1"
    00000F93 00                    3666 	.db 0x00
    00000F94                       3667 ___str_6:
    00000F94 49                    3668 	.ascii "I"
    00000F95 00                    3669 	.db 0x00
    00000F96                       3670 ___str_7:
    00000F96 54                    3671 	.ascii "T"
    00000F97 00                    3672 	.db 0x00
    00000F98                       3673 ___str_8:
    00000F98 32                    3674 	.ascii "2"
    00000F99 00                    3675 	.db 0x00
    00000F9A                       3676 ___str_9:
    00000F9A 4D                    3677 	.ascii "M"
    00000F9B 00                    3678 	.db 0x00
    00000F9C                       3679 ___str_10:
    00000F9C 45                    3680 	.ascii "E"
    00000F9D 00                    3681 	.db 0x00
    00000F9E                       3682 ___str_11:
    00000F9E 25 69                 3683 	.ascii "%i"
    00000FA0 00                    3684 	.db 0x00
                                   3685 	.area _CODE
                                   3686 	.area _INITIALIZER
    00000000                       3687 __xinit__Frms:
    00000000 3C                    3688 	.db #0x3c	; 60
    00000001                       3689 __xinit__Secs:
    00000001 00                    3690 	.db #0x00	; 0
    00000002                       3691 __xinit__Mins:
    00000002 01                    3692 	.db #0x01	; 1
    00000003                       3693 __xinit__LastSecs:
    00000003 FF                    3694 	.db #0xff	; 255
    00000004                       3695 __xinit__Half:
    00000004 01                    3696 	.db #0x01	; 1
    00000005                       3697 __xinit__ScoreA:
    00000005 00                    3698 	.db #0x00	; 0
    00000006                       3699 __xinit__ScoreB:
    00000006 00                    3700 	.db #0x00	; 0
    00000007                       3701 __xinit__Team1Code:
    00000007 00                    3702 	.db #0x00	; 0
    00000008                       3703 __xinit__Team2Code:
    00000008 04                    3704 	.db #0x04	; 4
    00000009                       3705 __xinit__KickOffTeam:
    00000009 01                    3706 	.db #0x01	; 1
    0000000A                       3707 __xinit__GameMode:
    0000000A 00                    3708 	.db #0x00	; 0
    0000000B                       3709 __xinit__T1_Carrier:
    0000000B FF                    3710 	.db #0xff	; 255
    0000000C                       3711 __xinit__T1_Receiver:
    0000000C FF                    3712 	.db #0xff	; 255
    0000000D                       3713 __xinit__T2_Carrier:
    0000000D FF                    3714 	.db #0xff	; 255
    0000000E                       3715 __xinit__T2_Receiver:
    0000000E FF                    3716 	.db #0xff	; 255
    0000000F                       3717 __xinit__TimerEnabled:
    0000000F 00                    3718 	.db #0x00	; 0
    00000010                       3719 __xinit__LastTouchTeam:
    00000010 FF                    3720 	.db #0xff	; 255
    00000011                       3721 __xinit__LastTouchPlayer:
    00000011 FF                    3722 	.db #0xff	; 255
    00000012                       3723 __xinit__RestartType:
    00000012 00                    3724 	.db #0x00	; 0
    00000013                       3725 __xinit__RestartSideX:
    00000013 00                    3726 	.db #0x00	; 0
    00000014                       3727 __xinit__RestartSideY:
    00000014 00 00                 3728 	.dw #0x0000
    00000016                       3729 __xinit__g_throw_rec_1:
    00000016 FF                    3730 	.db #0xff	; 255
    00000017                       3731 __xinit__g_throw_rec_2:
    00000017 FF                    3732 	.db #0xff	; 255
    00000018                       3733 __xinit__g_selected_rec:
    00000018 00                    3734 	.db #0x00	; 0
    00000019                       3735 __xinit__g_thrower_id:
    00000019 FF                    3736 	.db #0xff	; 255
    0000001A                       3737 __xinit__g_pass_start_x:
    0000001A 00 00                 3738 	.dw #0x0000
    0000001C                       3739 __xinit__g_pass_start_y:
    0000001C 00 00                 3740 	.dw #0x0000
    0000001E                       3741 __xinit__g_pass_target_x:
    0000001E 00 00                 3742 	.dw #0x0000
    00000020                       3743 __xinit__g_pass_target_y:
    00000020 00 00                 3744 	.dw #0x0000
    00000022                       3745 __xinit__g_pass_max_frames:
    00000022 0A                    3746 	.db #0x0a	; 10
    00000023                       3747 __xinit__g_pass_max_height:
    00000023 07                    3748 	.db #0x07	; 7
    00000024                       3749 __xinit__g_pass_receiver:
    00000024 FF                    3750 	.db #0xff	; 255
    00000025                       3751 __xinit__g_last_dx:
    00000025 00                    3752 	.db #0x00	;  0
    00000026 00                    3753 	.db #0x00	;  0
    00000027                       3754 __xinit__g_last_dy:
    00000027 01                    3755 	.db #0x01	;  1
    00000028 FF                    3756 	.db #0xff	; -1
    00000029                       3757 __xinit__g_prev_trigger:
    00000029 00                    3758 	.db #0x00	; 0
    0000002A 00                    3759 	.db #0x00	; 0
    0000002B                       3760 __xinit__g_last_input_dir:
    0000002B 00                    3761 	.db #0x00	; 0
    0000002C                       3762 __xinit__g_VSynch:
    0000002C 00                    3763 	.db #0x00	; 0
                                   3764 	.area _CABS (ABS)
