                                      1 ;--------------------------------------------------------
                                      2 ; File Created by SDCC : free open source ANSI-C Compiler
                                      3 ; Version 4.2.0 #13081 (MINGW64)
                                      4 ;--------------------------------------------------------
                                      5 	.module soccerlg_s22_b3
                                      6 	.optsdcc -mz80
                                      7 	
                                      8 ;--------------------------------------------------------
                                      9 ; Public variables in this module
                                     10 ;--------------------------------------------------------
                                     11 	.globl _GetPlayerIdleFrame
                                     12 	.globl _GetPlayerAnimFrame
                                     13 	.globl _HideSpriteMessage
                                     14 	.globl _CallFnc_U16_P4
                                     15 	.globl _CallFnc_U16_P3
                                     16 	.globl _CallFnc_VOID
                                     17 	.globl _g_SLTSL
                                     18 	.globl _g_GRPACY
                                     19 	.globl _g_GRPACX
                                     20 	.globl _g_LOGOPR
                                     21 	.globl _g_CMASK
                                     22 	.globl _g_CLOC
                                     23 	.globl _g_FNKSTR
                                     24 	.globl _g_ATRBYT
                                     25 	.globl _g_BDRCLR
                                     26 	.globl _g_BAKCLR
                                     27 	.globl _g_FORCLR
                                     28 	.globl _g_CSRX
                                     29 	.globl _g_CSRY
                                     30 	.globl _g_CLIKSW
                                     31 	.globl _g_MLTPAT
                                     32 	.globl _g_MLTATR
                                     33 	.globl _g_MLTCGP
                                     34 	.globl _g_MLTCOL
                                     35 	.globl _g_MLTNAM
                                     36 	.globl _g_GRPPAT
                                     37 	.globl _g_GRPATR
                                     38 	.globl _g_GRPCGP
                                     39 	.globl _g_GRPCOL
                                     40 	.globl _g_GRPNAM
                                     41 	.globl _g_T32PAT
                                     42 	.globl _g_T32ATR
                                     43 	.globl _g_T32CGP
                                     44 	.globl _g_T32COL
                                     45 	.globl _g_T32NAM
                                     46 	.globl _g_TXTPAT
                                     47 	.globl _g_TXTATR
                                     48 	.globl _g_TXTCGP
                                     49 	.globl _g_TXTCOL
                                     50 	.globl _g_TXTNAM
                                     51 	.globl _g_CLMLST
                                     52 	.globl _g_CRTCNT
                                     53 	.globl _g_LINLEN
                                     54 	.globl _g_LINL32
                                     55 	.globl _g_LINL40
                                     56 	.globl _g_BDOS
                                     57 	.globl _g_MASTER
                                     58 	.globl _g_RAMAD3
                                     59 	.globl _g_RAMAD2
                                     60 	.globl _g_RAMAD1
                                     61 	.globl _g_RAMAD0
                                     62 	.globl _g_BREAKV
                                     63 	.globl _g_DISKVE
                                     64 	.globl _g_KANJTABLE
                                     65 	.globl _g_STRSRC
                                     66 	.globl _g_SUBRID
                                     67 	.globl _g_CHAR_16
                                     68 	.globl _g_MSXMID
                                     69 	.globl _g_MSXVER
                                     70 	.globl _g_ROMVersion
                                     71 	.globl _g_BASRVN
                                     72 	.globl _g_VDP_DW
                                     73 	.globl _g_VDP_DR
                                     74 	.globl _g_CGTABL
                                     75 	.globl _g_SVFFFD
                                     76 	.globl _g_RG27SAV
                                     77 	.globl _g_RG26SAV
                                     78 	.globl _g_RG25SAV
                                     79 	.globl _g_SVFFF8
                                     80 	.globl _g_MINROM
                                     81 	.globl _g_RG23SAV
                                     82 	.globl _g_RG22SAV
                                     83 	.globl _g_RG21SAV
                                     84 	.globl _g_RG20SAV
                                     85 	.globl _g_RG19SAV
                                     86 	.globl _g_RG18SAV
                                     87 	.globl _g_RG17SAV
                                     88 	.globl _g_RG16SAV
                                     89 	.globl _g_RG15SAV
                                     90 	.globl _g_RG14SAV
                                     91 	.globl _g_RG13SAV
                                     92 	.globl _g_RG12SAV
                                     93 	.globl _g_RG11SAV
                                     94 	.globl _g_RG10SAV
                                     95 	.globl _g_RG09SAV
                                     96 	.globl _g_RG08SAV
                                     97 	.globl _g_PROCNM
                                     98 	.globl _g_SLTWRK
                                     99 	.globl _g_SLTATR
                                    100 	.globl _g_SLTTBL
                                    101 	.globl _g_EXPTBL
                                    102 	.globl _g_MNROM
                                    103 	.globl _g_DRWANG
                                    104 	.globl _g_DRWSCL
                                    105 	.globl _g_DRWFLG
                                    106 	.globl _g_GYPOS
                                    107 	.globl _g_GXPOS
                                    108 	.globl _g_BRDATR
                                    109 	.globl _g_CASPRV
                                    110 	.globl _g_OLDSCR
                                    111 	.globl _g_SCRMOD
                                    112 	.globl _g_FLBMEM
                                    113 	.globl _g_KANAMD
                                    114 	.globl _g_KANAST
                                    115 	.globl _g_CAPST
                                    116 	.globl _g_CSTYLE
                                    117 	.globl _g_CSRSW
                                    118 	.globl _g_INSFLG
                                    119 	.globl _g_ESCCNT
                                    120 	.globl _g_GRPHED
                                    121 	.globl _g_WINWID
                                    122 	.globl _g_LOWLIM
                                    123 	.globl _g_INTCNT
                                    124 	.globl _g_INTVAL
                                    125 	.globl _g_JIFFY
                                    126 	.globl _g_PADX
                                    127 	.globl _g_PADY
                                    128 	.globl _g_INTFLG
                                    129 	.globl _g_RTYCNT
                                    130 	.globl _g_TRPTBL
                                    131 	.globl _g_HIMEM
                                    132 	.globl _g_BOTTOM
                                    133 	.globl _g_PATWRK
                                    134 	.globl _g_LINWRK
                                    135 	.globl _g_KEYBUF
                                    136 	.globl _g_NEWKEY
                                    137 	.globl _g_OLDKEY
                                    138 	.globl _g_CLIKFL
                                    139 	.globl _g_ONGSBF
                                    140 	.globl _g_FNKFLG
                                    141 	.globl _g_FNKSWI
                                    142 	.globl _g_CODSAV
                                    143 	.globl _g_FSTPOS
                                    144 	.globl _g_LINTTB
                                    145 	.globl _g_BASROM
                                    146 	.globl _g_ENSTOP
                                    147 	.globl _g_VCBC
                                    148 	.globl _g_VCBB
                                    149 	.globl _g_VCBA
                                    150 	.globl _g_PLYCNT
                                    151 	.globl _g_MUSICF
                                    152 	.globl _g_QUEUEN
                                    153 	.globl _g_MCLPTR
                                    154 	.globl _g_MCLLEN
                                    155 	.globl _g_SAVVOL
                                    156 	.globl _g_VOICEN
                                    157 	.globl _g_SAVSP
                                    158 	.globl _g_PRSCNT
                                    159 	.globl _g_LSTMOD
                                    160 	.globl _g_LSTCOM
                                    161 	.globl _g_COMMSK
                                    162 	.globl _g_ESTBLS
                                    163 	.globl _g_FLAGS
                                    164 	.globl _g_ERRORS
                                    165 	.globl _g_DATCNT
                                    166 	.globl _g_DEVNUM
                                    167 	.globl _g_OLDINT
                                    168 	.globl _g_OLDSTT
                                    169 	.globl _g_MEXBIh
                                    170 	.globl _g_RSIQLN
                                    171 	.globl _g_RSFCB
                                    172 	.globl _g_TOCNT
                                    173 	.globl _g_RSTMP
                                    174 	.globl _g_YSAVE
                                    175 	.globl _g_XSAVE
                                    176 	.globl _g_NORUSE
                                    177 	.globl _g_MODE
                                    178 	.globl _g_ROMA
                                    179 	.globl _g_CHRCNT
                                    180 	.globl _g_EXBRSA
                                    181 	.globl _g_AVCSAV
                                    182 	.globl _g_ACPAGE
                                    183 	.globl _g_DPPAGE
                                    184 	.globl _g_RS2IQ
                                    185 	.globl _g_VOICCQ
                                    186 	.globl _g_VOICBQ
                                    187 	.globl _g_VOICAQ
                                    188 	.globl _g_QUEBAK
                                    189 	.globl _g_QUETAB
                                    190 	.globl _g_ASPCT2
                                    191 	.globl _g_ASPCT1
                                    192 	.globl _g_HEADER
                                    193 	.globl _g_HIGH
                                    194 	.globl _g_LOW
                                    195 	.globl _g_CS240
                                    196 	.globl _g_CS120
                                    197 	.globl _g_GETPNT
                                    198 	.globl _g_PUTPNT
                                    199 	.globl _g_REPCNT
                                    200 	.globl _g_SCNCNT
                                    201 	.globl _g_FRCNEW
                                    202 	.globl _g_QUEUES
                                    203 	.globl _g_MINUPD
                                    204 	.globl _g_MAXUPD
                                    205 	.globl _g_TRGFLG
                                    206 	.globl _g_STATFL
                                    207 	.globl _g_RG7SAV
                                    208 	.globl _g_RG6SAV
                                    209 	.globl _g_RG5SAV
                                    210 	.globl _g_RG4SAV
                                    211 	.globl _g_RG3SAV
                                    212 	.globl _g_RG2SAV
                                    213 	.globl _g_RG1SAV
                                    214 	.globl _g_RG0SAV
                                    215 	.globl _g_CNSDFG
                                    216 	.globl _g_USRTAB
                                    217 	.globl _g_CLPRIM
                                    218 	.globl _g_WRPRIM
                                    219 	.globl _g_RDPRIM
                                    220 	.globl _UpdateGameState_Celebrations
                                    221 ;--------------------------------------------------------
                                    222 ; special function registers
                                    223 ;--------------------------------------------------------
                         000000A8   224 _g_PortPrimarySlot	=	0x00a8
                         000000A9   225 _g_PortReadKeyboard	=	0x00a9
                         000000AA   226 _g_PortAccessKeyboard	=	0x00aa
                         000000AB   227 _g_PortControl	=	0x00ab
                         00000098   228 _g_VDP_DataPort	=	0x0098
                         00000099   229 _g_VDP_RegPort	=	0x0099
                         00000099   230 _g_VDP_AddrPort	=	0x0099
                         00000099   231 _g_VDP_StatPort	=	0x0099
                         0000009A   232 _g_VDP_PalPort	=	0x009a
                         0000009B   233 _g_VDP_IRegPort	=	0x009b
                         000000A0   234 _g_PSG_RegPort	=	0x00a0
                         000000A1   235 _g_PSG_DataPort	=	0x00a1
                         000000A2   236 _g_PSG_StatPort	=	0x00a2
                         00000010   237 _g_PSG_Ext_RegPort	=	0x0010
                         00000011   238 _g_PSG_Ext_DataPort	=	0x0011
                         00000012   239 _g_PSG_Ext_StatPort	=	0x0012
                         0000007C   240 _g_MSXMusic_IndexPort	=	0x007c
                         0000007D   241 _g_MSXMusic_DataPort	=	0x007d
                         000000C0   242 _g_MSXAudio_IndexPort	=	0x00c0
                         000000C1   243 _g_MSXAudio_DataPort	=	0x00c1
                         000000C2   244 _g_MSXAudio_IndexPort2	=	0x00c2
                         000000C3   245 _g_MSXAudio_DataPort2	=	0x00c3
                         000000B4   246 _g_RTC_AddrPort	=	0x00b4
                         000000B5   247 _g_RTC_DataPort	=	0x00b5
                                    248 ;--------------------------------------------------------
                                    249 ; ram data
                                    250 ;--------------------------------------------------------
                                    251 	.area _DATA
                         0000F3AE   252 _g_LINL40	=	0xf3ae
                         0000F3AF   253 _g_LINL32	=	0xf3af
                         0000F3B0   254 _g_LINLEN	=	0xf3b0
                         0000F3B1   255 _g_CRTCNT	=	0xf3b1
                         0000F3B2   256 _g_CLMLST	=	0xf3b2
                         0000F3B3   257 _g_TXTNAM	=	0xf3b3
                         0000F3B5   258 _g_TXTCOL	=	0xf3b5
                         0000F3B7   259 _g_TXTCGP	=	0xf3b7
                         0000F3B9   260 _g_TXTATR	=	0xf3b9
                         0000F3BB   261 _g_TXTPAT	=	0xf3bb
                         0000F3BD   262 _g_T32NAM	=	0xf3bd
                         0000F3BF   263 _g_T32COL	=	0xf3bf
                         0000F3C1   264 _g_T32CGP	=	0xf3c1
                         0000F3C3   265 _g_T32ATR	=	0xf3c3
                         0000F3C5   266 _g_T32PAT	=	0xf3c5
                         0000F3C7   267 _g_GRPNAM	=	0xf3c7
                         0000F3C9   268 _g_GRPCOL	=	0xf3c9
                         0000F3CB   269 _g_GRPCGP	=	0xf3cb
                         0000F3CD   270 _g_GRPATR	=	0xf3cd
                         0000F3CF   271 _g_GRPPAT	=	0xf3cf
                         0000F3D1   272 _g_MLTNAM	=	0xf3d1
                         0000F3D3   273 _g_MLTCOL	=	0xf3d3
                         0000F3D5   274 _g_MLTCGP	=	0xf3d5
                         0000F3D7   275 _g_MLTATR	=	0xf3d7
                         0000F3D9   276 _g_MLTPAT	=	0xf3d9
                         0000F3DB   277 _g_CLIKSW	=	0xf3db
                         0000F3DC   278 _g_CSRY	=	0xf3dc
                         0000F3DD   279 _g_CSRX	=	0xf3dd
                         0000F3E9   280 _g_FORCLR	=	0xf3e9
                         0000F3EA   281 _g_BAKCLR	=	0xf3ea
                         0000F3EB   282 _g_BDRCLR	=	0xf3eb
                         0000F3F2   283 _g_ATRBYT	=	0xf3f2
                         0000F87F   284 _g_FNKSTR	=	0xf87f
                         0000F92A   285 _g_CLOC	=	0xf92a
                         0000F92C   286 _g_CMASK	=	0xf92c
                         0000FB02   287 _g_LOGOPR	=	0xfb02
                         0000FCB7   288 _g_GRPACX	=	0xfcb7
                         0000FCB9   289 _g_GRPACY	=	0xfcb9
                         0000FFFF   290 _g_SLTSL	=	0xffff
                                    291 ;--------------------------------------------------------
                                    292 ; ram data
                                    293 ;--------------------------------------------------------
                                    294 	.area _INITIALIZED
                                    295 ;--------------------------------------------------------
                                    296 ; absolute external ram data
                                    297 ;--------------------------------------------------------
                                    298 	.area _DABS (ABS)
                                    299 ;--------------------------------------------------------
                                    300 ; global & static initialisations
                                    301 ;--------------------------------------------------------
                                    302 	.area _HOME
                                    303 	.area _GSINIT
                                    304 	.area _GSFINAL
                                    305 	.area _GSINIT
                                    306 ;--------------------------------------------------------
                                    307 ; Home
                                    308 ;--------------------------------------------------------
                                    309 	.area _HOME
                                    310 	.area _HOME
                                    311 ;--------------------------------------------------------
                                    312 ; code
                                    313 ;--------------------------------------------------------
                                    314 	.area _SEG22
                                    315 ;E:\Dropbox\FAUSTO\SVILUPPI\MSX\CODE\C\MSXgl\projects\soccerlgMSX2/soccerlg_s22_b3.c:11: void UpdateGameState_Celebrations(u8* game_state, u8* wait_secs, u8* start_sec, u16 target_ly)
                                    316 ;	---------------------------------
                                    317 ; Function UpdateGameState_Celebrations
                                    318 ; ---------------------------------
    00000000                        319 _UpdateGameState_Celebrations::
    00000000 DD E5            [15]  320 	push	ix
    00000002 DD 21 00 00      [14]  321 	ld	ix,#0
    00000006 DD 39            [15]  322 	add	ix,sp
    00000008 FD 21 E2 FF      [14]  323 	ld	iy, #-30
    0000000C FD 39            [15]  324 	add	iy, sp
    0000000E FD F9            [10]  325 	ld	sp, iy
    00000010 DD 75 FD         [19]  326 	ld	-3 (ix), l
    00000013 DD 74 FE         [19]  327 	ld	-2 (ix), h
    00000016 DD 73 FB         [19]  328 	ld	-5 (ix), e
    00000019 DD 72 FC         [19]  329 	ld	-4 (ix), d
                                    330 ;E:\Dropbox\FAUSTO\SVILUPPI\MSX\CODE\C\MSXgl\projects\soccerlgMSX2/soccerlg_s22_b3.c:15: if (*game_state == 9) {
    0000001C DD 6E FD         [19]  331 	ld	l, -3 (ix)
    0000001F DD 66 FE         [19]  332 	ld	h, -2 (ix)
    00000022 7E               [ 7]  333 	ld	a, (hl)
    00000023 DD 77 FF         [19]  334 	ld	-1 (ix), a
    00000026 D6 09            [ 7]  335 	sub	a, #0x09
    00000028 C2r88r05         [10]  336 	jp	NZ,00256$
                                    337 ;E:\Dropbox\FAUSTO\SVILUPPI\MSX\CODE\C\MSXgl\projects\soccerlgMSX2/soccerlg_s22_b3.c:17: T1_Carrier = T2_Carrier = T1_Receiver = T2_Receiver = 0xFF; // Nascondi i focus
    0000002B 21r00r00         [10]  338 	ld	hl, #_T2_Receiver
    0000002E 36 FF            [10]  339 	ld	(hl), #0xff
    00000030 21r00r00         [10]  340 	ld	hl, #_T1_Receiver
    00000033 36 FF            [10]  341 	ld	(hl), #0xff
    00000035 21r00r00         [10]  342 	ld	hl, #_T2_Carrier
    00000038 36 FF            [10]  343 	ld	(hl), #0xff
    0000003A FD 21r00r00      [14]  344 	ld	iy, #_T1_Carrier
    0000003E FD 36 00 FF      [19]  345 	ld	0 (iy), #0xff
                                    346 ;E:\Dropbox\FAUSTO\SVILUPPI\MSX\CODE\C\MSXgl\projects\soccerlgMSX2/soccerlg_s22_b3.c:19: if (*wait_secs > 0) {
    00000042 DD 6E FB         [19]  347 	ld	l, -5 (ix)
    00000045 DD 66 FC         [19]  348 	ld	h, -4 (ix)
    00000048 5E               [ 7]  349 	ld	e, (hl)
    00000049 7B               [ 4]  350 	ld	a, e
    0000004A B7               [ 4]  351 	or	a, a
    0000004B 28 34            [12]  352 	jr	Z, 00106$
                                    353 ;E:\Dropbox\FAUSTO\SVILUPPI\MSX\CODE\C\MSXgl\projects\soccerlgMSX2/soccerlg_s22_b3.c:20: if (*start_sec < Frms) { // Frms wrapped from 1 to 60
    0000004D DD 4E 04         [19]  354 	ld	c, 4 (ix)
    00000050 DD 46 05         [19]  355 	ld	b, 5 (ix)
    00000053 0A               [ 7]  356 	ld	a, (bc)
    00000054 57               [ 4]  357 	ld	d, a
    00000055 21r00r00         [10]  358 	ld	hl, #_Frms
    00000058 7A               [ 4]  359 	ld	a, d
    00000059 96               [ 7]  360 	sub	a, (hl)
    0000005A 30 21            [12]  361 	jr	NC, 00104$
                                    362 ;E:\Dropbox\FAUSTO\SVILUPPI\MSX\CODE\C\MSXgl\projects\soccerlgMSX2/soccerlg_s22_b3.c:21: (*wait_secs)--;
    0000005C 7B               [ 4]  363 	ld	a, e
    0000005D 3D               [ 4]  364 	dec	a
    0000005E DD 6E FB         [19]  365 	ld	l, -5 (ix)
    00000061 DD 66 FC         [19]  366 	ld	h, -4 (ix)
    00000064 77               [ 7]  367 	ld	(hl), a
                                    368 ;E:\Dropbox\FAUSTO\SVILUPPI\MSX\CODE\C\MSXgl\projects\soccerlgMSX2/soccerlg_s22_b3.c:22: if (*wait_secs == 0) {
    00000065 B7               [ 4]  369 	or	a, a
    00000066 20 15            [12]  370 	jr	NZ, 00104$
                                    371 ;E:\Dropbox\FAUSTO\SVILUPPI\MSX\CODE\C\MSXgl\projects\soccerlgMSX2/soccerlg_s22_b3.c:23: *game_state = 6; // Passa al reset del campo
    00000068 DD 6E FD         [19]  372 	ld	l, -3 (ix)
    0000006B DD 66 FE         [19]  373 	ld	h, -2 (ix)
    0000006E 36 06            [10]  374 	ld	(hl), #0x06
                                    375 ;E:\Dropbox\FAUSTO\SVILUPPI\MSX\CODE\C\MSXgl\projects\soccerlgMSX2/soccerlg_s22_b3.c:24: *wait_secs = 1;  // Pausa minima per permettere il ridisegno pulito
    00000070 DD 6E FB         [19]  376 	ld	l, -5 (ix)
    00000073 DD 66 FC         [19]  377 	ld	h, -4 (ix)
    00000076 36 01            [10]  378 	ld	(hl), #0x01
                                    379 ;E:\Dropbox\FAUSTO\SVILUPPI\MSX\CODE\C\MSXgl\projects\soccerlgMSX2/soccerlg_s22_b3.c:25: *start_sec = 0;  // FIX: Questo valore forza lo Stato 6 a triggerare istantaneamente
    00000078 AF               [ 4]  380 	xor	a, a
    00000079 02               [ 7]  381 	ld	(bc), a
                                    382 ;E:\Dropbox\FAUSTO\SVILUPPI\MSX\CODE\C\MSXgl\projects\soccerlgMSX2/soccerlg_s22_b3.c:26: return;
    0000007A C3r31r11         [10]  383 	jp	00268$
    0000007D                        384 00104$:
                                    385 ;E:\Dropbox\FAUSTO\SVILUPPI\MSX\CODE\C\MSXgl\projects\soccerlgMSX2/soccerlg_s22_b3.c:29: *start_sec = Frms;
    0000007D 3Ar00r00         [13]  386 	ld	a, (_Frms+0)
    00000080 02               [ 7]  387 	ld	(bc), a
    00000081                        388 00106$:
                                    389 ;E:\Dropbox\FAUSTO\SVILUPPI\MSX\CODE\C\MSXgl\projects\soccerlgMSX2/soccerlg_s22_b3.c:32: u8 scoring_team = (KickOffTeam == TEAM_1) ? TEAM_2 : TEAM_1;
    00000081 3Ar00r00         [13]  390 	ld	a, (_KickOffTeam+0)
    00000084 B7               [ 4]  391 	or	a, a
    00000085 20 06            [12]  392 	jr	NZ, 00270$
    00000087 01 01 00         [10]  393 	ld	bc, #0x0001
    0000008A C3r90r00         [10]  394 	jp	00271$
    0000008D                        395 00270$:
    0000008D 01 00 00         [10]  396 	ld	bc, #0x0000
    00000090                        397 00271$:
    00000090 DD 71 EA         [19]  398 	ld	-22 (ix), c
                                    399 ;E:\Dropbox\FAUSTO\SVILUPPI\MSX\CODE\C\MSXgl\projects\soccerlgMSX2/soccerlg_s22_b3.c:34: for (u8 i = 0; i < 14; i++) {
    00000093 DD 36 FF 00      [19]  400 	ld	-1 (ix), #0x00
    00000097                        401 00259$:
    00000097 DD 7E FF         [19]  402 	ld	a, -1 (ix)
    0000009A D6 0E            [ 7]  403 	sub	a, #0x0e
    0000009C D2r20r05         [10]  404 	jp	NC, 00140$
                                    405 ;E:\Dropbox\FAUSTO\SVILUPPI\MSX\CODE\C\MSXgl\projects\soccerlgMSX2/soccerlg_s22_b3.c:35: u8 team = (i < 7) ? TEAM_1 : TEAM_2;
    0000009F DD 7E FF         [19]  406 	ld	a, -1 (ix)
    000000A2 D6 07            [ 7]  407 	sub	a, #0x07
    000000A4 30 06            [12]  408 	jr	NC, 00272$
    000000A6 01 00 00         [10]  409 	ld	bc, #0x0000
    000000A9 C3rAFr00         [10]  410 	jp	00273$
    000000AC                        411 00272$:
    000000AC 01 01 00         [10]  412 	ld	bc, #0x0001
    000000AF                        413 00273$:
    000000AF DD 71 EB         [19]  414 	ld	-21 (ix), c
                                    415 ;E:\Dropbox\FAUSTO\SVILUPPI\MSX\CODE\C\MSXgl\projects\soccerlgMSX2/soccerlg_s22_b3.c:36: struct ObjectInfo* p = &SwSprite[i];
    000000B2 DD 4E FF         [19]  416 	ld	c, -1 (ix)
    000000B5 06 00            [ 7]  417 	ld	b, #0x00
    000000B7 69               [ 4]  418 	ld	l, c
    000000B8 60               [ 4]  419 	ld	h, b
    000000B9 29               [11]  420 	add	hl, hl
    000000BA 29               [11]  421 	add	hl, hl
    000000BB 09               [11]  422 	add	hl, bc
    000000BC 29               [11]  423 	add	hl, hl
    000000BD 09               [11]  424 	add	hl, bc
    000000BE 29               [11]  425 	add	hl, hl
    000000BF 09               [11]  426 	add	hl, bc
    000000C0 11r00r00         [10]  427 	ld	de, #_SwSprite
    000000C3 19               [11]  428 	add	hl, de
                                    429 ;E:\Dropbox\FAUSTO\SVILUPPI\MSX\CODE\C\MSXgl\projects\soccerlgMSX2/soccerlg_s22_b3.c:46: u16 dist_x = (p->lx > t_x) ? (p->lx - t_x) : (t_x - p->lx);
    000000C4 DD 75 EC         [19]  430 	ld	-20 (ix), l
    000000C7 DD 74 ED         [19]  431 	ld	-19 (ix), h
    000000CA 7E               [ 7]  432 	ld	a, (hl)
    000000CB DD 77 FA         [19]  433 	ld	-6 (ix), a
                                    434 ;E:\Dropbox\FAUSTO\SVILUPPI\MSX\CODE\C\MSXgl\projects\soccerlgMSX2/soccerlg_s22_b3.c:47: u16 dist_y = (p->ly > t_y) ? (p->ly - t_y) : (t_y - p->ly);
    000000CE DD 7E EC         [19]  435 	ld	a, -20 (ix)
    000000D1 C6 04            [ 7]  436 	add	a, #0x04
    000000D3 DD 77 EE         [19]  437 	ld	-18 (ix), a
    000000D6 DD 7E ED         [19]  438 	ld	a, -19 (ix)
    000000D9 CE 00            [ 7]  439 	adc	a, #0x00
    000000DB DD 77 EF         [19]  440 	ld	-17 (ix), a
    000000DE DD 6E EE         [19]  441 	ld	l, -18 (ix)
    000000E1 DD 66 EF         [19]  442 	ld	h, -17 (ix)
    000000E4 7E               [ 7]  443 	ld	a, (hl)
    000000E5 DD 77 F3         [19]  444 	ld	-13 (ix), a
    000000E8 23               [ 6]  445 	inc	hl
    000000E9 7E               [ 7]  446 	ld	a, (hl)
    000000EA DD 77 F4         [19]  447 	ld	-12 (ix), a
                                    448 ;E:\Dropbox\FAUSTO\SVILUPPI\MSX\CODE\C\MSXgl\projects\soccerlgMSX2/soccerlg_s22_b3.c:61: p->frame = (step == 0) ? SPR_GK_PLAYER_HAPPY_1 : ((step == 1) ? SPR_GK_PLAYER_HAPPY_2 : SPR_GK_PLAYER_HAPPY_3);
    000000ED DD 7E EC         [19]  449 	ld	a, -20 (ix)
    000000F0 C6 0F            [ 7]  450 	add	a, #0x0f
    000000F2 DD 77 F0         [19]  451 	ld	-16 (ix), a
    000000F5 DD 7E ED         [19]  452 	ld	a, -19 (ix)
    000000F8 CE 00            [ 7]  453 	adc	a, #0x00
    000000FA DD 77 F1         [19]  454 	ld	-15 (ix), a
                                    455 ;E:\Dropbox\FAUSTO\SVILUPPI\MSX\CODE\C\MSXgl\projects\soccerlgMSX2/soccerlg_s22_b3.c:38: if (team == scoring_team) { 
    000000FD DD 7E EB         [19]  456 	ld	a, -21 (ix)
    00000100 DD 96 EA         [19]  457 	sub	a, -22 (ix)
    00000103 C2rB3r04         [10]  458 	jp	NZ,00138$
                                    459 ;E:\Dropbox\FAUSTO\SVILUPPI\MSX\CODE\C\MSXgl\projects\soccerlgMSX2/soccerlg_s22_b3.c:41: u16 center_y = Field.ly + 96;
    00000106 2Ar04r00         [16]  460 	ld	hl, (#(_Field + 4) + 0)
    00000109 01 60 00         [10]  461 	ld	bc, #0x0060
    0000010C 09               [11]  462 	add	hl, bc
    0000010D E5               [11]  463 	push	hl
    0000010E FD E1            [14]  464 	pop	iy
                                    465 ;E:\Dropbox\FAUSTO\SVILUPPI\MSX\CODE\C\MSXgl\projects\soccerlgMSX2/soccerlg_s22_b3.c:43: u16 t_x = center_x - 80 + ((i * 31 + Frms) % 160);
    00000110 DD 4E FF         [19]  466 	ld	c, -1 (ix)
    00000113 06 00            [ 7]  467 	ld	b, #0x00
    00000115 69               [ 4]  468 	ld	l, c
    00000116 60               [ 4]  469 	ld	h, b
    00000117 29               [11]  470 	add	hl, hl
    00000118 09               [11]  471 	add	hl, bc
    00000119 29               [11]  472 	add	hl, hl
    0000011A 09               [11]  473 	add	hl, bc
    0000011B 29               [11]  474 	add	hl, hl
    0000011C 09               [11]  475 	add	hl, bc
    0000011D 29               [11]  476 	add	hl, hl
    0000011E 09               [11]  477 	add	hl, bc
    0000011F 3Ar00r00         [13]  478 	ld	a, (_Frms+0)
    00000122 DD 77 E8         [19]  479 	ld	-24 (ix), a
    00000125 DD 36 E9 00      [19]  480 	ld	-23 (ix), #0x00
    00000129 5F               [ 4]  481 	ld	e, a
    0000012A 16 00            [ 7]  482 	ld	d, #0x00
    0000012C 19               [11]  483 	add	hl, de
    0000012D C5               [11]  484 	push	bc
    0000012E FD E5            [15]  485 	push	iy
    00000130 11 A0 00         [10]  486 	ld	de, #0x00a0
    00000133 CDr00r00         [17]  487 	call	__modsint
    00000136 FD E1            [14]  488 	pop	iy
    00000138 C1               [10]  489 	pop	bc
    00000139 21 30 00         [10]  490 	ld	hl, #0x0030
    0000013C 19               [11]  491 	add	hl, de
    0000013D DD 75 F5         [19]  492 	ld	-11 (ix), l
    00000140 DD 74 F6         [19]  493 	ld	-10 (ix), h
                                    494 ;E:\Dropbox\FAUSTO\SVILUPPI\MSX\CODE\C\MSXgl\projects\soccerlgMSX2/soccerlg_s22_b3.c:44: u16 t_y = center_y - 60 + ((i * 47 + Frms) % 120);
    00000143 FD E5            [15]  495 	push	iy
    00000145 D1               [10]  496 	pop	de
    00000146 7B               [ 4]  497 	ld	a, e
    00000147 C6 C4            [ 7]  498 	add	a, #0xc4
    00000149 DD 77 F8         [19]  499 	ld	-8 (ix), a
    0000014C 7A               [ 4]  500 	ld	a, d
    0000014D CE FF            [ 7]  501 	adc	a, #0xff
    0000014F DD 77 F9         [19]  502 	ld	-7 (ix), a
    00000152 69               [ 4]  503 	ld	l, c
    00000153 60               [ 4]  504 	ld	h, b
    00000154 29               [11]  505 	add	hl, hl
    00000155 29               [11]  506 	add	hl, hl
    00000156 09               [11]  507 	add	hl, bc
    00000157 29               [11]  508 	add	hl, hl
    00000158 09               [11]  509 	add	hl, bc
    00000159 29               [11]  510 	add	hl, hl
    0000015A 09               [11]  511 	add	hl, bc
    0000015B 29               [11]  512 	add	hl, hl
    0000015C 09               [11]  513 	add	hl, bc
    0000015D DD 5E E8         [19]  514 	ld	e, -24 (ix)
    00000160 DD 56 E9         [19]  515 	ld	d, -23 (ix)
    00000163 19               [11]  516 	add	hl, de
    00000164 11 78 00         [10]  517 	ld	de, #0x0078
    00000167 CDr00r00         [17]  518 	call	__modsint
    0000016A DD 6E F8         [19]  519 	ld	l, -8 (ix)
    0000016D DD 66 F9         [19]  520 	ld	h, -7 (ix)
    00000170 19               [11]  521 	add	hl, de
    00000171 4D               [ 4]  522 	ld	c, l
    00000172 44               [ 4]  523 	ld	b, h
                                    524 ;E:\Dropbox\FAUSTO\SVILUPPI\MSX\CODE\C\MSXgl\projects\soccerlgMSX2/soccerlg_s22_b3.c:46: u16 dist_x = (p->lx > t_x) ? (p->lx - t_x) : (t_x - p->lx);
    00000173 DD 6E FA         [19]  525 	ld	l, -6 (ix)
                                    526 ;	spillPairReg hl
                                    527 ;	spillPairReg hl
    00000176 26 00            [ 7]  528 	ld	h, #0x00
                                    529 ;	spillPairReg hl
                                    530 ;	spillPairReg hl
    00000178 DD 5E FA         [19]  531 	ld	e, -6 (ix)
    0000017B 16 00            [ 7]  532 	ld	d, #0x00
    0000017D DD 7E F5         [19]  533 	ld	a, -11 (ix)
    00000180 DD 77 F7         [19]  534 	ld	-9 (ix), a
    00000183 DD 7E F6         [19]  535 	ld	a, -10 (ix)
    00000186 DD 77 F8         [19]  536 	ld	-8 (ix), a
    00000189 DD 7E F5         [19]  537 	ld	a, -11 (ix)
    0000018C 95               [ 4]  538 	sub	a, l
    0000018D DD 7E F6         [19]  539 	ld	a, -10 (ix)
    00000190 9C               [ 4]  540 	sbc	a, h
    00000191 30 0C            [12]  541 	jr	NC, 00274$
    00000193 7B               [ 4]  542 	ld	a, e
    00000194 DD 96 F5         [19]  543 	sub	a, -11 (ix)
    00000197 5F               [ 4]  544 	ld	e, a
    00000198 7A               [ 4]  545 	ld	a, d
    00000199 DD 9E F6         [19]  546 	sbc	a, -10 (ix)
    0000019C C3rA8r01         [10]  547 	jp	00275$
    0000019F                        548 00274$:
    0000019F DD 7E F7         [19]  549 	ld	a, -9 (ix)
    000001A2 93               [ 4]  550 	sub	a, e
    000001A3 5F               [ 4]  551 	ld	e, a
    000001A4 DD 7E F8         [19]  552 	ld	a, -8 (ix)
    000001A7 9A               [ 4]  553 	sbc	a, d
    000001A8                        554 00275$:
    000001A8 DD 73 F5         [19]  555 	ld	-11 (ix), e
    000001AB DD 77 F6         [19]  556 	ld	-10 (ix), a
                                    557 ;E:\Dropbox\FAUSTO\SVILUPPI\MSX\CODE\C\MSXgl\projects\soccerlgMSX2/soccerlg_s22_b3.c:47: u16 dist_y = (p->ly > t_y) ? (p->ly - t_y) : (t_y - p->ly);
    000001AE 79               [ 4]  558 	ld	a, c
    000001AF DD 96 F3         [19]  559 	sub	a, -13 (ix)
    000001B2 78               [ 4]  560 	ld	a, b
    000001B3 DD 9E F4         [19]  561 	sbc	a, -12 (ix)
    000001B6 30 0C            [12]  562 	jr	NC, 00276$
    000001B8 DD 7E F3         [19]  563 	ld	a, -13 (ix)
    000001BB 91               [ 4]  564 	sub	a, c
    000001BC 5F               [ 4]  565 	ld	e, a
    000001BD DD 7E F4         [19]  566 	ld	a, -12 (ix)
    000001C0 98               [ 4]  567 	sbc	a, b
    000001C1 C3rCDr01         [10]  568 	jp	00277$
    000001C4                        569 00276$:
    000001C4 79               [ 4]  570 	ld	a, c
    000001C5 DD 96 F3         [19]  571 	sub	a, -13 (ix)
    000001C8 5F               [ 4]  572 	ld	e, a
    000001C9 78               [ 4]  573 	ld	a, b
    000001CA DD 9E F4         [19]  574 	sbc	a, -12 (ix)
    000001CD                        575 00277$:
    000001CD DD 73 F3         [19]  576 	ld	-13 (ix), e
    000001D0 DD 77 F4         [19]  577 	ld	-12 (ix), a
                                    578 ;E:\Dropbox\FAUSTO\SVILUPPI\MSX\CODE\C\MSXgl\projects\soccerlgMSX2/soccerlg_s22_b3.c:48: u8 speed = (dist_x > 100 || dist_y > 100) ? 6 : ((dist_x > 50 || dist_y > 50) ? 4 : 2);
    000001D3 3E 64            [ 7]  579 	ld	a, #0x64
    000001D5 DD BE F5         [19]  580 	cp	a, -11 (ix)
    000001D8 3E 00            [ 7]  581 	ld	a, #0x00
    000001DA DD 9E F6         [19]  582 	sbc	a, -10 (ix)
    000001DD 38 0E            [12]  583 	jr	C, 00281$
    000001DF DD 5E F3         [19]  584 	ld	e, -13 (ix)
    000001E2 DD 56 F4         [19]  585 	ld	d, -12 (ix)
    000001E5 3E 64            [ 7]  586 	ld	a, #0x64
    000001E7 BB               [ 4]  587 	cp	a, e
    000001E8 3E 00            [ 7]  588 	ld	a, #0x00
    000001EA 9A               [ 4]  589 	sbc	a, d
    000001EB 30 0B            [12]  590 	jr	NC, 00278$
    000001ED                        591 00281$:
    000001ED DD 36 F5 06      [19]  592 	ld	-11 (ix), #0x06
    000001F1 DD 36 F6 00      [19]  593 	ld	-10 (ix), #0
    000001F5 C3r1Br02         [10]  594 	jp	00279$
    000001F8                        595 00278$:
    000001F8 3E 32            [ 7]  596 	ld	a, #0x32
    000001FA DD BE F5         [19]  597 	cp	a, -11 (ix)
    000001FD 3E 00            [ 7]  598 	ld	a, #0x00
    000001FF DD 9E F6         [19]  599 	sbc	a, -10 (ix)
    00000202 38 08            [12]  600 	jr	C, 00286$
    00000204 3E 32            [ 7]  601 	ld	a, #0x32
    00000206 BB               [ 4]  602 	cp	a, e
    00000207 3E 00            [ 7]  603 	ld	a, #0x00
    00000209 9A               [ 4]  604 	sbc	a, d
    0000020A 30 06            [12]  605 	jr	NC, 00283$
    0000020C                        606 00286$:
    0000020C 11 04 00         [10]  607 	ld	de, #0x0004
    0000020F C3r15r02         [10]  608 	jp	00284$
    00000212                        609 00283$:
    00000212 11 02 00         [10]  610 	ld	de, #0x0002
    00000215                        611 00284$:
    00000215 DD 73 F5         [19]  612 	ld	-11 (ix), e
    00000218 DD 72 F6         [19]  613 	ld	-10 (ix), d
    0000021B                        614 00279$:
    0000021B DD 7E F5         [19]  615 	ld	a, -11 (ix)
                                    616 ;E:\Dropbox\FAUSTO\SVILUPPI\MSX\CODE\C\MSXgl\projects\soccerlgMSX2/soccerlg_s22_b3.c:50: if (p->lx < t_x - speed) p->dx = speed; else if (p->lx > t_x + speed) p->dx = -speed; else p->dx = 0;
    0000021E DD 77 F2         [19]  617 	ld	-14 (ix), a
    00000221 5F               [ 4]  618 	ld	e, a
    00000222 16 00            [ 7]  619 	ld	d, #0x00
    00000224 DD 7E F7         [19]  620 	ld	a, -9 (ix)
    00000227 93               [ 4]  621 	sub	a, e
    00000228 6F               [ 4]  622 	ld	l, a
                                    623 ;	spillPairReg hl
                                    624 ;	spillPairReg hl
    00000229 DD 7E F8         [19]  625 	ld	a, -8 (ix)
    0000022C 9A               [ 4]  626 	sbc	a, d
    0000022D 67               [ 4]  627 	ld	h, a
                                    628 ;	spillPairReg hl
                                    629 ;	spillPairReg hl
    0000022E DD 7E FA         [19]  630 	ld	a, -6 (ix)
    00000231 DD 77 F9         [19]  631 	ld	-7 (ix), a
    00000234 DD 36 FA 00      [19]  632 	ld	-6 (ix), #0x00
    00000238 DD 7E EC         [19]  633 	ld	a, -20 (ix)
    0000023B C6 11            [ 7]  634 	add	a, #0x11
    0000023D DD 77 F3         [19]  635 	ld	-13 (ix), a
    00000240 DD 7E ED         [19]  636 	ld	a, -19 (ix)
    00000243 CE 00            [ 7]  637 	adc	a, #0x00
    00000245 DD 77 F4         [19]  638 	ld	-12 (ix), a
    00000248 DD 7E F9         [19]  639 	ld	a, -7 (ix)
    0000024B 95               [ 4]  640 	sub	a, l
    0000024C DD 7E FA         [19]  641 	ld	a, -6 (ix)
    0000024F 9C               [ 4]  642 	sbc	a, h
    00000250 30 0D            [12]  643 	jr	NC, 00111$
    00000252 DD 6E F3         [19]  644 	ld	l, -13 (ix)
    00000255 DD 66 F4         [19]  645 	ld	h, -12 (ix)
    00000258 DD 7E F2         [19]  646 	ld	a, -14 (ix)
    0000025B 77               [ 7]  647 	ld	(hl), a
    0000025C C3r86r02         [10]  648 	jp	00112$
    0000025F                        649 00111$:
    0000025F DD 6E F7         [19]  650 	ld	l, -9 (ix)
    00000262 DD 66 F8         [19]  651 	ld	h, -8 (ix)
    00000265 19               [11]  652 	add	hl, de
    00000266 7D               [ 4]  653 	ld	a, l
    00000267 DD 96 F9         [19]  654 	sub	a, -7 (ix)
    0000026A 7C               [ 4]  655 	ld	a, h
    0000026B DD 9E FA         [19]  656 	sbc	a, -6 (ix)
    0000026E 30 0E            [12]  657 	jr	NC, 00108$
    00000270 AF               [ 4]  658 	xor	a, a
    00000271 DD 96 F2         [19]  659 	sub	a, -14 (ix)
    00000274 DD 6E F3         [19]  660 	ld	l, -13 (ix)
    00000277 DD 66 F4         [19]  661 	ld	h, -12 (ix)
    0000027A 77               [ 7]  662 	ld	(hl), a
    0000027B C3r86r02         [10]  663 	jp	00112$
    0000027E                        664 00108$:
    0000027E DD 6E F3         [19]  665 	ld	l, -13 (ix)
    00000281 DD 66 F4         [19]  666 	ld	h, -12 (ix)
    00000284 36 00            [10]  667 	ld	(hl), #0x00
    00000286                        668 00112$:
                                    669 ;E:\Dropbox\FAUSTO\SVILUPPI\MSX\CODE\C\MSXgl\projects\soccerlgMSX2/soccerlg_s22_b3.c:51: if (p->ly < t_y - speed) p->dy = speed; else if (p->ly > t_y + speed) p->dy = -speed; else p->dy = 0;
    00000286 DD 6E EE         [19]  670 	ld	l, -18 (ix)
    00000289 DD 66 EF         [19]  671 	ld	h, -17 (ix)
    0000028C 7E               [ 7]  672 	ld	a, (hl)
    0000028D 23               [ 6]  673 	inc	hl
    0000028E 66               [ 7]  674 	ld	h, (hl)
                                    675 ;	spillPairReg hl
    0000028F 6F               [ 4]  676 	ld	l, a
                                    677 ;	spillPairReg hl
                                    678 ;	spillPairReg hl
    00000290 79               [ 4]  679 	ld	a, c
    00000291 93               [ 4]  680 	sub	a, e
    00000292 DD 77 F5         [19]  681 	ld	-11 (ix), a
    00000295 78               [ 4]  682 	ld	a, b
    00000296 9A               [ 4]  683 	sbc	a, d
    00000297 DD 77 F6         [19]  684 	ld	-10 (ix), a
    0000029A DD 75 F7         [19]  685 	ld	-9 (ix), l
    0000029D DD 74 F8         [19]  686 	ld	-8 (ix), h
    000002A0 DD 7E EC         [19]  687 	ld	a, -20 (ix)
    000002A3 C6 12            [ 7]  688 	add	a, #0x12
    000002A5 DD 77 F9         [19]  689 	ld	-7 (ix), a
    000002A8 DD 7E ED         [19]  690 	ld	a, -19 (ix)
    000002AB CE 00            [ 7]  691 	adc	a, #0x00
    000002AD DD 77 FA         [19]  692 	ld	-6 (ix), a
    000002B0 DD 7E F7         [19]  693 	ld	a, -9 (ix)
    000002B3 DD 96 F5         [19]  694 	sub	a, -11 (ix)
    000002B6 DD 7E F8         [19]  695 	ld	a, -8 (ix)
    000002B9 DD 9E F6         [19]  696 	sbc	a, -10 (ix)
    000002BC 30 0D            [12]  697 	jr	NC, 00117$
    000002BE DD 6E F9         [19]  698 	ld	l, -7 (ix)
    000002C1 DD 66 FA         [19]  699 	ld	h, -6 (ix)
    000002C4 DD 7E F2         [19]  700 	ld	a, -14 (ix)
    000002C7 77               [ 7]  701 	ld	(hl), a
    000002C8 C3rEEr02         [10]  702 	jp	00118$
    000002CB                        703 00117$:
    000002CB 69               [ 4]  704 	ld	l, c
    000002CC 60               [ 4]  705 	ld	h, b
    000002CD 19               [11]  706 	add	hl, de
    000002CE 7D               [ 4]  707 	ld	a, l
    000002CF DD 96 F7         [19]  708 	sub	a, -9 (ix)
    000002D2 7C               [ 4]  709 	ld	a, h
    000002D3 DD 9E F8         [19]  710 	sbc	a, -8 (ix)
    000002D6 30 0E            [12]  711 	jr	NC, 00114$
    000002D8 AF               [ 4]  712 	xor	a, a
    000002D9 DD 96 F2         [19]  713 	sub	a, -14 (ix)
    000002DC DD 6E F9         [19]  714 	ld	l, -7 (ix)
    000002DF DD 66 FA         [19]  715 	ld	h, -6 (ix)
    000002E2 77               [ 7]  716 	ld	(hl), a
    000002E3 C3rEEr02         [10]  717 	jp	00118$
    000002E6                        718 00114$:
    000002E6 DD 6E F9         [19]  719 	ld	l, -7 (ix)
    000002E9 DD 66 FA         [19]  720 	ld	h, -6 (ix)
    000002EC 36 00            [10]  721 	ld	(hl), #0x00
    000002EE                        722 00118$:
                                    723 ;E:\Dropbox\FAUSTO\SVILUPPI\MSX\CODE\C\MSXgl\projects\soccerlgMSX2/soccerlg_s22_b3.c:53: p->lx += p->dx; p->ly += p->dy; 
    000002EE DD 6E EC         [19]  724 	ld	l, -20 (ix)
    000002F1 DD 66 ED         [19]  725 	ld	h, -19 (ix)
    000002F4 4E               [ 7]  726 	ld	c, (hl)
    000002F5 DD 6E F3         [19]  727 	ld	l, -13 (ix)
    000002F8 DD 66 F4         [19]  728 	ld	h, -12 (ix)
    000002FB 7E               [ 7]  729 	ld	a, (hl)
    000002FC 81               [ 4]  730 	add	a, c
    000002FD DD 6E EC         [19]  731 	ld	l, -20 (ix)
    00000300 DD 66 ED         [19]  732 	ld	h, -19 (ix)
    00000303 77               [ 7]  733 	ld	(hl), a
    00000304 DD 6E EE         [19]  734 	ld	l, -18 (ix)
    00000307 DD 66 EF         [19]  735 	ld	h, -17 (ix)
    0000030A 4E               [ 7]  736 	ld	c, (hl)
    0000030B 23               [ 6]  737 	inc	hl
    0000030C 46               [ 7]  738 	ld	b, (hl)
    0000030D DD 6E F9         [19]  739 	ld	l, -7 (ix)
    00000310 DD 66 FA         [19]  740 	ld	h, -6 (ix)
    00000313 7E               [ 7]  741 	ld	a, (hl)
    00000314 6F               [ 4]  742 	ld	l, a
                                    743 ;	spillPairReg hl
                                    744 ;	spillPairReg hl
    00000315 07               [ 4]  745 	rlca
    00000316 9F               [ 4]  746 	sbc	a, a
    00000317 67               [ 4]  747 	ld	h, a
                                    748 ;	spillPairReg hl
                                    749 ;	spillPairReg hl
    00000318 09               [11]  750 	add	hl, bc
    00000319 EB               [ 4]  751 	ex	de, hl
    0000031A DD 6E EE         [19]  752 	ld	l, -18 (ix)
    0000031D DD 66 EF         [19]  753 	ld	h, -17 (ix)
    00000320 73               [ 7]  754 	ld	(hl), e
    00000321 23               [ 6]  755 	inc	hl
    00000322 72               [ 7]  756 	ld	(hl), d
                                    757 ;E:\Dropbox\FAUSTO\SVILUPPI\MSX\CODE\C\MSXgl\projects\soccerlgMSX2/soccerlg_s22_b3.c:54: p->anim++;
    00000323 DD 6E EC         [19]  758 	ld	l, -20 (ix)
    00000326 DD 66 ED         [19]  759 	ld	h, -19 (ix)
    00000329 11 13 00         [10]  760 	ld	de, #0x0013
    0000032C 19               [11]  761 	add	hl, de
    0000032D 5E               [ 7]  762 	ld	e, (hl)
    0000032E 23               [ 6]  763 	inc	hl
    0000032F 56               [ 7]  764 	ld	d, (hl)
    00000330 2B               [ 6]  765 	dec	hl
    00000331 13               [ 6]  766 	inc	de
    00000332 73               [ 7]  767 	ld	(hl), e
    00000333 23               [ 6]  768 	inc	hl
    00000334 72               [ 7]  769 	ld	(hl), d
                                    770 ;E:\Dropbox\FAUSTO\SVILUPPI\MSX\CODE\C\MSXgl\projects\soccerlgMSX2/soccerlg_s22_b3.c:56: u8 step = (p->anim / 3) % 4;
    00000335 EB               [ 4]  771 	ex	de, hl
    00000336 11 03 00         [10]  772 	ld	de, #0x0003
    00000339 CDr00r00         [17]  773 	call	__divuint
    0000033C 7B               [ 4]  774 	ld	a, e
    0000033D E6 03            [ 7]  775 	and	a, #0x03
    0000033F 0E 00            [ 7]  776 	ld	c, #0x00
                                    777 ;E:\Dropbox\FAUSTO\SVILUPPI\MSX\CODE\C\MSXgl\projects\soccerlgMSX2/soccerlg_s22_b3.c:57: if (step == 3) step = 1;
    00000341 DD 77 F8         [19]  778 	ld	-8 (ix), a
    00000344 D6 03            [ 7]  779 	sub	a, #0x03
    00000346 20 04            [12]  780 	jr	NZ, 00120$
    00000348 DD 36 F8 01      [19]  781 	ld	-8 (ix), #0x01
    0000034C                        782 00120$:
                                    783 ;E:\Dropbox\FAUSTO\SVILUPPI\MSX\CODE\C\MSXgl\projects\soccerlgMSX2/soccerlg_s22_b3.c:53: p->lx += p->dx; p->ly += p->dy; 
    0000034C DD 6E F9         [19]  784 	ld	l, -7 (ix)
    0000034F DD 66 FA         [19]  785 	ld	h, -6 (ix)
    00000352 7E               [ 7]  786 	ld	a, (hl)
    00000353 DD 77 FA         [19]  787 	ld	-6 (ix), a
                                    788 ;E:\Dropbox\FAUSTO\SVILUPPI\MSX\CODE\C\MSXgl\projects\soccerlgMSX2/soccerlg_s22_b3.c:59: if (p->dy < 0 || (p->dy == 0 && (Frms % 64) < 32)) { 
    00000356 DD CB FA 7E      [20]  789 	bit	7, -6 (ix)
    0000035A 20 1B            [12]  790 	jr	NZ, 00129$
    0000035C DD 7E FA         [19]  791 	ld	a, -6 (ix)
    0000035F B7               [ 4]  792 	or	a, a
    00000360 C2r2Fr04         [10]  793 	jp	NZ, 00130$
    00000363 3Ar00r00         [13]  794 	ld	a, (_Frms+0)
    00000366 E6 3F            [ 7]  795 	and	a, #0x3f
    00000368 4F               [ 4]  796 	ld	c, a
    00000369 06 00            [ 7]  797 	ld	b, #0x00
    0000036B 79               [ 4]  798 	ld	a, c
    0000036C D6 20            [ 7]  799 	sub	a, #0x20
    0000036E 78               [ 4]  800 	ld	a, b
    0000036F 17               [ 4]  801 	rla
    00000370 3F               [ 4]  802 	ccf
    00000371 1F               [ 4]  803 	rra
    00000372 DE 80            [ 7]  804 	sbc	a, #0x80
    00000374 D2r2Fr04         [10]  805 	jp	NC, 00130$
    00000377                        806 00129$:
                                    807 ;E:\Dropbox\FAUSTO\SVILUPPI\MSX\CODE\C\MSXgl\projects\soccerlgMSX2/soccerlg_s22_b3.c:60: if (i == 0 || i == 7) {
    00000377 DD 7E FF         [19]  808 	ld	a, -1 (ix)
    0000037A B7               [ 4]  809 	or	a, a
    0000037B 28 07            [12]  810 	jr	Z, 00121$
    0000037D DD 7E FF         [19]  811 	ld	a, -1 (ix)
    00000380 D6 07            [ 7]  812 	sub	a, #0x07
    00000382 20 3C            [12]  813 	jr	NZ, 00122$
    00000384                        814 00121$:
                                    815 ;E:\Dropbox\FAUSTO\SVILUPPI\MSX\CODE\C\MSXgl\projects\soccerlgMSX2/soccerlg_s22_b3.c:61: p->frame = (step == 0) ? SPR_GK_PLAYER_HAPPY_1 : ((step == 1) ? SPR_GK_PLAYER_HAPPY_2 : SPR_GK_PLAYER_HAPPY_3);
    00000384 DD 7E F8         [19]  816 	ld	a, -8 (ix)
    00000387 B7               [ 4]  817 	or	a, a
    00000388 20 0B            [12]  818 	jr	NZ, 00288$
    0000038A DD 36 F9 FD      [19]  819 	ld	-7 (ix), #0xfd
    0000038E DD 36 FA 00      [19]  820 	ld	-6 (ix), #0
    00000392 C3rAEr03         [10]  821 	jp	00289$
    00000395                        822 00288$:
    00000395 DD 7E F8         [19]  823 	ld	a, -8 (ix)
    00000398 3D               [ 4]  824 	dec	a
    00000399 20 0B            [12]  825 	jr	NZ, 00290$
    0000039B DD 36 F9 FE      [19]  826 	ld	-7 (ix), #0xfe
    0000039F DD 36 FA 00      [19]  827 	ld	-6 (ix), #0
    000003A3 C3rAEr03         [10]  828 	jp	00291$
    000003A6                        829 00290$:
    000003A6 DD 36 F9 FF      [19]  830 	ld	-7 (ix), #0xff
    000003AA DD 36 FA 00      [19]  831 	ld	-6 (ix), #0
    000003AE                        832 00291$:
    000003AE                        833 00289$:
    000003AE DD 4E F9         [19]  834 	ld	c, -7 (ix)
    000003B1 DD 46 FA         [19]  835 	ld	b, -6 (ix)
    000003B4 DD 6E F0         [19]  836 	ld	l, -16 (ix)
    000003B7 DD 66 F1         [19]  837 	ld	h, -15 (ix)
    000003BA 71               [ 7]  838 	ld	(hl), c
    000003BB 23               [ 6]  839 	inc	hl
    000003BC 70               [ 7]  840 	ld	(hl), b
    000003BD C3r1Ar05         [10]  841 	jp	00260$
    000003C0                        842 00122$:
                                    843 ;E:\Dropbox\FAUSTO\SVILUPPI\MSX\CODE\C\MSXgl\projects\soccerlgMSX2/soccerlg_s22_b3.c:63: p->frame = (team == TEAM_1) ? 
    000003C0 DD 7E EB         [19]  844 	ld	a, -21 (ix)
    000003C3 B7               [ 4]  845 	or	a, a
    000003C4 20 2D            [12]  846 	jr	NZ, 00292$
                                    847 ;E:\Dropbox\FAUSTO\SVILUPPI\MSX\CODE\C\MSXgl\projects\soccerlgMSX2/soccerlg_s22_b3.c:64: ((step == 0) ? SPR_T1_PLAYER_HAPPY_TO_NORTH_1 : ((step == 1) ? SPR_T1_PLAYER_HAPPY_TO_NORTH_2 : SPR_T1_PLAYER_HAPPY_TO_NORTH_3)) :
    000003C6 DD 7E F8         [19]  848 	ld	a, -8 (ix)
    000003C9 B7               [ 4]  849 	or	a, a
    000003CA 20 0B            [12]  850 	jr	NZ, 00294$
    000003CC DD 36 F9 5C      [19]  851 	ld	-7 (ix), #0x5c
    000003D0 DD 36 FA 00      [19]  852 	ld	-6 (ix), #0
    000003D4 C3r1Dr04         [10]  853 	jp	00293$
    000003D7                        854 00294$:
    000003D7 DD 7E F8         [19]  855 	ld	a, -8 (ix)
    000003DA 3D               [ 4]  856 	dec	a
    000003DB 20 0B            [12]  857 	jr	NZ, 00296$
    000003DD DD 36 F9 5D      [19]  858 	ld	-7 (ix), #0x5d
    000003E1 DD 36 FA 00      [19]  859 	ld	-6 (ix), #0
    000003E5 C3r1Dr04         [10]  860 	jp	00293$
    000003E8                        861 00296$:
    000003E8 DD 36 F9 5E      [19]  862 	ld	-7 (ix), #0x5e
    000003EC DD 36 FA 00      [19]  863 	ld	-6 (ix), #0
    000003F0 C3r1Dr04         [10]  864 	jp	00293$
    000003F3                        865 00292$:
                                    866 ;E:\Dropbox\FAUSTO\SVILUPPI\MSX\CODE\C\MSXgl\projects\soccerlgMSX2/soccerlg_s22_b3.c:65: ((step == 0) ? SPR_T2_PLAYER_HAPPY_TO_NORTH_1 : ((step == 1) ? SPR_T2_PLAYER_HAPPY_TO_NORTH_2 : SPR_T2_PLAYER_HAPPY_TO_NORTH_3));
    000003F3 DD 7E F8         [19]  867 	ld	a, -8 (ix)
    000003F6 B7               [ 4]  868 	or	a, a
    000003F7 20 0B            [12]  869 	jr	NZ, 00298$
    000003F9 DD 36 F9 CC      [19]  870 	ld	-7 (ix), #0xcc
    000003FD DD 36 FA 00      [19]  871 	ld	-6 (ix), #0
    00000401 C3r1Dr04         [10]  872 	jp	00299$
    00000404                        873 00298$:
    00000404 DD 7E F8         [19]  874 	ld	a, -8 (ix)
    00000407 3D               [ 4]  875 	dec	a
    00000408 20 0B            [12]  876 	jr	NZ, 00300$
    0000040A DD 36 F9 CD      [19]  877 	ld	-7 (ix), #0xcd
    0000040E DD 36 FA 00      [19]  878 	ld	-6 (ix), #0
    00000412 C3r1Dr04         [10]  879 	jp	00301$
    00000415                        880 00300$:
    00000415 DD 36 F9 CE      [19]  881 	ld	-7 (ix), #0xce
    00000419 DD 36 FA 00      [19]  882 	ld	-6 (ix), #0
    0000041D                        883 00301$:
    0000041D                        884 00299$:
    0000041D                        885 00293$:
    0000041D DD 4E F9         [19]  886 	ld	c, -7 (ix)
    00000420 DD 46 FA         [19]  887 	ld	b, -6 (ix)
    00000423 DD 6E F0         [19]  888 	ld	l, -16 (ix)
    00000426 DD 66 F1         [19]  889 	ld	h, -15 (ix)
    00000429 71               [ 7]  890 	ld	(hl), c
    0000042A 23               [ 6]  891 	inc	hl
    0000042B 70               [ 7]  892 	ld	(hl), b
    0000042C C3r1Ar05         [10]  893 	jp	00260$
    0000042F                        894 00130$:
                                    895 ;E:\Dropbox\FAUSTO\SVILUPPI\MSX\CODE\C\MSXgl\projects\soccerlgMSX2/soccerlg_s22_b3.c:68: if (i == 0 || i == 7) {
    0000042F DD 7E FF         [19]  896 	ld	a, -1 (ix)
    00000432 B7               [ 4]  897 	or	a, a
    00000433 28 07            [12]  898 	jr	Z, 00125$
    00000435 DD 7E FF         [19]  899 	ld	a, -1 (ix)
    00000438 D6 07            [ 7]  900 	sub	a, #0x07
    0000043A 20 2C            [12]  901 	jr	NZ, 00126$
    0000043C                        902 00125$:
                                    903 ;E:\Dropbox\FAUSTO\SVILUPPI\MSX\CODE\C\MSXgl\projects\soccerlgMSX2/soccerlg_s22_b3.c:69: p->frame = CallFnc_U16_P4(SEG_GAMESTATE_9, GetPlayerAnimFrame, i, p->dx, p->dy, step);
    0000043C DD 6E F3         [19]  904 	ld	l, -13 (ix)
    0000043F DD 66 F4         [19]  905 	ld	h, -12 (ix)
    00000442 7E               [ 7]  906 	ld	a, (hl)
    00000443 DD 66 F8         [19]  907 	ld	h, -8 (ix)
                                    908 ;	spillPairReg hl
                                    909 ;	spillPairReg hl
    00000446 E5               [11]  910 	push	hl
    00000447 33               [ 6]  911 	inc	sp
    00000448 DD 66 FA         [19]  912 	ld	h, -6 (ix)
                                    913 ;	spillPairReg hl
                                    914 ;	spillPairReg hl
    0000044B E5               [11]  915 	push	hl
    0000044C 33               [ 6]  916 	inc	sp
    0000044D F5               [11]  917 	push	af
    0000044E 33               [ 6]  918 	inc	sp
    0000044F DD 7E FF         [19]  919 	ld	a, -1 (ix)
    00000452 F5               [11]  920 	push	af
    00000453 33               [ 6]  921 	inc	sp
    00000454 11r00r00         [10]  922 	ld	de, #_GetPlayerAnimFrame
    00000457 3E 13            [ 7]  923 	ld	a, #0x13
    00000459 CDr00r00         [17]  924 	call	_CallFnc_U16_P4
    0000045C DD 6E F0         [19]  925 	ld	l, -16 (ix)
    0000045F DD 66 F1         [19]  926 	ld	h, -15 (ix)
    00000462 73               [ 7]  927 	ld	(hl), e
    00000463 23               [ 6]  928 	inc	hl
    00000464 72               [ 7]  929 	ld	(hl), d
    00000465 C3r1Ar05         [10]  930 	jp	00260$
    00000468                        931 00126$:
                                    932 ;E:\Dropbox\FAUSTO\SVILUPPI\MSX\CODE\C\MSXgl\projects\soccerlgMSX2/soccerlg_s22_b3.c:71: p->frame = (team == TEAM_1) ? 
    00000468 DD 7E EB         [19]  933 	ld	a, -21 (ix)
    0000046B B7               [ 4]  934 	or	a, a
    0000046C 20 1E            [12]  935 	jr	NZ, 00302$
                                    936 ;E:\Dropbox\FAUSTO\SVILUPPI\MSX\CODE\C\MSXgl\projects\soccerlgMSX2/soccerlg_s22_b3.c:72: ((step == 0) ? SPR_T1_PLAYER_HAPPY_TO_SOUTH_1 : ((step == 1) ? SPR_T1_PLAYER_HAPPY_TO_SOUTH_2 : SPR_T1_PLAYER_HAPPY_TO_SOUTH_3)) :
    0000046E DD 7E F8         [19]  937 	ld	a, -8 (ix)
    00000471 B7               [ 4]  938 	or	a, a
    00000472 20 06            [12]  939 	jr	NZ, 00304$
    00000474 11 3C 00         [10]  940 	ld	de, #0x003c
    00000477 C3rA7r04         [10]  941 	jp	00303$
    0000047A                        942 00304$:
    0000047A DD 7E F8         [19]  943 	ld	a, -8 (ix)
    0000047D 3D               [ 4]  944 	dec	a
    0000047E 20 06            [12]  945 	jr	NZ, 00306$
    00000480 11 3D 00         [10]  946 	ld	de, #0x003d
    00000483 C3rA7r04         [10]  947 	jp	00303$
    00000486                        948 00306$:
    00000486 11 3E 00         [10]  949 	ld	de, #0x003e
    00000489 C3rA7r04         [10]  950 	jp	00303$
    0000048C                        951 00302$:
                                    952 ;E:\Dropbox\FAUSTO\SVILUPPI\MSX\CODE\C\MSXgl\projects\soccerlgMSX2/soccerlg_s22_b3.c:73: ((step == 0) ? SPR_T2_PLAYER_HAPPY_TO_SOUTH_1 : ((step == 1) ? SPR_T2_PLAYER_HAPPY_TO_SOUTH_2 : SPR_T2_PLAYER_HAPPY_TO_SOUTH_3));
    0000048C DD 7E F8         [19]  953 	ld	a, -8 (ix)
    0000048F B7               [ 4]  954 	or	a, a
    00000490 20 06            [12]  955 	jr	NZ, 00308$
    00000492 11 9C 00         [10]  956 	ld	de, #0x009c
    00000495 C3rA7r04         [10]  957 	jp	00309$
    00000498                        958 00308$:
    00000498 DD 7E F8         [19]  959 	ld	a, -8 (ix)
    0000049B 3D               [ 4]  960 	dec	a
    0000049C 20 06            [12]  961 	jr	NZ, 00310$
    0000049E 11 9D 00         [10]  962 	ld	de, #0x009d
    000004A1 C3rA7r04         [10]  963 	jp	00311$
    000004A4                        964 00310$:
    000004A4 11 9E 00         [10]  965 	ld	de, #0x009e
    000004A7                        966 00311$:
    000004A7                        967 00309$:
    000004A7                        968 00303$:
    000004A7 DD 6E F0         [19]  969 	ld	l, -16 (ix)
    000004AA DD 66 F1         [19]  970 	ld	h, -15 (ix)
    000004AD 73               [ 7]  971 	ld	(hl), e
    000004AE 23               [ 6]  972 	inc	hl
    000004AF 72               [ 7]  973 	ld	(hl), d
    000004B0 C3r1Ar05         [10]  974 	jp	00260$
    000004B3                        975 00138$:
                                    976 ;E:\Dropbox\FAUSTO\SVILUPPI\MSX\CODE\C\MSXgl\projects\soccerlgMSX2/soccerlg_s22_b3.c:78: i8 look_dx = (SwSprite[14].lx > p->lx) ? 1 : ((SwSprite[14].lx < p->lx) ? -1 : 0);
    000004B3 21r42r01         [10]  977 	ld	hl, #(_SwSprite + 322)
    000004B6 4E               [ 7]  978 	ld	c, (hl)
    000004B7 DD 7E FA         [19]  979 	ld	a, -6 (ix)
    000004BA 91               [ 4]  980 	sub	a, c
    000004BB 30 06            [12]  981 	jr	NC, 00312$
    000004BD 11 01 00         [10]  982 	ld	de, #0x0001
    000004C0 C3rD2r04         [10]  983 	jp	00313$
    000004C3                        984 00312$:
    000004C3 79               [ 4]  985 	ld	a, c
    000004C4 DD 96 FA         [19]  986 	sub	a, -6 (ix)
    000004C7 30 06            [12]  987 	jr	NC, 00314$
    000004C9 11 FF FF         [10]  988 	ld	de, #0xffff
    000004CC C3rD2r04         [10]  989 	jp	00315$
    000004CF                        990 00314$:
    000004CF 11 00 00         [10]  991 	ld	de, #0x0000
    000004D2                        992 00315$:
    000004D2                        993 00313$:
    000004D2 4B               [ 4]  994 	ld	c, e
                                    995 ;E:\Dropbox\FAUSTO\SVILUPPI\MSX\CODE\C\MSXgl\projects\soccerlgMSX2/soccerlg_s22_b3.c:79: i8 look_dy = (SwSprite[14].ly > p->ly) ? 1 : ((SwSprite[14].ly < p->ly) ? -1 : 0);
    000004D3 2Ar46r01         [16]  996 	ld	hl, (#_SwSprite + 326)
    000004D6 DD 7E F3         [19]  997 	ld	a, -13 (ix)
    000004D9 95               [ 4]  998 	sub	a, l
    000004DA DD 7E F4         [19]  999 	ld	a, -12 (ix)
    000004DD 9C               [ 4] 1000 	sbc	a, h
    000004DE 30 06            [12] 1001 	jr	NC, 00316$
    000004E0 11 01 00         [10] 1002 	ld	de, #0x0001
    000004E3 C3rF9r04         [10] 1003 	jp	00317$
    000004E6                       1004 00316$:
    000004E6 7D               [ 4] 1005 	ld	a, l
    000004E7 DD 96 F3         [19] 1006 	sub	a, -13 (ix)
    000004EA 7C               [ 4] 1007 	ld	a, h
    000004EB DD 9E F4         [19] 1008 	sbc	a, -12 (ix)
    000004EE 30 06            [12] 1009 	jr	NC, 00318$
    000004F0 11 FF FF         [10] 1010 	ld	de, #0xffff
    000004F3 C3rF9r04         [10] 1011 	jp	00319$
    000004F6                       1012 00318$:
    000004F6 11 00 00         [10] 1013 	ld	de, #0x0000
    000004F9                       1014 00319$:
    000004F9                       1015 00317$:
    000004F9 43               [ 4] 1016 	ld	b, e
                                   1017 ;E:\Dropbox\FAUSTO\SVILUPPI\MSX\CODE\C\MSXgl\projects\soccerlgMSX2/soccerlg_s22_b3.c:80: if (look_dx == 0 && look_dy == 0) look_dy = 1;
    000004FA 79               [ 4] 1018 	ld	a, c
    000004FB B7               [ 4] 1019 	or	a,a
    000004FC 20 05            [12] 1020 	jr	NZ, 00135$
    000004FE B0               [ 4] 1021 	or	a,b
    000004FF 20 02            [12] 1022 	jr	NZ, 00135$
    00000501 06 01            [ 7] 1023 	ld	b, #0x01
    00000503                       1024 00135$:
                                   1025 ;E:\Dropbox\FAUSTO\SVILUPPI\MSX\CODE\C\MSXgl\projects\soccerlgMSX2/soccerlg_s22_b3.c:81: p->frame = CallFnc_U16_P3(SEG_GAMESTATE_9, GetPlayerIdleFrame, i, look_dx, look_dy);
    00000503 C5               [11] 1026 	push	bc
    00000504 DD 7E FF         [19] 1027 	ld	a, -1 (ix)
    00000507 F5               [11] 1028 	push	af
    00000508 33               [ 6] 1029 	inc	sp
    00000509 11r00r00         [10] 1030 	ld	de, #_GetPlayerIdleFrame
    0000050C 3E 13            [ 7] 1031 	ld	a, #0x13
    0000050E CDr00r00         [17] 1032 	call	_CallFnc_U16_P3
    00000511 DD 6E F0         [19] 1033 	ld	l, -16 (ix)
    00000514 DD 66 F1         [19] 1034 	ld	h, -15 (ix)
    00000517 73               [ 7] 1035 	ld	(hl), e
    00000518 23               [ 6] 1036 	inc	hl
    00000519 72               [ 7] 1037 	ld	(hl), d
    0000051A                       1038 00260$:
                                   1039 ;E:\Dropbox\FAUSTO\SVILUPPI\MSX\CODE\C\MSXgl\projects\soccerlgMSX2/soccerlg_s22_b3.c:34: for (u8 i = 0; i < 14; i++) {
    0000051A DD 34 FF         [23] 1040 	inc	-1 (ix)
    0000051D C3r97r00         [10] 1041 	jp	00259$
    00000520                       1042 00140$:
                                   1043 ;E:\Dropbox\FAUSTO\SVILUPPI\MSX\CODE\C\MSXgl\projects\soccerlgMSX2/soccerlg_s22_b3.c:86: struct ObjectInfo* ref = &SwSprite[26];
                                   1044 ;E:\Dropbox\FAUSTO\SVILUPPI\MSX\CODE\C\MSXgl\projects\soccerlgMSX2/soccerlg_s22_b3.c:87: i8 look_dx = (SwSprite[14].lx > ref->lx) ? 1 : ((SwSprite[14].lx < ref->lx) ? -1 : 0);
    00000520 21r42r01         [10] 1045 	ld	hl, #(_SwSprite + 322)
    00000523 4E               [ 7] 1046 	ld	c, (hl)
    00000524 21r56r02         [10] 1047 	ld	hl, #(_SwSprite + 598)
    00000527 46               [ 7] 1048 	ld	b, (hl)
    00000528 78               [ 4] 1049 	ld	a, b
    00000529 91               [ 4] 1050 	sub	a, c
    0000052A 30 06            [12] 1051 	jr	NC, 00320$
    0000052C 01 01 00         [10] 1052 	ld	bc, #0x0001
    0000052F C3r3Fr05         [10] 1053 	jp	00321$
    00000532                       1054 00320$:
    00000532 79               [ 4] 1055 	ld	a, c
    00000533 90               [ 4] 1056 	sub	a, b
    00000534 30 06            [12] 1057 	jr	NC, 00322$
    00000536 01 FF FF         [10] 1058 	ld	bc, #0xffff
    00000539 C3r3Fr05         [10] 1059 	jp	00323$
    0000053C                       1060 00322$:
    0000053C 01 00 00         [10] 1061 	ld	bc, #0x0000
    0000053F                       1062 00323$:
    0000053F                       1063 00321$:
    0000053F DD 71 FF         [19] 1064 	ld	-1 (ix), c
                                   1065 ;E:\Dropbox\FAUSTO\SVILUPPI\MSX\CODE\C\MSXgl\projects\soccerlgMSX2/soccerlg_s22_b3.c:88: i8 look_dy = (SwSprite[14].ly > ref->ly) ? 1 : ((SwSprite[14].ly < ref->ly) ? -1 : 0);
    00000542 ED 4Br46r01      [20] 1066 	ld	bc, (#_SwSprite + 326)
    00000546 ED 5Br5Ar02      [20] 1067 	ld	de, (#(_SwSprite + 598) + 4)
    0000054A 7B               [ 4] 1068 	ld	a, e
    0000054B 91               [ 4] 1069 	sub	a, c
    0000054C 7A               [ 4] 1070 	ld	a, d
    0000054D 98               [ 4] 1071 	sbc	a, b
    0000054E 30 06            [12] 1072 	jr	NC, 00324$
    00000550 11 01 00         [10] 1073 	ld	de, #0x0001
    00000553 C3r65r05         [10] 1074 	jp	00325$
    00000556                       1075 00324$:
    00000556 79               [ 4] 1076 	ld	a, c
    00000557 93               [ 4] 1077 	sub	a, e
    00000558 78               [ 4] 1078 	ld	a, b
    00000559 9A               [ 4] 1079 	sbc	a, d
    0000055A 30 06            [12] 1080 	jr	NC, 00326$
    0000055C 11 FF FF         [10] 1081 	ld	de, #0xffff
    0000055F C3r65r05         [10] 1082 	jp	00327$
    00000562                       1083 00326$:
    00000562 11 00 00         [10] 1084 	ld	de, #0x0000
    00000565                       1085 00327$:
    00000565                       1086 00325$:
    00000565 43               [ 4] 1087 	ld	b, e
                                   1088 ;E:\Dropbox\FAUSTO\SVILUPPI\MSX\CODE\C\MSXgl\projects\soccerlgMSX2/soccerlg_s22_b3.c:89: if (look_dx == 0 && look_dy == 0) look_dy = 1;
    00000566 DD 7E FF         [19] 1089 	ld	a, -1 (ix)
    00000569 B7               [ 4] 1090 	or	a,a
    0000056A 20 05            [12] 1091 	jr	NZ, 00142$
    0000056C B0               [ 4] 1092 	or	a,b
    0000056D 20 02            [12] 1093 	jr	NZ, 00142$
    0000056F 06 01            [ 7] 1094 	ld	b, #0x01
    00000571                       1095 00142$:
                                   1096 ;E:\Dropbox\FAUSTO\SVILUPPI\MSX\CODE\C\MSXgl\projects\soccerlgMSX2/soccerlg_s22_b3.c:90: ref->frame = CallFnc_U16_P3(SEG_GAMESTATE_9, GetPlayerIdleFrame, 26, look_dx, look_dy);
    00000571 C5               [11] 1097 	push	bc
    00000572 33               [ 6] 1098 	inc	sp
    00000573 DD 66 FF         [19] 1099 	ld	h, -1 (ix)
    00000576 2E 1A            [ 7] 1100 	ld	l, #0x1a
    00000578 E5               [11] 1101 	push	hl
    00000579 11r00r00         [10] 1102 	ld	de, #_GetPlayerIdleFrame
    0000057C 3E 13            [ 7] 1103 	ld	a, #0x13
    0000057E CDr00r00         [17] 1104 	call	_CallFnc_U16_P3
    00000581 ED 53r65r02      [20] 1105 	ld	((_SwSprite + 613)), de
                                   1106 ;E:\Dropbox\FAUSTO\SVILUPPI\MSX\CODE\C\MSXgl\projects\soccerlgMSX2/soccerlg_s22_b3.c:91: return;
    00000585 C3r31r11         [10] 1107 	jp	00268$
    00000588                       1108 00256$:
                                   1109 ;E:\Dropbox\FAUSTO\SVILUPPI\MSX\CODE\C\MSXgl\projects\soccerlgMSX2/soccerlg_s22_b3.c:92: } else if (*game_state == 10) {
    00000588 DD 7E FF         [19] 1110 	ld	a, -1 (ix)
    0000058B D6 0A            [ 7] 1111 	sub	a, #0x0a
    0000058D C2rFDr0B         [10] 1112 	jp	NZ,00253$
                                   1113 ;E:\Dropbox\FAUSTO\SVILUPPI\MSX\CODE\C\MSXgl\projects\soccerlgMSX2/soccerlg_s22_b3.c:94: T1_Carrier = T2_Carrier = T1_Receiver = T2_Receiver = 0xFF; // Nascondi i focus
    00000590 21r00r00         [10] 1114 	ld	hl, #_T2_Receiver
    00000593 36 FF            [10] 1115 	ld	(hl), #0xff
    00000595 21r00r00         [10] 1116 	ld	hl, #_T1_Receiver
    00000598 36 FF            [10] 1117 	ld	(hl), #0xff
    0000059A 21r00r00         [10] 1118 	ld	hl, #_T2_Carrier
    0000059D 36 FF            [10] 1119 	ld	(hl), #0xff
    0000059F 21r00r00         [10] 1120 	ld	hl, #_T1_Carrier
    000005A2 36 FF            [10] 1121 	ld	(hl), #0xff
                                   1122 ;E:\Dropbox\FAUSTO\SVILUPPI\MSX\CODE\C\MSXgl\projects\soccerlgMSX2/soccerlg_s22_b3.c:96: bool time_up = FALSE;
    000005A4 DD 36 E6 00      [19] 1123 	ld	-26 (ix), #0x00
                                   1124 ;E:\Dropbox\FAUSTO\SVILUPPI\MSX\CODE\C\MSXgl\projects\soccerlgMSX2/soccerlg_s22_b3.c:97: if (*wait_secs > 0) {
    000005A8 DD 6E FB         [19] 1125 	ld	l, -5 (ix)
    000005AB DD 66 FC         [19] 1126 	ld	h, -4 (ix)
    000005AE 5E               [ 7] 1127 	ld	e, (hl)
    000005AF 7B               [ 4] 1128 	ld	a, e
    000005B0 B7               [ 4] 1129 	or	a, a
    000005B1 28 36            [12] 1130 	jr	Z, 00147$
                                   1131 ;E:\Dropbox\FAUSTO\SVILUPPI\MSX\CODE\C\MSXgl\projects\soccerlgMSX2/soccerlg_s22_b3.c:98: if (*start_sec < Frms) { 
    000005B3 DD 7E 04         [19] 1132 	ld	a, 4 (ix)
    000005B6 DD 77 F9         [19] 1133 	ld	-7 (ix), a
    000005B9 DD 7E 05         [19] 1134 	ld	a, 5 (ix)
    000005BC DD 77 FA         [19] 1135 	ld	-6 (ix), a
    000005BF DD 6E F9         [19] 1136 	ld	l, -7 (ix)
    000005C2 DD 66 FA         [19] 1137 	ld	h, -6 (ix)
    000005C5 4E               [ 7] 1138 	ld	c, (hl)
    000005C6 21r00r00         [10] 1139 	ld	hl, #_Frms
    000005C9 79               [ 4] 1140 	ld	a, c
    000005CA 96               [ 7] 1141 	sub	a, (hl)
    000005CB 30 0F            [12] 1142 	jr	NC, 00145$
                                   1143 ;E:\Dropbox\FAUSTO\SVILUPPI\MSX\CODE\C\MSXgl\projects\soccerlgMSX2/soccerlg_s22_b3.c:99: (*wait_secs)--; 
    000005CD 7B               [ 4] 1144 	ld	a, e
    000005CE 3D               [ 4] 1145 	dec	a
    000005CF DD 77 FF         [19] 1146 	ld	-1 (ix), a
    000005D2 DD 6E FB         [19] 1147 	ld	l, -5 (ix)
    000005D5 DD 66 FC         [19] 1148 	ld	h, -4 (ix)
    000005D8 DD 7E FF         [19] 1149 	ld	a, -1 (ix)
    000005DB 77               [ 7] 1150 	ld	(hl), a
    000005DC                       1151 00145$:
                                   1152 ;E:\Dropbox\FAUSTO\SVILUPPI\MSX\CODE\C\MSXgl\projects\soccerlgMSX2/soccerlg_s22_b3.c:101: *start_sec = Frms;
    000005DC DD 6E F9         [19] 1153 	ld	l, -7 (ix)
    000005DF DD 66 FA         [19] 1154 	ld	h, -6 (ix)
    000005E2 3Ar00r00         [13] 1155 	ld	a, (_Frms+0)
    000005E5 77               [ 7] 1156 	ld	(hl), a
    000005E6 C3rEDr05         [10] 1157 	jp	00148$
    000005E9                       1158 00147$:
                                   1159 ;E:\Dropbox\FAUSTO\SVILUPPI\MSX\CODE\C\MSXgl\projects\soccerlgMSX2/soccerlg_s22_b3.c:103: time_up = TRUE;
    000005E9 DD 36 E6 01      [19] 1160 	ld	-26 (ix), #0x01
    000005ED                       1161 00148$:
                                   1162 ;E:\Dropbox\FAUSTO\SVILUPPI\MSX\CODE\C\MSXgl\projects\soccerlgMSX2/soccerlg_s22_b3.c:106: u8 winning_team = (ScoreTeam1 > ScoreTeam2) ? TEAM_1 : TEAM_2;
    000005ED 3Ar00r00         [13] 1163 	ld	a, (#_ScoreTeam2)
    000005F0 FD 21r00r00      [14] 1164 	ld	iy, #_ScoreTeam1
    000005F4 FD 96 00         [19] 1165 	sub	a, 0 (iy)
    000005F7 30 06            [12] 1166 	jr	NC, 00328$
    000005F9 11 00 00         [10] 1167 	ld	de, #0x0000
    000005FC C3r02r06         [10] 1168 	jp	00329$
    000005FF                       1169 00328$:
    000005FF 11 01 00         [10] 1170 	ld	de, #0x0001
    00000602                       1171 00329$:
                                   1172 ;E:\Dropbox\FAUSTO\SVILUPPI\MSX\CODE\C\MSXgl\projects\soccerlgMSX2/soccerlg_s22_b3.c:107: u8 losing_team = (winning_team == TEAM_1) ? TEAM_2 : TEAM_1;
    00000602 DD 73 E7         [19] 1173 	ld	-25 (ix), e
    00000605 7B               [ 4] 1174 	ld	a, e
    00000606 B7               [ 4] 1175 	or	a, a
    00000607 20 0B            [12] 1176 	jr	NZ, 00330$
    00000609 DD 36 F9 01      [19] 1177 	ld	-7 (ix), #0x01
    0000060D DD 36 FA 00      [19] 1178 	ld	-6 (ix), #0
    00000611 C3r1Br06         [10] 1179 	jp	00331$
    00000614                       1180 00330$:
    00000614 AF               [ 4] 1181 	xor	a, a
    00000615 DD 77 F9         [19] 1182 	ld	-7 (ix), a
    00000618 DD 77 FA         [19] 1183 	ld	-6 (ix), a
    0000061B                       1184 00331$:
    0000061B DD 7E F9         [19] 1185 	ld	a, -7 (ix)
    0000061E DD 77 E8         [19] 1186 	ld	-24 (ix), a
                                   1187 ;E:\Dropbox\FAUSTO\SVILUPPI\MSX\CODE\C\MSXgl\projects\soccerlgMSX2/soccerlg_s22_b3.c:108: bool all_offscreen = TRUE;
    00000621 DD 36 E9 01      [19] 1188 	ld	-23 (ix), #0x01
                                   1189 ;E:\Dropbox\FAUSTO\SVILUPPI\MSX\CODE\C\MSXgl\projects\soccerlgMSX2/soccerlg_s22_b3.c:110: i8 exit_dy = (Field.ly < 256) ? -3 : 3; // Escono velocemente verso il bordo schermo più vicino
    00000625 21r04r00         [10] 1190 	ld	hl, #(_Field + 4)
    00000628 7E               [ 7] 1191 	ld	a, (hl)
    00000629 DD 77 F9         [19] 1192 	ld	-7 (ix), a
    0000062C 23               [ 6] 1193 	inc	hl
    0000062D 7E               [ 7] 1194 	ld	a, (hl)
    0000062E DD 77 FA         [19] 1195 	ld	-6 (ix), a
    00000631 D6 01            [ 7] 1196 	sub	a, #0x01
    00000633 30 0B            [12] 1197 	jr	NC, 00332$
    00000635 DD 36 F9 FD      [19] 1198 	ld	-7 (ix), #0xfd
    00000639 DD 36 FA FF      [19] 1199 	ld	-6 (ix), #0xff
    0000063D C3r48r06         [10] 1200 	jp	00333$
    00000640                       1201 00332$:
    00000640 DD 36 F9 03      [19] 1202 	ld	-7 (ix), #0x03
    00000644 DD 36 FA 00      [19] 1203 	ld	-6 (ix), #0
    00000648                       1204 00333$:
    00000648 DD 7E F9         [19] 1205 	ld	a, -7 (ix)
    0000064B DD 77 EA         [19] 1206 	ld	-22 (ix), a
                                   1207 ;E:\Dropbox\FAUSTO\SVILUPPI\MSX\CODE\C\MSXgl\projects\soccerlgMSX2/soccerlg_s22_b3.c:112: for (u8 i = 0; i <= 26; i++) {
    0000064E DD 36 FF 00      [19] 1208 	ld	-1 (ix), #0x00
    00000652                       1209 00262$:
    00000652 3E 1A            [ 7] 1210 	ld	a, #0x1a
    00000654 DD 96 FF         [19] 1211 	sub	a, -1 (ix)
    00000657 DArE4r0B         [10] 1212 	jp	C, 00193$
                                   1213 ;E:\Dropbox\FAUSTO\SVILUPPI\MSX\CODE\C\MSXgl\projects\soccerlgMSX2/soccerlg_s22_b3.c:113: if (i >= 15 && i < 26) continue; // Salta UI e Frecce
    0000065A DD 7E FF         [19] 1214 	ld	a, -1 (ix)
    0000065D D6 0F            [ 7] 1215 	sub	a, #0x0f
    0000065F 38 08            [12] 1216 	jr	C, 00150$
    00000661 DD 7E FF         [19] 1217 	ld	a, -1 (ix)
    00000664 D6 1A            [ 7] 1218 	sub	a, #0x1a
    00000666 DArDEr0B         [10] 1219 	jp	C, 00192$
    00000669                       1220 00150$:
                                   1221 ;E:\Dropbox\FAUSTO\SVILUPPI\MSX\CODE\C\MSXgl\projects\soccerlgMSX2/soccerlg_s22_b3.c:115: struct ObjectInfo* p = &SwSprite[i];
    00000669 DD 4E FF         [19] 1222 	ld	c, -1 (ix)
    0000066C 06 00            [ 7] 1223 	ld	b, #0x00
    0000066E 69               [ 4] 1224 	ld	l, c
    0000066F 60               [ 4] 1225 	ld	h, b
    00000670 29               [11] 1226 	add	hl, hl
    00000671 29               [11] 1227 	add	hl, hl
    00000672 09               [11] 1228 	add	hl, bc
    00000673 29               [11] 1229 	add	hl, hl
    00000674 09               [11] 1230 	add	hl, bc
    00000675 29               [11] 1231 	add	hl, hl
    00000676 09               [11] 1232 	add	hl, bc
    00000677 11r00r00         [10] 1233 	ld	de, #_SwSprite
    0000067A 19               [11] 1234 	add	hl, de
    0000067B DD 75 EB         [19] 1235 	ld	-21 (ix), l
    0000067E DD 74 EC         [19] 1236 	ld	-20 (ix), h
                                   1237 ;E:\Dropbox\FAUSTO\SVILUPPI\MSX\CODE\C\MSXgl\projects\soccerlgMSX2/soccerlg_s22_b3.c:116: u8 team = (i < 7) ? TEAM_1 : ((i < 14) ? TEAM_2 : 0xFF);
    00000681 DD 7E FF         [19] 1238 	ld	a, -1 (ix)
    00000684 D6 07            [ 7] 1239 	sub	a, #0x07
    00000686 30 06            [12] 1240 	jr	NC, 00334$
    00000688 01 00 00         [10] 1241 	ld	bc, #0x0000
    0000068B C3r9Er06         [10] 1242 	jp	00335$
    0000068E                       1243 00334$:
    0000068E DD 7E FF         [19] 1244 	ld	a, -1 (ix)
    00000691 D6 0E            [ 7] 1245 	sub	a, #0x0e
    00000693 30 06            [12] 1246 	jr	NC, 00336$
    00000695 01 01 00         [10] 1247 	ld	bc, #0x0001
    00000698 C3r9Er06         [10] 1248 	jp	00337$
    0000069B                       1249 00336$:
    0000069B 01 FF 00         [10] 1250 	ld	bc, #0x00ff
    0000069E                       1251 00337$:
    0000069E                       1252 00335$:
    0000069E DD 71 ED         [19] 1253 	ld	-19 (ix), c
                                   1254 ;E:\Dropbox\FAUSTO\SVILUPPI\MSX\CODE\C\MSXgl\projects\soccerlgMSX2/soccerlg_s22_b3.c:118: if (team == winning_team) {
    000006A1 DD 7E E7         [19] 1255 	ld	a, -25 (ix)
    000006A4 DD 96 ED         [19] 1256 	sub	a, -19 (ix)
    000006A7 C2r14r0A         [10] 1257 	jp	NZ,00190$
                                   1258 ;E:\Dropbox\FAUSTO\SVILUPPI\MSX\CODE\C\MSXgl\projects\soccerlgMSX2/soccerlg_s22_b3.c:121: u16 center_y = Field.ly + 96;
    000006AA 2Ar04r00         [16] 1259 	ld	hl, (#(_Field + 4) + 0)
    000006AD 01 60 00         [10] 1260 	ld	bc, #0x0060
    000006B0 09               [11] 1261 	add	hl, bc
    000006B1 E5               [11] 1262 	push	hl
    000006B2 FD E1            [14] 1263 	pop	iy
                                   1264 ;E:\Dropbox\FAUSTO\SVILUPPI\MSX\CODE\C\MSXgl\projects\soccerlgMSX2/soccerlg_s22_b3.c:123: u16 t_x = center_x - 80 + ((i * 31 + Frms) % 160);
    000006B4 DD 4E FF         [19] 1265 	ld	c, -1 (ix)
    000006B7 06 00            [ 7] 1266 	ld	b, #0x00
    000006B9 69               [ 4] 1267 	ld	l, c
    000006BA 60               [ 4] 1268 	ld	h, b
    000006BB 29               [11] 1269 	add	hl, hl
    000006BC 09               [11] 1270 	add	hl, bc
    000006BD 29               [11] 1271 	add	hl, hl
    000006BE 09               [11] 1272 	add	hl, bc
    000006BF 29               [11] 1273 	add	hl, hl
    000006C0 09               [11] 1274 	add	hl, bc
    000006C1 29               [11] 1275 	add	hl, hl
    000006C2 09               [11] 1276 	add	hl, bc
    000006C3 3Ar00r00         [13] 1277 	ld	a, (_Frms+0)
    000006C6 DD 77 F4         [19] 1278 	ld	-12 (ix), a
    000006C9 DD 36 F5 00      [19] 1279 	ld	-11 (ix), #0x00
    000006CD 5F               [ 4] 1280 	ld	e, a
    000006CE 16 00            [ 7] 1281 	ld	d, #0x00
    000006D0 19               [11] 1282 	add	hl, de
    000006D1 C5               [11] 1283 	push	bc
    000006D2 FD E5            [15] 1284 	push	iy
    000006D4 11 A0 00         [10] 1285 	ld	de, #0x00a0
    000006D7 CDr00r00         [17] 1286 	call	__modsint
    000006DA FD E1            [14] 1287 	pop	iy
    000006DC C1               [10] 1288 	pop	bc
    000006DD 21 30 00         [10] 1289 	ld	hl, #0x0030
    000006E0 19               [11] 1290 	add	hl, de
    000006E1 DD 75 F6         [19] 1291 	ld	-10 (ix), l
    000006E4 DD 74 F7         [19] 1292 	ld	-9 (ix), h
                                   1293 ;E:\Dropbox\FAUSTO\SVILUPPI\MSX\CODE\C\MSXgl\projects\soccerlgMSX2/soccerlg_s22_b3.c:124: u16 t_y = center_y - 60 + ((i * 47 + Frms) % 120);
    000006E7 FD E5            [15] 1294 	push	iy
    000006E9 D1               [10] 1295 	pop	de
    000006EA 7B               [ 4] 1296 	ld	a, e
    000006EB C6 C4            [ 7] 1297 	add	a, #0xc4
    000006ED DD 77 F9         [19] 1298 	ld	-7 (ix), a
    000006F0 7A               [ 4] 1299 	ld	a, d
    000006F1 CE FF            [ 7] 1300 	adc	a, #0xff
    000006F3 DD 77 FA         [19] 1301 	ld	-6 (ix), a
    000006F6 69               [ 4] 1302 	ld	l, c
    000006F7 60               [ 4] 1303 	ld	h, b
    000006F8 29               [11] 1304 	add	hl, hl
    000006F9 29               [11] 1305 	add	hl, hl
    000006FA 09               [11] 1306 	add	hl, bc
    000006FB 29               [11] 1307 	add	hl, hl
    000006FC 09               [11] 1308 	add	hl, bc
    000006FD 29               [11] 1309 	add	hl, hl
    000006FE 09               [11] 1310 	add	hl, bc
    000006FF 29               [11] 1311 	add	hl, hl
    00000700 09               [11] 1312 	add	hl, bc
    00000701 DD 5E F4         [19] 1313 	ld	e, -12 (ix)
    00000704 DD 56 F5         [19] 1314 	ld	d, -11 (ix)
    00000707 19               [11] 1315 	add	hl, de
    00000708 11 78 00         [10] 1316 	ld	de, #0x0078
    0000070B CDr00r00         [17] 1317 	call	__modsint
    0000070E DD 6E F9         [19] 1318 	ld	l, -7 (ix)
    00000711 DD 66 FA         [19] 1319 	ld	h, -6 (ix)
    00000714 19               [11] 1320 	add	hl, de
    00000715 4D               [ 4] 1321 	ld	c, l
    00000716 44               [ 4] 1322 	ld	b, h
                                   1323 ;E:\Dropbox\FAUSTO\SVILUPPI\MSX\CODE\C\MSXgl\projects\soccerlgMSX2/soccerlg_s22_b3.c:126: u16 dist_x = (p->lx > t_x) ? (p->lx - t_x) : (t_x - p->lx);
    00000717 DD 6E EB         [19] 1324 	ld	l, -21 (ix)
    0000071A DD 66 EC         [19] 1325 	ld	h, -20 (ix)
    0000071D 7E               [ 7] 1326 	ld	a, (hl)
    0000071E DD 77 F8         [19] 1327 	ld	-8 (ix), a
    00000721 6F               [ 4] 1328 	ld	l, a
                                   1329 ;	spillPairReg hl
                                   1330 ;	spillPairReg hl
    00000722 26 00            [ 7] 1331 	ld	h, #0x00
                                   1332 ;	spillPairReg hl
                                   1333 ;	spillPairReg hl
    00000724 DD 5E F8         [19] 1334 	ld	e, -8 (ix)
    00000727 16 00            [ 7] 1335 	ld	d, #0x00
    00000729 DD 7E F6         [19] 1336 	ld	a, -10 (ix)
    0000072C DD 77 F9         [19] 1337 	ld	-7 (ix), a
    0000072F DD 7E F7         [19] 1338 	ld	a, -9 (ix)
    00000732 DD 77 FA         [19] 1339 	ld	-6 (ix), a
    00000735 DD 7E F6         [19] 1340 	ld	a, -10 (ix)
    00000738 95               [ 4] 1341 	sub	a, l
    00000739 DD 7E F7         [19] 1342 	ld	a, -9 (ix)
    0000073C 9C               [ 4] 1343 	sbc	a, h
    0000073D 30 0C            [12] 1344 	jr	NC, 00338$
    0000073F 7B               [ 4] 1345 	ld	a, e
    00000740 DD 96 F6         [19] 1346 	sub	a, -10 (ix)
    00000743 5F               [ 4] 1347 	ld	e, a
    00000744 7A               [ 4] 1348 	ld	a, d
    00000745 DD 9E F7         [19] 1349 	sbc	a, -9 (ix)
    00000748 C3r54r07         [10] 1350 	jp	00339$
    0000074B                       1351 00338$:
    0000074B DD 7E F9         [19] 1352 	ld	a, -7 (ix)
    0000074E 93               [ 4] 1353 	sub	a, e
    0000074F 5F               [ 4] 1354 	ld	e, a
    00000750 DD 7E FA         [19] 1355 	ld	a, -6 (ix)
    00000753 9A               [ 4] 1356 	sbc	a, d
    00000754                       1357 00339$:
    00000754 DD 73 F6         [19] 1358 	ld	-10 (ix), e
    00000757 DD 77 F7         [19] 1359 	ld	-9 (ix), a
                                   1360 ;E:\Dropbox\FAUSTO\SVILUPPI\MSX\CODE\C\MSXgl\projects\soccerlgMSX2/soccerlg_s22_b3.c:127: u16 dist_y = (p->ly > t_y) ? (p->ly - t_y) : (t_y - p->ly);
    0000075A DD 7E EB         [19] 1361 	ld	a, -21 (ix)
    0000075D C6 04            [ 7] 1362 	add	a, #0x04
    0000075F DD 77 EE         [19] 1363 	ld	-18 (ix), a
    00000762 DD 7E EC         [19] 1364 	ld	a, -20 (ix)
    00000765 CE 00            [ 7] 1365 	adc	a, #0x00
    00000767 DD 77 EF         [19] 1366 	ld	-17 (ix), a
    0000076A DD 6E EE         [19] 1367 	ld	l, -18 (ix)
    0000076D DD 66 EF         [19] 1368 	ld	h, -17 (ix)
    00000770 5E               [ 7] 1369 	ld	e, (hl)
    00000771 23               [ 6] 1370 	inc	hl
    00000772 56               [ 7] 1371 	ld	d, (hl)
    00000773 79               [ 4] 1372 	ld	a, c
    00000774 93               [ 4] 1373 	sub	a, e
    00000775 78               [ 4] 1374 	ld	a, b
    00000776 9A               [ 4] 1375 	sbc	a, d
    00000777 30 08            [12] 1376 	jr	NC, 00340$
    00000779 7B               [ 4] 1377 	ld	a, e
    0000077A 91               [ 4] 1378 	sub	a, c
    0000077B 5F               [ 4] 1379 	ld	e, a
    0000077C 7A               [ 4] 1380 	ld	a, d
    0000077D 98               [ 4] 1381 	sbc	a, b
    0000077E C3r86r07         [10] 1382 	jp	00341$
    00000781                       1383 00340$:
    00000781 79               [ 4] 1384 	ld	a, c
    00000782 93               [ 4] 1385 	sub	a, e
    00000783 5F               [ 4] 1386 	ld	e, a
    00000784 78               [ 4] 1387 	ld	a, b
    00000785 9A               [ 4] 1388 	sbc	a, d
    00000786                       1389 00341$:
    00000786 DD 73 F4         [19] 1390 	ld	-12 (ix), e
    00000789 DD 77 F5         [19] 1391 	ld	-11 (ix), a
                                   1392 ;E:\Dropbox\FAUSTO\SVILUPPI\MSX\CODE\C\MSXgl\projects\soccerlgMSX2/soccerlg_s22_b3.c:128: u8 speed = (dist_x > 100 || dist_y > 100) ? 6 : ((dist_x > 50 || dist_y > 50) ? 4 : 2);
    0000078C 3E 64            [ 7] 1393 	ld	a, #0x64
    0000078E DD BE F6         [19] 1394 	cp	a, -10 (ix)
    00000791 3E 00            [ 7] 1395 	ld	a, #0x00
    00000793 DD 9E F7         [19] 1396 	sbc	a, -9 (ix)
    00000796 38 0E            [12] 1397 	jr	C, 00345$
    00000798 DD 5E F4         [19] 1398 	ld	e, -12 (ix)
    0000079B DD 56 F5         [19] 1399 	ld	d, -11 (ix)
    0000079E 3E 64            [ 7] 1400 	ld	a, #0x64
    000007A0 BB               [ 4] 1401 	cp	a, e
    000007A1 3E 00            [ 7] 1402 	ld	a, #0x00
    000007A3 9A               [ 4] 1403 	sbc	a, d
    000007A4 30 0B            [12] 1404 	jr	NC, 00342$
    000007A6                       1405 00345$:
    000007A6 DD 36 F6 06      [19] 1406 	ld	-10 (ix), #0x06
    000007AA DD 36 F7 00      [19] 1407 	ld	-9 (ix), #0
    000007AE C3rD4r07         [10] 1408 	jp	00343$
    000007B1                       1409 00342$:
    000007B1 3E 32            [ 7] 1410 	ld	a, #0x32
    000007B3 DD BE F6         [19] 1411 	cp	a, -10 (ix)
    000007B6 3E 00            [ 7] 1412 	ld	a, #0x00
    000007B8 DD 9E F7         [19] 1413 	sbc	a, -9 (ix)
    000007BB 38 08            [12] 1414 	jr	C, 00350$
    000007BD 3E 32            [ 7] 1415 	ld	a, #0x32
    000007BF BB               [ 4] 1416 	cp	a, e
    000007C0 3E 00            [ 7] 1417 	ld	a, #0x00
    000007C2 9A               [ 4] 1418 	sbc	a, d
    000007C3 30 06            [12] 1419 	jr	NC, 00347$
    000007C5                       1420 00350$:
    000007C5 11 04 00         [10] 1421 	ld	de, #0x0004
    000007C8 C3rCEr07         [10] 1422 	jp	00348$
    000007CB                       1423 00347$:
    000007CB 11 02 00         [10] 1424 	ld	de, #0x0002
    000007CE                       1425 00348$:
    000007CE DD 73 F6         [19] 1426 	ld	-10 (ix), e
    000007D1 DD 72 F7         [19] 1427 	ld	-9 (ix), d
    000007D4                       1428 00343$:
    000007D4 DD 7E F6         [19] 1429 	ld	a, -10 (ix)
                                   1430 ;E:\Dropbox\FAUSTO\SVILUPPI\MSX\CODE\C\MSXgl\projects\soccerlgMSX2/soccerlg_s22_b3.c:130: if (p->lx < t_x - speed) p->dx = speed; else if (p->lx > t_x + speed) p->dx = -speed; else p->dx = 0;
    000007D7 DD 77 F0         [19] 1431 	ld	-16 (ix), a
    000007DA 1E 00            [ 7] 1432 	ld	e, #0x00
    000007DC DD 77 F1         [19] 1433 	ld	-15 (ix), a
    000007DF DD 73 F2         [19] 1434 	ld	-14 (ix), e
    000007E2 DD 7E F9         [19] 1435 	ld	a, -7 (ix)
    000007E5 DD 96 F1         [19] 1436 	sub	a, -15 (ix)
    000007E8 6F               [ 4] 1437 	ld	l, a
                                   1438 ;	spillPairReg hl
                                   1439 ;	spillPairReg hl
    000007E9 DD 7E FA         [19] 1440 	ld	a, -6 (ix)
    000007EC DD 9E F2         [19] 1441 	sbc	a, -14 (ix)
    000007EF 67               [ 4] 1442 	ld	h, a
                                   1443 ;	spillPairReg hl
                                   1444 ;	spillPairReg hl
    000007F0 DD 5E F8         [19] 1445 	ld	e, -8 (ix)
    000007F3 16 00            [ 7] 1446 	ld	d, #0x00
    000007F5 DD 7E EB         [19] 1447 	ld	a, -21 (ix)
    000007F8 C6 11            [ 7] 1448 	add	a, #0x11
    000007FA DD 77 F3         [19] 1449 	ld	-13 (ix), a
    000007FD DD 7E EC         [19] 1450 	ld	a, -20 (ix)
    00000800 CE 00            [ 7] 1451 	adc	a, #0x00
    00000802 DD 77 F4         [19] 1452 	ld	-12 (ix), a
    00000805 7B               [ 4] 1453 	ld	a, e
    00000806 95               [ 4] 1454 	sub	a, l
    00000807 7A               [ 4] 1455 	ld	a, d
    00000808 9C               [ 4] 1456 	sbc	a, h
    00000809 30 0D            [12] 1457 	jr	NC, 00156$
    0000080B DD 6E F3         [19] 1458 	ld	l, -13 (ix)
    0000080E DD 66 F4         [19] 1459 	ld	h, -12 (ix)
    00000811 DD 7E F0         [19] 1460 	ld	a, -16 (ix)
    00000814 77               [ 7] 1461 	ld	(hl), a
    00000815 C3r41r08         [10] 1462 	jp	00157$
    00000818                       1463 00156$:
    00000818 DD 7E F9         [19] 1464 	ld	a, -7 (ix)
    0000081B DD 86 F1         [19] 1465 	add	a, -15 (ix)
    0000081E 6F               [ 4] 1466 	ld	l, a
                                   1467 ;	spillPairReg hl
                                   1468 ;	spillPairReg hl
    0000081F DD 7E FA         [19] 1469 	ld	a, -6 (ix)
    00000822 DD 8E F2         [19] 1470 	adc	a, -14 (ix)
    00000825 67               [ 4] 1471 	ld	h, a
                                   1472 ;	spillPairReg hl
                                   1473 ;	spillPairReg hl
    00000826 AF               [ 4] 1474 	xor	a, a
    00000827 ED 52            [15] 1475 	sbc	hl, de
    00000829 30 0E            [12] 1476 	jr	NC, 00153$
    0000082B AF               [ 4] 1477 	xor	a, a
    0000082C DD 96 F0         [19] 1478 	sub	a, -16 (ix)
    0000082F DD 6E F3         [19] 1479 	ld	l, -13 (ix)
    00000832 DD 66 F4         [19] 1480 	ld	h, -12 (ix)
    00000835 77               [ 7] 1481 	ld	(hl), a
    00000836 C3r41r08         [10] 1482 	jp	00157$
    00000839                       1483 00153$:
    00000839 DD 6E F3         [19] 1484 	ld	l, -13 (ix)
    0000083C DD 66 F4         [19] 1485 	ld	h, -12 (ix)
    0000083F 36 00            [10] 1486 	ld	(hl), #0x00
    00000841                       1487 00157$:
                                   1488 ;E:\Dropbox\FAUSTO\SVILUPPI\MSX\CODE\C\MSXgl\projects\soccerlgMSX2/soccerlg_s22_b3.c:131: if (p->ly < t_y - speed) p->dy = speed; else if (p->ly > t_y + speed) p->dy = -speed; else p->dy = 0;
    00000841 DD 6E EE         [19] 1489 	ld	l, -18 (ix)
    00000844 DD 66 EF         [19] 1490 	ld	h, -17 (ix)
    00000847 5E               [ 7] 1491 	ld	e, (hl)
    00000848 23               [ 6] 1492 	inc	hl
    00000849 56               [ 7] 1493 	ld	d, (hl)
    0000084A DD 71 F5         [19] 1494 	ld	-11 (ix), c
    0000084D DD 70 F6         [19] 1495 	ld	-10 (ix), b
    00000850 DD 7E F5         [19] 1496 	ld	a, -11 (ix)
    00000853 DD 96 F1         [19] 1497 	sub	a, -15 (ix)
    00000856 4F               [ 4] 1498 	ld	c, a
    00000857 DD 7E F6         [19] 1499 	ld	a, -10 (ix)
    0000085A DD 9E F2         [19] 1500 	sbc	a, -14 (ix)
    0000085D 47               [ 4] 1501 	ld	b, a
    0000085E DD 73 F7         [19] 1502 	ld	-9 (ix), e
    00000861 DD 72 F8         [19] 1503 	ld	-8 (ix), d
    00000864 DD 7E EB         [19] 1504 	ld	a, -21 (ix)
    00000867 C6 12            [ 7] 1505 	add	a, #0x12
    00000869 DD 77 F9         [19] 1506 	ld	-7 (ix), a
    0000086C DD 7E EC         [19] 1507 	ld	a, -20 (ix)
    0000086F CE 00            [ 7] 1508 	adc	a, #0x00
    00000871 DD 77 FA         [19] 1509 	ld	-6 (ix), a
    00000874 DD 7E F7         [19] 1510 	ld	a, -9 (ix)
    00000877 91               [ 4] 1511 	sub	a, c
    00000878 DD 7E F8         [19] 1512 	ld	a, -8 (ix)
    0000087B 98               [ 4] 1513 	sbc	a, b
    0000087C 30 0D            [12] 1514 	jr	NC, 00162$
    0000087E DD 6E F9         [19] 1515 	ld	l, -7 (ix)
    00000881 DD 66 FA         [19] 1516 	ld	h, -6 (ix)
    00000884 DD 7E F0         [19] 1517 	ld	a, -16 (ix)
    00000887 77               [ 7] 1518 	ld	(hl), a
    00000888 C3rB9r08         [10] 1519 	jp	00163$
    0000088B                       1520 00162$:
    0000088B DD 7E F5         [19] 1521 	ld	a, -11 (ix)
    0000088E DD 86 F1         [19] 1522 	add	a, -15 (ix)
    00000891 4F               [ 4] 1523 	ld	c, a
    00000892 DD 7E F6         [19] 1524 	ld	a, -10 (ix)
    00000895 DD 8E F2         [19] 1525 	adc	a, -14 (ix)
    00000898 47               [ 4] 1526 	ld	b, a
    00000899 79               [ 4] 1527 	ld	a, c
    0000089A DD 96 F7         [19] 1528 	sub	a, -9 (ix)
    0000089D 78               [ 4] 1529 	ld	a, b
    0000089E DD 9E F8         [19] 1530 	sbc	a, -8 (ix)
    000008A1 30 0E            [12] 1531 	jr	NC, 00159$
    000008A3 AF               [ 4] 1532 	xor	a, a
    000008A4 DD 96 F0         [19] 1533 	sub	a, -16 (ix)
    000008A7 DD 6E F9         [19] 1534 	ld	l, -7 (ix)
    000008AA DD 66 FA         [19] 1535 	ld	h, -6 (ix)
    000008AD 77               [ 7] 1536 	ld	(hl), a
    000008AE C3rB9r08         [10] 1537 	jp	00163$
    000008B1                       1538 00159$:
    000008B1 DD 6E F9         [19] 1539 	ld	l, -7 (ix)
    000008B4 DD 66 FA         [19] 1540 	ld	h, -6 (ix)
    000008B7 36 00            [10] 1541 	ld	(hl), #0x00
    000008B9                       1542 00163$:
                                   1543 ;E:\Dropbox\FAUSTO\SVILUPPI\MSX\CODE\C\MSXgl\projects\soccerlgMSX2/soccerlg_s22_b3.c:133: p->lx += p->dx; p->ly += p->dy; p->anim++;
    000008B9 DD 6E EB         [19] 1544 	ld	l, -21 (ix)
    000008BC DD 66 EC         [19] 1545 	ld	h, -20 (ix)
    000008BF 7E               [ 7] 1546 	ld	a, (hl)
    000008C0 DD 6E F3         [19] 1547 	ld	l, -13 (ix)
    000008C3 DD 66 F4         [19] 1548 	ld	h, -12 (ix)
    000008C6 4E               [ 7] 1549 	ld	c, (hl)
    000008C7 81               [ 4] 1550 	add	a, c
    000008C8 DD 6E EB         [19] 1551 	ld	l, -21 (ix)
    000008CB DD 66 EC         [19] 1552 	ld	h, -20 (ix)
    000008CE 77               [ 7] 1553 	ld	(hl), a
    000008CF DD 6E EE         [19] 1554 	ld	l, -18 (ix)
    000008D2 DD 66 EF         [19] 1555 	ld	h, -17 (ix)
    000008D5 4E               [ 7] 1556 	ld	c, (hl)
    000008D6 23               [ 6] 1557 	inc	hl
    000008D7 46               [ 7] 1558 	ld	b, (hl)
    000008D8 DD 6E F9         [19] 1559 	ld	l, -7 (ix)
    000008DB DD 66 FA         [19] 1560 	ld	h, -6 (ix)
    000008DE 7E               [ 7] 1561 	ld	a, (hl)
    000008DF 6F               [ 4] 1562 	ld	l, a
                                   1563 ;	spillPairReg hl
                                   1564 ;	spillPairReg hl
    000008E0 07               [ 4] 1565 	rlca
    000008E1 9F               [ 4] 1566 	sbc	a, a
    000008E2 67               [ 4] 1567 	ld	h, a
                                   1568 ;	spillPairReg hl
                                   1569 ;	spillPairReg hl
    000008E3 09               [11] 1570 	add	hl, bc
    000008E4 EB               [ 4] 1571 	ex	de, hl
    000008E5 DD 6E EE         [19] 1572 	ld	l, -18 (ix)
    000008E8 DD 66 EF         [19] 1573 	ld	h, -17 (ix)
    000008EB 73               [ 7] 1574 	ld	(hl), e
    000008EC 23               [ 6] 1575 	inc	hl
    000008ED 72               [ 7] 1576 	ld	(hl), d
    000008EE DD 6E EB         [19] 1577 	ld	l, -21 (ix)
    000008F1 DD 66 EC         [19] 1578 	ld	h, -20 (ix)
    000008F4 11 13 00         [10] 1579 	ld	de, #0x0013
    000008F7 19               [11] 1580 	add	hl, de
    000008F8 5E               [ 7] 1581 	ld	e, (hl)
    000008F9 23               [ 6] 1582 	inc	hl
    000008FA 56               [ 7] 1583 	ld	d, (hl)
    000008FB 2B               [ 6] 1584 	dec	hl
    000008FC 13               [ 6] 1585 	inc	de
    000008FD 73               [ 7] 1586 	ld	(hl), e
    000008FE 23               [ 6] 1587 	inc	hl
    000008FF 72               [ 7] 1588 	ld	(hl), d
                                   1589 ;E:\Dropbox\FAUSTO\SVILUPPI\MSX\CODE\C\MSXgl\projects\soccerlgMSX2/soccerlg_s22_b3.c:135: u8 step = (p->anim / 3) % 4;
    00000900 EB               [ 4] 1590 	ex	de, hl
    00000901 11 03 00         [10] 1591 	ld	de, #0x0003
    00000904 CDr00r00         [17] 1592 	call	__divuint
    00000907 7B               [ 4] 1593 	ld	a, e
    00000908 E6 03            [ 7] 1594 	and	a, #0x03
                                   1595 ;E:\Dropbox\FAUSTO\SVILUPPI\MSX\CODE\C\MSXgl\projects\soccerlgMSX2/soccerlg_s22_b3.c:136: if (step == 3) step = 1;
    0000090A 4F               [ 4] 1596 	ld	c, a
    0000090B D6 03            [ 7] 1597 	sub	a, #0x03
    0000090D 20 02            [12] 1598 	jr	NZ, 00165$
    0000090F 0E 01            [ 7] 1599 	ld	c, #0x01
    00000911                       1600 00165$:
                                   1601 ;E:\Dropbox\FAUSTO\SVILUPPI\MSX\CODE\C\MSXgl\projects\soccerlgMSX2/soccerlg_s22_b3.c:133: p->lx += p->dx; p->ly += p->dy; p->anim++;
    00000911 DD 6E F9         [19] 1602 	ld	l, -7 (ix)
    00000914 DD 66 FA         [19] 1603 	ld	h, -6 (ix)
    00000917 46               [ 7] 1604 	ld	b, (hl)
                                   1605 ;E:\Dropbox\FAUSTO\SVILUPPI\MSX\CODE\C\MSXgl\projects\soccerlgMSX2/soccerlg_s22_b3.c:140: p->frame = (step == 0) ? SPR_GK_PLAYER_HAPPY_1 : ((step == 1) ? SPR_GK_PLAYER_HAPPY_2 : SPR_GK_PLAYER_HAPPY_3);
    00000918 DD 7E EB         [19] 1606 	ld	a, -21 (ix)
    0000091B C6 0F            [ 7] 1607 	add	a, #0x0f
    0000091D 5F               [ 4] 1608 	ld	e, a
    0000091E DD 7E EC         [19] 1609 	ld	a, -20 (ix)
    00000921 CE 00            [ 7] 1610 	adc	a, #0x00
    00000923 57               [ 4] 1611 	ld	d, a
                                   1612 ;E:\Dropbox\FAUSTO\SVILUPPI\MSX\CODE\C\MSXgl\projects\soccerlgMSX2/soccerlg_s22_b3.c:138: if (p->dy < 0 || (p->dy == 0 && (Frms % 64) < 32)) { 
    00000924 CB 78            [ 8] 1613 	bit	7, b
    00000926 20 17            [12] 1614 	jr	NZ, 00174$
    00000928 78               [ 4] 1615 	ld	a, b
    00000929 B7               [ 4] 1616 	or	a, a
    0000092A 20 7A            [12] 1617 	jr	NZ, 00175$
    0000092C 3Ar00r00         [13] 1618 	ld	a, (_Frms+0)
    0000092F E6 3F            [ 7] 1619 	and	a, #0x3f
    00000931 6F               [ 4] 1620 	ld	l, a
                                   1621 ;	spillPairReg hl
                                   1622 ;	spillPairReg hl
    00000932 26 00            [ 7] 1623 	ld	h, #0x00
                                   1624 ;	spillPairReg hl
                                   1625 ;	spillPairReg hl
    00000934 7D               [ 4] 1626 	ld	a, l
    00000935 D6 20            [ 7] 1627 	sub	a, #0x20
    00000937 7C               [ 4] 1628 	ld	a, h
    00000938 17               [ 4] 1629 	rla
    00000939 3F               [ 4] 1630 	ccf
    0000093A 1F               [ 4] 1631 	rra
    0000093B DE 80            [ 7] 1632 	sbc	a, #0x80
    0000093D 30 67            [12] 1633 	jr	NC, 00175$
    0000093F                       1634 00174$:
                                   1635 ;E:\Dropbox\FAUSTO\SVILUPPI\MSX\CODE\C\MSXgl\projects\soccerlgMSX2/soccerlg_s22_b3.c:139: if (i == 0 || i == 7) {
    0000093F DD 7E FF         [19] 1636 	ld	a, -1 (ix)
    00000942 B7               [ 4] 1637 	or	a, a
    00000943 28 07            [12] 1638 	jr	Z, 00166$
    00000945 DD 7E FF         [19] 1639 	ld	a, -1 (ix)
    00000948 D6 07            [ 7] 1640 	sub	a, #0x07
    0000094A 20 1E            [12] 1641 	jr	NZ, 00167$
    0000094C                       1642 00166$:
                                   1643 ;E:\Dropbox\FAUSTO\SVILUPPI\MSX\CODE\C\MSXgl\projects\soccerlgMSX2/soccerlg_s22_b3.c:140: p->frame = (step == 0) ? SPR_GK_PLAYER_HAPPY_1 : ((step == 1) ? SPR_GK_PLAYER_HAPPY_2 : SPR_GK_PLAYER_HAPPY_3);
    0000094C 79               [ 4] 1644 	ld	a, c
    0000094D B7               [ 4] 1645 	or	a, a
    0000094E 20 06            [12] 1646 	jr	NZ, 00352$
    00000950 01 FD 00         [10] 1647 	ld	bc, #0x00fd
    00000953 C3r62r09         [10] 1648 	jp	00353$
    00000956                       1649 00352$:
    00000956 0D               [ 4] 1650 	dec	c
    00000957 20 06            [12] 1651 	jr	NZ, 00354$
    00000959 01 FE 00         [10] 1652 	ld	bc, #0x00fe
    0000095C C3r62r09         [10] 1653 	jp	00355$
    0000095F                       1654 00354$:
    0000095F 01 FF 00         [10] 1655 	ld	bc, #0x00ff
    00000962                       1656 00355$:
    00000962                       1657 00353$:
    00000962 79               [ 4] 1658 	ld	a, c
    00000963 12               [ 7] 1659 	ld	(de), a
    00000964 13               [ 6] 1660 	inc	de
    00000965 78               [ 4] 1661 	ld	a, b
    00000966 12               [ 7] 1662 	ld	(de), a
    00000967 C3rDEr0B         [10] 1663 	jp	00192$
    0000096A                       1664 00167$:
                                   1665 ;E:\Dropbox\FAUSTO\SVILUPPI\MSX\CODE\C\MSXgl\projects\soccerlgMSX2/soccerlg_s22_b3.c:142: p->frame = (team == TEAM_1) ? 
    0000096A DD 7E ED         [19] 1666 	ld	a, -19 (ix)
                                   1667 ;E:\Dropbox\FAUSTO\SVILUPPI\MSX\CODE\C\MSXgl\projects\soccerlgMSX2/soccerlg_s22_b3.c:143: ((step == 0) ? SPR_T1_PLAYER_HAPPY_TO_NORTH_1 : ((step == 1) ? SPR_T1_PLAYER_HAPPY_TO_NORTH_2 : SPR_T1_PLAYER_HAPPY_TO_NORTH_3)) :
    0000096D B7               [ 4] 1668 	or	a,a
    0000096E 20 18            [12] 1669 	jr	NZ, 00356$
    00000970 B1               [ 4] 1670 	or	a,c
    00000971 20 06            [12] 1671 	jr	NZ, 00358$
    00000973 01 5C 00         [10] 1672 	ld	bc, #0x005c
    00000976 C3r9Er09         [10] 1673 	jp	00357$
    00000979                       1674 00358$:
    00000979 0D               [ 4] 1675 	dec	c
    0000097A 20 06            [12] 1676 	jr	NZ, 00360$
    0000097C 01 5D 00         [10] 1677 	ld	bc, #0x005d
    0000097F C3r9Er09         [10] 1678 	jp	00357$
    00000982                       1679 00360$:
    00000982 01 5E 00         [10] 1680 	ld	bc, #0x005e
    00000985 C3r9Er09         [10] 1681 	jp	00357$
    00000988                       1682 00356$:
                                   1683 ;E:\Dropbox\FAUSTO\SVILUPPI\MSX\CODE\C\MSXgl\projects\soccerlgMSX2/soccerlg_s22_b3.c:144: ((step == 0) ? SPR_T2_PLAYER_HAPPY_TO_NORTH_1 : ((step == 1) ? SPR_T2_PLAYER_HAPPY_TO_NORTH_2 : SPR_T2_PLAYER_HAPPY_TO_NORTH_3));
    00000988 79               [ 4] 1684 	ld	a, c
    00000989 B7               [ 4] 1685 	or	a, a
    0000098A 20 06            [12] 1686 	jr	NZ, 00362$
    0000098C 01 CC 00         [10] 1687 	ld	bc, #0x00cc
    0000098F C3r9Er09         [10] 1688 	jp	00363$
    00000992                       1689 00362$:
    00000992 0D               [ 4] 1690 	dec	c
    00000993 20 06            [12] 1691 	jr	NZ, 00364$
    00000995 01 CD 00         [10] 1692 	ld	bc, #0x00cd
    00000998 C3r9Er09         [10] 1693 	jp	00365$
    0000099B                       1694 00364$:
    0000099B 01 CE 00         [10] 1695 	ld	bc, #0x00ce
    0000099E                       1696 00365$:
    0000099E                       1697 00363$:
    0000099E                       1698 00357$:
    0000099E 79               [ 4] 1699 	ld	a, c
    0000099F 12               [ 7] 1700 	ld	(de), a
    000009A0 13               [ 6] 1701 	inc	de
    000009A1 78               [ 4] 1702 	ld	a, b
    000009A2 12               [ 7] 1703 	ld	(de), a
    000009A3 C3rDEr0B         [10] 1704 	jp	00192$
    000009A6                       1705 00175$:
                                   1706 ;E:\Dropbox\FAUSTO\SVILUPPI\MSX\CODE\C\MSXgl\projects\soccerlgMSX2/soccerlg_s22_b3.c:147: if (i == 0 || i == 7) {
    000009A6 DD 7E FF         [19] 1707 	ld	a, -1 (ix)
    000009A9 B7               [ 4] 1708 	or	a, a
    000009AA 28 07            [12] 1709 	jr	Z, 00170$
    000009AC DD 7E FF         [19] 1710 	ld	a, -1 (ix)
    000009AF D6 07            [ 7] 1711 	sub	a, #0x07
    000009B1 20 25            [12] 1712 	jr	NZ, 00171$
    000009B3                       1713 00170$:
                                   1714 ;E:\Dropbox\FAUSTO\SVILUPPI\MSX\CODE\C\MSXgl\projects\soccerlgMSX2/soccerlg_s22_b3.c:148: p->frame = CallFnc_U16_P4(SEG_GAMESTATE_9, GetPlayerAnimFrame, i, p->dx, p->dy, step);
    000009B3 DD 6E F3         [19] 1715 	ld	l, -13 (ix)
    000009B6 DD 66 F4         [19] 1716 	ld	h, -12 (ix)
    000009B9 7E               [ 7] 1717 	ld	a, (hl)
    000009BA D5               [11] 1718 	push	de
    000009BB 61               [ 4] 1719 	ld	h, c
                                   1720 ;	spillPairReg hl
                                   1721 ;	spillPairReg hl
    000009BC 68               [ 4] 1722 	ld	l, b
    000009BD E5               [11] 1723 	push	hl
    000009BE F5               [11] 1724 	push	af
    000009BF 33               [ 6] 1725 	inc	sp
    000009C0 DD 7E FF         [19] 1726 	ld	a, -1 (ix)
    000009C3 F5               [11] 1727 	push	af
    000009C4 33               [ 6] 1728 	inc	sp
    000009C5 11r00r00         [10] 1729 	ld	de, #_GetPlayerAnimFrame
    000009C8 3E 13            [ 7] 1730 	ld	a, #0x13
    000009CA CDr00r00         [17] 1731 	call	_CallFnc_U16_P4
    000009CD 4B               [ 4] 1732 	ld	c, e
    000009CE 42               [ 4] 1733 	ld	b, d
    000009CF D1               [10] 1734 	pop	de
    000009D0 79               [ 4] 1735 	ld	a, c
    000009D1 12               [ 7] 1736 	ld	(de), a
    000009D2 13               [ 6] 1737 	inc	de
    000009D3 78               [ 4] 1738 	ld	a, b
    000009D4 12               [ 7] 1739 	ld	(de), a
    000009D5 C3rDEr0B         [10] 1740 	jp	00192$
    000009D8                       1741 00171$:
                                   1742 ;E:\Dropbox\FAUSTO\SVILUPPI\MSX\CODE\C\MSXgl\projects\soccerlgMSX2/soccerlg_s22_b3.c:150: p->frame = (team == TEAM_1) ? 
    000009D8 DD 7E ED         [19] 1743 	ld	a, -19 (ix)
                                   1744 ;E:\Dropbox\FAUSTO\SVILUPPI\MSX\CODE\C\MSXgl\projects\soccerlgMSX2/soccerlg_s22_b3.c:151: ((step == 0) ? SPR_T1_PLAYER_HAPPY_TO_SOUTH_1 : ((step == 1) ? SPR_T1_PLAYER_HAPPY_TO_SOUTH_2 : SPR_T1_PLAYER_HAPPY_TO_SOUTH_3)) :
    000009DB B7               [ 4] 1745 	or	a,a
    000009DC 20 18            [12] 1746 	jr	NZ, 00366$
    000009DE B1               [ 4] 1747 	or	a,c
    000009DF 20 06            [12] 1748 	jr	NZ, 00368$
    000009E1 01 3C 00         [10] 1749 	ld	bc, #0x003c
    000009E4 C3r0Cr0A         [10] 1750 	jp	00367$
    000009E7                       1751 00368$:
    000009E7 0D               [ 4] 1752 	dec	c
    000009E8 20 06            [12] 1753 	jr	NZ, 00370$
    000009EA 01 3D 00         [10] 1754 	ld	bc, #0x003d
    000009ED C3r0Cr0A         [10] 1755 	jp	00367$
    000009F0                       1756 00370$:
    000009F0 01 3E 00         [10] 1757 	ld	bc, #0x003e
    000009F3 C3r0Cr0A         [10] 1758 	jp	00367$
    000009F6                       1759 00366$:
                                   1760 ;E:\Dropbox\FAUSTO\SVILUPPI\MSX\CODE\C\MSXgl\projects\soccerlgMSX2/soccerlg_s22_b3.c:152: ((step == 0) ? SPR_T2_PLAYER_HAPPY_TO_SOUTH_1 : ((step == 1) ? SPR_T2_PLAYER_HAPPY_TO_SOUTH_2 : SPR_T2_PLAYER_HAPPY_TO_SOUTH_3));
    000009F6 79               [ 4] 1761 	ld	a, c
    000009F7 B7               [ 4] 1762 	or	a, a
    000009F8 20 06            [12] 1763 	jr	NZ, 00372$
    000009FA 01 9C 00         [10] 1764 	ld	bc, #0x009c
    000009FD C3r0Cr0A         [10] 1765 	jp	00373$
    00000A00                       1766 00372$:
    00000A00 0D               [ 4] 1767 	dec	c
    00000A01 20 06            [12] 1768 	jr	NZ, 00374$
    00000A03 01 9D 00         [10] 1769 	ld	bc, #0x009d
    00000A06 C3r0Cr0A         [10] 1770 	jp	00375$
    00000A09                       1771 00374$:
    00000A09 01 9E 00         [10] 1772 	ld	bc, #0x009e
    00000A0C                       1773 00375$:
    00000A0C                       1774 00373$:
    00000A0C                       1775 00367$:
    00000A0C 79               [ 4] 1776 	ld	a, c
    00000A0D 12               [ 7] 1777 	ld	(de), a
    00000A0E 13               [ 6] 1778 	inc	de
    00000A0F 78               [ 4] 1779 	ld	a, b
    00000A10 12               [ 7] 1780 	ld	(de), a
    00000A11 C3rDEr0B         [10] 1781 	jp	00192$
    00000A14                       1782 00190$:
                                   1783 ;E:\Dropbox\FAUSTO\SVILUPPI\MSX\CODE\C\MSXgl\projects\soccerlgMSX2/soccerlg_s22_b3.c:156: else if (team == losing_team || i == 26 || i == 14) {
    00000A14 DD 7E E8         [19] 1784 	ld	a, -24 (ix)
    00000A17 DD 96 ED         [19] 1785 	sub	a, -19 (ix)
    00000A1A 28 0F            [12] 1786 	jr	Z, 00185$
    00000A1C DD 7E FF         [19] 1787 	ld	a, -1 (ix)
    00000A1F D6 1A            [ 7] 1788 	sub	a, #0x1a
    00000A21 28 08            [12] 1789 	jr	Z, 00185$
    00000A23 DD 7E FF         [19] 1790 	ld	a, -1 (ix)
    00000A26 D6 0E            [ 7] 1791 	sub	a, #0x0e
    00000A28 C2rDEr0B         [10] 1792 	jp	NZ,00192$
    00000A2B                       1793 00185$:
                                   1794 ;E:\Dropbox\FAUSTO\SVILUPPI\MSX\CODE\C\MSXgl\projects\soccerlgMSX2/soccerlg_s22_b3.c:158: if (OnScreen(p->ly)) {
    00000A2B DD 7E EB         [19] 1795 	ld	a, -21 (ix)
    00000A2E C6 04            [ 7] 1796 	add	a, #0x04
    00000A30 DD 77 EF         [19] 1797 	ld	-17 (ix), a
    00000A33 DD 7E EC         [19] 1798 	ld	a, -20 (ix)
    00000A36 CE 00            [ 7] 1799 	adc	a, #0x00
    00000A38 DD 77 F0         [19] 1800 	ld	-16 (ix), a
    00000A3B DD 6E EF         [19] 1801 	ld	l, -17 (ix)
    00000A3E DD 66 F0         [19] 1802 	ld	h, -16 (ix)
    00000A41 4E               [ 7] 1803 	ld	c, (hl)
    00000A42 23               [ 6] 1804 	inc	hl
    00000A43 46               [ 7] 1805 	ld	b, (hl)
    00000A44 78               [ 4] 1806 	ld	a, b
    00000A45 D6 02            [ 7] 1807 	sub	a, #0x02
    00000A47 D2rD3r0B         [10] 1808 	jp	NC, 00182$
    00000A4A 21 0F 02         [10] 1809 	ld	hl, #0x020f
    00000A4D 09               [11] 1810 	add	hl, bc
    00000A4E EB               [ 4] 1811 	ex	de, hl
    00000A4F ED 4Br04r00      [20] 1812 	ld	bc, (#(_Field + 4) + 0)
    00000A53 EB               [ 4] 1813 	ex	de, hl
    00000A54 BF               [ 4] 1814 	cp	a, a
    00000A55 ED 42            [15] 1815 	sbc	hl, bc
    00000A57 7C               [ 4] 1816 	ld	a, h
    00000A58 E6 01            [ 7] 1817 	and	a, #0x01
    00000A5A 67               [ 4] 1818 	ld	h, a
                                   1819 ;	spillPairReg hl
                                   1820 ;	spillPairReg hl
    00000A5B 11 CF 00         [10] 1821 	ld	de, #0x00cf
    00000A5E BF               [ 4] 1822 	cp	a, a
    00000A5F ED 52            [15] 1823 	sbc	hl, de
    00000A61 D2rD3r0B         [10] 1824 	jp	NC, 00182$
                                   1825 ;E:\Dropbox\FAUSTO\SVILUPPI\MSX\CODE\C\MSXgl\projects\soccerlgMSX2/soccerlg_s22_b3.c:159: all_offscreen = FALSE; 
    00000A64 DD 36 E9 00      [19] 1826 	ld	-23 (ix), #0x00
                                   1827 ;E:\Dropbox\FAUSTO\SVILUPPI\MSX\CODE\C\MSXgl\projects\soccerlgMSX2/soccerlg_s22_b3.c:160: p->dy = exit_dy; p->dx = 0;
    00000A68 DD 7E EB         [19] 1828 	ld	a, -21 (ix)
    00000A6B C6 12            [ 7] 1829 	add	a, #0x12
    00000A6D DD 77 F1         [19] 1830 	ld	-15 (ix), a
    00000A70 DD 7E EC         [19] 1831 	ld	a, -20 (ix)
    00000A73 CE 00            [ 7] 1832 	adc	a, #0x00
    00000A75 DD 77 F2         [19] 1833 	ld	-14 (ix), a
    00000A78 DD 6E F1         [19] 1834 	ld	l, -15 (ix)
    00000A7B DD 66 F2         [19] 1835 	ld	h, -14 (ix)
    00000A7E DD 7E EA         [19] 1836 	ld	a, -22 (ix)
    00000A81 77               [ 7] 1837 	ld	(hl), a
    00000A82 DD 7E EB         [19] 1838 	ld	a, -21 (ix)
    00000A85 C6 11            [ 7] 1839 	add	a, #0x11
    00000A87 DD 77 F3         [19] 1840 	ld	-13 (ix), a
    00000A8A DD 7E EC         [19] 1841 	ld	a, -20 (ix)
    00000A8D CE 00            [ 7] 1842 	adc	a, #0x00
    00000A8F DD 77 F4         [19] 1843 	ld	-12 (ix), a
    00000A92 DD 6E F3         [19] 1844 	ld	l, -13 (ix)
    00000A95 DD 66 F4         [19] 1845 	ld	h, -12 (ix)
    00000A98 36 00            [10] 1846 	ld	(hl), #0x00
                                   1847 ;E:\Dropbox\FAUSTO\SVILUPPI\MSX\CODE\C\MSXgl\projects\soccerlgMSX2/soccerlg_s22_b3.c:161: p->ly = (p->ly + p->dy) & 511; // Evita l'underflow matematico
    00000A9A DD 6E EF         [19] 1848 	ld	l, -17 (ix)
    00000A9D DD 66 F0         [19] 1849 	ld	h, -16 (ix)
    00000AA0 7E               [ 7] 1850 	ld	a, (hl)
    00000AA1 DD 77 F7         [19] 1851 	ld	-9 (ix), a
    00000AA4 23               [ 6] 1852 	inc	hl
    00000AA5 7E               [ 7] 1853 	ld	a, (hl)
    00000AA6 DD 77 F8         [19] 1854 	ld	-8 (ix), a
    00000AA9 DD 7E EA         [19] 1855 	ld	a, -22 (ix)
    00000AAC DD 77 F9         [19] 1856 	ld	-7 (ix), a
    00000AAF 07               [ 4] 1857 	rlca
    00000AB0 9F               [ 4] 1858 	sbc	a, a
    00000AB1 DD 77 FA         [19] 1859 	ld	-6 (ix), a
    00000AB4 DD 7E F7         [19] 1860 	ld	a, -9 (ix)
    00000AB7 DD 77 F5         [19] 1861 	ld	-11 (ix), a
    00000ABA DD 7E F8         [19] 1862 	ld	a, -8 (ix)
    00000ABD DD 77 F6         [19] 1863 	ld	-10 (ix), a
    00000AC0 DD 7E F9         [19] 1864 	ld	a, -7 (ix)
    00000AC3 DD 77 F7         [19] 1865 	ld	-9 (ix), a
    00000AC6 DD 7E FA         [19] 1866 	ld	a, -6 (ix)
    00000AC9 DD 77 F8         [19] 1867 	ld	-8 (ix), a
    00000ACC DD 7E F7         [19] 1868 	ld	a, -9 (ix)
    00000ACF DD 86 F5         [19] 1869 	add	a, -11 (ix)
    00000AD2 DD 77 F9         [19] 1870 	ld	-7 (ix), a
    00000AD5 DD 7E F8         [19] 1871 	ld	a, -8 (ix)
    00000AD8 DD 8E F6         [19] 1872 	adc	a, -10 (ix)
    00000ADB DD 77 FA         [19] 1873 	ld	-6 (ix), a
    00000ADE DD 7E F9         [19] 1874 	ld	a, -7 (ix)
    00000AE1 DD 77 F7         [19] 1875 	ld	-9 (ix), a
    00000AE4 DD 7E FA         [19] 1876 	ld	a, -6 (ix)
    00000AE7 E6 01            [ 7] 1877 	and	a, #0x01
    00000AE9 DD 77 F8         [19] 1878 	ld	-8 (ix), a
    00000AEC DD 7E F7         [19] 1879 	ld	a, -9 (ix)
    00000AEF DD 77 F9         [19] 1880 	ld	-7 (ix), a
    00000AF2 DD 7E F8         [19] 1881 	ld	a, -8 (ix)
    00000AF5 DD 77 FA         [19] 1882 	ld	-6 (ix), a
    00000AF8 DD 6E EF         [19] 1883 	ld	l, -17 (ix)
    00000AFB DD 66 F0         [19] 1884 	ld	h, -16 (ix)
    00000AFE DD 7E F9         [19] 1885 	ld	a, -7 (ix)
    00000B01 77               [ 7] 1886 	ld	(hl), a
    00000B02 23               [ 6] 1887 	inc	hl
    00000B03 DD 7E FA         [19] 1888 	ld	a, -6 (ix)
    00000B06 77               [ 7] 1889 	ld	(hl), a
                                   1890 ;E:\Dropbox\FAUSTO\SVILUPPI\MSX\CODE\C\MSXgl\projects\soccerlgMSX2/soccerlg_s22_b3.c:162: if (i != 14) { // Anima i giocatori e l'arbitro (non la palla)
    00000B07 DD 7E FF         [19] 1891 	ld	a, -1 (ix)
    00000B0A D6 0E            [ 7] 1892 	sub	a, #0x0e
    00000B0C CArDEr0B         [10] 1893 	jp	Z,00192$
                                   1894 ;E:\Dropbox\FAUSTO\SVILUPPI\MSX\CODE\C\MSXgl\projects\soccerlgMSX2/soccerlg_s22_b3.c:163: p->anim++;
    00000B0F DD 7E EB         [19] 1895 	ld	a, -21 (ix)
    00000B12 C6 13            [ 7] 1896 	add	a, #0x13
    00000B14 DD 77 F5         [19] 1897 	ld	-11 (ix), a
    00000B17 DD 7E EC         [19] 1898 	ld	a, -20 (ix)
    00000B1A CE 00            [ 7] 1899 	adc	a, #0x00
    00000B1C DD 77 F6         [19] 1900 	ld	-10 (ix), a
    00000B1F DD 6E F5         [19] 1901 	ld	l, -11 (ix)
    00000B22 DD 66 F6         [19] 1902 	ld	h, -10 (ix)
    00000B25 7E               [ 7] 1903 	ld	a, (hl)
    00000B26 DD 77 F7         [19] 1904 	ld	-9 (ix), a
    00000B29 23               [ 6] 1905 	inc	hl
    00000B2A 7E               [ 7] 1906 	ld	a, (hl)
    00000B2B DD 77 F8         [19] 1907 	ld	-8 (ix), a
    00000B2E DD 7E F7         [19] 1908 	ld	a, -9 (ix)
    00000B31 C6 01            [ 7] 1909 	add	a, #0x01
    00000B33 DD 77 F9         [19] 1910 	ld	-7 (ix), a
    00000B36 DD 7E F8         [19] 1911 	ld	a, -8 (ix)
    00000B39 CE 00            [ 7] 1912 	adc	a, #0x00
    00000B3B DD 77 FA         [19] 1913 	ld	-6 (ix), a
    00000B3E DD 6E F5         [19] 1914 	ld	l, -11 (ix)
    00000B41 DD 66 F6         [19] 1915 	ld	h, -10 (ix)
    00000B44 DD 7E F9         [19] 1916 	ld	a, -7 (ix)
    00000B47 77               [ 7] 1917 	ld	(hl), a
    00000B48 23               [ 6] 1918 	inc	hl
    00000B49 DD 7E FA         [19] 1919 	ld	a, -6 (ix)
    00000B4C 77               [ 7] 1920 	ld	(hl), a
                                   1921 ;E:\Dropbox\FAUSTO\SVILUPPI\MSX\CODE\C\MSXgl\projects\soccerlgMSX2/soccerlg_s22_b3.c:164: const u8 walk_seq[4] = {0, 1, 2, 1};
    00000B4D DD 36 E2 00      [19] 1922 	ld	-30 (ix), #0x00
    00000B51 DD 36 E3 01      [19] 1923 	ld	-29 (ix), #0x01
    00000B55 DD 36 E4 02      [19] 1924 	ld	-28 (ix), #0x02
    00000B59 DD 36 E5 01      [19] 1925 	ld	-27 (ix), #0x01
                                   1926 ;E:\Dropbox\FAUSTO\SVILUPPI\MSX\CODE\C\MSXgl\projects\soccerlgMSX2/soccerlg_s22_b3.c:165: p->frame = CallFnc_U16_P4(SEG_GAMESTATE_9, GetPlayerAnimFrame, i, p->dx, p->dy, walk_seq[(p->anim / 3) % 4]);
    00000B5D DD 7E EB         [19] 1927 	ld	a, -21 (ix)
    00000B60 C6 0F            [ 7] 1928 	add	a, #0x0f
    00000B62 DD 77 F7         [19] 1929 	ld	-9 (ix), a
    00000B65 DD 7E EC         [19] 1930 	ld	a, -20 (ix)
    00000B68 CE 00            [ 7] 1931 	adc	a, #0x00
    00000B6A DD 77 F8         [19] 1932 	ld	-8 (ix), a
    00000B6D 11 03 00         [10] 1933 	ld	de, #0x0003
    00000B70 DD 6E F9         [19] 1934 	ld	l, -7 (ix)
                                   1935 ;	spillPairReg hl
                                   1936 ;	spillPairReg hl
    00000B73 DD 66 FA         [19] 1937 	ld	h, -6 (ix)
                                   1938 ;	spillPairReg hl
                                   1939 ;	spillPairReg hl
    00000B76 CDr00r00         [17] 1940 	call	__divuint
    00000B79 DD 73 F5         [19] 1941 	ld	-11 (ix), e
    00000B7C DD 72 F6         [19] 1942 	ld	-10 (ix), d
    00000B7F DD 7E F5         [19] 1943 	ld	a, -11 (ix)
    00000B82 E6 03            [ 7] 1944 	and	a, #0x03
    00000B84 DD 77 F9         [19] 1945 	ld	-7 (ix), a
    00000B87 DD 36 FA 00      [19] 1946 	ld	-6 (ix), #0x00
    00000B8B 5F               [ 4] 1947 	ld	e, a
    00000B8C 16 00            [ 7] 1948 	ld	d, #0x00
    00000B8E 21 00 00         [10] 1949 	ld	hl, #0
    00000B91 39               [11] 1950 	add	hl, sp
    00000B92 19               [11] 1951 	add	hl, de
    00000B93 DD 75 F5         [19] 1952 	ld	-11 (ix), l
    00000B96 DD 74 F6         [19] 1953 	ld	-10 (ix), h
    00000B99 7E               [ 7] 1954 	ld	a, (hl)
    00000B9A DD 77 F9         [19] 1955 	ld	-7 (ix), a
    00000B9D DD 6E F1         [19] 1956 	ld	l, -15 (ix)
    00000BA0 DD 66 F2         [19] 1957 	ld	h, -14 (ix)
    00000BA3 7E               [ 7] 1958 	ld	a, (hl)
    00000BA4 DD 77 FA         [19] 1959 	ld	-6 (ix), a
    00000BA7 DD 6E F3         [19] 1960 	ld	l, -13 (ix)
    00000BAA DD 66 F4         [19] 1961 	ld	h, -12 (ix)
    00000BAD 7E               [ 7] 1962 	ld	a, (hl)
    00000BAE DD 77 F6         [19] 1963 	ld	-10 (ix), a
    00000BB1 DD 66 F9         [19] 1964 	ld	h, -7 (ix)
    00000BB4 DD 6E FA         [19] 1965 	ld	l, -6 (ix)
    00000BB7 E5               [11] 1966 	push	hl
    00000BB8 DD 66 F6         [19] 1967 	ld	h, -10 (ix)
    00000BBB DD 6E FF         [19] 1968 	ld	l, -1 (ix)
    00000BBE E5               [11] 1969 	push	hl
    00000BBF 11r00r00         [10] 1970 	ld	de, #_GetPlayerAnimFrame
    00000BC2 3E 13            [ 7] 1971 	ld	a, #0x13
    00000BC4 CDr00r00         [17] 1972 	call	_CallFnc_U16_P4
    00000BC7 DD 6E F7         [19] 1973 	ld	l, -9 (ix)
    00000BCA DD 66 F8         [19] 1974 	ld	h, -8 (ix)
    00000BCD 73               [ 7] 1975 	ld	(hl), e
    00000BCE 23               [ 6] 1976 	inc	hl
    00000BCF 72               [ 7] 1977 	ld	(hl), d
    00000BD0 C3rDEr0B         [10] 1978 	jp	00192$
    00000BD3                       1979 00182$:
                                   1980 ;E:\Dropbox\FAUSTO\SVILUPPI\MSX\CODE\C\MSXgl\projects\soccerlgMSX2/soccerlg_s22_b3.c:168: p->ly = 1000; // Nascondi del tutto quando fuori visuale
    00000BD3 DD 6E EF         [19] 1981 	ld	l, -17 (ix)
    00000BD6 DD 66 F0         [19] 1982 	ld	h, -16 (ix)
    00000BD9 36 E8            [10] 1983 	ld	(hl), #0xe8
    00000BDB 23               [ 6] 1984 	inc	hl
    00000BDC 36 03            [10] 1985 	ld	(hl), #0x03
    00000BDE                       1986 00192$:
                                   1987 ;E:\Dropbox\FAUSTO\SVILUPPI\MSX\CODE\C\MSXgl\projects\soccerlgMSX2/soccerlg_s22_b3.c:112: for (u8 i = 0; i <= 26; i++) {
    00000BDE DD 34 FF         [23] 1988 	inc	-1 (ix)
    00000BE1 C3r52r06         [10] 1989 	jp	00262$
    00000BE4                       1990 00193$:
                                   1991 ;E:\Dropbox\FAUSTO\SVILUPPI\MSX\CODE\C\MSXgl\projects\soccerlgMSX2/soccerlg_s22_b3.c:174: if (time_up && all_offscreen) {
    00000BE4 DD 7E E6         [19] 1992 	ld	a, -26 (ix)
    00000BE7 B7               [ 4] 1993 	or	a, a
    00000BE8 CAr31r11         [10] 1994 	jp	Z,00268$
    00000BEB DD 7E E9         [19] 1995 	ld	a, -23 (ix)
    00000BEE B7               [ 4] 1996 	or	a, a
    00000BEF CAr31r11         [10] 1997 	jp	Z,00268$
                                   1998 ;E:\Dropbox\FAUSTO\SVILUPPI\MSX\CODE\C\MSXgl\projects\soccerlgMSX2/soccerlg_s22_b3.c:175: *game_state = 255;
    00000BF2 DD 6E FD         [19] 1999 	ld	l, -3 (ix)
    00000BF5 DD 66 FE         [19] 2000 	ld	h, -2 (ix)
    00000BF8 36 FF            [10] 2001 	ld	(hl), #0xff
                                   2002 ;E:\Dropbox\FAUSTO\SVILUPPI\MSX\CODE\C\MSXgl\projects\soccerlgMSX2/soccerlg_s22_b3.c:177: return;
    00000BFA C3r31r11         [10] 2003 	jp	00268$
    00000BFD                       2004 00253$:
                                   2005 ;E:\Dropbox\FAUSTO\SVILUPPI\MSX\CODE\C\MSXgl\projects\soccerlgMSX2/soccerlg_s22_b3.c:178: } else if (*game_state == 11) {
    00000BFD DD 7E FF         [19] 2006 	ld	a, -1 (ix)
    00000C00 D6 0B            [ 7] 2007 	sub	a, #0x0b
    00000C02 C2r31r11         [10] 2008 	jp	NZ,00268$
                                   2009 ;E:\Dropbox\FAUSTO\SVILUPPI\MSX\CODE\C\MSXgl\projects\soccerlgMSX2/soccerlg_s22_b3.c:181: if (*wait_secs > 0) {
    00000C05 DD 6E FB         [19] 2010 	ld	l, -5 (ix)
    00000C08 DD 66 FC         [19] 2011 	ld	h, -4 (ix)
    00000C0B 5E               [ 7] 2012 	ld	e, (hl)
    00000C0C 7B               [ 4] 2013 	ld	a, e
    00000C0D B7               [ 4] 2014 	or	a, a
    00000C0E CAr2Dr0D         [10] 2015 	jp	Z, 00211$
                                   2016 ;E:\Dropbox\FAUSTO\SVILUPPI\MSX\CODE\C\MSXgl\projects\soccerlgMSX2/soccerlg_s22_b3.c:182: if (*start_sec < Frms) { 
    00000C11 DD 4E 04         [19] 2017 	ld	c, 4 (ix)
    00000C14 DD 46 05         [19] 2018 	ld	b, 5 (ix)
    00000C17 0A               [ 7] 2019 	ld	a, (bc)
    00000C18 57               [ 4] 2020 	ld	d, a
    00000C19 21r00r00         [10] 2021 	ld	hl, #_Frms
    00000C1C 7A               [ 4] 2022 	ld	a, d
    00000C1D 96               [ 7] 2023 	sub	a, (hl)
    00000C1E D2r26r0D         [10] 2024 	jp	NC, 00209$
                                   2025 ;E:\Dropbox\FAUSTO\SVILUPPI\MSX\CODE\C\MSXgl\projects\soccerlgMSX2/soccerlg_s22_b3.c:183: (*wait_secs)--;
    00000C21 7B               [ 4] 2026 	ld	a, e
    00000C22 3D               [ 4] 2027 	dec	a
    00000C23 DD 6E FB         [19] 2028 	ld	l, -5 (ix)
    00000C26 DD 66 FC         [19] 2029 	ld	h, -4 (ix)
    00000C29 77               [ 7] 2030 	ld	(hl), a
                                   2031 ;E:\Dropbox\FAUSTO\SVILUPPI\MSX\CODE\C\MSXgl\projects\soccerlgMSX2/soccerlg_s22_b3.c:184: if (*wait_secs == 0) {
    00000C2A B7               [ 4] 2032 	or	a, a
    00000C2B 20 0A            [12] 2033 	jr	NZ, 00198$
                                   2034 ;E:\Dropbox\FAUSTO\SVILUPPI\MSX\CODE\C\MSXgl\projects\soccerlgMSX2/soccerlg_s22_b3.c:185: CallFnc_VOID(SEG_DRAW, HideSpriteMessage);
    00000C2D C5               [11] 2035 	push	bc
    00000C2E 11r00r00         [10] 2036 	ld	de, #_HideSpriteMessage
    00000C31 3E 05            [ 7] 2037 	ld	a, #0x05
    00000C33 CDr00r00         [17] 2038 	call	_CallFnc_VOID
    00000C36 C1               [10] 2039 	pop	bc
    00000C37                       2040 00198$:
                                   2041 ;E:\Dropbox\FAUSTO\SVILUPPI\MSX\CODE\C\MSXgl\projects\soccerlgMSX2/soccerlg_s22_b3.c:189: T1_Carrier = T2_Carrier = T1_Receiver = T2_Receiver = 0xFF; // Rimuovi tutti i focus
    00000C37 21r00r00         [10] 2042 	ld	hl, #_T2_Receiver
    00000C3A 36 FF            [10] 2043 	ld	(hl), #0xff
    00000C3C 21r00r00         [10] 2044 	ld	hl, #_T1_Receiver
    00000C3F 36 FF            [10] 2045 	ld	(hl), #0xff
    00000C41 21r00r00         [10] 2046 	ld	hl, #_T2_Carrier
    00000C44 36 FF            [10] 2047 	ld	(hl), #0xff
    00000C46 FD 21r00r00      [14] 2048 	ld	iy, #_T1_Carrier
    00000C4A FD 36 00 FF      [19] 2049 	ld	0 (iy), #0xff
                                   2050 ;E:\Dropbox\FAUSTO\SVILUPPI\MSX\CODE\C\MSXgl\projects\soccerlgMSX2/soccerlg_s22_b3.c:190: for(u8 i=0; i<14; i++) {
    00000C4E DD 36 FF 00      [19] 2051 	ld	-1 (ix), #0x00
    00000C52                       2052 00264$:
    00000C52 DD 7E FF         [19] 2053 	ld	a, -1 (ix)
    00000C55 D6 0E            [ 7] 2054 	sub	a, #0x0e
    00000C57 D2r16r0D         [10] 2055 	jp	NC, 00207$
                                   2056 ;E:\Dropbox\FAUSTO\SVILUPPI\MSX\CODE\C\MSXgl\projects\soccerlgMSX2/soccerlg_s22_b3.c:191: u8 role = (i < 7) ? i : i - 7;
    00000C5A DD 7E FF         [19] 2057 	ld	a, -1 (ix)
    00000C5D D6 07            [ 7] 2058 	sub	a, #0x07
    00000C5F 3E 00            [ 7] 2059 	ld	a, #0x00
    00000C61 17               [ 4] 2060 	rla
    00000C62 5F               [ 4] 2061 	ld	e, a
    00000C63 B7               [ 4] 2062 	or	a, a
    00000C64 28 06            [12] 2063 	jr	Z, 00376$
    00000C66 DD 56 FF         [19] 2064 	ld	d, -1 (ix)
    00000C69 C3r72r0C         [10] 2065 	jp	00377$
    00000C6C                       2066 00376$:
    00000C6C DD 7E FF         [19] 2067 	ld	a, -1 (ix)
    00000C6F C6 F9            [ 7] 2068 	add	a, #0xf9
    00000C71 57               [ 4] 2069 	ld	d, a
    00000C72                       2070 00377$:
    00000C72 DD 72 FA         [19] 2071 	ld	-6 (ix), d
                                   2072 ;E:\Dropbox\FAUSTO\SVILUPPI\MSX\CODE\C\MSXgl\projects\soccerlgMSX2/soccerlg_s22_b3.c:192: u8 t_cx = (i < 7) ? 64 : 192;
    00000C75 7B               [ 4] 2073 	ld	a, e
    00000C76 B7               [ 4] 2074 	or	a, a
    00000C77 28 06            [12] 2075 	jr	Z, 00378$
    00000C79 11 40 00         [10] 2076 	ld	de, #0x0040
    00000C7C C3r82r0C         [10] 2077 	jp	00379$
    00000C7F                       2078 00378$:
    00000C7F 11 C0 00         [10] 2079 	ld	de, #0x00c0
    00000C82                       2080 00379$:
    00000C82 DD 73 F8         [19] 2081 	ld	-8 (ix), e
                                   2082 ;E:\Dropbox\FAUSTO\SVILUPPI\MSX\CODE\C\MSXgl\projects\soccerlgMSX2/soccerlg_s22_b3.c:193: i8 off_x = 0; i8 off_y = 0;
    00000C85 11 00 00         [10] 2083 	ld	de, #0x0
                                   2084 ;E:\Dropbox\FAUSTO\SVILUPPI\MSX\CODE\C\MSXgl\projects\soccerlgMSX2/soccerlg_s22_b3.c:194: switch(role) {
    00000C88 3E 06            [ 7] 2085 	ld	a, #0x06
    00000C8A DD 96 FA         [19] 2086 	sub	a, -6 (ix)
    00000C8D 38 40            [12] 2087 	jr	C, 00206$
    00000C8F DD 5E FA         [19] 2088 	ld	e, -6 (ix)
    00000C92 16 00            [ 7] 2089 	ld	d, #0x00
    00000C94 21r9Ar0C         [10] 2090 	ld	hl, #01061$
    00000C97 19               [11] 2091 	add	hl, de
    00000C98 19               [11] 2092 	add	hl, de
                                   2093 ;E:\Dropbox\FAUSTO\SVILUPPI\MSX\CODE\C\MSXgl\projects\soccerlgMSX2/soccerlg_s22_b3.c:195: case 0: off_x = -18; off_y = -18; break; // Giocatore 1 (dietro)
    00000C99 E9               [ 4] 2094 	jp	(hl)
    00000C9A                       2095 01061$:
    00000C9A 18 0C            [12] 2096 	jr	00199$
    00000C9C 18 10            [12] 2097 	jr	00200$
    00000C9E 18 14            [12] 2098 	jr	00201$
    00000CA0 18 18            [12] 2099 	jr	00202$
    00000CA2 18 1C            [12] 2100 	jr	00203$
    00000CA4 18 20            [12] 2101 	jr	00204$
    00000CA6 18 24            [12] 2102 	jr	00205$
    00000CA8                       2103 00199$:
    00000CA8 11 EE EE         [10] 2104 	ld	de, #0xeeee
    00000CAB C3rCFr0C         [10] 2105 	jp	00206$
                                   2106 ;E:\Dropbox\FAUSTO\SVILUPPI\MSX\CODE\C\MSXgl\projects\soccerlgMSX2/soccerlg_s22_b3.c:196: case 1: off_x =   2; off_y = -18; break; // Giocatore 2 (dietro)
    00000CAE                       2107 00200$:
    00000CAE 11 EE 02         [10] 2108 	ld	de, #0x2ee
    00000CB1 C3rCFr0C         [10] 2109 	jp	00206$
                                   2110 ;E:\Dropbox\FAUSTO\SVILUPPI\MSX\CODE\C\MSXgl\projects\soccerlgMSX2/soccerlg_s22_b3.c:197: case 2: off_x =  22; off_y = -18; break; // Giocatore 3 (dietro)
    00000CB4                       2111 00201$:
    00000CB4 11 EE 16         [10] 2112 	ld	de, #0x16ee
    00000CB7 C3rCFr0C         [10] 2113 	jp	00206$
                                   2114 ;E:\Dropbox\FAUSTO\SVILUPPI\MSX\CODE\C\MSXgl\projects\soccerlgMSX2/soccerlg_s22_b3.c:198: case 3: off_x = -22; off_y =   2; break; // Giocatore 4 (centro)
    00000CBA                       2115 00202$:
    00000CBA 11 02 EA         [10] 2116 	ld	de, #0xea02
    00000CBD C3rCFr0C         [10] 2117 	jp	00206$
                                   2118 ;E:\Dropbox\FAUSTO\SVILUPPI\MSX\CODE\C\MSXgl\projects\soccerlgMSX2/soccerlg_s22_b3.c:199: case 4: off_x =  -2; off_y =   2; break; // Giocatore 5 (centro)
    00000CC0                       2119 00203$:
    00000CC0 11 02 FE         [10] 2120 	ld	de, #0xfe02
    00000CC3 C3rCFr0C         [10] 2121 	jp	00206$
                                   2122 ;E:\Dropbox\FAUSTO\SVILUPPI\MSX\CODE\C\MSXgl\projects\soccerlgMSX2/soccerlg_s22_b3.c:200: case 5: off_x =  18; off_y =   2; break; // Giocatore 6 (centro)
    00000CC6                       2123 00204$:
    00000CC6 11 02 12         [10] 2124 	ld	de, #0x1202
    00000CC9 C3rCFr0C         [10] 2125 	jp	00206$
                                   2126 ;E:\Dropbox\FAUSTO\SVILUPPI\MSX\CODE\C\MSXgl\projects\soccerlgMSX2/soccerlg_s22_b3.c:201: case 6: off_x = -10; off_y =  22; break; // Giocatore 7 (avanti)
    00000CCC                       2127 00205$:
    00000CCC 11 16 F6         [10] 2128 	ld	de, #0xf616
                                   2129 ;E:\Dropbox\FAUSTO\SVILUPPI\MSX\CODE\C\MSXgl\projects\soccerlgMSX2/soccerlg_s22_b3.c:202: }
    00000CCF                       2130 00206$:
                                   2131 ;E:\Dropbox\FAUSTO\SVILUPPI\MSX\CODE\C\MSXgl\projects\soccerlgMSX2/soccerlg_s22_b3.c:203: SwSprite[i].tx = (u8)(t_cx + off_x);
    00000CCF D5               [11] 2132 	push	de
    00000CD0 DD 5E FF         [19] 2133 	ld	e, -1 (ix)
    00000CD3 16 00            [ 7] 2134 	ld	d, #0x00
    00000CD5 6B               [ 4] 2135 	ld	l, e
    00000CD6 62               [ 4] 2136 	ld	h, d
    00000CD7 29               [11] 2137 	add	hl, hl
    00000CD8 29               [11] 2138 	add	hl, hl
    00000CD9 19               [11] 2139 	add	hl, de
    00000CDA 29               [11] 2140 	add	hl, hl
    00000CDB 19               [11] 2141 	add	hl, de
    00000CDC 29               [11] 2142 	add	hl, hl
    00000CDD 19               [11] 2143 	add	hl, de
    00000CDE D1               [10] 2144 	pop	de
    00000CDF 3Er00            [ 7] 2145 	ld	a, #<(_SwSprite)
    00000CE1 85               [ 4] 2146 	add	a, l
    00000CE2 DD 77 F9         [19] 2147 	ld	-7 (ix), a
    00000CE5 3Es00            [ 7] 2148 	ld	a, #>(_SwSprite)
    00000CE7 8C               [ 4] 2149 	adc	a, h
    00000CE8 DD 77 FA         [19] 2150 	ld	-6 (ix), a
    00000CEB DD 7E F9         [19] 2151 	ld	a, -7 (ix)
    00000CEE C6 0C            [ 7] 2152 	add	a, #0x0c
    00000CF0 6F               [ 4] 2153 	ld	l, a
                                   2154 ;	spillPairReg hl
                                   2155 ;	spillPairReg hl
    00000CF1 DD 7E FA         [19] 2156 	ld	a, -6 (ix)
    00000CF4 CE 00            [ 7] 2157 	adc	a, #0x00
    00000CF6 67               [ 4] 2158 	ld	h, a
                                   2159 ;	spillPairReg hl
                                   2160 ;	spillPairReg hl
    00000CF7 DD 7E F8         [19] 2161 	ld	a, -8 (ix)
    00000CFA 82               [ 4] 2162 	add	a, d
    00000CFB 77               [ 7] 2163 	ld	(hl), a
                                   2164 ;E:\Dropbox\FAUSTO\SVILUPPI\MSX\CODE\C\MSXgl\projects\soccerlgMSX2/soccerlg_s22_b3.c:204: SwSprite[i].ty = (u16)(256 + off_y);
    00000CFC DD 7E F9         [19] 2165 	ld	a, -7 (ix)
    00000CFF C6 0D            [ 7] 2166 	add	a, #0x0d
    00000D01 6F               [ 4] 2167 	ld	l, a
                                   2168 ;	spillPairReg hl
                                   2169 ;	spillPairReg hl
    00000D02 DD 7E FA         [19] 2170 	ld	a, -6 (ix)
    00000D05 CE 00            [ 7] 2171 	adc	a, #0x00
    00000D07 67               [ 4] 2172 	ld	h, a
                                   2173 ;	spillPairReg hl
                                   2174 ;	spillPairReg hl
    00000D08 7B               [ 4] 2175 	ld	a, e
    00000D09 07               [ 4] 2176 	rlca
    00000D0A 9F               [ 4] 2177 	sbc	a, a
    00000D0B 57               [ 4] 2178 	ld	d, a
    00000D0C 3C               [ 4] 2179 	inc	a
    00000D0D 73               [ 7] 2180 	ld	(hl), e
    00000D0E 23               [ 6] 2181 	inc	hl
    00000D0F 77               [ 7] 2182 	ld	(hl), a
                                   2183 ;E:\Dropbox\FAUSTO\SVILUPPI\MSX\CODE\C\MSXgl\projects\soccerlgMSX2/soccerlg_s22_b3.c:190: for(u8 i=0; i<14; i++) {
    00000D10 DD 34 FF         [23] 2184 	inc	-1 (ix)
    00000D13 C3r52r0C         [10] 2185 	jp	00264$
    00000D16                       2186 00207$:
                                   2187 ;E:\Dropbox\FAUSTO\SVILUPPI\MSX\CODE\C\MSXgl\projects\soccerlgMSX2/soccerlg_s22_b3.c:207: SwSprite[26].tx = (u8)(128 + 24);
    00000D16 21r62r02         [10] 2188 	ld	hl, #(_SwSprite + 610)
    00000D19 36 98            [10] 2189 	ld	(hl), #0x98
                                   2190 ;E:\Dropbox\FAUSTO\SVILUPPI\MSX\CODE\C\MSXgl\projects\soccerlgMSX2/soccerlg_s22_b3.c:208: SwSprite[26].ty = (u16)(256 - 24);
    00000D1B 21 E8 00         [10] 2191 	ld	hl, #0x00e8
    00000D1E 22r63r02         [16] 2192 	ld	((_SwSprite + 611)), hl
                                   2193 ;E:\Dropbox\FAUSTO\SVILUPPI\MSX\CODE\C\MSXgl\projects\soccerlgMSX2/soccerlg_s22_b3.c:211: SwSprite[14].ly = 1000;
    00000D21 26 03            [ 7] 2194 	ld	h, #0x03
    00000D23 22r46r01         [16] 2195 	ld	((_SwSprite + 326)), hl
    00000D26                       2196 00209$:
                                   2197 ;E:\Dropbox\FAUSTO\SVILUPPI\MSX\CODE\C\MSXgl\projects\soccerlgMSX2/soccerlg_s22_b3.c:213: *start_sec = Frms;
    00000D26 3Ar00r00         [13] 2198 	ld	a, (_Frms+0)
    00000D29 02               [ 7] 2199 	ld	(bc), a
                                   2200 ;E:\Dropbox\FAUSTO\SVILUPPI\MSX\CODE\C\MSXgl\projects\soccerlgMSX2/soccerlg_s22_b3.c:214: return;
    00000D2A C3r31r11         [10] 2201 	jp	00268$
    00000D2D                       2202 00211$:
                                   2203 ;E:\Dropbox\FAUSTO\SVILUPPI\MSX\CODE\C\MSXgl\projects\soccerlgMSX2/soccerlg_s22_b3.c:217: bool all_in_position = TRUE;
    00000D2D DD 36 E8 01      [19] 2204 	ld	-24 (ix), #0x01
                                   2205 ;E:\Dropbox\FAUSTO\SVILUPPI\MSX\CODE\C\MSXgl\projects\soccerlgMSX2/soccerlg_s22_b3.c:220: if (Field.ly > 156 + 3) {
    00000D31 21r04r00         [10] 2206 	ld	hl, #(_Field + 4)
    00000D34 7E               [ 7] 2207 	ld	a, (hl)
    00000D35 DD 77 F9         [19] 2208 	ld	-7 (ix), a
    00000D38 23               [ 6] 2209 	inc	hl
    00000D39 7E               [ 7] 2210 	ld	a, (hl)
    00000D3A DD 77 FA         [19] 2211 	ld	-6 (ix), a
                                   2212 ;E:\Dropbox\FAUSTO\SVILUPPI\MSX\CODE\C\MSXgl\projects\soccerlgMSX2/soccerlg_s22_b3.c:221: Field.dy = -4; Field.ly += Field.dy; all_in_position = FALSE;
                                   2213 ;E:\Dropbox\FAUSTO\SVILUPPI\MSX\CODE\C\MSXgl\projects\soccerlgMSX2/soccerlg_s22_b3.c:220: if (Field.ly > 156 + 3) {
    00000D3D 3E 9F            [ 7] 2214 	ld	a, #0x9f
    00000D3F DD BE F9         [19] 2215 	cp	a, -7 (ix)
    00000D42 3E 00            [ 7] 2216 	ld	a, #0x00
    00000D44 DD 9E FA         [19] 2217 	sbc	a, -6 (ix)
    00000D47 30 1D            [12] 2218 	jr	NC, 00219$
                                   2219 ;E:\Dropbox\FAUSTO\SVILUPPI\MSX\CODE\C\MSXgl\projects\soccerlgMSX2/soccerlg_s22_b3.c:221: Field.dy = -4; Field.ly += Field.dy; all_in_position = FALSE;
    00000D49 21r12r00         [10] 2220 	ld	hl, #(_Field + 18)
    00000D4C 36 FC            [10] 2221 	ld	(hl), #0xfc
    00000D4E ED 4Br04r00      [20] 2222 	ld	bc, (#(_Field + 4) + 0)
    00000D52 3Ar12r00         [13] 2223 	ld	a, (#(_Field + 18) + 0)
    00000D55 6F               [ 4] 2224 	ld	l, a
                                   2225 ;	spillPairReg hl
                                   2226 ;	spillPairReg hl
    00000D56 07               [ 4] 2227 	rlca
    00000D57 9F               [ 4] 2228 	sbc	a, a
    00000D58 67               [ 4] 2229 	ld	h, a
                                   2230 ;	spillPairReg hl
                                   2231 ;	spillPairReg hl
    00000D59 09               [11] 2232 	add	hl, bc
    00000D5A EB               [ 4] 2233 	ex	de, hl
    00000D5B ED 53r04r00      [20] 2234 	ld	((_Field + 4)), de
    00000D5F DD 36 E8 00      [19] 2235 	ld	-24 (ix), #0x00
    00000D63 C3rB7r0D         [10] 2236 	jp	00520$
    00000D66                       2237 00219$:
                                   2238 ;E:\Dropbox\FAUSTO\SVILUPPI\MSX\CODE\C\MSXgl\projects\soccerlgMSX2/soccerlg_s22_b3.c:222: } else if (Field.ly + 3 < 156) {
    00000D66 DD 4E F9         [19] 2239 	ld	c, -7 (ix)
    00000D69 DD 46 FA         [19] 2240 	ld	b, -6 (ix)
    00000D6C 59               [ 4] 2241 	ld	e, c
    00000D6D 50               [ 4] 2242 	ld	d, b
    00000D6E 13               [ 6] 2243 	inc	de
    00000D6F 13               [ 6] 2244 	inc	de
    00000D70 13               [ 6] 2245 	inc	de
    00000D71 7B               [ 4] 2246 	ld	a, e
    00000D72 D6 9C            [ 7] 2247 	sub	a, #0x9c
    00000D74 7A               [ 4] 2248 	ld	a, d
    00000D75 DE 00            [ 7] 2249 	sbc	a, #0x00
    00000D77 30 1D            [12] 2250 	jr	NC, 00216$
                                   2251 ;E:\Dropbox\FAUSTO\SVILUPPI\MSX\CODE\C\MSXgl\projects\soccerlgMSX2/soccerlg_s22_b3.c:223: Field.dy = 4; Field.ly += Field.dy; all_in_position = FALSE;
    00000D79 21r12r00         [10] 2252 	ld	hl, #(_Field + 18)
    00000D7C 36 04            [10] 2253 	ld	(hl), #0x04
    00000D7E ED 4Br04r00      [20] 2254 	ld	bc, (#(_Field + 4) + 0)
    00000D82 3Ar12r00         [13] 2255 	ld	a, (#(_Field + 18) + 0)
    00000D85 6F               [ 4] 2256 	ld	l, a
                                   2257 ;	spillPairReg hl
                                   2258 ;	spillPairReg hl
    00000D86 07               [ 4] 2259 	rlca
    00000D87 9F               [ 4] 2260 	sbc	a, a
    00000D88 67               [ 4] 2261 	ld	h, a
                                   2262 ;	spillPairReg hl
                                   2263 ;	spillPairReg hl
    00000D89 09               [11] 2264 	add	hl, bc
    00000D8A EB               [ 4] 2265 	ex	de, hl
    00000D8B ED 53r04r00      [20] 2266 	ld	((_Field + 4)), de
    00000D8F DD 36 E8 00      [19] 2267 	ld	-24 (ix), #0x00
    00000D93 C3rB7r0D         [10] 2268 	jp	00520$
    00000D96                       2269 00216$:
                                   2270 ;E:\Dropbox\FAUSTO\SVILUPPI\MSX\CODE\C\MSXgl\projects\soccerlgMSX2/soccerlg_s22_b3.c:224: } else if (Field.ly != 156) {
    00000D96 79               [ 4] 2271 	ld	a, c
    00000D97 D6 9C            [ 7] 2272 	sub	a, #0x9c
    00000D99 B0               [ 4] 2273 	or	a, b
    00000D9A 28 16            [12] 2274 	jr	Z, 00213$
                                   2275 ;E:\Dropbox\FAUSTO\SVILUPPI\MSX\CODE\C\MSXgl\projects\soccerlgMSX2/soccerlg_s22_b3.c:225: Field.dy = (i8)(156 - Field.ly); Field.ly = 156; all_in_position = FALSE;
    00000D9C DD 4E F9         [19] 2276 	ld	c, -7 (ix)
    00000D9F 3E 9C            [ 7] 2277 	ld	a, #0x9c
    00000DA1 91               [ 4] 2278 	sub	a, c
    00000DA2 32r12r00         [13] 2279 	ld	(#(_Field + 18)),a
    00000DA5 21 9C 00         [10] 2280 	ld	hl, #0x009c
    00000DA8 22r04r00         [16] 2281 	ld	((_Field + 4)), hl
    00000DAB DD 36 E8 00      [19] 2282 	ld	-24 (ix), #0x00
    00000DAF C3rB7r0D         [10] 2283 	jp	00520$
    00000DB2                       2284 00213$:
                                   2285 ;E:\Dropbox\FAUSTO\SVILUPPI\MSX\CODE\C\MSXgl\projects\soccerlgMSX2/soccerlg_s22_b3.c:227: Field.dy = 0;
    00000DB2 21r12r00         [10] 2286 	ld	hl, #(_Field + 18)
    00000DB5 36 00            [10] 2287 	ld	(hl), #0x00
                                   2288 ;E:\Dropbox\FAUSTO\SVILUPPI\MSX\CODE\C\MSXgl\projects\soccerlgMSX2/soccerlg_s22_b3.c:231: for (u8 i = 0; i <= 26; i++) {
    00000DB7                       2289 00520$:
    00000DB7 DD 36 FF 00      [19] 2290 	ld	-1 (ix), #0x00
    00000DBB                       2291 00267$:
    00000DBB 3E 1A            [ 7] 2292 	ld	a, #0x1a
    00000DBD DD 96 FF         [19] 2293 	sub	a, -1 (ix)
    00000DC0 DAr23r11         [10] 2294 	jp	C, 00247$
                                   2295 ;E:\Dropbox\FAUSTO\SVILUPPI\MSX\CODE\C\MSXgl\projects\soccerlgMSX2/soccerlg_s22_b3.c:232: if (i >= 14 && i < 26) continue; // Salta UI e Palla
    00000DC3 DD 7E FF         [19] 2296 	ld	a, -1 (ix)
    00000DC6 D6 0E            [ 7] 2297 	sub	a, #0x0e
    00000DC8 38 08            [12] 2298 	jr	C, 00222$
    00000DCA DD 7E FF         [19] 2299 	ld	a, -1 (ix)
    00000DCD D6 1A            [ 7] 2300 	sub	a, #0x1a
    00000DCF DAr1Dr11         [10] 2301 	jp	C, 00246$
    00000DD2                       2302 00222$:
                                   2303 ;E:\Dropbox\FAUSTO\SVILUPPI\MSX\CODE\C\MSXgl\projects\soccerlgMSX2/soccerlg_s22_b3.c:233: struct ObjectInfo* p = &SwSprite[i];
    00000DD2 DD 4E FF         [19] 2304 	ld	c, -1 (ix)
    00000DD5 06 00            [ 7] 2305 	ld	b, #0x00
    00000DD7 69               [ 4] 2306 	ld	l, c
    00000DD8 60               [ 4] 2307 	ld	h, b
    00000DD9 29               [11] 2308 	add	hl, hl
    00000DDA 29               [11] 2309 	add	hl, hl
    00000DDB 09               [11] 2310 	add	hl, bc
    00000DDC 29               [11] 2311 	add	hl, hl
    00000DDD 09               [11] 2312 	add	hl, bc
    00000DDE 29               [11] 2313 	add	hl, hl
    00000DDF 09               [11] 2314 	add	hl, bc
    00000DE0 11r00r00         [10] 2315 	ld	de, #_SwSprite
    00000DE3 19               [11] 2316 	add	hl, de
                                   2317 ;E:\Dropbox\FAUSTO\SVILUPPI\MSX\CODE\C\MSXgl\projects\soccerlgMSX2/soccerlg_s22_b3.c:234: if (p->lx != p->tx || p->ly != p->ty) {
    00000DE4 DD 75 E9         [19] 2318 	ld	-23 (ix), l
    00000DE7 DD 74 EA         [19] 2319 	ld	-22 (ix), h
    00000DEA 7E               [ 7] 2320 	ld	a, (hl)
    00000DEB DD 77 F9         [19] 2321 	ld	-7 (ix), a
    00000DEE DD 4E E9         [19] 2322 	ld	c, -23 (ix)
    00000DF1 DD 46 EA         [19] 2323 	ld	b, -22 (ix)
    00000DF4 21 0C 00         [10] 2324 	ld	hl, #12
    00000DF7 09               [11] 2325 	add	hl, bc
    00000DF8 7E               [ 7] 2326 	ld	a, (hl)
    00000DF9 DD 77 FA         [19] 2327 	ld	-6 (ix), a
    00000DFC DD 7E E9         [19] 2328 	ld	a, -23 (ix)
    00000DFF C6 04            [ 7] 2329 	add	a, #0x04
    00000E01 DD 77 EB         [19] 2330 	ld	-21 (ix), a
    00000E04 DD 7E EA         [19] 2331 	ld	a, -22 (ix)
    00000E07 CE 00            [ 7] 2332 	adc	a, #0x00
    00000E09 DD 77 EC         [19] 2333 	ld	-20 (ix), a
    00000E0C DD 7E E9         [19] 2334 	ld	a, -23 (ix)
    00000E0F C6 0D            [ 7] 2335 	add	a, #0x0d
    00000E11 DD 77 ED         [19] 2336 	ld	-19 (ix), a
    00000E14 DD 7E EA         [19] 2337 	ld	a, -22 (ix)
    00000E17 CE 00            [ 7] 2338 	adc	a, #0x00
    00000E19 DD 77 EE         [19] 2339 	ld	-18 (ix), a
                                   2340 ;E:\Dropbox\FAUSTO\SVILUPPI\MSX\CODE\C\MSXgl\projects\soccerlgMSX2/soccerlg_s22_b3.c:237: if (p->tx > p->lx) p->dx = (i8)((p->tx - p->lx >= 2) ? 2 : 1); 
    00000E1C DD 7E E9         [19] 2341 	ld	a, -23 (ix)
    00000E1F C6 11            [ 7] 2342 	add	a, #0x11
    00000E21 DD 77 EF         [19] 2343 	ld	-17 (ix), a
    00000E24 DD 7E EA         [19] 2344 	ld	a, -22 (ix)
    00000E27 CE 00            [ 7] 2345 	adc	a, #0x00
    00000E29 DD 77 F0         [19] 2346 	ld	-16 (ix), a
                                   2347 ;E:\Dropbox\FAUSTO\SVILUPPI\MSX\CODE\C\MSXgl\projects\soccerlgMSX2/soccerlg_s22_b3.c:241: if (p->ty > p->ly) p->dy = (i8)((p->ty - p->ly >= 2) ? 2 : 1); 
    00000E2C DD 7E E9         [19] 2348 	ld	a, -23 (ix)
    00000E2F C6 12            [ 7] 2349 	add	a, #0x12
    00000E31 DD 77 F1         [19] 2350 	ld	-15 (ix), a
    00000E34 DD 7E EA         [19] 2351 	ld	a, -22 (ix)
    00000E37 CE 00            [ 7] 2352 	adc	a, #0x00
    00000E39 DD 77 F2         [19] 2353 	ld	-14 (ix), a
                                   2354 ;E:\Dropbox\FAUSTO\SVILUPPI\MSX\CODE\C\MSXgl\projects\soccerlgMSX2/soccerlg_s22_b3.c:247: p->frame = CallFnc_U16_P4(SEG_GAMESTATE_9, GetPlayerAnimFrame, i, p->dx, p->dy, walk_seq[(p->anim / 3) % 4]); 
    00000E3C DD 7E E9         [19] 2355 	ld	a, -23 (ix)
    00000E3F C6 0F            [ 7] 2356 	add	a, #0x0f
    00000E41 DD 77 F3         [19] 2357 	ld	-13 (ix), a
    00000E44 DD 7E EA         [19] 2358 	ld	a, -22 (ix)
    00000E47 CE 00            [ 7] 2359 	adc	a, #0x00
    00000E49 DD 77 F4         [19] 2360 	ld	-12 (ix), a
                                   2361 ;E:\Dropbox\FAUSTO\SVILUPPI\MSX\CODE\C\MSXgl\projects\soccerlgMSX2/soccerlg_s22_b3.c:234: if (p->lx != p->tx || p->ly != p->ty) {
    00000E4C DD 7E F9         [19] 2362 	ld	a, -7 (ix)
    00000E4F DD 96 FA         [19] 2363 	sub	a, -6 (ix)
    00000E52 20 19            [12] 2364 	jr	NZ, 00242$
    00000E54 DD 6E EB         [19] 2365 	ld	l, -21 (ix)
    00000E57 DD 66 EC         [19] 2366 	ld	h, -20 (ix)
    00000E5A 4E               [ 7] 2367 	ld	c, (hl)
    00000E5B 23               [ 6] 2368 	inc	hl
    00000E5C 46               [ 7] 2369 	ld	b, (hl)
    00000E5D DD 6E ED         [19] 2370 	ld	l, -19 (ix)
    00000E60 DD 66 EE         [19] 2371 	ld	h, -18 (ix)
    00000E63 5E               [ 7] 2372 	ld	e, (hl)
    00000E64 23               [ 6] 2373 	inc	hl
    00000E65 66               [ 7] 2374 	ld	h, (hl)
                                   2375 ;	spillPairReg hl
    00000E66 6B               [ 4] 2376 	ld	l, e
    00000E67 BF               [ 4] 2377 	cp	a, a
    00000E68 ED 42            [15] 2378 	sbc	hl, bc
    00000E6A CAr5Fr10         [10] 2379 	jp	Z,00243$
    00000E6D                       2380 00242$:
                                   2381 ;E:\Dropbox\FAUSTO\SVILUPPI\MSX\CODE\C\MSXgl\projects\soccerlgMSX2/soccerlg_s22_b3.c:235: all_in_position = FALSE;
    00000E6D DD 36 E8 00      [19] 2382 	ld	-24 (ix), #0x00
                                   2383 ;E:\Dropbox\FAUSTO\SVILUPPI\MSX\CODE\C\MSXgl\projects\soccerlgMSX2/soccerlg_s22_b3.c:237: if (p->tx > p->lx) p->dx = (i8)((p->tx - p->lx >= 2) ? 2 : 1); 
    00000E71 DD 7E F9         [19] 2384 	ld	a, -7 (ix)
    00000E74 DD 96 FA         [19] 2385 	sub	a, -6 (ix)
    00000E77 30 55            [12] 2386 	jr	NC, 00228$
    00000E79 DD 7E FA         [19] 2387 	ld	a, -6 (ix)
    00000E7C DD 77 F7         [19] 2388 	ld	-9 (ix), a
    00000E7F DD 36 F8 00      [19] 2389 	ld	-8 (ix), #0x00
    00000E83 DD 7E F9         [19] 2390 	ld	a, -7 (ix)
    00000E86 DD 77 F5         [19] 2391 	ld	-11 (ix), a
    00000E89 DD 36 F6 00      [19] 2392 	ld	-10 (ix), #0x00
    00000E8D DD 7E F7         [19] 2393 	ld	a, -9 (ix)
    00000E90 DD 96 F5         [19] 2394 	sub	a, -11 (ix)
    00000E93 DD 77 F9         [19] 2395 	ld	-7 (ix), a
    00000E96 DD 7E F8         [19] 2396 	ld	a, -8 (ix)
    00000E99 DD 9E F6         [19] 2397 	sbc	a, -10 (ix)
    00000E9C DD 77 FA         [19] 2398 	ld	-6 (ix), a
    00000E9F DD 7E F9         [19] 2399 	ld	a, -7 (ix)
    00000EA2 D6 02            [ 7] 2400 	sub	a, #0x02
    00000EA4 DD 7E FA         [19] 2401 	ld	a, -6 (ix)
    00000EA7 17               [ 4] 2402 	rla
    00000EA8 3F               [ 4] 2403 	ccf
    00000EA9 1F               [ 4] 2404 	rra
    00000EAA DE 80            [ 7] 2405 	sbc	a, #0x80
    00000EAC 38 0B            [12] 2406 	jr	C, 00380$
    00000EAE DD 36 F9 02      [19] 2407 	ld	-7 (ix), #0x02
    00000EB2 DD 36 FA 00      [19] 2408 	ld	-6 (ix), #0
    00000EB6 C3rC1r0E         [10] 2409 	jp	00381$
    00000EB9                       2410 00380$:
    00000EB9 DD 36 F9 01      [19] 2411 	ld	-7 (ix), #0x01
    00000EBD DD 36 FA 00      [19] 2412 	ld	-6 (ix), #0
    00000EC1                       2413 00381$:
    00000EC1 DD 7E F9         [19] 2414 	ld	a, -7 (ix)
    00000EC4 DD 6E EF         [19] 2415 	ld	l, -17 (ix)
    00000EC7 DD 66 F0         [19] 2416 	ld	h, -16 (ix)
    00000ECA 77               [ 7] 2417 	ld	(hl), a
    00000ECB C3r24r0F         [10] 2418 	jp	00229$
    00000ECE                       2419 00228$:
                                   2420 ;E:\Dropbox\FAUSTO\SVILUPPI\MSX\CODE\C\MSXgl\projects\soccerlgMSX2/soccerlg_s22_b3.c:238: else if (p->tx < p->lx) p->dx = (i8)((p->lx - p->tx >= 2) ? -2 : -1); 
    00000ECE DD 7E FA         [19] 2421 	ld	a, -6 (ix)
    00000ED1 DD 96 F9         [19] 2422 	sub	a, -7 (ix)
    00000ED4 30 46            [12] 2423 	jr	NC, 00225$
    00000ED6 DD 7E F9         [19] 2424 	ld	a, -7 (ix)
    00000ED9 DD 77 F5         [19] 2425 	ld	-11 (ix), a
    00000EDC DD 36 F6 00      [19] 2426 	ld	-10 (ix), #0x00
    00000EE0 DD 7E FA         [19] 2427 	ld	a, -6 (ix)
    00000EE3 DD 77 F7         [19] 2428 	ld	-9 (ix), a
    00000EE6 DD 36 F8 00      [19] 2429 	ld	-8 (ix), #0x00
    00000EEA DD 7E F5         [19] 2430 	ld	a, -11 (ix)
    00000EED DD 96 F7         [19] 2431 	sub	a, -9 (ix)
    00000EF0 DD 77 F9         [19] 2432 	ld	-7 (ix), a
    00000EF3 DD 7E F6         [19] 2433 	ld	a, -10 (ix)
    00000EF6 DD 9E F8         [19] 2434 	sbc	a, -8 (ix)
    00000EF9 DD 77 FA         [19] 2435 	ld	-6 (ix), a
    00000EFC DD 7E F9         [19] 2436 	ld	a, -7 (ix)
    00000EFF D6 02            [ 7] 2437 	sub	a, #0x02
    00000F01 DD 7E FA         [19] 2438 	ld	a, -6 (ix)
    00000F04 17               [ 4] 2439 	rla
    00000F05 3F               [ 4] 2440 	ccf
    00000F06 1F               [ 4] 2441 	rra
    00000F07 DE 80            [ 7] 2442 	sbc	a, #0x80
    00000F09 38 05            [12] 2443 	jr	C, 00382$
    00000F0B 3E FE            [ 7] 2444 	ld	a, #0xfe
    00000F0D C3r12r0F         [10] 2445 	jp	00383$
    00000F10                       2446 00382$:
    00000F10 3E FF            [ 7] 2447 	ld	a, #0xff
    00000F12                       2448 00383$:
    00000F12 DD 6E EF         [19] 2449 	ld	l, -17 (ix)
    00000F15 DD 66 F0         [19] 2450 	ld	h, -16 (ix)
    00000F18 77               [ 7] 2451 	ld	(hl), a
    00000F19 C3r24r0F         [10] 2452 	jp	00229$
    00000F1C                       2453 00225$:
                                   2454 ;E:\Dropbox\FAUSTO\SVILUPPI\MSX\CODE\C\MSXgl\projects\soccerlgMSX2/soccerlg_s22_b3.c:239: else p->dx = 0;
    00000F1C DD 6E EF         [19] 2455 	ld	l, -17 (ix)
    00000F1F DD 66 F0         [19] 2456 	ld	h, -16 (ix)
    00000F22 36 00            [10] 2457 	ld	(hl), #0x00
    00000F24                       2458 00229$:
                                   2459 ;E:\Dropbox\FAUSTO\SVILUPPI\MSX\CODE\C\MSXgl\projects\soccerlgMSX2/soccerlg_s22_b3.c:241: if (p->ty > p->ly) p->dy = (i8)((p->ty - p->ly >= 2) ? 2 : 1); 
    00000F24 DD 6E ED         [19] 2460 	ld	l, -19 (ix)
    00000F27 DD 66 EE         [19] 2461 	ld	h, -18 (ix)
    00000F2A 7E               [ 7] 2462 	ld	a, (hl)
    00000F2B DD 77 F9         [19] 2463 	ld	-7 (ix), a
    00000F2E 23               [ 6] 2464 	inc	hl
    00000F2F 7E               [ 7] 2465 	ld	a, (hl)
    00000F30 DD 77 FA         [19] 2466 	ld	-6 (ix), a
    00000F33 DD 6E EB         [19] 2467 	ld	l, -21 (ix)
    00000F36 DD 66 EC         [19] 2468 	ld	h, -20 (ix)
    00000F39 7E               [ 7] 2469 	ld	a, (hl)
    00000F3A DD 77 F5         [19] 2470 	ld	-11 (ix), a
    00000F3D 23               [ 6] 2471 	inc	hl
    00000F3E 7E               [ 7] 2472 	ld	a, (hl)
    00000F3F DD 77 F6         [19] 2473 	ld	-10 (ix), a
    00000F42 DD 7E F5         [19] 2474 	ld	a, -11 (ix)
    00000F45 DD 96 F9         [19] 2475 	sub	a, -7 (ix)
    00000F48 DD 7E F6         [19] 2476 	ld	a, -10 (ix)
    00000F4B DD 9E FA         [19] 2477 	sbc	a, -6 (ix)
    00000F4E 30 3D            [12] 2478 	jr	NC, 00234$
    00000F50 DD 7E F9         [19] 2479 	ld	a, -7 (ix)
    00000F53 DD 96 F5         [19] 2480 	sub	a, -11 (ix)
    00000F56 DD 77 F7         [19] 2481 	ld	-9 (ix), a
    00000F59 DD 7E FA         [19] 2482 	ld	a, -6 (ix)
    00000F5C DD 9E F6         [19] 2483 	sbc	a, -10 (ix)
    00000F5F DD 77 F8         [19] 2484 	ld	-8 (ix), a
    00000F62 DD 7E F7         [19] 2485 	ld	a, -9 (ix)
    00000F65 DD 77 F9         [19] 2486 	ld	-7 (ix), a
    00000F68 DD 7E F8         [19] 2487 	ld	a, -8 (ix)
    00000F6B DD 77 FA         [19] 2488 	ld	-6 (ix), a
    00000F6E DD 7E F9         [19] 2489 	ld	a, -7 (ix)
    00000F71 D6 02            [ 7] 2490 	sub	a, #0x02
    00000F73 DD 7E FA         [19] 2491 	ld	a, -6 (ix)
    00000F76 DE 00            [ 7] 2492 	sbc	a, #0x00
    00000F78 38 06            [12] 2493 	jr	C, 00384$
    00000F7A 01 02 00         [10] 2494 	ld	bc, #0x0002
    00000F7D C3r83r0F         [10] 2495 	jp	00385$
    00000F80                       2496 00384$:
    00000F80 01 01 00         [10] 2497 	ld	bc, #0x0001
    00000F83                       2498 00385$:
    00000F83 DD 6E F1         [19] 2499 	ld	l, -15 (ix)
    00000F86 DD 66 F2         [19] 2500 	ld	h, -14 (ix)
    00000F89 71               [ 7] 2501 	ld	(hl), c
    00000F8A C3rCAr0F         [10] 2502 	jp	00235$
    00000F8D                       2503 00234$:
                                   2504 ;E:\Dropbox\FAUSTO\SVILUPPI\MSX\CODE\C\MSXgl\projects\soccerlgMSX2/soccerlg_s22_b3.c:242: else if (p->ty < p->ly) p->dy = (i8)((p->ly - p->ty >= 2) ? -2 : -1); 
    00000F8D DD 7E F9         [19] 2505 	ld	a, -7 (ix)
    00000F90 DD 96 F5         [19] 2506 	sub	a, -11 (ix)
    00000F93 DD 7E FA         [19] 2507 	ld	a, -6 (ix)
    00000F96 DD 9E F6         [19] 2508 	sbc	a, -10 (ix)
    00000F99 30 27            [12] 2509 	jr	NC, 00231$
    00000F9B DD 7E F5         [19] 2510 	ld	a, -11 (ix)
    00000F9E DD 96 F9         [19] 2511 	sub	a, -7 (ix)
    00000FA1 4F               [ 4] 2512 	ld	c, a
    00000FA2 DD 7E F6         [19] 2513 	ld	a, -10 (ix)
    00000FA5 DD 9E FA         [19] 2514 	sbc	a, -6 (ix)
    00000FA8 47               [ 4] 2515 	ld	b, a
    00000FA9 79               [ 4] 2516 	ld	a, c
    00000FAA D6 02            [ 7] 2517 	sub	a, #0x02
    00000FAC 78               [ 4] 2518 	ld	a, b
    00000FAD DE 00            [ 7] 2519 	sbc	a, #0x00
    00000FAF 38 05            [12] 2520 	jr	C, 00386$
    00000FB1 3E FE            [ 7] 2521 	ld	a, #0xfe
    00000FB3 C3rB8r0F         [10] 2522 	jp	00387$
    00000FB6                       2523 00386$:
    00000FB6 3E FF            [ 7] 2524 	ld	a, #0xff
    00000FB8                       2525 00387$:
    00000FB8 DD 6E F1         [19] 2526 	ld	l, -15 (ix)
    00000FBB DD 66 F2         [19] 2527 	ld	h, -14 (ix)
    00000FBE 77               [ 7] 2528 	ld	(hl), a
    00000FBF C3rCAr0F         [10] 2529 	jp	00235$
    00000FC2                       2530 00231$:
                                   2531 ;E:\Dropbox\FAUSTO\SVILUPPI\MSX\CODE\C\MSXgl\projects\soccerlgMSX2/soccerlg_s22_b3.c:243: else p->dy = 0;
    00000FC2 DD 6E F1         [19] 2532 	ld	l, -15 (ix)
    00000FC5 DD 66 F2         [19] 2533 	ld	h, -14 (ix)
    00000FC8 36 00            [10] 2534 	ld	(hl), #0x00
    00000FCA                       2535 00235$:
                                   2536 ;E:\Dropbox\FAUSTO\SVILUPPI\MSX\CODE\C\MSXgl\projects\soccerlgMSX2/soccerlg_s22_b3.c:245: p->lx += p->dx; p->ly += p->dy; p->anim++;
    00000FCA DD 6E E9         [19] 2537 	ld	l, -23 (ix)
    00000FCD DD 66 EA         [19] 2538 	ld	h, -22 (ix)
    00000FD0 4E               [ 7] 2539 	ld	c, (hl)
    00000FD1 DD 6E EF         [19] 2540 	ld	l, -17 (ix)
    00000FD4 DD 66 F0         [19] 2541 	ld	h, -16 (ix)
    00000FD7 7E               [ 7] 2542 	ld	a, (hl)
    00000FD8 81               [ 4] 2543 	add	a, c
    00000FD9 DD 6E E9         [19] 2544 	ld	l, -23 (ix)
    00000FDC DD 66 EA         [19] 2545 	ld	h, -22 (ix)
    00000FDF 77               [ 7] 2546 	ld	(hl), a
    00000FE0 DD 6E EB         [19] 2547 	ld	l, -21 (ix)
    00000FE3 DD 66 EC         [19] 2548 	ld	h, -20 (ix)
    00000FE6 4E               [ 7] 2549 	ld	c, (hl)
    00000FE7 23               [ 6] 2550 	inc	hl
    00000FE8 46               [ 7] 2551 	ld	b, (hl)
    00000FE9 DD 6E F1         [19] 2552 	ld	l, -15 (ix)
    00000FEC DD 66 F2         [19] 2553 	ld	h, -14 (ix)
    00000FEF 7E               [ 7] 2554 	ld	a, (hl)
    00000FF0 6F               [ 4] 2555 	ld	l, a
                                   2556 ;	spillPairReg hl
                                   2557 ;	spillPairReg hl
    00000FF1 07               [ 4] 2558 	rlca
    00000FF2 9F               [ 4] 2559 	sbc	a, a
    00000FF3 67               [ 4] 2560 	ld	h, a
                                   2561 ;	spillPairReg hl
                                   2562 ;	spillPairReg hl
    00000FF4 09               [11] 2563 	add	hl, bc
    00000FF5 EB               [ 4] 2564 	ex	de, hl
    00000FF6 DD 6E EB         [19] 2565 	ld	l, -21 (ix)
    00000FF9 DD 66 EC         [19] 2566 	ld	h, -20 (ix)
    00000FFC 73               [ 7] 2567 	ld	(hl), e
    00000FFD 23               [ 6] 2568 	inc	hl
    00000FFE 72               [ 7] 2569 	ld	(hl), d
    00000FFF DD 6E E9         [19] 2570 	ld	l, -23 (ix)
    00001002 DD 66 EA         [19] 2571 	ld	h, -22 (ix)
    00001005 11 13 00         [10] 2572 	ld	de, #0x0013
    00001008 19               [11] 2573 	add	hl, de
    00001009 5E               [ 7] 2574 	ld	e, (hl)
    0000100A 23               [ 6] 2575 	inc	hl
    0000100B 56               [ 7] 2576 	ld	d, (hl)
    0000100C 2B               [ 6] 2577 	dec	hl
    0000100D 13               [ 6] 2578 	inc	de
    0000100E 73               [ 7] 2579 	ld	(hl), e
    0000100F 23               [ 6] 2580 	inc	hl
    00001010 72               [ 7] 2581 	ld	(hl), d
                                   2582 ;E:\Dropbox\FAUSTO\SVILUPPI\MSX\CODE\C\MSXgl\projects\soccerlgMSX2/soccerlg_s22_b3.c:246: const u8 walk_seq[4] = {0, 1, 2, 1};
    00001011 DD 36 E2 00      [19] 2583 	ld	-30 (ix), #0x00
    00001015 DD 36 E3 01      [19] 2584 	ld	-29 (ix), #0x01
    00001019 DD 36 E4 02      [19] 2585 	ld	-28 (ix), #0x02
    0000101D DD 36 E5 01      [19] 2586 	ld	-27 (ix), #0x01
                                   2587 ;E:\Dropbox\FAUSTO\SVILUPPI\MSX\CODE\C\MSXgl\projects\soccerlgMSX2/soccerlg_s22_b3.c:247: p->frame = CallFnc_U16_P4(SEG_GAMESTATE_9, GetPlayerAnimFrame, i, p->dx, p->dy, walk_seq[(p->anim / 3) % 4]); 
    00001021 EB               [ 4] 2588 	ex	de, hl
    00001022 11 03 00         [10] 2589 	ld	de, #0x0003
    00001025 CDr00r00         [17] 2590 	call	__divuint
    00001028 7B               [ 4] 2591 	ld	a, e
    00001029 E6 03            [ 7] 2592 	and	a, #0x03
    0000102B 4F               [ 4] 2593 	ld	c, a
    0000102C 06 00            [ 7] 2594 	ld	b, #0x00
    0000102E 21 00 00         [10] 2595 	ld	hl, #0
    00001031 39               [11] 2596 	add	hl, sp
    00001032 09               [11] 2597 	add	hl, bc
    00001033 56               [ 7] 2598 	ld	d, (hl)
    00001034 DD 6E F1         [19] 2599 	ld	l, -15 (ix)
    00001037 DD 66 F2         [19] 2600 	ld	h, -14 (ix)
    0000103A 46               [ 7] 2601 	ld	b, (hl)
    0000103B DD 6E EF         [19] 2602 	ld	l, -17 (ix)
    0000103E DD 66 F0         [19] 2603 	ld	h, -16 (ix)
    00001041 7E               [ 7] 2604 	ld	a, (hl)
    00001042 58               [ 4] 2605 	ld	e, b
    00001043 D5               [11] 2606 	push	de
    00001044 F5               [11] 2607 	push	af
    00001045 33               [ 6] 2608 	inc	sp
    00001046 DD 7E FF         [19] 2609 	ld	a, -1 (ix)
    00001049 F5               [11] 2610 	push	af
    0000104A 33               [ 6] 2611 	inc	sp
    0000104B 11r00r00         [10] 2612 	ld	de, #_GetPlayerAnimFrame
    0000104E 3E 13            [ 7] 2613 	ld	a, #0x13
    00001050 CDr00r00         [17] 2614 	call	_CallFnc_U16_P4
    00001053 DD 6E F3         [19] 2615 	ld	l, -13 (ix)
    00001056 DD 66 F4         [19] 2616 	ld	h, -12 (ix)
    00001059 73               [ 7] 2617 	ld	(hl), e
    0000105A 23               [ 6] 2618 	inc	hl
    0000105B 72               [ 7] 2619 	ld	(hl), d
    0000105C C3r1Dr11         [10] 2620 	jp	00246$
    0000105F                       2621 00243$:
                                   2622 ;E:\Dropbox\FAUSTO\SVILUPPI\MSX\CODE\C\MSXgl\projects\soccerlgMSX2/soccerlg_s22_b3.c:249: p->dx = 0; p->dy = 0;
    0000105F DD 6E EF         [19] 2623 	ld	l, -17 (ix)
    00001062 DD 66 F0         [19] 2624 	ld	h, -16 (ix)
    00001065 36 00            [10] 2625 	ld	(hl), #0x00
    00001067 DD 6E F1         [19] 2626 	ld	l, -15 (ix)
    0000106A DD 66 F2         [19] 2627 	ld	h, -14 (ix)
    0000106D 36 00            [10] 2628 	ld	(hl), #0x00
                                   2629 ;E:\Dropbox\FAUSTO\SVILUPPI\MSX\CODE\C\MSXgl\projects\soccerlgMSX2/soccerlg_s22_b3.c:251: if (i == 26) { // L'arbitro fissa sempre la palla
    0000106F DD 7E FF         [19] 2630 	ld	a, -1 (ix)
    00001072 D6 1A            [ 7] 2631 	sub	a, #0x1a
    00001074 20 60            [12] 2632 	jr	NZ, 00237$
                                   2633 ;E:\Dropbox\FAUSTO\SVILUPPI\MSX\CODE\C\MSXgl\projects\soccerlgMSX2/soccerlg_s22_b3.c:252: look_dx = (SwSprite[14].lx > p->lx) ? 1 : ((SwSprite[14].lx < p->lx) ? -1 : 0);
    00001076 21r42r01         [10] 2634 	ld	hl, #_SwSprite + 322
    00001079 4E               [ 7] 2635 	ld	c, (hl)
    0000107A DD 6E E9         [19] 2636 	ld	l, -23 (ix)
    0000107D DD 66 EA         [19] 2637 	ld	h, -22 (ix)
    00001080 46               [ 7] 2638 	ld	b, (hl)
    00001081 78               [ 4] 2639 	ld	a, b
    00001082 91               [ 4] 2640 	sub	a, c
    00001083 30 06            [12] 2641 	jr	NC, 00388$
    00001085 01 01 00         [10] 2642 	ld	bc, #0x0001
    00001088 C3r98r10         [10] 2643 	jp	00389$
    0000108B                       2644 00388$:
    0000108B 79               [ 4] 2645 	ld	a, c
    0000108C 90               [ 4] 2646 	sub	a, b
    0000108D 30 06            [12] 2647 	jr	NC, 00390$
    0000108F 01 FF FF         [10] 2648 	ld	bc, #0xffff
    00001092 C3r98r10         [10] 2649 	jp	00391$
    00001095                       2650 00390$:
    00001095 01 00 00         [10] 2651 	ld	bc, #0x0000
    00001098                       2652 00391$:
    00001098                       2653 00389$:
    00001098 DD 71 F8         [19] 2654 	ld	-8 (ix), c
                                   2655 ;E:\Dropbox\FAUSTO\SVILUPPI\MSX\CODE\C\MSXgl\projects\soccerlgMSX2/soccerlg_s22_b3.c:253: look_dy = (SwSprite[14].ly > p->ly) ? 1 : ((SwSprite[14].ly < p->ly) ? -1 : 0);
    0000109B 21r46r01         [10] 2656 	ld	hl, #_SwSprite + 326
    0000109E 7E               [ 7] 2657 	ld	a, (hl)
    0000109F DD 77 F9         [19] 2658 	ld	-7 (ix), a
    000010A2 23               [ 6] 2659 	inc	hl
    000010A3 7E               [ 7] 2660 	ld	a, (hl)
    000010A4 DD 77 FA         [19] 2661 	ld	-6 (ix), a
    000010A7 DD 6E EB         [19] 2662 	ld	l, -21 (ix)
    000010AA DD 66 EC         [19] 2663 	ld	h, -20 (ix)
    000010AD 4E               [ 7] 2664 	ld	c, (hl)
    000010AE 23               [ 6] 2665 	inc	hl
    000010AF 46               [ 7] 2666 	ld	b, (hl)
    000010B0 79               [ 4] 2667 	ld	a, c
    000010B1 DD 96 F9         [19] 2668 	sub	a, -7 (ix)
    000010B4 78               [ 4] 2669 	ld	a, b
    000010B5 DD 9E FA         [19] 2670 	sbc	a, -6 (ix)
    000010B8 30 06            [12] 2671 	jr	NC, 00392$
    000010BA 01 01 00         [10] 2672 	ld	bc, #0x0001
    000010BD C3rF7r10         [10] 2673 	jp	00238$
    000010C0                       2674 00392$:
    000010C0 DD 7E F9         [19] 2675 	ld	a, -7 (ix)
    000010C3 91               [ 4] 2676 	sub	a, c
    000010C4 DD 7E FA         [19] 2677 	ld	a, -6 (ix)
    000010C7 98               [ 4] 2678 	sbc	a, b
    000010C8 30 06            [12] 2679 	jr	NC, 00394$
    000010CA 01 FF FF         [10] 2680 	ld	bc, #0xffff
    000010CD C3rF7r10         [10] 2681 	jp	00238$
    000010D0                       2682 00394$:
    000010D0 01 00 00         [10] 2683 	ld	bc, #0x0000
    000010D3 C3rF7r10         [10] 2684 	jp	00238$
    000010D6                       2685 00237$:
                                   2686 ;E:\Dropbox\FAUSTO\SVILUPPI\MSX\CODE\C\MSXgl\projects\soccerlgMSX2/soccerlg_s22_b3.c:255: look_dx = (i8)((i % 3) - 1);
    000010D6 DD 6E FF         [19] 2687 	ld	l, -1 (ix)
                                   2688 ;	spillPairReg hl
                                   2689 ;	spillPairReg hl
    000010D9 26 00            [ 7] 2690 	ld	h, #0x00
                                   2691 ;	spillPairReg hl
                                   2692 ;	spillPairReg hl
    000010DB E5               [11] 2693 	push	hl
    000010DC 11 03 00         [10] 2694 	ld	de, #0x0003
    000010DF CDr00r00         [17] 2695 	call	__modsint
    000010E2 E1               [10] 2696 	pop	hl
    000010E3 7B               [ 4] 2697 	ld	a, e
    000010E4 3D               [ 4] 2698 	dec	a
    000010E5 DD 77 F8         [19] 2699 	ld	-8 (ix), a
                                   2700 ;E:\Dropbox\FAUSTO\SVILUPPI\MSX\CODE\C\MSXgl\projects\soccerlgMSX2/soccerlg_s22_b3.c:256: look_dy = (i8)(((i / 3) % 3) - 1);
    000010E8 11 03 00         [10] 2701 	ld	de, #0x0003
    000010EB CDr00r00         [17] 2702 	call	__divsint
    000010EE EB               [ 4] 2703 	ex	de, hl
    000010EF 11 03 00         [10] 2704 	ld	de, #0x0003
    000010F2 CDr00r00         [17] 2705 	call	__modsint
    000010F5 4B               [ 4] 2706 	ld	c, e
    000010F6 0D               [ 4] 2707 	dec	c
    000010F7                       2708 00238$:
                                   2709 ;E:\Dropbox\FAUSTO\SVILUPPI\MSX\CODE\C\MSXgl\projects\soccerlgMSX2/soccerlg_s22_b3.c:258: if (look_dx == 0 && look_dy == 0) look_dy = 1;
    000010F7 DD 7E F8         [19] 2710 	ld	a, -8 (ix)
    000010FA B7               [ 4] 2711 	or	a,a
    000010FB 20 05            [12] 2712 	jr	NZ, 00240$
    000010FD B1               [ 4] 2713 	or	a,c
    000010FE 20 02            [12] 2714 	jr	NZ, 00240$
    00001100 0E 01            [ 7] 2715 	ld	c, #0x01
    00001102                       2716 00240$:
                                   2717 ;E:\Dropbox\FAUSTO\SVILUPPI\MSX\CODE\C\MSXgl\projects\soccerlgMSX2/soccerlg_s22_b3.c:259: p->frame = CallFnc_U16_P3(SEG_GAMESTATE_9, GetPlayerIdleFrame, i, look_dx, look_dy);
    00001102 61               [ 4] 2718 	ld	h, c
    00001103 DD 6E F8         [19] 2719 	ld	l, -8 (ix)
    00001106 E5               [11] 2720 	push	hl
    00001107 DD 7E FF         [19] 2721 	ld	a, -1 (ix)
    0000110A F5               [11] 2722 	push	af
    0000110B 33               [ 6] 2723 	inc	sp
    0000110C 11r00r00         [10] 2724 	ld	de, #_GetPlayerIdleFrame
    0000110F 3E 13            [ 7] 2725 	ld	a, #0x13
    00001111 CDr00r00         [17] 2726 	call	_CallFnc_U16_P3
    00001114 DD 6E F3         [19] 2727 	ld	l, -13 (ix)
    00001117 DD 66 F4         [19] 2728 	ld	h, -12 (ix)
    0000111A 73               [ 7] 2729 	ld	(hl), e
    0000111B 23               [ 6] 2730 	inc	hl
    0000111C 72               [ 7] 2731 	ld	(hl), d
    0000111D                       2732 00246$:
                                   2733 ;E:\Dropbox\FAUSTO\SVILUPPI\MSX\CODE\C\MSXgl\projects\soccerlgMSX2/soccerlg_s22_b3.c:231: for (u8 i = 0; i <= 26; i++) {
    0000111D DD 34 FF         [23] 2734 	inc	-1 (ix)
    00001120 C3rBBr0D         [10] 2735 	jp	00267$
    00001123                       2736 00247$:
                                   2737 ;E:\Dropbox\FAUSTO\SVILUPPI\MSX\CODE\C\MSXgl\projects\soccerlgMSX2/soccerlg_s22_b3.c:262: if (all_in_position) *game_state = 12; // Va in Loop infinito dei Rigori
    00001123 DD 7E E8         [19] 2738 	ld	a, -24 (ix)
    00001126 B7               [ 4] 2739 	or	a, a
    00001127 28 08            [12] 2740 	jr	Z, 00249$
    00001129 DD 6E FD         [19] 2741 	ld	l, -3 (ix)
    0000112C DD 66 FE         [19] 2742 	ld	h, -2 (ix)
    0000112F 36 0C            [10] 2743 	ld	(hl), #0x0c
    00001131                       2744 00249$:
                                   2745 ;E:\Dropbox\FAUSTO\SVILUPPI\MSX\CODE\C\MSXgl\projects\soccerlgMSX2/soccerlg_s22_b3.c:263: return;
    00001131                       2746 00268$:
                                   2747 ;E:\Dropbox\FAUSTO\SVILUPPI\MSX\CODE\C\MSXgl\projects\soccerlgMSX2/soccerlg_s22_b3.c:265: }
    00001131 DD F9            [10] 2748 	ld	sp, ix
    00001133 DD E1            [14] 2749 	pop	ix
    00001135 E1               [10] 2750 	pop	hl
    00001136 F1               [10] 2751 	pop	af
    00001137 F1               [10] 2752 	pop	af
    00001138 E9               [ 4] 2753 	jp	(hl)
                         0000F380  2754 _g_RDPRIM	=	0xf380
                         0000F385  2755 _g_WRPRIM	=	0xf385
                         0000F38C  2756 _g_CLPRIM	=	0xf38c
                         0000F39A  2757 _g_USRTAB	=	0xf39a
                         0000F3DE  2758 _g_CNSDFG	=	0xf3de
                         0000F3DF  2759 _g_RG0SAV	=	0xf3df
                         0000F3E0  2760 _g_RG1SAV	=	0xf3e0
                         0000F3E1  2761 _g_RG2SAV	=	0xf3e1
                         0000F3E2  2762 _g_RG3SAV	=	0xf3e2
                         0000F3E3  2763 _g_RG4SAV	=	0xf3e3
                         0000F3E4  2764 _g_RG5SAV	=	0xf3e4
                         0000F3E5  2765 _g_RG6SAV	=	0xf3e5
                         0000F3E6  2766 _g_RG7SAV	=	0xf3e6
                         0000F3E7  2767 _g_STATFL	=	0xf3e7
                         0000F3E8  2768 _g_TRGFLG	=	0xf3e8
                         0000F3EC  2769 _g_MAXUPD	=	0xf3ec
                         0000F3EF  2770 _g_MINUPD	=	0xf3ef
                         0000F3F3  2771 _g_QUEUES	=	0xf3f3
                         0000F3F5  2772 _g_FRCNEW	=	0xf3f5
                         0000F3F6  2773 _g_SCNCNT	=	0xf3f6
                         0000F3F7  2774 _g_REPCNT	=	0xf3f7
                         0000F3F8  2775 _g_PUTPNT	=	0xf3f8
                         0000F3FA  2776 _g_GETPNT	=	0xf3fa
                         0000F3FC  2777 _g_CS120	=	0xf3fc
                         0000F401  2778 _g_CS240	=	0xf401
                         0000F406  2779 _g_LOW	=	0xf406
                         0000F408  2780 _g_HIGH	=	0xf408
                         0000F40A  2781 _g_HEADER	=	0xf40a
                         0000F40B  2782 _g_ASPCT1	=	0xf40b
                         0000F40D  2783 _g_ASPCT2	=	0xf40d
                         0000F959  2784 _g_QUETAB	=	0xf959
                         0000F971  2785 _g_QUEBAK	=	0xf971
                         0000F975  2786 _g_VOICAQ	=	0xf975
                         0000F9F5  2787 _g_VOICBQ	=	0xf9f5
                         0000FA75  2788 _g_VOICCQ	=	0xfa75
                         0000FAF5  2789 _g_RS2IQ	=	0xfaf5
                         0000FAF5  2790 _g_DPPAGE	=	0xfaf5
                         0000FAF6  2791 _g_ACPAGE	=	0xfaf6
                         0000FAF7  2792 _g_AVCSAV	=	0xfaf7
                         0000FAF8  2793 _g_EXBRSA	=	0xfaf8
                         0000FAF9  2794 _g_CHRCNT	=	0xfaf9
                         0000FAFA  2795 _g_ROMA	=	0xfafa
                         0000FAFC  2796 _g_MODE	=	0xfafc
                         0000FAFD  2797 _g_NORUSE	=	0xfafd
                         0000FAFE  2798 _g_XSAVE	=	0xfafe
                         0000FB00  2799 _g_YSAVE	=	0xfb00
                         0000FB03  2800 _g_RSTMP	=	0xfb03
                         0000FB03  2801 _g_TOCNT	=	0xfb03
                         0000FB04  2802 _g_RSFCB	=	0xfb04
                         0000FB06  2803 _g_RSIQLN	=	0xfb06
                         0000FB07  2804 _g_MEXBIh	=	0xfb07
                         0000FB0C  2805 _g_OLDSTT	=	0xfb0c
                         0000FB0C  2806 _g_OLDINT	=	0xfb0c
                         0000FB16  2807 _g_DEVNUM	=	0xfb16
                         0000FB17  2808 _g_DATCNT	=	0xfb17
                         0000FB1A  2809 _g_ERRORS	=	0xfb1a
                         0000FB1B  2810 _g_FLAGS	=	0xfb1b
                         0000FB1C  2811 _g_ESTBLS	=	0xfb1c
                         0000FB1D  2812 _g_COMMSK	=	0xfb1d
                         0000FB1E  2813 _g_LSTCOM	=	0xfb1e
                         0000FB1F  2814 _g_LSTMOD	=	0xfb1f
                         0000FB35  2815 _g_PRSCNT	=	0xfb35
                         0000FB36  2816 _g_SAVSP	=	0xfb36
                         0000FB38  2817 _g_VOICEN	=	0xfb38
                         0000FB39  2818 _g_SAVVOL	=	0xfb39
                         0000FB3B  2819 _g_MCLLEN	=	0xfb3b
                         0000FB3C  2820 _g_MCLPTR	=	0xfb3c
                         0000FB3E  2821 _g_QUEUEN	=	0xfb3e
                         0000FB3F  2822 _g_MUSICF	=	0xfb3f
                         0000FB40  2823 _g_PLYCNT	=	0xfb40
                         0000FB41  2824 _g_VCBA	=	0xfb41
                         0000FB66  2825 _g_VCBB	=	0xfb66
                         0000FB8B  2826 _g_VCBC	=	0xfb8b
                         0000FBB0  2827 _g_ENSTOP	=	0xfbb0
                         0000FBB1  2828 _g_BASROM	=	0xfbb1
                         0000FBB2  2829 _g_LINTTB	=	0xfbb2
                         0000FBCA  2830 _g_FSTPOS	=	0xfbca
                         0000FBCC  2831 _g_CODSAV	=	0xfbcc
                         0000FBCD  2832 _g_FNKSWI	=	0xfbcd
                         0000FBCE  2833 _g_FNKFLG	=	0xfbce
                         0000FBD8  2834 _g_ONGSBF	=	0xfbd8
                         0000FBD9  2835 _g_CLIKFL	=	0xfbd9
                         0000FBDA  2836 _g_OLDKEY	=	0xfbda
                         0000FBE5  2837 _g_NEWKEY	=	0xfbe5
                         0000FBF0  2838 _g_KEYBUF	=	0xfbf0
                         0000FC18  2839 _g_LINWRK	=	0xfc18
                         0000FC40  2840 _g_PATWRK	=	0xfc40
                         0000FC48  2841 _g_BOTTOM	=	0xfc48
                         0000FC4A  2842 _g_HIMEM	=	0xfc4a
                         0000FC4C  2843 _g_TRPTBL	=	0xfc4c
                         0000FC9A  2844 _g_RTYCNT	=	0xfc9a
                         0000FC9B  2845 _g_INTFLG	=	0xfc9b
                         0000FC9C  2846 _g_PADY	=	0xfc9c
                         0000FC9D  2847 _g_PADX	=	0xfc9d
                         0000FC9E  2848 _g_JIFFY	=	0xfc9e
                         0000FCA0  2849 _g_INTVAL	=	0xfca0
                         0000FCA2  2850 _g_INTCNT	=	0xfca2
                         0000FCA4  2851 _g_LOWLIM	=	0xfca4
                         0000FCA5  2852 _g_WINWID	=	0xfca5
                         0000FCA6  2853 _g_GRPHED	=	0xfca6
                         0000FCA7  2854 _g_ESCCNT	=	0xfca7
                         0000FCA8  2855 _g_INSFLG	=	0xfca8
                         0000FCA9  2856 _g_CSRSW	=	0xfca9
                         0000FCAA  2857 _g_CSTYLE	=	0xfcaa
                         0000FCAB  2858 _g_CAPST	=	0xfcab
                         0000FCAC  2859 _g_KANAST	=	0xfcac
                         0000FCAD  2860 _g_KANAMD	=	0xfcad
                         0000FCAE  2861 _g_FLBMEM	=	0xfcae
                         0000FCAF  2862 _g_SCRMOD	=	0xfcaf
                         0000FCB0  2863 _g_OLDSCR	=	0xfcb0
                         0000FCB1  2864 _g_CASPRV	=	0xfcb1
                         0000FCB2  2865 _g_BRDATR	=	0xfcb2
                         0000FCB3  2866 _g_GXPOS	=	0xfcb3
                         0000FCB5  2867 _g_GYPOS	=	0xfcb5
                         0000FCBB  2868 _g_DRWFLG	=	0xfcbb
                         0000FCBC  2869 _g_DRWSCL	=	0xfcbc
                         0000FCBD  2870 _g_DRWANG	=	0xfcbd
                         0000FCC1  2871 _g_MNROM	=	0xfcc1
                         0000FCC1  2872 _g_EXPTBL	=	0xfcc1
                         0000FCC5  2873 _g_SLTTBL	=	0xfcc5
                         0000FCC9  2874 _g_SLTATR	=	0xfcc9
                         0000FD09  2875 _g_SLTWRK	=	0xfd09
                         0000FD89  2876 _g_PROCNM	=	0xfd89
                         0000FFE7  2877 _g_RG08SAV	=	0xffe7
                         0000FFE8  2878 _g_RG09SAV	=	0xffe8
                         0000FFE9  2879 _g_RG10SAV	=	0xffe9
                         0000FFEA  2880 _g_RG11SAV	=	0xffea
                         0000FFEB  2881 _g_RG12SAV	=	0xffeb
                         0000FFEC  2882 _g_RG13SAV	=	0xffec
                         0000FFED  2883 _g_RG14SAV	=	0xffed
                         0000FFEE  2884 _g_RG15SAV	=	0xffee
                         0000FFEF  2885 _g_RG16SAV	=	0xffef
                         0000FFF0  2886 _g_RG17SAV	=	0xfff0
                         0000FFF1  2887 _g_RG18SAV	=	0xfff1
                         0000FFF2  2888 _g_RG19SAV	=	0xfff2
                         0000FFF3  2889 _g_RG20SAV	=	0xfff3
                         0000FFF4  2890 _g_RG21SAV	=	0xfff4
                         0000FFF5  2891 _g_RG22SAV	=	0xfff5
                         0000FFF6  2892 _g_RG23SAV	=	0xfff6
                         0000FFF7  2893 _g_MINROM	=	0xfff7
                         0000FFF8  2894 _g_SVFFF8	=	0xfff8
                         0000FFFA  2895 _g_RG25SAV	=	0xfffa
                         0000FFFB  2896 _g_RG26SAV	=	0xfffb
                         0000FFFC  2897 _g_RG27SAV	=	0xfffc
                         0000FFFD  2898 _g_SVFFFD	=	0xfffd
                         00000004  2899 _g_CGTABL	=	0x0004
                         00000006  2900 _g_VDP_DR	=	0x0006
                         00000007  2901 _g_VDP_DW	=	0x0007
                         0000002B  2902 _g_BASRVN	=	0x002b
                         0000002B  2903 _g_ROMVersion	=	0x002b
                         0000002D  2904 _g_MSXVER	=	0x002d
                         0000002E  2905 _g_MSXMID	=	0x002e
                         00000034  2906 _g_CHAR_16	=	0x0034
                         00000000  2907 _g_SUBRID	=	0x0000
                         00000002  2908 _g_STRSRC	=	0x0002
                         0000F30F  2909 _g_KANJTABLE	=	0xf30f
                         0000F323  2910 _g_DISKVE	=	0xf323
                         0000F325  2911 _g_BREAKV	=	0xf325
                         0000F341  2912 _g_RAMAD0	=	0xf341
                         0000F342  2913 _g_RAMAD1	=	0xf342
                         0000F343  2914 _g_RAMAD2	=	0xf343
                         0000F344  2915 _g_RAMAD3	=	0xf344
                         0000F348  2916 _g_MASTER	=	0xf348
                         0000F37D  2917 _g_BDOS	=	0xf37d
                                   2918 	.area _SEG22
                                   2919 	.area _INITIALIZER
                                   2920 	.area _CABS (ABS)
