                                      1 ;--------------------------------------------------------
                                      2 ; File Created by SDCC : free open source ANSI-C Compiler
                                      3 ; Version 4.2.0 #13081 (MINGW64)
                                      4 ;--------------------------------------------------------
                                      5 	.module soccerlg_s6_b3
                                      6 	.optsdcc -mz80
                                      7 	
                                      8 ;--------------------------------------------------------
                                      9 ; Public variables in this module
                                     10 ;--------------------------------------------------------
                                     11 	.globl _GetPlayerIdleFrame
                                     12 	.globl _GetPlayerAnimFrame
                                     13 	.globl _EventBallKicked
                                     14 	.globl _CallFnc_U16_P4
                                     15 	.globl _CallFnc_U16_P3
                                     16 	.globl _CallFnc_VOID
                                     17 	.globl _g_SLTSL
                                     18 	.globl _g_GRPACY
                                     19 	.globl _g_GRPACX
                                     20 	.globl _g_LOGOPR
                                     21 	.globl _g_CMASK
                                     22 	.globl _g_CLOC
                                     23 	.globl _g_FNKSTR
                                     24 	.globl _g_ATRBYT
                                     25 	.globl _g_BDRCLR
                                     26 	.globl _g_BAKCLR
                                     27 	.globl _g_FORCLR
                                     28 	.globl _g_CSRX
                                     29 	.globl _g_CSRY
                                     30 	.globl _g_CLIKSW
                                     31 	.globl _g_MLTPAT
                                     32 	.globl _g_MLTATR
                                     33 	.globl _g_MLTCGP
                                     34 	.globl _g_MLTCOL
                                     35 	.globl _g_MLTNAM
                                     36 	.globl _g_GRPPAT
                                     37 	.globl _g_GRPATR
                                     38 	.globl _g_GRPCGP
                                     39 	.globl _g_GRPCOL
                                     40 	.globl _g_GRPNAM
                                     41 	.globl _g_T32PAT
                                     42 	.globl _g_T32ATR
                                     43 	.globl _g_T32CGP
                                     44 	.globl _g_T32COL
                                     45 	.globl _g_T32NAM
                                     46 	.globl _g_TXTPAT
                                     47 	.globl _g_TXTATR
                                     48 	.globl _g_TXTCGP
                                     49 	.globl _g_TXTCOL
                                     50 	.globl _g_TXTNAM
                                     51 	.globl _g_CLMLST
                                     52 	.globl _g_CRTCNT
                                     53 	.globl _g_LINLEN
                                     54 	.globl _g_LINL32
                                     55 	.globl _g_LINL40
                                     56 	.globl _g_BDOS
                                     57 	.globl _g_MASTER
                                     58 	.globl _g_RAMAD3
                                     59 	.globl _g_RAMAD2
                                     60 	.globl _g_RAMAD1
                                     61 	.globl _g_RAMAD0
                                     62 	.globl _g_BREAKV
                                     63 	.globl _g_DISKVE
                                     64 	.globl _g_KANJTABLE
                                     65 	.globl _g_STRSRC
                                     66 	.globl _g_SUBRID
                                     67 	.globl _g_CHAR_16
                                     68 	.globl _g_MSXMID
                                     69 	.globl _g_MSXVER
                                     70 	.globl _g_ROMVersion
                                     71 	.globl _g_BASRVN
                                     72 	.globl _g_VDP_DW
                                     73 	.globl _g_VDP_DR
                                     74 	.globl _g_CGTABL
                                     75 	.globl _g_SVFFFD
                                     76 	.globl _g_RG27SAV
                                     77 	.globl _g_RG26SAV
                                     78 	.globl _g_RG25SAV
                                     79 	.globl _g_SVFFF8
                                     80 	.globl _g_MINROM
                                     81 	.globl _g_RG23SAV
                                     82 	.globl _g_RG22SAV
                                     83 	.globl _g_RG21SAV
                                     84 	.globl _g_RG20SAV
                                     85 	.globl _g_RG19SAV
                                     86 	.globl _g_RG18SAV
                                     87 	.globl _g_RG17SAV
                                     88 	.globl _g_RG16SAV
                                     89 	.globl _g_RG15SAV
                                     90 	.globl _g_RG14SAV
                                     91 	.globl _g_RG13SAV
                                     92 	.globl _g_RG12SAV
                                     93 	.globl _g_RG11SAV
                                     94 	.globl _g_RG10SAV
                                     95 	.globl _g_RG09SAV
                                     96 	.globl _g_RG08SAV
                                     97 	.globl _g_PROCNM
                                     98 	.globl _g_SLTWRK
                                     99 	.globl _g_SLTATR
                                    100 	.globl _g_SLTTBL
                                    101 	.globl _g_EXPTBL
                                    102 	.globl _g_MNROM
                                    103 	.globl _g_DRWANG
                                    104 	.globl _g_DRWSCL
                                    105 	.globl _g_DRWFLG
                                    106 	.globl _g_GYPOS
                                    107 	.globl _g_GXPOS
                                    108 	.globl _g_BRDATR
                                    109 	.globl _g_CASPRV
                                    110 	.globl _g_OLDSCR
                                    111 	.globl _g_SCRMOD
                                    112 	.globl _g_FLBMEM
                                    113 	.globl _g_KANAMD
                                    114 	.globl _g_KANAST
                                    115 	.globl _g_CAPST
                                    116 	.globl _g_CSTYLE
                                    117 	.globl _g_CSRSW
                                    118 	.globl _g_INSFLG
                                    119 	.globl _g_ESCCNT
                                    120 	.globl _g_GRPHED
                                    121 	.globl _g_WINWID
                                    122 	.globl _g_LOWLIM
                                    123 	.globl _g_INTCNT
                                    124 	.globl _g_INTVAL
                                    125 	.globl _g_JIFFY
                                    126 	.globl _g_PADX
                                    127 	.globl _g_PADY
                                    128 	.globl _g_INTFLG
                                    129 	.globl _g_RTYCNT
                                    130 	.globl _g_TRPTBL
                                    131 	.globl _g_HIMEM
                                    132 	.globl _g_BOTTOM
                                    133 	.globl _g_PATWRK
                                    134 	.globl _g_LINWRK
                                    135 	.globl _g_KEYBUF
                                    136 	.globl _g_NEWKEY
                                    137 	.globl _g_OLDKEY
                                    138 	.globl _g_CLIKFL
                                    139 	.globl _g_ONGSBF
                                    140 	.globl _g_FNKFLG
                                    141 	.globl _g_FNKSWI
                                    142 	.globl _g_CODSAV
                                    143 	.globl _g_FSTPOS
                                    144 	.globl _g_LINTTB
                                    145 	.globl _g_BASROM
                                    146 	.globl _g_ENSTOP
                                    147 	.globl _g_VCBC
                                    148 	.globl _g_VCBB
                                    149 	.globl _g_VCBA
                                    150 	.globl _g_PLYCNT
                                    151 	.globl _g_MUSICF
                                    152 	.globl _g_QUEUEN
                                    153 	.globl _g_MCLPTR
                                    154 	.globl _g_MCLLEN
                                    155 	.globl _g_SAVVOL
                                    156 	.globl _g_VOICEN
                                    157 	.globl _g_SAVSP
                                    158 	.globl _g_PRSCNT
                                    159 	.globl _g_LSTMOD
                                    160 	.globl _g_LSTCOM
                                    161 	.globl _g_COMMSK
                                    162 	.globl _g_ESTBLS
                                    163 	.globl _g_FLAGS
                                    164 	.globl _g_ERRORS
                                    165 	.globl _g_DATCNT
                                    166 	.globl _g_DEVNUM
                                    167 	.globl _g_OLDINT
                                    168 	.globl _g_OLDSTT
                                    169 	.globl _g_MEXBIh
                                    170 	.globl _g_RSIQLN
                                    171 	.globl _g_RSFCB
                                    172 	.globl _g_TOCNT
                                    173 	.globl _g_RSTMP
                                    174 	.globl _g_YSAVE
                                    175 	.globl _g_XSAVE
                                    176 	.globl _g_NORUSE
                                    177 	.globl _g_MODE
                                    178 	.globl _g_ROMA
                                    179 	.globl _g_CHRCNT
                                    180 	.globl _g_EXBRSA
                                    181 	.globl _g_AVCSAV
                                    182 	.globl _g_ACPAGE
                                    183 	.globl _g_DPPAGE
                                    184 	.globl _g_RS2IQ
                                    185 	.globl _g_VOICCQ
                                    186 	.globl _g_VOICBQ
                                    187 	.globl _g_VOICAQ
                                    188 	.globl _g_QUEBAK
                                    189 	.globl _g_QUETAB
                                    190 	.globl _g_ASPCT2
                                    191 	.globl _g_ASPCT1
                                    192 	.globl _g_HEADER
                                    193 	.globl _g_HIGH
                                    194 	.globl _g_LOW
                                    195 	.globl _g_CS240
                                    196 	.globl _g_CS120
                                    197 	.globl _g_GETPNT
                                    198 	.globl _g_PUTPNT
                                    199 	.globl _g_REPCNT
                                    200 	.globl _g_SCNCNT
                                    201 	.globl _g_FRCNEW
                                    202 	.globl _g_QUEUES
                                    203 	.globl _g_MINUPD
                                    204 	.globl _g_MAXUPD
                                    205 	.globl _g_TRGFLG
                                    206 	.globl _g_STATFL
                                    207 	.globl _g_RG7SAV
                                    208 	.globl _g_RG6SAV
                                    209 	.globl _g_RG5SAV
                                    210 	.globl _g_RG4SAV
                                    211 	.globl _g_RG3SAV
                                    212 	.globl _g_RG2SAV
                                    213 	.globl _g_RG1SAV
                                    214 	.globl _g_RG0SAV
                                    215 	.globl _g_CNSDFG
                                    216 	.globl _g_USRTAB
                                    217 	.globl _g_CLPRIM
                                    218 	.globl _g_WRPRIM
                                    219 	.globl _g_RDPRIM
                                    220 	.globl _PlayerAI
                                    221 	.globl _FindReceiver
                                    222 ;--------------------------------------------------------
                                    223 ; special function registers
                                    224 ;--------------------------------------------------------
                         000000A8   225 _g_PortPrimarySlot	=	0x00a8
                         000000A9   226 _g_PortReadKeyboard	=	0x00a9
                         000000AA   227 _g_PortAccessKeyboard	=	0x00aa
                         000000AB   228 _g_PortControl	=	0x00ab
                         00000098   229 _g_VDP_DataPort	=	0x0098
                         00000099   230 _g_VDP_RegPort	=	0x0099
                         00000099   231 _g_VDP_AddrPort	=	0x0099
                         00000099   232 _g_VDP_StatPort	=	0x0099
                         0000009A   233 _g_VDP_PalPort	=	0x009a
                         0000009B   234 _g_VDP_IRegPort	=	0x009b
                         000000A0   235 _g_PSG_RegPort	=	0x00a0
                         000000A1   236 _g_PSG_DataPort	=	0x00a1
                         000000A2   237 _g_PSG_StatPort	=	0x00a2
                         00000010   238 _g_PSG_Ext_RegPort	=	0x0010
                         00000011   239 _g_PSG_Ext_DataPort	=	0x0011
                         00000012   240 _g_PSG_Ext_StatPort	=	0x0012
                         0000007C   241 _g_MSXMusic_IndexPort	=	0x007c
                         0000007D   242 _g_MSXMusic_DataPort	=	0x007d
                         000000C0   243 _g_MSXAudio_IndexPort	=	0x00c0
                         000000C1   244 _g_MSXAudio_DataPort	=	0x00c1
                         000000C2   245 _g_MSXAudio_IndexPort2	=	0x00c2
                         000000C3   246 _g_MSXAudio_DataPort2	=	0x00c3
                         000000B4   247 _g_RTC_AddrPort	=	0x00b4
                         000000B5   248 _g_RTC_DataPort	=	0x00b5
                                    249 ;--------------------------------------------------------
                                    250 ; ram data
                                    251 ;--------------------------------------------------------
                                    252 	.area _DATA
                         0000F3AE   253 _g_LINL40	=	0xf3ae
                         0000F3AF   254 _g_LINL32	=	0xf3af
                         0000F3B0   255 _g_LINLEN	=	0xf3b0
                         0000F3B1   256 _g_CRTCNT	=	0xf3b1
                         0000F3B2   257 _g_CLMLST	=	0xf3b2
                         0000F3B3   258 _g_TXTNAM	=	0xf3b3
                         0000F3B5   259 _g_TXTCOL	=	0xf3b5
                         0000F3B7   260 _g_TXTCGP	=	0xf3b7
                         0000F3B9   261 _g_TXTATR	=	0xf3b9
                         0000F3BB   262 _g_TXTPAT	=	0xf3bb
                         0000F3BD   263 _g_T32NAM	=	0xf3bd
                         0000F3BF   264 _g_T32COL	=	0xf3bf
                         0000F3C1   265 _g_T32CGP	=	0xf3c1
                         0000F3C3   266 _g_T32ATR	=	0xf3c3
                         0000F3C5   267 _g_T32PAT	=	0xf3c5
                         0000F3C7   268 _g_GRPNAM	=	0xf3c7
                         0000F3C9   269 _g_GRPCOL	=	0xf3c9
                         0000F3CB   270 _g_GRPCGP	=	0xf3cb
                         0000F3CD   271 _g_GRPATR	=	0xf3cd
                         0000F3CF   272 _g_GRPPAT	=	0xf3cf
                         0000F3D1   273 _g_MLTNAM	=	0xf3d1
                         0000F3D3   274 _g_MLTCOL	=	0xf3d3
                         0000F3D5   275 _g_MLTCGP	=	0xf3d5
                         0000F3D7   276 _g_MLTATR	=	0xf3d7
                         0000F3D9   277 _g_MLTPAT	=	0xf3d9
                         0000F3DB   278 _g_CLIKSW	=	0xf3db
                         0000F3DC   279 _g_CSRY	=	0xf3dc
                         0000F3DD   280 _g_CSRX	=	0xf3dd
                         0000F3E9   281 _g_FORCLR	=	0xf3e9
                         0000F3EA   282 _g_BAKCLR	=	0xf3ea
                         0000F3EB   283 _g_BDRCLR	=	0xf3eb
                         0000F3F2   284 _g_ATRBYT	=	0xf3f2
                         0000F87F   285 _g_FNKSTR	=	0xf87f
                         0000F92A   286 _g_CLOC	=	0xf92a
                         0000F92C   287 _g_CMASK	=	0xf92c
                         0000FB02   288 _g_LOGOPR	=	0xfb02
                         0000FCB7   289 _g_GRPACX	=	0xfcb7
                         0000FCB9   290 _g_GRPACY	=	0xfcb9
                         0000FFFF   291 _g_SLTSL	=	0xffff
                                    292 ;--------------------------------------------------------
                                    293 ; ram data
                                    294 ;--------------------------------------------------------
                                    295 	.area _INITIALIZED
    00000000                        296 _ai_last_dx:
    00000000                        297 	.ds 14
    0000000E                        298 _ai_last_dy:
    0000000E                        299 	.ds 14
                                    300 ;--------------------------------------------------------
                                    301 ; absolute external ram data
                                    302 ;--------------------------------------------------------
                                    303 	.area _DABS (ABS)
                                    304 ;--------------------------------------------------------
                                    305 ; global & static initialisations
                                    306 ;--------------------------------------------------------
                                    307 	.area _HOME
                                    308 	.area _GSINIT
                                    309 	.area _GSFINAL
                                    310 	.area _GSINIT
                                    311 ;--------------------------------------------------------
                                    312 ; Home
                                    313 ;--------------------------------------------------------
                                    314 	.area _HOME
                                    315 	.area _HOME
                                    316 ;--------------------------------------------------------
                                    317 ; code
                                    318 ;--------------------------------------------------------
                                    319 	.area _SEG6
                                    320 ;E:\Dropbox\FAUSTO\SVILUPPI\MSX\CODE\C\MSXgl\projects\soccerlgMSX2/soccerlg_s6_b3.c:12: void PlayerAI(u8 i) 
                                    321 ;	---------------------------------
                                    322 ; Function PlayerAI
                                    323 ; ---------------------------------
    00000000                        324 _PlayerAI::
    00000000 DD E5            [15]  325 	push	ix
    00000002 DD 21 00 00      [14]  326 	ld	ix,#0
    00000006 DD 39            [15]  327 	add	ix,sp
    00000008 21 D5 FF         [10]  328 	ld	hl, #-43
    0000000B 39               [11]  329 	add	hl, sp
    0000000C F9               [ 6]  330 	ld	sp, hl
    0000000D DD 77 FF         [19]  331 	ld	-1 (ix), a
                                    332 ;E:\Dropbox\FAUSTO\SVILUPPI\MSX\CODE\C\MSXgl\projects\soccerlgMSX2/soccerlg_s6_b3.c:15: if (GameMode == GAMEMODE_P1_VS_CPU) {
    00000010 3Ar00r00         [13]  333 	ld	a, (_GameMode+0)
    00000013 B7               [ 4]  334 	or	a, a
    00000014 20 0C            [12]  335 	jr	NZ, 00107$
                                    336 ;E:\Dropbox\FAUSTO\SVILUPPI\MSX\CODE\C\MSXgl\projects\soccerlgMSX2/soccerlg_s6_b3.c:16: if (i == T2_Carrier) return;
    00000016 3Ar00r00         [13]  337 	ld	a, (_T2_Carrier+0)
    00000019 DD 96 FF         [19]  338 	sub	a, -1 (ix)
    0000001C CArC8r18         [10]  339 	jp	Z,00306$
    0000001F C3r34r00         [10]  340 	jp	00108$
    00000022                        341 00107$:
                                    342 ;E:\Dropbox\FAUSTO\SVILUPPI\MSX\CODE\C\MSXgl\projects\soccerlgMSX2/soccerlg_s6_b3.c:18: if (i == T1_Carrier || i == T2_Carrier) return;
    00000022 3Ar00r00         [13]  343 	ld	a, (_T1_Carrier+0)
    00000025 DD 96 FF         [19]  344 	sub	a, -1 (ix)
    00000028 CArC8r18         [10]  345 	jp	Z,00306$
    0000002B 3Ar00r00         [13]  346 	ld	a, (_T2_Carrier+0)
    0000002E DD 96 FF         [19]  347 	sub	a, -1 (ix)
    00000031 CArC8r18         [10]  348 	jp	Z,00306$
    00000034                        349 00108$:
                                    350 ;E:\Dropbox\FAUSTO\SVILUPPI\MSX\CODE\C\MSXgl\projects\soccerlgMSX2/soccerlg_s6_b3.c:21: struct ObjectInfo* Ball = &SwSprite[14];
                                    351 ;E:\Dropbox\FAUSTO\SVILUPPI\MSX\CODE\C\MSXgl\projects\soccerlgMSX2/soccerlg_s6_b3.c:23: if (Ball->anim == 5 && i == g_pass_receiver) {
    00000034 2Ar55r01         [16]  352 	ld	hl, (#(_SwSprite + 341) + 0)
    00000037 DD 75 D9         [19]  353 	ld	-39 (ix), l
    0000003A DD 74 DA         [19]  354 	ld	-38 (ix), h
    0000003D DD 7E D9         [19]  355 	ld	a, -39 (ix)
    00000040 D6 05            [ 7]  356 	sub	a, #0x05
    00000042 DD B6 DA         [19]  357 	or	a, -38 (ix)
    00000045 3E 01            [ 7]  358 	ld	a, #0x01
    00000047 28 01            [12]  359 	jr	Z, 01324$
    00000049 AF               [ 4]  360 	xor	a, a
    0000004A                        361 01324$:
    0000004A DD 77 FC         [19]  362 	ld	-4 (ix), a
                                    363 ;E:\Dropbox\FAUSTO\SVILUPPI\MSX\CODE\C\MSXgl\projects\soccerlgMSX2/soccerlg_s6_b3.c:24: SwSprite[i].dx = 0; SwSprite[i].dy = 0;
    0000004D DD 4E FF         [19]  364 	ld	c, -1 (ix)
    00000050 06 00            [ 7]  365 	ld	b, #0x00
    00000052 69               [ 4]  366 	ld	l, c
    00000053 60               [ 4]  367 	ld	h, b
    00000054 29               [11]  368 	add	hl, hl
    00000055 29               [11]  369 	add	hl, hl
    00000056 09               [11]  370 	add	hl, bc
    00000057 29               [11]  371 	add	hl, hl
    00000058 09               [11]  372 	add	hl, bc
    00000059 29               [11]  373 	add	hl, hl
    0000005A 09               [11]  374 	add	hl, bc
    0000005B EB               [ 4]  375 	ex	de, hl
    0000005C 21r00r00         [10]  376 	ld	hl, #_SwSprite
    0000005F 19               [11]  377 	add	hl, de
    00000060 DD 75 FD         [19]  378 	ld	-3 (ix), l
    00000063 DD 74 FE         [19]  379 	ld	-2 (ix), h
                                    380 ;E:\Dropbox\FAUSTO\SVILUPPI\MSX\CODE\C\MSXgl\projects\soccerlgMSX2/soccerlg_s6_b3.c:23: if (Ball->anim == 5 && i == g_pass_receiver) {
    00000066 DD 7E FC         [19]  381 	ld	a, -4 (ix)
    00000069 B7               [ 4]  382 	or	a, a
    0000006A 28 55            [12]  383 	jr	Z, 00110$
    0000006C 3Ar00r00         [13]  384 	ld	a, (_g_pass_receiver+0)
    0000006F DD 96 FF         [19]  385 	sub	a, -1 (ix)
    00000072 20 4D            [12]  386 	jr	NZ, 00110$
                                    387 ;E:\Dropbox\FAUSTO\SVILUPPI\MSX\CODE\C\MSXgl\projects\soccerlgMSX2/soccerlg_s6_b3.c:24: SwSprite[i].dx = 0; SwSprite[i].dy = 0;
    00000074 DD 6E FD         [19]  388 	ld	l, -3 (ix)
    00000077 DD 66 FE         [19]  389 	ld	h, -2 (ix)
    0000007A 11 11 00         [10]  390 	ld	de, #0x0011
    0000007D 19               [11]  391 	add	hl, de
    0000007E 36 00            [10]  392 	ld	(hl), #0x00
    00000080 DD 6E FD         [19]  393 	ld	l, -3 (ix)
    00000083 DD 66 FE         [19]  394 	ld	h, -2 (ix)
    00000086 11 12 00         [10]  395 	ld	de, #0x0012
    00000089 19               [11]  396 	add	hl, de
    0000008A 36 00            [10]  397 	ld	(hl), #0x00
                                    398 ;E:\Dropbox\FAUSTO\SVILUPPI\MSX\CODE\C\MSXgl\projects\soccerlgMSX2/soccerlg_s6_b3.c:25: SwSprite[i].frame = CallFnc_U16_P3(SEG_GAMESTATE_2, GetPlayerIdleFrame, i, 0, (i < 7) ? 1 : -1);
    0000008C DD 6E FD         [19]  399 	ld	l, -3 (ix)
    0000008F DD 66 FE         [19]  400 	ld	h, -2 (ix)
    00000092 11 0F 00         [10]  401 	ld	de, #0x000f
    00000095 19               [11]  402 	add	hl, de
    00000096 DD 7E FF         [19]  403 	ld	a, -1 (ix)
    00000099 D6 07            [ 7]  404 	sub	a, #0x07
    0000009B 30 06            [12]  405 	jr	NC, 00308$
    0000009D 01 01 00         [10]  406 	ld	bc, #0x0001
    000000A0 C3rA6r00         [10]  407 	jp	00309$
    000000A3                        408 00308$:
    000000A3 01 FF FF         [10]  409 	ld	bc, #0xffff
    000000A6                        410 00309$:
    000000A6 79               [ 4]  411 	ld	a, c
    000000A7 E5               [11]  412 	push	hl
    000000A8 F5               [11]  413 	push	af
    000000A9 33               [ 6]  414 	inc	sp
    000000AA AF               [ 4]  415 	xor	a, a
    000000AB F5               [11]  416 	push	af
    000000AC 33               [ 6]  417 	inc	sp
    000000AD DD 7E FF         [19]  418 	ld	a, -1 (ix)
    000000B0 F5               [11]  419 	push	af
    000000B1 33               [ 6]  420 	inc	sp
    000000B2 11r00r00         [10]  421 	ld	de, #_GetPlayerIdleFrame
    000000B5 3E 0B            [ 7]  422 	ld	a, #0x0b
    000000B7 CDr00r00         [17]  423 	call	_CallFnc_U16_P3
    000000BA E1               [10]  424 	pop	hl
    000000BB 73               [ 7]  425 	ld	(hl), e
    000000BC 23               [ 6]  426 	inc	hl
    000000BD 72               [ 7]  427 	ld	(hl), d
                                    428 ;E:\Dropbox\FAUSTO\SVILUPPI\MSX\CODE\C\MSXgl\projects\soccerlgMSX2/soccerlg_s6_b3.c:26: return;
    000000BE C3rC8r18         [10]  429 	jp	00306$
    000000C1                        430 00110$:
                                    431 ;E:\Dropbox\FAUSTO\SVILUPPI\MSX\CODE\C\MSXgl\projects\soccerlgMSX2/soccerlg_s6_b3.c:30: if (Ball->anim == 5 && i == LastTouchPlayer) {
    000000C1 DD 7E FC         [19]  432 	ld	a, -4 (ix)
    000000C4 B7               [ 4]  433 	or	a, a
    000000C5 CAr04r02         [10]  434 	jp	Z, 00120$
    000000C8 DD 7E FF         [19]  435 	ld	a, -1 (ix)
    000000CB 21r00r00         [10]  436 	ld	hl, #_LastTouchPlayer
    000000CE 96               [ 7]  437 	sub	a, (hl)
    000000CF C2r04r02         [10]  438 	jp	NZ,00120$
                                    439 ;E:\Dropbox\FAUSTO\SVILUPPI\MSX\CODE\C\MSXgl\projects\soccerlgMSX2/soccerlg_s6_b3.c:31: SwSprite[i].dx = 0; SwSprite[i].dy = 0;
    000000D2 DD 6E FD         [19]  440 	ld	l, -3 (ix)
    000000D5 DD 66 FE         [19]  441 	ld	h, -2 (ix)
    000000D8 11 11 00         [10]  442 	ld	de, #0x0011
    000000DB 19               [11]  443 	add	hl, de
    000000DC 36 00            [10]  444 	ld	(hl), #0x00
    000000DE DD 6E FD         [19]  445 	ld	l, -3 (ix)
    000000E1 DD 66 FE         [19]  446 	ld	h, -2 (ix)
    000000E4 11 12 00         [10]  447 	ld	de, #0x0012
    000000E7 19               [11]  448 	add	hl, de
    000000E8 36 00            [10]  449 	ld	(hl), #0x00
                                    450 ;E:\Dropbox\FAUSTO\SVILUPPI\MSX\CODE\C\MSXgl\projects\soccerlgMSX2/soccerlg_s6_b3.c:33: SwSprite[i].frame = (i == 0) ? SPR_GK_PLAYER_SHOT_TO_SOUTH : SPR_GK_PLAYER_SHOT_TO_NORTH;
    000000EA DD 7E FD         [19]  451 	ld	a, -3 (ix)
    000000ED C6 0F            [ 7]  452 	add	a, #0x0f
    000000EF DD 77 F8         [19]  453 	ld	-8 (ix), a
    000000F2 DD 7E FE         [19]  454 	ld	a, -2 (ix)
    000000F5 CE 00            [ 7]  455 	adc	a, #0x00
    000000F7 DD 77 F9         [19]  456 	ld	-7 (ix), a
                                    457 ;E:\Dropbox\FAUSTO\SVILUPPI\MSX\CODE\C\MSXgl\projects\soccerlgMSX2/soccerlg_s6_b3.c:32: if (i == 0 || i == 7) {
    000000FA DD 7E FF         [19]  458 	ld	a, -1 (ix)
    000000FD B7               [ 4]  459 	or	a, a
    000000FE 28 07            [12]  460 	jr	Z, 00115$
    00000100 DD 7E FF         [19]  461 	ld	a, -1 (ix)
    00000103 D6 07            [ 7]  462 	sub	a, #0x07
    00000105 20 2B            [12]  463 	jr	NZ, 00116$
    00000107                        464 00115$:
                                    465 ;E:\Dropbox\FAUSTO\SVILUPPI\MSX\CODE\C\MSXgl\projects\soccerlgMSX2/soccerlg_s6_b3.c:33: SwSprite[i].frame = (i == 0) ? SPR_GK_PLAYER_SHOT_TO_SOUTH : SPR_GK_PLAYER_SHOT_TO_NORTH;
    00000107 DD 7E FF         [19]  466 	ld	a, -1 (ix)
    0000010A B7               [ 4]  467 	or	a, a
    0000010B 20 0B            [12]  468 	jr	NZ, 00310$
    0000010D DD 36 FD F7      [19]  469 	ld	-3 (ix), #0xf7
    00000111 DD 36 FE 00      [19]  470 	ld	-2 (ix), #0
    00000115 C3r20r01         [10]  471 	jp	00311$
    00000118                        472 00310$:
    00000118 DD 36 FD F6      [19]  473 	ld	-3 (ix), #0xf6
    0000011C DD 36 FE 00      [19]  474 	ld	-2 (ix), #0
    00000120                        475 00311$:
    00000120 DD 6E F8         [19]  476 	ld	l, -8 (ix)
    00000123 DD 66 F9         [19]  477 	ld	h, -7 (ix)
    00000126 DD 7E FD         [19]  478 	ld	a, -3 (ix)
    00000129 77               [ 7]  479 	ld	(hl), a
    0000012A 23               [ 6]  480 	inc	hl
    0000012B DD 7E FE         [19]  481 	ld	a, -2 (ix)
    0000012E 77               [ 7]  482 	ld	(hl), a
    0000012F C3rC8r18         [10]  483 	jp	00306$
    00000132                        484 00116$:
                                    485 ;E:\Dropbox\FAUSTO\SVILUPPI\MSX\CODE\C\MSXgl\projects\soccerlgMSX2/soccerlg_s6_b3.c:35: i8 look_dx = (Ball->lx > SwSprite[i].lx) ? 1 : ((Ball->lx < SwSprite[i].lx) ? -1 : 0);
    00000132 3Ar42r01         [13]  486 	ld	a, (#(_SwSprite + 322) + 0)
    00000135 DD 77 FB         [19]  487 	ld	-5 (ix), a
    00000138 DD 6E FD         [19]  488 	ld	l, -3 (ix)
    0000013B DD 66 FE         [19]  489 	ld	h, -2 (ix)
    0000013E 7E               [ 7]  490 	ld	a, (hl)
    0000013F DD 77 FC         [19]  491 	ld	-4 (ix), a
    00000142 DD 96 FB         [19]  492 	sub	a, -5 (ix)
    00000145 30 0B            [12]  493 	jr	NC, 00312$
    00000147 DD 36 FB 01      [19]  494 	ld	-5 (ix), #0x01
    0000014B DD 36 FC 00      [19]  495 	ld	-4 (ix), #0
    0000014F C3r6Cr01         [10]  496 	jp	00313$
    00000152                        497 00312$:
    00000152 DD 7E FB         [19]  498 	ld	a, -5 (ix)
    00000155 DD 96 FC         [19]  499 	sub	a, -4 (ix)
    00000158 30 0B            [12]  500 	jr	NC, 00314$
    0000015A DD 36 FB FF      [19]  501 	ld	-5 (ix), #0xff
    0000015E DD 36 FC FF      [19]  502 	ld	-4 (ix), #0xff
    00000162 C3r6Cr01         [10]  503 	jp	00315$
    00000165                        504 00314$:
    00000165 AF               [ 4]  505 	xor	a, a
    00000166 DD 77 FB         [19]  506 	ld	-5 (ix), a
    00000169 DD 77 FC         [19]  507 	ld	-4 (ix), a
    0000016C                        508 00315$:
    0000016C                        509 00313$:
    0000016C DD 7E FB         [19]  510 	ld	a, -5 (ix)
    0000016F DD 77 FA         [19]  511 	ld	-6 (ix), a
                                    512 ;E:\Dropbox\FAUSTO\SVILUPPI\MSX\CODE\C\MSXgl\projects\soccerlgMSX2/soccerlg_s6_b3.c:36: i8 look_dy = (Ball->ly > SwSprite[i].ly) ? 1 : ((Ball->ly < SwSprite[i].ly) ? -1 : 0);
    00000172 21r46r01         [10]  513 	ld	hl, #(_SwSprite + 322) + 4
    00000175 7E               [ 7]  514 	ld	a, (hl)
    00000176 DD 77 FB         [19]  515 	ld	-5 (ix), a
    00000179 23               [ 6]  516 	inc	hl
    0000017A 7E               [ 7]  517 	ld	a, (hl)
    0000017B DD 77 FC         [19]  518 	ld	-4 (ix), a
    0000017E DD 6E FD         [19]  519 	ld	l, -3 (ix)
    00000181 DD 66 FE         [19]  520 	ld	h, -2 (ix)
    00000184 11 04 00         [10]  521 	ld	de, #0x0004
    00000187 19               [11]  522 	add	hl, de
    00000188 7E               [ 7]  523 	ld	a, (hl)
    00000189 DD 77 FD         [19]  524 	ld	-3 (ix), a
    0000018C 23               [ 6]  525 	inc	hl
    0000018D 7E               [ 7]  526 	ld	a, (hl)
    0000018E DD 77 FE         [19]  527 	ld	-2 (ix), a
    00000191 DD 7E FD         [19]  528 	ld	a, -3 (ix)
    00000194 DD 96 FB         [19]  529 	sub	a, -5 (ix)
    00000197 DD 7E FE         [19]  530 	ld	a, -2 (ix)
    0000019A DD 9E FC         [19]  531 	sbc	a, -4 (ix)
    0000019D 30 0B            [12]  532 	jr	NC, 00316$
    0000019F DD 36 FD 01      [19]  533 	ld	-3 (ix), #0x01
    000001A3 DD 36 FE 00      [19]  534 	ld	-2 (ix), #0
    000001A7 C3rCAr01         [10]  535 	jp	00317$
    000001AA                        536 00316$:
    000001AA DD 7E FB         [19]  537 	ld	a, -5 (ix)
    000001AD DD 96 FD         [19]  538 	sub	a, -3 (ix)
    000001B0 DD 7E FC         [19]  539 	ld	a, -4 (ix)
    000001B3 DD 9E FE         [19]  540 	sbc	a, -2 (ix)
    000001B6 30 0B            [12]  541 	jr	NC, 00318$
    000001B8 DD 36 FD FF      [19]  542 	ld	-3 (ix), #0xff
    000001BC DD 36 FE FF      [19]  543 	ld	-2 (ix), #0xff
    000001C0 C3rCAr01         [10]  544 	jp	00319$
    000001C3                        545 00318$:
    000001C3 AF               [ 4]  546 	xor	a, a
    000001C4 DD 77 FD         [19]  547 	ld	-3 (ix), a
    000001C7 DD 77 FE         [19]  548 	ld	-2 (ix), a
    000001CA                        549 00319$:
    000001CA                        550 00317$:
    000001CA DD 46 FD         [19]  551 	ld	b, -3 (ix)
                                    552 ;E:\Dropbox\FAUSTO\SVILUPPI\MSX\CODE\C\MSXgl\projects\soccerlgMSX2/soccerlg_s6_b3.c:37: if (look_dx == 0 && look_dy == 0) look_dy = (i < 7) ? 1 : -1;
    000001CD DD 7E FA         [19]  553 	ld	a, -6 (ix)
    000001D0 B7               [ 4]  554 	or	a,a
    000001D1 20 14            [12]  555 	jr	NZ, 00113$
    000001D3 B0               [ 4]  556 	or	a,b
    000001D4 20 11            [12]  557 	jr	NZ, 00113$
    000001D6 DD 7E FF         [19]  558 	ld	a, -1 (ix)
    000001D9 D6 07            [ 7]  559 	sub	a, #0x07
    000001DB 30 06            [12]  560 	jr	NC, 00320$
    000001DD 11 01 00         [10]  561 	ld	de, #0x0001
    000001E0 C3rE6r01         [10]  562 	jp	00321$
    000001E3                        563 00320$:
    000001E3 11 FF FF         [10]  564 	ld	de, #0xffff
    000001E6                        565 00321$:
    000001E6 43               [ 4]  566 	ld	b, e
    000001E7                        567 00113$:
                                    568 ;E:\Dropbox\FAUSTO\SVILUPPI\MSX\CODE\C\MSXgl\projects\soccerlgMSX2/soccerlg_s6_b3.c:38: SwSprite[i].frame = CallFnc_U16_P3(SEG_GAMESTATE_2, GetPlayerIdleFrame, i, look_dx, look_dy);
    000001E7 C5               [11]  569 	push	bc
    000001E8 33               [ 6]  570 	inc	sp
    000001E9 DD 66 FA         [19]  571 	ld	h, -6 (ix)
    000001EC DD 6E FF         [19]  572 	ld	l, -1 (ix)
    000001EF E5               [11]  573 	push	hl
    000001F0 11r00r00         [10]  574 	ld	de, #_GetPlayerIdleFrame
    000001F3 3E 0B            [ 7]  575 	ld	a, #0x0b
    000001F5 CDr00r00         [17]  576 	call	_CallFnc_U16_P3
    000001F8 DD 6E F8         [19]  577 	ld	l, -8 (ix)
    000001FB DD 66 F9         [19]  578 	ld	h, -7 (ix)
    000001FE 73               [ 7]  579 	ld	(hl), e
    000001FF 23               [ 6]  580 	inc	hl
    00000200 72               [ 7]  581 	ld	(hl), d
                                    582 ;E:\Dropbox\FAUSTO\SVILUPPI\MSX\CODE\C\MSXgl\projects\soccerlgMSX2/soccerlg_s6_b3.c:40: return;
    00000201 C3rC8r18         [10]  583 	jp	00306$
    00000204                        584 00120$:
                                    585 ;E:\Dropbox\FAUSTO\SVILUPPI\MSX\CODE\C\MSXgl\projects\soccerlgMSX2/soccerlg_s6_b3.c:43: struct ObjectInfo* Player = &SwSprite[i];
    00000204 DD 7E FD         [19]  586 	ld	a, -3 (ix)
    00000207 DD 77 DB         [19]  587 	ld	-37 (ix), a
    0000020A DD 7E FE         [19]  588 	ld	a, -2 (ix)
    0000020D DD 77 DC         [19]  589 	ld	-36 (ix), a
                                    590 ;E:\Dropbox\FAUSTO\SVILUPPI\MSX\CODE\C\MSXgl\projects\soccerlgMSX2/soccerlg_s6_b3.c:44: u8 team = (i < 7) ? TEAM_1 : TEAM_2;
    00000210 DD 7E FF         [19]  591 	ld	a, -1 (ix)
    00000213 D6 07            [ 7]  592 	sub	a, #0x07
    00000215 30 0A            [12]  593 	jr	NC, 00322$
    00000217 AF               [ 4]  594 	xor	a, a
    00000218 DD 77 FD         [19]  595 	ld	-3 (ix), a
    0000021B DD 77 FE         [19]  596 	ld	-2 (ix), a
    0000021E C3r29r02         [10]  597 	jp	00323$
    00000221                        598 00322$:
    00000221 DD 36 FD 01      [19]  599 	ld	-3 (ix), #0x01
    00000225 DD 36 FE 00      [19]  600 	ld	-2 (ix), #0
    00000229                        601 00323$:
    00000229 DD 7E FD         [19]  602 	ld	a, -3 (ix)
    0000022C DD 77 DD         [19]  603 	ld	-35 (ix), a
                                    604 ;E:\Dropbox\FAUSTO\SVILUPPI\MSX\CODE\C\MSXgl\projects\soccerlgMSX2/soccerlg_s6_b3.c:45: bool is_gk = (i == 0 || i == 7);
    0000022F DD 7E FF         [19]  605 	ld	a, -1 (ix)
    00000232 B7               [ 4]  606 	or	a, a
    00000233 28 09            [12]  607 	jr	Z, 00325$
    00000235 DD 7E FF         [19]  608 	ld	a, -1 (ix)
    00000238 D6 07            [ 7]  609 	sub	a, #0x07
    0000023A 0E 00            [ 7]  610 	ld	c, #0x00
    0000023C 20 02            [12]  611 	jr	NZ, 00326$
    0000023E                        612 00325$:
    0000023E 0E 01            [ 7]  613 	ld	c, #0x01
    00000240                        614 00326$:
                                    615 ;E:\Dropbox\FAUSTO\SVILUPPI\MSX\CODE\C\MSXgl\projects\soccerlgMSX2/soccerlg_s6_b3.c:48: if (Player->count > 0 && !is_gk) {
    00000240 DD 7E DB         [19]  616 	ld	a, -37 (ix)
    00000243 C6 15            [ 7]  617 	add	a, #0x15
    00000245 DD 77 DE         [19]  618 	ld	-34 (ix), a
    00000248 DD 7E DC         [19]  619 	ld	a, -36 (ix)
    0000024B CE 00            [ 7]  620 	adc	a, #0x00
    0000024D DD 77 DF         [19]  621 	ld	-33 (ix), a
    00000250 DD 6E DE         [19]  622 	ld	l, -34 (ix)
    00000253 DD 66 DF         [19]  623 	ld	h, -33 (ix)
    00000256 7E               [ 7]  624 	ld	a, (hl)
    00000257 DD 77 E0         [19]  625 	ld	-32 (ix), a
    0000025A 23               [ 6]  626 	inc	hl
    0000025B 7E               [ 7]  627 	ld	a, (hl)
    0000025C DD 77 E1         [19]  628 	ld	-31 (ix), a
    0000025F DD B6 E0         [19]  629 	or	a, -32 (ix)
    00000262 CAr25r04         [10]  630 	jp	Z, 00138$
    00000265 79               [ 4]  631 	ld	a, c
    00000266 B7               [ 4]  632 	or	a, a
    00000267 C2r25r04         [10]  633 	jp	NZ, 00138$
                                    634 ;E:\Dropbox\FAUSTO\SVILUPPI\MSX\CODE\C\MSXgl\projects\soccerlgMSX2/soccerlg_s6_b3.c:49: Player->count--;
    0000026A DD 4E E0         [19]  635 	ld	c, -32 (ix)
    0000026D DD 46 E1         [19]  636 	ld	b, -31 (ix)
    00000270 0B               [ 6]  637 	dec	bc
    00000271 DD 6E DE         [19]  638 	ld	l, -34 (ix)
    00000274 DD 66 DF         [19]  639 	ld	h, -33 (ix)
    00000277 71               [ 7]  640 	ld	(hl), c
    00000278 23               [ 6]  641 	inc	hl
    00000279 70               [ 7]  642 	ld	(hl), b
                                    643 ;E:\Dropbox\FAUSTO\SVILUPPI\MSX\CODE\C\MSXgl\projects\soccerlgMSX2/soccerlg_s6_b3.c:50: Player->lx += Player->dx;
    0000027A DD 6E DB         [19]  644 	ld	l, -37 (ix)
    0000027D DD 66 DC         [19]  645 	ld	h, -36 (ix)
    00000280 5E               [ 7]  646 	ld	e, (hl)
    00000281 DD 7E DB         [19]  647 	ld	a, -37 (ix)
    00000284 C6 11            [ 7]  648 	add	a, #0x11
    00000286 4F               [ 4]  649 	ld	c, a
    00000287 DD 7E DC         [19]  650 	ld	a, -36 (ix)
    0000028A CE 00            [ 7]  651 	adc	a, #0x00
    0000028C 47               [ 4]  652 	ld	b, a
    0000028D 0A               [ 7]  653 	ld	a, (bc)
    0000028E 83               [ 4]  654 	add	a, e
    0000028F DD 6E DB         [19]  655 	ld	l, -37 (ix)
    00000292 DD 66 DC         [19]  656 	ld	h, -36 (ix)
    00000295 77               [ 7]  657 	ld	(hl), a
                                    658 ;E:\Dropbox\FAUSTO\SVILUPPI\MSX\CODE\C\MSXgl\projects\soccerlgMSX2/soccerlg_s6_b3.c:51: Player->ly += Player->dy;
    00000296 DD 7E DB         [19]  659 	ld	a, -37 (ix)
    00000299 C6 04            [ 7]  660 	add	a, #0x04
    0000029B DD 77 FD         [19]  661 	ld	-3 (ix), a
    0000029E DD 7E DC         [19]  662 	ld	a, -36 (ix)
    000002A1 CE 00            [ 7]  663 	adc	a, #0x00
    000002A3 DD 77 FE         [19]  664 	ld	-2 (ix), a
    000002A6 DD 6E FD         [19]  665 	ld	l, -3 (ix)
    000002A9 DD 66 FE         [19]  666 	ld	h, -2 (ix)
    000002AC 5E               [ 7]  667 	ld	e, (hl)
    000002AD 23               [ 6]  668 	inc	hl
    000002AE 56               [ 7]  669 	ld	d, (hl)
    000002AF DD 6E DB         [19]  670 	ld	l, -37 (ix)
                                    671 ;	spillPairReg hl
                                    672 ;	spillPairReg hl
    000002B2 DD 66 DC         [19]  673 	ld	h, -36 (ix)
                                    674 ;	spillPairReg hl
                                    675 ;	spillPairReg hl
    000002B5 C5               [11]  676 	push	bc
    000002B6 01 12 00         [10]  677 	ld	bc, #0x0012
    000002B9 09               [11]  678 	add	hl, bc
    000002BA C1               [10]  679 	pop	bc
    000002BB 7E               [ 7]  680 	ld	a, (hl)
    000002BC 6F               [ 4]  681 	ld	l, a
                                    682 ;	spillPairReg hl
                                    683 ;	spillPairReg hl
    000002BD 07               [ 4]  684 	rlca
    000002BE 9F               [ 4]  685 	sbc	a, a
    000002BF 67               [ 4]  686 	ld	h, a
                                    687 ;	spillPairReg hl
                                    688 ;	spillPairReg hl
    000002C0 19               [11]  689 	add	hl, de
    000002C1 EB               [ 4]  690 	ex	de, hl
    000002C2 DD 6E FD         [19]  691 	ld	l, -3 (ix)
    000002C5 DD 66 FE         [19]  692 	ld	h, -2 (ix)
    000002C8 73               [ 7]  693 	ld	(hl), e
    000002C9 23               [ 6]  694 	inc	hl
    000002CA 72               [ 7]  695 	ld	(hl), d
                                    696 ;E:\Dropbox\FAUSTO\SVILUPPI\MSX\CODE\C\MSXgl\projects\soccerlgMSX2/soccerlg_s6_b3.c:53: if (Player->lx < 16) Player->lx = 16;
    000002CB DD 6E DB         [19]  697 	ld	l, -37 (ix)
    000002CE DD 66 DC         [19]  698 	ld	h, -36 (ix)
    000002D1 7E               [ 7]  699 	ld	a, (hl)
    000002D2 D6 10            [ 7]  700 	sub	a, #0x10
    000002D4 30 08            [12]  701 	jr	NC, 00123$
    000002D6 DD 6E DB         [19]  702 	ld	l, -37 (ix)
    000002D9 DD 66 DC         [19]  703 	ld	h, -36 (ix)
    000002DC 36 10            [10]  704 	ld	(hl), #0x10
    000002DE                        705 00123$:
                                    706 ;E:\Dropbox\FAUSTO\SVILUPPI\MSX\CODE\C\MSXgl\projects\soccerlgMSX2/soccerlg_s6_b3.c:54: if (Player->lx > 224) Player->lx = 224;
    000002DE DD 6E DB         [19]  707 	ld	l, -37 (ix)
    000002E1 DD 66 DC         [19]  708 	ld	h, -36 (ix)
    000002E4 5E               [ 7]  709 	ld	e, (hl)
    000002E5 3E E0            [ 7]  710 	ld	a, #0xe0
    000002E7 93               [ 4]  711 	sub	a, e
    000002E8 30 08            [12]  712 	jr	NC, 00125$
    000002EA DD 6E DB         [19]  713 	ld	l, -37 (ix)
    000002ED DD 66 DC         [19]  714 	ld	h, -36 (ix)
    000002F0 36 E0            [10]  715 	ld	(hl), #0xe0
    000002F2                        716 00125$:
                                    717 ;E:\Dropbox\FAUSTO\SVILUPPI\MSX\CODE\C\MSXgl\projects\soccerlgMSX2/soccerlg_s6_b3.c:55: if (Player->ly < 24) Player->ly = 24;
    000002F2 DD 6E FD         [19]  718 	ld	l, -3 (ix)
    000002F5 DD 66 FE         [19]  719 	ld	h, -2 (ix)
    000002F8 5E               [ 7]  720 	ld	e, (hl)
    000002F9 23               [ 6]  721 	inc	hl
    000002FA 56               [ 7]  722 	ld	d, (hl)
    000002FB 7B               [ 4]  723 	ld	a, e
    000002FC D6 18            [ 7]  724 	sub	a, #0x18
    000002FE 7A               [ 4]  725 	ld	a, d
    000002FF DE 00            [ 7]  726 	sbc	a, #0x00
    00000301 30 0B            [12]  727 	jr	NC, 00127$
    00000303 DD 6E FD         [19]  728 	ld	l, -3 (ix)
    00000306 DD 66 FE         [19]  729 	ld	h, -2 (ix)
    00000309 36 18            [10]  730 	ld	(hl), #0x18
    0000030B 23               [ 6]  731 	inc	hl
    0000030C 36 00            [10]  732 	ld	(hl), #0x00
    0000030E                        733 00127$:
                                    734 ;E:\Dropbox\FAUSTO\SVILUPPI\MSX\CODE\C\MSXgl\projects\soccerlgMSX2/soccerlg_s6_b3.c:56: if (Player->ly > 478) Player->ly = 478;
    0000030E DD 6E FD         [19]  735 	ld	l, -3 (ix)
    00000311 DD 66 FE         [19]  736 	ld	h, -2 (ix)
    00000314 5E               [ 7]  737 	ld	e, (hl)
    00000315 23               [ 6]  738 	inc	hl
    00000316 56               [ 7]  739 	ld	d, (hl)
    00000317 3E DE            [ 7]  740 	ld	a, #0xde
    00000319 BB               [ 4]  741 	cp	a, e
    0000031A 3E 01            [ 7]  742 	ld	a, #0x01
    0000031C 9A               [ 4]  743 	sbc	a, d
    0000031D 30 0B            [12]  744 	jr	NC, 00129$
    0000031F DD 6E FD         [19]  745 	ld	l, -3 (ix)
    00000322 DD 66 FE         [19]  746 	ld	h, -2 (ix)
    00000325 36 DE            [10]  747 	ld	(hl), #0xde
    00000327 23               [ 6]  748 	inc	hl
    00000328 36 01            [10]  749 	ld	(hl), #0x01
    0000032A                        750 00129$:
                                    751 ;E:\Dropbox\FAUSTO\SVILUPPI\MSX\CODE\C\MSXgl\projects\soccerlgMSX2/soccerlg_s6_b3.c:58: Player->frame = (Player->dx > 0) ? 
    0000032A DD 7E DB         [19]  752 	ld	a, -37 (ix)
    0000032D C6 0F            [ 7]  753 	add	a, #0x0f
    0000032F 5F               [ 4]  754 	ld	e, a
    00000330 DD 7E DC         [19]  755 	ld	a, -36 (ix)
    00000333 CE 00            [ 7]  756 	adc	a, #0x00
    00000335 57               [ 4]  757 	ld	d, a
    00000336 0A               [ 7]  758 	ld	a, (bc)
    00000337 4F               [ 4]  759 	ld	c, a
    00000338 AF               [ 4]  760 	xor	a, a
    00000339 91               [ 4]  761 	sub	a, c
    0000033A E2r3Fr03         [10]  762 	jp	PO, 01332$
    0000033D EE 80            [ 7]  763 	xor	a, #0x80
    0000033F                        764 01332$:
    0000033F F2r54r03         [10]  765 	jp	P, 00327$
                                    766 ;E:\Dropbox\FAUSTO\SVILUPPI\MSX\CODE\C\MSXgl\projects\soccerlgMSX2/soccerlg_s6_b3.c:59: ((team == TEAM_1) ? SPR_T1_PLAYER_TACKLE_FROM_WEST : SPR_T2_PLAYER_TACKLE_FROM_WEST) :
    00000342 DD 7E DD         [19]  767 	ld	a, -35 (ix)
    00000345 B7               [ 4]  768 	or	a, a
    00000346 20 06            [12]  769 	jr	NZ, 00329$
    00000348 01 1E 00         [10]  770 	ld	bc, #0x001e
    0000034B C3r63r03         [10]  771 	jp	00328$
    0000034E                        772 00329$:
    0000034E 01 8E 00         [10]  773 	ld	bc, #0x008e
    00000351 C3r63r03         [10]  774 	jp	00328$
    00000354                        775 00327$:
                                    776 ;E:\Dropbox\FAUSTO\SVILUPPI\MSX\CODE\C\MSXgl\projects\soccerlgMSX2/soccerlg_s6_b3.c:60: ((team == TEAM_1) ? SPR_T1_PLAYER_TACKLE_FROM_EAST : SPR_T2_PLAYER_TACKLE_FROM_EAST);
    00000354 DD 7E DD         [19]  777 	ld	a, -35 (ix)
    00000357 B7               [ 4]  778 	or	a, a
    00000358 20 06            [12]  779 	jr	NZ, 00331$
    0000035A 01 1F 00         [10]  780 	ld	bc, #0x001f
    0000035D C3r63r03         [10]  781 	jp	00332$
    00000360                        782 00331$:
    00000360 01 8F 00         [10]  783 	ld	bc, #0x008f
    00000363                        784 00332$:
    00000363                        785 00328$:
    00000363 79               [ 4]  786 	ld	a, c
    00000364 12               [ 7]  787 	ld	(de), a
    00000365 13               [ 6]  788 	inc	de
    00000366 78               [ 4]  789 	ld	a, b
    00000367 12               [ 7]  790 	ld	(de), a
                                    791 ;E:\Dropbox\FAUSTO\SVILUPPI\MSX\CODE\C\MSXgl\projects\soccerlgMSX2/soccerlg_s6_b3.c:50: Player->lx += Player->dx;
    00000368 DD 6E DB         [19]  792 	ld	l, -37 (ix)
    0000036B DD 66 DC         [19]  793 	ld	h, -36 (ix)
    0000036E 5E               [ 7]  794 	ld	e, (hl)
                                    795 ;E:\Dropbox\FAUSTO\SVILUPPI\MSX\CODE\C\MSXgl\projects\soccerlgMSX2/soccerlg_s6_b3.c:63: u16 b_dist_x = (Player->lx > Ball->lx) ? (Player->lx - Ball->lx) : (Ball->lx - Player->lx);
    0000036F 21r42r01         [10]  796 	ld	hl, #(_SwSprite + 322)
    00000372 56               [ 7]  797 	ld	d, (hl)
    00000373 4A               [ 4]  798 	ld	c, d
    00000374 06 00            [ 7]  799 	ld	b, #0x00
    00000376 DD 73 FB         [19]  800 	ld	-5 (ix), e
    00000379 DD 36 FC 00      [19]  801 	ld	-4 (ix), #0x00
    0000037D 7A               [ 4]  802 	ld	a, d
    0000037E 93               [ 4]  803 	sub	a, e
    0000037F 30 0C            [12]  804 	jr	NC, 00333$
    00000381 DD 7E FB         [19]  805 	ld	a, -5 (ix)
    00000384 91               [ 4]  806 	sub	a, c
    00000385 4F               [ 4]  807 	ld	c, a
    00000386 DD 7E FC         [19]  808 	ld	a, -4 (ix)
    00000389 98               [ 4]  809 	sbc	a, b
    0000038A C3r96r03         [10]  810 	jp	00334$
    0000038D                        811 00333$:
    0000038D 79               [ 4]  812 	ld	a, c
    0000038E DD 96 FB         [19]  813 	sub	a, -5 (ix)
    00000391 4F               [ 4]  814 	ld	c, a
    00000392 78               [ 4]  815 	ld	a, b
    00000393 DD 9E FC         [19]  816 	sbc	a, -4 (ix)
    00000396                        817 00334$:
    00000396 DD 71 FB         [19]  818 	ld	-5 (ix), c
    00000399 DD 77 FC         [19]  819 	ld	-4 (ix), a
                                    820 ;E:\Dropbox\FAUSTO\SVILUPPI\MSX\CODE\C\MSXgl\projects\soccerlgMSX2/soccerlg_s6_b3.c:51: Player->ly += Player->dy;
    0000039C DD 6E FD         [19]  821 	ld	l, -3 (ix)
    0000039F DD 66 FE         [19]  822 	ld	h, -2 (ix)
    000003A2 4E               [ 7]  823 	ld	c, (hl)
    000003A3 23               [ 6]  824 	inc	hl
    000003A4 46               [ 7]  825 	ld	b, (hl)
                                    826 ;E:\Dropbox\FAUSTO\SVILUPPI\MSX\CODE\C\MSXgl\projects\soccerlgMSX2/soccerlg_s6_b3.c:64: u16 b_dist_y = (Player->ly > Ball->ly) ? (Player->ly - Ball->ly) : (Ball->ly - Player->ly);
    000003A5 ED 5Br46r01      [20]  827 	ld	de, (#(_SwSprite + 322) + 4)
    000003A9 7B               [ 4]  828 	ld	a, e
    000003AA 91               [ 4]  829 	sub	a, c
    000003AB 7A               [ 4]  830 	ld	a, d
    000003AC 98               [ 4]  831 	sbc	a, b
    000003AD 30 09            [12]  832 	jr	NC, 00335$
    000003AF 79               [ 4]  833 	ld	a, c
    000003B0 93               [ 4]  834 	sub	a, e
    000003B1 4F               [ 4]  835 	ld	c, a
    000003B2 78               [ 4]  836 	ld	a, b
    000003B3 9A               [ 4]  837 	sbc	a, d
    000003B4 47               [ 4]  838 	ld	b, a
    000003B5 C3rBEr03         [10]  839 	jp	00336$
    000003B8                        840 00335$:
    000003B8 7B               [ 4]  841 	ld	a, e
    000003B9 91               [ 4]  842 	sub	a, c
    000003BA 4F               [ 4]  843 	ld	c, a
    000003BB 7A               [ 4]  844 	ld	a, d
    000003BC 98               [ 4]  845 	sbc	a, b
    000003BD 47               [ 4]  846 	ld	b, a
    000003BE                        847 00336$:
    000003BE DD 71 FD         [19]  848 	ld	-3 (ix), c
    000003C1 DD 70 FE         [19]  849 	ld	-2 (ix), b
                                    850 ;E:\Dropbox\FAUSTO\SVILUPPI\MSX\CODE\C\MSXgl\projects\soccerlgMSX2/soccerlg_s6_b3.c:65: if (b_dist_x <= 12 && b_dist_y <= 12 && Ball->anim < 5 && RestartType == 0) {
    000003C4 DD 4E FB         [19]  851 	ld	c, -5 (ix)
    000003C7 DD 46 FC         [19]  852 	ld	b, -4 (ix)
    000003CA 3E 0C            [ 7]  853 	ld	a, #0x0c
    000003CC B9               [ 4]  854 	cp	a, c
    000003CD 3E 00            [ 7]  855 	ld	a, #0x00
    000003CF 98               [ 4]  856 	sbc	a, b
    000003D0 DArC8r18         [10]  857 	jp	C,00306$
    000003D3 DD 4E FD         [19]  858 	ld	c, -3 (ix)
    000003D6 DD 46 FE         [19]  859 	ld	b, -2 (ix)
    000003D9 3E 0C            [ 7]  860 	ld	a, #0x0c
    000003DB B9               [ 4]  861 	cp	a, c
    000003DC 3E 00            [ 7]  862 	ld	a, #0x00
    000003DE 98               [ 4]  863 	sbc	a, b
    000003DF DArC8r18         [10]  864 	jp	C,00306$
    000003E2 2Ar55r01         [16]  865 	ld	hl, (#(_SwSprite + 341) + 0)
    000003E5 11 05 00         [10]  866 	ld	de, #0x0005
    000003E8 BF               [ 4]  867 	cp	a, a
    000003E9 ED 52            [15]  868 	sbc	hl, de
    000003EB D2rC8r18         [10]  869 	jp	NC,00306$
    000003EE 3Ar00r00         [13]  870 	ld	a, (_RestartType+0)
    000003F1 B7               [ 4]  871 	or	a, a
    000003F2 C2rC8r18         [10]  872 	jp	NZ,00306$
                                    873 ;E:\Dropbox\FAUSTO\SVILUPPI\MSX\CODE\C\MSXgl\projects\soccerlgMSX2/soccerlg_s6_b3.c:66: LastTouchTeam = team;
    000003F5 DD 7E DD         [19]  874 	ld	a, -35 (ix)
    000003F8 32r00r00         [13]  875 	ld	(_LastTouchTeam+0), a
                                    876 ;E:\Dropbox\FAUSTO\SVILUPPI\MSX\CODE\C\MSXgl\projects\soccerlgMSX2/soccerlg_s6_b3.c:67: LastTouchPlayer = i;
    000003FB DD 7E FF         [19]  877 	ld	a, -1 (ix)
    000003FE 32r00r00         [13]  878 	ld	(_LastTouchPlayer+0), a
                                    879 ;E:\Dropbox\FAUSTO\SVILUPPI\MSX\CODE\C\MSXgl\projects\soccerlgMSX2/soccerlg_s6_b3.c:68: if (Ball->anim > 3) Ball->anim = 3;
    00000401 2Ar55r01         [16]  880 	ld	hl, (#(_SwSprite + 341) + 0)
    00000404 3E 03            [ 7]  881 	ld	a, #0x03
    00000406 BD               [ 4]  882 	cp	a, l
    00000407 3E 00            [ 7]  883 	ld	a, #0x00
    00000409 9C               [ 4]  884 	sbc	a, h
    0000040A 30 06            [12]  885 	jr	NC, 00131$
    0000040C 21 03 00         [10]  886 	ld	hl, #0x0003
    0000040F 22r55r01         [16]  887 	ld	((_SwSprite + 341)), hl
    00000412                        888 00131$:
                                    889 ;E:\Dropbox\FAUSTO\SVILUPPI\MSX\CODE\C\MSXgl\projects\soccerlgMSX2/soccerlg_s6_b3.c:69: Ball->frame = SPR_BALL_SIZE_1;
    00000412 21 60 00         [10]  890 	ld	hl, #0x0060
    00000415 22r51r01         [16]  891 	ld	((_SwSprite + 337)), hl
                                    892 ;E:\Dropbox\FAUSTO\SVILUPPI\MSX\CODE\C\MSXgl\projects\soccerlgMSX2/soccerlg_s6_b3.c:70: Player->count = 0; // Ferma la scivolata appena ruba palla
    00000418 DD 6E DE         [19]  893 	ld	l, -34 (ix)
    0000041B DD 66 DF         [19]  894 	ld	h, -33 (ix)
    0000041E AF               [ 4]  895 	xor	a, a
    0000041F 77               [ 7]  896 	ld	(hl), a
    00000420 23               [ 6]  897 	inc	hl
    00000421 77               [ 7]  898 	ld	(hl), a
                                    899 ;E:\Dropbox\FAUSTO\SVILUPPI\MSX\CODE\C\MSXgl\projects\soccerlgMSX2/soccerlg_s6_b3.c:72: return; // Salta il resto della logica finché è in scivolata
    00000422 C3rC8r18         [10]  900 	jp	00306$
    00000425                        901 00138$:
                                    902 ;E:\Dropbox\FAUSTO\SVILUPPI\MSX\CODE\C\MSXgl\projects\soccerlgMSX2/soccerlg_s6_b3.c:80: if (is_gk) {
    00000425 79               [ 4]  903 	ld	a, c
    00000426 B7               [ 4]  904 	or	a, a
    00000427 CArF2r05         [10]  905 	jp	Z, 00157$
                                    906 ;E:\Dropbox\FAUSTO\SVILUPPI\MSX\CODE\C\MSXgl\projects\soccerlgMSX2/soccerlg_s6_b3.c:81: if (Ball->lx > Player->lx + 4) target_x = Player->lx + 2;
    0000042A 21r42r01         [10]  907 	ld	hl, #(_SwSprite + 322)
    0000042D 4E               [ 7]  908 	ld	c, (hl)
    0000042E DD 6E DB         [19]  909 	ld	l, -37 (ix)
    00000431 DD 66 DC         [19]  910 	ld	h, -36 (ix)
    00000434 46               [ 7]  911 	ld	b, (hl)
    00000435 58               [ 4]  912 	ld	e, b
    00000436 16 00            [ 7]  913 	ld	d, #0x00
    00000438 21 04 00         [10]  914 	ld	hl, #0x0004
    0000043B 19               [11]  915 	add	hl, de
    0000043C DD 71 FD         [19]  916 	ld	-3 (ix), c
    0000043F DD 36 FE 00      [19]  917 	ld	-2 (ix), #0x00
    00000443 7D               [ 4]  918 	ld	a, l
    00000444 DD 96 FD         [19]  919 	sub	a, -3 (ix)
    00000447 7C               [ 4]  920 	ld	a, h
    00000448 DD 9E FE         [19]  921 	sbc	a, -2 (ix)
    0000044B E2r50r04         [10]  922 	jp	PO, 01333$
    0000044E EE 80            [ 7]  923 	xor	a, #0x80
    00000450                        924 01333$:
    00000450 F2r58r04         [10]  925 	jp	P, 00144$
    00000453 13               [ 6]  926 	inc	de
    00000454 13               [ 6]  927 	inc	de
    00000455 C3r78r04         [10]  928 	jp	00145$
    00000458                        929 00144$:
                                    930 ;E:\Dropbox\FAUSTO\SVILUPPI\MSX\CODE\C\MSXgl\projects\soccerlgMSX2/soccerlg_s6_b3.c:82: else if (Ball->lx < Player->lx - 4) target_x = Player->lx - 2;
    00000458 7B               [ 4]  931 	ld	a, e
    00000459 C6 FC            [ 7]  932 	add	a, #0xfc
    0000045B 6F               [ 4]  933 	ld	l, a
                                    934 ;	spillPairReg hl
                                    935 ;	spillPairReg hl
    0000045C 7A               [ 4]  936 	ld	a, d
    0000045D CE FF            [ 7]  937 	adc	a, #0xff
    0000045F 67               [ 4]  938 	ld	h, a
                                    939 ;	spillPairReg hl
                                    940 ;	spillPairReg hl
    00000460 DD 7E FD         [19]  941 	ld	a, -3 (ix)
    00000463 95               [ 4]  942 	sub	a, l
    00000464 DD 7E FE         [19]  943 	ld	a, -2 (ix)
    00000467 9C               [ 4]  944 	sbc	a, h
    00000468 E2r6Dr04         [10]  945 	jp	PO, 01334$
    0000046B EE 80            [ 7]  946 	xor	a, #0x80
    0000046D                        947 01334$:
    0000046D F2r75r04         [10]  948 	jp	P, 00141$
    00000470 1B               [ 6]  949 	dec	de
    00000471 1B               [ 6]  950 	dec	de
    00000472 C3r78r04         [10]  951 	jp	00145$
    00000475                        952 00141$:
                                    953 ;E:\Dropbox\FAUSTO\SVILUPPI\MSX\CODE\C\MSXgl\projects\soccerlgMSX2/soccerlg_s6_b3.c:83: else target_x = Ball->lx;
    00000475 59               [ 4]  954 	ld	e, c
    00000476 16 00            [ 7]  955 	ld	d, #0x00
    00000478                        956 00145$:
                                    957 ;E:\Dropbox\FAUSTO\SVILUPPI\MSX\CODE\C\MSXgl\projects\soccerlgMSX2/soccerlg_s6_b3.c:86: if (target_x < 88) target_x = 88;
                                    958 ;	spillPairReg hl
                                    959 ;	spillPairReg hl
    00000478 7B               [ 4]  960 	ld	a, e
    00000479 6A               [ 4]  961 	ld	l, d
    0000047A D6 58            [ 7]  962 	sub	a, #0x58
    0000047C 7D               [ 4]  963 	ld	a, l
    0000047D DE 00            [ 7]  964 	sbc	a, #0x00
    0000047F 30 03            [12]  965 	jr	NC, 00147$
    00000481 11 58 00         [10]  966 	ld	de, #0x0058
    00000484                        967 00147$:
                                    968 ;E:\Dropbox\FAUSTO\SVILUPPI\MSX\CODE\C\MSXgl\projects\soccerlgMSX2/soccerlg_s6_b3.c:87: if (target_x > 150) target_x = 150;
    00000484 4B               [ 4]  969 	ld	c, e
    00000485 6A               [ 4]  970 	ld	l, d
                                    971 ;	spillPairReg hl
                                    972 ;	spillPairReg hl
    00000486 3E 96            [ 7]  973 	ld	a, #0x96
    00000488 B9               [ 4]  974 	cp	a, c
    00000489 3E 00            [ 7]  975 	ld	a, #0x00
    0000048B 9D               [ 4]  976 	sbc	a, l
    0000048C 30 03            [12]  977 	jr	NC, 00149$
    0000048E 11 96 00         [10]  978 	ld	de, #0x0096
    00000491                        979 00149$:
                                    980 ;E:\Dropbox\FAUSTO\SVILUPPI\MSX\CODE\C\MSXgl\projects\soccerlgMSX2/soccerlg_s6_b3.c:89: target_y = (team == TEAM_1) ? 32 : 452;
    00000491 DD 7E DD         [19]  981 	ld	a, -35 (ix)
    00000494 B7               [ 4]  982 	or	a, a
    00000495 20 06            [12]  983 	jr	NZ, 00337$
    00000497 21 20 00         [10]  984 	ld	hl, #0x0020
    0000049A C3rA0r04         [10]  985 	jp	00338$
    0000049D                        986 00337$:
    0000049D 21 C4 01         [10]  987 	ld	hl, #0x01c4
    000004A0                        988 00338$:
    000004A0 DD 75 FB         [19]  989 	ld	-5 (ix), l
    000004A3 DD 74 FC         [19]  990 	ld	-4 (ix), h
                                    991 ;E:\Dropbox\FAUSTO\SVILUPPI\MSX\CODE\C\MSXgl\projects\soccerlgMSX2/soccerlg_s6_b3.c:91: Player->dx = (target_x > Player->lx) ? 1 : ((target_x < Player->lx) ? -1 : 0);
    000004A6 DD 7E DB         [19]  992 	ld	a, -37 (ix)
    000004A9 C6 11            [ 7]  993 	add	a, #0x11
    000004AB DD 77 FD         [19]  994 	ld	-3 (ix), a
    000004AE DD 7E DC         [19]  995 	ld	a, -36 (ix)
    000004B1 CE 00            [ 7]  996 	adc	a, #0x00
    000004B3 DD 77 FE         [19]  997 	ld	-2 (ix), a
    000004B6 0E 00            [ 7]  998 	ld	c, #0x00
    000004B8 78               [ 4]  999 	ld	a, b
    000004B9 93               [ 4] 1000 	sub	a, e
    000004BA 79               [ 4] 1001 	ld	a, c
    000004BB 9A               [ 4] 1002 	sbc	a, d
    000004BC 30 06            [12] 1003 	jr	NC, 00339$
    000004BE 01 01 00         [10] 1004 	ld	bc, #0x0001
    000004C1 C3rD3r04         [10] 1005 	jp	00340$
    000004C4                       1006 00339$:
    000004C4 7B               [ 4] 1007 	ld	a, e
    000004C5 90               [ 4] 1008 	sub	a, b
    000004C6 7A               [ 4] 1009 	ld	a, d
    000004C7 99               [ 4] 1010 	sbc	a, c
    000004C8 30 06            [12] 1011 	jr	NC, 00341$
    000004CA 01 FF FF         [10] 1012 	ld	bc, #0xffff
    000004CD C3rD3r04         [10] 1013 	jp	00342$
    000004D0                       1014 00341$:
    000004D0 01 00 00         [10] 1015 	ld	bc, #0x0000
    000004D3                       1016 00342$:
    000004D3                       1017 00340$:
    000004D3 DD 71 FA         [19] 1018 	ld	-6 (ix), c
    000004D6 DD 6E FD         [19] 1019 	ld	l, -3 (ix)
    000004D9 DD 66 FE         [19] 1020 	ld	h, -2 (ix)
    000004DC DD 7E FA         [19] 1021 	ld	a, -6 (ix)
    000004DF 77               [ 7] 1022 	ld	(hl), a
                                   1023 ;E:\Dropbox\FAUSTO\SVILUPPI\MSX\CODE\C\MSXgl\projects\soccerlgMSX2/soccerlg_s6_b3.c:92: Player->dy = 0;
    000004E0 DD 6E DB         [19] 1024 	ld	l, -37 (ix)
    000004E3 DD 66 DC         [19] 1025 	ld	h, -36 (ix)
    000004E6 11 12 00         [10] 1026 	ld	de, #0x0012
    000004E9 19               [11] 1027 	add	hl, de
    000004EA 36 00            [10] 1028 	ld	(hl), #0x00
                                   1029 ;E:\Dropbox\FAUSTO\SVILUPPI\MSX\CODE\C\MSXgl\projects\soccerlgMSX2/soccerlg_s6_b3.c:94: Player->lx += Player->dx;
    000004EC DD 6E DB         [19] 1030 	ld	l, -37 (ix)
    000004EF DD 66 DC         [19] 1031 	ld	h, -36 (ix)
    000004F2 7E               [ 7] 1032 	ld	a, (hl)
    000004F3 DD 86 FA         [19] 1033 	add	a, -6 (ix)
    000004F6 DD 6E DB         [19] 1034 	ld	l, -37 (ix)
    000004F9 DD 66 DC         [19] 1035 	ld	h, -36 (ix)
    000004FC 77               [ 7] 1036 	ld	(hl), a
                                   1037 ;E:\Dropbox\FAUSTO\SVILUPPI\MSX\CODE\C\MSXgl\projects\soccerlgMSX2/soccerlg_s6_b3.c:95: Player->ly = target_y; // Forza la Y corretta
    000004FD DD 6E DB         [19] 1038 	ld	l, -37 (ix)
    00000500 DD 66 DC         [19] 1039 	ld	h, -36 (ix)
    00000503 11 04 00         [10] 1040 	ld	de, #0x0004
    00000506 19               [11] 1041 	add	hl, de
    00000507 DD 7E FB         [19] 1042 	ld	a, -5 (ix)
    0000050A 77               [ 7] 1043 	ld	(hl), a
    0000050B 23               [ 6] 1044 	inc	hl
    0000050C DD 7E FC         [19] 1045 	ld	a, -4 (ix)
    0000050F 77               [ 7] 1046 	ld	(hl), a
                                   1047 ;E:\Dropbox\FAUSTO\SVILUPPI\MSX\CODE\C\MSXgl\projects\soccerlgMSX2/soccerlg_s6_b3.c:97: Player->anim++;
    00000510 DD 7E DB         [19] 1048 	ld	a, -37 (ix)
    00000513 C6 13            [ 7] 1049 	add	a, #0x13
    00000515 DD 77 FB         [19] 1050 	ld	-5 (ix), a
    00000518 DD 7E DC         [19] 1051 	ld	a, -36 (ix)
    0000051B CE 00            [ 7] 1052 	adc	a, #0x00
    0000051D DD 77 FC         [19] 1053 	ld	-4 (ix), a
    00000520 DD 6E FB         [19] 1054 	ld	l, -5 (ix)
    00000523 DD 66 FC         [19] 1055 	ld	h, -4 (ix)
    00000526 4E               [ 7] 1056 	ld	c, (hl)
    00000527 23               [ 6] 1057 	inc	hl
    00000528 46               [ 7] 1058 	ld	b, (hl)
    00000529 03               [ 6] 1059 	inc	bc
    0000052A DD 6E FB         [19] 1060 	ld	l, -5 (ix)
    0000052D DD 66 FC         [19] 1061 	ld	h, -4 (ix)
    00000530 71               [ 7] 1062 	ld	(hl), c
    00000531 23               [ 6] 1063 	inc	hl
    00000532 70               [ 7] 1064 	ld	(hl), b
                                   1065 ;E:\Dropbox\FAUSTO\SVILUPPI\MSX\CODE\C\MSXgl\projects\soccerlgMSX2/soccerlg_s6_b3.c:58: Player->frame = (Player->dx > 0) ? 
    00000533 DD 7E DB         [19] 1066 	ld	a, -37 (ix)
    00000536 C6 0F            [ 7] 1067 	add	a, #0x0f
    00000538 DD 77 FD         [19] 1068 	ld	-3 (ix), a
    0000053B DD 7E DC         [19] 1069 	ld	a, -36 (ix)
    0000053E CE 00            [ 7] 1070 	adc	a, #0x00
    00000540 DD 77 FE         [19] 1071 	ld	-2 (ix), a
                                   1072 ;E:\Dropbox\FAUSTO\SVILUPPI\MSX\CODE\C\MSXgl\projects\soccerlgMSX2/soccerlg_s6_b3.c:98: if (Player->dx != 0) {
    00000543 DD 7E FA         [19] 1073 	ld	a, -6 (ix)
    00000546 B7               [ 4] 1074 	or	a, a
    00000547 CArD7r05         [10] 1075 	jp	Z, 00154$
                                   1076 ;E:\Dropbox\FAUSTO\SVILUPPI\MSX\CODE\C\MSXgl\projects\soccerlgMSX2/soccerlg_s6_b3.c:97: Player->anim++;
    0000054A DD 6E FB         [19] 1077 	ld	l, -5 (ix)
    0000054D DD 66 FC         [19] 1078 	ld	h, -4 (ix)
    00000550 7E               [ 7] 1079 	ld	a, (hl)
    00000551 DD 77 FB         [19] 1080 	ld	-5 (ix), a
    00000554 23               [ 6] 1081 	inc	hl
    00000555 7E               [ 7] 1082 	ld	a, (hl)
    00000556 DD 77 FC         [19] 1083 	ld	-4 (ix), a
                                   1084 ;E:\Dropbox\FAUSTO\SVILUPPI\MSX\CODE\C\MSXgl\projects\soccerlgMSX2/soccerlg_s6_b3.c:99: if (team == TEAM_1) Player->frame = ((Player->anim / 6) % 2 == 0) ? SPR_GK_PLAYER_SOUTH_1 : SPR_GK_PLAYER_SOUTH_2;
    00000559 11 06 00         [10] 1085 	ld	de, #0x0006
    0000055C DD 6E FB         [19] 1086 	ld	l, -5 (ix)
                                   1087 ;	spillPairReg hl
                                   1088 ;	spillPairReg hl
    0000055F DD 66 FC         [19] 1089 	ld	h, -4 (ix)
                                   1090 ;	spillPairReg hl
                                   1091 ;	spillPairReg hl
    00000562 CDr00r00         [17] 1092 	call	__divuint
    00000565 DD 73 F9         [19] 1093 	ld	-7 (ix), e
    00000568 DD 72 FA         [19] 1094 	ld	-6 (ix), d
    0000056B DD 7E F9         [19] 1095 	ld	a, -7 (ix)
    0000056E E6 01            [ 7] 1096 	and	a, #0x01
    00000570 DD 77 FB         [19] 1097 	ld	-5 (ix), a
    00000573 DD 36 FC 00      [19] 1098 	ld	-4 (ix), #0x00
    00000577 DD 7E DD         [19] 1099 	ld	a, -35 (ix)
    0000057A B7               [ 4] 1100 	or	a, a
    0000057B 20 2D            [12] 1101 	jr	NZ, 00151$
    0000057D DD 7E FC         [19] 1102 	ld	a, -4 (ix)
    00000580 DD B6 FB         [19] 1103 	or	a, -5 (ix)
    00000583 20 0B            [12] 1104 	jr	NZ, 00343$
    00000585 DD 36 FB F3      [19] 1105 	ld	-5 (ix), #0xf3
    00000589 DD 36 FC 00      [19] 1106 	ld	-4 (ix), #0
    0000058D C3r98r05         [10] 1107 	jp	00344$
    00000590                       1108 00343$:
    00000590 DD 36 FB F4      [19] 1109 	ld	-5 (ix), #0xf4
    00000594 DD 36 FC 00      [19] 1110 	ld	-4 (ix), #0
    00000598                       1111 00344$:
    00000598 DD 6E FD         [19] 1112 	ld	l, -3 (ix)
    0000059B DD 66 FE         [19] 1113 	ld	h, -2 (ix)
    0000059E DD 7E FB         [19] 1114 	ld	a, -5 (ix)
    000005A1 77               [ 7] 1115 	ld	(hl), a
    000005A2 23               [ 6] 1116 	inc	hl
    000005A3 DD 7E FC         [19] 1117 	ld	a, -4 (ix)
    000005A6 77               [ 7] 1118 	ld	(hl), a
    000005A7 C3rC8r18         [10] 1119 	jp	00306$
    000005AA                       1120 00151$:
                                   1121 ;E:\Dropbox\FAUSTO\SVILUPPI\MSX\CODE\C\MSXgl\projects\soccerlgMSX2/soccerlg_s6_b3.c:100: else                Player->frame = ((Player->anim / 6) % 2 == 0) ? SPR_GK_PLAYER_NORTH_1 : SPR_GK_PLAYER_NORTH_2;
    000005AA DD 7E FC         [19] 1122 	ld	a, -4 (ix)
    000005AD DD B6 FB         [19] 1123 	or	a, -5 (ix)
    000005B0 20 0B            [12] 1124 	jr	NZ, 00345$
    000005B2 DD 36 FB F2      [19] 1125 	ld	-5 (ix), #0xf2
    000005B6 DD 36 FC 00      [19] 1126 	ld	-4 (ix), #0
    000005BA C3rC5r05         [10] 1127 	jp	00346$
    000005BD                       1128 00345$:
    000005BD DD 36 FB F5      [19] 1129 	ld	-5 (ix), #0xf5
    000005C1 DD 36 FC 00      [19] 1130 	ld	-4 (ix), #0
    000005C5                       1131 00346$:
    000005C5 DD 6E FD         [19] 1132 	ld	l, -3 (ix)
    000005C8 DD 66 FE         [19] 1133 	ld	h, -2 (ix)
    000005CB DD 7E FB         [19] 1134 	ld	a, -5 (ix)
    000005CE 77               [ 7] 1135 	ld	(hl), a
    000005CF 23               [ 6] 1136 	inc	hl
    000005D0 DD 7E FC         [19] 1137 	ld	a, -4 (ix)
    000005D3 77               [ 7] 1138 	ld	(hl), a
    000005D4 C3rC8r18         [10] 1139 	jp	00306$
    000005D7                       1140 00154$:
                                   1141 ;E:\Dropbox\FAUSTO\SVILUPPI\MSX\CODE\C\MSXgl\projects\soccerlgMSX2/soccerlg_s6_b3.c:102: Player->frame = (team == TEAM_1) ? SPR_GK_PLAYER_FACE_TO_SOUTH : SPR_GK_PLAYER_FACE_TO_NORTH;
    000005D7 DD 7E DD         [19] 1142 	ld	a, -35 (ix)
    000005DA B7               [ 4] 1143 	or	a, a
    000005DB 20 06            [12] 1144 	jr	NZ, 00347$
    000005DD 01 D5 00         [10] 1145 	ld	bc, #0x00d5
    000005E0 C3rE6r05         [10] 1146 	jp	00348$
    000005E3                       1147 00347$:
    000005E3 01 D6 00         [10] 1148 	ld	bc, #0x00d6
    000005E6                       1149 00348$:
    000005E6 DD 6E FD         [19] 1150 	ld	l, -3 (ix)
    000005E9 DD 66 FE         [19] 1151 	ld	h, -2 (ix)
    000005EC 71               [ 7] 1152 	ld	(hl), c
    000005ED 23               [ 6] 1153 	inc	hl
    000005EE 70               [ 7] 1154 	ld	(hl), b
                                   1155 ;E:\Dropbox\FAUSTO\SVILUPPI\MSX\CODE\C\MSXgl\projects\soccerlgMSX2/soccerlg_s6_b3.c:104: return;
    000005EF C3rC8r18         [10] 1156 	jp	00306$
    000005F2                       1157 00157$:
                                   1158 ;E:\Dropbox\FAUSTO\SVILUPPI\MSX\CODE\C\MSXgl\projects\soccerlgMSX2/soccerlg_s6_b3.c:109: u8 role = (team == TEAM_1) ? i : (i - 7); // 1,2: Dif, 3,4: Cen, 5,6: Att
    000005F2 DD 7E DD         [19] 1159 	ld	a, -35 (ix)
    000005F5 B7               [ 4] 1160 	or	a, a
    000005F6 20 06            [12] 1161 	jr	NZ, 00349$
    000005F8 DD 7E FF         [19] 1162 	ld	a, -1 (ix)
    000005FB C3r03r06         [10] 1163 	jp	00350$
    000005FE                       1164 00349$:
    000005FE DD 7E FF         [19] 1165 	ld	a, -1 (ix)
    00000601 C6 F9            [ 7] 1166 	add	a, #0xf9
    00000603                       1167 00350$:
    00000603 DD 77 F9         [19] 1168 	ld	-7 (ix), a
                                   1169 ;E:\Dropbox\FAUSTO\SVILUPPI\MSX\CODE\C\MSXgl\projects\soccerlgMSX2/soccerlg_s6_b3.c:112: u8 closest_mate = 0xFF;
    00000606 DD 36 E2 FF      [19] 1170 	ld	-30 (ix), #0xff
                                   1171 ;E:\Dropbox\FAUSTO\SVILUPPI\MSX\CODE\C\MSXgl\projects\soccerlgMSX2/soccerlg_s6_b3.c:113: u16 min_dist = 0xFFFF;
    0000060A DD 36 E3 FF      [19] 1172 	ld	-29 (ix), #0xff
    0000060E DD 36 E4 FF      [19] 1173 	ld	-28 (ix), #0xff
                                   1174 ;E:\Dropbox\FAUSTO\SVILUPPI\MSX\CODE\C\MSXgl\projects\soccerlgMSX2/soccerlg_s6_b3.c:114: u8 start_mate = (team == TEAM_1) ? 1 : 8; 
    00000612 DD 7E DD         [19] 1175 	ld	a, -35 (ix)
    00000615 B7               [ 4] 1176 	or	a, a
    00000616 20 0B            [12] 1177 	jr	NZ, 00351$
    00000618 DD 36 FD 01      [19] 1178 	ld	-3 (ix), #0x01
    0000061C DD 36 FE 00      [19] 1179 	ld	-2 (ix), #0
    00000620 C3r2Br06         [10] 1180 	jp	00352$
    00000623                       1181 00351$:
    00000623 DD 36 FD 08      [19] 1182 	ld	-3 (ix), #0x08
    00000627 DD 36 FE 00      [19] 1183 	ld	-2 (ix), #0
    0000062B                       1184 00352$:
    0000062B DD 46 FD         [19] 1185 	ld	b, -3 (ix)
                                   1186 ;E:\Dropbox\FAUSTO\SVILUPPI\MSX\CODE\C\MSXgl\projects\soccerlgMSX2/soccerlg_s6_b3.c:115: u8 end_mate = start_mate + 6;
    0000062E 78               [ 4] 1187 	ld	a, b
    0000062F C6 06            [ 7] 1188 	add	a, #0x06
    00000631 4F               [ 4] 1189 	ld	c, a
                                   1190 ;E:\Dropbox\FAUSTO\SVILUPPI\MSX\CODE\C\MSXgl\projects\soccerlgMSX2/soccerlg_s6_b3.c:117: for (u8 j = start_mate; j < end_mate; j++) {
    00000632                       1191 00304$:
                                   1192 ;E:\Dropbox\FAUSTO\SVILUPPI\MSX\CODE\C\MSXgl\projects\soccerlgMSX2/soccerlg_s6_b3.c:119: u16 dy = (SwSprite[j].ly > Ball->ly) ? (SwSprite[j].ly - Ball->ly) : (Ball->ly - SwSprite[j].ly);
    00000632 21r46r01         [10] 1193 	ld	hl, #(_SwSprite + 326)
    00000635 7E               [ 7] 1194 	ld	a, (hl)
    00000636 DD 77 E5         [19] 1195 	ld	-27 (ix), a
    00000639 23               [ 6] 1196 	inc	hl
    0000063A 7E               [ 7] 1197 	ld	a, (hl)
    0000063B DD 77 E6         [19] 1198 	ld	-26 (ix), a
                                   1199 ;E:\Dropbox\FAUSTO\SVILUPPI\MSX\CODE\C\MSXgl\projects\soccerlgMSX2/soccerlg_s6_b3.c:117: for (u8 j = start_mate; j < end_mate; j++) {
    0000063E 78               [ 4] 1200 	ld	a, b
    0000063F 91               [ 4] 1201 	sub	a, c
    00000640 D2rD6r06         [10] 1202 	jp	NC, 00160$
                                   1203 ;E:\Dropbox\FAUSTO\SVILUPPI\MSX\CODE\C\MSXgl\projects\soccerlgMSX2/soccerlg_s6_b3.c:118: u16 dx = (SwSprite[j].lx > Ball->lx) ? (SwSprite[j].lx - Ball->lx) : (Ball->lx - SwSprite[j].lx);
    00000643 58               [ 4] 1204 	ld	e, b
    00000644 16 00            [ 7] 1205 	ld	d, #0x00
    00000646 6B               [ 4] 1206 	ld	l, e
    00000647 62               [ 4] 1207 	ld	h, d
    00000648 29               [11] 1208 	add	hl, hl
    00000649 29               [11] 1209 	add	hl, hl
    0000064A 19               [11] 1210 	add	hl, de
    0000064B 29               [11] 1211 	add	hl, hl
    0000064C 19               [11] 1212 	add	hl, de
    0000064D 29               [11] 1213 	add	hl, hl
    0000064E 19               [11] 1214 	add	hl, de
    0000064F 11r00r00         [10] 1215 	ld	de, #_SwSprite
    00000652 19               [11] 1216 	add	hl, de
    00000653 DD 75 FB         [19] 1217 	ld	-5 (ix), l
    00000656 DD 74 FC         [19] 1218 	ld	-4 (ix), h
    00000659 7E               [ 7] 1219 	ld	a, (hl)
    0000065A DD 77 FD         [19] 1220 	ld	-3 (ix), a
    0000065D 3Ar42r01         [13] 1221 	ld	a, (#(_SwSprite + 322) + 0)
    00000660 DD 77 FE         [19] 1222 	ld	-2 (ix), a
    00000663 DD 5E FD         [19] 1223 	ld	e, -3 (ix)
    00000666 16 00            [ 7] 1224 	ld	d, #0x00
    00000668 DD 6E FE         [19] 1225 	ld	l, -2 (ix)
                                   1226 ;	spillPairReg hl
                                   1227 ;	spillPairReg hl
    0000066B 26 00            [ 7] 1228 	ld	h, #0x00
                                   1229 ;	spillPairReg hl
                                   1230 ;	spillPairReg hl
    0000066D DD 7E FE         [19] 1231 	ld	a, -2 (ix)
    00000670 DD 96 FD         [19] 1232 	sub	a, -3 (ix)
    00000673 30 09            [12] 1233 	jr	NC, 00353$
    00000675 7B               [ 4] 1234 	ld	a, e
    00000676 95               [ 4] 1235 	sub	a, l
    00000677 5F               [ 4] 1236 	ld	e, a
    00000678 7A               [ 4] 1237 	ld	a, d
    00000679 9C               [ 4] 1238 	sbc	a, h
    0000067A 57               [ 4] 1239 	ld	d, a
    0000067B C3r82r06         [10] 1240 	jp	00354$
    0000067E                       1241 00353$:
    0000067E BF               [ 4] 1242 	cp	a, a
    0000067F ED 52            [15] 1243 	sbc	hl, de
    00000681 EB               [ 4] 1244 	ex	de, hl
    00000682                       1245 00354$:
    00000682 DD 73 FD         [19] 1246 	ld	-3 (ix), e
    00000685 DD 72 FE         [19] 1247 	ld	-2 (ix), d
                                   1248 ;E:\Dropbox\FAUSTO\SVILUPPI\MSX\CODE\C\MSXgl\projects\soccerlgMSX2/soccerlg_s6_b3.c:119: u16 dy = (SwSprite[j].ly > Ball->ly) ? (SwSprite[j].ly - Ball->ly) : (Ball->ly - SwSprite[j].ly);
    00000688 DD 5E FB         [19] 1249 	ld	e, -5 (ix)
    0000068B DD 56 FC         [19] 1250 	ld	d, -4 (ix)
    0000068E 21 04 00         [10] 1251 	ld	hl, #4
    00000691 19               [11] 1252 	add	hl, de
    00000692 5E               [ 7] 1253 	ld	e, (hl)
    00000693 23               [ 6] 1254 	inc	hl
    00000694 56               [ 7] 1255 	ld	d, (hl)
    00000695 DD 7E E5         [19] 1256 	ld	a, -27 (ix)
    00000698 93               [ 4] 1257 	sub	a, e
    00000699 DD 7E E6         [19] 1258 	ld	a, -26 (ix)
    0000069C 9A               [ 4] 1259 	sbc	a, d
    0000069D 30 0C            [12] 1260 	jr	NC, 00355$
    0000069F 7B               [ 4] 1261 	ld	a, e
    000006A0 DD 96 E5         [19] 1262 	sub	a, -27 (ix)
    000006A3 5F               [ 4] 1263 	ld	e, a
    000006A4 7A               [ 4] 1264 	ld	a, d
    000006A5 DD 9E E6         [19] 1265 	sbc	a, -26 (ix)
    000006A8 C3rB4r06         [10] 1266 	jp	00356$
    000006AB                       1267 00355$:
    000006AB DD 7E E5         [19] 1268 	ld	a, -27 (ix)
    000006AE 93               [ 4] 1269 	sub	a, e
    000006AF 5F               [ 4] 1270 	ld	e, a
    000006B0 DD 7E E6         [19] 1271 	ld	a, -26 (ix)
    000006B3 9A               [ 4] 1272 	sbc	a, d
    000006B4                       1273 00356$:
    000006B4 57               [ 4] 1274 	ld	d, a
    000006B5 7B               [ 4] 1275 	ld	a, e
                                   1276 ;E:\Dropbox\FAUSTO\SVILUPPI\MSX\CODE\C\MSXgl\projects\soccerlgMSX2/soccerlg_s6_b3.c:120: if (dx + dy < min_dist) {
    000006B6 DD 86 FD         [19] 1277 	add	a, -3 (ix)
    000006B9 5F               [ 4] 1278 	ld	e, a
    000006BA 7A               [ 4] 1279 	ld	a, d
    000006BB DD 8E FE         [19] 1280 	adc	a, -2 (ix)
    000006BE 57               [ 4] 1281 	ld	d, a
    000006BF 7B               [ 4] 1282 	ld	a, e
    000006C0 DD 96 E3         [19] 1283 	sub	a, -29 (ix)
    000006C3 7A               [ 4] 1284 	ld	a, d
    000006C4 DD 9E E4         [19] 1285 	sbc	a, -28 (ix)
    000006C7 30 09            [12] 1286 	jr	NC, 00305$
                                   1287 ;E:\Dropbox\FAUSTO\SVILUPPI\MSX\CODE\C\MSXgl\projects\soccerlgMSX2/soccerlg_s6_b3.c:121: min_dist = dx + dy;
    000006C9 DD 73 E3         [19] 1288 	ld	-29 (ix), e
    000006CC DD 72 E4         [19] 1289 	ld	-28 (ix), d
                                   1290 ;E:\Dropbox\FAUSTO\SVILUPPI\MSX\CODE\C\MSXgl\projects\soccerlgMSX2/soccerlg_s6_b3.c:122: closest_mate = j;
    000006CF DD 70 E2         [19] 1291 	ld	-30 (ix), b
    000006D2                       1292 00305$:
                                   1293 ;E:\Dropbox\FAUSTO\SVILUPPI\MSX\CODE\C\MSXgl\projects\soccerlgMSX2/soccerlg_s6_b3.c:117: for (u8 j = start_mate; j < end_mate; j++) {
    000006D2 04               [ 4] 1294 	inc	b
    000006D3 C3r32r06         [10] 1295 	jp	00304$
    000006D6                       1296 00160$:
                                   1297 ;E:\Dropbox\FAUSTO\SVILUPPI\MSX\CODE\C\MSXgl\projects\soccerlgMSX2/soccerlg_s6_b3.c:127: if (LastTouchTeam == team) {
    000006D6 3Ar00r00         [13] 1298 	ld	a, (_LastTouchTeam+0)
    000006D9 DD 96 DD         [19] 1299 	sub	a, -35 (ix)
    000006DC 3E 01            [ 7] 1300 	ld	a, #0x01
    000006DE 28 01            [12] 1301 	jr	Z, 01336$
    000006E0 AF               [ 4] 1302 	xor	a, a
    000006E1                       1303 01336$:
    000006E1 DD 77 FE         [19] 1304 	ld	-2 (ix), a
                                   1305 ;E:\Dropbox\FAUSTO\SVILUPPI\MSX\CODE\C\MSXgl\projects\soccerlgMSX2/soccerlg_s6_b3.c:185: if (team == TEAM_1 && Ball->ly < 192) press_radius += 32;
    000006E4 DD 7E E5         [19] 1306 	ld	a, -27 (ix)
    000006E7 DD 77 E7         [19] 1307 	ld	-25 (ix), a
    000006EA DD 7E E6         [19] 1308 	ld	a, -26 (ix)
    000006ED DD 77 E8         [19] 1309 	ld	-24 (ix), a
                                   1310 ;E:\Dropbox\FAUSTO\SVILUPPI\MSX\CODE\C\MSXgl\projects\soccerlgMSX2/soccerlg_s6_b3.c:127: if (LastTouchTeam == team) {
    000006F0 DD 7E FE         [19] 1311 	ld	a, -2 (ix)
    000006F3 B7               [ 4] 1312 	or	a, a
    000006F4 CAr58r0A         [10] 1313 	jp	Z, 00189$
                                   1314 ;E:\Dropbox\FAUSTO\SVILUPPI\MSX\CODE\C\MSXgl\projects\soccerlgMSX2/soccerlg_s6_b3.c:129: u8 run_dist = g_ActiveStats[team].aggro_attack * 10; 
    000006F7 01r00r00         [10] 1315 	ld	bc, #_g_ActiveStats+0
    000006FA DD 5E DD         [19] 1316 	ld	e, -35 (ix)
    000006FD 16 00            [ 7] 1317 	ld	d, #0x00
    000006FF 6B               [ 4] 1318 	ld	l, e
    00000700 62               [ 4] 1319 	ld	h, d
    00000701 29               [11] 1320 	add	hl, hl
    00000702 19               [11] 1321 	add	hl, de
    00000703 29               [11] 1322 	add	hl, hl
    00000704 19               [11] 1323 	add	hl, de
    00000705 09               [11] 1324 	add	hl, bc
    00000706 EB               [ 4] 1325 	ex	de, hl
    00000707 D5               [11] 1326 	push	de
    00000708 FD E1            [14] 1327 	pop	iy
    0000070A FD 7E 05         [19] 1328 	ld	a, 5 (iy)
    0000070D 4F               [ 4] 1329 	ld	c, a
    0000070E 87               [ 4] 1330 	add	a, a
    0000070F 87               [ 4] 1331 	add	a, a
    00000710 81               [ 4] 1332 	add	a, c
    00000711 87               [ 4] 1333 	add	a, a
    00000712 DD 77 FA         [19] 1334 	ld	-6 (ix), a
                                   1335 ;E:\Dropbox\FAUSTO\SVILUPPI\MSX\CODE\C\MSXgl\projects\soccerlgMSX2/soccerlg_s6_b3.c:130: u8 wide_dist = 24 + (g_ActiveStats[team].pass_tendency * 8); 
    00000715 13               [ 6] 1336 	inc	de
    00000716 13               [ 6] 1337 	inc	de
    00000717 1A               [ 7] 1338 	ld	a, (de)
    00000718 87               [ 4] 1339 	add	a, a
    00000719 87               [ 4] 1340 	add	a, a
    0000071A 87               [ 4] 1341 	add	a, a
    0000071B C6 18            [ 7] 1342 	add	a, #0x18
    0000071D DD 77 FD         [19] 1343 	ld	-3 (ix), a
                                   1344 ;E:\Dropbox\FAUSTO\SVILUPPI\MSX\CODE\C\MSXgl\projects\soccerlgMSX2/soccerlg_s6_b3.c:132: if (role >= 5) { // Attaccanti molto avanti
    00000720 DD 7E F9         [19] 1345 	ld	a, -7 (ix)
    00000723 D6 05            [ 7] 1346 	sub	a, #0x05
    00000725 DArA8r07         [10] 1347 	jp	C, 00165$
                                   1348 ;E:\Dropbox\FAUSTO\SVILUPPI\MSX\CODE\C\MSXgl\projects\soccerlgMSX2/soccerlg_s6_b3.c:133: target_y = Ball->ly + ((team == TEAM_1) ? (60 + run_dist) : -(60 + run_dist));
    00000728 DD 7E FA         [19] 1349 	ld	a, -6 (ix)
    0000072B DD 77 FC         [19] 1350 	ld	-4 (ix), a
    0000072E DD 36 FD 00      [19] 1351 	ld	-3 (ix), #0x00
    00000732 DD 7E FC         [19] 1352 	ld	a, -4 (ix)
    00000735 C6 3C            [ 7] 1353 	add	a, #0x3c
    00000737 DD 77 FA         [19] 1354 	ld	-6 (ix), a
    0000073A DD 7E FD         [19] 1355 	ld	a, -3 (ix)
    0000073D CE 00            [ 7] 1356 	adc	a, #0x00
    0000073F DD 77 FB         [19] 1357 	ld	-5 (ix), a
    00000742 DD 7E DD         [19] 1358 	ld	a, -35 (ix)
    00000745 B7               [ 4] 1359 	or	a, a
    00000746 20 0F            [12] 1360 	jr	NZ, 00357$
    00000748 DD 7E FA         [19] 1361 	ld	a, -6 (ix)
    0000074B DD 77 FC         [19] 1362 	ld	-4 (ix), a
    0000074E DD 7E FB         [19] 1363 	ld	a, -5 (ix)
    00000751 DD 77 FD         [19] 1364 	ld	-3 (ix), a
    00000754 C3r65r07         [10] 1365 	jp	00358$
    00000757                       1366 00357$:
    00000757 AF               [ 4] 1367 	xor	a, a
    00000758 DD 96 FA         [19] 1368 	sub	a, -6 (ix)
    0000075B DD 77 FC         [19] 1369 	ld	-4 (ix), a
    0000075E 9F               [ 4] 1370 	sbc	a, a
    0000075F DD 96 FB         [19] 1371 	sub	a, -5 (ix)
    00000762 DD 77 FD         [19] 1372 	ld	-3 (ix), a
    00000765                       1373 00358$:
    00000765 DD 7E FC         [19] 1374 	ld	a, -4 (ix)
    00000768 DD 77 FA         [19] 1375 	ld	-6 (ix), a
    0000076B DD 7E FD         [19] 1376 	ld	a, -3 (ix)
    0000076E DD 77 FB         [19] 1377 	ld	-5 (ix), a
    00000771 DD 7E E7         [19] 1378 	ld	a, -25 (ix)
    00000774 DD 86 FA         [19] 1379 	add	a, -6 (ix)
    00000777 DD 77 FC         [19] 1380 	ld	-4 (ix), a
    0000077A DD 7E E8         [19] 1381 	ld	a, -24 (ix)
    0000077D DD 8E FB         [19] 1382 	adc	a, -5 (ix)
    00000780 DD 77 FD         [19] 1383 	ld	-3 (ix), a
    00000783 DD 7E FC         [19] 1384 	ld	a, -4 (ix)
    00000786 DD 77 E9         [19] 1385 	ld	-23 (ix), a
    00000789 DD 7E FD         [19] 1386 	ld	a, -3 (ix)
    0000078C DD 77 EA         [19] 1387 	ld	-22 (ix), a
                                   1388 ;E:\Dropbox\FAUSTO\SVILUPPI\MSX\CODE\C\MSXgl\projects\soccerlgMSX2/soccerlg_s6_b3.c:134: target_x = (role == 5) ? 64 : 160;
    0000078F DD 7E F9         [19] 1389 	ld	a, -7 (ix)
    00000792 D6 05            [ 7] 1390 	sub	a, #0x05
    00000794 20 06            [12] 1391 	jr	NZ, 00359$
    00000796 01 40 00         [10] 1392 	ld	bc, #0x0040
    00000799 C3r9Fr07         [10] 1393 	jp	00360$
    0000079C                       1394 00359$:
    0000079C 01 A0 00         [10] 1395 	ld	bc, #0x00a0
    0000079F                       1396 00360$:
    0000079F DD 71 EB         [19] 1397 	ld	-21 (ix), c
    000007A2 DD 70 EC         [19] 1398 	ld	-20 (ix), b
    000007A5 C3r81r08         [10] 1399 	jp	00166$
    000007A8                       1400 00165$:
                                   1401 ;E:\Dropbox\FAUSTO\SVILUPPI\MSX\CODE\C\MSXgl\projects\soccerlgMSX2/soccerlg_s6_b3.c:135: } else if (role >= 3) { // Centrocampisti a supporto largo
    000007A8 DD 7E F9         [19] 1402 	ld	a, -7 (ix)
    000007AB D6 03            [ 7] 1403 	sub	a, #0x03
    000007AD 38 6A            [12] 1404 	jr	C, 00162$
                                   1405 ;E:\Dropbox\FAUSTO\SVILUPPI\MSX\CODE\C\MSXgl\projects\soccerlgMSX2/soccerlg_s6_b3.c:136: target_y = Ball->ly + ((team == TEAM_1) ? 24 : -24);
    000007AF DD 7E DD         [19] 1406 	ld	a, -35 (ix)
    000007B2 B7               [ 4] 1407 	or	a, a
    000007B3 20 06            [12] 1408 	jr	NZ, 00361$
    000007B5 01 18 00         [10] 1409 	ld	bc, #0x0018
    000007B8 C3rBEr07         [10] 1410 	jp	00362$
    000007BB                       1411 00361$:
    000007BB 01 E8 FF         [10] 1412 	ld	bc, #0xffe8
    000007BE                       1413 00362$:
    000007BE DD 6E E7         [19] 1414 	ld	l, -25 (ix)
    000007C1 DD 66 E8         [19] 1415 	ld	h, -24 (ix)
    000007C4 09               [11] 1416 	add	hl, bc
    000007C5 DD 75 E9         [19] 1417 	ld	-23 (ix), l
    000007C8 DD 74 EA         [19] 1418 	ld	-22 (ix), h
                                   1419 ;E:\Dropbox\FAUSTO\SVILUPPI\MSX\CODE\C\MSXgl\projects\soccerlgMSX2/soccerlg_s6_b3.c:137: target_x = Ball->lx + ((role == 3) ? -wide_dist : wide_dist);
    000007CB 3Ar42r01         [13] 1420 	ld	a, (#(_SwSprite + 322) + 0)
    000007CE DD 77 FA         [19] 1421 	ld	-6 (ix), a
    000007D1 DD 36 FB 00      [19] 1422 	ld	-5 (ix), #0x00
    000007D5 DD 7E FD         [19] 1423 	ld	a, -3 (ix)
    000007D8 DD 77 FC         [19] 1424 	ld	-4 (ix), a
    000007DB DD 36 FD 00      [19] 1425 	ld	-3 (ix), #0x00
    000007DF DD 7E F9         [19] 1426 	ld	a, -7 (ix)
    000007E2 D6 03            [ 7] 1427 	sub	a, #0x03
    000007E4 20 11            [12] 1428 	jr	NZ, 00363$
    000007E6 AF               [ 4] 1429 	xor	a, a
    000007E7 DD 96 FC         [19] 1430 	sub	a, -4 (ix)
    000007EA DD 77 F8         [19] 1431 	ld	-8 (ix), a
    000007ED 9F               [ 4] 1432 	sbc	a, a
    000007EE DD 96 FD         [19] 1433 	sub	a, -3 (ix)
    000007F1 DD 77 F9         [19] 1434 	ld	-7 (ix), a
    000007F4 C3r03r08         [10] 1435 	jp	00364$
    000007F7                       1436 00363$:
    000007F7 DD 7E FC         [19] 1437 	ld	a, -4 (ix)
    000007FA DD 77 F8         [19] 1438 	ld	-8 (ix), a
    000007FD DD 7E FD         [19] 1439 	ld	a, -3 (ix)
    00000800 DD 77 F9         [19] 1440 	ld	-7 (ix), a
    00000803                       1441 00364$:
    00000803 DD 7E FA         [19] 1442 	ld	a, -6 (ix)
    00000806 DD 86 F8         [19] 1443 	add	a, -8 (ix)
    00000809 4F               [ 4] 1444 	ld	c, a
    0000080A DD 7E FB         [19] 1445 	ld	a, -5 (ix)
    0000080D DD 8E F9         [19] 1446 	adc	a, -7 (ix)
    00000810 DD 71 EB         [19] 1447 	ld	-21 (ix), c
    00000813 DD 77 EC         [19] 1448 	ld	-20 (ix), a
    00000816 C3r81r08         [10] 1449 	jp	00166$
    00000819                       1450 00162$:
                                   1451 ;E:\Dropbox\FAUSTO\SVILUPPI\MSX\CODE\C\MSXgl\projects\soccerlgMSX2/soccerlg_s6_b3.c:139: target_y = Ball->ly + ((team == TEAM_1) ? -64 : 64);
    00000819 DD 7E DD         [19] 1452 	ld	a, -35 (ix)
    0000081C B7               [ 4] 1453 	or	a, a
    0000081D 20 0B            [12] 1454 	jr	NZ, 00365$
    0000081F DD 36 FC C0      [19] 1455 	ld	-4 (ix), #0xc0
    00000823 DD 36 FD FF      [19] 1456 	ld	-3 (ix), #0xff
    00000827 C3r32r08         [10] 1457 	jp	00366$
    0000082A                       1458 00365$:
    0000082A DD 36 FC 40      [19] 1459 	ld	-4 (ix), #0x40
    0000082E DD 36 FD 00      [19] 1460 	ld	-3 (ix), #0
    00000832                       1461 00366$:
    00000832 DD 7E FC         [19] 1462 	ld	a, -4 (ix)
    00000835 DD 77 FA         [19] 1463 	ld	-6 (ix), a
    00000838 DD 7E FD         [19] 1464 	ld	a, -3 (ix)
    0000083B DD 77 FB         [19] 1465 	ld	-5 (ix), a
    0000083E DD 7E FA         [19] 1466 	ld	a, -6 (ix)
    00000841 DD 86 E7         [19] 1467 	add	a, -25 (ix)
    00000844 DD 77 FC         [19] 1468 	ld	-4 (ix), a
    00000847 DD 7E FB         [19] 1469 	ld	a, -5 (ix)
    0000084A DD 8E E8         [19] 1470 	adc	a, -24 (ix)
    0000084D DD 77 FD         [19] 1471 	ld	-3 (ix), a
    00000850 DD 7E FC         [19] 1472 	ld	a, -4 (ix)
    00000853 DD 77 E9         [19] 1473 	ld	-23 (ix), a
    00000856 DD 7E FD         [19] 1474 	ld	a, -3 (ix)
    00000859 DD 77 EA         [19] 1475 	ld	-22 (ix), a
                                   1476 ;E:\Dropbox\FAUSTO\SVILUPPI\MSX\CODE\C\MSXgl\projects\soccerlgMSX2/soccerlg_s6_b3.c:140: target_x = (role == 1) ? 80 : 144;
    0000085C DD 7E F9         [19] 1477 	ld	a, -7 (ix)
    0000085F 3D               [ 4] 1478 	dec	a
    00000860 20 0B            [12] 1479 	jr	NZ, 00367$
    00000862 DD 36 FC 50      [19] 1480 	ld	-4 (ix), #0x50
    00000866 DD 36 FD 00      [19] 1481 	ld	-3 (ix), #0
    0000086A C3r75r08         [10] 1482 	jp	00368$
    0000086D                       1483 00367$:
    0000086D DD 36 FC 90      [19] 1484 	ld	-4 (ix), #0x90
    00000871 DD 36 FD 00      [19] 1485 	ld	-3 (ix), #0
    00000875                       1486 00368$:
    00000875 DD 7E FC         [19] 1487 	ld	a, -4 (ix)
    00000878 DD 77 EB         [19] 1488 	ld	-21 (ix), a
    0000087B DD 7E FD         [19] 1489 	ld	a, -3 (ix)
    0000087E DD 77 EC         [19] 1490 	ld	-20 (ix), a
    00000881                       1491 00166$:
                                   1492 ;E:\Dropbox\FAUSTO\SVILUPPI\MSX\CODE\C\MSXgl\projects\soccerlgMSX2/soccerlg_s6_b3.c:144: if (LastTouchPlayer != 0xFF && LastTouchPlayer != i) {
    00000881 3Ar00r00         [13] 1493 	ld	a, (_LastTouchPlayer+0)
    00000884 3C               [ 4] 1494 	inc	a
    00000885 CAr6Ar0C         [10] 1495 	jp	Z,00190$
    00000888 3Ar00r00         [13] 1496 	ld	a, (_LastTouchPlayer+0)
    0000088B DD 96 FF         [19] 1497 	sub	a, -1 (ix)
    0000088E CAr6Ar0C         [10] 1498 	jp	Z,00190$
                                   1499 ;E:\Dropbox\FAUSTO\SVILUPPI\MSX\CODE\C\MSXgl\projects\soccerlgMSX2/soccerlg_s6_b3.c:145: u16 dist_c_x = (SwSprite[LastTouchPlayer].lx > target_x) ? (SwSprite[LastTouchPlayer].lx - target_x) : (target_x - SwSprite[LastTouchPlayer].lx);
    00000891 ED 4Br00r00      [20] 1500 	ld	bc, (_LastTouchPlayer)
    00000895 06 00            [ 7] 1501 	ld	b, #0x00
    00000897 69               [ 4] 1502 	ld	l, c
    00000898 60               [ 4] 1503 	ld	h, b
    00000899 29               [11] 1504 	add	hl, hl
    0000089A 29               [11] 1505 	add	hl, hl
    0000089B 09               [11] 1506 	add	hl, bc
    0000089C 29               [11] 1507 	add	hl, hl
    0000089D 09               [11] 1508 	add	hl, bc
    0000089E 29               [11] 1509 	add	hl, hl
    0000089F 09               [11] 1510 	add	hl, bc
    000008A0 DD 75 FC         [19] 1511 	ld	-4 (ix), l
    000008A3 DD 74 FD         [19] 1512 	ld	-3 (ix), h
    000008A6 3Er00            [ 7] 1513 	ld	a, #<(_SwSprite)
    000008A8 DD 86 FC         [19] 1514 	add	a, -4 (ix)
    000008AB DD 77 F6         [19] 1515 	ld	-10 (ix), a
    000008AE 3Es00            [ 7] 1516 	ld	a, #>(_SwSprite)
    000008B0 DD 8E FD         [19] 1517 	adc	a, -3 (ix)
    000008B3 DD 77 F7         [19] 1518 	ld	-9 (ix), a
    000008B6 DD 6E F6         [19] 1519 	ld	l, -10 (ix)
    000008B9 DD 66 F7         [19] 1520 	ld	h, -9 (ix)
    000008BC 7E               [ 7] 1521 	ld	a, (hl)
    000008BD DD 77 FD         [19] 1522 	ld	-3 (ix), a
    000008C0 DD 77 FA         [19] 1523 	ld	-6 (ix), a
    000008C3 DD 36 FB 00      [19] 1524 	ld	-5 (ix), #0x00
    000008C7 DD 7E FD         [19] 1525 	ld	a, -3 (ix)
    000008CA DD 77 FC         [19] 1526 	ld	-4 (ix), a
    000008CD DD 36 FD 00      [19] 1527 	ld	-3 (ix), #0x00
    000008D1 DD 7E EB         [19] 1528 	ld	a, -21 (ix)
    000008D4 DD 96 FA         [19] 1529 	sub	a, -6 (ix)
    000008D7 DD 7E EC         [19] 1530 	ld	a, -20 (ix)
    000008DA DD 9E FB         [19] 1531 	sbc	a, -5 (ix)
    000008DD 30 2D            [12] 1532 	jr	NC, 00369$
    000008DF DD 7E FC         [19] 1533 	ld	a, -4 (ix)
    000008E2 DD 77 F9         [19] 1534 	ld	-7 (ix), a
    000008E5 DD 7E FD         [19] 1535 	ld	a, -3 (ix)
    000008E8 DD 77 FA         [19] 1536 	ld	-6 (ix), a
    000008EB DD 7E F9         [19] 1537 	ld	a, -7 (ix)
    000008EE DD 96 EB         [19] 1538 	sub	a, -21 (ix)
    000008F1 DD 77 FC         [19] 1539 	ld	-4 (ix), a
    000008F4 DD 7E FA         [19] 1540 	ld	a, -6 (ix)
    000008F7 DD 9E EC         [19] 1541 	sbc	a, -20 (ix)
    000008FA DD 77 FD         [19] 1542 	ld	-3 (ix), a
    000008FD DD 7E FC         [19] 1543 	ld	a, -4 (ix)
    00000900 DD 77 F8         [19] 1544 	ld	-8 (ix), a
    00000903 DD 7E FD         [19] 1545 	ld	a, -3 (ix)
    00000906 DD 77 F9         [19] 1546 	ld	-7 (ix), a
    00000909 C3r2Ar09         [10] 1547 	jp	00370$
    0000090C                       1548 00369$:
    0000090C DD 7E EB         [19] 1549 	ld	a, -21 (ix)
    0000090F DD 77 FA         [19] 1550 	ld	-6 (ix), a
    00000912 DD 7E EC         [19] 1551 	ld	a, -20 (ix)
    00000915 DD 77 FB         [19] 1552 	ld	-5 (ix), a
    00000918 DD 7E FA         [19] 1553 	ld	a, -6 (ix)
    0000091B DD 96 FC         [19] 1554 	sub	a, -4 (ix)
    0000091E DD 77 F8         [19] 1555 	ld	-8 (ix), a
    00000921 DD 7E FB         [19] 1556 	ld	a, -5 (ix)
    00000924 DD 9E FD         [19] 1557 	sbc	a, -3 (ix)
    00000927 DD 77 F9         [19] 1558 	ld	-7 (ix), a
    0000092A                       1559 00370$:
    0000092A DD 7E F8         [19] 1560 	ld	a, -8 (ix)
    0000092D DD 77 FC         [19] 1561 	ld	-4 (ix), a
    00000930 DD 7E F9         [19] 1562 	ld	a, -7 (ix)
    00000933 DD 77 FD         [19] 1563 	ld	-3 (ix), a
                                   1564 ;E:\Dropbox\FAUSTO\SVILUPPI\MSX\CODE\C\MSXgl\projects\soccerlgMSX2/soccerlg_s6_b3.c:146: u16 dist_c_y = (SwSprite[LastTouchPlayer].ly > target_y) ? (SwSprite[LastTouchPlayer].ly - target_y) : (target_y - SwSprite[LastTouchPlayer].ly);
    00000936 DD 7E F6         [19] 1565 	ld	a, -10 (ix)
    00000939 DD 77 FA         [19] 1566 	ld	-6 (ix), a
    0000093C DD 7E F7         [19] 1567 	ld	a, -9 (ix)
    0000093F DD 77 FB         [19] 1568 	ld	-5 (ix), a
    00000942 DD 6E FA         [19] 1569 	ld	l, -6 (ix)
    00000945 DD 66 FB         [19] 1570 	ld	h, -5 (ix)
    00000948 11 04 00         [10] 1571 	ld	de, #0x0004
    0000094B 19               [11] 1572 	add	hl, de
    0000094C 7E               [ 7] 1573 	ld	a, (hl)
    0000094D DD 77 FA         [19] 1574 	ld	-6 (ix), a
    00000950 23               [ 6] 1575 	inc	hl
    00000951 7E               [ 7] 1576 	ld	a, (hl)
    00000952 DD 77 FB         [19] 1577 	ld	-5 (ix), a
    00000955 DD 7E E9         [19] 1578 	ld	a, -23 (ix)
    00000958 DD 96 FA         [19] 1579 	sub	a, -6 (ix)
    0000095B DD 7E EA         [19] 1580 	ld	a, -22 (ix)
    0000095E DD 9E FB         [19] 1581 	sbc	a, -5 (ix)
    00000961 30 15            [12] 1582 	jr	NC, 00371$
    00000963 DD 7E FA         [19] 1583 	ld	a, -6 (ix)
    00000966 DD 96 E9         [19] 1584 	sub	a, -23 (ix)
    00000969 DD 77 F8         [19] 1585 	ld	-8 (ix), a
    0000096C DD 7E FB         [19] 1586 	ld	a, -5 (ix)
    0000096F DD 9E EA         [19] 1587 	sbc	a, -22 (ix)
    00000972 DD 77 F9         [19] 1588 	ld	-7 (ix), a
    00000975 C3r8Ar09         [10] 1589 	jp	00372$
    00000978                       1590 00371$:
    00000978 DD 7E E9         [19] 1591 	ld	a, -23 (ix)
    0000097B DD 96 FA         [19] 1592 	sub	a, -6 (ix)
    0000097E DD 77 F8         [19] 1593 	ld	-8 (ix), a
    00000981 DD 7E EA         [19] 1594 	ld	a, -22 (ix)
    00000984 DD 9E FB         [19] 1595 	sbc	a, -5 (ix)
    00000987 DD 77 F9         [19] 1596 	ld	-7 (ix), a
    0000098A                       1597 00372$:
    0000098A DD 7E F8         [19] 1598 	ld	a, -8 (ix)
    0000098D DD 77 FA         [19] 1599 	ld	-6 (ix), a
    00000990 DD 7E F9         [19] 1600 	ld	a, -7 (ix)
    00000993 DD 77 FB         [19] 1601 	ld	-5 (ix), a
                                   1602 ;E:\Dropbox\FAUSTO\SVILUPPI\MSX\CODE\C\MSXgl\projects\soccerlgMSX2/soccerlg_s6_b3.c:147: if (dist_c_x < 48 && dist_c_y < 48) {
    00000996 DD 7E FC         [19] 1603 	ld	a, -4 (ix)
    00000999 D6 30            [ 7] 1604 	sub	a, #0x30
    0000099B DD 7E FD         [19] 1605 	ld	a, -3 (ix)
    0000099E DE 00            [ 7] 1606 	sbc	a, #0x00
    000009A0 D2r6Ar0C         [10] 1607 	jp	NC, 00190$
    000009A3 DD 7E FA         [19] 1608 	ld	a, -6 (ix)
    000009A6 DD 46 FB         [19] 1609 	ld	b, -5 (ix)
    000009A9 D6 30            [ 7] 1610 	sub	a, #0x30
    000009AB 78               [ 4] 1611 	ld	a, b
    000009AC DE 00            [ 7] 1612 	sbc	a, #0x00
    000009AE D2r6Ar0C         [10] 1613 	jp	NC, 00190$
                                   1614 ;E:\Dropbox\FAUSTO\SVILUPPI\MSX\CODE\C\MSXgl\projects\soccerlgMSX2/soccerlg_s6_b3.c:148: target_x += (target_x > 112) ? 48 : -48;
    000009B1 DD 7E EB         [19] 1615 	ld	a, -21 (ix)
    000009B4 DD 77 FA         [19] 1616 	ld	-6 (ix), a
    000009B7 DD 7E EC         [19] 1617 	ld	a, -20 (ix)
    000009BA DD 77 FB         [19] 1618 	ld	-5 (ix), a
    000009BD 3E 70            [ 7] 1619 	ld	a, #0x70
    000009BF DD BE FA         [19] 1620 	cp	a, -6 (ix)
    000009C2 3E 00            [ 7] 1621 	ld	a, #0x00
    000009C4 DD 9E FB         [19] 1622 	sbc	a, -5 (ix)
    000009C7 30 0B            [12] 1623 	jr	NC, 00373$
    000009C9 DD 36 FC 30      [19] 1624 	ld	-4 (ix), #0x30
    000009CD DD 36 FD 00      [19] 1625 	ld	-3 (ix), #0
    000009D1 C3rDCr09         [10] 1626 	jp	00374$
    000009D4                       1627 00373$:
    000009D4 DD 36 FC D0      [19] 1628 	ld	-4 (ix), #0xd0
    000009D8 DD 36 FD FF      [19] 1629 	ld	-3 (ix), #0xff
    000009DC                       1630 00374$:
    000009DC DD 7E FC         [19] 1631 	ld	a, -4 (ix)
    000009DF DD 77 F8         [19] 1632 	ld	-8 (ix), a
    000009E2 DD 7E FD         [19] 1633 	ld	a, -3 (ix)
    000009E5 DD 77 F9         [19] 1634 	ld	-7 (ix), a
    000009E8 DD 7E FA         [19] 1635 	ld	a, -6 (ix)
    000009EB DD 86 F8         [19] 1636 	add	a, -8 (ix)
    000009EE DD 77 FC         [19] 1637 	ld	-4 (ix), a
    000009F1 DD 7E FB         [19] 1638 	ld	a, -5 (ix)
    000009F4 DD 8E F9         [19] 1639 	adc	a, -7 (ix)
    000009F7 DD 77 FD         [19] 1640 	ld	-3 (ix), a
    000009FA DD 7E FC         [19] 1641 	ld	a, -4 (ix)
    000009FD DD 77 EB         [19] 1642 	ld	-21 (ix), a
    00000A00 DD 7E FD         [19] 1643 	ld	a, -3 (ix)
    00000A03 DD 77 EC         [19] 1644 	ld	-20 (ix), a
                                   1645 ;E:\Dropbox\FAUSTO\SVILUPPI\MSX\CODE\C\MSXgl\projects\soccerlgMSX2/soccerlg_s6_b3.c:149: target_y += (team == TEAM_1) ? 32 : -32; 
    00000A06 DD 7E DD         [19] 1646 	ld	a, -35 (ix)
    00000A09 B7               [ 4] 1647 	or	a, a
    00000A0A 20 0B            [12] 1648 	jr	NZ, 00375$
    00000A0C DD 36 FC 20      [19] 1649 	ld	-4 (ix), #0x20
    00000A10 DD 36 FD 00      [19] 1650 	ld	-3 (ix), #0
    00000A14 C3r1Fr0A         [10] 1651 	jp	00376$
    00000A17                       1652 00375$:
    00000A17 DD 36 FC E0      [19] 1653 	ld	-4 (ix), #0xe0
    00000A1B DD 36 FD FF      [19] 1654 	ld	-3 (ix), #0xff
    00000A1F                       1655 00376$:
    00000A1F DD 7E E9         [19] 1656 	ld	a, -23 (ix)
    00000A22 DD 77 FA         [19] 1657 	ld	-6 (ix), a
    00000A25 DD 7E EA         [19] 1658 	ld	a, -22 (ix)
    00000A28 DD 77 FB         [19] 1659 	ld	-5 (ix), a
    00000A2B DD 7E FC         [19] 1660 	ld	a, -4 (ix)
    00000A2E DD 77 F8         [19] 1661 	ld	-8 (ix), a
    00000A31 DD 7E FD         [19] 1662 	ld	a, -3 (ix)
    00000A34 DD 77 F9         [19] 1663 	ld	-7 (ix), a
    00000A37 DD 7E F8         [19] 1664 	ld	a, -8 (ix)
    00000A3A DD 86 FA         [19] 1665 	add	a, -6 (ix)
    00000A3D DD 77 FC         [19] 1666 	ld	-4 (ix), a
    00000A40 DD 7E F9         [19] 1667 	ld	a, -7 (ix)
    00000A43 DD 8E FB         [19] 1668 	adc	a, -5 (ix)
    00000A46 DD 77 FD         [19] 1669 	ld	-3 (ix), a
    00000A49 DD 7E FC         [19] 1670 	ld	a, -4 (ix)
    00000A4C DD 77 E9         [19] 1671 	ld	-23 (ix), a
    00000A4F DD 7E FD         [19] 1672 	ld	a, -3 (ix)
    00000A52 DD 77 EA         [19] 1673 	ld	-22 (ix), a
    00000A55 C3r6Ar0C         [10] 1674 	jp	00190$
    00000A58                       1675 00189$:
                                   1676 ;E:\Dropbox\FAUSTO\SVILUPPI\MSX\CODE\C\MSXgl\projects\soccerlgMSX2/soccerlg_s6_b3.c:152: } else if (LastTouchTeam != 0xFF) {
    00000A58 3Ar00r00         [13] 1677 	ld	a, (_LastTouchTeam+0)
    00000A5B 3C               [ 4] 1678 	inc	a
    00000A5C CArFBr0B         [10] 1679 	jp	Z,00186$
                                   1680 ;E:\Dropbox\FAUSTO\SVILUPPI\MSX\CODE\C\MSXgl\projects\soccerlgMSX2/soccerlg_s6_b3.c:154: if (role >= 5) { // Attaccanti alti
    00000A5F DD 7E F9         [19] 1681 	ld	a, -7 (ix)
    00000A62 D6 05            [ 7] 1682 	sub	a, #0x05
    00000A64 38 5C            [12] 1683 	jr	C, 00183$
                                   1684 ;E:\Dropbox\FAUSTO\SVILUPPI\MSX\CODE\C\MSXgl\projects\soccerlgMSX2/soccerlg_s6_b3.c:155: target_y = Ball->ly + ((team == TEAM_1) ? -40 : 40);
    00000A66 DD 7E DD         [19] 1685 	ld	a, -35 (ix)
    00000A69 B7               [ 4] 1686 	or	a, a
    00000A6A 20 0B            [12] 1687 	jr	NZ, 00377$
    00000A6C DD 36 FC D8      [19] 1688 	ld	-4 (ix), #0xd8
    00000A70 DD 36 FD FF      [19] 1689 	ld	-3 (ix), #0xff
    00000A74 C3r7Fr0A         [10] 1690 	jp	00378$
    00000A77                       1691 00377$:
    00000A77 DD 36 FC 28      [19] 1692 	ld	-4 (ix), #0x28
    00000A7B DD 36 FD 00      [19] 1693 	ld	-3 (ix), #0
    00000A7F                       1694 00378$:
    00000A7F DD 7E FC         [19] 1695 	ld	a, -4 (ix)
    00000A82 DD 77 FA         [19] 1696 	ld	-6 (ix), a
    00000A85 DD 7E FD         [19] 1697 	ld	a, -3 (ix)
    00000A88 DD 77 FB         [19] 1698 	ld	-5 (ix), a
    00000A8B DD 7E E7         [19] 1699 	ld	a, -25 (ix)
    00000A8E DD 86 FA         [19] 1700 	add	a, -6 (ix)
    00000A91 DD 77 FC         [19] 1701 	ld	-4 (ix), a
    00000A94 DD 7E E8         [19] 1702 	ld	a, -24 (ix)
    00000A97 DD 8E FB         [19] 1703 	adc	a, -5 (ix)
    00000A9A DD 77 FD         [19] 1704 	ld	-3 (ix), a
    00000A9D DD 7E FC         [19] 1705 	ld	a, -4 (ix)
    00000AA0 DD 77 E9         [19] 1706 	ld	-23 (ix), a
    00000AA3 DD 7E FD         [19] 1707 	ld	a, -3 (ix)
    00000AA6 DD 77 EA         [19] 1708 	ld	-22 (ix), a
                                   1709 ;E:\Dropbox\FAUSTO\SVILUPPI\MSX\CODE\C\MSXgl\projects\soccerlgMSX2/soccerlg_s6_b3.c:156: target_x = (role == 5) ? 80 : 144;
    00000AA9 DD 7E F9         [19] 1710 	ld	a, -7 (ix)
    00000AAC D6 05            [ 7] 1711 	sub	a, #0x05
    00000AAE 20 06            [12] 1712 	jr	NZ, 00379$
    00000AB0 01 50 00         [10] 1713 	ld	bc, #0x0050
    00000AB3 C3rB9r0A         [10] 1714 	jp	00380$
    00000AB6                       1715 00379$:
    00000AB6 01 90 00         [10] 1716 	ld	bc, #0x0090
    00000AB9                       1717 00380$:
    00000AB9 DD 71 EB         [19] 1718 	ld	-21 (ix), c
    00000ABC DD 70 EC         [19] 1719 	ld	-20 (ix), b
    00000ABF C3r6Ar0C         [10] 1720 	jp	00190$
    00000AC2                       1721 00183$:
                                   1722 ;E:\Dropbox\FAUSTO\SVILUPPI\MSX\CODE\C\MSXgl\projects\soccerlgMSX2/soccerlg_s6_b3.c:35: i8 look_dx = (Ball->lx > SwSprite[i].lx) ? 1 : ((Ball->lx < SwSprite[i].lx) ? -1 : 0);
    00000AC2 3Ar42r01         [13] 1723 	ld	a, (#(_SwSprite + 322) + 0)
                                   1724 ;E:\Dropbox\FAUSTO\SVILUPPI\MSX\CODE\C\MSXgl\projects\soccerlgMSX2/soccerlg_s6_b3.c:159: target_x = Ball->lx + ((role == 3) ? -32 : 32);
    00000AC5 DD 77 FA         [19] 1725 	ld	-6 (ix), a
    00000AC8 DD 36 FB 00      [19] 1726 	ld	-5 (ix), #0x00
                                   1727 ;E:\Dropbox\FAUSTO\SVILUPPI\MSX\CODE\C\MSXgl\projects\soccerlgMSX2/soccerlg_s6_b3.c:157: } else if (role >= 3) { // Centrocampisti chiudono il centro
    00000ACC DD 7E F9         [19] 1728 	ld	a, -7 (ix)
    00000ACF D6 03            [ 7] 1729 	sub	a, #0x03
    00000AD1 38 73            [12] 1730 	jr	C, 00180$
                                   1731 ;E:\Dropbox\FAUSTO\SVILUPPI\MSX\CODE\C\MSXgl\projects\soccerlgMSX2/soccerlg_s6_b3.c:158: target_y = Ball->ly + ((team == TEAM_1) ? 32 : -32);
    00000AD3 DD 7E DD         [19] 1732 	ld	a, -35 (ix)
    00000AD6 B7               [ 4] 1733 	or	a, a
    00000AD7 20 0B            [12] 1734 	jr	NZ, 00381$
    00000AD9 DD 36 FC 20      [19] 1735 	ld	-4 (ix), #0x20
    00000ADD DD 36 FD 00      [19] 1736 	ld	-3 (ix), #0
    00000AE1 C3rECr0A         [10] 1737 	jp	00382$
    00000AE4                       1738 00381$:
    00000AE4 DD 36 FC E0      [19] 1739 	ld	-4 (ix), #0xe0
    00000AE8 DD 36 FD FF      [19] 1740 	ld	-3 (ix), #0xff
    00000AEC                       1741 00382$:
    00000AEC DD 7E FC         [19] 1742 	ld	a, -4 (ix)
    00000AEF DD 77 F7         [19] 1743 	ld	-9 (ix), a
    00000AF2 DD 7E FD         [19] 1744 	ld	a, -3 (ix)
    00000AF5 DD 77 F8         [19] 1745 	ld	-8 (ix), a
    00000AF8 DD 7E E7         [19] 1746 	ld	a, -25 (ix)
    00000AFB DD 86 F7         [19] 1747 	add	a, -9 (ix)
    00000AFE DD 77 FC         [19] 1748 	ld	-4 (ix), a
    00000B01 DD 7E E8         [19] 1749 	ld	a, -24 (ix)
    00000B04 DD 8E F8         [19] 1750 	adc	a, -8 (ix)
    00000B07 DD 77 FD         [19] 1751 	ld	-3 (ix), a
    00000B0A DD 7E FC         [19] 1752 	ld	a, -4 (ix)
    00000B0D DD 77 E9         [19] 1753 	ld	-23 (ix), a
    00000B10 DD 7E FD         [19] 1754 	ld	a, -3 (ix)
    00000B13 DD 77 EA         [19] 1755 	ld	-22 (ix), a
                                   1756 ;E:\Dropbox\FAUSTO\SVILUPPI\MSX\CODE\C\MSXgl\projects\soccerlgMSX2/soccerlg_s6_b3.c:159: target_x = Ball->lx + ((role == 3) ? -32 : 32);
    00000B16 DD 7E F9         [19] 1757 	ld	a, -7 (ix)
    00000B19 D6 03            [ 7] 1758 	sub	a, #0x03
    00000B1B 20 0B            [12] 1759 	jr	NZ, 00383$
    00000B1D DD 36 FC E0      [19] 1760 	ld	-4 (ix), #0xe0
    00000B21 DD 36 FD FF      [19] 1761 	ld	-3 (ix), #0xff
    00000B25 C3r30r0B         [10] 1762 	jp	00384$
    00000B28                       1763 00383$:
    00000B28 DD 36 FC 20      [19] 1764 	ld	-4 (ix), #0x20
    00000B2C DD 36 FD 00      [19] 1765 	ld	-3 (ix), #0
    00000B30                       1766 00384$:
    00000B30 DD 7E FC         [19] 1767 	ld	a, -4 (ix)
    00000B33 DD 86 FA         [19] 1768 	add	a, -6 (ix)
    00000B36 4F               [ 4] 1769 	ld	c, a
    00000B37 DD 7E FD         [19] 1770 	ld	a, -3 (ix)
    00000B3A DD 8E FB         [19] 1771 	adc	a, -5 (ix)
    00000B3D DD 71 EB         [19] 1772 	ld	-21 (ix), c
    00000B40 DD 77 EC         [19] 1773 	ld	-20 (ix), a
    00000B43 C3r6Ar0C         [10] 1774 	jp	00190$
    00000B46                       1775 00180$:
                                   1776 ;E:\Dropbox\FAUSTO\SVILUPPI\MSX\CODE\C\MSXgl\projects\soccerlgMSX2/soccerlg_s6_b3.c:161: target_y = Ball->ly + ((team == TEAM_1) ? 80 : -80);
    00000B46 DD 7E DD         [19] 1777 	ld	a, -35 (ix)
    00000B49 B7               [ 4] 1778 	or	a, a
    00000B4A 20 0B            [12] 1779 	jr	NZ, 00385$
    00000B4C DD 36 FC 50      [19] 1780 	ld	-4 (ix), #0x50
    00000B50 DD 36 FD 00      [19] 1781 	ld	-3 (ix), #0
    00000B54 C3r5Fr0B         [10] 1782 	jp	00386$
    00000B57                       1783 00385$:
    00000B57 DD 36 FC B0      [19] 1784 	ld	-4 (ix), #0xb0
    00000B5B DD 36 FD FF      [19] 1785 	ld	-3 (ix), #0xff
    00000B5F                       1786 00386$:
    00000B5F DD 7E FC         [19] 1787 	ld	a, -4 (ix)
    00000B62 DD 77 F7         [19] 1788 	ld	-9 (ix), a
    00000B65 DD 7E FD         [19] 1789 	ld	a, -3 (ix)
    00000B68 DD 77 F8         [19] 1790 	ld	-8 (ix), a
    00000B6B DD 7E E7         [19] 1791 	ld	a, -25 (ix)
    00000B6E DD 86 F7         [19] 1792 	add	a, -9 (ix)
    00000B71 DD 77 FC         [19] 1793 	ld	-4 (ix), a
    00000B74 DD 7E E8         [19] 1794 	ld	a, -24 (ix)
    00000B77 DD 8E F8         [19] 1795 	adc	a, -8 (ix)
    00000B7A DD 77 FD         [19] 1796 	ld	-3 (ix), a
    00000B7D DD 7E FC         [19] 1797 	ld	a, -4 (ix)
    00000B80 DD 77 E9         [19] 1798 	ld	-23 (ix), a
    00000B83 DD 7E FD         [19] 1799 	ld	a, -3 (ix)
    00000B86 DD 77 EA         [19] 1800 	ld	-22 (ix), a
                                   1801 ;E:\Dropbox\FAUSTO\SVILUPPI\MSX\CODE\C\MSXgl\projects\soccerlgMSX2/soccerlg_s6_b3.c:162: target_x = Ball->lx + ((role == 1) ? -24 : 24);
    00000B89 DD 7E F9         [19] 1802 	ld	a, -7 (ix)
    00000B8C 3D               [ 4] 1803 	dec	a
    00000B8D 20 0B            [12] 1804 	jr	NZ, 00387$
    00000B8F DD 36 FC E8      [19] 1805 	ld	-4 (ix), #0xe8
    00000B93 DD 36 FD FF      [19] 1806 	ld	-3 (ix), #0xff
    00000B97 C3rA2r0B         [10] 1807 	jp	00388$
    00000B9A                       1808 00387$:
    00000B9A DD 36 FC 18      [19] 1809 	ld	-4 (ix), #0x18
    00000B9E DD 36 FD 00      [19] 1810 	ld	-3 (ix), #0
    00000BA2                       1811 00388$:
    00000BA2 DD 7E FC         [19] 1812 	ld	a, -4 (ix)
    00000BA5 DD 86 FA         [19] 1813 	add	a, -6 (ix)
    00000BA8 4F               [ 4] 1814 	ld	c, a
    00000BA9 DD 7E FD         [19] 1815 	ld	a, -3 (ix)
    00000BAC DD 8E FB         [19] 1816 	adc	a, -5 (ix)
    00000BAF DD 71 EB         [19] 1817 	ld	-21 (ix), c
    00000BB2 DD 77 EC         [19] 1818 	ld	-20 (ix), a
                                   1819 ;E:\Dropbox\FAUSTO\SVILUPPI\MSX\CODE\C\MSXgl\projects\soccerlgMSX2/soccerlg_s6_b3.c:165: if (team == TEAM_1 && target_y < 72) target_y = 72;
    00000BB5 DD 7E DD         [19] 1820 	ld	a, -35 (ix)
    00000BB8 B7               [ 4] 1821 	or	a, a
    00000BB9 20 20            [12] 1822 	jr	NZ, 00174$
    00000BBB DD 7E E9         [19] 1823 	ld	a, -23 (ix)
    00000BBE DD 77 FC         [19] 1824 	ld	-4 (ix), a
    00000BC1 DD 7E EA         [19] 1825 	ld	a, -22 (ix)
    00000BC4 DD 77 FD         [19] 1826 	ld	-3 (ix), a
    00000BC7 DD 7E FC         [19] 1827 	ld	a, -4 (ix)
    00000BCA D6 48            [ 7] 1828 	sub	a, #0x48
    00000BCC DD 7E FD         [19] 1829 	ld	a, -3 (ix)
    00000BCF DE 00            [ 7] 1830 	sbc	a, #0x00
    00000BD1 30 08            [12] 1831 	jr	NC, 00174$
    00000BD3 DD 36 E9 48      [19] 1832 	ld	-23 (ix), #0x48
    00000BD7 DD 36 EA 00      [19] 1833 	ld	-22 (ix), #0
    00000BDB                       1834 00174$:
                                   1835 ;E:\Dropbox\FAUSTO\SVILUPPI\MSX\CODE\C\MSXgl\projects\soccerlgMSX2/soccerlg_s6_b3.c:166: if (team == TEAM_2 && target_y > 440) target_y = 440;
    00000BDB DD 7E DD         [19] 1836 	ld	a, -35 (ix)
    00000BDE 3D               [ 4] 1837 	dec	a
    00000BDF C2r6Ar0C         [10] 1838 	jp	NZ,00190$
    00000BE2 DD 4E E9         [19] 1839 	ld	c, -23 (ix)
    00000BE5 DD 46 EA         [19] 1840 	ld	b, -22 (ix)
    00000BE8 3E B8            [ 7] 1841 	ld	a, #0xb8
    00000BEA B9               [ 4] 1842 	cp	a, c
    00000BEB 3E 01            [ 7] 1843 	ld	a, #0x01
    00000BED 98               [ 4] 1844 	sbc	a, b
    00000BEE 30 7A            [12] 1845 	jr	NC, 00190$
    00000BF0 DD 36 E9 B8      [19] 1846 	ld	-23 (ix), #0xb8
    00000BF4 DD 36 EA 01      [19] 1847 	ld	-22 (ix), #0x01
    00000BF8 C3r6Ar0C         [10] 1848 	jp	00190$
    00000BFB                       1849 00186$:
                                   1850 ;E:\Dropbox\FAUSTO\SVILUPPI\MSX\CODE\C\MSXgl\projects\soccerlgMSX2/soccerlg_s6_b3.c:170: target_x = (role % 2 == 1) ? 80 : 144;
    00000BFB DD 7E F9         [19] 1851 	ld	a, -7 (ix)
    00000BFE E6 01            [ 7] 1852 	and	a, #0x01
    00000C00 4F               [ 4] 1853 	ld	c, a
    00000C01 06 00            [ 7] 1854 	ld	b, #0x00
    00000C03 79               [ 4] 1855 	ld	a, c
    00000C04 3D               [ 4] 1856 	dec	a
    00000C05 B0               [ 4] 1857 	or	a, b
    00000C06 20 0B            [12] 1858 	jr	NZ, 00389$
    00000C08 DD 36 FC 50      [19] 1859 	ld	-4 (ix), #0x50
    00000C0C DD 36 FD 00      [19] 1860 	ld	-3 (ix), #0
    00000C10 C3r1Br0C         [10] 1861 	jp	00390$
    00000C13                       1862 00389$:
    00000C13 DD 36 FC 90      [19] 1863 	ld	-4 (ix), #0x90
    00000C17 DD 36 FD 00      [19] 1864 	ld	-3 (ix), #0
    00000C1B                       1865 00390$:
    00000C1B DD 7E FC         [19] 1866 	ld	a, -4 (ix)
    00000C1E DD 77 EB         [19] 1867 	ld	-21 (ix), a
    00000C21 DD 7E FD         [19] 1868 	ld	a, -3 (ix)
    00000C24 DD 77 EC         [19] 1869 	ld	-20 (ix), a
                                   1870 ;E:\Dropbox\FAUSTO\SVILUPPI\MSX\CODE\C\MSXgl\projects\soccerlgMSX2/soccerlg_s6_b3.c:171: target_y = Ball->ly + ((team == TEAM_1) ? -32 : 32);
    00000C27 DD 7E DD         [19] 1871 	ld	a, -35 (ix)
    00000C2A B7               [ 4] 1872 	or	a, a
    00000C2B 20 0B            [12] 1873 	jr	NZ, 00391$
    00000C2D DD 36 FC E0      [19] 1874 	ld	-4 (ix), #0xe0
    00000C31 DD 36 FD FF      [19] 1875 	ld	-3 (ix), #0xff
    00000C35 C3r40r0C         [10] 1876 	jp	00392$
    00000C38                       1877 00391$:
    00000C38 DD 36 FC 20      [19] 1878 	ld	-4 (ix), #0x20
    00000C3C DD 36 FD 00      [19] 1879 	ld	-3 (ix), #0
    00000C40                       1880 00392$:
    00000C40 DD 7E FC         [19] 1881 	ld	a, -4 (ix)
    00000C43 DD 77 FA         [19] 1882 	ld	-6 (ix), a
    00000C46 DD 7E FD         [19] 1883 	ld	a, -3 (ix)
    00000C49 DD 77 FB         [19] 1884 	ld	-5 (ix), a
    00000C4C DD 7E E7         [19] 1885 	ld	a, -25 (ix)
    00000C4F DD 86 FA         [19] 1886 	add	a, -6 (ix)
    00000C52 DD 77 FC         [19] 1887 	ld	-4 (ix), a
    00000C55 DD 7E E8         [19] 1888 	ld	a, -24 (ix)
    00000C58 DD 8E FB         [19] 1889 	adc	a, -5 (ix)
    00000C5B DD 77 FD         [19] 1890 	ld	-3 (ix), a
    00000C5E DD 7E FC         [19] 1891 	ld	a, -4 (ix)
    00000C61 DD 77 E9         [19] 1892 	ld	-23 (ix), a
    00000C64 DD 7E FD         [19] 1893 	ld	a, -3 (ix)
    00000C67 DD 77 EA         [19] 1894 	ld	-22 (ix), a
    00000C6A                       1895 00190$:
                                   1896 ;E:\Dropbox\FAUSTO\SVILUPPI\MSX\CODE\C\MSXgl\projects\soccerlgMSX2/soccerlg_s6_b3.c:50: Player->lx += Player->dx;
    00000C6A DD 7E DB         [19] 1897 	ld	a, -37 (ix)
    00000C6D C6 11            [ 7] 1898 	add	a, #0x11
    00000C6F DD 77 ED         [19] 1899 	ld	-19 (ix), a
    00000C72 DD 7E DC         [19] 1900 	ld	a, -36 (ix)
    00000C75 CE 00            [ 7] 1901 	adc	a, #0x00
    00000C77 DD 77 EE         [19] 1902 	ld	-18 (ix), a
                                   1903 ;E:\Dropbox\FAUSTO\SVILUPPI\MSX\CODE\C\MSXgl\projects\soccerlgMSX2/soccerlg_s6_b3.c:51: Player->ly += Player->dy;
    00000C7A DD 7E DB         [19] 1904 	ld	a, -37 (ix)
    00000C7D C6 04            [ 7] 1905 	add	a, #0x04
    00000C7F DD 77 EF         [19] 1906 	ld	-17 (ix), a
    00000C82 DD 7E DC         [19] 1907 	ld	a, -36 (ix)
    00000C85 CE 00            [ 7] 1908 	adc	a, #0x00
    00000C87 DD 77 F0         [19] 1909 	ld	-16 (ix), a
    00000C8A DD 7E DB         [19] 1910 	ld	a, -37 (ix)
    00000C8D C6 12            [ 7] 1911 	add	a, #0x12
    00000C8F DD 77 F1         [19] 1912 	ld	-15 (ix), a
    00000C92 DD 7E DC         [19] 1913 	ld	a, -36 (ix)
    00000C95 CE 00            [ 7] 1914 	adc	a, #0x00
    00000C97 DD 77 F2         [19] 1915 	ld	-14 (ix), a
                                   1916 ;E:\Dropbox\FAUSTO\SVILUPPI\MSX\CODE\C\MSXgl\projects\soccerlgMSX2/soccerlg_s6_b3.c:175: if (LastTouchTeam != team && i == closest_mate) {
    00000C9A DD 4E FE         [19] 1917 	ld	c, -2 (ix)
    00000C9D CB 41            [ 8] 1918 	bit	0, c
    00000C9F C2rD6r10         [10] 1919 	jp	NZ, 00232$
    00000CA2 DD 7E FF         [19] 1920 	ld	a, -1 (ix)
    00000CA5 DD 96 E2         [19] 1921 	sub	a, -30 (ix)
    00000CA8 C2rD6r10         [10] 1922 	jp	NZ,00232$
                                   1923 ;E:\Dropbox\FAUSTO\SVILUPPI\MSX\CODE\C\MSXgl\projects\soccerlgMSX2/soccerlg_s6_b3.c:176: u16 b_dist_x = (Player->lx > Ball->lx) ? (Player->lx - Ball->lx) : (Ball->lx - Player->lx);
    00000CAB DD 6E DB         [19] 1924 	ld	l, -37 (ix)
    00000CAE DD 66 DC         [19] 1925 	ld	h, -36 (ix)
    00000CB1 7E               [ 7] 1926 	ld	a, (hl)
    00000CB2 DD 77 FE         [19] 1927 	ld	-2 (ix), a
    00000CB5 3Ar42r01         [13] 1928 	ld	a, (#(_SwSprite + 322) + 0)
    00000CB8 DD 77 F3         [19] 1929 	ld	-13 (ix), a
    00000CBB DD 7E FE         [19] 1930 	ld	a, -2 (ix)
    00000CBE DD 77 FB         [19] 1931 	ld	-5 (ix), a
    00000CC1 DD 36 FC 00      [19] 1932 	ld	-4 (ix), #0x00
    00000CC5 DD 7E F3         [19] 1933 	ld	a, -13 (ix)
    00000CC8 DD 77 F4         [19] 1934 	ld	-12 (ix), a
    00000CCB DD 36 F5 00      [19] 1935 	ld	-11 (ix), #0x00
    00000CCF DD 7E F3         [19] 1936 	ld	a, -13 (ix)
    00000CD2 DD 96 FE         [19] 1937 	sub	a, -2 (ix)
    00000CD5 30 15            [12] 1938 	jr	NC, 00393$
    00000CD7 DD 7E FB         [19] 1939 	ld	a, -5 (ix)
    00000CDA DD 96 F4         [19] 1940 	sub	a, -12 (ix)
    00000CDD DD 77 FD         [19] 1941 	ld	-3 (ix), a
    00000CE0 DD 7E FC         [19] 1942 	ld	a, -4 (ix)
    00000CE3 DD 9E F5         [19] 1943 	sbc	a, -11 (ix)
    00000CE6 DD 77 FE         [19] 1944 	ld	-2 (ix), a
    00000CE9 C3rFEr0C         [10] 1945 	jp	00394$
    00000CEC                       1946 00393$:
    00000CEC DD 7E F4         [19] 1947 	ld	a, -12 (ix)
    00000CEF DD 96 FB         [19] 1948 	sub	a, -5 (ix)
    00000CF2 DD 77 FD         [19] 1949 	ld	-3 (ix), a
    00000CF5 DD 7E F5         [19] 1950 	ld	a, -11 (ix)
    00000CF8 DD 9E FC         [19] 1951 	sbc	a, -4 (ix)
    00000CFB DD 77 FE         [19] 1952 	ld	-2 (ix), a
    00000CFE                       1953 00394$:
    00000CFE DD 7E FD         [19] 1954 	ld	a, -3 (ix)
    00000D01 DD 77 F6         [19] 1955 	ld	-10 (ix), a
    00000D04 DD 7E FE         [19] 1956 	ld	a, -2 (ix)
    00000D07 DD 77 F7         [19] 1957 	ld	-9 (ix), a
                                   1958 ;E:\Dropbox\FAUSTO\SVILUPPI\MSX\CODE\C\MSXgl\projects\soccerlgMSX2/soccerlg_s6_b3.c:177: u16 b_dist_y = (Player->ly > Ball->ly) ? (Player->ly - Ball->ly) : (Ball->ly - Player->ly);
    00000D0A DD 6E EF         [19] 1959 	ld	l, -17 (ix)
    00000D0D DD 66 F0         [19] 1960 	ld	h, -16 (ix)
    00000D10 7E               [ 7] 1961 	ld	a, (hl)
    00000D11 DD 77 FB         [19] 1962 	ld	-5 (ix), a
    00000D14 23               [ 6] 1963 	inc	hl
    00000D15 7E               [ 7] 1964 	ld	a, (hl)
    00000D16 DD 77 FC         [19] 1965 	ld	-4 (ix), a
    00000D19 DD 7E E5         [19] 1966 	ld	a, -27 (ix)
    00000D1C DD 96 FB         [19] 1967 	sub	a, -5 (ix)
    00000D1F DD 7E E6         [19] 1968 	ld	a, -26 (ix)
    00000D22 DD 9E FC         [19] 1969 	sbc	a, -4 (ix)
    00000D25 30 15            [12] 1970 	jr	NC, 00395$
    00000D27 DD 7E FB         [19] 1971 	ld	a, -5 (ix)
    00000D2A DD 96 E5         [19] 1972 	sub	a, -27 (ix)
    00000D2D DD 77 FD         [19] 1973 	ld	-3 (ix), a
    00000D30 DD 7E FC         [19] 1974 	ld	a, -4 (ix)
    00000D33 DD 9E E6         [19] 1975 	sbc	a, -26 (ix)
    00000D36 DD 77 FE         [19] 1976 	ld	-2 (ix), a
    00000D39 C3r4Er0D         [10] 1977 	jp	00396$
    00000D3C                       1978 00395$:
    00000D3C DD 7E E5         [19] 1979 	ld	a, -27 (ix)
    00000D3F DD 96 FB         [19] 1980 	sub	a, -5 (ix)
    00000D42 DD 77 FD         [19] 1981 	ld	-3 (ix), a
    00000D45 DD 7E E6         [19] 1982 	ld	a, -26 (ix)
    00000D48 DD 9E FC         [19] 1983 	sbc	a, -4 (ix)
    00000D4B DD 77 FE         [19] 1984 	ld	-2 (ix), a
    00000D4E                       1985 00396$:
    00000D4E DD 7E FD         [19] 1986 	ld	a, -3 (ix)
    00000D51 DD 77 F8         [19] 1987 	ld	-8 (ix), a
    00000D54 DD 7E FE         [19] 1988 	ld	a, -2 (ix)
    00000D57 DD 77 F9         [19] 1989 	ld	-7 (ix), a
                                   1990 ;E:\Dropbox\FAUSTO\SVILUPPI\MSX\CODE\C\MSXgl\projects\soccerlgMSX2/soccerlg_s6_b3.c:180: u16 press_radius = 24 + (g_ActiveStats[team].aggro_defense * 8);
    00000D5A DD 4E DD         [19] 1991 	ld	c, -35 (ix)
    00000D5D 06 00            [ 7] 1992 	ld	b, #0x00
    00000D5F 69               [ 4] 1993 	ld	l, c
    00000D60 60               [ 4] 1994 	ld	h, b
    00000D61 29               [11] 1995 	add	hl, hl
    00000D62 09               [11] 1996 	add	hl, bc
    00000D63 29               [11] 1997 	add	hl, hl
    00000D64 09               [11] 1998 	add	hl, bc
    00000D65 DD 75 FB         [19] 1999 	ld	-5 (ix), l
    00000D68 DD 74 FC         [19] 2000 	ld	-4 (ix), h
    00000D6B 3Er00            [ 7] 2001 	ld	a, #<(_g_ActiveStats)
    00000D6D DD 86 FB         [19] 2002 	add	a, -5 (ix)
    00000D70 DD 77 FD         [19] 2003 	ld	-3 (ix), a
    00000D73 3Es00            [ 7] 2004 	ld	a, #>(_g_ActiveStats)
    00000D75 DD 8E FC         [19] 2005 	adc	a, -4 (ix)
    00000D78 DD 77 FE         [19] 2006 	ld	-2 (ix), a
    00000D7B DD 6E FD         [19] 2007 	ld	l, -3 (ix)
    00000D7E DD 66 FE         [19] 2008 	ld	h, -2 (ix)
    00000D81 11 04 00         [10] 2009 	ld	de, #0x0004
    00000D84 19               [11] 2010 	add	hl, de
    00000D85 7E               [ 7] 2011 	ld	a, (hl)
    00000D86 DD 77 FA         [19] 2012 	ld	-6 (ix), a
    00000D89 DD 77 FD         [19] 2013 	ld	-3 (ix), a
    00000D8C DD 36 FE 00      [19] 2014 	ld	-2 (ix), #0x00
    00000D90 DD 7E FD         [19] 2015 	ld	a, -3 (ix)
    00000D93 DD 77 FB         [19] 2016 	ld	-5 (ix), a
    00000D96 DD 7E FE         [19] 2017 	ld	a, -2 (ix)
    00000D99 DD 77 FC         [19] 2018 	ld	-4 (ix), a
    00000D9C 06 03            [ 7] 2019 	ld	b, #0x03
    00000D9E                       2020 01358$:
    00000D9E DD CB FB 26      [23] 2021 	sla	-5 (ix)
    00000DA2 DD CB FC 16      [23] 2022 	rl	-4 (ix)
    00000DA6 10 F6            [13] 2023 	djnz	01358$
    00000DA8 DD 7E FB         [19] 2024 	ld	a, -5 (ix)
    00000DAB C6 18            [ 7] 2025 	add	a, #0x18
    00000DAD DD 77 FD         [19] 2026 	ld	-3 (ix), a
    00000DB0 DD 7E FC         [19] 2027 	ld	a, -4 (ix)
    00000DB3 CE 00            [ 7] 2028 	adc	a, #0x00
    00000DB5 DD 77 FE         [19] 2029 	ld	-2 (ix), a
                                   2030 ;E:\Dropbox\FAUSTO\SVILUPPI\MSX\CODE\C\MSXgl\projects\soccerlgMSX2/soccerlg_s6_b3.c:152: } else if (LastTouchTeam != 0xFF) {
    00000DB8 3Ar00r00         [13] 2031 	ld	a, (_LastTouchTeam+0)
    00000DBB 3C               [ 4] 2032 	inc	a
    00000DBC 3E 01            [ 7] 2033 	ld	a, #0x01
    00000DBE 28 01            [12] 2034 	jr	Z, 01360$
    00000DC0 AF               [ 4] 2035 	xor	a, a
    00000DC1                       2036 01360$:
                                   2037 ;E:\Dropbox\FAUSTO\SVILUPPI\MSX\CODE\C\MSXgl\projects\soccerlgMSX2/soccerlg_s6_b3.c:181: if (LastTouchTeam == 0xFF) press_radius = 500; // Palla libera: vai sempre a prenderla!
    00000DC1 DD 77 FC         [19] 2038 	ld	-4 (ix), a
    00000DC4 B7               [ 4] 2039 	or	a, a
    00000DC5 28 08            [12] 2040 	jr	Z, 00192$
    00000DC7 DD 36 FD F4      [19] 2041 	ld	-3 (ix), #0xf4
    00000DCB DD 36 FE 01      [19] 2042 	ld	-2 (ix), #0x01
    00000DCF                       2043 00192$:
                                   2044 ;E:\Dropbox\FAUSTO\SVILUPPI\MSX\CODE\C\MSXgl\projects\soccerlgMSX2/soccerlg_s6_b3.c:184: if (LastTouchTeam != 0xFF) {
    00000DCF DD CB FC 46      [20] 2045 	bit	0, -4 (ix)
    00000DD3 20 5C            [12] 2046 	jr	NZ, 00200$
                                   2047 ;E:\Dropbox\FAUSTO\SVILUPPI\MSX\CODE\C\MSXgl\projects\soccerlgMSX2/soccerlg_s6_b3.c:185: if (team == TEAM_1 && Ball->ly < 192) press_radius += 32;
    00000DD5 DD 7E DD         [19] 2048 	ld	a, -35 (ix)
    00000DD8 B7               [ 4] 2049 	or	a, a
    00000DD9 20 28            [12] 2050 	jr	NZ, 00194$
    00000DDB DD 7E E7         [19] 2051 	ld	a, -25 (ix)
    00000DDE D6 C0            [ 7] 2052 	sub	a, #0xc0
    00000DE0 DD 7E E8         [19] 2053 	ld	a, -24 (ix)
    00000DE3 DE 00            [ 7] 2054 	sbc	a, #0x00
    00000DE5 30 1C            [12] 2055 	jr	NC, 00194$
    00000DE7 DD 7E FD         [19] 2056 	ld	a, -3 (ix)
    00000DEA DD 77 FB         [19] 2057 	ld	-5 (ix), a
    00000DED DD 7E FE         [19] 2058 	ld	a, -2 (ix)
    00000DF0 DD 77 FC         [19] 2059 	ld	-4 (ix), a
    00000DF3 DD 7E FB         [19] 2060 	ld	a, -5 (ix)
    00000DF6 C6 20            [ 7] 2061 	add	a, #0x20
    00000DF8 DD 77 FD         [19] 2062 	ld	-3 (ix), a
    00000DFB DD 7E FC         [19] 2063 	ld	a, -4 (ix)
    00000DFE CE 00            [ 7] 2064 	adc	a, #0x00
    00000E00 DD 77 FE         [19] 2065 	ld	-2 (ix), a
    00000E03                       2066 00194$:
                                   2067 ;E:\Dropbox\FAUSTO\SVILUPPI\MSX\CODE\C\MSXgl\projects\soccerlgMSX2/soccerlg_s6_b3.c:186: if (team == TEAM_2 && Ball->ly > 320) press_radius += 32;
    00000E03 DD 7E DD         [19] 2068 	ld	a, -35 (ix)
    00000E06 3D               [ 4] 2069 	dec	a
    00000E07 20 28            [12] 2070 	jr	NZ, 00200$
    00000E09 3E 40            [ 7] 2071 	ld	a, #0x40
    00000E0B DD BE E7         [19] 2072 	cp	a, -25 (ix)
    00000E0E 3E 01            [ 7] 2073 	ld	a, #0x01
    00000E10 DD 9E E8         [19] 2074 	sbc	a, -24 (ix)
    00000E13 30 1C            [12] 2075 	jr	NC, 00200$
    00000E15 DD 7E FD         [19] 2076 	ld	a, -3 (ix)
    00000E18 DD 77 E7         [19] 2077 	ld	-25 (ix), a
    00000E1B DD 7E FE         [19] 2078 	ld	a, -2 (ix)
    00000E1E DD 77 E8         [19] 2079 	ld	-24 (ix), a
    00000E21 DD 7E E7         [19] 2080 	ld	a, -25 (ix)
    00000E24 C6 20            [ 7] 2081 	add	a, #0x20
    00000E26 DD 77 FD         [19] 2082 	ld	-3 (ix), a
    00000E29 DD 7E E8         [19] 2083 	ld	a, -24 (ix)
    00000E2C CE 00            [ 7] 2084 	adc	a, #0x00
    00000E2E DD 77 FE         [19] 2085 	ld	-2 (ix), a
    00000E31                       2086 00200$:
                                   2087 ;E:\Dropbox\FAUSTO\SVILUPPI\MSX\CODE\C\MSXgl\projects\soccerlgMSX2/soccerlg_s6_b3.c:189: if (b_dist_x < press_radius && b_dist_y < press_radius) {
    00000E31 DD 7E F6         [19] 2088 	ld	a, -10 (ix)
    00000E34 DD 96 FD         [19] 2089 	sub	a, -3 (ix)
    00000E37 DD 7E F7         [19] 2090 	ld	a, -9 (ix)
    00000E3A DD 9E FE         [19] 2091 	sbc	a, -2 (ix)
    00000E3D D2rD6r10         [10] 2092 	jp	NC, 00232$
    00000E40 DD 7E F8         [19] 2093 	ld	a, -8 (ix)
    00000E43 DD 96 FD         [19] 2094 	sub	a, -3 (ix)
    00000E46 DD 7E F9         [19] 2095 	ld	a, -7 (ix)
    00000E49 DD 9E FE         [19] 2096 	sbc	a, -2 (ix)
    00000E4C D2rD6r10         [10] 2097 	jp	NC, 00232$
                                   2098 ;E:\Dropbox\FAUSTO\SVILUPPI\MSX\CODE\C\MSXgl\projects\soccerlgMSX2/soccerlg_s6_b3.c:190: target_x = Ball->lx;
    00000E4F DD 7E F3         [19] 2099 	ld	a, -13 (ix)
    00000E52 DD 77 EB         [19] 2100 	ld	-21 (ix), a
    00000E55 DD 36 EC 00      [19] 2101 	ld	-20 (ix), #0x00
                                   2102 ;E:\Dropbox\FAUSTO\SVILUPPI\MSX\CODE\C\MSXgl\projects\soccerlgMSX2/soccerlg_s6_b3.c:191: target_y = Ball->ly;
    00000E59 DD 7E E5         [19] 2103 	ld	a, -27 (ix)
    00000E5C DD 4E E6         [19] 2104 	ld	c, -26 (ix)
    00000E5F DD 77 E9         [19] 2105 	ld	-23 (ix), a
    00000E62 DD 71 EA         [19] 2106 	ld	-22 (ix), c
                                   2107 ;E:\Dropbox\FAUSTO\SVILUPPI\MSX\CODE\C\MSXgl\projects\soccerlgMSX2/soccerlg_s6_b3.c:193: bool is_ball_carried = FALSE;
    00000E65 DD 36 FE 00      [19] 2108 	ld	-2 (ix), #0x00
                                   2109 ;E:\Dropbox\FAUSTO\SVILUPPI\MSX\CODE\C\MSXgl\projects\soccerlgMSX2/soccerlg_s6_b3.c:194: if (LastTouchPlayer != 0xFF && Ball->anim < 5) {
    00000E69 3Ar00r00         [13] 2110 	ld	a, (_LastTouchPlayer+0)
    00000E6C 3C               [ 4] 2111 	inc	a
    00000E6D CAr6Cr0F         [10] 2112 	jp	Z,00205$
    00000E70 DD 7E D9         [19] 2113 	ld	a, -39 (ix)
    00000E73 D6 05            [ 7] 2114 	sub	a, #0x05
    00000E75 DD 7E DA         [19] 2115 	ld	a, -38 (ix)
    00000E78 DE 00            [ 7] 2116 	sbc	a, #0x00
    00000E7A D2r6Cr0F         [10] 2117 	jp	NC, 00205$
                                   2118 ;E:\Dropbox\FAUSTO\SVILUPPI\MSX\CODE\C\MSXgl\projects\soccerlgMSX2/soccerlg_s6_b3.c:195: u16 c_dist_x = (SwSprite[LastTouchPlayer].lx > Ball->lx) ? (SwSprite[LastTouchPlayer].lx - Ball->lx) : (Ball->lx - SwSprite[LastTouchPlayer].lx);
    00000E7D ED 4Br00r00      [20] 2119 	ld	bc, (_LastTouchPlayer)
    00000E81 06 00            [ 7] 2120 	ld	b, #0x00
    00000E83 69               [ 4] 2121 	ld	l, c
    00000E84 60               [ 4] 2122 	ld	h, b
    00000E85 29               [11] 2123 	add	hl, hl
    00000E86 29               [11] 2124 	add	hl, hl
    00000E87 09               [11] 2125 	add	hl, bc
    00000E88 29               [11] 2126 	add	hl, hl
    00000E89 09               [11] 2127 	add	hl, bc
    00000E8A 29               [11] 2128 	add	hl, hl
    00000E8B 09               [11] 2129 	add	hl, bc
    00000E8C DD 75 FC         [19] 2130 	ld	-4 (ix), l
    00000E8F DD 74 FD         [19] 2131 	ld	-3 (ix), h
    00000E92 3Er00            [ 7] 2132 	ld	a, #<(_SwSprite)
    00000E94 DD 86 FC         [19] 2133 	add	a, -4 (ix)
    00000E97 DD 77 E7         [19] 2134 	ld	-25 (ix), a
    00000E9A 3Es00            [ 7] 2135 	ld	a, #>(_SwSprite)
    00000E9C DD 8E FD         [19] 2136 	adc	a, -3 (ix)
    00000E9F DD 77 E8         [19] 2137 	ld	-24 (ix), a
    00000EA2 DD 6E E7         [19] 2138 	ld	l, -25 (ix)
    00000EA5 DD 66 E8         [19] 2139 	ld	h, -24 (ix)
    00000EA8 7E               [ 7] 2140 	ld	a, (hl)
    00000EA9 DD 77 FB         [19] 2141 	ld	-5 (ix), a
    00000EAC DD 77 FC         [19] 2142 	ld	-4 (ix), a
    00000EAF DD 36 FD 00      [19] 2143 	ld	-3 (ix), #0x00
    00000EB3 DD 7E F3         [19] 2144 	ld	a, -13 (ix)
    00000EB6 DD 96 FB         [19] 2145 	sub	a, -5 (ix)
    00000EB9 30 15            [12] 2146 	jr	NC, 00397$
    00000EBB DD 7E FC         [19] 2147 	ld	a, -4 (ix)
    00000EBE DD 96 F4         [19] 2148 	sub	a, -12 (ix)
    00000EC1 DD 77 D9         [19] 2149 	ld	-39 (ix), a
    00000EC4 DD 7E FD         [19] 2150 	ld	a, -3 (ix)
    00000EC7 DD 9E F5         [19] 2151 	sbc	a, -11 (ix)
    00000ECA DD 77 DA         [19] 2152 	ld	-38 (ix), a
    00000ECD C3rE2r0E         [10] 2153 	jp	00398$
    00000ED0                       2154 00397$:
    00000ED0 DD 7E F4         [19] 2155 	ld	a, -12 (ix)
    00000ED3 DD 96 FC         [19] 2156 	sub	a, -4 (ix)
    00000ED6 DD 77 D9         [19] 2157 	ld	-39 (ix), a
    00000ED9 DD 7E F5         [19] 2158 	ld	a, -11 (ix)
    00000EDC DD 9E FD         [19] 2159 	sbc	a, -3 (ix)
    00000EDF DD 77 DA         [19] 2160 	ld	-38 (ix), a
    00000EE2                       2161 00398$:
    00000EE2 DD 7E D9         [19] 2162 	ld	a, -39 (ix)
    00000EE5 DD 77 FC         [19] 2163 	ld	-4 (ix), a
    00000EE8 DD 7E DA         [19] 2164 	ld	a, -38 (ix)
    00000EEB DD 77 FD         [19] 2165 	ld	-3 (ix), a
                                   2166 ;E:\Dropbox\FAUSTO\SVILUPPI\MSX\CODE\C\MSXgl\projects\soccerlgMSX2/soccerlg_s6_b3.c:196: u16 c_dist_y = (SwSprite[LastTouchPlayer].ly > Ball->ly) ? (SwSprite[LastTouchPlayer].ly - Ball->ly) : (Ball->ly - SwSprite[LastTouchPlayer].ly);
    00000EEE DD 7E E7         [19] 2167 	ld	a, -25 (ix)
    00000EF1 DD 77 F4         [19] 2168 	ld	-12 (ix), a
    00000EF4 DD 7E E8         [19] 2169 	ld	a, -24 (ix)
    00000EF7 DD 77 F5         [19] 2170 	ld	-11 (ix), a
    00000EFA DD 6E F4         [19] 2171 	ld	l, -12 (ix)
    00000EFD DD 66 F5         [19] 2172 	ld	h, -11 (ix)
    00000F00 11 04 00         [10] 2173 	ld	de, #0x0004
    00000F03 19               [11] 2174 	add	hl, de
    00000F04 7E               [ 7] 2175 	ld	a, (hl)
    00000F05 DD 77 F4         [19] 2176 	ld	-12 (ix), a
    00000F08 23               [ 6] 2177 	inc	hl
    00000F09 7E               [ 7] 2178 	ld	a, (hl)
    00000F0A DD 77 F5         [19] 2179 	ld	-11 (ix), a
    00000F0D DD 7E E5         [19] 2180 	ld	a, -27 (ix)
    00000F10 DD 96 F4         [19] 2181 	sub	a, -12 (ix)
    00000F13 DD 7E E6         [19] 2182 	ld	a, -26 (ix)
    00000F16 DD 9E F5         [19] 2183 	sbc	a, -11 (ix)
    00000F19 30 15            [12] 2184 	jr	NC, 00399$
    00000F1B DD 7E F4         [19] 2185 	ld	a, -12 (ix)
    00000F1E DD 96 E5         [19] 2186 	sub	a, -27 (ix)
    00000F21 DD 77 E7         [19] 2187 	ld	-25 (ix), a
    00000F24 DD 7E F5         [19] 2188 	ld	a, -11 (ix)
    00000F27 DD 9E E6         [19] 2189 	sbc	a, -26 (ix)
    00000F2A DD 77 E8         [19] 2190 	ld	-24 (ix), a
    00000F2D C3r42r0F         [10] 2191 	jp	00400$
    00000F30                       2192 00399$:
    00000F30 DD 7E E5         [19] 2193 	ld	a, -27 (ix)
    00000F33 DD 96 F4         [19] 2194 	sub	a, -12 (ix)
    00000F36 DD 77 E7         [19] 2195 	ld	-25 (ix), a
    00000F39 DD 7E E6         [19] 2196 	ld	a, -26 (ix)
    00000F3C DD 9E F5         [19] 2197 	sbc	a, -11 (ix)
    00000F3F DD 77 E8         [19] 2198 	ld	-24 (ix), a
    00000F42                       2199 00400$:
    00000F42 DD 7E E7         [19] 2200 	ld	a, -25 (ix)
    00000F45 DD 77 F4         [19] 2201 	ld	-12 (ix), a
    00000F48 DD 7E E8         [19] 2202 	ld	a, -24 (ix)
    00000F4B DD 77 F5         [19] 2203 	ld	-11 (ix), a
                                   2204 ;E:\Dropbox\FAUSTO\SVILUPPI\MSX\CODE\C\MSXgl\projects\soccerlgMSX2/soccerlg_s6_b3.c:197: if (c_dist_x <= 16 && c_dist_y <= 16) is_ball_carried = TRUE;
    00000F4E 3E 10            [ 7] 2205 	ld	a, #0x10
    00000F50 DD BE FC         [19] 2206 	cp	a, -4 (ix)
    00000F53 3E 00            [ 7] 2207 	ld	a, #0x00
    00000F55 DD 9E FD         [19] 2208 	sbc	a, -3 (ix)
    00000F58 38 12            [12] 2209 	jr	C, 00205$
    00000F5A DD 4E F4         [19] 2210 	ld	c, -12 (ix)
    00000F5D DD 46 F5         [19] 2211 	ld	b, -11 (ix)
    00000F60 3E 10            [ 7] 2212 	ld	a, #0x10
    00000F62 B9               [ 4] 2213 	cp	a, c
    00000F63 3E 00            [ 7] 2214 	ld	a, #0x00
    00000F65 98               [ 4] 2215 	sbc	a, b
    00000F66 38 04            [12] 2216 	jr	C, 00205$
    00000F68 DD 36 FE 01      [19] 2217 	ld	-2 (ix), #0x01
    00000F6C                       2218 00205$:
                                   2219 ;E:\Dropbox\FAUSTO\SVILUPPI\MSX\CODE\C\MSXgl\projects\soccerlgMSX2/soccerlg_s6_b3.c:201: if (is_ball_carried && b_dist_x < 48 && b_dist_y < 48 && (b_dist_x > 16 || b_dist_y > 16) && Player->count == 0 && RestartType == 0) {
    00000F6C DD 7E FE         [19] 2220 	ld	a, -2 (ix)
    00000F6F B7               [ 4] 2221 	or	a, a
    00000F70 CAr71r10         [10] 2222 	jp	Z, 00212$
    00000F73 DD 4E F6         [19] 2223 	ld	c, -10 (ix)
    00000F76 DD 46 F7         [19] 2224 	ld	b, -9 (ix)
    00000F79 79               [ 4] 2225 	ld	a, c
    00000F7A D6 30            [ 7] 2226 	sub	a, #0x30
    00000F7C 78               [ 4] 2227 	ld	a, b
    00000F7D DE 00            [ 7] 2228 	sbc	a, #0x00
    00000F7F D2r71r10         [10] 2229 	jp	NC, 00212$
    00000F82 DD 5E F8         [19] 2230 	ld	e, -8 (ix)
    00000F85 DD 56 F9         [19] 2231 	ld	d, -7 (ix)
    00000F88 7B               [ 4] 2232 	ld	a, e
    00000F89 D6 30            [ 7] 2233 	sub	a, #0x30
    00000F8B 7A               [ 4] 2234 	ld	a, d
    00000F8C DE 00            [ 7] 2235 	sbc	a, #0x00
    00000F8E D2r71r10         [10] 2236 	jp	NC, 00212$
    00000F91 3E 10            [ 7] 2237 	ld	a, #0x10
    00000F93 B9               [ 4] 2238 	cp	a, c
    00000F94 3E 00            [ 7] 2239 	ld	a, #0x00
    00000F96 98               [ 4] 2240 	sbc	a, b
    00000F97 38 09            [12] 2241 	jr	C, 00217$
    00000F99 3E 10            [ 7] 2242 	ld	a, #0x10
    00000F9B BB               [ 4] 2243 	cp	a, e
    00000F9C 3E 00            [ 7] 2244 	ld	a, #0x00
    00000F9E 9A               [ 4] 2245 	sbc	a, d
    00000F9F D2r71r10         [10] 2246 	jp	NC, 00212$
    00000FA2                       2247 00217$:
    00000FA2 DD 7E E1         [19] 2248 	ld	a, -31 (ix)
    00000FA5 DD B6 E0         [19] 2249 	or	a, -32 (ix)
    00000FA8 C2r71r10         [10] 2250 	jp	NZ, 00212$
    00000FAB 3Ar00r00         [13] 2251 	ld	a, (_RestartType+0)
    00000FAE B7               [ 4] 2252 	or	a, a
    00000FAF C2r71r10         [10] 2253 	jp	NZ, 00212$
                                   2254 ;E:\Dropbox\FAUSTO\SVILUPPI\MSX\CODE\C\MSXgl\projects\soccerlgMSX2/soccerlg_s6_b3.c:202: if (Frms % 16 == 0) {
    00000FB2 3Ar00r00         [13] 2255 	ld	a, (_Frms+0)
    00000FB5 DD 77 FB         [19] 2256 	ld	-5 (ix), a
    00000FB8 DD 36 FC 00      [19] 2257 	ld	-4 (ix), #0x00
    00000FBC DD 7E FB         [19] 2258 	ld	a, -5 (ix)
    00000FBF E6 0F            [ 7] 2259 	and	a, #0x0f
    00000FC1 C2r71r10         [10] 2260 	jp	NZ,00212$
                                   2261 ;E:\Dropbox\FAUSTO\SVILUPPI\MSX\CODE\C\MSXgl\projects\soccerlgMSX2/soccerlg_s6_b3.c:203: u8 slide_chance = g_ActiveStats[team].aggro_defense * 15; // Fino al 75% per Stat 5
    00000FC4 DD 7E FA         [19] 2262 	ld	a, -6 (ix)
    00000FC7 4F               [ 4] 2263 	ld	c, a
    00000FC8 87               [ 4] 2264 	add	a, a
    00000FC9 87               [ 4] 2265 	add	a, a
    00000FCA 87               [ 4] 2266 	add	a, a
    00000FCB 87               [ 4] 2267 	add	a, a
    00000FCC 91               [ 4] 2268 	sub	a, c
    00000FCD DD 77 FD         [19] 2269 	ld	-3 (ix), a
                                   2270 ;E:\Dropbox\FAUSTO\SVILUPPI\MSX\CODE\C\MSXgl\projects\soccerlgMSX2/soccerlg_s6_b3.c:204: if ((Frms + i * 7) % 100 < slide_chance) {
    00000FD0 DD 7E FF         [19] 2271 	ld	a, -1 (ix)
    00000FD3 DD 77 F4         [19] 2272 	ld	-12 (ix), a
    00000FD6 DD 36 F5 00      [19] 2273 	ld	-11 (ix), #0x00
    00000FDA 4F               [ 4] 2274 	ld	c, a
    00000FDB 06 00            [ 7] 2275 	ld	b, #0x00
    00000FDD 69               [ 4] 2276 	ld	l, c
    00000FDE 60               [ 4] 2277 	ld	h, b
    00000FDF 29               [11] 2278 	add	hl, hl
    00000FE0 09               [11] 2279 	add	hl, bc
    00000FE1 29               [11] 2280 	add	hl, hl
    00000FE2 09               [11] 2281 	add	hl, bc
    00000FE3 DD 75 E7         [19] 2282 	ld	-25 (ix), l
    00000FE6 DD 74 E8         [19] 2283 	ld	-24 (ix), h
    00000FE9 DD 7E FB         [19] 2284 	ld	a, -5 (ix)
    00000FEC DD 86 E7         [19] 2285 	add	a, -25 (ix)
    00000FEF DD 77 F4         [19] 2286 	ld	-12 (ix), a
    00000FF2 DD 7E FC         [19] 2287 	ld	a, -4 (ix)
    00000FF5 DD 8E E8         [19] 2288 	adc	a, -24 (ix)
    00000FF8 DD 77 F5         [19] 2289 	ld	-11 (ix), a
    00000FFB 11 64 00         [10] 2290 	ld	de, #0x0064
    00000FFE DD 6E F4         [19] 2291 	ld	l, -12 (ix)
                                   2292 ;	spillPairReg hl
                                   2293 ;	spillPairReg hl
    00001001 DD 66 F5         [19] 2294 	ld	h, -11 (ix)
                                   2295 ;	spillPairReg hl
                                   2296 ;	spillPairReg hl
    00001004 CDr00r00         [17] 2297 	call	__modsint
    00001007 DD 73 FB         [19] 2298 	ld	-5 (ix), e
    0000100A DD 72 FC         [19] 2299 	ld	-4 (ix), d
    0000100D DD 4E FD         [19] 2300 	ld	c, -3 (ix)
    00001010 06 00            [ 7] 2301 	ld	b, #0x00
    00001012 DD 7E FB         [19] 2302 	ld	a, -5 (ix)
    00001015 91               [ 4] 2303 	sub	a, c
    00001016 DD 7E FC         [19] 2304 	ld	a, -4 (ix)
    00001019 98               [ 4] 2305 	sbc	a, b
    0000101A E2r1Fr10         [10] 2306 	jp	PO, 01366$
    0000101D EE 80            [ 7] 2307 	xor	a, #0x80
    0000101F                       2308 01366$:
    0000101F F2r71r10         [10] 2309 	jp	P, 00212$
                                   2310 ;E:\Dropbox\FAUSTO\SVILUPPI\MSX\CODE\C\MSXgl\projects\soccerlgMSX2/soccerlg_s6_b3.c:205: Player->count = 12; // durata scivolata
    00001022 DD 6E DE         [19] 2311 	ld	l, -34 (ix)
    00001025 DD 66 DF         [19] 2312 	ld	h, -33 (ix)
    00001028 36 0C            [10] 2313 	ld	(hl), #0x0c
    0000102A 23               [ 6] 2314 	inc	hl
    0000102B 36 00            [10] 2315 	ld	(hl), #0x00
                                   2316 ;E:\Dropbox\FAUSTO\SVILUPPI\MSX\CODE\C\MSXgl\projects\soccerlgMSX2/soccerlg_s6_b3.c:206: Player->dx = (Ball->lx > Player->lx) ? 4 : -4;
    0000102D 21r42r01         [10] 2317 	ld	hl, #(_SwSprite + 322)
    00001030 4E               [ 7] 2318 	ld	c, (hl)
    00001031 DD 6E DB         [19] 2319 	ld	l, -37 (ix)
    00001034 DD 66 DC         [19] 2320 	ld	h, -36 (ix)
    00001037 7E               [ 7] 2321 	ld	a, (hl)
    00001038 91               [ 4] 2322 	sub	a, c
    00001039 30 06            [12] 2323 	jr	NC, 00401$
    0000103B 01 04 00         [10] 2324 	ld	bc, #0x0004
    0000103E C3r44r10         [10] 2325 	jp	00402$
    00001041                       2326 00401$:
    00001041 01 FC FF         [10] 2327 	ld	bc, #0xfffc
    00001044                       2328 00402$:
    00001044 DD 6E ED         [19] 2329 	ld	l, -19 (ix)
    00001047 DD 66 EE         [19] 2330 	ld	h, -18 (ix)
    0000104A 71               [ 7] 2331 	ld	(hl), c
                                   2332 ;E:\Dropbox\FAUSTO\SVILUPPI\MSX\CODE\C\MSXgl\projects\soccerlgMSX2/soccerlg_s6_b3.c:207: Player->dy = (Ball->ly > Player->ly) ? 3 : -3;
    0000104B ED 4Br46r01      [20] 2333 	ld	bc, (#(_SwSprite + 326) + 0)
    0000104F DD 6E EF         [19] 2334 	ld	l, -17 (ix)
    00001052 DD 66 F0         [19] 2335 	ld	h, -16 (ix)
    00001055 5E               [ 7] 2336 	ld	e, (hl)
    00001056 23               [ 6] 2337 	inc	hl
    00001057 56               [ 7] 2338 	ld	d, (hl)
    00001058 7B               [ 4] 2339 	ld	a, e
    00001059 91               [ 4] 2340 	sub	a, c
    0000105A 7A               [ 4] 2341 	ld	a, d
    0000105B 98               [ 4] 2342 	sbc	a, b
    0000105C 30 06            [12] 2343 	jr	NC, 00403$
    0000105E 01 03 00         [10] 2344 	ld	bc, #0x0003
    00001061 C3r67r10         [10] 2345 	jp	00404$
    00001064                       2346 00403$:
    00001064 01 FD FF         [10] 2347 	ld	bc, #0xfffd
    00001067                       2348 00404$:
    00001067 DD 6E F1         [19] 2349 	ld	l, -15 (ix)
    0000106A DD 66 F2         [19] 2350 	ld	h, -14 (ix)
    0000106D 71               [ 7] 2351 	ld	(hl), c
                                   2352 ;E:\Dropbox\FAUSTO\SVILUPPI\MSX\CODE\C\MSXgl\projects\soccerlgMSX2/soccerlg_s6_b3.c:208: return; // Esce e inizia la scivolata dal prossimo frame
    0000106E C3rC8r18         [10] 2353 	jp	00306$
    00001071                       2354 00212$:
                                   2355 ;E:\Dropbox\FAUSTO\SVILUPPI\MSX\CODE\C\MSXgl\projects\soccerlgMSX2/soccerlg_s6_b3.c:214: if (!is_ball_carried) {
    00001071 DD 7E FE         [19] 2356 	ld	a, -2 (ix)
    00001074 B7               [ 4] 2357 	or	a, a
    00001075 20 5F            [12] 2358 	jr	NZ, 00232$
                                   2359 ;E:\Dropbox\FAUSTO\SVILUPPI\MSX\CODE\C\MSXgl\projects\soccerlgMSX2/soccerlg_s6_b3.c:216: if (b_dist_x <= steal_dist && b_dist_y <= steal_dist && Ball->count == 0 && RestartType == 0) {
    00001077 3E 0C            [ 7] 2360 	ld	a, #0x0c
    00001079 DD BE F6         [19] 2361 	cp	a, -10 (ix)
    0000107C 3E 00            [ 7] 2362 	ld	a, #0x00
    0000107E DD 9E F7         [19] 2363 	sbc	a, -9 (ix)
    00001081 38 53            [12] 2364 	jr	C, 00232$
    00001083 3E 0C            [ 7] 2365 	ld	a, #0x0c
    00001085 DD BE F8         [19] 2366 	cp	a, -8 (ix)
    00001088 3E 00            [ 7] 2367 	ld	a, #0x00
    0000108A DD 9E F9         [19] 2368 	sbc	a, -7 (ix)
    0000108D 38 47            [12] 2369 	jr	C, 00232$
    0000108F 21r57r01         [10] 2370 	ld	hl, #(_SwSprite + 322) + 21
    00001092 7E               [ 7] 2371 	ld	a, (hl)
    00001093 DD 77 FD         [19] 2372 	ld	-3 (ix), a
    00001096 23               [ 6] 2373 	inc	hl
    00001097 7E               [ 7] 2374 	ld	a, (hl)
    00001098 DD 77 FE         [19] 2375 	ld	-2 (ix), a
    0000109B DD B6 FD         [19] 2376 	or	a, -3 (ix)
    0000109E 20 36            [12] 2377 	jr	NZ, 00232$
    000010A0 3Ar00r00         [13] 2378 	ld	a, (_RestartType+0)
    000010A3 B7               [ 4] 2379 	or	a, a
    000010A4 20 30            [12] 2380 	jr	NZ, 00232$
                                   2381 ;E:\Dropbox\FAUSTO\SVILUPPI\MSX\CODE\C\MSXgl\projects\soccerlgMSX2/soccerlg_s6_b3.c:217: LastTouchTeam = team;
    000010A6 DD 7E DD         [19] 2382 	ld	a, -35 (ix)
    000010A9 32r00r00         [13] 2383 	ld	(_LastTouchTeam+0), a
                                   2384 ;E:\Dropbox\FAUSTO\SVILUPPI\MSX\CODE\C\MSXgl\projects\soccerlgMSX2/soccerlg_s6_b3.c:218: LastTouchPlayer = i; 
    000010AC DD 7E FF         [19] 2385 	ld	a, -1 (ix)
    000010AF 32r00r00         [13] 2386 	ld	(_LastTouchPlayer+0), a
                                   2387 ;E:\Dropbox\FAUSTO\SVILUPPI\MSX\CODE\C\MSXgl\projects\soccerlgMSX2/soccerlg_s6_b3.c:219: if (Ball->anim > 3) Ball->anim = 3; 
    000010B2 21r55r01         [10] 2388 	ld	hl, #(_SwSprite + 341)
    000010B5 7E               [ 7] 2389 	ld	a, (hl)
    000010B6 DD 77 FD         [19] 2390 	ld	-3 (ix), a
    000010B9 23               [ 6] 2391 	inc	hl
    000010BA 7E               [ 7] 2392 	ld	a, (hl)
    000010BB DD 77 FE         [19] 2393 	ld	-2 (ix), a
    000010BE 3E 03            [ 7] 2394 	ld	a, #0x03
    000010C0 DD BE FD         [19] 2395 	cp	a, -3 (ix)
    000010C3 3E 00            [ 7] 2396 	ld	a, #0x00
    000010C5 DD 9E FE         [19] 2397 	sbc	a, -2 (ix)
    000010C8 30 06            [12] 2398 	jr	NC, 00220$
    000010CA 21 03 00         [10] 2399 	ld	hl, #0x0003
    000010CD 22r55r01         [16] 2400 	ld	((_SwSprite + 341)), hl
    000010D0                       2401 00220$:
                                   2402 ;E:\Dropbox\FAUSTO\SVILUPPI\MSX\CODE\C\MSXgl\projects\soccerlgMSX2/soccerlg_s6_b3.c:220: Ball->frame = SPR_BALL_SIZE_1; 
    000010D0 21 60 00         [10] 2403 	ld	hl, #0x0060
    000010D3 22r51r01         [16] 2404 	ld	((_SwSprite + 337)), hl
    000010D6                       2405 00232$:
                                   2406 ;E:\Dropbox\FAUSTO\SVILUPPI\MSX\CODE\C\MSXgl\projects\soccerlgMSX2/soccerlg_s6_b3.c:227: bool is_cpu_team = (GameMode == GAMEMODE_P1_VS_CPU && team == TEAM_1);
    000010D6 3Ar00r00         [13] 2407 	ld	a, (_GameMode+0)
    000010D9 B7               [ 4] 2408 	or	a, a
    000010DA 20 06            [12] 2409 	jr	NZ, 00405$
    000010DC DD 7E DD         [19] 2410 	ld	a, -35 (ix)
    000010DF B7               [ 4] 2411 	or	a, a
    000010E0 28 05            [12] 2412 	jr	Z, 00406$
    000010E2                       2413 00405$:
    000010E2 0E 00            [ 7] 2414 	ld	c, #0x00
    000010E4 C3rE9r10         [10] 2415 	jp	00407$
    000010E7                       2416 00406$:
    000010E7 0E 01            [ 7] 2417 	ld	c, #0x01
    000010E9                       2418 00407$:
                                   2419 ;E:\Dropbox\FAUSTO\SVILUPPI\MSX\CODE\C\MSXgl\projects\soccerlgMSX2/soccerlg_s6_b3.c:228: if (is_cpu_team && i == closest_mate && LastTouchTeam == team) {
    000010E9 79               [ 4] 2420 	ld	a, c
    000010EA B7               [ 4] 2421 	or	a, a
    000010EB CAr84r15         [10] 2422 	jp	Z, 00278$
    000010EE DD 7E FF         [19] 2423 	ld	a, -1 (ix)
    000010F1 DD 96 E2         [19] 2424 	sub	a, -30 (ix)
    000010F4 C2r84r15         [10] 2425 	jp	NZ,00278$
    000010F7 3Ar00r00         [13] 2426 	ld	a, (_LastTouchTeam+0)
    000010FA DD 96 DD         [19] 2427 	sub	a, -35 (ix)
    000010FD C2r84r15         [10] 2428 	jp	NZ,00278$
                                   2429 ;E:\Dropbox\FAUSTO\SVILUPPI\MSX\CODE\C\MSXgl\projects\soccerlgMSX2/soccerlg_s6_b3.c:229: if (min_dist <= 24) {
    00001100 DD 4E E3         [19] 2430 	ld	c, -29 (ix)
    00001103 DD 6E E4         [19] 2431 	ld	l, -28 (ix)
                                   2432 ;	spillPairReg hl
                                   2433 ;	spillPairReg hl
    00001106 3E 18            [ 7] 2434 	ld	a, #0x18
    00001108 B9               [ 4] 2435 	cp	a, c
    00001109 3E 00            [ 7] 2436 	ld	a, #0x00
    0000110B 9D               [ 4] 2437 	sbc	a, l
    0000110C DAr6Er15         [10] 2438 	jp	C, 00275$
                                   2439 ;E:\Dropbox\FAUSTO\SVILUPPI\MSX\CODE\C\MSXgl\projects\soccerlgMSX2/soccerlg_s6_b3.c:231: target_x = 128; 
    0000110F DD 36 EB 80      [19] 2440 	ld	-21 (ix), #0x80
    00001113 DD 36 EC 00      [19] 2441 	ld	-20 (ix), #0
                                   2442 ;E:\Dropbox\FAUSTO\SVILUPPI\MSX\CODE\C\MSXgl\projects\soccerlgMSX2/soccerlg_s6_b3.c:232: target_y = 480; 
    00001117 DD 36 E9 E0      [19] 2443 	ld	-23 (ix), #0xe0
    0000111B DD 36 EA 01      [19] 2444 	ld	-22 (ix), #0x01
                                   2445 ;E:\Dropbox\FAUSTO\SVILUPPI\MSX\CODE\C\MSXgl\projects\soccerlgMSX2/soccerlg_s6_b3.c:235: if (min_dist <= 12 && Ball->anim == 0) {
    0000111F 3E 0C            [ 7] 2446 	ld	a, #0x0c
    00001121 B9               [ 4] 2447 	cp	a, c
    00001122 3E 00            [ 7] 2448 	ld	a, #0x00
    00001124 9D               [ 4] 2449 	sbc	a, l
    00001125 DAr84r15         [10] 2450 	jp	C, 00278$
    00001128 2Ar55r01         [16] 2451 	ld	hl, (#(_SwSprite + 341) + 0)
    0000112B 7C               [ 4] 2452 	ld	a, h
    0000112C B5               [ 4] 2453 	or	a, l
    0000112D C2r84r15         [10] 2454 	jp	NZ, 00278$
                                   2455 ;E:\Dropbox\FAUSTO\SVILUPPI\MSX\CODE\C\MSXgl\projects\soccerlgMSX2/soccerlg_s6_b3.c:236: bool action_taken = FALSE;
    00001130 DD 36 E7 00      [19] 2456 	ld	-25 (ix), #0x00
                                   2457 ;E:\Dropbox\FAUSTO\SVILUPPI\MSX\CODE\C\MSXgl\projects\soccerlgMSX2/soccerlg_s6_b3.c:239: if (Field.ly >= 320 && Player->ly > 360) { // Scrolling completo e in area di tiro
    00001134 2Ar04r00         [16] 2458 	ld	hl, (#(_Field + 4) + 0)
    00001137 11 40 01         [10] 2459 	ld	de, #0x0140
    0000113A BF               [ 4] 2460 	cp	a, a
    0000113B ED 52            [15] 2461 	sbc	hl, de
    0000113D DArDBr12         [10] 2462 	jp	C, 00241$
    00001140 DD 6E EF         [19] 2463 	ld	l, -17 (ix)
    00001143 DD 66 F0         [19] 2464 	ld	h, -16 (ix)
    00001146 7E               [ 7] 2465 	ld	a, (hl)
    00001147 DD 77 FD         [19] 2466 	ld	-3 (ix), a
    0000114A 23               [ 6] 2467 	inc	hl
    0000114B 7E               [ 7] 2468 	ld	a, (hl)
    0000114C DD 77 FE         [19] 2469 	ld	-2 (ix), a
    0000114F 3E 68            [ 7] 2470 	ld	a, #0x68
    00001151 DD BE FD         [19] 2471 	cp	a, -3 (ix)
    00001154 3E 01            [ 7] 2472 	ld	a, #0x01
    00001156 DD 9E FE         [19] 2473 	sbc	a, -2 (ix)
    00001159 D2rDBr12         [10] 2474 	jp	NC, 00241$
                                   2475 ;E:\Dropbox\FAUSTO\SVILUPPI\MSX\CODE\C\MSXgl\projects\soccerlgMSX2/soccerlg_s6_b3.c:240: u8 rand_shot = (Player->lx + Frms) % 100;
    0000115C DD 6E DB         [19] 2476 	ld	l, -37 (ix)
    0000115F DD 66 DC         [19] 2477 	ld	h, -36 (ix)
    00001162 7E               [ 7] 2478 	ld	a, (hl)
    00001163 DD 77 FE         [19] 2479 	ld	-2 (ix), a
    00001166 DD 77 F9         [19] 2480 	ld	-7 (ix), a
    00001169 DD 36 FA 00      [19] 2481 	ld	-6 (ix), #0x00
    0000116D 3Ar00r00         [13] 2482 	ld	a, (_Frms+0)
    00001170 DD 77 FB         [19] 2483 	ld	-5 (ix), a
    00001173 DD 36 FC 00      [19] 2484 	ld	-4 (ix), #0x00
    00001177 DD 7E FB         [19] 2485 	ld	a, -5 (ix)
    0000117A DD 86 F9         [19] 2486 	add	a, -7 (ix)
    0000117D DD 77 FD         [19] 2487 	ld	-3 (ix), a
    00001180 DD 7E FC         [19] 2488 	ld	a, -4 (ix)
    00001183 DD 8E FA         [19] 2489 	adc	a, -6 (ix)
    00001186 DD 77 FE         [19] 2490 	ld	-2 (ix), a
    00001189 11 64 00         [10] 2491 	ld	de, #0x0064
    0000118C DD 6E FD         [19] 2492 	ld	l, -3 (ix)
                                   2493 ;	spillPairReg hl
                                   2494 ;	spillPairReg hl
    0000118F DD 66 FE         [19] 2495 	ld	h, -2 (ix)
                                   2496 ;	spillPairReg hl
                                   2497 ;	spillPairReg hl
    00001192 CDr00r00         [17] 2498 	call	__modsint
    00001195 DD 73 FD         [19] 2499 	ld	-3 (ix), e
    00001198 DD 72 FE         [19] 2500 	ld	-2 (ix), d
    0000119B DD 7E FD         [19] 2501 	ld	a, -3 (ix)
    0000119E DD 77 FC         [19] 2502 	ld	-4 (ix), a
                                   2503 ;E:\Dropbox\FAUSTO\SVILUPPI\MSX\CODE\C\MSXgl\projects\soccerlgMSX2/soccerlg_s6_b3.c:243: u8 shot_prob = 5 + (g_ActiveStats[team].aggro_attack * 4);
    000011A1 DD 4E DD         [19] 2504 	ld	c, -35 (ix)
    000011A4 06 00            [ 7] 2505 	ld	b, #0x00
    000011A6 69               [ 4] 2506 	ld	l, c
    000011A7 60               [ 4] 2507 	ld	h, b
    000011A8 29               [11] 2508 	add	hl, hl
    000011A9 09               [11] 2509 	add	hl, bc
    000011AA 29               [11] 2510 	add	hl, hl
    000011AB 09               [11] 2511 	add	hl, bc
    000011AC DD 75 FA         [19] 2512 	ld	-6 (ix), l
    000011AF DD 74 FB         [19] 2513 	ld	-5 (ix), h
    000011B2 3Er00            [ 7] 2514 	ld	a, #<(_g_ActiveStats)
    000011B4 DD 86 FA         [19] 2515 	add	a, -6 (ix)
    000011B7 DD 77 FD         [19] 2516 	ld	-3 (ix), a
    000011BA 3Es00            [ 7] 2517 	ld	a, #>(_g_ActiveStats)
    000011BC DD 8E FB         [19] 2518 	adc	a, -5 (ix)
    000011BF DD 77 FE         [19] 2519 	ld	-2 (ix), a
    000011C2 DD 6E FD         [19] 2520 	ld	l, -3 (ix)
    000011C5 DD 66 FE         [19] 2521 	ld	h, -2 (ix)
    000011C8 11 05 00         [10] 2522 	ld	de, #0x0005
    000011CB 19               [11] 2523 	add	hl, de
    000011CC 7E               [ 7] 2524 	ld	a, (hl)
    000011CD DD 77 FE         [19] 2525 	ld	-2 (ix), a
    000011D0 87               [ 4] 2526 	add	a, a
    000011D1 87               [ 4] 2527 	add	a, a
    000011D2 C6 05            [ 7] 2528 	add	a, #0x05
    000011D4 4F               [ 4] 2529 	ld	c, a
                                   2530 ;E:\Dropbox\FAUSTO\SVILUPPI\MSX\CODE\C\MSXgl\projects\soccerlgMSX2/soccerlg_s6_b3.c:244: if (rand_shot < shot_prob) { 
    000011D5 DD 7E FC         [19] 2531 	ld	a, -4 (ix)
    000011D8 91               [ 4] 2532 	sub	a, c
    000011D9 D2rDBr12         [10] 2533 	jp	NC, 00241$
                                   2534 ;E:\Dropbox\FAUSTO\SVILUPPI\MSX\CODE\C\MSXgl\projects\soccerlgMSX2/soccerlg_s6_b3.c:245: action_taken = TRUE;
    000011DC DD 36 E7 01      [19] 2535 	ld	-25 (ix), #0x01
                                   2536 ;E:\Dropbox\FAUSTO\SVILUPPI\MSX\CODE\C\MSXgl\projects\soccerlgMSX2/soccerlg_s6_b3.c:246: Ball->anim = 0; Ball->count = 0;
    000011E0 21 00 00         [10] 2537 	ld	hl, #0x0000
    000011E3 22r55r01         [16] 2538 	ld	((_SwSprite + 341)), hl
    000011E6 22r57r01         [16] 2539 	ld	((_SwSprite + 343)), hl
                                   2540 ;E:\Dropbox\FAUSTO\SVILUPPI\MSX\CODE\C\MSXgl\projects\soccerlgMSX2/soccerlg_s6_b3.c:247: g_pass_receiver = 0xFF;
    000011E9 21r00r00         [10] 2541 	ld	hl, #_g_pass_receiver
    000011EC 36 FF            [10] 2542 	ld	(hl), #0xff
                                   2543 ;E:\Dropbox\FAUSTO\SVILUPPI\MSX\CODE\C\MSXgl\projects\soccerlgMSX2/soccerlg_s6_b3.c:248: g_pass_start_x = Player->lx;
    000011EE DD 6E DB         [19] 2544 	ld	l, -37 (ix)
    000011F1 DD 66 DC         [19] 2545 	ld	h, -36 (ix)
    000011F4 7E               [ 7] 2546 	ld	a, (hl)
    000011F5 32r00r00         [13] 2547 	ld	(_g_pass_start_x+0), a
    000011F8 21r01r00         [10] 2548 	ld	hl, #_g_pass_start_x + 1
    000011FB 36 00            [10] 2549 	ld	(hl), #0x00
                                   2550 ;E:\Dropbox\FAUSTO\SVILUPPI\MSX\CODE\C\MSXgl\projects\soccerlgMSX2/soccerlg_s6_b3.c:249: g_pass_start_y = Player->ly;
    000011FD DD 6E EF         [19] 2551 	ld	l, -17 (ix)
    00001200 DD 66 F0         [19] 2552 	ld	h, -16 (ix)
    00001203 7E               [ 7] 2553 	ld	a, (hl)
    00001204 23               [ 6] 2554 	inc	hl
    00001205 32r00r00         [13] 2555 	ld	(_g_pass_start_y+0), a
    00001208 7E               [ 7] 2556 	ld	a, (hl)
    00001209 32r01r00         [13] 2557 	ld	(_g_pass_start_y+1), a
                                   2558 ;E:\Dropbox\FAUSTO\SVILUPPI\MSX\CODE\C\MSXgl\projects\soccerlgMSX2/soccerlg_s6_b3.c:250: g_pass_target_x = 96 + (Frms % 48); // Posizione casuale nello specchio della porta (96-143)
    0000120C 3Ar00r00         [13] 2559 	ld	a, (_Frms+0)
    0000120F DD 77 FD         [19] 2560 	ld	-3 (ix), a
    00001212 DD 36 FE 00      [19] 2561 	ld	-2 (ix), #0x00
    00001216 11 30 00         [10] 2562 	ld	de, #0x0030
    00001219 DD 6E FD         [19] 2563 	ld	l, -3 (ix)
                                   2564 ;	spillPairReg hl
                                   2565 ;	spillPairReg hl
    0000121C DD 66 FE         [19] 2566 	ld	h, -2 (ix)
                                   2567 ;	spillPairReg hl
                                   2568 ;	spillPairReg hl
    0000121F CDr00r00         [17] 2569 	call	__modsint
    00001222 DD 73 FB         [19] 2570 	ld	-5 (ix), e
    00001225 DD 72 FC         [19] 2571 	ld	-4 (ix), d
    00001228 DD 7E FB         [19] 2572 	ld	a, -5 (ix)
    0000122B C6 60            [ 7] 2573 	add	a, #0x60
    0000122D DD 77 FD         [19] 2574 	ld	-3 (ix), a
    00001230 DD 7E FC         [19] 2575 	ld	a, -4 (ix)
    00001233 CE 00            [ 7] 2576 	adc	a, #0x00
    00001235 DD 77 FE         [19] 2577 	ld	-2 (ix), a
    00001238 DD 6E FD         [19] 2578 	ld	l, -3 (ix)
    0000123B DD 66 FE         [19] 2579 	ld	h, -2 (ix)
    0000123E 22r00r00         [16] 2580 	ld	(_g_pass_target_x), hl
                                   2581 ;E:\Dropbox\FAUSTO\SVILUPPI\MSX\CODE\C\MSXgl\projects\soccerlgMSX2/soccerlg_s6_b3.c:251: g_pass_target_y = 496; // Dentro la porta
    00001241 21 F0 01         [10] 2582 	ld	hl, #0x01f0
    00001244 22r00r00         [16] 2583 	ld	(_g_pass_target_y), hl
                                   2584 ;E:\Dropbox\FAUSTO\SVILUPPI\MSX\CODE\C\MSXgl\projects\soccerlgMSX2/soccerlg_s6_b3.c:253: u16 r_dx = (g_pass_target_x > g_pass_start_x) ? (g_pass_target_x - g_pass_start_x) : (g_pass_start_x - g_pass_target_x);
    00001247 21r00r00         [10] 2585 	ld	hl, #_g_pass_start_x
    0000124A 7E               [ 7] 2586 	ld	a, (hl)
    0000124B FD 21r00r00      [14] 2587 	ld	iy, #_g_pass_target_x
    0000124F FD 96 00         [19] 2588 	sub	a, 0 (iy)
    00001252 23               [ 6] 2589 	inc	hl
    00001253 7E               [ 7] 2590 	ld	a, (hl)
    00001254 FD 9E 01         [19] 2591 	sbc	a, 1 (iy)
    00001257 30 0D            [12] 2592 	jr	NC, 00408$
    00001259 ED 4Br00r00      [20] 2593 	ld	bc, (_g_pass_start_x)
    0000125D 2Ar00r00         [16] 2594 	ld	hl, (_g_pass_target_x)
    00001260 BF               [ 4] 2595 	cp	a, a
    00001261 ED 42            [15] 2596 	sbc	hl, bc
    00001263 C3r70r12         [10] 2597 	jp	00409$
    00001266                       2598 00408$:
    00001266 ED 4Br00r00      [20] 2599 	ld	bc, (_g_pass_target_x)
    0000126A 2Ar00r00         [16] 2600 	ld	hl, (_g_pass_start_x)
    0000126D BF               [ 4] 2601 	cp	a, a
    0000126E ED 42            [15] 2602 	sbc	hl, bc
    00001270                       2603 00409$:
    00001270 4D               [ 4] 2604 	ld	c, l
    00001271 44               [ 4] 2605 	ld	b, h
                                   2606 ;E:\Dropbox\FAUSTO\SVILUPPI\MSX\CODE\C\MSXgl\projects\soccerlgMSX2/soccerlg_s6_b3.c:254: u16 r_dy = (g_pass_target_y > g_pass_start_y) ? (g_pass_target_y - g_pass_start_y) : (g_pass_start_y - g_pass_target_y);
    00001272 21r00r00         [10] 2607 	ld	hl, #_g_pass_start_y
    00001275 7E               [ 7] 2608 	ld	a, (hl)
    00001276 23               [ 6] 2609 	inc	hl
    00001277 D6 F0            [ 7] 2610 	sub	a, #0xf0
    00001279 7E               [ 7] 2611 	ld	a, (hl)
    0000127A DE 01            [ 7] 2612 	sbc	a, #0x01
    0000127C 30 0F            [12] 2613 	jr	NC, 00410$
    0000127E 21r00r00         [10] 2614 	ld	hl, #_g_pass_start_y
    00001281 3E F0            [ 7] 2615 	ld	a, #0xf0
    00001283 96               [ 7] 2616 	sub	a, (hl)
    00001284 23               [ 6] 2617 	inc	hl
    00001285 5F               [ 4] 2618 	ld	e, a
    00001286 3E 01            [ 7] 2619 	ld	a, #0x01
    00001288 9E               [ 7] 2620 	sbc	a, (hl)
    00001289 57               [ 4] 2621 	ld	d, a
    0000128A C3r99r12         [10] 2622 	jp	00411$
    0000128D                       2623 00410$:
    0000128D 3Ar00r00         [13] 2624 	ld	a, (_g_pass_start_y+0)
    00001290 C6 10            [ 7] 2625 	add	a, #0x10
    00001292 5F               [ 4] 2626 	ld	e, a
    00001293 3Ar01r00         [13] 2627 	ld	a, (_g_pass_start_y+1)
    00001296 CE FE            [ 7] 2628 	adc	a, #0xfe
    00001298 57               [ 4] 2629 	ld	d, a
    00001299                       2630 00411$:
    00001299 EB               [ 4] 2631 	ex	de, hl
                                   2632 ;E:\Dropbox\FAUSTO\SVILUPPI\MSX\CODE\C\MSXgl\projects\soccerlgMSX2/soccerlg_s6_b3.c:256: g_pass_max_frames = (r_dx + r_dy) / 8; // Tiro potente
    0000129A 09               [11] 2633 	add	hl, bc
    0000129B CB 3C            [ 8] 2634 	srl	h
    0000129D CB 1D            [ 8] 2635 	rr	l
    0000129F CB 3C            [ 8] 2636 	srl	h
    000012A1 CB 1D            [ 8] 2637 	rr	l
    000012A3 CB 3C            [ 8] 2638 	srl	h
    000012A5 CB 1D            [ 8] 2639 	rr	l
    000012A7 FD 21r00r00      [14] 2640 	ld	iy, #_g_pass_max_frames
    000012AB FD 75 00         [19] 2641 	ld	0 (iy), l
                                   2642 ;E:\Dropbox\FAUSTO\SVILUPPI\MSX\CODE\C\MSXgl\projects\soccerlgMSX2/soccerlg_s6_b3.c:257: if (g_pass_max_frames < 10) g_pass_max_frames = 10;
    000012AE 3Ar00r00         [13] 2643 	ld	a, (_g_pass_max_frames+0)
    000012B1 D6 0A            [ 7] 2644 	sub	a, #0x0a
    000012B3 30 04            [12] 2645 	jr	NC, 00235$
    000012B5 FD 36 00 0A      [19] 2646 	ld	0 (iy), #0x0a
    000012B9                       2647 00235$:
                                   2648 ;E:\Dropbox\FAUSTO\SVILUPPI\MSX\CODE\C\MSXgl\projects\soccerlgMSX2/soccerlg_s6_b3.c:258: if (g_pass_max_frames > 25) g_pass_max_frames = 25;
    000012B9 3E 19            [ 7] 2649 	ld	a, #0x19
    000012BB FD 21r00r00      [14] 2650 	ld	iy, #_g_pass_max_frames
    000012BF FD 96 00         [19] 2651 	sub	a, 0 (iy)
    000012C2 30 04            [12] 2652 	jr	NC, 00237$
    000012C4 FD 36 00 19      [19] 2653 	ld	0 (iy), #0x19
    000012C8                       2654 00237$:
                                   2655 ;E:\Dropbox\FAUSTO\SVILUPPI\MSX\CODE\C\MSXgl\projects\soccerlgMSX2/soccerlg_s6_b3.c:259: g_pass_max_height = 2; // Tiro rasoterra e limitato
    000012C8 21r00r00         [10] 2656 	ld	hl, #_g_pass_max_height
    000012CB 36 02            [10] 2657 	ld	(hl), #0x02
                                   2658 ;E:\Dropbox\FAUSTO\SVILUPPI\MSX\CODE\C\MSXgl\projects\soccerlgMSX2/soccerlg_s6_b3.c:261: Ball->anim = 5;
    000012CD 21 05 00         [10] 2659 	ld	hl, #0x0005
    000012D0 22r55r01         [16] 2660 	ld	((_SwSprite + 341)), hl
                                   2661 ;E:\Dropbox\FAUSTO\SVILUPPI\MSX\CODE\C\MSXgl\projects\soccerlgMSX2/soccerlg_s6_b3.c:262: CallFnc_VOID(SEG_EVENTS, EventBallKicked);
    000012D3 11r00r00         [10] 2662 	ld	de, #_EventBallKicked
    000012D6 3E 08            [ 7] 2663 	ld	a, #0x08
    000012D8 CDr00r00         [17] 2664 	call	_CallFnc_VOID
    000012DB                       2665 00241$:
                                   2666 ;E:\Dropbox\FAUSTO\SVILUPPI\MSX\CODE\C\MSXgl\projects\soccerlgMSX2/soccerlg_s6_b3.c:267: if (!action_taken && Frms % 16 == 0) {
    000012DB DD 7E E7         [19] 2667 	ld	a, -25 (ix)
    000012DE B7               [ 4] 2668 	or	a, a
    000012DF C2r9Br14         [10] 2669 	jp	NZ, 00254$
    000012E2 3Ar00r00         [13] 2670 	ld	a, (_Frms+0)
    000012E5 4F               [ 4] 2671 	ld	c, a
    000012E6 06 00            [ 7] 2672 	ld	b, #0x00
    000012E8 79               [ 4] 2673 	ld	a, c
    000012E9 E6 0F            [ 7] 2674 	and	a, #0x0f
    000012EB C2r9Br14         [10] 2675 	jp	NZ,00254$
                                   2676 ;E:\Dropbox\FAUSTO\SVILUPPI\MSX\CODE\C\MSXgl\projects\soccerlgMSX2/soccerlg_s6_b3.c:268: u8 rand_pass = (Player->lx * 5 + Player->ly * 3 + Frms) % 100;
    000012EE DD 6E DB         [19] 2677 	ld	l, -37 (ix)
    000012F1 DD 66 DC         [19] 2678 	ld	h, -36 (ix)
    000012F4 5E               [ 7] 2679 	ld	e, (hl)
    000012F5 16 00            [ 7] 2680 	ld	d, #0x00
    000012F7 6B               [ 4] 2681 	ld	l, e
    000012F8 62               [ 4] 2682 	ld	h, d
    000012F9 29               [11] 2683 	add	hl, hl
    000012FA 29               [11] 2684 	add	hl, hl
    000012FB 19               [11] 2685 	add	hl, de
    000012FC EB               [ 4] 2686 	ex	de, hl
    000012FD DD 6E EF         [19] 2687 	ld	l, -17 (ix)
    00001300 DD 66 F0         [19] 2688 	ld	h, -16 (ix)
    00001303 7E               [ 7] 2689 	ld	a, (hl)
    00001304 23               [ 6] 2690 	inc	hl
    00001305 66               [ 7] 2691 	ld	h, (hl)
                                   2692 ;	spillPairReg hl
    00001306 6F               [ 4] 2693 	ld	l, a
                                   2694 ;	spillPairReg hl
                                   2695 ;	spillPairReg hl
    00001307 D5               [11] 2696 	push	de
    00001308 5D               [ 4] 2697 	ld	e, l
    00001309 54               [ 4] 2698 	ld	d, h
    0000130A 29               [11] 2699 	add	hl, hl
    0000130B 19               [11] 2700 	add	hl, de
    0000130C D1               [10] 2701 	pop	de
    0000130D 19               [11] 2702 	add	hl, de
    0000130E 09               [11] 2703 	add	hl, bc
    0000130F 11 64 00         [10] 2704 	ld	de, #0x0064
    00001312 CDr00r00         [17] 2705 	call	__moduint
                                   2706 ;E:\Dropbox\FAUSTO\SVILUPPI\MSX\CODE\C\MSXgl\projects\soccerlgMSX2/soccerlg_s6_b3.c:271: u8 pass_prob = 10 + (g_ActiveStats[team].pass_tendency * 10);
    00001315 DD 4E DD         [19] 2707 	ld	c, -35 (ix)
    00001318 06 00            [ 7] 2708 	ld	b, #0x00
    0000131A 69               [ 4] 2709 	ld	l, c
    0000131B 60               [ 4] 2710 	ld	h, b
    0000131C 29               [11] 2711 	add	hl, hl
    0000131D 09               [11] 2712 	add	hl, bc
    0000131E 29               [11] 2713 	add	hl, hl
    0000131F 09               [11] 2714 	add	hl, bc
    00001320 01r00r00         [10] 2715 	ld	bc, #_g_ActiveStats
    00001323 09               [11] 2716 	add	hl, bc
    00001324 23               [ 6] 2717 	inc	hl
    00001325 23               [ 6] 2718 	inc	hl
    00001326 7E               [ 7] 2719 	ld	a, (hl)
    00001327 4F               [ 4] 2720 	ld	c, a
    00001328 87               [ 4] 2721 	add	a, a
    00001329 87               [ 4] 2722 	add	a, a
    0000132A 81               [ 4] 2723 	add	a, c
    0000132B 87               [ 4] 2724 	add	a, a
    0000132C C6 0A            [ 7] 2725 	add	a, #0x0a
    0000132E 4F               [ 4] 2726 	ld	c, a
                                   2727 ;E:\Dropbox\FAUSTO\SVILUPPI\MSX\CODE\C\MSXgl\projects\soccerlgMSX2/soccerlg_s6_b3.c:272: if (rand_pass < pass_prob) { 
    0000132F 7B               [ 4] 2728 	ld	a, e
    00001330 91               [ 4] 2729 	sub	a, c
    00001331 D2r9Br14         [10] 2730 	jp	NC, 00254$
                                   2731 ;E:\Dropbox\FAUSTO\SVILUPPI\MSX\CODE\C\MSXgl\projects\soccerlgMSX2/soccerlg_s6_b3.c:273: u8 receiver = FindReceiver(i, 0xFF, Player->dx, Player->dy);
    00001334 DD 6E F1         [19] 2732 	ld	l, -15 (ix)
    00001337 DD 66 F2         [19] 2733 	ld	h, -14 (ix)
    0000133A 46               [ 7] 2734 	ld	b, (hl)
    0000133B DD 6E ED         [19] 2735 	ld	l, -19 (ix)
    0000133E DD 66 EE         [19] 2736 	ld	h, -18 (ix)
    00001341 7E               [ 7] 2737 	ld	a, (hl)
    00001342 C5               [11] 2738 	push	bc
    00001343 33               [ 6] 2739 	inc	sp
    00001344 F5               [11] 2740 	push	af
    00001345 33               [ 6] 2741 	inc	sp
    00001346 2E FF            [ 7] 2742 	ld	l, #0xff
                                   2743 ;	spillPairReg hl
                                   2744 ;	spillPairReg hl
    00001348 DD 7E FF         [19] 2745 	ld	a, -1 (ix)
    0000134B CDrCDr18         [17] 2746 	call	_FindReceiver
                                   2747 ;E:\Dropbox\FAUSTO\SVILUPPI\MSX\CODE\C\MSXgl\projects\soccerlgMSX2/soccerlg_s6_b3.c:274: if (receiver != 0xFF) {
    0000134E DD 73 E8         [19] 2748 	ld	-24 (ix), e
    00001351 7B               [ 4] 2749 	ld	a, e
    00001352 3C               [ 4] 2750 	inc	a
    00001353 CAr9Br14         [10] 2751 	jp	Z,00254$
                                   2752 ;E:\Dropbox\FAUSTO\SVILUPPI\MSX\CODE\C\MSXgl\projects\soccerlgMSX2/soccerlg_s6_b3.c:275: u16 r_dx = (SwSprite[receiver].lx > Player->lx) ? (SwSprite[receiver].lx - Player->lx) : (Player->lx - SwSprite[receiver].lx);
    00001356 DD 4E E8         [19] 2753 	ld	c, -24 (ix)
    00001359 06 00            [ 7] 2754 	ld	b, #0x00
    0000135B 69               [ 4] 2755 	ld	l, c
    0000135C 60               [ 4] 2756 	ld	h, b
    0000135D 29               [11] 2757 	add	hl, hl
    0000135E 29               [11] 2758 	add	hl, hl
    0000135F 09               [11] 2759 	add	hl, bc
    00001360 29               [11] 2760 	add	hl, hl
    00001361 09               [11] 2761 	add	hl, bc
    00001362 29               [11] 2762 	add	hl, hl
    00001363 09               [11] 2763 	add	hl, bc
    00001364 11r00r00         [10] 2764 	ld	de, #_SwSprite
    00001367 19               [11] 2765 	add	hl, de
    00001368 DD 75 F3         [19] 2766 	ld	-13 (ix), l
    0000136B DD 74 F4         [19] 2767 	ld	-12 (ix), h
    0000136E 5E               [ 7] 2768 	ld	e, (hl)
    0000136F DD 6E DB         [19] 2769 	ld	l, -37 (ix)
    00001372 DD 66 DC         [19] 2770 	ld	h, -36 (ix)
    00001375 56               [ 7] 2771 	ld	d, (hl)
    00001376 4B               [ 4] 2772 	ld	c, e
    00001377 06 00            [ 7] 2773 	ld	b, #0x00
    00001379 6A               [ 4] 2774 	ld	l, d
                                   2775 ;	spillPairReg hl
                                   2776 ;	spillPairReg hl
    0000137A 26 00            [ 7] 2777 	ld	h, #0x00
                                   2778 ;	spillPairReg hl
                                   2779 ;	spillPairReg hl
    0000137C 7A               [ 4] 2780 	ld	a, d
    0000137D 93               [ 4] 2781 	sub	a, e
    0000137E 30 09            [12] 2782 	jr	NC, 00412$
    00001380 79               [ 4] 2783 	ld	a, c
    00001381 95               [ 4] 2784 	sub	a, l
    00001382 4F               [ 4] 2785 	ld	c, a
    00001383 78               [ 4] 2786 	ld	a, b
    00001384 9C               [ 4] 2787 	sbc	a, h
    00001385 47               [ 4] 2788 	ld	b, a
    00001386 C3r8Fr13         [10] 2789 	jp	00413$
    00001389                       2790 00412$:
    00001389 7D               [ 4] 2791 	ld	a, l
    0000138A 91               [ 4] 2792 	sub	a, c
    0000138B 4F               [ 4] 2793 	ld	c, a
    0000138C 7C               [ 4] 2794 	ld	a, h
    0000138D 98               [ 4] 2795 	sbc	a, b
    0000138E 47               [ 4] 2796 	ld	b, a
    0000138F                       2797 00413$:
    0000138F DD 71 F5         [19] 2798 	ld	-11 (ix), c
    00001392 DD 70 F6         [19] 2799 	ld	-10 (ix), b
                                   2800 ;E:\Dropbox\FAUSTO\SVILUPPI\MSX\CODE\C\MSXgl\projects\soccerlgMSX2/soccerlg_s6_b3.c:276: u16 r_dy = (SwSprite[receiver].ly > Player->ly) ? (SwSprite[receiver].ly - Player->ly) : (Player->ly - SwSprite[receiver].ly);
    00001395 DD 7E F3         [19] 2801 	ld	a, -13 (ix)
    00001398 C6 04            [ 7] 2802 	add	a, #0x04
    0000139A DD 77 F7         [19] 2803 	ld	-9 (ix), a
    0000139D DD 7E F4         [19] 2804 	ld	a, -12 (ix)
    000013A0 CE 00            [ 7] 2805 	adc	a, #0x00
    000013A2 DD 77 F8         [19] 2806 	ld	-8 (ix), a
    000013A5 DD 6E F7         [19] 2807 	ld	l, -9 (ix)
    000013A8 DD 66 F8         [19] 2808 	ld	h, -8 (ix)
    000013AB 7E               [ 7] 2809 	ld	a, (hl)
    000013AC DD 77 F9         [19] 2810 	ld	-7 (ix), a
    000013AF 23               [ 6] 2811 	inc	hl
    000013B0 7E               [ 7] 2812 	ld	a, (hl)
    000013B1 DD 77 FA         [19] 2813 	ld	-6 (ix), a
    000013B4 DD 6E EF         [19] 2814 	ld	l, -17 (ix)
    000013B7 DD 66 F0         [19] 2815 	ld	h, -16 (ix)
    000013BA 7E               [ 7] 2816 	ld	a, (hl)
    000013BB DD 77 FB         [19] 2817 	ld	-5 (ix), a
    000013BE 23               [ 6] 2818 	inc	hl
    000013BF 7E               [ 7] 2819 	ld	a, (hl)
    000013C0 DD 77 FC         [19] 2820 	ld	-4 (ix), a
    000013C3 DD 7E FB         [19] 2821 	ld	a, -5 (ix)
    000013C6 DD 96 F9         [19] 2822 	sub	a, -7 (ix)
    000013C9 DD 7E FC         [19] 2823 	ld	a, -4 (ix)
    000013CC DD 9E FA         [19] 2824 	sbc	a, -6 (ix)
    000013CF 30 15            [12] 2825 	jr	NC, 00414$
    000013D1 DD 7E F9         [19] 2826 	ld	a, -7 (ix)
    000013D4 DD 96 FB         [19] 2827 	sub	a, -5 (ix)
    000013D7 DD 77 FD         [19] 2828 	ld	-3 (ix), a
    000013DA DD 7E FA         [19] 2829 	ld	a, -6 (ix)
    000013DD DD 9E FC         [19] 2830 	sbc	a, -4 (ix)
    000013E0 DD 77 FE         [19] 2831 	ld	-2 (ix), a
    000013E3 C3rF8r13         [10] 2832 	jp	00415$
    000013E6                       2833 00414$:
    000013E6 DD 7E FB         [19] 2834 	ld	a, -5 (ix)
    000013E9 DD 96 F9         [19] 2835 	sub	a, -7 (ix)
    000013EC DD 77 FD         [19] 2836 	ld	-3 (ix), a
    000013EF DD 7E FC         [19] 2837 	ld	a, -4 (ix)
    000013F2 DD 9E FA         [19] 2838 	sbc	a, -6 (ix)
    000013F5 DD 77 FE         [19] 2839 	ld	-2 (ix), a
    000013F8                       2840 00415$:
    000013F8 DD 7E FD         [19] 2841 	ld	a, -3 (ix)
    000013FB DD 46 FE         [19] 2842 	ld	b, -2 (ix)
                                   2843 ;E:\Dropbox\FAUSTO\SVILUPPI\MSX\CODE\C\MSXgl\projects\soccerlgMSX2/soccerlg_s6_b3.c:278: if (r_dx + r_dy >= 48) {
    000013FE DD 86 F5         [19] 2844 	add	a, -11 (ix)
    00001401 4F               [ 4] 2845 	ld	c, a
    00001402 78               [ 4] 2846 	ld	a, b
    00001403 DD 8E F6         [19] 2847 	adc	a, -10 (ix)
    00001406 47               [ 4] 2848 	ld	b, a
    00001407 79               [ 4] 2849 	ld	a, c
    00001408 D6 30            [ 7] 2850 	sub	a, #0x30
    0000140A 78               [ 4] 2851 	ld	a, b
    0000140B DE 00            [ 7] 2852 	sbc	a, #0x00
    0000140D DAr9Br14         [10] 2853 	jp	C, 00254$
                                   2854 ;E:\Dropbox\FAUSTO\SVILUPPI\MSX\CODE\C\MSXgl\projects\soccerlgMSX2/soccerlg_s6_b3.c:279: action_taken = TRUE;
    00001410 DD 36 E7 01      [19] 2855 	ld	-25 (ix), #0x01
                                   2856 ;E:\Dropbox\FAUSTO\SVILUPPI\MSX\CODE\C\MSXgl\projects\soccerlgMSX2/soccerlg_s6_b3.c:280: Ball->anim = 0; Ball->count = 0;
    00001414 21 00 00         [10] 2857 	ld	hl, #0x0000
    00001417 22r55r01         [16] 2858 	ld	((_SwSprite + 341)), hl
    0000141A 22r57r01         [16] 2859 	ld	((_SwSprite + 343)), hl
                                   2860 ;E:\Dropbox\FAUSTO\SVILUPPI\MSX\CODE\C\MSXgl\projects\soccerlgMSX2/soccerlg_s6_b3.c:281: g_pass_receiver = receiver;
    0000141D DD 7E E8         [19] 2861 	ld	a, -24 (ix)
    00001420 32r00r00         [13] 2862 	ld	(_g_pass_receiver+0), a
                                   2863 ;E:\Dropbox\FAUSTO\SVILUPPI\MSX\CODE\C\MSXgl\projects\soccerlgMSX2/soccerlg_s6_b3.c:282: g_pass_start_x = Player->lx;
    00001423 DD 6E DB         [19] 2864 	ld	l, -37 (ix)
    00001426 DD 66 DC         [19] 2865 	ld	h, -36 (ix)
    00001429 7E               [ 7] 2866 	ld	a, (hl)
    0000142A 32r00r00         [13] 2867 	ld	(_g_pass_start_x+0), a
    0000142D 21r01r00         [10] 2868 	ld	hl, #_g_pass_start_x + 1
    00001430 36 00            [10] 2869 	ld	(hl), #0x00
                                   2870 ;E:\Dropbox\FAUSTO\SVILUPPI\MSX\CODE\C\MSXgl\projects\soccerlgMSX2/soccerlg_s6_b3.c:283: g_pass_start_y = Player->ly;
    00001432 DD 6E EF         [19] 2871 	ld	l, -17 (ix)
    00001435 DD 66 F0         [19] 2872 	ld	h, -16 (ix)
    00001438 7E               [ 7] 2873 	ld	a, (hl)
    00001439 23               [ 6] 2874 	inc	hl
    0000143A 32r00r00         [13] 2875 	ld	(_g_pass_start_y+0), a
    0000143D 7E               [ 7] 2876 	ld	a, (hl)
    0000143E 32r01r00         [13] 2877 	ld	(_g_pass_start_y+1), a
                                   2878 ;E:\Dropbox\FAUSTO\SVILUPPI\MSX\CODE\C\MSXgl\projects\soccerlgMSX2/soccerlg_s6_b3.c:284: g_pass_target_x = SwSprite[receiver].lx;
    00001441 DD 6E F3         [19] 2879 	ld	l, -13 (ix)
    00001444 DD 66 F4         [19] 2880 	ld	h, -12 (ix)
    00001447 7E               [ 7] 2881 	ld	a, (hl)
    00001448 32r00r00         [13] 2882 	ld	(_g_pass_target_x+0), a
    0000144B 21r01r00         [10] 2883 	ld	hl, #_g_pass_target_x + 1
    0000144E 36 00            [10] 2884 	ld	(hl), #0x00
                                   2885 ;E:\Dropbox\FAUSTO\SVILUPPI\MSX\CODE\C\MSXgl\projects\soccerlgMSX2/soccerlg_s6_b3.c:285: g_pass_target_y = SwSprite[receiver].ly;
    00001450 DD 6E F7         [19] 2886 	ld	l, -9 (ix)
    00001453 DD 66 F8         [19] 2887 	ld	h, -8 (ix)
    00001456 7E               [ 7] 2888 	ld	a, (hl)
    00001457 23               [ 6] 2889 	inc	hl
    00001458 32r00r00         [13] 2890 	ld	(_g_pass_target_y+0), a
    0000145B 7E               [ 7] 2891 	ld	a, (hl)
    0000145C 32r01r00         [13] 2892 	ld	(_g_pass_target_y+1), a
                                   2893 ;E:\Dropbox\FAUSTO\SVILUPPI\MSX\CODE\C\MSXgl\projects\soccerlgMSX2/soccerlg_s6_b3.c:286: g_pass_max_frames = (r_dx + r_dy) / 5; // Velocità di volo passaggi
    0000145F 11 05 00         [10] 2894 	ld	de, #0x0005
    00001462 69               [ 4] 2895 	ld	l, c
                                   2896 ;	spillPairReg hl
                                   2897 ;	spillPairReg hl
    00001463 60               [ 4] 2898 	ld	h, b
                                   2899 ;	spillPairReg hl
                                   2900 ;	spillPairReg hl
    00001464 CDr00r00         [17] 2901 	call	__divuint
    00001467 FD 21r00r00      [14] 2902 	ld	iy, #_g_pass_max_frames
    0000146B FD 73 00         [19] 2903 	ld	0 (iy), e
                                   2904 ;E:\Dropbox\FAUSTO\SVILUPPI\MSX\CODE\C\MSXgl\projects\soccerlgMSX2/soccerlg_s6_b3.c:287: if (g_pass_max_frames < 8) g_pass_max_frames = 8;
    0000146E 3Ar00r00         [13] 2905 	ld	a, (_g_pass_max_frames+0)
    00001471 D6 08            [ 7] 2906 	sub	a, #0x08
    00001473 30 04            [12] 2907 	jr	NC, 00244$
    00001475 FD 36 00 08      [19] 2908 	ld	0 (iy), #0x08
    00001479                       2909 00244$:
                                   2910 ;E:\Dropbox\FAUSTO\SVILUPPI\MSX\CODE\C\MSXgl\projects\soccerlgMSX2/soccerlg_s6_b3.c:288: if (g_pass_max_frames > 34) g_pass_max_frames = 34;
    00001479 3E 22            [ 7] 2911 	ld	a, #0x22
    0000147B FD 21r00r00      [14] 2912 	ld	iy, #_g_pass_max_frames
    0000147F FD 96 00         [19] 2913 	sub	a, 0 (iy)
    00001482 30 04            [12] 2914 	jr	NC, 00246$
    00001484 FD 36 00 22      [19] 2915 	ld	0 (iy), #0x22
    00001488                       2916 00246$:
                                   2917 ;E:\Dropbox\FAUSTO\SVILUPPI\MSX\CODE\C\MSXgl\projects\soccerlgMSX2/soccerlg_s6_b3.c:289: g_pass_max_height = 7;
    00001488 21r00r00         [10] 2918 	ld	hl, #_g_pass_max_height
    0000148B 36 07            [10] 2919 	ld	(hl), #0x07
                                   2920 ;E:\Dropbox\FAUSTO\SVILUPPI\MSX\CODE\C\MSXgl\projects\soccerlgMSX2/soccerlg_s6_b3.c:291: Ball->anim = 5;
    0000148D 21 05 00         [10] 2921 	ld	hl, #0x0005
    00001490 22r55r01         [16] 2922 	ld	((_SwSprite + 341)), hl
                                   2923 ;E:\Dropbox\FAUSTO\SVILUPPI\MSX\CODE\C\MSXgl\projects\soccerlgMSX2/soccerlg_s6_b3.c:292: CallFnc_VOID(SEG_EVENTS, EventBallKicked);
    00001493 11r00r00         [10] 2924 	ld	de, #_EventBallKicked
    00001496 3E 08            [ 7] 2925 	ld	a, #0x08
    00001498 CDr00r00         [17] 2926 	call	_CallFnc_VOID
    0000149B                       2927 00254$:
                                   2928 ;E:\Dropbox\FAUSTO\SVILUPPI\MSX\CODE\C\MSXgl\projects\soccerlgMSX2/soccerlg_s6_b3.c:299: if (!action_taken) {
    0000149B DD 7E E7         [19] 2929 	ld	a, -25 (ix)
    0000149E B7               [ 4] 2930 	or	a, a
    0000149F C2r84r15         [10] 2931 	jp	NZ, 00278$
                                   2932 ;E:\Dropbox\FAUSTO\SVILUPPI\MSX\CODE\C\MSXgl\projects\soccerlgMSX2/soccerlg_s6_b3.c:300: Ball->dx = (Player->dx > 0) ? 1 : ((Player->dx < 0) ? -1 : 0);
    000014A2 DD 6E ED         [19] 2933 	ld	l, -19 (ix)
    000014A5 DD 66 EE         [19] 2934 	ld	h, -18 (ix)
    000014A8 4E               [ 7] 2935 	ld	c, (hl)
    000014A9 AF               [ 4] 2936 	xor	a, a
    000014AA 91               [ 4] 2937 	sub	a, c
    000014AB E2rB0r14         [10] 2938 	jp	PO, 01374$
    000014AE EE 80            [ 7] 2939 	xor	a, #0x80
    000014B0                       2940 01374$:
    000014B0 F2rB9r14         [10] 2941 	jp	P, 00416$
    000014B3 11 01 00         [10] 2942 	ld	de, #0x0001
    000014B6 C3rC6r14         [10] 2943 	jp	00417$
    000014B9                       2944 00416$:
    000014B9 CB 79            [ 8] 2945 	bit	7, c
    000014BB 28 06            [12] 2946 	jr	Z, 00418$
    000014BD 11 FF FF         [10] 2947 	ld	de, #0xffff
    000014C0 C3rC6r14         [10] 2948 	jp	00419$
    000014C3                       2949 00418$:
    000014C3 11 00 00         [10] 2950 	ld	de, #0x0000
    000014C6                       2951 00419$:
    000014C6                       2952 00417$:
    000014C6 21r53r01         [10] 2953 	ld	hl, #(_SwSprite + 339)
    000014C9 73               [ 7] 2954 	ld	(hl), e
                                   2955 ;E:\Dropbox\FAUSTO\SVILUPPI\MSX\CODE\C\MSXgl\projects\soccerlgMSX2/soccerlg_s6_b3.c:301: Ball->dy = (Player->dy > 0) ? 1 : ((Player->dy < 0) ? -1 : 0);
    000014CA DD 6E F1         [19] 2956 	ld	l, -15 (ix)
    000014CD DD 66 F2         [19] 2957 	ld	h, -14 (ix)
    000014D0 4E               [ 7] 2958 	ld	c, (hl)
    000014D1 AF               [ 4] 2959 	xor	a, a
    000014D2 91               [ 4] 2960 	sub	a, c
    000014D3 E2rD8r14         [10] 2961 	jp	PO, 01375$
    000014D6 EE 80            [ 7] 2962 	xor	a, #0x80
    000014D8                       2963 01375$:
    000014D8 F2rE1r14         [10] 2964 	jp	P, 00420$
    000014DB 11 01 00         [10] 2965 	ld	de, #0x0001
    000014DE C3rEEr14         [10] 2966 	jp	00421$
    000014E1                       2967 00420$:
    000014E1 CB 79            [ 8] 2968 	bit	7, c
    000014E3 28 06            [12] 2969 	jr	Z, 00422$
    000014E5 11 FF FF         [10] 2970 	ld	de, #0xffff
    000014E8 C3rEEr14         [10] 2971 	jp	00423$
    000014EB                       2972 00422$:
    000014EB 11 00 00         [10] 2973 	ld	de, #0x0000
    000014EE                       2974 00423$:
    000014EE                       2975 00421$:
    000014EE 21r54r01         [10] 2976 	ld	hl, #(_SwSprite + 340)
    000014F1 73               [ 7] 2977 	ld	(hl), e
                                   2978 ;E:\Dropbox\FAUSTO\SVILUPPI\MSX\CODE\C\MSXgl\projects\soccerlgMSX2/soccerlg_s6_b3.c:302: if (Ball->dx == 0 && Ball->dy == 0) Ball->dy = 1; // Avanza verso Sud
    000014F2 3Ar53r01         [13] 2979 	ld	a, (#(_SwSprite + 339) + 0)
    000014F5 B7               [ 4] 2980 	or	a, a
    000014F6 20 08            [12] 2981 	jr	NZ, 00257$
    000014F8 3Ar54r01         [13] 2982 	ld	a, (#(_SwSprite + 340) + 0)
    000014FB B7               [ 4] 2983 	or	a, a
    000014FC 20 02            [12] 2984 	jr	NZ, 00257$
    000014FE 36 01            [10] 2985 	ld	(hl), #0x01
    00001500                       2986 00257$:
                                   2987 ;E:\Dropbox\FAUSTO\SVILUPPI\MSX\CODE\C\MSXgl\projects\soccerlgMSX2/soccerlg_s6_b3.c:304: i8 off_x = 0; i8 off_y = 6;
    00001500 0E 00            [ 7] 2988 	ld	c, #0x00
    00001502 1E 06            [ 7] 2989 	ld	e, #0x06
                                   2990 ;E:\Dropbox\FAUSTO\SVILUPPI\MSX\CODE\C\MSXgl\projects\soccerlgMSX2/soccerlg_s6_b3.c:302: if (Ball->dx == 0 && Ball->dy == 0) Ball->dy = 1; // Avanza verso Sud
    00001504 21r53r01         [10] 2991 	ld	hl, #(_SwSprite + 339)
    00001507 6E               [ 7] 2992 	ld	l, (hl)
                                   2993 ;	spillPairReg hl
                                   2994 ;E:\Dropbox\FAUSTO\SVILUPPI\MSX\CODE\C\MSXgl\projects\soccerlgMSX2/soccerlg_s6_b3.c:305: if (Ball->dx > 0) off_x = 9; else if (Ball->dx < 0) off_x = -9;
    00001508 AF               [ 4] 2995 	xor	a, a
    00001509 95               [ 4] 2996 	sub	a, l
    0000150A E2r0Fr15         [10] 2997 	jp	PO, 01376$
    0000150D EE 80            [ 7] 2998 	xor	a, #0x80
    0000150F                       2999 01376$:
    0000150F F2r17r15         [10] 3000 	jp	P, 00262$
    00001512 0E 09            [ 7] 3001 	ld	c, #0x09
    00001514 C3r1Dr15         [10] 3002 	jp	00263$
    00001517                       3003 00262$:
    00001517 CB 7D            [ 8] 3004 	bit	7, l
    00001519 28 02            [12] 3005 	jr	Z, 00263$
    0000151B 0E F7            [ 7] 3006 	ld	c, #0xf7
    0000151D                       3007 00263$:
                                   3008 ;E:\Dropbox\FAUSTO\SVILUPPI\MSX\CODE\C\MSXgl\projects\soccerlgMSX2/soccerlg_s6_b3.c:302: if (Ball->dx == 0 && Ball->dy == 0) Ball->dy = 1; // Avanza verso Sud
    0000151D 21r54r01         [10] 3009 	ld	hl, #(_SwSprite + 340)
    00001520 6E               [ 7] 3010 	ld	l, (hl)
                                   3011 ;	spillPairReg hl
                                   3012 ;E:\Dropbox\FAUSTO\SVILUPPI\MSX\CODE\C\MSXgl\projects\soccerlgMSX2/soccerlg_s6_b3.c:306: if (Ball->dy > 0) off_y = 8; else if (Ball->dy < 0) off_y = -3; 
    00001521 AF               [ 4] 3013 	xor	a, a
    00001522 95               [ 4] 3014 	sub	a, l
    00001523 E2r28r15         [10] 3015 	jp	PO, 01377$
    00001526 EE 80            [ 7] 3016 	xor	a, #0x80
    00001528                       3017 01377$:
    00001528 F2r30r15         [10] 3018 	jp	P, 00267$
    0000152B 1E 08            [ 7] 3019 	ld	e, #0x08
    0000152D C3r36r15         [10] 3020 	jp	00268$
    00001530                       3021 00267$:
    00001530 CB 7D            [ 8] 3022 	bit	7, l
    00001532 28 02            [12] 3023 	jr	Z, 00268$
    00001534 1E FD            [ 7] 3024 	ld	e, #0xfd
    00001536                       3025 00268$:
                                   3026 ;E:\Dropbox\FAUSTO\SVILUPPI\MSX\CODE\C\MSXgl\projects\soccerlgMSX2/soccerlg_s6_b3.c:308: Ball->lx = (u8)(Player->lx + off_x);
    00001536 DD 6E DB         [19] 3027 	ld	l, -37 (ix)
    00001539 DD 66 DC         [19] 3028 	ld	h, -36 (ix)
    0000153C 7E               [ 7] 3029 	ld	a, (hl)
    0000153D 81               [ 4] 3030 	add	a, c
    0000153E 32r42r01         [13] 3031 	ld	(#(_SwSprite + 322)),a
                                   3032 ;E:\Dropbox\FAUSTO\SVILUPPI\MSX\CODE\C\MSXgl\projects\soccerlgMSX2/soccerlg_s6_b3.c:309: Ball->ly = (Player->ly + off_y) & 511;
    00001541 DD 6E EF         [19] 3033 	ld	l, -17 (ix)
    00001544 DD 66 F0         [19] 3034 	ld	h, -16 (ix)
    00001547 4E               [ 7] 3035 	ld	c, (hl)
    00001548 23               [ 6] 3036 	inc	hl
    00001549 46               [ 7] 3037 	ld	b, (hl)
    0000154A 7B               [ 4] 3038 	ld	a, e
    0000154B 07               [ 4] 3039 	rlca
    0000154C 9F               [ 4] 3040 	sbc	a, a
    0000154D 57               [ 4] 3041 	ld	d, a
    0000154E EB               [ 4] 3042 	ex	de, hl
    0000154F 09               [11] 3043 	add	hl, bc
    00001550 4D               [ 4] 3044 	ld	c, l
    00001551 7C               [ 4] 3045 	ld	a, h
    00001552 E6 01            [ 7] 3046 	and	a, #0x01
    00001554 47               [ 4] 3047 	ld	b, a
    00001555 ED 43r46r01      [20] 3048 	ld	((_SwSprite + 326)), bc
                                   3049 ;E:\Dropbox\FAUSTO\SVILUPPI\MSX\CODE\C\MSXgl\projects\soccerlgMSX2/soccerlg_s6_b3.c:310: Ball->anim = 3; Ball->count = 0;
    00001559 21 03 00         [10] 3050 	ld	hl, #0x0003
    0000155C 22r55r01         [16] 3051 	ld	((_SwSprite + 341)), hl
    0000155F 6C               [ 4] 3052 	ld	l, h
    00001560 22r57r01         [16] 3053 	ld	((_SwSprite + 343)), hl
                                   3054 ;E:\Dropbox\FAUSTO\SVILUPPI\MSX\CODE\C\MSXgl\projects\soccerlgMSX2/soccerlg_s6_b3.c:311: CallFnc_VOID(SEG_EVENTS, EventBallKicked);
    00001563 11r00r00         [10] 3055 	ld	de, #_EventBallKicked
    00001566 3E 08            [ 7] 3056 	ld	a, #0x08
    00001568 CDr00r00         [17] 3057 	call	_CallFnc_VOID
    0000156B C3r84r15         [10] 3058 	jp	00278$
    0000156E                       3059 00275$:
                                   3060 ;E:\Dropbox\FAUSTO\SVILUPPI\MSX\CODE\C\MSXgl\projects\soccerlgMSX2/soccerlg_s6_b3.c:316: target_x = Ball->lx;
    0000156E 3Ar42r01         [13] 3061 	ld	a, (#(_SwSprite + 322) + 0)
    00001571 DD 77 EB         [19] 3062 	ld	-21 (ix), a
    00001574 DD 36 EC 00      [19] 3063 	ld	-20 (ix), #0x00
                                   3064 ;E:\Dropbox\FAUSTO\SVILUPPI\MSX\CODE\C\MSXgl\projects\soccerlgMSX2/soccerlg_s6_b3.c:317: target_y = Ball->ly;
    00001578 21r46r01         [10] 3065 	ld	hl, #(_SwSprite + 326)
    0000157B 7E               [ 7] 3066 	ld	a, (hl)
    0000157C DD 77 E9         [19] 3067 	ld	-23 (ix), a
    0000157F 23               [ 6] 3068 	inc	hl
    00001580 7E               [ 7] 3069 	ld	a, (hl)
    00001581 DD 77 EA         [19] 3070 	ld	-22 (ix), a
    00001584                       3071 00278$:
                                   3072 ;E:\Dropbox\FAUSTO\SVILUPPI\MSX\CODE\C\MSXgl\projects\soccerlgMSX2/soccerlg_s6_b3.c:322: if (target_x < 16) target_x = 16; 
    00001584 DD 7E EB         [19] 3073 	ld	a, -21 (ix)
    00001587 DD 46 EC         [19] 3074 	ld	b, -20 (ix)
    0000158A D6 10            [ 7] 3075 	sub	a, #0x10
    0000158C 78               [ 4] 3076 	ld	a, b
    0000158D DE 00            [ 7] 3077 	sbc	a, #0x00
    0000158F 30 08            [12] 3078 	jr	NC, 00282$
    00001591 DD 36 EB 10      [19] 3079 	ld	-21 (ix), #0x10
    00001595 DD 36 EC 00      [19] 3080 	ld	-20 (ix), #0
    00001599                       3081 00282$:
                                   3082 ;E:\Dropbox\FAUSTO\SVILUPPI\MSX\CODE\C\MSXgl\projects\soccerlgMSX2/soccerlg_s6_b3.c:323: if (target_x > 224) target_x = 224;
    00001599 DD 4E EB         [19] 3083 	ld	c, -21 (ix)
    0000159C DD 46 EC         [19] 3084 	ld	b, -20 (ix)
    0000159F 3E E0            [ 7] 3085 	ld	a, #0xe0
    000015A1 B9               [ 4] 3086 	cp	a, c
    000015A2 3E 00            [ 7] 3087 	ld	a, #0x00
    000015A4 98               [ 4] 3088 	sbc	a, b
    000015A5 30 08            [12] 3089 	jr	NC, 00284$
    000015A7 DD 36 EB E0      [19] 3090 	ld	-21 (ix), #0xe0
    000015AB DD 36 EC 00      [19] 3091 	ld	-20 (ix), #0
    000015AF                       3092 00284$:
                                   3093 ;E:\Dropbox\FAUSTO\SVILUPPI\MSX\CODE\C\MSXgl\projects\soccerlgMSX2/soccerlg_s6_b3.c:324: if (target_y < 24) target_y = 24;
    000015AF DD 7E E9         [19] 3094 	ld	a, -23 (ix)
    000015B2 DD 46 EA         [19] 3095 	ld	b, -22 (ix)
    000015B5 D6 18            [ 7] 3096 	sub	a, #0x18
    000015B7 78               [ 4] 3097 	ld	a, b
    000015B8 DE 00            [ 7] 3098 	sbc	a, #0x00
    000015BA 30 08            [12] 3099 	jr	NC, 00286$
    000015BC DD 36 E9 18      [19] 3100 	ld	-23 (ix), #0x18
    000015C0 DD 36 EA 00      [19] 3101 	ld	-22 (ix), #0
    000015C4                       3102 00286$:
                                   3103 ;E:\Dropbox\FAUSTO\SVILUPPI\MSX\CODE\C\MSXgl\projects\soccerlgMSX2/soccerlg_s6_b3.c:325: if (target_y > 478) target_y = 478;
    000015C4 DD 4E E9         [19] 3104 	ld	c, -23 (ix)
    000015C7 DD 46 EA         [19] 3105 	ld	b, -22 (ix)
    000015CA 3E DE            [ 7] 3106 	ld	a, #0xde
    000015CC B9               [ 4] 3107 	cp	a, c
    000015CD 3E 01            [ 7] 3108 	ld	a, #0x01
    000015CF 98               [ 4] 3109 	sbc	a, b
    000015D0 30 08            [12] 3110 	jr	NC, 00288$
    000015D2 DD 36 E9 DE      [19] 3111 	ld	-23 (ix), #0xde
    000015D6 DD 36 EA 01      [19] 3112 	ld	-22 (ix), #0x01
    000015DA                       3113 00288$:
                                   3114 ;E:\Dropbox\FAUSTO\SVILUPPI\MSX\CODE\C\MSXgl\projects\soccerlgMSX2/soccerlg_s6_b3.c:329: u16 dist_x = (target_x > Player->lx) ? (target_x - Player->lx) : (Player->lx - target_x);
    000015DA DD 6E DB         [19] 3115 	ld	l, -37 (ix)
    000015DD DD 66 DC         [19] 3116 	ld	h, -36 (ix)
    000015E0 7E               [ 7] 3117 	ld	a, (hl)
    000015E1 4F               [ 4] 3118 	ld	c, a
    000015E2 06 00            [ 7] 3119 	ld	b, #0x00
    000015E4 DD 77 FD         [19] 3120 	ld	-3 (ix), a
    000015E7 DD 36 FE 00      [19] 3121 	ld	-2 (ix), #0x00
    000015EB 79               [ 4] 3122 	ld	a, c
    000015EC DD 96 EB         [19] 3123 	sub	a, -21 (ix)
    000015EF 78               [ 4] 3124 	ld	a, b
    000015F0 DD 9E EC         [19] 3125 	sbc	a, -20 (ix)
    000015F3 30 2D            [12] 3126 	jr	NC, 00424$
    000015F5 DD 7E EB         [19] 3127 	ld	a, -21 (ix)
    000015F8 DD 77 F9         [19] 3128 	ld	-7 (ix), a
    000015FB DD 7E EC         [19] 3129 	ld	a, -20 (ix)
    000015FE DD 77 FA         [19] 3130 	ld	-6 (ix), a
    00001601 DD 7E FD         [19] 3131 	ld	a, -3 (ix)
    00001604 DD 77 FB         [19] 3132 	ld	-5 (ix), a
    00001607 DD 7E FE         [19] 3133 	ld	a, -2 (ix)
    0000160A DD 77 FC         [19] 3134 	ld	-4 (ix), a
    0000160D DD 7E F9         [19] 3135 	ld	a, -7 (ix)
    00001610 DD 96 FB         [19] 3136 	sub	a, -5 (ix)
    00001613 DD 77 FD         [19] 3137 	ld	-3 (ix), a
    00001616 DD 7E FA         [19] 3138 	ld	a, -6 (ix)
    00001619 DD 9E FC         [19] 3139 	sbc	a, -4 (ix)
    0000161C DD 77 FE         [19] 3140 	ld	-2 (ix), a
    0000161F C3r35r16         [10] 3141 	jp	00425$
    00001622                       3142 00424$:
    00001622 DD 7E FD         [19] 3143 	ld	a, -3 (ix)
    00001625 DD 4E FE         [19] 3144 	ld	c, -2 (ix)
    00001628 DD 96 EB         [19] 3145 	sub	a, -21 (ix)
    0000162B DD 77 FD         [19] 3146 	ld	-3 (ix), a
    0000162E 79               [ 4] 3147 	ld	a, c
    0000162F DD 9E EC         [19] 3148 	sbc	a, -20 (ix)
    00001632 DD 77 FE         [19] 3149 	ld	-2 (ix), a
    00001635                       3150 00425$:
                                   3151 ;E:\Dropbox\FAUSTO\SVILUPPI\MSX\CODE\C\MSXgl\projects\soccerlgMSX2/soccerlg_s6_b3.c:330: u16 dist_y = (target_y > Player->ly) ? (target_y - Player->ly) : (Player->ly - target_y);
    00001635 DD 6E EF         [19] 3152 	ld	l, -17 (ix)
    00001638 DD 66 F0         [19] 3153 	ld	h, -16 (ix)
    0000163B 7E               [ 7] 3154 	ld	a, (hl)
    0000163C DD 77 FB         [19] 3155 	ld	-5 (ix), a
    0000163F 23               [ 6] 3156 	inc	hl
    00001640 7E               [ 7] 3157 	ld	a, (hl)
    00001641 DD 77 FC         [19] 3158 	ld	-4 (ix), a
    00001644 DD 7E FB         [19] 3159 	ld	a, -5 (ix)
    00001647 DD 96 E9         [19] 3160 	sub	a, -23 (ix)
    0000164A DD 7E FC         [19] 3161 	ld	a, -4 (ix)
    0000164D DD 9E EA         [19] 3162 	sbc	a, -22 (ix)
    00001650 30 11            [12] 3163 	jr	NC, 00426$
    00001652 DD 7E E9         [19] 3164 	ld	a, -23 (ix)
    00001655 DD 96 FB         [19] 3165 	sub	a, -5 (ix)
    00001658 4F               [ 4] 3166 	ld	c, a
    00001659 DD 7E EA         [19] 3167 	ld	a, -22 (ix)
    0000165C DD 9E FC         [19] 3168 	sbc	a, -4 (ix)
    0000165F 47               [ 4] 3169 	ld	b, a
    00001660 C3r71r16         [10] 3170 	jp	00427$
    00001663                       3171 00426$:
    00001663 DD 7E FB         [19] 3172 	ld	a, -5 (ix)
    00001666 DD 96 E9         [19] 3173 	sub	a, -23 (ix)
    00001669 4F               [ 4] 3174 	ld	c, a
    0000166A DD 7E FC         [19] 3175 	ld	a, -4 (ix)
    0000166D DD 9E EA         [19] 3176 	sbc	a, -22 (ix)
    00001670 47               [ 4] 3177 	ld	b, a
    00001671                       3178 00427$:
                                   3179 ;E:\Dropbox\FAUSTO\SVILUPPI\MSX\CODE\C\MSXgl\projects\soccerlgMSX2/soccerlg_s6_b3.c:333: u8 speed = 1;
    00001671 1E 01            [ 7] 3180 	ld	e, #0x01
                                   3181 ;E:\Dropbox\FAUSTO\SVILUPPI\MSX\CODE\C\MSXgl\projects\soccerlgMSX2/soccerlg_s6_b3.c:334: if (dist_x > 24 || dist_y > 24) speed = 2;
    00001673 DD 56 FD         [19] 3182 	ld	d, -3 (ix)
    00001676 DD 6E FE         [19] 3183 	ld	l, -2 (ix)
                                   3184 ;	spillPairReg hl
                                   3185 ;	spillPairReg hl
    00001679 3E 18            [ 7] 3186 	ld	a, #0x18
    0000167B BA               [ 4] 3187 	cp	a, d
    0000167C 3E 00            [ 7] 3188 	ld	a, #0x00
    0000167E 9D               [ 4] 3189 	sbc	a, l
    0000167F 38 0A            [12] 3190 	jr	C, 00289$
    00001681 51               [ 4] 3191 	ld	d, c
    00001682 68               [ 4] 3192 	ld	l, b
                                   3193 ;	spillPairReg hl
                                   3194 ;	spillPairReg hl
    00001683 3E 18            [ 7] 3195 	ld	a, #0x18
    00001685 BA               [ 4] 3196 	cp	a, d
    00001686 3E 00            [ 7] 3197 	ld	a, #0x00
    00001688 9D               [ 4] 3198 	sbc	a, l
    00001689 30 02            [12] 3199 	jr	NC, 00290$
    0000168B                       3200 00289$:
    0000168B 1E 02            [ 7] 3201 	ld	e, #0x02
    0000168D                       3202 00290$:
                                   3203 ;E:\Dropbox\FAUSTO\SVILUPPI\MSX\CODE\C\MSXgl\projects\soccerlgMSX2/soccerlg_s6_b3.c:336: Player->dx = 0; Player->dy = 0;
    0000168D DD 6E ED         [19] 3204 	ld	l, -19 (ix)
    00001690 DD 66 EE         [19] 3205 	ld	h, -18 (ix)
    00001693 36 00            [10] 3206 	ld	(hl), #0x00
    00001695 DD 6E F1         [19] 3207 	ld	l, -15 (ix)
    00001698 DD 66 F2         [19] 3208 	ld	h, -14 (ix)
    0000169B 36 00            [10] 3209 	ld	(hl), #0x00
                                   3210 ;E:\Dropbox\FAUSTO\SVILUPPI\MSX\CODE\C\MSXgl\projects\soccerlgMSX2/soccerlg_s6_b3.c:338: if (dist_x > speed) Player->dx = (target_x > Player->lx) ? speed : -speed;
    0000169D DD 73 FB         [19] 3211 	ld	-5 (ix), e
    000016A0 DD 36 FC 00      [19] 3212 	ld	-4 (ix), #0x00
    000016A4 DD 7E FB         [19] 3213 	ld	a, -5 (ix)
    000016A7 DD 96 FD         [19] 3214 	sub	a, -3 (ix)
    000016AA DD 7E FC         [19] 3215 	ld	a, -4 (ix)
    000016AD DD 9E FE         [19] 3216 	sbc	a, -2 (ix)
    000016B0 30 2B            [12] 3217 	jr	NC, 00293$
    000016B2 DD 7E ED         [19] 3218 	ld	a, -19 (ix)
    000016B5 DD 77 FD         [19] 3219 	ld	-3 (ix), a
    000016B8 DD 7E EE         [19] 3220 	ld	a, -18 (ix)
    000016BB DD 77 FE         [19] 3221 	ld	-2 (ix), a
    000016BE DD 6E DB         [19] 3222 	ld	l, -37 (ix)
    000016C1 DD 66 DC         [19] 3223 	ld	h, -36 (ix)
                                   3224 ;	spillPairReg hl
                                   3225 ;	spillPairReg hl
    000016C4 7E               [ 7] 3226 	ld	a, (hl)
    000016C5 2E 00            [ 7] 3227 	ld	l, #0x00
    000016C7 DD 96 EB         [19] 3228 	sub	a, -21 (ix)
    000016CA 7D               [ 4] 3229 	ld	a, l
    000016CB DD 9E EC         [19] 3230 	sbc	a, -20 (ix)
    000016CE 30 04            [12] 3231 	jr	NC, 00428$
    000016D0 7B               [ 4] 3232 	ld	a, e
    000016D1 C3rD6r16         [10] 3233 	jp	00429$
    000016D4                       3234 00428$:
    000016D4 AF               [ 4] 3235 	xor	a, a
    000016D5 93               [ 4] 3236 	sub	a, e
    000016D6                       3237 00429$:
    000016D6 DD 6E FD         [19] 3238 	ld	l, -3 (ix)
    000016D9 DD 66 FE         [19] 3239 	ld	h, -2 (ix)
    000016DC 77               [ 7] 3240 	ld	(hl), a
    000016DD                       3241 00293$:
                                   3242 ;E:\Dropbox\FAUSTO\SVILUPPI\MSX\CODE\C\MSXgl\projects\soccerlgMSX2/soccerlg_s6_b3.c:339: if (dist_y > speed) Player->dy = (target_y > Player->ly) ? speed : -speed;
    000016DD DD 7E FB         [19] 3243 	ld	a, -5 (ix)
    000016E0 91               [ 4] 3244 	sub	a, c
    000016E1 DD 7E FC         [19] 3245 	ld	a, -4 (ix)
    000016E4 98               [ 4] 3246 	sbc	a, b
    000016E5 30 2C            [12] 3247 	jr	NC, 00295$
    000016E7 DD 7E F1         [19] 3248 	ld	a, -15 (ix)
    000016EA DD 77 FD         [19] 3249 	ld	-3 (ix), a
    000016ED DD 7E F2         [19] 3250 	ld	a, -14 (ix)
    000016F0 DD 77 FE         [19] 3251 	ld	-2 (ix), a
    000016F3 DD 6E EF         [19] 3252 	ld	l, -17 (ix)
    000016F6 DD 66 F0         [19] 3253 	ld	h, -16 (ix)
    000016F9 4E               [ 7] 3254 	ld	c, (hl)
    000016FA 23               [ 6] 3255 	inc	hl
    000016FB 46               [ 7] 3256 	ld	b, (hl)
    000016FC 79               [ 4] 3257 	ld	a, c
    000016FD DD 96 E9         [19] 3258 	sub	a, -23 (ix)
    00001700 78               [ 4] 3259 	ld	a, b
    00001701 DD 9E EA         [19] 3260 	sbc	a, -22 (ix)
    00001704 30 04            [12] 3261 	jr	NC, 00430$
    00001706 7B               [ 4] 3262 	ld	a, e
    00001707 C3r0Cr17         [10] 3263 	jp	00431$
    0000170A                       3264 00430$:
    0000170A AF               [ 4] 3265 	xor	a, a
    0000170B 93               [ 4] 3266 	sub	a, e
    0000170C                       3267 00431$:
    0000170C DD 6E FD         [19] 3268 	ld	l, -3 (ix)
    0000170F DD 66 FE         [19] 3269 	ld	h, -2 (ix)
    00001712 77               [ 7] 3270 	ld	(hl), a
    00001713                       3271 00295$:
                                   3272 ;E:\Dropbox\FAUSTO\SVILUPPI\MSX\CODE\C\MSXgl\projects\soccerlgMSX2/soccerlg_s6_b3.c:341: if (Player->dx != 0 || Player->dy != 0) {
    00001713 DD 6E ED         [19] 3273 	ld	l, -19 (ix)
    00001716 DD 66 EE         [19] 3274 	ld	h, -18 (ix)
    00001719 5E               [ 7] 3275 	ld	e, (hl)
                                   3276 ;E:\Dropbox\FAUSTO\SVILUPPI\MSX\CODE\C\MSXgl\projects\soccerlgMSX2/soccerlg_s6_b3.c:58: Player->frame = (Player->dx > 0) ? 
    0000171A DD 7E DB         [19] 3277 	ld	a, -37 (ix)
    0000171D C6 0F            [ 7] 3278 	add	a, #0x0f
    0000171F 4F               [ 4] 3279 	ld	c, a
    00001720 DD 7E DC         [19] 3280 	ld	a, -36 (ix)
    00001723 CE 00            [ 7] 3281 	adc	a, #0x00
    00001725 47               [ 4] 3282 	ld	b, a
                                   3283 ;E:\Dropbox\FAUSTO\SVILUPPI\MSX\CODE\C\MSXgl\projects\soccerlgMSX2/soccerlg_s6_b3.c:341: if (Player->dx != 0 || Player->dy != 0) {
    00001726 7B               [ 4] 3284 	ld	a, e
    00001727 B7               [ 4] 3285 	or	a, a
    00001728 20 0B            [12] 3286 	jr	NZ, 00299$
    0000172A DD 6E F1         [19] 3287 	ld	l, -15 (ix)
    0000172D DD 66 F2         [19] 3288 	ld	h, -14 (ix)
    00001730 7E               [ 7] 3289 	ld	a, (hl)
    00001731 B7               [ 4] 3290 	or	a, a
    00001732 CArE9r17         [10] 3291 	jp	Z, 00300$
    00001735                       3292 00299$:
                                   3293 ;E:\Dropbox\FAUSTO\SVILUPPI\MSX\CODE\C\MSXgl\projects\soccerlgMSX2/soccerlg_s6_b3.c:342: ai_last_dx[i] = Player->dx;
    00001735 3Er00            [ 7] 3294 	ld	a, #<(_ai_last_dx)
    00001737 DD 86 FF         [19] 3295 	add	a, -1 (ix)
    0000173A 6F               [ 4] 3296 	ld	l, a
                                   3297 ;	spillPairReg hl
                                   3298 ;	spillPairReg hl
    0000173B 3Es00            [ 7] 3299 	ld	a, #>(_ai_last_dx)
    0000173D CE 00            [ 7] 3300 	adc	a, #0x00
    0000173F 67               [ 4] 3301 	ld	h, a
    00001740 73               [ 7] 3302 	ld	(hl), e
                                   3303 ;E:\Dropbox\FAUSTO\SVILUPPI\MSX\CODE\C\MSXgl\projects\soccerlgMSX2/soccerlg_s6_b3.c:343: ai_last_dy[i] = Player->dy;
    00001741 3Er0E            [ 7] 3304 	ld	a, #<(_ai_last_dy)
    00001743 DD 86 FF         [19] 3305 	add	a, -1 (ix)
    00001746 5F               [ 4] 3306 	ld	e, a
    00001747 3Es00            [ 7] 3307 	ld	a, #>(_ai_last_dy)
    00001749 CE 00            [ 7] 3308 	adc	a, #0x00
    0000174B 57               [ 4] 3309 	ld	d, a
    0000174C DD 6E F1         [19] 3310 	ld	l, -15 (ix)
    0000174F DD 66 F2         [19] 3311 	ld	h, -14 (ix)
    00001752 7E               [ 7] 3312 	ld	a, (hl)
    00001753 12               [ 7] 3313 	ld	(de), a
                                   3314 ;E:\Dropbox\FAUSTO\SVILUPPI\MSX\CODE\C\MSXgl\projects\soccerlgMSX2/soccerlg_s6_b3.c:345: Player->lx += Player->dx;
    00001754 DD 6E DB         [19] 3315 	ld	l, -37 (ix)
    00001757 DD 66 DC         [19] 3316 	ld	h, -36 (ix)
    0000175A 7E               [ 7] 3317 	ld	a, (hl)
    0000175B DD 6E ED         [19] 3318 	ld	l, -19 (ix)
    0000175E DD 66 EE         [19] 3319 	ld	h, -18 (ix)
    00001761 5E               [ 7] 3320 	ld	e, (hl)
    00001762 83               [ 4] 3321 	add	a, e
    00001763 DD 6E DB         [19] 3322 	ld	l, -37 (ix)
    00001766 DD 66 DC         [19] 3323 	ld	h, -36 (ix)
    00001769 77               [ 7] 3324 	ld	(hl), a
                                   3325 ;E:\Dropbox\FAUSTO\SVILUPPI\MSX\CODE\C\MSXgl\projects\soccerlgMSX2/soccerlg_s6_b3.c:346: Player->ly += Player->dy;
    0000176A DD 6E EF         [19] 3326 	ld	l, -17 (ix)
    0000176D DD 66 F0         [19] 3327 	ld	h, -16 (ix)
    00001770 5E               [ 7] 3328 	ld	e, (hl)
    00001771 23               [ 6] 3329 	inc	hl
    00001772 56               [ 7] 3330 	ld	d, (hl)
    00001773 DD 6E F1         [19] 3331 	ld	l, -15 (ix)
    00001776 DD 66 F2         [19] 3332 	ld	h, -14 (ix)
    00001779 7E               [ 7] 3333 	ld	a, (hl)
    0000177A 6F               [ 4] 3334 	ld	l, a
                                   3335 ;	spillPairReg hl
                                   3336 ;	spillPairReg hl
    0000177B 07               [ 4] 3337 	rlca
    0000177C 9F               [ 4] 3338 	sbc	a, a
    0000177D 67               [ 4] 3339 	ld	h, a
                                   3340 ;	spillPairReg hl
                                   3341 ;	spillPairReg hl
    0000177E 19               [11] 3342 	add	hl, de
    0000177F EB               [ 4] 3343 	ex	de, hl
    00001780 DD 6E EF         [19] 3344 	ld	l, -17 (ix)
    00001783 DD 66 F0         [19] 3345 	ld	h, -16 (ix)
    00001786 73               [ 7] 3346 	ld	(hl), e
    00001787 23               [ 6] 3347 	inc	hl
    00001788 72               [ 7] 3348 	ld	(hl), d
                                   3349 ;E:\Dropbox\FAUSTO\SVILUPPI\MSX\CODE\C\MSXgl\projects\soccerlgMSX2/soccerlg_s6_b3.c:348: Player->anim++;
    00001789 DD 6E DB         [19] 3350 	ld	l, -37 (ix)
    0000178C DD 66 DC         [19] 3351 	ld	h, -36 (ix)
    0000178F 11 13 00         [10] 3352 	ld	de, #0x0013
    00001792 19               [11] 3353 	add	hl, de
    00001793 5E               [ 7] 3354 	ld	e, (hl)
    00001794 23               [ 6] 3355 	inc	hl
    00001795 56               [ 7] 3356 	ld	d, (hl)
    00001796 2B               [ 6] 3357 	dec	hl
    00001797 13               [ 6] 3358 	inc	de
    00001798 73               [ 7] 3359 	ld	(hl), e
    00001799 23               [ 6] 3360 	inc	hl
    0000179A 72               [ 7] 3361 	ld	(hl), d
                                   3362 ;E:\Dropbox\FAUSTO\SVILUPPI\MSX\CODE\C\MSXgl\projects\soccerlgMSX2/soccerlg_s6_b3.c:349: const u8 walk_seq[4] = {0, 1, 2, 1};
    0000179B DD 36 D5 00      [19] 3363 	ld	-43 (ix), #0x00
    0000179F DD 36 D6 01      [19] 3364 	ld	-42 (ix), #0x01
    000017A3 DD 36 D7 02      [19] 3365 	ld	-41 (ix), #0x02
    000017A7 DD 36 D8 01      [19] 3366 	ld	-40 (ix), #0x01
                                   3367 ;E:\Dropbox\FAUSTO\SVILUPPI\MSX\CODE\C\MSXgl\projects\soccerlgMSX2/soccerlg_s6_b3.c:350: Player->frame = CallFnc_U16_P4(SEG_GAMESTATE_2, GetPlayerAnimFrame, i, Player->dx, Player->dy, walk_seq[(Player->anim / 3) % 4]);
    000017AB C5               [11] 3368 	push	bc
    000017AC EB               [ 4] 3369 	ex	de, hl
    000017AD 11 03 00         [10] 3370 	ld	de, #0x0003
    000017B0 CDr00r00         [17] 3371 	call	__divuint
    000017B3 C1               [10] 3372 	pop	bc
    000017B4 7B               [ 4] 3373 	ld	a, e
    000017B5 E6 03            [ 7] 3374 	and	a, #0x03
    000017B7 5F               [ 4] 3375 	ld	e, a
    000017B8 16 00            [ 7] 3376 	ld	d, #0x00
    000017BA 21 00 00         [10] 3377 	ld	hl, #0
    000017BD 39               [11] 3378 	add	hl, sp
    000017BE 19               [11] 3379 	add	hl, de
    000017BF 7E               [ 7] 3380 	ld	a, (hl)
    000017C0 DD 6E F1         [19] 3381 	ld	l, -15 (ix)
    000017C3 DD 66 F2         [19] 3382 	ld	h, -14 (ix)
    000017C6 56               [ 7] 3383 	ld	d, (hl)
    000017C7 DD 6E ED         [19] 3384 	ld	l, -19 (ix)
    000017CA DD 66 EE         [19] 3385 	ld	h, -18 (ix)
    000017CD 66               [ 7] 3386 	ld	h, (hl)
                                   3387 ;	spillPairReg hl
    000017CE C5               [11] 3388 	push	bc
    000017CF F5               [11] 3389 	push	af
    000017D0 5C               [ 4] 3390 	ld	e, h
    000017D1 33               [ 6] 3391 	inc	sp
    000017D2 D5               [11] 3392 	push	de
    000017D3 DD 7E FF         [19] 3393 	ld	a, -1 (ix)
    000017D6 F5               [11] 3394 	push	af
    000017D7 33               [ 6] 3395 	inc	sp
    000017D8 11r00r00         [10] 3396 	ld	de, #_GetPlayerAnimFrame
    000017DB 3E 0B            [ 7] 3397 	ld	a, #0x0b
    000017DD CDr00r00         [17] 3398 	call	_CallFnc_U16_P4
    000017E0 C1               [10] 3399 	pop	bc
    000017E1 7B               [ 4] 3400 	ld	a, e
    000017E2 02               [ 7] 3401 	ld	(bc), a
    000017E3 03               [ 6] 3402 	inc	bc
    000017E4 7A               [ 4] 3403 	ld	a, d
    000017E5 02               [ 7] 3404 	ld	(bc), a
    000017E6 C3rC8r18         [10] 3405 	jp	00306$
    000017E9                       3406 00300$:
                                   3407 ;E:\Dropbox\FAUSTO\SVILUPPI\MSX\CODE\C\MSXgl\projects\soccerlgMSX2/soccerlg_s6_b3.c:35: i8 look_dx = (Ball->lx > SwSprite[i].lx) ? 1 : ((Ball->lx < SwSprite[i].lx) ? -1 : 0);
    000017E9 21r42r01         [10] 3408 	ld	hl, #(_SwSprite + 322)
    000017EC 5E               [ 7] 3409 	ld	e, (hl)
                                   3410 ;E:\Dropbox\FAUSTO\SVILUPPI\MSX\CODE\C\MSXgl\projects\soccerlgMSX2/soccerlg_s6_b3.c:353: i8 dir_x = (Ball->lx > Player->lx + 4) ? 1 : ((Ball->lx < Player->lx - 4) ? -1 : 0);
    000017ED DD 6E DB         [19] 3411 	ld	l, -37 (ix)
    000017F0 DD 66 DC         [19] 3412 	ld	h, -36 (ix)
    000017F3 7E               [ 7] 3413 	ld	a, (hl)
    000017F4 DD 77 FB         [19] 3414 	ld	-5 (ix), a
    000017F7 DD 36 FC 00      [19] 3415 	ld	-4 (ix), #0x00
    000017FB DD 7E FB         [19] 3416 	ld	a, -5 (ix)
    000017FE C6 04            [ 7] 3417 	add	a, #0x04
    00001800 57               [ 4] 3418 	ld	d, a
    00001801 DD 7E FC         [19] 3419 	ld	a, -4 (ix)
    00001804 CE 00            [ 7] 3420 	adc	a, #0x00
    00001806 6F               [ 4] 3421 	ld	l, a
                                   3422 ;	spillPairReg hl
                                   3423 ;	spillPairReg hl
                                   3424 ;E:\Dropbox\FAUSTO\SVILUPPI\MSX\CODE\C\MSXgl\projects\soccerlgMSX2/soccerlg_s6_b3.c:159: target_x = Ball->lx + ((role == 3) ? -32 : 32);
    00001807 DD 73 FD         [19] 3425 	ld	-3 (ix), e
    0000180A DD 36 FE 00      [19] 3426 	ld	-2 (ix), #0x00
                                   3427 ;E:\Dropbox\FAUSTO\SVILUPPI\MSX\CODE\C\MSXgl\projects\soccerlgMSX2/soccerlg_s6_b3.c:353: i8 dir_x = (Ball->lx > Player->lx + 4) ? 1 : ((Ball->lx < Player->lx - 4) ? -1 : 0);
    0000180E 7A               [ 4] 3428 	ld	a, d
    0000180F DD 96 FD         [19] 3429 	sub	a, -3 (ix)
    00001812 7D               [ 4] 3430 	ld	a, l
    00001813 DD 9E FE         [19] 3431 	sbc	a, -2 (ix)
    00001816 E2r1Br18         [10] 3432 	jp	PO, 01378$
    00001819 EE 80            [ 7] 3433 	xor	a, #0x80
    0000181B                       3434 01378$:
    0000181B F2r24r18         [10] 3435 	jp	P, 00432$
    0000181E 11 01 00         [10] 3436 	ld	de, #0x0001
    00001821 C3r49r18         [10] 3437 	jp	00433$
    00001824                       3438 00432$:
    00001824 DD 7E FB         [19] 3439 	ld	a, -5 (ix)
    00001827 C6 FC            [ 7] 3440 	add	a, #0xfc
    00001829 5F               [ 4] 3441 	ld	e, a
    0000182A DD 7E FC         [19] 3442 	ld	a, -4 (ix)
    0000182D CE FF            [ 7] 3443 	adc	a, #0xff
    0000182F 57               [ 4] 3444 	ld	d, a
    00001830 DD 7E FD         [19] 3445 	ld	a, -3 (ix)
    00001833 93               [ 4] 3446 	sub	a, e
    00001834 DD 7E FE         [19] 3447 	ld	a, -2 (ix)
    00001837 9A               [ 4] 3448 	sbc	a, d
    00001838 E2r3Dr18         [10] 3449 	jp	PO, 01379$
    0000183B EE 80            [ 7] 3450 	xor	a, #0x80
    0000183D                       3451 01379$:
    0000183D F2r46r18         [10] 3452 	jp	P, 00434$
    00001840 11 FF FF         [10] 3453 	ld	de, #0xffff
    00001843 C3r49r18         [10] 3454 	jp	00435$
    00001846                       3455 00434$:
    00001846 11 00 00         [10] 3456 	ld	de, #0x0000
    00001849                       3457 00435$:
    00001849                       3458 00433$:
    00001849 DD 73 FE         [19] 3459 	ld	-2 (ix), e
                                   3460 ;E:\Dropbox\FAUSTO\SVILUPPI\MSX\CODE\C\MSXgl\projects\soccerlgMSX2/soccerlg_s6_b3.c:354: i8 dir_y = (Ball->ly > Player->ly + 4) ? 1 : ((Ball->ly < Player->ly - 4) ? -1 : 0);
    0000184C ED 5Br46r01      [20] 3461 	ld	de, (#(_SwSprite + 326) + 0)
    00001850 DD 6E EF         [19] 3462 	ld	l, -17 (ix)
    00001853 DD 66 F0         [19] 3463 	ld	h, -16 (ix)
    00001856 7E               [ 7] 3464 	ld	a, (hl)
    00001857 23               [ 6] 3465 	inc	hl
    00001858 66               [ 7] 3466 	ld	h, (hl)
                                   3467 ;	spillPairReg hl
                                   3468 ;	spillPairReg hl
                                   3469 ;	spillPairReg hl
    00001859 6F               [ 4] 3470 	ld	l, a
    0000185A C6 04            [ 7] 3471 	add	a, #0x04
    0000185C DD 77 FA         [19] 3472 	ld	-6 (ix), a
    0000185F 7C               [ 4] 3473 	ld	a, h
    00001860 CE 00            [ 7] 3474 	adc	a, #0x00
    00001862 DD 77 FB         [19] 3475 	ld	-5 (ix), a
    00001865 DD 73 FC         [19] 3476 	ld	-4 (ix), e
    00001868 DD 72 FD         [19] 3477 	ld	-3 (ix), d
    0000186B DD 7E FA         [19] 3478 	ld	a, -6 (ix)
    0000186E DD 96 FC         [19] 3479 	sub	a, -4 (ix)
    00001871 DD 7E FB         [19] 3480 	ld	a, -5 (ix)
    00001874 DD 9E FD         [19] 3481 	sbc	a, -3 (ix)
    00001877 30 06            [12] 3482 	jr	NC, 00436$
    00001879 11 01 00         [10] 3483 	ld	de, #0x0001
    0000187C C3r97r18         [10] 3484 	jp	00437$
    0000187F                       3485 00436$:
    0000187F 11 FC FF         [10] 3486 	ld	de, #0xfffc
    00001882 19               [11] 3487 	add	hl, de
    00001883 EB               [ 4] 3488 	ex	de,hl
    00001884 DD 7E FC         [19] 3489 	ld	a, -4 (ix)
    00001887 93               [ 4] 3490 	sub	a, e
    00001888 DD 7E FD         [19] 3491 	ld	a, -3 (ix)
    0000188B 9A               [ 4] 3492 	sbc	a, d
    0000188C 30 06            [12] 3493 	jr	NC, 00438$
    0000188E 11 FF FF         [10] 3494 	ld	de, #0xffff
    00001891 C3r97r18         [10] 3495 	jp	00439$
    00001894                       3496 00438$:
    00001894 11 00 00         [10] 3497 	ld	de, #0x0000
    00001897                       3498 00439$:
    00001897                       3499 00437$:
                                   3500 ;E:\Dropbox\FAUSTO\SVILUPPI\MSX\CODE\C\MSXgl\projects\soccerlgMSX2/soccerlg_s6_b3.c:355: if (dir_x == 0 && dir_y == 0) {
    00001897 DD 7E FE         [19] 3501 	ld	a, -2 (ix)
    0000189A B7               [ 4] 3502 	or	a,a
    0000189B 20 12            [12] 3503 	jr	NZ, 00297$
    0000189D B3               [ 4] 3504 	or	a,e
    0000189E 20 0F            [12] 3505 	jr	NZ, 00297$
                                   3506 ;E:\Dropbox\FAUSTO\SVILUPPI\MSX\CODE\C\MSXgl\projects\soccerlgMSX2/soccerlg_s6_b3.c:356: dir_y = (team == TEAM_1) ? 1 : -1;
    000018A0 DD 7E DD         [19] 3507 	ld	a, -35 (ix)
    000018A3 B7               [ 4] 3508 	or	a, a
    000018A4 20 06            [12] 3509 	jr	NZ, 00440$
    000018A6 11 01 00         [10] 3510 	ld	de, #0x0001
    000018A9 C3rAFr18         [10] 3511 	jp	00441$
    000018AC                       3512 00440$:
    000018AC 11 FF FF         [10] 3513 	ld	de, #0xffff
    000018AF                       3514 00441$:
    000018AF                       3515 00297$:
                                   3516 ;E:\Dropbox\FAUSTO\SVILUPPI\MSX\CODE\C\MSXgl\projects\soccerlgMSX2/soccerlg_s6_b3.c:358: Player->frame = CallFnc_U16_P3(SEG_GAMESTATE_2, GetPlayerIdleFrame, i, dir_x, dir_y);
    000018AF C5               [11] 3517 	push	bc
    000018B0 63               [ 4] 3518 	ld	h, e
    000018B1 DD 6E FE         [19] 3519 	ld	l, -2 (ix)
    000018B4 E5               [11] 3520 	push	hl
    000018B5 DD 7E FF         [19] 3521 	ld	a, -1 (ix)
    000018B8 F5               [11] 3522 	push	af
    000018B9 33               [ 6] 3523 	inc	sp
    000018BA 11r00r00         [10] 3524 	ld	de, #_GetPlayerIdleFrame
    000018BD 3E 0B            [ 7] 3525 	ld	a, #0x0b
    000018BF CDr00r00         [17] 3526 	call	_CallFnc_U16_P3
    000018C2 C1               [10] 3527 	pop	bc
    000018C3 7B               [ 4] 3528 	ld	a, e
    000018C4 02               [ 7] 3529 	ld	(bc), a
    000018C5 03               [ 6] 3530 	inc	bc
    000018C6 7A               [ 4] 3531 	ld	a, d
    000018C7 02               [ 7] 3532 	ld	(bc), a
    000018C8                       3533 00306$:
                                   3534 ;E:\Dropbox\FAUSTO\SVILUPPI\MSX\CODE\C\MSXgl\projects\soccerlgMSX2/soccerlg_s6_b3.c:360: }
    000018C8 DD F9            [10] 3535 	ld	sp, ix
    000018CA DD E1            [14] 3536 	pop	ix
    000018CC C9               [10] 3537 	ret
                         0000F380  3538 _g_RDPRIM	=	0xf380
                         0000F385  3539 _g_WRPRIM	=	0xf385
                         0000F38C  3540 _g_CLPRIM	=	0xf38c
                         0000F39A  3541 _g_USRTAB	=	0xf39a
                         0000F3DE  3542 _g_CNSDFG	=	0xf3de
                         0000F3DF  3543 _g_RG0SAV	=	0xf3df
                         0000F3E0  3544 _g_RG1SAV	=	0xf3e0
                         0000F3E1  3545 _g_RG2SAV	=	0xf3e1
                         0000F3E2  3546 _g_RG3SAV	=	0xf3e2
                         0000F3E3  3547 _g_RG4SAV	=	0xf3e3
                         0000F3E4  3548 _g_RG5SAV	=	0xf3e4
                         0000F3E5  3549 _g_RG6SAV	=	0xf3e5
                         0000F3E6  3550 _g_RG7SAV	=	0xf3e6
                         0000F3E7  3551 _g_STATFL	=	0xf3e7
                         0000F3E8  3552 _g_TRGFLG	=	0xf3e8
                         0000F3EC  3553 _g_MAXUPD	=	0xf3ec
                         0000F3EF  3554 _g_MINUPD	=	0xf3ef
                         0000F3F3  3555 _g_QUEUES	=	0xf3f3
                         0000F3F5  3556 _g_FRCNEW	=	0xf3f5
                         0000F3F6  3557 _g_SCNCNT	=	0xf3f6
                         0000F3F7  3558 _g_REPCNT	=	0xf3f7
                         0000F3F8  3559 _g_PUTPNT	=	0xf3f8
                         0000F3FA  3560 _g_GETPNT	=	0xf3fa
                         0000F3FC  3561 _g_CS120	=	0xf3fc
                         0000F401  3562 _g_CS240	=	0xf401
                         0000F406  3563 _g_LOW	=	0xf406
                         0000F408  3564 _g_HIGH	=	0xf408
                         0000F40A  3565 _g_HEADER	=	0xf40a
                         0000F40B  3566 _g_ASPCT1	=	0xf40b
                         0000F40D  3567 _g_ASPCT2	=	0xf40d
                         0000F959  3568 _g_QUETAB	=	0xf959
                         0000F971  3569 _g_QUEBAK	=	0xf971
                         0000F975  3570 _g_VOICAQ	=	0xf975
                         0000F9F5  3571 _g_VOICBQ	=	0xf9f5
                         0000FA75  3572 _g_VOICCQ	=	0xfa75
                         0000FAF5  3573 _g_RS2IQ	=	0xfaf5
                         0000FAF5  3574 _g_DPPAGE	=	0xfaf5
                         0000FAF6  3575 _g_ACPAGE	=	0xfaf6
                         0000FAF7  3576 _g_AVCSAV	=	0xfaf7
                         0000FAF8  3577 _g_EXBRSA	=	0xfaf8
                         0000FAF9  3578 _g_CHRCNT	=	0xfaf9
                         0000FAFA  3579 _g_ROMA	=	0xfafa
                         0000FAFC  3580 _g_MODE	=	0xfafc
                         0000FAFD  3581 _g_NORUSE	=	0xfafd
                         0000FAFE  3582 _g_XSAVE	=	0xfafe
                         0000FB00  3583 _g_YSAVE	=	0xfb00
                         0000FB03  3584 _g_RSTMP	=	0xfb03
                         0000FB03  3585 _g_TOCNT	=	0xfb03
                         0000FB04  3586 _g_RSFCB	=	0xfb04
                         0000FB06  3587 _g_RSIQLN	=	0xfb06
                         0000FB07  3588 _g_MEXBIh	=	0xfb07
                         0000FB0C  3589 _g_OLDSTT	=	0xfb0c
                         0000FB0C  3590 _g_OLDINT	=	0xfb0c
                         0000FB16  3591 _g_DEVNUM	=	0xfb16
                         0000FB17  3592 _g_DATCNT	=	0xfb17
                         0000FB1A  3593 _g_ERRORS	=	0xfb1a
                         0000FB1B  3594 _g_FLAGS	=	0xfb1b
                         0000FB1C  3595 _g_ESTBLS	=	0xfb1c
                         0000FB1D  3596 _g_COMMSK	=	0xfb1d
                         0000FB1E  3597 _g_LSTCOM	=	0xfb1e
                         0000FB1F  3598 _g_LSTMOD	=	0xfb1f
                         0000FB35  3599 _g_PRSCNT	=	0xfb35
                         0000FB36  3600 _g_SAVSP	=	0xfb36
                         0000FB38  3601 _g_VOICEN	=	0xfb38
                         0000FB39  3602 _g_SAVVOL	=	0xfb39
                         0000FB3B  3603 _g_MCLLEN	=	0xfb3b
                         0000FB3C  3604 _g_MCLPTR	=	0xfb3c
                         0000FB3E  3605 _g_QUEUEN	=	0xfb3e
                         0000FB3F  3606 _g_MUSICF	=	0xfb3f
                         0000FB40  3607 _g_PLYCNT	=	0xfb40
                         0000FB41  3608 _g_VCBA	=	0xfb41
                         0000FB66  3609 _g_VCBB	=	0xfb66
                         0000FB8B  3610 _g_VCBC	=	0xfb8b
                         0000FBB0  3611 _g_ENSTOP	=	0xfbb0
                         0000FBB1  3612 _g_BASROM	=	0xfbb1
                         0000FBB2  3613 _g_LINTTB	=	0xfbb2
                         0000FBCA  3614 _g_FSTPOS	=	0xfbca
                         0000FBCC  3615 _g_CODSAV	=	0xfbcc
                         0000FBCD  3616 _g_FNKSWI	=	0xfbcd
                         0000FBCE  3617 _g_FNKFLG	=	0xfbce
                         0000FBD8  3618 _g_ONGSBF	=	0xfbd8
                         0000FBD9  3619 _g_CLIKFL	=	0xfbd9
                         0000FBDA  3620 _g_OLDKEY	=	0xfbda
                         0000FBE5  3621 _g_NEWKEY	=	0xfbe5
                         0000FBF0  3622 _g_KEYBUF	=	0xfbf0
                         0000FC18  3623 _g_LINWRK	=	0xfc18
                         0000FC40  3624 _g_PATWRK	=	0xfc40
                         0000FC48  3625 _g_BOTTOM	=	0xfc48
                         0000FC4A  3626 _g_HIMEM	=	0xfc4a
                         0000FC4C  3627 _g_TRPTBL	=	0xfc4c
                         0000FC9A  3628 _g_RTYCNT	=	0xfc9a
                         0000FC9B  3629 _g_INTFLG	=	0xfc9b
                         0000FC9C  3630 _g_PADY	=	0xfc9c
                         0000FC9D  3631 _g_PADX	=	0xfc9d
                         0000FC9E  3632 _g_JIFFY	=	0xfc9e
                         0000FCA0  3633 _g_INTVAL	=	0xfca0
                         0000FCA2  3634 _g_INTCNT	=	0xfca2
                         0000FCA4  3635 _g_LOWLIM	=	0xfca4
                         0000FCA5  3636 _g_WINWID	=	0xfca5
                         0000FCA6  3637 _g_GRPHED	=	0xfca6
                         0000FCA7  3638 _g_ESCCNT	=	0xfca7
                         0000FCA8  3639 _g_INSFLG	=	0xfca8
                         0000FCA9  3640 _g_CSRSW	=	0xfca9
                         0000FCAA  3641 _g_CSTYLE	=	0xfcaa
                         0000FCAB  3642 _g_CAPST	=	0xfcab
                         0000FCAC  3643 _g_KANAST	=	0xfcac
                         0000FCAD  3644 _g_KANAMD	=	0xfcad
                         0000FCAE  3645 _g_FLBMEM	=	0xfcae
                         0000FCAF  3646 _g_SCRMOD	=	0xfcaf
                         0000FCB0  3647 _g_OLDSCR	=	0xfcb0
                         0000FCB1  3648 _g_CASPRV	=	0xfcb1
                         0000FCB2  3649 _g_BRDATR	=	0xfcb2
                         0000FCB3  3650 _g_GXPOS	=	0xfcb3
                         0000FCB5  3651 _g_GYPOS	=	0xfcb5
                         0000FCBB  3652 _g_DRWFLG	=	0xfcbb
                         0000FCBC  3653 _g_DRWSCL	=	0xfcbc
                         0000FCBD  3654 _g_DRWANG	=	0xfcbd
                         0000FCC1  3655 _g_MNROM	=	0xfcc1
                         0000FCC1  3656 _g_EXPTBL	=	0xfcc1
                         0000FCC5  3657 _g_SLTTBL	=	0xfcc5
                         0000FCC9  3658 _g_SLTATR	=	0xfcc9
                         0000FD09  3659 _g_SLTWRK	=	0xfd09
                         0000FD89  3660 _g_PROCNM	=	0xfd89
                         0000FFE7  3661 _g_RG08SAV	=	0xffe7
                         0000FFE8  3662 _g_RG09SAV	=	0xffe8
                         0000FFE9  3663 _g_RG10SAV	=	0xffe9
                         0000FFEA  3664 _g_RG11SAV	=	0xffea
                         0000FFEB  3665 _g_RG12SAV	=	0xffeb
                         0000FFEC  3666 _g_RG13SAV	=	0xffec
                         0000FFED  3667 _g_RG14SAV	=	0xffed
                         0000FFEE  3668 _g_RG15SAV	=	0xffee
                         0000FFEF  3669 _g_RG16SAV	=	0xffef
                         0000FFF0  3670 _g_RG17SAV	=	0xfff0
                         0000FFF1  3671 _g_RG18SAV	=	0xfff1
                         0000FFF2  3672 _g_RG19SAV	=	0xfff2
                         0000FFF3  3673 _g_RG20SAV	=	0xfff3
                         0000FFF4  3674 _g_RG21SAV	=	0xfff4
                         0000FFF5  3675 _g_RG22SAV	=	0xfff5
                         0000FFF6  3676 _g_RG23SAV	=	0xfff6
                         0000FFF7  3677 _g_MINROM	=	0xfff7
                         0000FFF8  3678 _g_SVFFF8	=	0xfff8
                         0000FFFA  3679 _g_RG25SAV	=	0xfffa
                         0000FFFB  3680 _g_RG26SAV	=	0xfffb
                         0000FFFC  3681 _g_RG27SAV	=	0xfffc
                         0000FFFD  3682 _g_SVFFFD	=	0xfffd
                         00000004  3683 _g_CGTABL	=	0x0004
                         00000006  3684 _g_VDP_DR	=	0x0006
                         00000007  3685 _g_VDP_DW	=	0x0007
                         0000002B  3686 _g_BASRVN	=	0x002b
                         0000002B  3687 _g_ROMVersion	=	0x002b
                         0000002D  3688 _g_MSXVER	=	0x002d
                         0000002E  3689 _g_MSXMID	=	0x002e
                         00000034  3690 _g_CHAR_16	=	0x0034
                         00000000  3691 _g_SUBRID	=	0x0000
                         00000002  3692 _g_STRSRC	=	0x0002
                         0000F30F  3693 _g_KANJTABLE	=	0xf30f
                         0000F323  3694 _g_DISKVE	=	0xf323
                         0000F325  3695 _g_BREAKV	=	0xf325
                         0000F341  3696 _g_RAMAD0	=	0xf341
                         0000F342  3697 _g_RAMAD1	=	0xf342
                         0000F343  3698 _g_RAMAD2	=	0xf343
                         0000F344  3699 _g_RAMAD3	=	0xf344
                         0000F348  3700 _g_MASTER	=	0xf348
                         0000F37D  3701 _g_BDOS	=	0xf37d
                                   3702 ;E:\Dropbox\FAUSTO\SVILUPPI\MSX\CODE\C\MSXgl\projects\soccerlgMSX2/soccerlg_s6_b3.c:363: u16 FindReceiver(u8 carrier, u8 ignore_player, i8 c_dx, i8 c_dy) 
                                   3703 ;	---------------------------------
                                   3704 ; Function FindReceiver
                                   3705 ; ---------------------------------
    000018CD                       3706 _FindReceiver::
    000018CD DD E5            [15] 3707 	push	ix
    000018CF DD 21 00 00      [14] 3708 	ld	ix,#0
    000018D3 DD 39            [15] 3709 	add	ix,sp
    000018D5 FD 21 E4 FF      [14] 3710 	ld	iy, #-28
    000018D9 FD 39            [15] 3711 	add	iy, sp
    000018DB FD F9            [10] 3712 	ld	sp, iy
    000018DD DD 77 FE         [19] 3713 	ld	-2 (ix), a
    000018E0 DD 75 FD         [19] 3714 	ld	-3 (ix), l
                                   3715 ;E:\Dropbox\FAUSTO\SVILUPPI\MSX\CODE\C\MSXgl\projects\soccerlgMSX2/soccerlg_s6_b3.c:365: u8 start_idx = (carrier < 7) ? 1 : 8; // Esclude i portieri
    000018E3 DD 7E FE         [19] 3716 	ld	a, -2 (ix)
    000018E6 D6 07            [ 7] 3717 	sub	a, #0x07
    000018E8 3E 00            [ 7] 3718 	ld	a, #0x00
    000018EA 17               [ 4] 3719 	rla
    000018EB DD 77 FC         [19] 3720 	ld	-4 (ix), a
    000018EE B7               [ 4] 3721 	or	a, a
    000018EF 28 0B            [12] 3722 	jr	Z, 00127$
    000018F1 DD 36 FA 01      [19] 3723 	ld	-6 (ix), #0x01
    000018F5 DD 36 FB 00      [19] 3724 	ld	-5 (ix), #0
    000018F9 C3r04r19         [10] 3725 	jp	00128$
    000018FC                       3726 00127$:
    000018FC DD 36 FA 08      [19] 3727 	ld	-6 (ix), #0x08
    00001900 DD 36 FB 00      [19] 3728 	ld	-5 (ix), #0
    00001904                       3729 00128$:
    00001904 DD 7E FA         [19] 3730 	ld	a, -6 (ix)
                                   3731 ;E:\Dropbox\FAUSTO\SVILUPPI\MSX\CODE\C\MSXgl\projects\soccerlgMSX2/soccerlg_s6_b3.c:366: u8 end_idx = start_idx + 6;
    00001907 DD 77 FF         [19] 3732 	ld	-1 (ix), a
    0000190A DD 77 FB         [19] 3733 	ld	-5 (ix), a
    0000190D C6 06            [ 7] 3734 	add	a, #0x06
    0000190F DD 77 E4         [19] 3735 	ld	-28 (ix), a
                                   3736 ;E:\Dropbox\FAUSTO\SVILUPPI\MSX\CODE\C\MSXgl\projects\soccerlgMSX2/soccerlg_s6_b3.c:367: u8 best_match = 0xFF;
    00001912 DD 36 E5 FF      [19] 3737 	ld	-27 (ix), #0xff
                                   3738 ;E:\Dropbox\FAUSTO\SVILUPPI\MSX\CODE\C\MSXgl\projects\soccerlgMSX2/soccerlg_s6_b3.c:368: u16 min_dist = 0xFFFF;
    00001916 DD 36 E6 FF      [19] 3739 	ld	-26 (ix), #0xff
    0000191A DD 36 E7 FF      [19] 3740 	ld	-25 (ix), #0xff
                                   3741 ;E:\Dropbox\FAUSTO\SVILUPPI\MSX\CODE\C\MSXgl\projects\soccerlgMSX2/soccerlg_s6_b3.c:370: if (c_dx == 0 && c_dy == 0) {
    0000191E DD 7E 04         [19] 3742 	ld	a, 4 (ix)
    00001921 B7               [ 4] 3743 	or	a, a
    00001922 20 25            [12] 3744 	jr	NZ, 00149$
    00001924 DD 7E 05         [19] 3745 	ld	a, 5 (ix)
    00001927 B7               [ 4] 3746 	or	a, a
    00001928 20 1F            [12] 3747 	jr	NZ, 00149$
                                   3748 ;E:\Dropbox\FAUSTO\SVILUPPI\MSX\CODE\C\MSXgl\projects\soccerlgMSX2/soccerlg_s6_b3.c:371: c_dy = (carrier < 7) ? 1 : -1;
    0000192A DD 7E FC         [19] 3749 	ld	a, -4 (ix)
    0000192D B7               [ 4] 3750 	or	a, a
    0000192E 28 0B            [12] 3751 	jr	Z, 00129$
    00001930 DD 36 FB 01      [19] 3752 	ld	-5 (ix), #0x01
    00001934 DD 36 FC 00      [19] 3753 	ld	-4 (ix), #0
    00001938 C3r43r19         [10] 3754 	jp	00130$
    0000193B                       3755 00129$:
    0000193B DD 36 FB FF      [19] 3756 	ld	-5 (ix), #0xff
    0000193F DD 36 FC FF      [19] 3757 	ld	-4 (ix), #0xff
    00001943                       3758 00130$:
    00001943 DD 7E FB         [19] 3759 	ld	a, -5 (ix)
    00001946 DD 77 05         [19] 3760 	ld	5 (ix), a
                                   3761 ;E:\Dropbox\FAUSTO\SVILUPPI\MSX\CODE\C\MSXgl\projects\soccerlgMSX2/soccerlg_s6_b3.c:374: for (u8 i = start_idx; i < end_idx; i++) {
    00001949                       3762 00149$:
    00001949 DD 4E FE         [19] 3763 	ld	c, -2 (ix)
    0000194C 06 00            [ 7] 3764 	ld	b, #0x00
    0000194E 69               [ 4] 3765 	ld	l, c
    0000194F 60               [ 4] 3766 	ld	h, b
    00001950 29               [11] 3767 	add	hl, hl
    00001951 29               [11] 3768 	add	hl, hl
    00001952 09               [11] 3769 	add	hl, bc
    00001953 29               [11] 3770 	add	hl, hl
    00001954 09               [11] 3771 	add	hl, bc
    00001955 29               [11] 3772 	add	hl, hl
    00001956 09               [11] 3773 	add	hl, bc
    00001957 DD 75 F8         [19] 3774 	ld	-8 (ix), l
    0000195A DD 74 F9         [19] 3775 	ld	-7 (ix), h
    0000195D 3Er00            [ 7] 3776 	ld	a, #<(_SwSprite)
    0000195F DD 86 F8         [19] 3777 	add	a, -8 (ix)
    00001962 DD 77 FA         [19] 3778 	ld	-6 (ix), a
    00001965 3Es00            [ 7] 3779 	ld	a, #>(_SwSprite)
    00001967 DD 8E F9         [19] 3780 	adc	a, -7 (ix)
    0000196A DD 77 FB         [19] 3781 	ld	-5 (ix), a
    0000196D DD 6E FA         [19] 3782 	ld	l, -6 (ix)
    00001970 DD 66 FB         [19] 3783 	ld	h, -5 (ix)
    00001973 7E               [ 7] 3784 	ld	a, (hl)
    00001974 DD 77 FC         [19] 3785 	ld	-4 (ix), a
    00001977 DD 77 E8         [19] 3786 	ld	-24 (ix), a
    0000197A DD 7E FA         [19] 3787 	ld	a, -6 (ix)
    0000197D DD 77 E9         [19] 3788 	ld	-23 (ix), a
    00001980 DD 7E FB         [19] 3789 	ld	a, -5 (ix)
    00001983 DD 77 EA         [19] 3790 	ld	-22 (ix), a
    00001986 AF               [ 4] 3791 	xor	a, a
    00001987 DD 96 04         [19] 3792 	sub	a, 4 (ix)
    0000198A E2r8Fr19         [10] 3793 	jp	PO, 00211$
    0000198D EE 80            [ 7] 3794 	xor	a, #0x80
    0000198F                       3795 00211$:
    0000198F 07               [ 4] 3796 	rlca
    00001990 E6 01            [ 7] 3797 	and	a,#0x01
    00001992 DD 77 EB         [19] 3798 	ld	-21 (ix), a
    00001995 DD 7E 04         [19] 3799 	ld	a, 4 (ix)
    00001998 07               [ 4] 3800 	rlca
    00001999 E6 01            [ 7] 3801 	and	a,#0x01
    0000199B DD 77 EC         [19] 3802 	ld	-20 (ix), a
    0000199E AF               [ 4] 3803 	xor	a, a
    0000199F DD 96 05         [19] 3804 	sub	a, 5 (ix)
    000019A2 E2rA7r19         [10] 3805 	jp	PO, 00212$
    000019A5 EE 80            [ 7] 3806 	xor	a, #0x80
    000019A7                       3807 00212$:
    000019A7 07               [ 4] 3808 	rlca
    000019A8 E6 01            [ 7] 3809 	and	a,#0x01
    000019AA DD 77 ED         [19] 3810 	ld	-19 (ix), a
    000019AD DD 7E 05         [19] 3811 	ld	a, 5 (ix)
    000019B0 07               [ 4] 3812 	rlca
    000019B1 E6 01            [ 7] 3813 	and	a,#0x01
    000019B3 DD 77 EE         [19] 3814 	ld	-18 (ix), a
    000019B6 DD 7E FC         [19] 3815 	ld	a, -4 (ix)
    000019B9 DD 77 EF         [19] 3816 	ld	-17 (ix), a
    000019BC DD 7E FC         [19] 3817 	ld	a, -4 (ix)
    000019BF DD 77 F0         [19] 3818 	ld	-16 (ix), a
    000019C2                       3819 00124$:
    000019C2 DD 7E FF         [19] 3820 	ld	a, -1 (ix)
    000019C5 DD 96 E4         [19] 3821 	sub	a, -28 (ix)
    000019C8 D2r27r1B         [10] 3822 	jp	NC, 00122$
                                   3823 ;E:\Dropbox\FAUSTO\SVILUPPI\MSX\CODE\C\MSXgl\projects\soccerlgMSX2/soccerlg_s6_b3.c:375: if (i == carrier || i == ignore_player) continue; 
    000019CB DD 7E FE         [19] 3824 	ld	a, -2 (ix)
    000019CE DD 96 FF         [19] 3825 	sub	a, -1 (ix)
    000019D1 CAr21r1B         [10] 3826 	jp	Z,00121$
    000019D4 DD 7E FD         [19] 3827 	ld	a, -3 (ix)
    000019D7 DD 96 FF         [19] 3828 	sub	a, -1 (ix)
    000019DA CAr21r1B         [10] 3829 	jp	Z,00121$
                                   3830 ;E:\Dropbox\FAUSTO\SVILUPPI\MSX\CODE\C\MSXgl\projects\soccerlgMSX2/soccerlg_s6_b3.c:377: u16 dx = (SwSprite[i].lx > SwSprite[carrier].lx) ? (SwSprite[i].lx - SwSprite[carrier].lx) : (SwSprite[carrier].lx - SwSprite[i].lx);
    000019DD DD 4E FF         [19] 3831 	ld	c, -1 (ix)
    000019E0 06 00            [ 7] 3832 	ld	b, #0x00
    000019E2 69               [ 4] 3833 	ld	l, c
    000019E3 60               [ 4] 3834 	ld	h, b
    000019E4 29               [11] 3835 	add	hl, hl
    000019E5 29               [11] 3836 	add	hl, hl
    000019E6 09               [11] 3837 	add	hl, bc
    000019E7 29               [11] 3838 	add	hl, hl
    000019E8 09               [11] 3839 	add	hl, bc
    000019E9 29               [11] 3840 	add	hl, hl
    000019EA 09               [11] 3841 	add	hl, bc
    000019EB 11r00r00         [10] 3842 	ld	de, #_SwSprite
    000019EE 19               [11] 3843 	add	hl, de
                                   3844 ;E:\Dropbox\FAUSTO\SVILUPPI\MSX\CODE\C\MSXgl\projects\soccerlgMSX2/soccerlg_s6_b3.c:382: if (c_dx > 0 && SwSprite[i].lx < SwSprite[carrier].lx) continue; 
    000019EF DD 75 F9         [19] 3845 	ld	-7 (ix), l
    000019F2 DD 74 FA         [19] 3846 	ld	-6 (ix), h
    000019F5 7E               [ 7] 3847 	ld	a, (hl)
                                   3848 ;E:\Dropbox\FAUSTO\SVILUPPI\MSX\CODE\C\MSXgl\projects\soccerlgMSX2/soccerlg_s6_b3.c:377: u16 dx = (SwSprite[i].lx > SwSprite[carrier].lx) ? (SwSprite[i].lx - SwSprite[carrier].lx) : (SwSprite[carrier].lx - SwSprite[i].lx);
    000019F6 DD 77 F1         [19] 3849 	ld	-15 (ix), a
    000019F9 DD 77 F5         [19] 3850 	ld	-11 (ix), a
    000019FC DD 36 F6 00      [19] 3851 	ld	-10 (ix), #0x00
    00001A00 DD 7E E8         [19] 3852 	ld	a, -24 (ix)
    00001A03 DD 77 F7         [19] 3853 	ld	-9 (ix), a
    00001A06 DD 36 F8 00      [19] 3854 	ld	-8 (ix), #0x00
    00001A0A DD 7E E8         [19] 3855 	ld	a, -24 (ix)
    00001A0D DD 96 F1         [19] 3856 	sub	a, -15 (ix)
    00001A10 30 15            [12] 3857 	jr	NC, 00131$
    00001A12 DD 7E F5         [19] 3858 	ld	a, -11 (ix)
    00001A15 DD 96 F7         [19] 3859 	sub	a, -9 (ix)
    00001A18 DD 77 FB         [19] 3860 	ld	-5 (ix), a
    00001A1B DD 7E F6         [19] 3861 	ld	a, -10 (ix)
    00001A1E DD 9E F8         [19] 3862 	sbc	a, -8 (ix)
    00001A21 DD 77 FC         [19] 3863 	ld	-4 (ix), a
    00001A24 C3r39r1A         [10] 3864 	jp	00132$
    00001A27                       3865 00131$:
    00001A27 DD 7E F7         [19] 3866 	ld	a, -9 (ix)
    00001A2A DD 96 F5         [19] 3867 	sub	a, -11 (ix)
    00001A2D DD 77 FB         [19] 3868 	ld	-5 (ix), a
    00001A30 DD 7E F8         [19] 3869 	ld	a, -8 (ix)
    00001A33 DD 9E F6         [19] 3870 	sbc	a, -10 (ix)
    00001A36 DD 77 FC         [19] 3871 	ld	-4 (ix), a
    00001A39                       3872 00132$:
    00001A39 DD 7E FB         [19] 3873 	ld	a, -5 (ix)
    00001A3C DD 77 F2         [19] 3874 	ld	-14 (ix), a
    00001A3F DD 7E FC         [19] 3875 	ld	a, -4 (ix)
    00001A42 DD 77 F3         [19] 3876 	ld	-13 (ix), a
                                   3877 ;E:\Dropbox\FAUSTO\SVILUPPI\MSX\CODE\C\MSXgl\projects\soccerlgMSX2/soccerlg_s6_b3.c:378: u16 dy = (SwSprite[i].ly > SwSprite[carrier].ly) ? (SwSprite[i].ly - SwSprite[carrier].ly) : (SwSprite[carrier].ly - SwSprite[i].ly);
    00001A45 DD 4E F9         [19] 3878 	ld	c, -7 (ix)
    00001A48 DD 46 FA         [19] 3879 	ld	b, -6 (ix)
    00001A4B 21 04 00         [10] 3880 	ld	hl, #4
    00001A4E 09               [11] 3881 	add	hl, bc
    00001A4F 7E               [ 7] 3882 	ld	a, (hl)
    00001A50 DD 77 F4         [19] 3883 	ld	-12 (ix), a
    00001A53 23               [ 6] 3884 	inc	hl
    00001A54 7E               [ 7] 3885 	ld	a, (hl)
    00001A55 DD 77 F5         [19] 3886 	ld	-11 (ix), a
    00001A58 DD 6E E9         [19] 3887 	ld	l, -23 (ix)
    00001A5B DD 66 EA         [19] 3888 	ld	h, -22 (ix)
    00001A5E 11 04 00         [10] 3889 	ld	de, #0x0004
    00001A61 19               [11] 3890 	add	hl, de
    00001A62 7E               [ 7] 3891 	ld	a, (hl)
    00001A63 DD 77 F6         [19] 3892 	ld	-10 (ix), a
    00001A66 23               [ 6] 3893 	inc	hl
    00001A67 7E               [ 7] 3894 	ld	a, (hl)
    00001A68 DD 77 F7         [19] 3895 	ld	-9 (ix), a
    00001A6B DD 7E F6         [19] 3896 	ld	a, -10 (ix)
    00001A6E DD 96 F4         [19] 3897 	sub	a, -12 (ix)
    00001A71 DD 7E F7         [19] 3898 	ld	a, -9 (ix)
    00001A74 DD 9E F5         [19] 3899 	sbc	a, -11 (ix)
    00001A77 3E 00            [ 7] 3900 	ld	a, #0x00
    00001A79 17               [ 4] 3901 	rla
    00001A7A DD 77 F8         [19] 3902 	ld	-8 (ix), a
    00001A7D B7               [ 4] 3903 	or	a, a
    00001A7E 28 15            [12] 3904 	jr	Z, 00133$
    00001A80 DD 7E F4         [19] 3905 	ld	a, -12 (ix)
    00001A83 DD 96 F6         [19] 3906 	sub	a, -10 (ix)
    00001A86 DD 77 FB         [19] 3907 	ld	-5 (ix), a
    00001A89 DD 7E F5         [19] 3908 	ld	a, -11 (ix)
    00001A8C DD 9E F7         [19] 3909 	sbc	a, -9 (ix)
    00001A8F DD 77 FC         [19] 3910 	ld	-4 (ix), a
    00001A92 C3rA7r1A         [10] 3911 	jp	00134$
    00001A95                       3912 00133$:
    00001A95 DD 7E F6         [19] 3913 	ld	a, -10 (ix)
    00001A98 DD 96 F4         [19] 3914 	sub	a, -12 (ix)
    00001A9B DD 77 FB         [19] 3915 	ld	-5 (ix), a
    00001A9E DD 7E F7         [19] 3916 	ld	a, -9 (ix)
    00001AA1 DD 9E F5         [19] 3917 	sbc	a, -11 (ix)
    00001AA4 DD 77 FC         [19] 3918 	ld	-4 (ix), a
    00001AA7                       3919 00134$:
    00001AA7 DD 7E FB         [19] 3920 	ld	a, -5 (ix)
    00001AAA DD 77 F9         [19] 3921 	ld	-7 (ix), a
    00001AAD DD 7E FC         [19] 3922 	ld	a, -4 (ix)
    00001AB0 DD 77 FA         [19] 3923 	ld	-6 (ix), a
                                   3924 ;E:\Dropbox\FAUSTO\SVILUPPI\MSX\CODE\C\MSXgl\projects\soccerlgMSX2/soccerlg_s6_b3.c:379: u16 dist = dx + dy; 
    00001AB3 DD 7E F2         [19] 3925 	ld	a, -14 (ix)
    00001AB6 DD 86 F9         [19] 3926 	add	a, -7 (ix)
    00001AB9 DD 77 FB         [19] 3927 	ld	-5 (ix), a
    00001ABC DD 7E F3         [19] 3928 	ld	a, -13 (ix)
    00001ABF DD 8E FA         [19] 3929 	adc	a, -6 (ix)
    00001AC2 DD 77 FC         [19] 3930 	ld	-4 (ix), a
                                   3931 ;E:\Dropbox\FAUSTO\SVILUPPI\MSX\CODE\C\MSXgl\projects\soccerlgMSX2/soccerlg_s6_b3.c:382: if (c_dx > 0 && SwSprite[i].lx < SwSprite[carrier].lx) continue; 
    00001AC5 DD 7E EB         [19] 3932 	ld	a, -21 (ix)
    00001AC8 B7               [ 4] 3933 	or	a, a
    00001AC9 28 08            [12] 3934 	jr	Z, 00108$
    00001ACB DD 7E F1         [19] 3935 	ld	a, -15 (ix)
    00001ACE DD 96 F0         [19] 3936 	sub	a, -16 (ix)
    00001AD1 38 4E            [12] 3937 	jr	C, 00121$
    00001AD3                       3938 00108$:
                                   3939 ;E:\Dropbox\FAUSTO\SVILUPPI\MSX\CODE\C\MSXgl\projects\soccerlgMSX2/soccerlg_s6_b3.c:383: if (c_dx < 0 && SwSprite[i].lx > SwSprite[carrier].lx) continue; 
    00001AD3 DD 7E EC         [19] 3940 	ld	a, -20 (ix)
    00001AD6 B7               [ 4] 3941 	or	a, a
    00001AD7 28 08            [12] 3942 	jr	Z, 00111$
    00001AD9 DD 7E EF         [19] 3943 	ld	a, -17 (ix)
    00001ADC DD 96 F1         [19] 3944 	sub	a, -15 (ix)
    00001ADF 38 40            [12] 3945 	jr	C, 00121$
    00001AE1                       3946 00111$:
                                   3947 ;E:\Dropbox\FAUSTO\SVILUPPI\MSX\CODE\C\MSXgl\projects\soccerlgMSX2/soccerlg_s6_b3.c:385: if (c_dy > 0 && SwSprite[i].ly < SwSprite[carrier].ly) continue; 
    00001AE1 DD 7E ED         [19] 3948 	ld	a, -19 (ix)
    00001AE4 B7               [ 4] 3949 	or	a, a
    00001AE5 28 0E            [12] 3950 	jr	Z, 00114$
    00001AE7 DD 7E F4         [19] 3951 	ld	a, -12 (ix)
    00001AEA DD 96 F6         [19] 3952 	sub	a, -10 (ix)
    00001AED DD 7E F5         [19] 3953 	ld	a, -11 (ix)
    00001AF0 DD 9E F7         [19] 3954 	sbc	a, -9 (ix)
    00001AF3 38 2C            [12] 3955 	jr	C, 00121$
    00001AF5                       3956 00114$:
                                   3957 ;E:\Dropbox\FAUSTO\SVILUPPI\MSX\CODE\C\MSXgl\projects\soccerlgMSX2/soccerlg_s6_b3.c:386: if (c_dy < 0 && SwSprite[i].ly > SwSprite[carrier].ly) continue; 
    00001AF5 DD 7E EE         [19] 3958 	ld	a, -18 (ix)
    00001AF8 B7               [ 4] 3959 	or	a, a
    00001AF9 28 06            [12] 3960 	jr	Z, 00117$
    00001AFB DD 7E F8         [19] 3961 	ld	a, -8 (ix)
    00001AFE B7               [ 4] 3962 	or	a, a
    00001AFF 20 20            [12] 3963 	jr	NZ, 00121$
    00001B01                       3964 00117$:
                                   3965 ;E:\Dropbox\FAUSTO\SVILUPPI\MSX\CODE\C\MSXgl\projects\soccerlgMSX2/soccerlg_s6_b3.c:388: if (dist < min_dist) {
    00001B01 DD 7E FB         [19] 3966 	ld	a, -5 (ix)
    00001B04 DD 96 E6         [19] 3967 	sub	a, -26 (ix)
    00001B07 DD 7E FC         [19] 3968 	ld	a, -4 (ix)
    00001B0A DD 9E E7         [19] 3969 	sbc	a, -25 (ix)
    00001B0D 30 12            [12] 3970 	jr	NC, 00121$
                                   3971 ;E:\Dropbox\FAUSTO\SVILUPPI\MSX\CODE\C\MSXgl\projects\soccerlgMSX2/soccerlg_s6_b3.c:389: min_dist = dist;
    00001B0F DD 7E FB         [19] 3972 	ld	a, -5 (ix)
    00001B12 DD 77 E6         [19] 3973 	ld	-26 (ix), a
    00001B15 DD 7E FC         [19] 3974 	ld	a, -4 (ix)
    00001B18 DD 77 E7         [19] 3975 	ld	-25 (ix), a
                                   3976 ;E:\Dropbox\FAUSTO\SVILUPPI\MSX\CODE\C\MSXgl\projects\soccerlgMSX2/soccerlg_s6_b3.c:390: best_match = i;
    00001B1B DD 7E FF         [19] 3977 	ld	a, -1 (ix)
    00001B1E DD 77 E5         [19] 3978 	ld	-27 (ix), a
    00001B21                       3979 00121$:
                                   3980 ;E:\Dropbox\FAUSTO\SVILUPPI\MSX\CODE\C\MSXgl\projects\soccerlgMSX2/soccerlg_s6_b3.c:374: for (u8 i = start_idx; i < end_idx; i++) {
    00001B21 DD 34 FF         [23] 3981 	inc	-1 (ix)
    00001B24 C3rC2r19         [10] 3982 	jp	00124$
    00001B27                       3983 00122$:
                                   3984 ;E:\Dropbox\FAUSTO\SVILUPPI\MSX\CODE\C\MSXgl\projects\soccerlgMSX2/soccerlg_s6_b3.c:394: return best_match;
    00001B27 DD 5E E5         [19] 3985 	ld	e, -27 (ix)
    00001B2A 16 00            [ 7] 3986 	ld	d, #0x00
                                   3987 ;E:\Dropbox\FAUSTO\SVILUPPI\MSX\CODE\C\MSXgl\projects\soccerlgMSX2/soccerlg_s6_b3.c:395: }
    00001B2C DD F9            [10] 3988 	ld	sp, ix
    00001B2E DD E1            [14] 3989 	pop	ix
    00001B30 E1               [10] 3990 	pop	hl
    00001B31 F1               [10] 3991 	pop	af
    00001B32 E9               [ 4] 3992 	jp	(hl)
                                   3993 	.area _SEG6
                                   3994 	.area _INITIALIZER
    00000000                       3995 __xinit__ai_last_dx:
    00000000 00                    3996 	.db #0x00	;  0
    00000001 00                    3997 	.db #0x00	;  0
    00000002 00                    3998 	.db #0x00	;  0
    00000003 00                    3999 	.db #0x00	;  0
    00000004 00                    4000 	.db #0x00	;  0
    00000005 00                    4001 	.db #0x00	;  0
    00000006 00                    4002 	.db #0x00	;  0
    00000007 00                    4003 	.db #0x00	;  0
    00000008 00                    4004 	.db #0x00	;  0
    00000009 00                    4005 	.db #0x00	;  0
    0000000A 00                    4006 	.db #0x00	;  0
    0000000B 00                    4007 	.db #0x00	;  0
    0000000C 00                    4008 	.db #0x00	;  0
    0000000D 00                    4009 	.db #0x00	;  0
    0000000E                       4010 __xinit__ai_last_dy:
    0000000E 01                    4011 	.db #0x01	;  1
    0000000F 01                    4012 	.db #0x01	;  1
    00000010 01                    4013 	.db #0x01	;  1
    00000011 01                    4014 	.db #0x01	;  1
    00000012 01                    4015 	.db #0x01	;  1
    00000013 01                    4016 	.db #0x01	;  1
    00000014 01                    4017 	.db #0x01	;  1
    00000015 FF                    4018 	.db #0xff	; -1
    00000016 FF                    4019 	.db #0xff	; -1
    00000017 FF                    4020 	.db #0xff	; -1
    00000018 FF                    4021 	.db #0xff	; -1
    00000019 FF                    4022 	.db #0xff	; -1
    0000001A FF                    4023 	.db #0xff	; -1
    0000001B FF                    4024 	.db #0xff	; -1
                                   4025 	.area _CABS (ABS)
