                                      1 ;--------------------------------------------------------
                                      2 ; File Created by SDCC : free open source ANSI-C Compiler
                                      3 ; Version 4.2.0 #13081 (MINGW64)
                                      4 ;--------------------------------------------------------
                                      5 	.module soccerlg_s12_b3
                                      6 	.optsdcc -mz80
                                      7 	
                                      8 ;--------------------------------------------------------
                                      9 ; Public variables in this module
                                     10 ;--------------------------------------------------------
                                     11 	.globl _GetPlayerIdleFrame
                                     12 	.globl _GetPlayerAnimFrame
                                     13 	.globl _ExecuteCornerKick
                                     14 	.globl _ExecuteThrowIn
                                     15 	.globl _AssignCornerKickTargets
                                     16 	.globl _AssignGoalKickTargets
                                     17 	.globl _AssignThrowInTargets
                                     18 	.globl _AssignKickOffTargets
                                     19 	.globl _EventTimeUp
                                     20 	.globl _EventBallKicked
                                     21 	.globl _HideSpriteMessage
                                     22 	.globl _IsBallForeground
                                     23 	.globl _PrintScoreBoardRight
                                     24 	.globl _PrintScoreBoardLeft
                                     25 	.globl _PlotField
                                     26 	.globl _CallFnc_U16_P4
                                     27 	.globl _CallFnc_U16_P3
                                     28 	.globl _CallFnc_VOID_U8U8
                                     29 	.globl _CallFnc_VOID_16_P2
                                     30 	.globl _CallFnc_BOOL
                                     31 	.globl _CallFnc_VOID_U8U16U16
                                     32 	.globl _CallFnc_VOID
                                     33 	.globl _CallSpriteFrame
                                     34 	.globl _VDP_RegWrite
                                     35 	.globl _g_SLTSL
                                     36 	.globl _g_GRPACY
                                     37 	.globl _g_GRPACX
                                     38 	.globl _g_LOGOPR
                                     39 	.globl _g_CMASK
                                     40 	.globl _g_CLOC
                                     41 	.globl _g_FNKSTR
                                     42 	.globl _g_ATRBYT
                                     43 	.globl _g_BDRCLR
                                     44 	.globl _g_BAKCLR
                                     45 	.globl _g_FORCLR
                                     46 	.globl _g_CSRX
                                     47 	.globl _g_CSRY
                                     48 	.globl _g_CLIKSW
                                     49 	.globl _g_MLTPAT
                                     50 	.globl _g_MLTATR
                                     51 	.globl _g_MLTCGP
                                     52 	.globl _g_MLTCOL
                                     53 	.globl _g_MLTNAM
                                     54 	.globl _g_GRPPAT
                                     55 	.globl _g_GRPATR
                                     56 	.globl _g_GRPCGP
                                     57 	.globl _g_GRPCOL
                                     58 	.globl _g_GRPNAM
                                     59 	.globl _g_T32PAT
                                     60 	.globl _g_T32ATR
                                     61 	.globl _g_T32CGP
                                     62 	.globl _g_T32COL
                                     63 	.globl _g_T32NAM
                                     64 	.globl _g_TXTPAT
                                     65 	.globl _g_TXTATR
                                     66 	.globl _g_TXTCGP
                                     67 	.globl _g_TXTCOL
                                     68 	.globl _g_TXTNAM
                                     69 	.globl _g_CLMLST
                                     70 	.globl _g_CRTCNT
                                     71 	.globl _g_LINLEN
                                     72 	.globl _g_LINL32
                                     73 	.globl _g_LINL40
                                     74 	.globl _g_BDOS
                                     75 	.globl _g_MASTER
                                     76 	.globl _g_RAMAD3
                                     77 	.globl _g_RAMAD2
                                     78 	.globl _g_RAMAD1
                                     79 	.globl _g_RAMAD0
                                     80 	.globl _g_BREAKV
                                     81 	.globl _g_DISKVE
                                     82 	.globl _g_KANJTABLE
                                     83 	.globl _g_STRSRC
                                     84 	.globl _g_SUBRID
                                     85 	.globl _g_CHAR_16
                                     86 	.globl _g_MSXMID
                                     87 	.globl _g_MSXVER
                                     88 	.globl _g_ROMVersion
                                     89 	.globl _g_BASRVN
                                     90 	.globl _g_VDP_DW
                                     91 	.globl _g_VDP_DR
                                     92 	.globl _g_CGTABL
                                     93 	.globl _g_SVFFFD
                                     94 	.globl _g_RG27SAV
                                     95 	.globl _g_RG26SAV
                                     96 	.globl _g_RG25SAV
                                     97 	.globl _g_SVFFF8
                                     98 	.globl _g_MINROM
                                     99 	.globl _g_RG23SAV
                                    100 	.globl _g_RG22SAV
                                    101 	.globl _g_RG21SAV
                                    102 	.globl _g_RG20SAV
                                    103 	.globl _g_RG19SAV
                                    104 	.globl _g_RG18SAV
                                    105 	.globl _g_RG17SAV
                                    106 	.globl _g_RG16SAV
                                    107 	.globl _g_RG15SAV
                                    108 	.globl _g_RG14SAV
                                    109 	.globl _g_RG13SAV
                                    110 	.globl _g_RG12SAV
                                    111 	.globl _g_RG11SAV
                                    112 	.globl _g_RG10SAV
                                    113 	.globl _g_RG09SAV
                                    114 	.globl _g_RG08SAV
                                    115 	.globl _g_PROCNM
                                    116 	.globl _g_SLTWRK
                                    117 	.globl _g_SLTATR
                                    118 	.globl _g_SLTTBL
                                    119 	.globl _g_EXPTBL
                                    120 	.globl _g_MNROM
                                    121 	.globl _g_DRWANG
                                    122 	.globl _g_DRWSCL
                                    123 	.globl _g_DRWFLG
                                    124 	.globl _g_GYPOS
                                    125 	.globl _g_GXPOS
                                    126 	.globl _g_BRDATR
                                    127 	.globl _g_CASPRV
                                    128 	.globl _g_OLDSCR
                                    129 	.globl _g_SCRMOD
                                    130 	.globl _g_FLBMEM
                                    131 	.globl _g_KANAMD
                                    132 	.globl _g_KANAST
                                    133 	.globl _g_CAPST
                                    134 	.globl _g_CSTYLE
                                    135 	.globl _g_CSRSW
                                    136 	.globl _g_INSFLG
                                    137 	.globl _g_ESCCNT
                                    138 	.globl _g_GRPHED
                                    139 	.globl _g_WINWID
                                    140 	.globl _g_LOWLIM
                                    141 	.globl _g_INTCNT
                                    142 	.globl _g_INTVAL
                                    143 	.globl _g_JIFFY
                                    144 	.globl _g_PADX
                                    145 	.globl _g_PADY
                                    146 	.globl _g_INTFLG
                                    147 	.globl _g_RTYCNT
                                    148 	.globl _g_TRPTBL
                                    149 	.globl _g_HIMEM
                                    150 	.globl _g_BOTTOM
                                    151 	.globl _g_PATWRK
                                    152 	.globl _g_LINWRK
                                    153 	.globl _g_KEYBUF
                                    154 	.globl _g_NEWKEY
                                    155 	.globl _g_OLDKEY
                                    156 	.globl _g_CLIKFL
                                    157 	.globl _g_ONGSBF
                                    158 	.globl _g_FNKFLG
                                    159 	.globl _g_FNKSWI
                                    160 	.globl _g_CODSAV
                                    161 	.globl _g_FSTPOS
                                    162 	.globl _g_LINTTB
                                    163 	.globl _g_BASROM
                                    164 	.globl _g_ENSTOP
                                    165 	.globl _g_VCBC
                                    166 	.globl _g_VCBB
                                    167 	.globl _g_VCBA
                                    168 	.globl _g_PLYCNT
                                    169 	.globl _g_MUSICF
                                    170 	.globl _g_QUEUEN
                                    171 	.globl _g_MCLPTR
                                    172 	.globl _g_MCLLEN
                                    173 	.globl _g_SAVVOL
                                    174 	.globl _g_VOICEN
                                    175 	.globl _g_SAVSP
                                    176 	.globl _g_PRSCNT
                                    177 	.globl _g_LSTMOD
                                    178 	.globl _g_LSTCOM
                                    179 	.globl _g_COMMSK
                                    180 	.globl _g_ESTBLS
                                    181 	.globl _g_FLAGS
                                    182 	.globl _g_ERRORS
                                    183 	.globl _g_DATCNT
                                    184 	.globl _g_DEVNUM
                                    185 	.globl _g_OLDINT
                                    186 	.globl _g_OLDSTT
                                    187 	.globl _g_MEXBIh
                                    188 	.globl _g_RSIQLN
                                    189 	.globl _g_RSFCB
                                    190 	.globl _g_TOCNT
                                    191 	.globl _g_RSTMP
                                    192 	.globl _g_YSAVE
                                    193 	.globl _g_XSAVE
                                    194 	.globl _g_NORUSE
                                    195 	.globl _g_MODE
                                    196 	.globl _g_ROMA
                                    197 	.globl _g_CHRCNT
                                    198 	.globl _g_EXBRSA
                                    199 	.globl _g_AVCSAV
                                    200 	.globl _g_ACPAGE
                                    201 	.globl _g_DPPAGE
                                    202 	.globl _g_RS2IQ
                                    203 	.globl _g_VOICCQ
                                    204 	.globl _g_VOICBQ
                                    205 	.globl _g_VOICAQ
                                    206 	.globl _g_QUEBAK
                                    207 	.globl _g_QUETAB
                                    208 	.globl _g_ASPCT2
                                    209 	.globl _g_ASPCT1
                                    210 	.globl _g_HEADER
                                    211 	.globl _g_HIGH
                                    212 	.globl _g_LOW
                                    213 	.globl _g_CS240
                                    214 	.globl _g_CS120
                                    215 	.globl _g_GETPNT
                                    216 	.globl _g_PUTPNT
                                    217 	.globl _g_REPCNT
                                    218 	.globl _g_SCNCNT
                                    219 	.globl _g_FRCNEW
                                    220 	.globl _g_QUEUES
                                    221 	.globl _g_MINUPD
                                    222 	.globl _g_MAXUPD
                                    223 	.globl _g_TRGFLG
                                    224 	.globl _g_STATFL
                                    225 	.globl _g_RG7SAV
                                    226 	.globl _g_RG6SAV
                                    227 	.globl _g_RG5SAV
                                    228 	.globl _g_RG4SAV
                                    229 	.globl _g_RG3SAV
                                    230 	.globl _g_RG2SAV
                                    231 	.globl _g_RG1SAV
                                    232 	.globl _g_RG0SAV
                                    233 	.globl _g_CNSDFG
                                    234 	.globl _g_USRTAB
                                    235 	.globl _g_CLPRIM
                                    236 	.globl _g_WRPRIM
                                    237 	.globl _g_RDPRIM
                                    238 	.globl _UpdateGameState_Restarts
                                    239 ;--------------------------------------------------------
                                    240 ; special function registers
                                    241 ;--------------------------------------------------------
                         000000A8   242 _g_PortPrimarySlot	=	0x00a8
                         000000A9   243 _g_PortReadKeyboard	=	0x00a9
                         000000AA   244 _g_PortAccessKeyboard	=	0x00aa
                         000000AB   245 _g_PortControl	=	0x00ab
                         00000098   246 _g_VDP_DataPort	=	0x0098
                         00000099   247 _g_VDP_RegPort	=	0x0099
                         00000099   248 _g_VDP_AddrPort	=	0x0099
                         00000099   249 _g_VDP_StatPort	=	0x0099
                         0000009A   250 _g_VDP_PalPort	=	0x009a
                         0000009B   251 _g_VDP_IRegPort	=	0x009b
                         000000A0   252 _g_PSG_RegPort	=	0x00a0
                         000000A1   253 _g_PSG_DataPort	=	0x00a1
                         000000A2   254 _g_PSG_StatPort	=	0x00a2
                         00000010   255 _g_PSG_Ext_RegPort	=	0x0010
                         00000011   256 _g_PSG_Ext_DataPort	=	0x0011
                         00000012   257 _g_PSG_Ext_StatPort	=	0x0012
                         0000007C   258 _g_MSXMusic_IndexPort	=	0x007c
                         0000007D   259 _g_MSXMusic_DataPort	=	0x007d
                         000000C0   260 _g_MSXAudio_IndexPort	=	0x00c0
                         000000C1   261 _g_MSXAudio_DataPort	=	0x00c1
                         000000C2   262 _g_MSXAudio_IndexPort2	=	0x00c2
                         000000C3   263 _g_MSXAudio_DataPort2	=	0x00c3
                         000000B4   264 _g_RTC_AddrPort	=	0x00b4
                         000000B5   265 _g_RTC_DataPort	=	0x00b5
                                    266 ;--------------------------------------------------------
                                    267 ; ram data
                                    268 ;--------------------------------------------------------
                                    269 	.area _DATA
                         0000F3AE   270 _g_LINL40	=	0xf3ae
                         0000F3AF   271 _g_LINL32	=	0xf3af
                         0000F3B0   272 _g_LINLEN	=	0xf3b0
                         0000F3B1   273 _g_CRTCNT	=	0xf3b1
                         0000F3B2   274 _g_CLMLST	=	0xf3b2
                         0000F3B3   275 _g_TXTNAM	=	0xf3b3
                         0000F3B5   276 _g_TXTCOL	=	0xf3b5
                         0000F3B7   277 _g_TXTCGP	=	0xf3b7
                         0000F3B9   278 _g_TXTATR	=	0xf3b9
                         0000F3BB   279 _g_TXTPAT	=	0xf3bb
                         0000F3BD   280 _g_T32NAM	=	0xf3bd
                         0000F3BF   281 _g_T32COL	=	0xf3bf
                         0000F3C1   282 _g_T32CGP	=	0xf3c1
                         0000F3C3   283 _g_T32ATR	=	0xf3c3
                         0000F3C5   284 _g_T32PAT	=	0xf3c5
                         0000F3C7   285 _g_GRPNAM	=	0xf3c7
                         0000F3C9   286 _g_GRPCOL	=	0xf3c9
                         0000F3CB   287 _g_GRPCGP	=	0xf3cb
                         0000F3CD   288 _g_GRPATR	=	0xf3cd
                         0000F3CF   289 _g_GRPPAT	=	0xf3cf
                         0000F3D1   290 _g_MLTNAM	=	0xf3d1
                         0000F3D3   291 _g_MLTCOL	=	0xf3d3
                         0000F3D5   292 _g_MLTCGP	=	0xf3d5
                         0000F3D7   293 _g_MLTATR	=	0xf3d7
                         0000F3D9   294 _g_MLTPAT	=	0xf3d9
                         0000F3DB   295 _g_CLIKSW	=	0xf3db
                         0000F3DC   296 _g_CSRY	=	0xf3dc
                         0000F3DD   297 _g_CSRX	=	0xf3dd
                         0000F3E9   298 _g_FORCLR	=	0xf3e9
                         0000F3EA   299 _g_BAKCLR	=	0xf3ea
                         0000F3EB   300 _g_BDRCLR	=	0xf3eb
                         0000F3F2   301 _g_ATRBYT	=	0xf3f2
                         0000F87F   302 _g_FNKSTR	=	0xf87f
                         0000F92A   303 _g_CLOC	=	0xf92a
                         0000F92C   304 _g_CMASK	=	0xf92c
                         0000FB02   305 _g_LOGOPR	=	0xfb02
                         0000FCB7   306 _g_GRPACX	=	0xfcb7
                         0000FCB9   307 _g_GRPACY	=	0xfcb9
                         0000FFFF   308 _g_SLTSL	=	0xffff
                                    309 ;--------------------------------------------------------
                                    310 ; ram data
                                    311 ;--------------------------------------------------------
                                    312 	.area _INITIALIZED
                                    313 ;--------------------------------------------------------
                                    314 ; absolute external ram data
                                    315 ;--------------------------------------------------------
                                    316 	.area _DABS (ABS)
                                    317 ;--------------------------------------------------------
                                    318 ; global & static initialisations
                                    319 ;--------------------------------------------------------
                                    320 	.area _HOME
                                    321 	.area _GSINIT
                                    322 	.area _GSFINAL
                                    323 	.area _GSINIT
                                    324 ;--------------------------------------------------------
                                    325 ; Home
                                    326 ;--------------------------------------------------------
                                    327 	.area _HOME
                                    328 	.area _HOME
                                    329 ;--------------------------------------------------------
                                    330 ; code
                                    331 ;--------------------------------------------------------
                                    332 	.area _SEG12
                                    333 ;E:\Dropbox\FAUSTO\SVILUPPI\MSX\CODE\C\MSXgl\projects\soccerlgMSX2/soccerlg_s12_b3.c:11: void UpdateGameState_Restarts(u8* game_state, u8* wait_secs, u8* start_sec, u16 target_ly) 
                                    334 ;	---------------------------------
                                    335 ; Function UpdateGameState_Restarts
                                    336 ; ---------------------------------
    00000000                        337 _UpdateGameState_Restarts::
    00000000 DD E5            [15]  338 	push	ix
    00000002 DD 21 00 00      [14]  339 	ld	ix,#0
    00000006 DD 39            [15]  340 	add	ix,sp
    00000008 FD 21 E0 FF      [14]  341 	ld	iy, #-32
    0000000C FD 39            [15]  342 	add	iy, sp
    0000000E FD F9            [10]  343 	ld	sp, iy
    00000010 DD 75 FE         [19]  344 	ld	-2 (ix), l
    00000013 DD 74 FF         [19]  345 	ld	-1 (ix), h
    00000016 DD 73 FC         [19]  346 	ld	-4 (ix), e
    00000019 DD 72 FD         [19]  347 	ld	-3 (ix), d
                                    348 ;E:\Dropbox\FAUSTO\SVILUPPI\MSX\CODE\C\MSXgl\projects\soccerlgMSX2/soccerlg_s12_b3.c:13: if (*game_state == 4) {
    0000001C DD 6E FE         [19]  349 	ld	l, -2 (ix)
    0000001F DD 66 FF         [19]  350 	ld	h, -1 (ix)
    00000022 7E               [ 7]  351 	ld	a, (hl)
    00000023 DD 77 FB         [19]  352 	ld	-5 (ix), a
    00000026 D6 04            [ 7]  353 	sub	a, #0x04
    00000028 C2r7Fr05         [10]  354 	jp	NZ,00255$
                                    355 ;E:\Dropbox\FAUSTO\SVILUPPI\MSX\CODE\C\MSXgl\projects\soccerlgMSX2/soccerlg_s12_b3.c:15: if (*wait_secs > 0) {
    0000002B DD 6E FC         [19]  356 	ld	l, -4 (ix)
    0000002E DD 66 FD         [19]  357 	ld	h, -3 (ix)
    00000031 7E               [ 7]  358 	ld	a, (hl)
    00000032 DD 77 FB         [19]  359 	ld	-5 (ix), a
    00000035 B7               [ 4]  360 	or	a, a
    00000036 CArE8r10         [10]  361 	jp	Z, 00273$
                                    362 ;E:\Dropbox\FAUSTO\SVILUPPI\MSX\CODE\C\MSXgl\projects\soccerlgMSX2/soccerlg_s12_b3.c:16: if (*start_sec < Frms) { // Frms wrapped from 1 to 60
    00000039 DD 7E 04         [19]  363 	ld	a, 4 (ix)
    0000003C DD 77 F1         [19]  364 	ld	-15 (ix), a
    0000003F DD 7E 05         [19]  365 	ld	a, 5 (ix)
    00000042 DD 77 F2         [19]  366 	ld	-14 (ix), a
    00000045 DD 6E F1         [19]  367 	ld	l, -15 (ix)
    00000048 DD 66 F2         [19]  368 	ld	h, -14 (ix)
    0000004B 4E               [ 7]  369 	ld	c, (hl)
    0000004C 21r00r00         [10]  370 	ld	hl, #_Frms
    0000004F 79               [ 4]  371 	ld	a, c
    00000050 96               [ 7]  372 	sub	a, (hl)
    00000051 D2r72r05         [10]  373 	jp	NC, 00123$
                                    374 ;E:\Dropbox\FAUSTO\SVILUPPI\MSX\CODE\C\MSXgl\projects\soccerlgMSX2/soccerlg_s12_b3.c:17: (*wait_secs)--;
    00000054 DD 7E FB         [19]  375 	ld	a, -5 (ix)
    00000057 3D               [ 4]  376 	dec	a
    00000058 DD 6E FC         [19]  377 	ld	l, -4 (ix)
    0000005B DD 66 FD         [19]  378 	ld	h, -3 (ix)
    0000005E 77               [ 7]  379 	ld	(hl), a
                                    380 ;E:\Dropbox\FAUSTO\SVILUPPI\MSX\CODE\C\MSXgl\projects\soccerlgMSX2/soccerlg_s12_b3.c:18: if (*wait_secs == 0) {
    0000005F B7               [ 4]  381 	or	a, a
    00000060 C2r72r05         [10]  382 	jp	NZ, 00123$
                                    383 ;E:\Dropbox\FAUSTO\SVILUPPI\MSX\CODE\C\MSXgl\projects\soccerlgMSX2/soccerlg_s12_b3.c:19: CallFnc_VOID(SEG_DRAW, HideSpriteMessage);
    00000063 11r00r00         [10]  384 	ld	de, #_HideSpriteMessage
    00000066 3E 05            [ 7]  385 	ld	a, #0x05
    00000068 CDr00r00         [17]  386 	call	_CallFnc_VOID
                                    387 ;E:\Dropbox\FAUSTO\SVILUPPI\MSX\CODE\C\MSXgl\projects\soccerlgMSX2/soccerlg_s12_b3.c:22: Half = 2;
    0000006B 21r00r00         [10]  388 	ld	hl, #_Half
    0000006E 36 02            [10]  389 	ld	(hl), #0x02
                                    390 ;E:\Dropbox\FAUSTO\SVILUPPI\MSX\CODE\C\MSXgl\projects\soccerlgMSX2/soccerlg_s12_b3.c:23: Mins = HALF_TIME_DURATION; Secs = 0;
    00000070 21r00r00         [10]  391 	ld	hl, #_Mins
    00000073 36 01            [10]  392 	ld	(hl), #0x01
    00000075 21r00r00         [10]  393 	ld	hl, #_Secs
    00000078 36 00            [10]  394 	ld	(hl), #0x00
                                    395 ;E:\Dropbox\FAUSTO\SVILUPPI\MSX\CODE\C\MSXgl\projects\soccerlgMSX2/soccerlg_s12_b3.c:24: KickOffTeam = TEAM_1; // Secondo tempo batte il Team 1
    0000007A 21r00r00         [10]  396 	ld	hl, #_KickOffTeam
    0000007D 36 00            [10]  397 	ld	(hl), #0x00
                                    398 ;E:\Dropbox\FAUSTO\SVILUPPI\MSX\CODE\C\MSXgl\projects\soccerlgMSX2/soccerlg_s12_b3.c:25: TimerEnabled = FALSE; // Congela il timer fino al prossimo tocco
    0000007F 21r00r00         [10]  399 	ld	hl, #_TimerEnabled
    00000082 36 00            [10]  400 	ld	(hl), #0x00
                                    401 ;E:\Dropbox\FAUSTO\SVILUPPI\MSX\CODE\C\MSXgl\projects\soccerlgMSX2/soccerlg_s12_b3.c:28: SwSprite[14].lx = BALL_START_X;
    00000084 21r42r01         [10]  402 	ld	hl, #(_SwSprite + 322)
    00000087 36 78            [10]  403 	ld	(hl), #0x78
                                    404 ;E:\Dropbox\FAUSTO\SVILUPPI\MSX\CODE\C\MSXgl\projects\soccerlgMSX2/soccerlg_s12_b3.c:29: SwSprite[14].ly = BALL_START_Y;
    00000089 21 00 01         [10]  405 	ld	hl, #0x0100
    0000008C 22r46r01         [16]  406 	ld	((_SwSprite + 326)), hl
                                    407 ;E:\Dropbox\FAUSTO\SVILUPPI\MSX\CODE\C\MSXgl\projects\soccerlgMSX2/soccerlg_s12_b3.c:30: SwSprite[14].dx = 0; SwSprite[14].dy = 0; SwSprite[14].anim = 0;
    0000008F 21r53r01         [10]  408 	ld	hl, #(_SwSprite + 339)
    00000092 36 00            [10]  409 	ld	(hl), #0x00
    00000094 21r54r01         [10]  410 	ld	hl, #(_SwSprite + 340)
    00000097 36 00            [10]  411 	ld	(hl), #0x00
    00000099 21 00 00         [10]  412 	ld	hl, #0x0000
    0000009C 22r55r01         [16]  413 	ld	((_SwSprite + 341)), hl
                                    414 ;E:\Dropbox\FAUSTO\SVILUPPI\MSX\CODE\C\MSXgl\projects\soccerlgMSX2/soccerlg_s12_b3.c:32: Field.ly = target_ly; // Centra campo immediatamente per 2T
    0000009F 21r04r00         [10]  415 	ld	hl, #(_Field + 4)
    000000A2 DD 7E 06         [19]  416 	ld	a, 6 (ix)
    000000A5 77               [ 7]  417 	ld	(hl), a
    000000A6 23               [ 6]  418 	inc	hl
    000000A7 DD 7E 07         [19]  419 	ld	a, 7 (ix)
    000000AA 77               [ 7]  420 	ld	(hl), a
                                    421 ;E:\Dropbox\FAUSTO\SVILUPPI\MSX\CODE\C\MSXgl\projects\soccerlgMSX2/soccerlg_s12_b3.c:33: Field.dy = 0; // Impedisce ad AddLines di far scorrere lo sfondo non esistente
    000000AB 21r12r00         [10]  422 	ld	hl, #(_Field + 18)
    000000AE 36 00            [10]  423 	ld	(hl), #0x00
                                    424 ;E:\Dropbox\FAUSTO\SVILUPPI\MSX\CODE\C\MSXgl\projects\soccerlgMSX2/soccerlg_s12_b3.c:36: ScoreBoardLeft.y0 = ScoreBoardLeft.y1 = ScoreBoardLeft.y2 = Field.ly;
    000000B0 21r0Ar00         [10]  425 	ld	hl, #(_ScoreBoardLeft + 10)
    000000B3 DD 7E 06         [19]  426 	ld	a, 6 (ix)
    000000B6 77               [ 7]  427 	ld	(hl), a
    000000B7 23               [ 6]  428 	inc	hl
    000000B8 DD 7E 07         [19]  429 	ld	a, 7 (ix)
    000000BB 77               [ 7]  430 	ld	(hl), a
    000000BC 21r08r00         [10]  431 	ld	hl, #(_ScoreBoardLeft + 8)
    000000BF DD 7E 06         [19]  432 	ld	a, 6 (ix)
    000000C2 77               [ 7]  433 	ld	(hl), a
    000000C3 23               [ 6]  434 	inc	hl
    000000C4 DD 7E 07         [19]  435 	ld	a, 7 (ix)
    000000C7 77               [ 7]  436 	ld	(hl), a
    000000C8 21r06r00         [10]  437 	ld	hl, #(_ScoreBoardLeft + 6)
    000000CB DD 7E 06         [19]  438 	ld	a, 6 (ix)
    000000CE 77               [ 7]  439 	ld	(hl), a
    000000CF 23               [ 6]  440 	inc	hl
    000000D0 DD 7E 07         [19]  441 	ld	a, 7 (ix)
    000000D3 77               [ 7]  442 	ld	(hl), a
                                    443 ;E:\Dropbox\FAUSTO\SVILUPPI\MSX\CODE\C\MSXgl\projects\soccerlgMSX2/soccerlg_s12_b3.c:37: ScoreBoardRight.y0 = ScoreBoardRight.y1 = ScoreBoardRight.y2 = Field.ly;
    000000D4 21r0Ar00         [10]  444 	ld	hl, #(_ScoreBoardRight + 10)
    000000D7 DD 7E 06         [19]  445 	ld	a, 6 (ix)
    000000DA 77               [ 7]  446 	ld	(hl), a
    000000DB 23               [ 6]  447 	inc	hl
    000000DC DD 7E 07         [19]  448 	ld	a, 7 (ix)
    000000DF 77               [ 7]  449 	ld	(hl), a
    000000E0 21r08r00         [10]  450 	ld	hl, #(_ScoreBoardRight + 8)
    000000E3 DD 7E 06         [19]  451 	ld	a, 6 (ix)
    000000E6 77               [ 7]  452 	ld	(hl), a
    000000E7 23               [ 6]  453 	inc	hl
    000000E8 DD 7E 07         [19]  454 	ld	a, 7 (ix)
    000000EB 77               [ 7]  455 	ld	(hl), a
    000000EC 21r06r00         [10]  456 	ld	hl, #(_ScoreBoardRight + 6)
    000000EF DD 7E 06         [19]  457 	ld	a, 6 (ix)
    000000F2 77               [ 7]  458 	ld	(hl), a
    000000F3 23               [ 6]  459 	inc	hl
    000000F4 DD 7E 07         [19]  460 	ld	a, 7 (ix)
    000000F7 77               [ 7]  461 	ld	(hl), a
                                    462 ;E:\Dropbox\FAUSTO\SVILUPPI\MSX\CODE\C\MSXgl\projects\soccerlgMSX2/soccerlg_s12_b3.c:38: VDP_SetVerticalOffset(Field.ly & 255);
    000000F8 DD 6E 06         [19]  463 	ld	l, 6 (ix)
                                    464 ;	spillPairReg hl
                                    465 ;	spillPairReg hl
                                    466 ;E:/Dropbox/FAUSTO/SVILUPPI/MSX/CODE/C/MSXgl/engine/src/vdp.h:777: inline void VDP_SetVerticalOffset(u8 offset) { VDP_RegWrite(23, offset); }
    000000FB 3E 17            [ 7]  467 	ld	a, #0x17
    000000FD CDr00r00         [17]  468 	call	_VDP_RegWrite
                                    469 ;E:\Dropbox\FAUSTO\SVILUPPI\MSX\CODE\C\MSXgl\projects\soccerlgMSX2/soccerlg_s12_b3.c:40: CallFnc_VOID(SEG_GAMESTATE_2, AssignKickOffTargets);
    00000100 11r00r00         [10]  470 	ld	de, #_AssignKickOffTargets
    00000103 3E 0B            [ 7]  471 	ld	a, #0x0b
    00000105 CDr00r00         [17]  472 	call	_CallFnc_VOID
                                    473 ;E:\Dropbox\FAUSTO\SVILUPPI\MSX\CODE\C\MSXgl\projects\soccerlgMSX2/soccerlg_s12_b3.c:41: for (u8 i = 0; i < 14; i++) {
    00000108 DD 36 FB 00      [19]  474 	ld	-5 (ix), #0x00
    0000010C                        475 00259$:
    0000010C DD 7E FB         [19]  476 	ld	a, -5 (ix)
    0000010F D6 0E            [ 7]  477 	sub	a, #0x0e
    00000111 D2rB2r01         [10]  478 	jp	NC, 00101$
                                    479 ;E:\Dropbox\FAUSTO\SVILUPPI\MSX\CODE\C\MSXgl\projects\soccerlgMSX2/soccerlg_s12_b3.c:42: SwSprite[i].lx = SwSprite[i].tx;
    00000114 DD 4E FB         [19]  480 	ld	c, -5 (ix)
    00000117 06 00            [ 7]  481 	ld	b, #0x00
    00000119 69               [ 4]  482 	ld	l, c
    0000011A 60               [ 4]  483 	ld	h, b
    0000011B 29               [11]  484 	add	hl, hl
    0000011C 29               [11]  485 	add	hl, hl
    0000011D 09               [11]  486 	add	hl, bc
    0000011E 29               [11]  487 	add	hl, hl
    0000011F 09               [11]  488 	add	hl, bc
    00000120 29               [11]  489 	add	hl, hl
    00000121 09               [11]  490 	add	hl, bc
    00000122 DD 75 F9         [19]  491 	ld	-7 (ix), l
    00000125 DD 74 FA         [19]  492 	ld	-6 (ix), h
    00000128 DD 7E F9         [19]  493 	ld	a, -7 (ix)
    0000012B C6r00            [ 7]  494 	add	a, #<(_SwSprite)
    0000012D DD 77 F5         [19]  495 	ld	-11 (ix), a
    00000130 DD 7E FA         [19]  496 	ld	a, -6 (ix)
    00000133 CEs00            [ 7]  497 	adc	a, #>(_SwSprite)
    00000135 DD 77 F6         [19]  498 	ld	-10 (ix), a
    00000138 DD 7E F5         [19]  499 	ld	a, -11 (ix)
    0000013B DD 77 F9         [19]  500 	ld	-7 (ix), a
    0000013E DD 7E F6         [19]  501 	ld	a, -10 (ix)
    00000141 DD 77 FA         [19]  502 	ld	-6 (ix), a
    00000144 DD 6E F9         [19]  503 	ld	l, -7 (ix)
    00000147 DD 66 FA         [19]  504 	ld	h, -6 (ix)
    0000014A 11 0C 00         [10]  505 	ld	de, #0x000c
    0000014D 19               [11]  506 	add	hl, de
    0000014E 7E               [ 7]  507 	ld	a, (hl)
    0000014F DD 6E F5         [19]  508 	ld	l, -11 (ix)
    00000152 DD 66 F6         [19]  509 	ld	h, -10 (ix)
    00000155 77               [ 7]  510 	ld	(hl), a
                                    511 ;E:\Dropbox\FAUSTO\SVILUPPI\MSX\CODE\C\MSXgl\projects\soccerlgMSX2/soccerlg_s12_b3.c:43: SwSprite[i].ly = SwSprite[i].ty;
    00000156 DD 7E F5         [19]  512 	ld	a, -11 (ix)
    00000159 C6 04            [ 7]  513 	add	a, #0x04
    0000015B DD 77 F7         [19]  514 	ld	-9 (ix), a
    0000015E DD 7E F6         [19]  515 	ld	a, -10 (ix)
    00000161 CE 00            [ 7]  516 	adc	a, #0x00
    00000163 DD 77 F8         [19]  517 	ld	-8 (ix), a
    00000166 DD 7E F5         [19]  518 	ld	a, -11 (ix)
    00000169 DD 77 F9         [19]  519 	ld	-7 (ix), a
    0000016C DD 7E F6         [19]  520 	ld	a, -10 (ix)
    0000016F DD 77 FA         [19]  521 	ld	-6 (ix), a
    00000172 DD 6E F9         [19]  522 	ld	l, -7 (ix)
    00000175 DD 66 FA         [19]  523 	ld	h, -6 (ix)
    00000178 11 0D 00         [10]  524 	ld	de, #0x000d
    0000017B 19               [11]  525 	add	hl, de
    0000017C 7E               [ 7]  526 	ld	a, (hl)
    0000017D DD 77 F9         [19]  527 	ld	-7 (ix), a
    00000180 23               [ 6]  528 	inc	hl
    00000181 7E               [ 7]  529 	ld	a, (hl)
    00000182 DD 77 FA         [19]  530 	ld	-6 (ix), a
    00000185 DD 6E F7         [19]  531 	ld	l, -9 (ix)
    00000188 DD 66 F8         [19]  532 	ld	h, -8 (ix)
    0000018B DD 7E F9         [19]  533 	ld	a, -7 (ix)
    0000018E 77               [ 7]  534 	ld	(hl), a
    0000018F 23               [ 6]  535 	inc	hl
    00000190 DD 7E FA         [19]  536 	ld	a, -6 (ix)
    00000193 77               [ 7]  537 	ld	(hl), a
                                    538 ;E:\Dropbox\FAUSTO\SVILUPPI\MSX\CODE\C\MSXgl\projects\soccerlgMSX2/soccerlg_s12_b3.c:44: SwSprite[i].dx = 0; SwSprite[i].dy = 0;
    00000194 DD 6E F5         [19]  539 	ld	l, -11 (ix)
    00000197 DD 66 F6         [19]  540 	ld	h, -10 (ix)
    0000019A 11 11 00         [10]  541 	ld	de, #0x0011
    0000019D 19               [11]  542 	add	hl, de
    0000019E 36 00            [10]  543 	ld	(hl), #0x00
    000001A0 DD 6E F5         [19]  544 	ld	l, -11 (ix)
    000001A3 DD 66 F6         [19]  545 	ld	h, -10 (ix)
    000001A6 11 12 00         [10]  546 	ld	de, #0x0012
    000001A9 19               [11]  547 	add	hl, de
    000001AA 36 00            [10]  548 	ld	(hl), #0x00
                                    549 ;E:\Dropbox\FAUSTO\SVILUPPI\MSX\CODE\C\MSXgl\projects\soccerlgMSX2/soccerlg_s12_b3.c:41: for (u8 i = 0; i < 14; i++) {
    000001AC DD 34 FB         [23]  550 	inc	-5 (ix)
    000001AF C3r0Cr01         [10]  551 	jp	00259$
    000001B2                        552 00101$:
                                    553 ;E:\Dropbox\FAUSTO\SVILUPPI\MSX\CODE\C\MSXgl\projects\soccerlgMSX2/soccerlg_s12_b3.c:48: bool ball_fg = CallFnc_BOOL(SEG_DRAW, IsBallForeground);
    000001B2 11r00r00         [10]  554 	ld	de, #_IsBallForeground
    000001B5 3E 05            [ 7]  555 	ld	a, #0x05
    000001B7 CDr00r00         [17]  556 	call	_CallFnc_BOOL
    000001BA DD 77 FB         [19]  557 	ld	-5 (ix), a
    000001BD DD 77 F4         [19]  558 	ld	-12 (ix), a
                                    559 ;E:\Dropbox\FAUSTO\SVILUPPI\MSX\CODE\C\MSXgl\projects\soccerlgMSX2/soccerlg_s12_b3.c:49: for (u16 page = 0; page <= 512; page += 256) {
    000001C0 AF               [ 4]  560 	xor	a, a
    000001C1 DD 77 F5         [19]  561 	ld	-11 (ix), a
    000001C4 DD 77 F6         [19]  562 	ld	-10 (ix), a
    000001C7                        563 00268$:
    000001C7 DD 4E F5         [19]  564 	ld	c, -11 (ix)
    000001CA DD 46 F6         [19]  565 	ld	b, -10 (ix)
    000001CD AF               [ 4]  566 	xor	a, a
    000001CE B9               [ 4]  567 	cp	a, c
    000001CF 3E 02            [ 7]  568 	ld	a, #0x02
    000001D1 98               [ 4]  569 	sbc	a, b
    000001D2 DAr7Cr03         [10]  570 	jp	C, 00354$
                                    571 ;E:\Dropbox\FAUSTO\SVILUPPI\MSX\CODE\C\MSXgl\projects\soccerlgMSX2/soccerlg_s12_b3.c:50: CallFnc_VOID_16_P2(SEG_DRAW, PlotField, Field.ly, page);
    000001D5 2Ar04r00         [16]  572 	ld	hl, (#(_Field + 4) + 0)
    000001D8 DD 5E F5         [19]  573 	ld	e, -11 (ix)
    000001DB DD 56 F6         [19]  574 	ld	d, -10 (ix)
    000001DE D5               [11]  575 	push	de
    000001DF E5               [11]  576 	push	hl
    000001E0 11r00r00         [10]  577 	ld	de, #_PlotField
    000001E3 3E 05            [ 7]  578 	ld	a, #0x05
    000001E5 CDr00r00         [17]  579 	call	_CallFnc_VOID_16_P2
                                    580 ;E:\Dropbox\FAUSTO\SVILUPPI\MSX\CODE\C\MSXgl\projects\soccerlgMSX2/soccerlg_s12_b3.c:51: if (!ball_fg && OnScreen(SwSprite[14].ly)) CallSpriteFrame(SwSprite[14].lx, (SwSprite[14].ly & 255) + page, SwSprite[14].frame);
    000001E8 DD 7E F4         [19]  581 	ld	a, -12 (ix)
    000001EB B7               [ 4]  582 	or	a, a
    000001EC 20 3B            [12]  583 	jr	NZ, 00344$
    000001EE ED 5Br46r01      [20]  584 	ld	de, (#(_SwSprite + 326) + 0)
    000001F2 7A               [ 4]  585 	ld	a, d
    000001F3 D6 02            [ 7]  586 	sub	a, #0x02
    000001F5 30 32            [12]  587 	jr	NC, 00344$
    000001F7 21 0F 02         [10]  588 	ld	hl, #0x020f
    000001FA 19               [11]  589 	add	hl, de
    000001FB 4D               [ 4]  590 	ld	c, l
    000001FC 44               [ 4]  591 	ld	b, h
    000001FD 2Ar04r00         [16]  592 	ld	hl, (#(_Field + 4) + 0)
    00000200 79               [ 4]  593 	ld	a, c
    00000201 95               [ 4]  594 	sub	a, l
    00000202 4F               [ 4]  595 	ld	c, a
    00000203 78               [ 4]  596 	ld	a, b
    00000204 9C               [ 4]  597 	sbc	a, h
    00000205 E6 01            [ 7]  598 	and	a, #0x01
    00000207 47               [ 4]  599 	ld	b, a
    00000208 79               [ 4]  600 	ld	a, c
    00000209 D6 CF            [ 7]  601 	sub	a, #0xcf
    0000020B 78               [ 4]  602 	ld	a, b
    0000020C DE 00            [ 7]  603 	sbc	a, #0x00
    0000020E 30 19            [12]  604 	jr	NC, 00344$
    00000210 ED 4Br51r01      [20]  605 	ld	bc, (#(_SwSprite + 337) + 0)
    00000214 16 00            [ 7]  606 	ld	d, #0x00
    00000216 7B               [ 4]  607 	ld	a, e
    00000217 DD 86 F5         [19]  608 	add	a, -11 (ix)
    0000021A 5F               [ 4]  609 	ld	e, a
    0000021B 7A               [ 4]  610 	ld	a, d
    0000021C DD 8E F6         [19]  611 	adc	a, -10 (ix)
    0000021F 57               [ 4]  612 	ld	d, a
    00000220 21r42r01         [10]  613 	ld	hl, #(_SwSprite + 322)
    00000223 6E               [ 7]  614 	ld	l, (hl)
                                    615 ;	spillPairReg hl
    00000224 C5               [11]  616 	push	bc
    00000225 7D               [ 4]  617 	ld	a, l
    00000226 CDr00r00         [17]  618 	call	_CallSpriteFrame
                                    619 ;E:\Dropbox\FAUSTO\SVILUPPI\MSX\CODE\C\MSXgl\projects\soccerlgMSX2/soccerlg_s12_b3.c:52: for (u8 i=0; i<14; i++) if (OnScreen(SwSprite[i].ly)) CallSpriteFrame(SwSprite[i].lx, (SwSprite[i].ly & 255) + page, SwSprite[i].frame);
    00000229                        620 00344$:
    00000229 DD 36 FB 00      [19]  621 	ld	-5 (ix), #0x00
    0000022D                        622 00262$:
    0000022D DD 7E FB         [19]  623 	ld	a, -5 (ix)
    00000230 D6 0E            [ 7]  624 	sub	a, #0x0e
    00000232 30 77            [12]  625 	jr	NC, 00109$
    00000234 DD 4E FB         [19]  626 	ld	c, -5 (ix)
    00000237 06 00            [ 7]  627 	ld	b, #0x00
    00000239 69               [ 4]  628 	ld	l, c
    0000023A 60               [ 4]  629 	ld	h, b
    0000023B 29               [11]  630 	add	hl, hl
    0000023C 29               [11]  631 	add	hl, hl
    0000023D 09               [11]  632 	add	hl, bc
    0000023E 29               [11]  633 	add	hl, hl
    0000023F 09               [11]  634 	add	hl, bc
    00000240 29               [11]  635 	add	hl, hl
    00000241 09               [11]  636 	add	hl, bc
    00000242 EB               [ 4]  637 	ex	de, hl
    00000243 21r00r00         [10]  638 	ld	hl, #_SwSprite
    00000246 19               [11]  639 	add	hl, de
    00000247 DD 75 F7         [19]  640 	ld	-9 (ix), l
    0000024A DD 74 F8         [19]  641 	ld	-8 (ix), h
    0000024D 01 04 00         [10]  642 	ld	bc,#4
    00000250 09               [11]  643 	add	hl,bc
    00000251 4E               [ 7]  644 	ld	c, (hl)
    00000252 23               [ 6]  645 	inc	hl
    00000253 7E               [ 7]  646 	ld	a, (hl)
    00000254 DD 71 F9         [19]  647 	ld	-7 (ix), c
    00000257 DD 77 FA         [19]  648 	ld	-6 (ix), a
    0000025A D6 02            [ 7]  649 	sub	a, #0x02
    0000025C 30 47            [12]  650 	jr	NC, 00263$
    0000025E DD 7E F9         [19]  651 	ld	a, -7 (ix)
    00000261 C6 0F            [ 7]  652 	add	a, #0x0f
    00000263 5F               [ 4]  653 	ld	e, a
    00000264 DD 7E FA         [19]  654 	ld	a, -6 (ix)
    00000267 CE 02            [ 7]  655 	adc	a, #0x02
    00000269 57               [ 4]  656 	ld	d, a
    0000026A ED 4Br04r00      [20]  657 	ld	bc, (#(_Field + 4) + 0)
    0000026E EB               [ 4]  658 	ex	de, hl
    0000026F BF               [ 4]  659 	cp	a, a
    00000270 ED 42            [15]  660 	sbc	hl, bc
    00000272 7C               [ 4]  661 	ld	a, h
    00000273 E6 01            [ 7]  662 	and	a, #0x01
    00000275 4F               [ 4]  663 	ld	c, a
    00000276 7D               [ 4]  664 	ld	a, l
    00000277 D6 CF            [ 7]  665 	sub	a, #0xcf
    00000279 79               [ 4]  666 	ld	a, c
    0000027A DE 00            [ 7]  667 	sbc	a, #0x00
    0000027C 30 27            [12]  668 	jr	NC, 00263$
    0000027E DD 4E F7         [19]  669 	ld	c, -9 (ix)
    00000281 DD 46 F8         [19]  670 	ld	b, -8 (ix)
    00000284 21 0F 00         [10]  671 	ld	hl, #15
    00000287 09               [11]  672 	add	hl, bc
    00000288 4E               [ 7]  673 	ld	c, (hl)
    00000289 23               [ 6]  674 	inc	hl
    0000028A 46               [ 7]  675 	ld	b, (hl)
    0000028B DD 7E F9         [19]  676 	ld	a, -7 (ix)
    0000028E 16 00            [ 7]  677 	ld	d, #0x00
    00000290 DD 86 F5         [19]  678 	add	a, -11 (ix)
    00000293 5F               [ 4]  679 	ld	e, a
    00000294 7A               [ 4]  680 	ld	a, d
    00000295 DD 8E F6         [19]  681 	adc	a, -10 (ix)
    00000298 57               [ 4]  682 	ld	d, a
    00000299 DD 6E F7         [19]  683 	ld	l, -9 (ix)
    0000029C DD 66 F8         [19]  684 	ld	h, -8 (ix)
    0000029F 6E               [ 7]  685 	ld	l, (hl)
                                    686 ;	spillPairReg hl
    000002A0 C5               [11]  687 	push	bc
    000002A1 7D               [ 4]  688 	ld	a, l
    000002A2 CDr00r00         [17]  689 	call	_CallSpriteFrame
    000002A5                        690 00263$:
    000002A5 DD 34 FB         [23]  691 	inc	-5 (ix)
    000002A8 C3r2Dr02         [10]  692 	jp	00262$
    000002AB                        693 00109$:
                                    694 ;E:\Dropbox\FAUSTO\SVILUPPI\MSX\CODE\C\MSXgl\projects\soccerlgMSX2/soccerlg_s12_b3.c:53: if (ball_fg && OnScreen(SwSprite[14].ly)) CallSpriteFrame(SwSprite[14].lx, (SwSprite[14].ly & 255) + page, SwSprite[14].frame);
    000002AB DD 7E F4         [19]  695 	ld	a, -12 (ix)
    000002AE B7               [ 4]  696 	or	a, a
    000002AF 28 3B            [12]  697 	jr	Z, 00351$
                                    698 ;E:\Dropbox\FAUSTO\SVILUPPI\MSX\CODE\C\MSXgl\projects\soccerlgMSX2/soccerlg_s12_b3.c:51: if (!ball_fg && OnScreen(SwSprite[14].ly)) CallSpriteFrame(SwSprite[14].lx, (SwSprite[14].ly & 255) + page, SwSprite[14].frame);
    000002B1 ED 5Br46r01      [20]  699 	ld	de, (#(_SwSprite + 326) + 0)
                                    700 ;E:\Dropbox\FAUSTO\SVILUPPI\MSX\CODE\C\MSXgl\projects\soccerlgMSX2/soccerlg_s12_b3.c:53: if (ball_fg && OnScreen(SwSprite[14].ly)) CallSpriteFrame(SwSprite[14].lx, (SwSprite[14].ly & 255) + page, SwSprite[14].frame);
    000002B5 7A               [ 4]  701 	ld	a, d
    000002B6 D6 02            [ 7]  702 	sub	a, #0x02
    000002B8 30 32            [12]  703 	jr	NC, 00351$
    000002BA 21 0F 02         [10]  704 	ld	hl, #0x020f
    000002BD 19               [11]  705 	add	hl, de
    000002BE 4D               [ 4]  706 	ld	c, l
    000002BF 44               [ 4]  707 	ld	b, h
    000002C0 2Ar04r00         [16]  708 	ld	hl, (#(_Field + 4) + 0)
    000002C3 79               [ 4]  709 	ld	a, c
    000002C4 95               [ 4]  710 	sub	a, l
    000002C5 4F               [ 4]  711 	ld	c, a
    000002C6 78               [ 4]  712 	ld	a, b
    000002C7 9C               [ 4]  713 	sbc	a, h
    000002C8 E6 01            [ 7]  714 	and	a, #0x01
    000002CA 47               [ 4]  715 	ld	b, a
    000002CB 79               [ 4]  716 	ld	a, c
    000002CC D6 CF            [ 7]  717 	sub	a, #0xcf
    000002CE 78               [ 4]  718 	ld	a, b
    000002CF DE 00            [ 7]  719 	sbc	a, #0x00
    000002D1 30 19            [12]  720 	jr	NC, 00351$
    000002D3 ED 4Br51r01      [20]  721 	ld	bc, (#(_SwSprite + 337) + 0)
    000002D7 16 00            [ 7]  722 	ld	d, #0x00
    000002D9 7B               [ 4]  723 	ld	a, e
    000002DA DD 86 F5         [19]  724 	add	a, -11 (ix)
    000002DD 5F               [ 4]  725 	ld	e, a
    000002DE 7A               [ 4]  726 	ld	a, d
    000002DF DD 8E F6         [19]  727 	adc	a, -10 (ix)
    000002E2 57               [ 4]  728 	ld	d, a
    000002E3 21r42r01         [10]  729 	ld	hl, #(_SwSprite + 322)
    000002E6 6E               [ 7]  730 	ld	l, (hl)
                                    731 ;	spillPairReg hl
    000002E7 C5               [11]  732 	push	bc
    000002E8 7D               [ 4]  733 	ld	a, l
    000002E9 CDr00r00         [17]  734 	call	_CallSpriteFrame
                                    735 ;E:\Dropbox\FAUSTO\SVILUPPI\MSX\CODE\C\MSXgl\projects\soccerlgMSX2/soccerlg_s12_b3.c:54: for (u8 i=15; i<NumSprite; i++) if (OnScreen(SwSprite[i].ly)) CallSpriteFrame(SwSprite[i].lx, (SwSprite[i].ly & 255) + page, SwSprite[i].frame);
    000002EC                        736 00351$:
    000002EC 0E 0F            [ 7]  737 	ld	c, #0x0f
    000002EE                        738 00265$:
    000002EE 79               [ 4]  739 	ld	a, c
    000002EF D6 19            [ 7]  740 	sub	a, #0x19
    000002F1 30 79            [12]  741 	jr	NC, 00269$
    000002F3 06 00            [ 7]  742 	ld	b, #0x00
    000002F5 69               [ 4]  743 	ld	l, c
    000002F6 60               [ 4]  744 	ld	h, b
    000002F7 29               [11]  745 	add	hl, hl
    000002F8 29               [11]  746 	add	hl, hl
    000002F9 09               [11]  747 	add	hl, bc
    000002FA 29               [11]  748 	add	hl, hl
    000002FB 09               [11]  749 	add	hl, bc
    000002FC 29               [11]  750 	add	hl, hl
    000002FD 09               [11]  751 	add	hl, bc
    000002FE 11r00r00         [10]  752 	ld	de, #_SwSprite
    00000301 19               [11]  753 	add	hl, de
    00000302 DD 75 F8         [19]  754 	ld	-8 (ix), l
    00000305 DD 74 F9         [19]  755 	ld	-7 (ix), h
    00000308 11 04 00         [10]  756 	ld	de, #4
    0000030B 19               [11]  757 	add	hl, de
    0000030C 46               [ 7]  758 	ld	b, (hl)
    0000030D 23               [ 6]  759 	inc	hl
    0000030E 7E               [ 7]  760 	ld	a, (hl)
    0000030F DD 70 FA         [19]  761 	ld	-6 (ix), b
    00000312 DD 77 FB         [19]  762 	ld	-5 (ix), a
    00000315 D6 02            [ 7]  763 	sub	a, #0x02
    00000317 30 4F            [12]  764 	jr	NC, 00266$
    00000319 DD 7E FA         [19]  765 	ld	a, -6 (ix)
    0000031C C6 0F            [ 7]  766 	add	a, #0x0f
    0000031E 5F               [ 4]  767 	ld	e, a
    0000031F DD 7E FB         [19]  768 	ld	a, -5 (ix)
    00000322 CE 02            [ 7]  769 	adc	a, #0x02
    00000324 47               [ 4]  770 	ld	b, a
    00000325 2Ar04r00         [16]  771 	ld	hl, (#(_Field + 4) + 0)
    00000328 7B               [ 4]  772 	ld	a, e
    00000329 95               [ 4]  773 	sub	a, l
    0000032A 5F               [ 4]  774 	ld	e, a
    0000032B 78               [ 4]  775 	ld	a, b
    0000032C 9C               [ 4]  776 	sbc	a, h
    0000032D E6 01            [ 7]  777 	and	a, #0x01
    0000032F 57               [ 4]  778 	ld	d, a
    00000330 7B               [ 4]  779 	ld	a, e
    00000331 D6 CF            [ 7]  780 	sub	a, #0xcf
    00000333 7A               [ 4]  781 	ld	a, d
    00000334 DE 00            [ 7]  782 	sbc	a, #0x00
    00000336 30 30            [12]  783 	jr	NC, 00266$
    00000338 DD 5E F8         [19]  784 	ld	e, -8 (ix)
    0000033B DD 56 F9         [19]  785 	ld	d, -7 (ix)
    0000033E 21 0F 00         [10]  786 	ld	hl, #15
    00000341 19               [11]  787 	add	hl, de
    00000342 5E               [ 7]  788 	ld	e, (hl)
    00000343 23               [ 6]  789 	inc	hl
    00000344 56               [ 7]  790 	ld	d, (hl)
    00000345 DD 6E FA         [19]  791 	ld	l, -6 (ix)
                                    792 ;	spillPairReg hl
                                    793 ;	spillPairReg hl
    00000348 26 00            [ 7]  794 	ld	h, #0x00
                                    795 ;	spillPairReg hl
                                    796 ;	spillPairReg hl
    0000034A E5               [11]  797 	push	hl
    0000034B FD E1            [14]  798 	pop	iy
    0000034D C5               [11]  799 	push	bc
    0000034E DD 4E F5         [19]  800 	ld	c, -11 (ix)
    00000351 DD 46 F6         [19]  801 	ld	b, -10 (ix)
    00000354 FD 09            [15]  802 	add	iy, bc
    00000356 C1               [10]  803 	pop	bc
    00000357 DD 6E F8         [19]  804 	ld	l, -8 (ix)
    0000035A DD 66 F9         [19]  805 	ld	h, -7 (ix)
    0000035D 46               [ 7]  806 	ld	b, (hl)
    0000035E C5               [11]  807 	push	bc
    0000035F D5               [11]  808 	push	de
    00000360 FD E5            [15]  809 	push	iy
    00000362 D1               [10]  810 	pop	de
    00000363 78               [ 4]  811 	ld	a, b
    00000364 CDr00r00         [17]  812 	call	_CallSpriteFrame
    00000367 C1               [10]  813 	pop	bc
    00000368                        814 00266$:
    00000368 0C               [ 4]  815 	inc	c
    00000369 C3rEEr02         [10]  816 	jp	00265$
    0000036C                        817 00269$:
                                    818 ;E:\Dropbox\FAUSTO\SVILUPPI\MSX\CODE\C\MSXgl\projects\soccerlgMSX2/soccerlg_s12_b3.c:49: for (u16 page = 0; page <= 512; page += 256) {
    0000036C DD 4E F5         [19]  819 	ld	c, -11 (ix)
    0000036F DD 7E F6         [19]  820 	ld	a, -10 (ix)
    00000372 3C               [ 4]  821 	inc	a
    00000373 DD 71 F5         [19]  822 	ld	-11 (ix), c
    00000376 DD 77 F6         [19]  823 	ld	-10 (ix), a
    00000379 C3rC7r01         [10]  824 	jp	00268$
                                    825 ;E:\Dropbox\FAUSTO\SVILUPPI\MSX\CODE\C\MSXgl\projects\soccerlgMSX2/soccerlg_s12_b3.c:58: for (u8 i = 0; i < NumSprite; i++) {
    0000037C                        826 00354$:
    0000037C DD 36 FB 00      [19]  827 	ld	-5 (ix), #0x00
    00000380                        828 00271$:
    00000380 DD 7E FB         [19]  829 	ld	a, -5 (ix)
    00000383 D6 19            [ 7]  830 	sub	a, #0x19
    00000385 D2r6Er04         [10]  831 	jp	NC, 00119$
                                    832 ;E:\Dropbox\FAUSTO\SVILUPPI\MSX\CODE\C\MSXgl\projects\soccerlgMSX2/soccerlg_s12_b3.c:59: SwSprite[i].x0 = SwSprite[i].x1 = SwSprite[i].x2 = SwSprite[i].lx;
    00000388 DD 4E FB         [19]  833 	ld	c, -5 (ix)
    0000038B 06 00            [ 7]  834 	ld	b, #0x00
    0000038D 69               [ 4]  835 	ld	l, c
    0000038E 60               [ 4]  836 	ld	h, b
    0000038F 29               [11]  837 	add	hl, hl
    00000390 29               [11]  838 	add	hl, hl
    00000391 09               [11]  839 	add	hl, bc
    00000392 29               [11]  840 	add	hl, hl
    00000393 09               [11]  841 	add	hl, bc
    00000394 29               [11]  842 	add	hl, hl
    00000395 09               [11]  843 	add	hl, bc
    00000396 DD 75 F7         [19]  844 	ld	-9 (ix), l
    00000399 DD 74 F8         [19]  845 	ld	-8 (ix), h
    0000039C DD 7E F7         [19]  846 	ld	a, -9 (ix)
    0000039F C6r00            [ 7]  847 	add	a, #<(_SwSprite)
    000003A1 DD 77 F9         [19]  848 	ld	-7 (ix), a
    000003A4 DD 7E F8         [19]  849 	ld	a, -8 (ix)
    000003A7 CEs00            [ 7]  850 	adc	a, #>(_SwSprite)
    000003A9 DD 77 FA         [19]  851 	ld	-6 (ix), a
    000003AC DD 7E F9         [19]  852 	ld	a, -7 (ix)
    000003AF C6 01            [ 7]  853 	add	a, #0x01
    000003B1 DD 77 F3         [19]  854 	ld	-13 (ix), a
    000003B4 DD 7E FA         [19]  855 	ld	a, -6 (ix)
    000003B7 CE 00            [ 7]  856 	adc	a, #0x00
    000003B9 DD 77 F4         [19]  857 	ld	-12 (ix), a
    000003BC DD 7E F9         [19]  858 	ld	a, -7 (ix)
    000003BF C6 02            [ 7]  859 	add	a, #0x02
    000003C1 DD 77 F5         [19]  860 	ld	-11 (ix), a
    000003C4 DD 7E FA         [19]  861 	ld	a, -6 (ix)
    000003C7 CE 00            [ 7]  862 	adc	a, #0x00
    000003C9 DD 77 F6         [19]  863 	ld	-10 (ix), a
    000003CC DD 7E F9         [19]  864 	ld	a, -7 (ix)
    000003CF C6 03            [ 7]  865 	add	a, #0x03
    000003D1 DD 77 F7         [19]  866 	ld	-9 (ix), a
    000003D4 DD 7E FA         [19]  867 	ld	a, -6 (ix)
    000003D7 CE 00            [ 7]  868 	adc	a, #0x00
    000003D9 DD 77 F8         [19]  869 	ld	-8 (ix), a
    000003DC DD 6E F9         [19]  870 	ld	l, -7 (ix)
    000003DF DD 66 FA         [19]  871 	ld	h, -6 (ix)
    000003E2 7E               [ 7]  872 	ld	a, (hl)
    000003E3 DD 6E F7         [19]  873 	ld	l, -9 (ix)
    000003E6 DD 66 F8         [19]  874 	ld	h, -8 (ix)
    000003E9 77               [ 7]  875 	ld	(hl), a
    000003EA DD 6E F5         [19]  876 	ld	l, -11 (ix)
    000003ED DD 66 F6         [19]  877 	ld	h, -10 (ix)
    000003F0 77               [ 7]  878 	ld	(hl), a
    000003F1 DD 6E F3         [19]  879 	ld	l, -13 (ix)
    000003F4 DD 66 F4         [19]  880 	ld	h, -12 (ix)
    000003F7 77               [ 7]  881 	ld	(hl), a
                                    882 ;E:\Dropbox\FAUSTO\SVILUPPI\MSX\CODE\C\MSXgl\projects\soccerlgMSX2/soccerlg_s12_b3.c:60: SwSprite[i].y0 = SwSprite[i].y1 = SwSprite[i].y2 = SwSprite[i].ly;
    000003F8 DD 7E F9         [19]  883 	ld	a, -7 (ix)
    000003FB C6 06            [ 7]  884 	add	a, #0x06
    000003FD DD 77 F3         [19]  885 	ld	-13 (ix), a
    00000400 DD 7E FA         [19]  886 	ld	a, -6 (ix)
    00000403 CE 00            [ 7]  887 	adc	a, #0x00
    00000405 DD 77 F4         [19]  888 	ld	-12 (ix), a
    00000408 DD 7E F9         [19]  889 	ld	a, -7 (ix)
    0000040B C6 08            [ 7]  890 	add	a, #0x08
    0000040D DD 77 F5         [19]  891 	ld	-11 (ix), a
    00000410 DD 7E FA         [19]  892 	ld	a, -6 (ix)
    00000413 CE 00            [ 7]  893 	adc	a, #0x00
    00000415 DD 77 F6         [19]  894 	ld	-10 (ix), a
    00000418 DD 7E F9         [19]  895 	ld	a, -7 (ix)
    0000041B C6 0A            [ 7]  896 	add	a, #0x0a
    0000041D DD 77 F7         [19]  897 	ld	-9 (ix), a
    00000420 DD 7E FA         [19]  898 	ld	a, -6 (ix)
    00000423 CE 00            [ 7]  899 	adc	a, #0x00
    00000425 DD 77 F8         [19]  900 	ld	-8 (ix), a
    00000428 DD 6E F9         [19]  901 	ld	l, -7 (ix)
    0000042B DD 66 FA         [19]  902 	ld	h, -6 (ix)
    0000042E 11 04 00         [10]  903 	ld	de, #0x0004
    00000431 19               [11]  904 	add	hl, de
    00000432 7E               [ 7]  905 	ld	a, (hl)
    00000433 DD 77 F9         [19]  906 	ld	-7 (ix), a
    00000436 23               [ 6]  907 	inc	hl
    00000437 7E               [ 7]  908 	ld	a, (hl)
    00000438 DD 77 FA         [19]  909 	ld	-6 (ix), a
    0000043B DD 6E F7         [19]  910 	ld	l, -9 (ix)
    0000043E DD 66 F8         [19]  911 	ld	h, -8 (ix)
    00000441 DD 7E F9         [19]  912 	ld	a, -7 (ix)
    00000444 77               [ 7]  913 	ld	(hl), a
    00000445 23               [ 6]  914 	inc	hl
    00000446 DD 7E FA         [19]  915 	ld	a, -6 (ix)
    00000449 77               [ 7]  916 	ld	(hl), a
    0000044A DD 6E F5         [19]  917 	ld	l, -11 (ix)
    0000044D DD 66 F6         [19]  918 	ld	h, -10 (ix)
    00000450 DD 7E F9         [19]  919 	ld	a, -7 (ix)
    00000453 77               [ 7]  920 	ld	(hl), a
    00000454 23               [ 6]  921 	inc	hl
    00000455 DD 7E FA         [19]  922 	ld	a, -6 (ix)
    00000458 77               [ 7]  923 	ld	(hl), a
    00000459 DD 6E F3         [19]  924 	ld	l, -13 (ix)
    0000045C DD 66 F4         [19]  925 	ld	h, -12 (ix)
    0000045F DD 7E F9         [19]  926 	ld	a, -7 (ix)
    00000462 77               [ 7]  927 	ld	(hl), a
    00000463 23               [ 6]  928 	inc	hl
    00000464 DD 7E FA         [19]  929 	ld	a, -6 (ix)
    00000467 77               [ 7]  930 	ld	(hl), a
                                    931 ;E:\Dropbox\FAUSTO\SVILUPPI\MSX\CODE\C\MSXgl\projects\soccerlgMSX2/soccerlg_s12_b3.c:58: for (u8 i = 0; i < NumSprite; i++) {
    00000468 DD 34 FB         [23]  932 	inc	-5 (ix)
    0000046B C3r80r03         [10]  933 	jp	00271$
    0000046E                        934 00119$:
                                    935 ;E:\Dropbox\FAUSTO\SVILUPPI\MSX\CODE\C\MSXgl\projects\soccerlgMSX2/soccerlg_s12_b3.c:64: CallFnc_VOID_U8U16U16(SEG_DRAW, PrintScoreBoardLeft, ScoreBoardLeft.lx, Field.ly, 0);
    0000046E 21r04r00         [10]  936 	ld	hl, #(_Field + 4)
    00000471 7E               [ 7]  937 	ld	a, (hl)
    00000472 DD 77 F9         [19]  938 	ld	-7 (ix), a
    00000475 23               [ 6]  939 	inc	hl
    00000476 7E               [ 7]  940 	ld	a, (hl)
    00000477 DD 77 FA         [19]  941 	ld	-6 (ix), a
    0000047A 3Ar00r00         [13]  942 	ld	a, (#_ScoreBoardLeft + 0)
    0000047D DD 77 FB         [19]  943 	ld	-5 (ix), a
    00000480 21 00 00         [10]  944 	ld	hl, #0x0000
    00000483 E5               [11]  945 	push	hl
    00000484 DD 6E F9         [19]  946 	ld	l, -7 (ix)
                                    947 ;	spillPairReg hl
                                    948 ;	spillPairReg hl
    00000487 DD 66 FA         [19]  949 	ld	h, -6 (ix)
                                    950 ;	spillPairReg hl
                                    951 ;	spillPairReg hl
    0000048A E5               [11]  952 	push	hl
    0000048B DD 7E FB         [19]  953 	ld	a, -5 (ix)
    0000048E F5               [11]  954 	push	af
    0000048F 33               [ 6]  955 	inc	sp
    00000490 11r00r00         [10]  956 	ld	de, #_PrintScoreBoardLeft
    00000493 3E 05            [ 7]  957 	ld	a, #0x05
    00000495 CDr00r00         [17]  958 	call	_CallFnc_VOID_U8U16U16
                                    959 ;E:\Dropbox\FAUSTO\SVILUPPI\MSX\CODE\C\MSXgl\projects\soccerlgMSX2/soccerlg_s12_b3.c:65: CallFnc_VOID_U8U16U16(SEG_DRAW, PrintScoreBoardRight, ScoreBoardRight.lx, Field.ly, 0);
    00000498 21r04r00         [10]  960 	ld	hl, #(_Field + 4)
    0000049B 7E               [ 7]  961 	ld	a, (hl)
    0000049C DD 77 F9         [19]  962 	ld	-7 (ix), a
    0000049F 23               [ 6]  963 	inc	hl
    000004A0 7E               [ 7]  964 	ld	a, (hl)
    000004A1 DD 77 FA         [19]  965 	ld	-6 (ix), a
    000004A4 3Ar00r00         [13]  966 	ld	a, (#_ScoreBoardRight + 0)
    000004A7 DD 77 FB         [19]  967 	ld	-5 (ix), a
    000004AA 21 00 00         [10]  968 	ld	hl, #0x0000
    000004AD E5               [11]  969 	push	hl
    000004AE DD 6E F9         [19]  970 	ld	l, -7 (ix)
                                    971 ;	spillPairReg hl
                                    972 ;	spillPairReg hl
    000004B1 DD 66 FA         [19]  973 	ld	h, -6 (ix)
                                    974 ;	spillPairReg hl
                                    975 ;	spillPairReg hl
    000004B4 E5               [11]  976 	push	hl
    000004B5 DD 7E FB         [19]  977 	ld	a, -5 (ix)
    000004B8 F5               [11]  978 	push	af
    000004B9 33               [ 6]  979 	inc	sp
    000004BA 11r00r00         [10]  980 	ld	de, #_PrintScoreBoardRight
    000004BD 3E 05            [ 7]  981 	ld	a, #0x05
    000004BF CDr00r00         [17]  982 	call	_CallFnc_VOID_U8U16U16
                                    983 ;E:\Dropbox\FAUSTO\SVILUPPI\MSX\CODE\C\MSXgl\projects\soccerlgMSX2/soccerlg_s12_b3.c:66: CallFnc_VOID_U8U16U16(SEG_DRAW, PrintScoreBoardLeft, ScoreBoardLeft.lx, Field.ly, 256);
    000004C2 21r04r00         [10]  984 	ld	hl, #(_Field + 4)
    000004C5 7E               [ 7]  985 	ld	a, (hl)
    000004C6 DD 77 F9         [19]  986 	ld	-7 (ix), a
    000004C9 23               [ 6]  987 	inc	hl
    000004CA 7E               [ 7]  988 	ld	a, (hl)
    000004CB DD 77 FA         [19]  989 	ld	-6 (ix), a
    000004CE 3Ar00r00         [13]  990 	ld	a, (#_ScoreBoardLeft + 0)
    000004D1 DD 77 FB         [19]  991 	ld	-5 (ix), a
    000004D4 21 00 01         [10]  992 	ld	hl, #0x0100
    000004D7 E5               [11]  993 	push	hl
    000004D8 DD 6E F9         [19]  994 	ld	l, -7 (ix)
                                    995 ;	spillPairReg hl
                                    996 ;	spillPairReg hl
    000004DB DD 66 FA         [19]  997 	ld	h, -6 (ix)
                                    998 ;	spillPairReg hl
                                    999 ;	spillPairReg hl
    000004DE E5               [11] 1000 	push	hl
    000004DF DD 7E FB         [19] 1001 	ld	a, -5 (ix)
    000004E2 F5               [11] 1002 	push	af
    000004E3 33               [ 6] 1003 	inc	sp
    000004E4 11r00r00         [10] 1004 	ld	de, #_PrintScoreBoardLeft
    000004E7 3E 05            [ 7] 1005 	ld	a, #0x05
    000004E9 CDr00r00         [17] 1006 	call	_CallFnc_VOID_U8U16U16
                                   1007 ;E:\Dropbox\FAUSTO\SVILUPPI\MSX\CODE\C\MSXgl\projects\soccerlgMSX2/soccerlg_s12_b3.c:67: CallFnc_VOID_U8U16U16(SEG_DRAW, PrintScoreBoardRight, ScoreBoardRight.lx, Field.ly, 256);
    000004EC 21r04r00         [10] 1008 	ld	hl, #(_Field + 4)
    000004EF 7E               [ 7] 1009 	ld	a, (hl)
    000004F0 DD 77 F9         [19] 1010 	ld	-7 (ix), a
    000004F3 23               [ 6] 1011 	inc	hl
    000004F4 7E               [ 7] 1012 	ld	a, (hl)
    000004F5 DD 77 FA         [19] 1013 	ld	-6 (ix), a
    000004F8 3Ar00r00         [13] 1014 	ld	a, (#_ScoreBoardRight + 0)
    000004FB DD 77 FB         [19] 1015 	ld	-5 (ix), a
    000004FE 21 00 01         [10] 1016 	ld	hl, #0x0100
    00000501 E5               [11] 1017 	push	hl
    00000502 DD 6E F9         [19] 1018 	ld	l, -7 (ix)
                                   1019 ;	spillPairReg hl
                                   1020 ;	spillPairReg hl
    00000505 DD 66 FA         [19] 1021 	ld	h, -6 (ix)
                                   1022 ;	spillPairReg hl
                                   1023 ;	spillPairReg hl
    00000508 E5               [11] 1024 	push	hl
    00000509 DD 7E FB         [19] 1025 	ld	a, -5 (ix)
    0000050C F5               [11] 1026 	push	af
    0000050D 33               [ 6] 1027 	inc	sp
    0000050E 11r00r00         [10] 1028 	ld	de, #_PrintScoreBoardRight
    00000511 3E 05            [ 7] 1029 	ld	a, #0x05
    00000513 CDr00r00         [17] 1030 	call	_CallFnc_VOID_U8U16U16
                                   1031 ;E:\Dropbox\FAUSTO\SVILUPPI\MSX\CODE\C\MSXgl\projects\soccerlgMSX2/soccerlg_s12_b3.c:68: CallFnc_VOID_U8U16U16(SEG_DRAW, PrintScoreBoardLeft, ScoreBoardLeft.lx, Field.ly, 512);
    00000516 21r04r00         [10] 1032 	ld	hl, #(_Field + 4)
    00000519 7E               [ 7] 1033 	ld	a, (hl)
    0000051A DD 77 F9         [19] 1034 	ld	-7 (ix), a
    0000051D 23               [ 6] 1035 	inc	hl
    0000051E 7E               [ 7] 1036 	ld	a, (hl)
    0000051F DD 77 FA         [19] 1037 	ld	-6 (ix), a
    00000522 3Ar00r00         [13] 1038 	ld	a, (#_ScoreBoardLeft + 0)
    00000525 DD 77 FB         [19] 1039 	ld	-5 (ix), a
    00000528 21 00 02         [10] 1040 	ld	hl, #0x0200
    0000052B E5               [11] 1041 	push	hl
    0000052C DD 6E F9         [19] 1042 	ld	l, -7 (ix)
                                   1043 ;	spillPairReg hl
                                   1044 ;	spillPairReg hl
    0000052F DD 66 FA         [19] 1045 	ld	h, -6 (ix)
                                   1046 ;	spillPairReg hl
                                   1047 ;	spillPairReg hl
    00000532 E5               [11] 1048 	push	hl
    00000533 DD 7E FB         [19] 1049 	ld	a, -5 (ix)
    00000536 F5               [11] 1050 	push	af
    00000537 33               [ 6] 1051 	inc	sp
    00000538 11r00r00         [10] 1052 	ld	de, #_PrintScoreBoardLeft
    0000053B 3E 05            [ 7] 1053 	ld	a, #0x05
    0000053D CDr00r00         [17] 1054 	call	_CallFnc_VOID_U8U16U16
                                   1055 ;E:\Dropbox\FAUSTO\SVILUPPI\MSX\CODE\C\MSXgl\projects\soccerlgMSX2/soccerlg_s12_b3.c:69: CallFnc_VOID_U8U16U16(SEG_DRAW, PrintScoreBoardRight, ScoreBoardRight.lx, Field.ly, 512);
    00000540 21r04r00         [10] 1056 	ld	hl, #(_Field + 4)
    00000543 7E               [ 7] 1057 	ld	a, (hl)
    00000544 DD 77 F9         [19] 1058 	ld	-7 (ix), a
    00000547 23               [ 6] 1059 	inc	hl
    00000548 7E               [ 7] 1060 	ld	a, (hl)
    00000549 DD 77 FA         [19] 1061 	ld	-6 (ix), a
    0000054C 3Ar00r00         [13] 1062 	ld	a, (#_ScoreBoardRight + 0)
    0000054F DD 77 FB         [19] 1063 	ld	-5 (ix), a
    00000552 21 00 02         [10] 1064 	ld	hl, #0x0200
    00000555 E5               [11] 1065 	push	hl
    00000556 DD 6E F9         [19] 1066 	ld	l, -7 (ix)
                                   1067 ;	spillPairReg hl
                                   1068 ;	spillPairReg hl
    00000559 DD 66 FA         [19] 1069 	ld	h, -6 (ix)
                                   1070 ;	spillPairReg hl
                                   1071 ;	spillPairReg hl
    0000055C E5               [11] 1072 	push	hl
    0000055D DD 7E FB         [19] 1073 	ld	a, -5 (ix)
    00000560 F5               [11] 1074 	push	af
    00000561 33               [ 6] 1075 	inc	sp
    00000562 11r00r00         [10] 1076 	ld	de, #_PrintScoreBoardRight
    00000565 3E 05            [ 7] 1077 	ld	a, #0x05
    00000567 CDr00r00         [17] 1078 	call	_CallFnc_VOID_U8U16U16
                                   1079 ;E:\Dropbox\FAUSTO\SVILUPPI\MSX\CODE\C\MSXgl\projects\soccerlgMSX2/soccerlg_s12_b3.c:71: *game_state = 2;
    0000056A DD 6E FE         [19] 1080 	ld	l, -2 (ix)
    0000056D DD 66 FF         [19] 1081 	ld	h, -1 (ix)
    00000570 36 02            [10] 1082 	ld	(hl), #0x02
    00000572                       1083 00123$:
                                   1084 ;E:\Dropbox\FAUSTO\SVILUPPI\MSX\CODE\C\MSXgl\projects\soccerlgMSX2/soccerlg_s12_b3.c:74: *start_sec = Frms;
    00000572 DD 6E F1         [19] 1085 	ld	l, -15 (ix)
    00000575 DD 66 F2         [19] 1086 	ld	h, -14 (ix)
    00000578 3Ar00r00         [13] 1087 	ld	a, (_Frms+0)
    0000057B 77               [ 7] 1088 	ld	(hl), a
    0000057C C3rE8r10         [10] 1089 	jp	00273$
    0000057F                       1090 00255$:
                                   1091 ;E:\Dropbox\FAUSTO\SVILUPPI\MSX\CODE\C\MSXgl\projects\soccerlgMSX2/soccerlg_s12_b3.c:76: } else if (*game_state == 5) {
    0000057F DD 7E FB         [19] 1092 	ld	a, -5 (ix)
    00000582 D6 05            [ 7] 1093 	sub	a, #0x05
    00000584 20 40            [12] 1094 	jr	NZ, 00252$
                                   1095 ;E:\Dropbox\FAUSTO\SVILUPPI\MSX\CODE\C\MSXgl\projects\soccerlgMSX2/soccerlg_s12_b3.c:78: if (*wait_secs > 0) {
    00000586 DD 6E FC         [19] 1096 	ld	l, -4 (ix)
    00000589 DD 66 FD         [19] 1097 	ld	h, -3 (ix)
    0000058C 5E               [ 7] 1098 	ld	e, (hl)
    0000058D 7B               [ 4] 1099 	ld	a, e
    0000058E B7               [ 4] 1100 	or	a, a
    0000058F CArE8r10         [10] 1101 	jp	Z, 00273$
                                   1102 ;E:\Dropbox\FAUSTO\SVILUPPI\MSX\CODE\C\MSXgl\projects\soccerlgMSX2/soccerlg_s12_b3.c:79: if (*start_sec < Frms) { // Frms wrapped from 1 to 60
    00000592 DD 4E 04         [19] 1103 	ld	c, 4 (ix)
    00000595 DD 46 05         [19] 1104 	ld	b, 5 (ix)
    00000598 0A               [ 7] 1105 	ld	a, (bc)
    00000599 57               [ 4] 1106 	ld	d, a
    0000059A 21r00r00         [10] 1107 	ld	hl, #_Frms
    0000059D 7A               [ 4] 1108 	ld	a, d
    0000059E 96               [ 7] 1109 	sub	a, (hl)
    0000059F 30 1E            [12] 1110 	jr	NC, 00129$
                                   1111 ;E:\Dropbox\FAUSTO\SVILUPPI\MSX\CODE\C\MSXgl\projects\soccerlgMSX2/soccerlg_s12_b3.c:80: (*wait_secs)--;
    000005A1 7B               [ 4] 1112 	ld	a, e
    000005A2 3D               [ 4] 1113 	dec	a
    000005A3 DD 6E FC         [19] 1114 	ld	l, -4 (ix)
    000005A6 DD 66 FD         [19] 1115 	ld	h, -3 (ix)
    000005A9 77               [ 7] 1116 	ld	(hl), a
                                   1117 ;E:\Dropbox\FAUSTO\SVILUPPI\MSX\CODE\C\MSXgl\projects\soccerlgMSX2/soccerlg_s12_b3.c:81: if (*wait_secs == 0) {
    000005AA B7               [ 4] 1118 	or	a, a
    000005AB 20 12            [12] 1119 	jr	NZ, 00129$
                                   1120 ;E:\Dropbox\FAUSTO\SVILUPPI\MSX\CODE\C\MSXgl\projects\soccerlgMSX2/soccerlg_s12_b3.c:82: CallFnc_VOID(SEG_DRAW, HideSpriteMessage);
    000005AD C5               [11] 1121 	push	bc
    000005AE 11r00r00         [10] 1122 	ld	de, #_HideSpriteMessage
    000005B1 3E 05            [ 7] 1123 	ld	a, #0x05
    000005B3 CDr00r00         [17] 1124 	call	_CallFnc_VOID
    000005B6 11r00r00         [10] 1125 	ld	de, #_EventTimeUp
    000005B9 3E 08            [ 7] 1126 	ld	a, #0x08
    000005BB CDr00r00         [17] 1127 	call	_CallFnc_VOID
    000005BE C1               [10] 1128 	pop	bc
    000005BF                       1129 00129$:
                                   1130 ;E:\Dropbox\FAUSTO\SVILUPPI\MSX\CODE\C\MSXgl\projects\soccerlgMSX2/soccerlg_s12_b3.c:86: *start_sec = Frms;
    000005BF 3Ar00r00         [13] 1131 	ld	a, (_Frms+0)
    000005C2 02               [ 7] 1132 	ld	(bc), a
    000005C3 C3rE8r10         [10] 1133 	jp	00273$
    000005C6                       1134 00252$:
                                   1135 ;E:\Dropbox\FAUSTO\SVILUPPI\MSX\CODE\C\MSXgl\projects\soccerlgMSX2/soccerlg_s12_b3.c:88: } else if (*game_state == 6) {
    000005C6 DD 7E FB         [19] 1136 	ld	a, -5 (ix)
    000005C9 D6 06            [ 7] 1137 	sub	a, #0x06
    000005CB C2r9Ar07         [10] 1138 	jp	NZ,00249$
                                   1139 ;E:\Dropbox\FAUSTO\SVILUPPI\MSX\CODE\C\MSXgl\projects\soccerlgMSX2/soccerlg_s12_b3.c:90: if (*wait_secs > 0) {
    000005CE DD 6E FC         [19] 1140 	ld	l, -4 (ix)
    000005D1 DD 66 FD         [19] 1141 	ld	h, -3 (ix)
    000005D4 5E               [ 7] 1142 	ld	e, (hl)
    000005D5 7B               [ 4] 1143 	ld	a, e
    000005D6 B7               [ 4] 1144 	or	a, a
    000005D7 CArE8r10         [10] 1145 	jp	Z, 00273$
                                   1146 ;E:\Dropbox\FAUSTO\SVILUPPI\MSX\CODE\C\MSXgl\projects\soccerlgMSX2/soccerlg_s12_b3.c:91: if (*start_sec < Frms) { // Frms wrapped from 1 to 60
    000005DA DD 4E 04         [19] 1147 	ld	c, 4 (ix)
    000005DD DD 46 05         [19] 1148 	ld	b, 5 (ix)
    000005E0 0A               [ 7] 1149 	ld	a, (bc)
    000005E1 57               [ 4] 1150 	ld	d, a
    000005E2 21r00r00         [10] 1151 	ld	hl, #_Frms
    000005E5 7A               [ 4] 1152 	ld	a, d
    000005E6 96               [ 7] 1153 	sub	a, (hl)
    000005E7 D2r93r07         [10] 1154 	jp	NC, 00153$
                                   1155 ;E:\Dropbox\FAUSTO\SVILUPPI\MSX\CODE\C\MSXgl\projects\soccerlgMSX2/soccerlg_s12_b3.c:92: (*wait_secs)--;
    000005EA 7B               [ 4] 1156 	ld	a, e
    000005EB 3D               [ 4] 1157 	dec	a
    000005EC DD 6E FC         [19] 1158 	ld	l, -4 (ix)
    000005EF DD 66 FD         [19] 1159 	ld	h, -3 (ix)
    000005F2 77               [ 7] 1160 	ld	(hl), a
                                   1161 ;E:\Dropbox\FAUSTO\SVILUPPI\MSX\CODE\C\MSXgl\projects\soccerlgMSX2/soccerlg_s12_b3.c:93: if (*wait_secs == 0) {
    000005F3 B7               [ 4] 1162 	or	a, a
    000005F4 C2r93r07         [10] 1163 	jp	NZ, 00153$
                                   1164 ;E:\Dropbox\FAUSTO\SVILUPPI\MSX\CODE\C\MSXgl\projects\soccerlgMSX2/soccerlg_s12_b3.c:94: CallFnc_VOID(SEG_DRAW, HideSpriteMessage);
    000005F7 C5               [11] 1165 	push	bc
    000005F8 11r00r00         [10] 1166 	ld	de, #_HideSpriteMessage
    000005FB 3E 05            [ 7] 1167 	ld	a, #0x05
    000005FD CDr00r00         [17] 1168 	call	_CallFnc_VOID
    00000600 C1               [10] 1169 	pop	bc
                                   1170 ;E:\Dropbox\FAUSTO\SVILUPPI\MSX\CODE\C\MSXgl\projects\soccerlgMSX2/soccerlg_s12_b3.c:96: if (RestartType == RESTART_THROWIN) {
    00000601 3Ar00r00         [13] 1171 	ld	a, (_RestartType+0)
    00000604 3D               [ 4] 1172 	dec	a
    00000605 20 0D            [12] 1173 	jr	NZ, 00139$
                                   1174 ;E:\Dropbox\FAUSTO\SVILUPPI\MSX\CODE\C\MSXgl\projects\soccerlgMSX2/soccerlg_s12_b3.c:97: CallFnc_VOID(SEG_GAMESTATE_2, AssignThrowInTargets);
    00000607 C5               [11] 1175 	push	bc
    00000608 11r00r00         [10] 1176 	ld	de, #_AssignThrowInTargets
    0000060B 3E 0B            [ 7] 1177 	ld	a, #0x0b
    0000060D CDr00r00         [17] 1178 	call	_CallFnc_VOID
    00000610 C1               [10] 1179 	pop	bc
    00000611 C3r6Dr06         [10] 1180 	jp	00140$
    00000614                       1181 00139$:
                                   1182 ;E:\Dropbox\FAUSTO\SVILUPPI\MSX\CODE\C\MSXgl\projects\soccerlgMSX2/soccerlg_s12_b3.c:98: } else if (RestartType == RESTART_GOALKICK) {
    00000614 3Ar00r00         [13] 1183 	ld	a, (_RestartType+0)
    00000617 D6 02            [ 7] 1184 	sub	a, #0x02
    00000619 20 0D            [12] 1185 	jr	NZ, 00136$
                                   1186 ;E:\Dropbox\FAUSTO\SVILUPPI\MSX\CODE\C\MSXgl\projects\soccerlgMSX2/soccerlg_s12_b3.c:99: CallFnc_VOID(SEG_GAMESTATE_2, AssignGoalKickTargets);
    0000061B C5               [11] 1187 	push	bc
    0000061C 11r00r00         [10] 1188 	ld	de, #_AssignGoalKickTargets
    0000061F 3E 0B            [ 7] 1189 	ld	a, #0x0b
    00000621 CDr00r00         [17] 1190 	call	_CallFnc_VOID
    00000624 C1               [10] 1191 	pop	bc
    00000625 C3r6Dr06         [10] 1192 	jp	00140$
    00000628                       1193 00136$:
                                   1194 ;E:\Dropbox\FAUSTO\SVILUPPI\MSX\CODE\C\MSXgl\projects\soccerlgMSX2/soccerlg_s12_b3.c:100: } else if (RestartType == RESTART_CORNERKICK) {
    00000628 3Ar00r00         [13] 1195 	ld	a, (_RestartType+0)
    0000062B D6 03            [ 7] 1196 	sub	a, #0x03
    0000062D 20 0D            [12] 1197 	jr	NZ, 00133$
                                   1198 ;E:\Dropbox\FAUSTO\SVILUPPI\MSX\CODE\C\MSXgl\projects\soccerlgMSX2/soccerlg_s12_b3.c:101: CallFnc_VOID(SEG_GAMESTATE_2, AssignCornerKickTargets);
    0000062F C5               [11] 1199 	push	bc
    00000630 11r00r00         [10] 1200 	ld	de, #_AssignCornerKickTargets
    00000633 3E 0B            [ 7] 1201 	ld	a, #0x0b
    00000635 CDr00r00         [17] 1202 	call	_CallFnc_VOID
    00000638 C1               [10] 1203 	pop	bc
    00000639 C3r6Dr06         [10] 1204 	jp	00140$
    0000063C                       1205 00133$:
                                   1206 ;E:\Dropbox\FAUSTO\SVILUPPI\MSX\CODE\C\MSXgl\projects\soccerlgMSX2/soccerlg_s12_b3.c:104: SwSprite[14].lx = BALL_START_X;
    0000063C 21r42r01         [10] 1207 	ld	hl, #(_SwSprite + 322)
    0000063F 36 78            [10] 1208 	ld	(hl), #0x78
                                   1209 ;E:\Dropbox\FAUSTO\SVILUPPI\MSX\CODE\C\MSXgl\projects\soccerlgMSX2/soccerlg_s12_b3.c:105: SwSprite[14].ly = BALL_START_Y;
    00000641 21 00 01         [10] 1210 	ld	hl, #0x0100
    00000644 22r46r01         [16] 1211 	ld	((_SwSprite + 326)), hl
                                   1212 ;E:\Dropbox\FAUSTO\SVILUPPI\MSX\CODE\C\MSXgl\projects\soccerlgMSX2/soccerlg_s12_b3.c:106: SwSprite[14].dx = 0; SwSprite[14].dy = 0; SwSprite[14].anim = 0;
    00000647 21r53r01         [10] 1213 	ld	hl, #(_SwSprite + 339)
    0000064A 36 00            [10] 1214 	ld	(hl), #0x00
    0000064C 21r54r01         [10] 1215 	ld	hl, #(_SwSprite + 340)
    0000064F 36 00            [10] 1216 	ld	(hl), #0x00
    00000651 21 00 00         [10] 1217 	ld	hl, #0x0000
    00000654 22r55r01         [16] 1218 	ld	((_SwSprite + 341)), hl
                                   1219 ;E:\Dropbox\FAUSTO\SVILUPPI\MSX\CODE\C\MSXgl\projects\soccerlgMSX2/soccerlg_s12_b3.c:108: Field.ly = target_ly; // Teletrasporta telecamera al centro
    00000657 21r04r00         [10] 1220 	ld	hl, #(_Field + 4)
    0000065A DD 7E 06         [19] 1221 	ld	a, 6 (ix)
    0000065D 77               [ 7] 1222 	ld	(hl), a
    0000065E 23               [ 6] 1223 	inc	hl
    0000065F DD 7E 07         [19] 1224 	ld	a, 7 (ix)
    00000662 77               [ 7] 1225 	ld	(hl), a
                                   1226 ;E:\Dropbox\FAUSTO\SVILUPPI\MSX\CODE\C\MSXgl\projects\soccerlgMSX2/soccerlg_s12_b3.c:109: CallFnc_VOID(SEG_GAMESTATE_2, AssignKickOffTargets);
    00000663 C5               [11] 1227 	push	bc
    00000664 11r00r00         [10] 1228 	ld	de, #_AssignKickOffTargets
    00000667 3E 0B            [ 7] 1229 	ld	a, #0x0b
    00000669 CDr00r00         [17] 1230 	call	_CallFnc_VOID
    0000066C C1               [10] 1231 	pop	bc
    0000066D                       1232 00140$:
                                   1233 ;E:\Dropbox\FAUSTO\SVILUPPI\MSX\CODE\C\MSXgl\projects\soccerlgMSX2/soccerlg_s12_b3.c:113: if (RestartType == RESTART_THROWIN || RestartType == RESTART_GOALKICK) {
    0000066D 3Ar00r00         [13] 1234 	ld	a, (_RestartType+0)
    00000670 3D               [ 4] 1235 	dec	a
    00000671 28 07            [12] 1236 	jr	Z, 00147$
    00000673 3Ar00r00         [13] 1237 	ld	a, (_RestartType+0)
    00000676 D6 02            [ 7] 1238 	sub	a, #0x02
    00000678 20 46            [12] 1239 	jr	NZ, 00148$
    0000067A                       1240 00147$:
                                   1241 ;E:\Dropbox\FAUSTO\SVILUPPI\MSX\CODE\C\MSXgl\projects\soccerlgMSX2/soccerlg_s12_b3.c:114: if (SwSprite[14].ly < 96) Field.ly = 0;
    0000067A ED 5Br46r01      [20] 1242 	ld	de, (#(_SwSprite + 326) + 0)
    0000067E 7B               [ 4] 1243 	ld	a, e
    0000067F D6 60            [ 7] 1244 	sub	a, #0x60
    00000681 7A               [ 4] 1245 	ld	a, d
    00000682 DE 00            [ 7] 1246 	sbc	a, #0x00
    00000684 30 09            [12] 1247 	jr	NC, 00145$
    00000686 21 00 00         [10] 1248 	ld	hl, #0x0000
    00000689 22r04r00         [16] 1249 	ld	((_Field + 4)), hl
    0000068C C3rACr06         [10] 1250 	jp	00146$
    0000068F                       1251 00145$:
                                   1252 ;E:\Dropbox\FAUSTO\SVILUPPI\MSX\CODE\C\MSXgl\projects\soccerlgMSX2/soccerlg_s12_b3.c:115: else if (SwSprite[14].ly > 512 - 192) Field.ly = 512 - 192;
    0000068F 3E 40            [ 7] 1253 	ld	a, #0x40
    00000691 BB               [ 4] 1254 	cp	a, e
    00000692 3E 01            [ 7] 1255 	ld	a, #0x01
    00000694 9A               [ 4] 1256 	sbc	a, d
    00000695 30 09            [12] 1257 	jr	NC, 00142$
    00000697 21 40 01         [10] 1258 	ld	hl, #0x0140
    0000069A 22r04r00         [16] 1259 	ld	((_Field + 4)), hl
    0000069D C3rACr06         [10] 1260 	jp	00146$
    000006A0                       1261 00142$:
                                   1262 ;E:\Dropbox\FAUSTO\SVILUPPI\MSX\CODE\C\MSXgl\projects\soccerlgMSX2/soccerlg_s12_b3.c:116: else Field.ly = SwSprite[14].ly - 96;
    000006A0 7B               [ 4] 1263 	ld	a, e
    000006A1 C6 A0            [ 7] 1264 	add	a, #0xa0
    000006A3 5F               [ 4] 1265 	ld	e, a
    000006A4 7A               [ 4] 1266 	ld	a, d
    000006A5 CE FF            [ 7] 1267 	adc	a, #0xff
    000006A7 57               [ 4] 1268 	ld	d, a
    000006A8 ED 53r04r00      [20] 1269 	ld	((_Field + 4)), de
    000006AC                       1270 00146$:
                                   1271 ;E:\Dropbox\FAUSTO\SVILUPPI\MSX\CODE\C\MSXgl\projects\soccerlgMSX2/soccerlg_s12_b3.c:118: T1_Carrier = T2_Carrier = T1_Receiver = T2_Receiver = 0xFF;
    000006AC 21r00r00         [10] 1272 	ld	hl, #_T2_Receiver
    000006AF 36 FF            [10] 1273 	ld	(hl), #0xff
    000006B1 21r00r00         [10] 1274 	ld	hl, #_T1_Receiver
    000006B4 36 FF            [10] 1275 	ld	(hl), #0xff
    000006B6 21r00r00         [10] 1276 	ld	hl, #_T2_Carrier
    000006B9 36 FF            [10] 1277 	ld	(hl), #0xff
    000006BB 21r00r00         [10] 1278 	ld	hl, #_T1_Carrier
    000006BE 36 FF            [10] 1279 	ld	(hl), #0xff
    000006C0                       1280 00148$:
                                   1281 ;E:\Dropbox\FAUSTO\SVILUPPI\MSX\CODE\C\MSXgl\projects\soccerlgMSX2/soccerlg_s12_b3.c:121: Field.dy = 0;
    000006C0 21r12r00         [10] 1282 	ld	hl, #(_Field + 18)
    000006C3 36 00            [10] 1283 	ld	(hl), #0x00
                                   1284 ;E:\Dropbox\FAUSTO\SVILUPPI\MSX\CODE\C\MSXgl\projects\soccerlgMSX2/soccerlg_s12_b3.c:122: CallFnc_VOID_16_P2(SEG_DRAW, PlotField, Field.ly,   0);
    000006C5 2Ar04r00         [16] 1285 	ld	hl, (#(_Field + 4) + 0)
    000006C8 C5               [11] 1286 	push	bc
    000006C9 11 00 00         [10] 1287 	ld	de, #0x0000
    000006CC D5               [11] 1288 	push	de
    000006CD E5               [11] 1289 	push	hl
    000006CE 11r00r00         [10] 1290 	ld	de, #_PlotField
    000006D1 3E 05            [ 7] 1291 	ld	a, #0x05
    000006D3 CDr00r00         [17] 1292 	call	_CallFnc_VOID_16_P2
    000006D6 C1               [10] 1293 	pop	bc
                                   1294 ;E:\Dropbox\FAUSTO\SVILUPPI\MSX\CODE\C\MSXgl\projects\soccerlgMSX2/soccerlg_s12_b3.c:123: CallFnc_VOID_16_P2(SEG_DRAW, PlotField, Field.ly, 256);
    000006D7 2Ar04r00         [16] 1295 	ld	hl, (#(_Field + 4) + 0)
    000006DA C5               [11] 1296 	push	bc
    000006DB 11 00 01         [10] 1297 	ld	de, #0x0100
    000006DE D5               [11] 1298 	push	de
    000006DF E5               [11] 1299 	push	hl
    000006E0 11r00r00         [10] 1300 	ld	de, #_PlotField
    000006E3 3E 05            [ 7] 1301 	ld	a, #0x05
    000006E5 CDr00r00         [17] 1302 	call	_CallFnc_VOID_16_P2
    000006E8 C1               [10] 1303 	pop	bc
                                   1304 ;E:\Dropbox\FAUSTO\SVILUPPI\MSX\CODE\C\MSXgl\projects\soccerlgMSX2/soccerlg_s12_b3.c:124: CallFnc_VOID_16_P2(SEG_DRAW, PlotField, Field.ly, 512);
    000006E9 2Ar04r00         [16] 1305 	ld	hl, (#(_Field + 4) + 0)
    000006EC C5               [11] 1306 	push	bc
    000006ED 11 00 02         [10] 1307 	ld	de, #0x0200
    000006F0 D5               [11] 1308 	push	de
    000006F1 E5               [11] 1309 	push	hl
    000006F2 11r00r00         [10] 1310 	ld	de, #_PlotField
    000006F5 3E 05            [ 7] 1311 	ld	a, #0x05
    000006F7 CDr00r00         [17] 1312 	call	_CallFnc_VOID_16_P2
    000006FA C1               [10] 1313 	pop	bc
                                   1314 ;E:\Dropbox\FAUSTO\SVILUPPI\MSX\CODE\C\MSXgl\projects\soccerlgMSX2/soccerlg_s12_b3.c:127: CallFnc_VOID_U8U16U16(SEG_DRAW, PrintScoreBoardLeft, ScoreBoardLeft.lx, Field.ly, 0);
    000006FB ED 5Br04r00      [20] 1315 	ld	de, (#(_Field + 4) + 0)
    000006FF 3Ar00r00         [13] 1316 	ld	a, (#_ScoreBoardLeft + 0)
    00000702 C5               [11] 1317 	push	bc
    00000703 21 00 00         [10] 1318 	ld	hl, #0x0000
    00000706 E5               [11] 1319 	push	hl
    00000707 D5               [11] 1320 	push	de
    00000708 F5               [11] 1321 	push	af
    00000709 33               [ 6] 1322 	inc	sp
    0000070A 11r00r00         [10] 1323 	ld	de, #_PrintScoreBoardLeft
    0000070D 3E 05            [ 7] 1324 	ld	a, #0x05
    0000070F CDr00r00         [17] 1325 	call	_CallFnc_VOID_U8U16U16
    00000712 C1               [10] 1326 	pop	bc
                                   1327 ;E:\Dropbox\FAUSTO\SVILUPPI\MSX\CODE\C\MSXgl\projects\soccerlgMSX2/soccerlg_s12_b3.c:128: CallFnc_VOID_U8U16U16(SEG_DRAW, PrintScoreBoardRight, ScoreBoardRight.lx, Field.ly, 0);
    00000713 ED 5Br04r00      [20] 1328 	ld	de, (#(_Field + 4) + 0)
    00000717 3Ar00r00         [13] 1329 	ld	a, (#_ScoreBoardRight + 0)
    0000071A C5               [11] 1330 	push	bc
    0000071B 21 00 00         [10] 1331 	ld	hl, #0x0000
    0000071E E5               [11] 1332 	push	hl
    0000071F D5               [11] 1333 	push	de
    00000720 F5               [11] 1334 	push	af
    00000721 33               [ 6] 1335 	inc	sp
    00000722 11r00r00         [10] 1336 	ld	de, #_PrintScoreBoardRight
    00000725 3E 05            [ 7] 1337 	ld	a, #0x05
    00000727 CDr00r00         [17] 1338 	call	_CallFnc_VOID_U8U16U16
    0000072A C1               [10] 1339 	pop	bc
                                   1340 ;E:\Dropbox\FAUSTO\SVILUPPI\MSX\CODE\C\MSXgl\projects\soccerlgMSX2/soccerlg_s12_b3.c:129: CallFnc_VOID_U8U16U16(SEG_DRAW, PrintScoreBoardLeft, ScoreBoardLeft.lx, Field.ly, 256);
    0000072B ED 5Br04r00      [20] 1341 	ld	de, (#(_Field + 4) + 0)
    0000072F 3Ar00r00         [13] 1342 	ld	a, (#_ScoreBoardLeft + 0)
    00000732 C5               [11] 1343 	push	bc
    00000733 21 00 01         [10] 1344 	ld	hl, #0x0100
    00000736 E5               [11] 1345 	push	hl
    00000737 D5               [11] 1346 	push	de
    00000738 F5               [11] 1347 	push	af
    00000739 33               [ 6] 1348 	inc	sp
    0000073A 11r00r00         [10] 1349 	ld	de, #_PrintScoreBoardLeft
    0000073D 3E 05            [ 7] 1350 	ld	a, #0x05
    0000073F CDr00r00         [17] 1351 	call	_CallFnc_VOID_U8U16U16
    00000742 C1               [10] 1352 	pop	bc
                                   1353 ;E:\Dropbox\FAUSTO\SVILUPPI\MSX\CODE\C\MSXgl\projects\soccerlgMSX2/soccerlg_s12_b3.c:130: CallFnc_VOID_U8U16U16(SEG_DRAW, PrintScoreBoardRight, ScoreBoardRight.lx, Field.ly, 256);
    00000743 ED 5Br04r00      [20] 1354 	ld	de, (#(_Field + 4) + 0)
    00000747 3Ar00r00         [13] 1355 	ld	a, (#_ScoreBoardRight + 0)
    0000074A C5               [11] 1356 	push	bc
    0000074B 21 00 01         [10] 1357 	ld	hl, #0x0100
    0000074E E5               [11] 1358 	push	hl
    0000074F D5               [11] 1359 	push	de
    00000750 F5               [11] 1360 	push	af
    00000751 33               [ 6] 1361 	inc	sp
    00000752 11r00r00         [10] 1362 	ld	de, #_PrintScoreBoardRight
    00000755 3E 05            [ 7] 1363 	ld	a, #0x05
    00000757 CDr00r00         [17] 1364 	call	_CallFnc_VOID_U8U16U16
    0000075A C1               [10] 1365 	pop	bc
                                   1366 ;E:\Dropbox\FAUSTO\SVILUPPI\MSX\CODE\C\MSXgl\projects\soccerlgMSX2/soccerlg_s12_b3.c:131: CallFnc_VOID_U8U16U16(SEG_DRAW, PrintScoreBoardLeft, ScoreBoardLeft.lx, Field.ly, 512);
    0000075B ED 5Br04r00      [20] 1367 	ld	de, (#(_Field + 4) + 0)
    0000075F 3Ar00r00         [13] 1368 	ld	a, (#_ScoreBoardLeft + 0)
    00000762 C5               [11] 1369 	push	bc
    00000763 21 00 02         [10] 1370 	ld	hl, #0x0200
    00000766 E5               [11] 1371 	push	hl
    00000767 D5               [11] 1372 	push	de
    00000768 F5               [11] 1373 	push	af
    00000769 33               [ 6] 1374 	inc	sp
    0000076A 11r00r00         [10] 1375 	ld	de, #_PrintScoreBoardLeft
    0000076D 3E 05            [ 7] 1376 	ld	a, #0x05
    0000076F CDr00r00         [17] 1377 	call	_CallFnc_VOID_U8U16U16
    00000772 C1               [10] 1378 	pop	bc
                                   1379 ;E:\Dropbox\FAUSTO\SVILUPPI\MSX\CODE\C\MSXgl\projects\soccerlgMSX2/soccerlg_s12_b3.c:132: CallFnc_VOID_U8U16U16(SEG_DRAW, PrintScoreBoardRight, ScoreBoardRight.lx, Field.ly, 512);
    00000773 ED 5Br04r00      [20] 1380 	ld	de, (#(_Field + 4) + 0)
    00000777 3Ar00r00         [13] 1381 	ld	a, (#_ScoreBoardRight + 0)
    0000077A C5               [11] 1382 	push	bc
    0000077B 21 00 02         [10] 1383 	ld	hl, #0x0200
    0000077E E5               [11] 1384 	push	hl
    0000077F D5               [11] 1385 	push	de
    00000780 F5               [11] 1386 	push	af
    00000781 33               [ 6] 1387 	inc	sp
    00000782 11r00r00         [10] 1388 	ld	de, #_PrintScoreBoardRight
    00000785 3E 05            [ 7] 1389 	ld	a, #0x05
    00000787 CDr00r00         [17] 1390 	call	_CallFnc_VOID_U8U16U16
    0000078A C1               [10] 1391 	pop	bc
                                   1392 ;E:\Dropbox\FAUSTO\SVILUPPI\MSX\CODE\C\MSXgl\projects\soccerlgMSX2/soccerlg_s12_b3.c:134: *game_state = 2; // Riparte la coreografia di schieramento
    0000078B DD 6E FE         [19] 1393 	ld	l, -2 (ix)
    0000078E DD 66 FF         [19] 1394 	ld	h, -1 (ix)
    00000791 36 02            [10] 1395 	ld	(hl), #0x02
    00000793                       1396 00153$:
                                   1397 ;E:\Dropbox\FAUSTO\SVILUPPI\MSX\CODE\C\MSXgl\projects\soccerlgMSX2/soccerlg_s12_b3.c:137: *start_sec = Frms;
    00000793 3Ar00r00         [13] 1398 	ld	a, (_Frms+0)
    00000796 02               [ 7] 1399 	ld	(bc), a
    00000797 C3rE8r10         [10] 1400 	jp	00273$
    0000079A                       1401 00249$:
                                   1402 ;E:\Dropbox\FAUSTO\SVILUPPI\MSX\CODE\C\MSXgl\projects\soccerlgMSX2/soccerlg_s12_b3.c:139: } else if (*game_state == 7) {
    0000079A DD 7E FB         [19] 1403 	ld	a, -5 (ix)
    0000079D D6 07            [ 7] 1404 	sub	a, #0x07
    0000079F C2rC1r09         [10] 1405 	jp	NZ,00246$
                                   1406 ;E:\Dropbox\FAUSTO\SVILUPPI\MSX\CODE\C\MSXgl\projects\soccerlgMSX2/soccerlg_s12_b3.c:141: u8 throw_team = (g_thrower_id < 7) ? TEAM_1 : TEAM_2;
    000007A2 3Ar00r00         [13] 1407 	ld	a, (_g_thrower_id+0)
    000007A5 D6 07            [ 7] 1408 	sub	a, #0x07
    000007A7 30 06            [12] 1409 	jr	NC, 00275$
    000007A9 01 00 00         [10] 1410 	ld	bc, #0x0000
    000007AC C3rB2r07         [10] 1411 	jp	00276$
    000007AF                       1412 00275$:
    000007AF 01 01 00         [10] 1413 	ld	bc, #0x0001
    000007B2                       1414 00276$:
    000007B2 DD 71 FB         [19] 1415 	ld	-5 (ix), c
                                   1416 ;E:\Dropbox\FAUSTO\SVILUPPI\MSX\CODE\C\MSXgl\projects\soccerlgMSX2/soccerlg_s12_b3.c:142: bool is_human = FALSE;
    000007B5 0E 00            [ 7] 1417 	ld	c, #0x00
                                   1418 ;E:\Dropbox\FAUSTO\SVILUPPI\MSX\CODE\C\MSXgl\projects\soccerlgMSX2/soccerlg_s12_b3.c:145: if (throw_team == TEAM_2) { is_human = TRUE; joy_port = 0; }
    000007B7 DD 7E FB         [19] 1419 	ld	a, -5 (ix)
    000007BA 3D               [ 4] 1420 	dec	a
    000007BB 20 05            [12] 1421 	jr	NZ, 00160$
    000007BD 0E 01            [ 7] 1422 	ld	c, #0x01
    000007BF C3rD0r07         [10] 1423 	jp	00161$
    000007C2                       1424 00160$:
                                   1425 ;E:\Dropbox\FAUSTO\SVILUPPI\MSX\CODE\C\MSXgl\projects\soccerlgMSX2/soccerlg_s12_b3.c:146: else if (throw_team == TEAM_1 && GameMode == GAMEMODE_P1_VS_P2) { is_human = TRUE; joy_port = 1; }
    000007C2 DD 7E FB         [19] 1426 	ld	a, -5 (ix)
    000007C5 B7               [ 4] 1427 	or	a, a
    000007C6 20 08            [12] 1428 	jr	NZ, 00161$
    000007C8 3Ar00r00         [13] 1429 	ld	a, (_GameMode+0)
    000007CB 3D               [ 4] 1430 	dec	a
    000007CC 20 02            [12] 1431 	jr	NZ, 00161$
    000007CE 0E 01            [ 7] 1432 	ld	c, #0x01
    000007D0                       1433 00161$:
                                   1434 ;E:\Dropbox\FAUSTO\SVILUPPI\MSX\CODE\C\MSXgl\projects\soccerlgMSX2/soccerlg_s12_b3.c:148: T1_Carrier = T2_Carrier = T1_Receiver = T2_Receiver = 0xFF; // Forza pulizia focus
    000007D0 21r00r00         [10] 1435 	ld	hl, #_T2_Receiver
    000007D3 36 FF            [10] 1436 	ld	(hl), #0xff
    000007D5 21r00r00         [10] 1437 	ld	hl, #_T1_Receiver
    000007D8 36 FF            [10] 1438 	ld	(hl), #0xff
    000007DA 21r00r00         [10] 1439 	ld	hl, #_T2_Carrier
    000007DD 36 FF            [10] 1440 	ld	(hl), #0xff
    000007DF FD 21r00r00      [14] 1441 	ld	iy, #_T1_Carrier
    000007E3 FD 36 00 FF      [19] 1442 	ld	0 (iy), #0xff
                                   1443 ;E:\Dropbox\FAUSTO\SVILUPPI\MSX\CODE\C\MSXgl\projects\soccerlgMSX2/soccerlg_s12_b3.c:150: if (*start_sec < Frms) { // Se Frms scala ciclicamente o wrap down
    000007E7 DD 5E 04         [19] 1444 	ld	e, 4 (ix)
    000007EA DD 56 05         [19] 1445 	ld	d, 5 (ix)
    000007ED 1A               [ 7] 1446 	ld	a, (de)
    000007EE 47               [ 4] 1447 	ld	b, a
    000007EF 21r00r00         [10] 1448 	ld	hl, #_Frms
    000007F2 78               [ 4] 1449 	ld	a, b
    000007F3 96               [ 7] 1450 	sub	a, (hl)
    000007F4 30 12            [12] 1451 	jr	NC, 00165$
                                   1452 ;E:\Dropbox\FAUSTO\SVILUPPI\MSX\CODE\C\MSXgl\projects\soccerlgMSX2/soccerlg_s12_b3.c:151: if (*wait_secs > 0) (*wait_secs)--; 
    000007F6 DD 6E FC         [19] 1453 	ld	l, -4 (ix)
    000007F9 DD 66 FD         [19] 1454 	ld	h, -3 (ix)
    000007FC 7E               [ 7] 1455 	ld	a, (hl)
    000007FD B7               [ 4] 1456 	or	a, a
    000007FE 28 08            [12] 1457 	jr	Z, 00165$
    00000800 3D               [ 4] 1458 	dec	a
    00000801 DD 6E FC         [19] 1459 	ld	l, -4 (ix)
    00000804 DD 66 FD         [19] 1460 	ld	h, -3 (ix)
    00000807 77               [ 7] 1461 	ld	(hl), a
    00000808                       1462 00165$:
                                   1463 ;E:\Dropbox\FAUSTO\SVILUPPI\MSX\CODE\C\MSXgl\projects\soccerlgMSX2/soccerlg_s12_b3.c:153: *start_sec = Frms;
    00000808 3Ar00r00         [13] 1464 	ld	a, (_Frms+0)
    0000080B 12               [ 7] 1465 	ld	(de), a
                                   1466 ;E:\Dropbox\FAUSTO\SVILUPPI\MSX\CODE\C\MSXgl\projects\soccerlgMSX2/soccerlg_s12_b3.c:155: if (is_human) {
    0000080C 79               [ 4] 1467 	ld	a, c
    0000080D B7               [ 4] 1468 	or	a, a
    0000080E CArF0r08         [10] 1469 	jp	Z, 00187$
                                   1470 ;E:\Dropbox\FAUSTO\SVILUPPI\MSX\CODE\C\MSXgl\projects\soccerlgMSX2/soccerlg_s12_b3.c:157: if (throw_team == TEAM_1) T1_Receiver = (g_selected_rec == 0) ? g_throw_rec_1 : g_throw_rec_2;
    00000811 DD 7E FB         [19] 1471 	ld	a, -5 (ix)
    00000814 B7               [ 4] 1472 	or	a, a
    00000815 20 15            [12] 1473 	jr	NZ, 00167$
    00000817 3Ar00r00         [13] 1474 	ld	a, (_g_selected_rec+0)
    0000081A B7               [ 4] 1475 	or	a, a
    0000081B 20 06            [12] 1476 	jr	NZ, 00277$
    0000081D 3Ar00r00         [13] 1477 	ld	a, (_g_throw_rec_1+0)
    00000820 C3r26r08         [10] 1478 	jp	00278$
    00000823                       1479 00277$:
    00000823 3Ar00r00         [13] 1480 	ld	a, (_g_throw_rec_2+0)
    00000826                       1481 00278$:
    00000826 32r00r00         [13] 1482 	ld	(_T1_Receiver+0), a
    00000829 C3r3Er08         [10] 1483 	jp	00168$
    0000082C                       1484 00167$:
                                   1485 ;E:\Dropbox\FAUSTO\SVILUPPI\MSX\CODE\C\MSXgl\projects\soccerlgMSX2/soccerlg_s12_b3.c:158: else T2_Receiver = (g_selected_rec == 0) ? g_throw_rec_1 : g_throw_rec_2;
    0000082C 3Ar00r00         [13] 1486 	ld	a, (_g_selected_rec+0)
    0000082F B7               [ 4] 1487 	or	a, a
    00000830 20 06            [12] 1488 	jr	NZ, 00279$
    00000832 3Ar00r00         [13] 1489 	ld	a, (_g_throw_rec_1+0)
    00000835 C3r3Br08         [10] 1490 	jp	00280$
    00000838                       1491 00279$:
    00000838 3Ar00r00         [13] 1492 	ld	a, (_g_throw_rec_2+0)
    0000083B                       1493 00280$:
    0000083B 32r00r00         [13] 1494 	ld	(_T2_Receiver+0), a
    0000083E                       1495 00168$:
                                   1496 ;E:\Dropbox\FAUSTO\SVILUPPI\MSX\CODE\C\MSXgl\projects\soccerlgMSX2/soccerlg_s12_b3.c:161: u8 dir = g_player_input[throw_team].direction;
    0000083E 01r00r00         [10] 1497 	ld	bc, #_g_player_input+0
    00000841 DD 5E FB         [19] 1498 	ld	e, -5 (ix)
    00000844 16 00            [ 7] 1499 	ld	d, #0x00
    00000846 6B               [ 4] 1500 	ld	l, e
    00000847 62               [ 4] 1501 	ld	h, d
    00000848 29               [11] 1502 	add	hl, hl
    00000849 19               [11] 1503 	add	hl, de
    0000084A 09               [11] 1504 	add	hl, bc
    0000084B EB               [ 4] 1505 	ex	de, hl
    0000084C 1A               [ 7] 1506 	ld	a, (de)
    0000084D 4F               [ 4] 1507 	ld	c, a
                                   1508 ;E:\Dropbox\FAUSTO\SVILUPPI\MSX\CODE\C\MSXgl\projects\soccerlgMSX2/soccerlg_s12_b3.c:162: if (dir != DIRECTION_NONE && g_last_input_dir == DIRECTION_NONE) g_selected_rec = 1 - g_selected_rec;
    0000084E B7               [ 4] 1509 	or	a, a
    0000084F 28 11            [12] 1510 	jr	Z, 00170$
    00000851 3Ar00r00         [13] 1511 	ld	a, (_g_last_input_dir+0)
    00000854 B7               [ 4] 1512 	or	a, a
    00000855 20 0B            [12] 1513 	jr	NZ, 00170$
    00000857 3Ar00r00         [13] 1514 	ld	a, (_g_selected_rec+0)
    0000085A 47               [ 4] 1515 	ld	b, a
    0000085B 21r00r00         [10] 1516 	ld	hl, #_g_selected_rec
    0000085E 3E 01            [ 7] 1517 	ld	a, #0x01
    00000860 90               [ 4] 1518 	sub	a, b
    00000861 77               [ 7] 1519 	ld	(hl), a
    00000862                       1520 00170$:
                                   1521 ;E:\Dropbox\FAUSTO\SVILUPPI\MSX\CODE\C\MSXgl\projects\soccerlgMSX2/soccerlg_s12_b3.c:163: g_last_input_dir = dir;
    00000862 FD 21r00r00      [14] 1522 	ld	iy, #_g_last_input_dir
    00000866 FD 71 00         [19] 1523 	ld	0 (iy), c
                                   1524 ;E:\Dropbox\FAUSTO\SVILUPPI\MSX\CODE\C\MSXgl\projects\soccerlgMSX2/soccerlg_s12_b3.c:165: bool do_throw = g_player_input[throw_team].trigger_pressed;
    00000869 13               [ 6] 1525 	inc	de
    0000086A 1A               [ 7] 1526 	ld	a, (de)
    0000086B 4F               [ 4] 1527 	ld	c, a
                                   1528 ;E:\Dropbox\FAUSTO\SVILUPPI\MSX\CODE\C\MSXgl\projects\soccerlgMSX2/soccerlg_s12_b3.c:167: if (*wait_secs == 0) do_throw = TRUE; // Lancio automatico scaduto il tempo
    0000086C DD 6E FC         [19] 1529 	ld	l, -4 (ix)
    0000086F DD 66 FD         [19] 1530 	ld	h, -3 (ix)
    00000872 7E               [ 7] 1531 	ld	a, (hl)
    00000873 B7               [ 4] 1532 	or	a, a
    00000874 20 02            [12] 1533 	jr	NZ, 00173$
    00000876 0E 01            [ 7] 1534 	ld	c, #0x01
    00000878                       1535 00173$:
                                   1536 ;E:\Dropbox\FAUSTO\SVILUPPI\MSX\CODE\C\MSXgl\projects\soccerlgMSX2/soccerlg_s12_b3.c:169: if (do_throw) {
    00000878 79               [ 4] 1537 	ld	a, c
    00000879 B7               [ 4] 1538 	or	a, a
    0000087A CArE8r10         [10] 1539 	jp	Z,00273$
                                   1540 ;E:\Dropbox\FAUSTO\SVILUPPI\MSX\CODE\C\MSXgl\projects\soccerlgMSX2/soccerlg_s12_b3.c:170: if (RestartType == RESTART_THROWIN) {
    0000087D 3Ar00r00         [13] 1541 	ld	a, (_RestartType+0)
    00000880 3D               [ 4] 1542 	dec	a
    00000881 20 21            [12] 1543 	jr	NZ, 00175$
                                   1544 ;E:\Dropbox\FAUSTO\SVILUPPI\MSX\CODE\C\MSXgl\projects\soccerlgMSX2/soccerlg_s12_b3.c:171: CallFnc_VOID_U8U8(SEG_GAMESTATE_2, ExecuteThrowIn, g_thrower_id, (g_selected_rec == 0) ? g_throw_rec_1 : g_throw_rec_2);
    00000883 3Ar00r00         [13] 1545 	ld	a, (_g_selected_rec+0)
    00000886 B7               [ 4] 1546 	or	a, a
    00000887 20 06            [12] 1547 	jr	NZ, 00281$
    00000889 3Ar00r00         [13] 1548 	ld	a, (_g_throw_rec_1+0)
    0000088C C3r92r08         [10] 1549 	jp	00282$
    0000088F                       1550 00281$:
    0000088F 3Ar00r00         [13] 1551 	ld	a, (_g_throw_rec_2+0)
    00000892                       1552 00282$:
    00000892 F5               [11] 1553 	push	af
    00000893 33               [ 6] 1554 	inc	sp
    00000894 3Ar00r00         [13] 1555 	ld	a, (_g_thrower_id+0)
    00000897 F5               [11] 1556 	push	af
    00000898 33               [ 6] 1557 	inc	sp
    00000899 11r00r00         [10] 1558 	ld	de, #_ExecuteThrowIn
    0000089C 3E 0B            [ 7] 1559 	ld	a, #0x0b
    0000089E CDr00r00         [17] 1560 	call	_CallFnc_VOID_U8U8
    000008A1 C3rC2r08         [10] 1561 	jp	00176$
    000008A4                       1562 00175$:
                                   1563 ;E:\Dropbox\FAUSTO\SVILUPPI\MSX\CODE\C\MSXgl\projects\soccerlgMSX2/soccerlg_s12_b3.c:173: CallFnc_VOID_U8U8(SEG_GAMESTATE_2, ExecuteCornerKick, g_thrower_id, (g_selected_rec == 0) ? g_throw_rec_1 : g_throw_rec_2);
    000008A4 3Ar00r00         [13] 1564 	ld	a, (_g_selected_rec+0)
    000008A7 B7               [ 4] 1565 	or	a, a
    000008A8 20 06            [12] 1566 	jr	NZ, 00283$
    000008AA 3Ar00r00         [13] 1567 	ld	a, (_g_throw_rec_1+0)
    000008AD C3rB3r08         [10] 1568 	jp	00284$
    000008B0                       1569 00283$:
    000008B0 3Ar00r00         [13] 1570 	ld	a, (_g_throw_rec_2+0)
    000008B3                       1571 00284$:
    000008B3 F5               [11] 1572 	push	af
    000008B4 33               [ 6] 1573 	inc	sp
    000008B5 3Ar00r00         [13] 1574 	ld	a, (_g_thrower_id+0)
    000008B8 F5               [11] 1575 	push	af
    000008B9 33               [ 6] 1576 	inc	sp
    000008BA 11r00r00         [10] 1577 	ld	de, #_ExecuteCornerKick
    000008BD 3E 0B            [ 7] 1578 	ld	a, #0x0b
    000008BF CDr00r00         [17] 1579 	call	_CallFnc_VOID_U8U8
    000008C2                       1580 00176$:
                                   1581 ;E:\Dropbox\FAUSTO\SVILUPPI\MSX\CODE\C\MSXgl\projects\soccerlgMSX2/soccerlg_s12_b3.c:175: g_pass_max_frames = (g_pass_max_frames * 85) / 100; // Aumenta la velocità del 15%
    000008C2 3Ar00r00         [13] 1582 	ld	a, (_g_pass_max_frames+0)
    000008C5 4F               [ 4] 1583 	ld	c, a
    000008C6 06 00            [ 7] 1584 	ld	b, #0x00
    000008C8 69               [ 4] 1585 	ld	l, c
    000008C9 60               [ 4] 1586 	ld	h, b
    000008CA 29               [11] 1587 	add	hl, hl
    000008CB 29               [11] 1588 	add	hl, hl
    000008CC 09               [11] 1589 	add	hl, bc
    000008CD 29               [11] 1590 	add	hl, hl
    000008CE 29               [11] 1591 	add	hl, hl
    000008CF 09               [11] 1592 	add	hl, bc
    000008D0 29               [11] 1593 	add	hl, hl
    000008D1 29               [11] 1594 	add	hl, hl
    000008D2 09               [11] 1595 	add	hl, bc
    000008D3 11 64 00         [10] 1596 	ld	de, #0x0064
    000008D6 CDr00r00         [17] 1597 	call	__divsint
    000008D9 21r00r00         [10] 1598 	ld	hl, #_g_pass_max_frames
    000008DC 73               [ 7] 1599 	ld	(hl), e
                                   1600 ;E:\Dropbox\FAUSTO\SVILUPPI\MSX\CODE\C\MSXgl\projects\soccerlgMSX2/soccerlg_s12_b3.c:176: *game_state = 3; TimerEnabled = TRUE;
    000008DD DD 6E FE         [19] 1601 	ld	l, -2 (ix)
    000008E0 DD 66 FF         [19] 1602 	ld	h, -1 (ix)
    000008E3 36 03            [10] 1603 	ld	(hl), #0x03
    000008E5 FD 21r00r00      [14] 1604 	ld	iy, #_TimerEnabled
    000008E9 FD 36 00 01      [19] 1605 	ld	0 (iy), #0x01
    000008ED C3rE8r10         [10] 1606 	jp	00273$
    000008F0                       1607 00187$:
                                   1608 ;E:\Dropbox\FAUSTO\SVILUPPI\MSX\CODE\C\MSXgl\projects\soccerlgMSX2/soccerlg_s12_b3.c:179: if (*wait_secs == 0) {
    000008F0 DD 6E FC         [19] 1609 	ld	l, -4 (ix)
    000008F3 DD 66 FD         [19] 1610 	ld	h, -3 (ix)
    000008F6 7E               [ 7] 1611 	ld	a, (hl)
    000008F7 B7               [ 4] 1612 	or	a, a
    000008F8 C2rE8r10         [10] 1613 	jp	NZ,00273$
                                   1614 ;E:\Dropbox\FAUSTO\SVILUPPI\MSX\CODE\C\MSXgl\projects\soccerlgMSX2/soccerlg_s12_b3.c:180: u8 target = ((Frms % 2) == 0) ? g_throw_rec_1 : g_throw_rec_2;
    000008FB 21r00r00         [10] 1615 	ld	hl, #_Frms
    000008FE CB 46            [12] 1616 	bit	0, (hl)
    00000900 20 06            [12] 1617 	jr	NZ, 00285$
    00000902 3Ar00r00         [13] 1618 	ld	a, (_g_throw_rec_1+0)
    00000905 C3r0Br09         [10] 1619 	jp	00286$
    00000908                       1620 00285$:
    00000908 3Ar00r00         [13] 1621 	ld	a, (_g_throw_rec_2+0)
    0000090B                       1622 00286$:
    0000090B DD 77 FB         [19] 1623 	ld	-5 (ix), a
                                   1624 ;E:\Dropbox\FAUSTO\SVILUPPI\MSX\CODE\C\MSXgl\projects\soccerlgMSX2/soccerlg_s12_b3.c:181: if (RestartType == RESTART_THROWIN) {
    0000090E 3Ar00r00         [13] 1625 	ld	a, (_RestartType+0)
    00000911 3D               [ 4] 1626 	dec	a
    00000912 20 15            [12] 1627 	jr	NZ, 00182$
                                   1628 ;E:\Dropbox\FAUSTO\SVILUPPI\MSX\CODE\C\MSXgl\projects\soccerlgMSX2/soccerlg_s12_b3.c:182: CallFnc_VOID_U8U8(SEG_GAMESTATE_2, ExecuteThrowIn, g_thrower_id, target);
    00000914 DD 7E FB         [19] 1629 	ld	a, -5 (ix)
    00000917 F5               [11] 1630 	push	af
    00000918 33               [ 6] 1631 	inc	sp
    00000919 3Ar00r00         [13] 1632 	ld	a, (_g_thrower_id+0)
    0000091C F5               [11] 1633 	push	af
    0000091D 33               [ 6] 1634 	inc	sp
    0000091E 11r00r00         [10] 1635 	ld	de, #_ExecuteThrowIn
    00000921 3E 0B            [ 7] 1636 	ld	a, #0x0b
    00000923 CDr00r00         [17] 1637 	call	_CallFnc_VOID_U8U8
    00000926 C3r93r09         [10] 1638 	jp	00183$
    00000929                       1639 00182$:
                                   1640 ;E:\Dropbox\FAUSTO\SVILUPPI\MSX\CODE\C\MSXgl\projects\soccerlgMSX2/soccerlg_s12_b3.c:185: u8 team_to_kick = (g_thrower_id < 7) ? TEAM_1 : TEAM_2;
    00000929 3Ar00r00         [13] 1641 	ld	a, (_g_thrower_id+0)
    0000092C D6 07            [ 7] 1642 	sub	a, #0x07
    0000092E 30 06            [12] 1643 	jr	NC, 00287$
    00000930 01 00 00         [10] 1644 	ld	bc, #0x0000
    00000933 C3r39r09         [10] 1645 	jp	00288$
    00000936                       1646 00287$:
    00000936 01 01 00         [10] 1647 	ld	bc, #0x0001
    00000939                       1648 00288$:
                                   1649 ;E:\Dropbox\FAUSTO\SVILUPPI\MSX\CODE\C\MSXgl\projects\soccerlgMSX2/soccerlg_s12_b3.c:186: u8 start_t = (team_to_kick == TEAM_1) ? 1 : 8;
    00000939 79               [ 4] 1650 	ld	a, c
    0000093A B7               [ 4] 1651 	or	a, a
    0000093B 20 06            [12] 1652 	jr	NZ, 00289$
    0000093D 01 01 00         [10] 1653 	ld	bc, #0x0001
    00000940 C3r46r09         [10] 1654 	jp	00290$
    00000943                       1655 00289$:
    00000943 01 08 00         [10] 1656 	ld	bc, #0x0008
    00000946                       1657 00290$:
                                   1658 ;E:\Dropbox\FAUSTO\SVILUPPI\MSX\CODE\C\MSXgl\projects\soccerlgMSX2/soccerlg_s12_b3.c:188: out_targets[0] = start_t;
    00000946 DD 71 E4         [19] 1659 	ld	-28 (ix), c
                                   1660 ;E:\Dropbox\FAUSTO\SVILUPPI\MSX\CODE\C\MSXgl\projects\soccerlgMSX2/soccerlg_s12_b3.c:189: out_targets[1] = start_t + 1;
    00000949 79               [ 4] 1661 	ld	a, c
    0000094A 3C               [ 4] 1662 	inc	a
    0000094B DD 77 E5         [19] 1663 	ld	-27 (ix), a
                                   1664 ;E:\Dropbox\FAUSTO\SVILUPPI\MSX\CODE\C\MSXgl\projects\soccerlgMSX2/soccerlg_s12_b3.c:190: out_targets[2] = start_t + 4;
    0000094E 79               [ 4] 1665 	ld	a, c
    0000094F 3C               [ 4] 1666 	inc	a
    00000950 3C               [ 4] 1667 	inc	a
    00000951 3C               [ 4] 1668 	inc	a
    00000952 3C               [ 4] 1669 	inc	a
    00000953 DD 77 E6         [19] 1670 	ld	-26 (ix), a
                                   1671 ;E:\Dropbox\FAUSTO\SVILUPPI\MSX\CODE\C\MSXgl\projects\soccerlgMSX2/soccerlg_s12_b3.c:191: out_targets[3] = start_t + 5;
    00000956 79               [ 4] 1672 	ld	a, c
    00000957 C6 05            [ 7] 1673 	add	a, #0x05
    00000959 DD 77 E7         [19] 1674 	ld	-25 (ix), a
                                   1675 ;E:\Dropbox\FAUSTO\SVILUPPI\MSX\CODE\C\MSXgl\projects\soccerlgMSX2/soccerlg_s12_b3.c:192: target = out_targets[Frms % 4];
    0000095C 3Ar00r00         [13] 1676 	ld	a, (_Frms+0)
    0000095F 4F               [ 4] 1677 	ld	c, a
    00000960 06 00            [ 7] 1678 	ld	b, #0x00
    00000962 79               [ 4] 1679 	ld	a, c
    00000963 E6 03            [ 7] 1680 	and	a, #0x03
    00000965 5F               [ 4] 1681 	ld	e, a
    00000966 16 00            [ 7] 1682 	ld	d, #0x00
    00000968 21 04 00         [10] 1683 	ld	hl, #4
    0000096B 39               [11] 1684 	add	hl, sp
    0000096C 19               [11] 1685 	add	hl, de
    0000096D 5E               [ 7] 1686 	ld	e, (hl)
                                   1687 ;E:\Dropbox\FAUSTO\SVILUPPI\MSX\CODE\C\MSXgl\projects\soccerlgMSX2/soccerlg_s12_b3.c:193: if (target == g_thrower_id) target = out_targets[(Frms + 1) % 4];
    0000096E 3Ar00r00         [13] 1688 	ld	a, (_g_thrower_id+0)
    00000971 93               [ 4] 1689 	sub	a, e
    00000972 20 0F            [12] 1690 	jr	NZ, 00180$
    00000974 03               [ 6] 1691 	inc	bc
    00000975 11 04 00         [10] 1692 	ld	de, #0x0004
    00000978 69               [ 4] 1693 	ld	l, c
                                   1694 ;	spillPairReg hl
                                   1695 ;	spillPairReg hl
    00000979 60               [ 4] 1696 	ld	h, b
                                   1697 ;	spillPairReg hl
                                   1698 ;	spillPairReg hl
    0000097A CDr00r00         [17] 1699 	call	__modsint
    0000097D 21 04 00         [10] 1700 	ld	hl, #4
    00000980 39               [11] 1701 	add	hl, sp
    00000981 19               [11] 1702 	add	hl, de
    00000982 5E               [ 7] 1703 	ld	e, (hl)
    00000983                       1704 00180$:
                                   1705 ;E:\Dropbox\FAUSTO\SVILUPPI\MSX\CODE\C\MSXgl\projects\soccerlgMSX2/soccerlg_s12_b3.c:195: CallFnc_VOID_U8U8(SEG_GAMESTATE_2, ExecuteCornerKick, g_thrower_id, target);
    00000983 7B               [ 4] 1706 	ld	a, e
    00000984 F5               [11] 1707 	push	af
    00000985 33               [ 6] 1708 	inc	sp
    00000986 3Ar00r00         [13] 1709 	ld	a, (_g_thrower_id+0)
    00000989 F5               [11] 1710 	push	af
    0000098A 33               [ 6] 1711 	inc	sp
    0000098B 11r00r00         [10] 1712 	ld	de, #_ExecuteCornerKick
    0000098E 3E 0B            [ 7] 1713 	ld	a, #0x0b
    00000990 CDr00r00         [17] 1714 	call	_CallFnc_VOID_U8U8
    00000993                       1715 00183$:
                                   1716 ;E:\Dropbox\FAUSTO\SVILUPPI\MSX\CODE\C\MSXgl\projects\soccerlgMSX2/soccerlg_s12_b3.c:197: g_pass_max_frames = (g_pass_max_frames * 85) / 100; // Aumenta la velocità del 15%
    00000993 3Ar00r00         [13] 1717 	ld	a, (_g_pass_max_frames+0)
    00000996 4F               [ 4] 1718 	ld	c, a
    00000997 06 00            [ 7] 1719 	ld	b, #0x00
    00000999 69               [ 4] 1720 	ld	l, c
    0000099A 60               [ 4] 1721 	ld	h, b
    0000099B 29               [11] 1722 	add	hl, hl
    0000099C 29               [11] 1723 	add	hl, hl
    0000099D 09               [11] 1724 	add	hl, bc
    0000099E 29               [11] 1725 	add	hl, hl
    0000099F 29               [11] 1726 	add	hl, hl
    000009A0 09               [11] 1727 	add	hl, bc
    000009A1 29               [11] 1728 	add	hl, hl
    000009A2 29               [11] 1729 	add	hl, hl
    000009A3 09               [11] 1730 	add	hl, bc
    000009A4 11 64 00         [10] 1731 	ld	de, #0x0064
    000009A7 CDr00r00         [17] 1732 	call	__divsint
    000009AA 21r00r00         [10] 1733 	ld	hl, #_g_pass_max_frames
    000009AD 73               [ 7] 1734 	ld	(hl), e
                                   1735 ;E:\Dropbox\FAUSTO\SVILUPPI\MSX\CODE\C\MSXgl\projects\soccerlgMSX2/soccerlg_s12_b3.c:198: *game_state = 3; TimerEnabled = TRUE;
    000009AE DD 6E FE         [19] 1736 	ld	l, -2 (ix)
    000009B1 DD 66 FF         [19] 1737 	ld	h, -1 (ix)
    000009B4 36 03            [10] 1738 	ld	(hl), #0x03
    000009B6 FD 21r00r00      [14] 1739 	ld	iy, #_TimerEnabled
    000009BA FD 36 00 01      [19] 1740 	ld	0 (iy), #0x01
                                   1741 ;E:\Dropbox\FAUSTO\SVILUPPI\MSX\CODE\C\MSXgl\projects\soccerlgMSX2/soccerlg_s12_b3.c:201: return;
    000009BE C3rE8r10         [10] 1742 	jp	00273$
    000009C1                       1743 00246$:
                                   1744 ;E:\Dropbox\FAUSTO\SVILUPPI\MSX\CODE\C\MSXgl\projects\soccerlgMSX2/soccerlg_s12_b3.c:202: } else if (*game_state == 8) {
    000009C1 DD 7E FB         [19] 1745 	ld	a, -5 (ix)
    000009C4 D6 08            [ 7] 1746 	sub	a, #0x08
    000009C6 C2rE8r10         [10] 1747 	jp	NZ,00273$
                                   1748 ;E:\Dropbox\FAUSTO\SVILUPPI\MSX\CODE\C\MSXgl\projects\soccerlgMSX2/soccerlg_s12_b3.c:204: T1_Carrier = T2_Carrier = T1_Receiver = T2_Receiver = 0xFF; // Forza pulizia focus
    000009C9 21r00r00         [10] 1749 	ld	hl, #_T2_Receiver
    000009CC 36 FF            [10] 1750 	ld	(hl), #0xff
    000009CE 21r00r00         [10] 1751 	ld	hl, #_T1_Receiver
    000009D1 36 FF            [10] 1752 	ld	(hl), #0xff
    000009D3 21r00r00         [10] 1753 	ld	hl, #_T2_Carrier
    000009D6 36 FF            [10] 1754 	ld	(hl), #0xff
    000009D8 21r00r00         [10] 1755 	ld	hl, #_T1_Carrier
    000009DB 36 FF            [10] 1756 	ld	(hl), #0xff
                                   1757 ;E:\Dropbox\FAUSTO\SVILUPPI\MSX\CODE\C\MSXgl\projects\soccerlgMSX2/soccerlg_s12_b3.c:206: if (*start_sec < Frms) { // Se Frms scala ciclicamente o wrap down
    000009DD DD 4E 04         [19] 1758 	ld	c, 4 (ix)
    000009E0 DD 46 05         [19] 1759 	ld	b, 5 (ix)
    000009E3 0A               [ 7] 1760 	ld	a, (bc)
    000009E4 21r00r00         [10] 1761 	ld	hl, #_Frms
    000009E7 96               [ 7] 1762 	sub	a, (hl)
    000009E8 30 12            [12] 1763 	jr	NC, 00192$
                                   1764 ;E:\Dropbox\FAUSTO\SVILUPPI\MSX\CODE\C\MSXgl\projects\soccerlgMSX2/soccerlg_s12_b3.c:207: if (*wait_secs > 0) (*wait_secs)--; 
    000009EA DD 6E FC         [19] 1765 	ld	l, -4 (ix)
    000009ED DD 66 FD         [19] 1766 	ld	h, -3 (ix)
    000009F0 7E               [ 7] 1767 	ld	a, (hl)
    000009F1 B7               [ 4] 1768 	or	a, a
    000009F2 28 08            [12] 1769 	jr	Z, 00192$
    000009F4 3D               [ 4] 1770 	dec	a
    000009F5 DD 6E FC         [19] 1771 	ld	l, -4 (ix)
    000009F8 DD 66 FD         [19] 1772 	ld	h, -3 (ix)
    000009FB 77               [ 7] 1773 	ld	(hl), a
    000009FC                       1774 00192$:
                                   1775 ;E:\Dropbox\FAUSTO\SVILUPPI\MSX\CODE\C\MSXgl\projects\soccerlgMSX2/soccerlg_s12_b3.c:209: *start_sec = Frms;
    000009FC 3Ar00r00         [13] 1776 	ld	a, (_Frms+0)
    000009FF 02               [ 7] 1777 	ld	(bc), a
                                   1778 ;E:\Dropbox\FAUSTO\SVILUPPI\MSX\CODE\C\MSXgl\projects\soccerlgMSX2/soccerlg_s12_b3.c:211: u8 gk = (RestartSideY < 256) ? 0 : 7;
    00000A00 2Ar00r00         [16] 1779 	ld	hl, (_RestartSideY)
    00000A03 7C               [ 4] 1780 	ld	a, h
    00000A04 D6 01            [ 7] 1781 	sub	a, #0x01
    00000A06 30 06            [12] 1782 	jr	NC, 00291$
    00000A08 01 00 00         [10] 1783 	ld	bc, #0x0000
    00000A0B C3r11r0A         [10] 1784 	jp	00292$
    00000A0E                       1785 00291$:
    00000A0E 01 07 00         [10] 1786 	ld	bc, #0x0007
    00000A11                       1787 00292$:
                                   1788 ;E:\Dropbox\FAUSTO\SVILUPPI\MSX\CODE\C\MSXgl\projects\soccerlgMSX2/soccerlg_s12_b3.c:212: struct ObjectInfo* GK = &SwSprite[gk];
    00000A11 DD 71 E8         [19] 1789 	ld	-24 (ix), c
    00000A14 06 00            [ 7] 1790 	ld	b, #0x00
    00000A16 69               [ 4] 1791 	ld	l, c
    00000A17 60               [ 4] 1792 	ld	h, b
    00000A18 29               [11] 1793 	add	hl, hl
    00000A19 29               [11] 1794 	add	hl, hl
    00000A1A 09               [11] 1795 	add	hl, bc
    00000A1B 29               [11] 1796 	add	hl, hl
    00000A1C 09               [11] 1797 	add	hl, bc
    00000A1D 29               [11] 1798 	add	hl, hl
    00000A1E 09               [11] 1799 	add	hl, bc
    00000A1F 11r00r00         [10] 1800 	ld	de, #_SwSprite
    00000A22 19               [11] 1801 	add	hl, de
    00000A23 DD 75 E9         [19] 1802 	ld	-23 (ix), l
    00000A26 DD 74 EA         [19] 1803 	ld	-22 (ix), h
                                   1804 ;E:\Dropbox\FAUSTO\SVILUPPI\MSX\CODE\C\MSXgl\projects\soccerlgMSX2/soccerlg_s12_b3.c:213: struct ObjectInfo* Ball = &SwSprite[14];
                                   1805 ;E:\Dropbox\FAUSTO\SVILUPPI\MSX\CODE\C\MSXgl\projects\soccerlgMSX2/soccerlg_s12_b3.c:215: i8 dir_y = (gk == 0) ? 1 : -1;
    00000A29 DD 7E E8         [19] 1806 	ld	a, -24 (ix)
    00000A2C B7               [ 4] 1807 	or	a, a
    00000A2D 20 06            [12] 1808 	jr	NZ, 00293$
    00000A2F 11 01 00         [10] 1809 	ld	de, #0x0001
    00000A32 C3r38r0A         [10] 1810 	jp	00294$
    00000A35                       1811 00293$:
    00000A35 11 FF FF         [10] 1812 	ld	de, #0xffff
    00000A38                       1813 00294$:
                                   1814 ;E:\Dropbox\FAUSTO\SVILUPPI\MSX\CODE\C\MSXgl\projects\soccerlgMSX2/soccerlg_s12_b3.c:216: i8 dir_x = (RestartSideX < 128) ? 1 : -1;
    00000A38 3Ar00r00         [13] 1815 	ld	a, (_RestartSideX+0)
    00000A3B D6 80            [ 7] 1816 	sub	a, #0x80
    00000A3D 30 06            [12] 1817 	jr	NC, 00295$
    00000A3F 01 01 00         [10] 1818 	ld	bc, #0x0001
    00000A42 C3r48r0A         [10] 1819 	jp	00296$
    00000A45                       1820 00295$:
    00000A45 01 FF FF         [10] 1821 	ld	bc, #0xffff
    00000A48                       1822 00296$:
    00000A48 51               [ 4] 1823 	ld	d, c
                                   1824 ;E:\Dropbox\FAUSTO\SVILUPPI\MSX\CODE\C\MSXgl\projects\soccerlgMSX2/soccerlg_s12_b3.c:218: u16 target_gk_x = Ball->lx - (dir_x * 6);
    00000A49 3Ar42r01         [13] 1825 	ld	a, (#(_SwSprite + 322) + 0)
    00000A4C DD 77 EB         [19] 1826 	ld	-21 (ix), a
    00000A4F 4F               [ 4] 1827 	ld	c, a
    00000A50 06 00            [ 7] 1828 	ld	b, #0x00
    00000A52 7A               [ 4] 1829 	ld	a, d
    00000A53 6F               [ 4] 1830 	ld	l, a
                                   1831 ;	spillPairReg hl
                                   1832 ;	spillPairReg hl
    00000A54 07               [ 4] 1833 	rlca
    00000A55 9F               [ 4] 1834 	sbc	a, a
    00000A56 67               [ 4] 1835 	ld	h, a
                                   1836 ;	spillPairReg hl
                                   1837 ;	spillPairReg hl
    00000A57 D5               [11] 1838 	push	de
    00000A58 5D               [ 4] 1839 	ld	e, l
    00000A59 54               [ 4] 1840 	ld	d, h
    00000A5A 29               [11] 1841 	add	hl, hl
    00000A5B 19               [11] 1842 	add	hl, de
    00000A5C 29               [11] 1843 	add	hl, hl
    00000A5D D1               [10] 1844 	pop	de
    00000A5E 79               [ 4] 1845 	ld	a, c
    00000A5F 95               [ 4] 1846 	sub	a, l
    00000A60 4F               [ 4] 1847 	ld	c, a
    00000A61 78               [ 4] 1848 	ld	a, b
    00000A62 9C               [ 4] 1849 	sbc	a, h
    00000A63 47               [ 4] 1850 	ld	b, a
    00000A64 DD 71 EC         [19] 1851 	ld	-20 (ix), c
    00000A67 DD 70 ED         [19] 1852 	ld	-19 (ix), b
                                   1853 ;E:\Dropbox\FAUSTO\SVILUPPI\MSX\CODE\C\MSXgl\projects\soccerlgMSX2/soccerlg_s12_b3.c:219: u16 target_gk_y = Ball->ly - (dir_y * 8);
    00000A6A 21r46r01         [10] 1854 	ld	hl, #(_SwSprite + 326)
    00000A6D 7E               [ 7] 1855 	ld	a, (hl)
    00000A6E DD 77 EE         [19] 1856 	ld	-18 (ix), a
    00000A71 23               [ 6] 1857 	inc	hl
    00000A72 7E               [ 7] 1858 	ld	a, (hl)
    00000A73 DD 77 EF         [19] 1859 	ld	-17 (ix), a
    00000A76 7B               [ 4] 1860 	ld	a, e
    00000A77 07               [ 4] 1861 	rlca
    00000A78 9F               [ 4] 1862 	sbc	a, a
    00000A79 57               [ 4] 1863 	ld	d, a
    00000A7A EB               [ 4] 1864 	ex	de, hl
    00000A7B 29               [11] 1865 	add	hl, hl
    00000A7C 29               [11] 1866 	add	hl, hl
    00000A7D 29               [11] 1867 	add	hl, hl
    00000A7E EB               [ 4] 1868 	ex	de, hl
    00000A7F DD 6E EE         [19] 1869 	ld	l, -18 (ix)
                                   1870 ;	spillPairReg hl
                                   1871 ;	spillPairReg hl
    00000A82 DD 66 EF         [19] 1872 	ld	h, -17 (ix)
                                   1873 ;	spillPairReg hl
                                   1874 ;	spillPairReg hl
    00000A85 BF               [ 4] 1875 	cp	a, a
    00000A86 ED 52            [15] 1876 	sbc	hl, de
    00000A88 DD 75 F0         [19] 1877 	ld	-16 (ix), l
    00000A8B DD 74 F1         [19] 1878 	ld	-15 (ix), h
                                   1879 ;E:\Dropbox\FAUSTO\SVILUPPI\MSX\CODE\C\MSXgl\projects\soccerlgMSX2/soccerlg_s12_b3.c:221: u8 team_to_kick = (gk == 0) ? TEAM_1 : TEAM_2;
    00000A8E DD 7E E8         [19] 1880 	ld	a, -24 (ix)
    00000A91 B7               [ 4] 1881 	or	a, a
    00000A92 20 06            [12] 1882 	jr	NZ, 00297$
    00000A94 01 00 00         [10] 1883 	ld	bc, #0x0000
    00000A97 C3r9Dr0A         [10] 1884 	jp	00298$
    00000A9A                       1885 00297$:
    00000A9A 01 01 00         [10] 1886 	ld	bc, #0x0001
    00000A9D                       1887 00298$:
    00000A9D DD 71 FA         [19] 1888 	ld	-6 (ix), c
                                   1889 ;E:\Dropbox\FAUSTO\SVILUPPI\MSX\CODE\C\MSXgl\projects\soccerlgMSX2/soccerlg_s12_b3.c:222: bool is_human = FALSE;
    00000AA0 DD 36 F2 00      [19] 1890 	ld	-14 (ix), #0x00
                                   1891 ;E:\Dropbox\FAUSTO\SVILUPPI\MSX\CODE\C\MSXgl\projects\soccerlgMSX2/soccerlg_s12_b3.c:225: if (team_to_kick == TEAM_2) { is_human = TRUE; joy_port = 0; }
    00000AA4 DD 7E FA         [19] 1892 	ld	a, -6 (ix)
    00000AA7 3D               [ 4] 1893 	dec	a
    00000AA8 20 07            [12] 1894 	jr	NZ, 00197$
    00000AAA DD 36 F2 01      [19] 1895 	ld	-14 (ix), #0x01
    00000AAE C3rC1r0A         [10] 1896 	jp	00198$
    00000AB1                       1897 00197$:
                                   1898 ;E:\Dropbox\FAUSTO\SVILUPPI\MSX\CODE\C\MSXgl\projects\soccerlgMSX2/soccerlg_s12_b3.c:226: else if (team_to_kick == TEAM_1 && GameMode == GAMEMODE_P1_VS_P2) { is_human = TRUE; joy_port = 1; }
    00000AB1 DD 7E FA         [19] 1899 	ld	a, -6 (ix)
    00000AB4 B7               [ 4] 1900 	or	a, a
    00000AB5 20 0A            [12] 1901 	jr	NZ, 00198$
    00000AB7 3Ar00r00         [13] 1902 	ld	a, (_GameMode+0)
    00000ABA 3D               [ 4] 1903 	dec	a
    00000ABB 20 04            [12] 1904 	jr	NZ, 00198$
    00000ABD DD 36 F2 01      [19] 1905 	ld	-14 (ix), #0x01
    00000AC1                       1906 00198$:
                                   1907 ;E:\Dropbox\FAUSTO\SVILUPPI\MSX\CODE\C\MSXgl\projects\soccerlgMSX2/soccerlg_s12_b3.c:228: if (*wait_secs == 0) {
    00000AC1 DD 6E FC         [19] 1908 	ld	l, -4 (ix)
    00000AC4 DD 66 FD         [19] 1909 	ld	h, -3 (ix)
    00000AC7 7E               [ 7] 1910 	ld	a, (hl)
    00000AC8 DD 77 FB         [19] 1911 	ld	-5 (ix), a
                                   1912 ;E:\Dropbox\FAUSTO\SVILUPPI\MSX\CODE\C\MSXgl\projects\soccerlgMSX2/soccerlg_s12_b3.c:230: if (GK->ly != target_gk_y || GK->lx != target_gk_x) {
    00000ACB DD 7E E9         [19] 1913 	ld	a, -23 (ix)
    00000ACE C6 04            [ 7] 1914 	add	a, #0x04
    00000AD0 DD 77 F3         [19] 1915 	ld	-13 (ix), a
    00000AD3 DD 7E EA         [19] 1916 	ld	a, -22 (ix)
    00000AD6 CE 00            [ 7] 1917 	adc	a, #0x00
    00000AD8 DD 77 F4         [19] 1918 	ld	-12 (ix), a
                                   1919 ;E:\Dropbox\FAUSTO\SVILUPPI\MSX\CODE\C\MSXgl\projects\soccerlgMSX2/soccerlg_s12_b3.c:251: GK->frame = CallFnc_U16_P4(SEG_GAMESTATE_2, GetPlayerAnimFrame, gk, GK->dx, GK->dy, walk_seq[(GK->anim / 3) % 4]);
    00000ADB DD 7E E9         [19] 1920 	ld	a, -23 (ix)
    00000ADE C6 0F            [ 7] 1921 	add	a, #0x0f
    00000AE0 DD 77 F5         [19] 1922 	ld	-11 (ix), a
    00000AE3 DD 7E EA         [19] 1923 	ld	a, -22 (ix)
    00000AE6 CE 00            [ 7] 1924 	adc	a, #0x00
    00000AE8 DD 77 F6         [19] 1925 	ld	-10 (ix), a
                                   1926 ;E:\Dropbox\FAUSTO\SVILUPPI\MSX\CODE\C\MSXgl\projects\soccerlgMSX2/soccerlg_s12_b3.c:228: if (*wait_secs == 0) {
    00000AEB DD 7E FB         [19] 1927 	ld	a, -5 (ix)
    00000AEE B7               [ 4] 1928 	or	a, a
    00000AEF C2rE4r0F         [10] 1929 	jp	NZ, 00241$
                                   1930 ;E:\Dropbox\FAUSTO\SVILUPPI\MSX\CODE\C\MSXgl\projects\soccerlgMSX2/soccerlg_s12_b3.c:230: if (GK->ly != target_gk_y || GK->lx != target_gk_x) {
    00000AF2 DD 6E F3         [19] 1931 	ld	l, -13 (ix)
    00000AF5 DD 66 F4         [19] 1932 	ld	h, -12 (ix)
    00000AF8 7E               [ 7] 1933 	ld	a, (hl)
    00000AF9 DD 77 F7         [19] 1934 	ld	-9 (ix), a
    00000AFC 23               [ 6] 1935 	inc	hl
    00000AFD 7E               [ 7] 1936 	ld	a, (hl)
    00000AFE DD 77 F8         [19] 1937 	ld	-8 (ix), a
    00000B01 DD 7E F7         [19] 1938 	ld	a, -9 (ix)
    00000B04 DD 96 F0         [19] 1939 	sub	a, -16 (ix)
    00000B07 20 0A            [12] 1940 	jr	NZ, 00920$
    00000B09 DD 7E F8         [19] 1941 	ld	a, -8 (ix)
    00000B0C DD 96 F1         [19] 1942 	sub	a, -15 (ix)
    00000B0F 3E 01            [ 7] 1943 	ld	a, #0x01
    00000B11 28 01            [12] 1944 	jr	Z, 00921$
    00000B13                       1945 00920$:
    00000B13 AF               [ 4] 1946 	xor	a, a
    00000B14                       1947 00921$:
    00000B14 DD 77 F9         [19] 1948 	ld	-7 (ix), a
    00000B17 DD CB F9 46      [20] 1949 	bit	0, -7 (ix)
    00000B1B 28 22            [12] 1950 	jr	Z, 00223$
    00000B1D DD 6E E9         [19] 1951 	ld	l, -23 (ix)
    00000B20 DD 66 EA         [19] 1952 	ld	h, -22 (ix)
    00000B23 7E               [ 7] 1953 	ld	a, (hl)
    00000B24 DD 77 FB         [19] 1954 	ld	-5 (ix), a
    00000B27 DD 77 FA         [19] 1955 	ld	-6 (ix), a
    00000B2A DD 36 FB 00      [19] 1956 	ld	-5 (ix), #0x00
    00000B2E DD 7E EC         [19] 1957 	ld	a, -20 (ix)
    00000B31 DD 96 FA         [19] 1958 	sub	a, -6 (ix)
    00000B34 20 09            [12] 1959 	jr	NZ, 00922$
    00000B36 DD 7E ED         [19] 1960 	ld	a, -19 (ix)
    00000B39 DD 96 FB         [19] 1961 	sub	a, -5 (ix)
    00000B3C CAr65r0E         [10] 1962 	jp	Z,00224$
    00000B3F                       1963 00922$:
    00000B3F                       1964 00223$:
                                   1965 ;E:\Dropbox\FAUSTO\SVILUPPI\MSX\CODE\C\MSXgl\projects\soccerlgMSX2/soccerlg_s12_b3.c:232: GK->dy = (Ball->ly > GK->ly) ? 2 : -2;
    00000B3F DD 7E E9         [19] 1966 	ld	a, -23 (ix)
    00000B42 C6 12            [ 7] 1967 	add	a, #0x12
    00000B44 DD 77 FA         [19] 1968 	ld	-6 (ix), a
    00000B47 DD 7E EA         [19] 1969 	ld	a, -22 (ix)
    00000B4A CE 00            [ 7] 1970 	adc	a, #0x00
    00000B4C DD 77 FB         [19] 1971 	ld	-5 (ix), a
                                   1972 ;E:\Dropbox\FAUSTO\SVILUPPI\MSX\CODE\C\MSXgl\projects\soccerlgMSX2/soccerlg_s12_b3.c:231: if (GK->ly != target_gk_y) {
    00000B4F DD CB F9 46      [20] 1973 	bit	0, -7 (ix)
    00000B53 C2rC8r0C         [10] 1974 	jp	NZ, 00206$
                                   1975 ;E:\Dropbox\FAUSTO\SVILUPPI\MSX\CODE\C\MSXgl\projects\soccerlgMSX2/soccerlg_s12_b3.c:232: GK->dy = (Ball->ly > GK->ly) ? 2 : -2;
    00000B56 DD 7E F7         [19] 1976 	ld	a, -9 (ix)
    00000B59 DD 96 EE         [19] 1977 	sub	a, -18 (ix)
    00000B5C DD 7E F8         [19] 1978 	ld	a, -8 (ix)
    00000B5F DD 9E EF         [19] 1979 	sbc	a, -17 (ix)
    00000B62 30 0B            [12] 1980 	jr	NC, 00299$
    00000B64 DD 36 F8 02      [19] 1981 	ld	-8 (ix), #0x02
    00000B68 DD 36 F9 00      [19] 1982 	ld	-7 (ix), #0
    00000B6C C3r77r0B         [10] 1983 	jp	00300$
    00000B6F                       1984 00299$:
    00000B6F DD 36 F8 FE      [19] 1985 	ld	-8 (ix), #0xfe
    00000B73 DD 36 F9 FF      [19] 1986 	ld	-7 (ix), #0xff
    00000B77                       1987 00300$:
    00000B77 DD 7E F8         [19] 1988 	ld	a, -8 (ix)
    00000B7A DD 6E FA         [19] 1989 	ld	l, -6 (ix)
    00000B7D DD 66 FB         [19] 1990 	ld	h, -5 (ix)
    00000B80 77               [ 7] 1991 	ld	(hl), a
                                   1992 ;E:\Dropbox\FAUSTO\SVILUPPI\MSX\CODE\C\MSXgl\projects\soccerlgMSX2/soccerlg_s12_b3.c:233: if (target_gk_y > GK->ly && GK->ly + GK->dy > target_gk_y) GK->dy = target_gk_y - GK->ly;
    00000B81 DD 6E F3         [19] 1993 	ld	l, -13 (ix)
    00000B84 DD 66 F4         [19] 1994 	ld	h, -12 (ix)
    00000B87 7E               [ 7] 1995 	ld	a, (hl)
    00000B88 DD 77 E0         [19] 1996 	ld	-32 (ix), a
    00000B8B 23               [ 6] 1997 	inc	hl
    00000B8C 7E               [ 7] 1998 	ld	a, (hl)
    00000B8D DD 77 E1         [19] 1999 	ld	-31 (ix), a
    00000B90 DD 7E E0         [19] 2000 	ld	a, -32 (ix)
    00000B93 DD 96 F0         [19] 2001 	sub	a, -16 (ix)
    00000B96 DD 7E E1         [19] 2002 	ld	a, -31 (ix)
    00000B99 DD 9E F1         [19] 2003 	sbc	a, -15 (ix)
    00000B9C 30 58            [12] 2004 	jr	NC, 00200$
    00000B9E DD 6E FA         [19] 2005 	ld	l, -6 (ix)
    00000BA1 DD 66 FB         [19] 2006 	ld	h, -5 (ix)
    00000BA4 7E               [ 7] 2007 	ld	a, (hl)
    00000BA5 DD 77 F9         [19] 2008 	ld	-7 (ix), a
    00000BA8 DD 77 F8         [19] 2009 	ld	-8 (ix), a
    00000BAB 07               [ 4] 2010 	rlca
    00000BAC 9F               [ 4] 2011 	sbc	a, a
    00000BAD DD 77 F9         [19] 2012 	ld	-7 (ix), a
    00000BB0 DD 7E E0         [19] 2013 	ld	a, -32 (ix)
    00000BB3 DD 77 E2         [19] 2014 	ld	-30 (ix), a
    00000BB6 DD 7E E1         [19] 2015 	ld	a, -31 (ix)
    00000BB9 DD 77 E3         [19] 2016 	ld	-29 (ix), a
    00000BBC DD 7E F8         [19] 2017 	ld	a, -8 (ix)
    00000BBF DD 77 EE         [19] 2018 	ld	-18 (ix), a
    00000BC2 DD 7E F9         [19] 2019 	ld	a, -7 (ix)
    00000BC5 DD 77 EF         [19] 2020 	ld	-17 (ix), a
    00000BC8 DD 7E EE         [19] 2021 	ld	a, -18 (ix)
    00000BCB DD 86 E2         [19] 2022 	add	a, -30 (ix)
    00000BCE DD 77 F8         [19] 2023 	ld	-8 (ix), a
    00000BD1 DD 7E EF         [19] 2024 	ld	a, -17 (ix)
    00000BD4 DD 8E E3         [19] 2025 	adc	a, -29 (ix)
    00000BD7 DD 77 F9         [19] 2026 	ld	-7 (ix), a
    00000BDA DD 7E F0         [19] 2027 	ld	a, -16 (ix)
    00000BDD DD 96 F8         [19] 2028 	sub	a, -8 (ix)
    00000BE0 DD 7E F1         [19] 2029 	ld	a, -15 (ix)
    00000BE3 DD 9E F9         [19] 2030 	sbc	a, -7 (ix)
    00000BE6 30 0E            [12] 2031 	jr	NC, 00200$
    00000BE8 DD 7E F0         [19] 2032 	ld	a, -16 (ix)
    00000BEB DD 4E E0         [19] 2033 	ld	c, -32 (ix)
    00000BEE 91               [ 4] 2034 	sub	a, c
    00000BEF DD 6E FA         [19] 2035 	ld	l, -6 (ix)
    00000BF2 DD 66 FB         [19] 2036 	ld	h, -5 (ix)
    00000BF5 77               [ 7] 2037 	ld	(hl), a
    00000BF6                       2038 00200$:
                                   2039 ;E:\Dropbox\FAUSTO\SVILUPPI\MSX\CODE\C\MSXgl\projects\soccerlgMSX2/soccerlg_s12_b3.c:234: if (target_gk_y < GK->ly && GK->ly + GK->dy < target_gk_y) GK->dy = target_gk_y - GK->ly;
    00000BF6 DD 6E F3         [19] 2040 	ld	l, -13 (ix)
    00000BF9 DD 66 F4         [19] 2041 	ld	h, -12 (ix)
    00000BFC 7E               [ 7] 2042 	ld	a, (hl)
    00000BFD DD 77 E0         [19] 2043 	ld	-32 (ix), a
    00000C00 23               [ 6] 2044 	inc	hl
    00000C01 7E               [ 7] 2045 	ld	a, (hl)
    00000C02 DD 77 E1         [19] 2046 	ld	-31 (ix), a
    00000C05 DD 7E F0         [19] 2047 	ld	a, -16 (ix)
    00000C08 DD 96 E0         [19] 2048 	sub	a, -32 (ix)
    00000C0B DD 7E F1         [19] 2049 	ld	a, -15 (ix)
    00000C0E DD 9E E1         [19] 2050 	sbc	a, -31 (ix)
    00000C11 30 58            [12] 2051 	jr	NC, 00203$
    00000C13 DD 6E FA         [19] 2052 	ld	l, -6 (ix)
    00000C16 DD 66 FB         [19] 2053 	ld	h, -5 (ix)
    00000C19 7E               [ 7] 2054 	ld	a, (hl)
    00000C1A DD 77 F9         [19] 2055 	ld	-7 (ix), a
    00000C1D DD 77 F8         [19] 2056 	ld	-8 (ix), a
    00000C20 07               [ 4] 2057 	rlca
    00000C21 9F               [ 4] 2058 	sbc	a, a
    00000C22 DD 77 F9         [19] 2059 	ld	-7 (ix), a
    00000C25 DD 7E E0         [19] 2060 	ld	a, -32 (ix)
    00000C28 DD 77 E2         [19] 2061 	ld	-30 (ix), a
    00000C2B DD 7E E1         [19] 2062 	ld	a, -31 (ix)
    00000C2E DD 77 E3         [19] 2063 	ld	-29 (ix), a
    00000C31 DD 7E F8         [19] 2064 	ld	a, -8 (ix)
    00000C34 DD 77 EE         [19] 2065 	ld	-18 (ix), a
    00000C37 DD 7E F9         [19] 2066 	ld	a, -7 (ix)
    00000C3A DD 77 EF         [19] 2067 	ld	-17 (ix), a
    00000C3D DD 7E EE         [19] 2068 	ld	a, -18 (ix)
    00000C40 DD 86 E2         [19] 2069 	add	a, -30 (ix)
    00000C43 DD 77 F8         [19] 2070 	ld	-8 (ix), a
    00000C46 DD 7E EF         [19] 2071 	ld	a, -17 (ix)
    00000C49 DD 8E E3         [19] 2072 	adc	a, -29 (ix)
    00000C4C DD 77 F9         [19] 2073 	ld	-7 (ix), a
    00000C4F DD 7E F8         [19] 2074 	ld	a, -8 (ix)
    00000C52 DD 96 F0         [19] 2075 	sub	a, -16 (ix)
    00000C55 DD 7E F9         [19] 2076 	ld	a, -7 (ix)
    00000C58 DD 9E F1         [19] 2077 	sbc	a, -15 (ix)
    00000C5B 30 0E            [12] 2078 	jr	NC, 00203$
    00000C5D DD 7E F0         [19] 2079 	ld	a, -16 (ix)
    00000C60 DD 4E E0         [19] 2080 	ld	c, -32 (ix)
    00000C63 91               [ 4] 2081 	sub	a, c
    00000C64 DD 6E FA         [19] 2082 	ld	l, -6 (ix)
    00000C67 DD 66 FB         [19] 2083 	ld	h, -5 (ix)
    00000C6A 77               [ 7] 2084 	ld	(hl), a
    00000C6B                       2085 00203$:
                                   2086 ;E:\Dropbox\FAUSTO\SVILUPPI\MSX\CODE\C\MSXgl\projects\soccerlgMSX2/soccerlg_s12_b3.c:235: GK->ly += GK->dy;
    00000C6B DD 6E F3         [19] 2087 	ld	l, -13 (ix)
    00000C6E DD 66 F4         [19] 2088 	ld	h, -12 (ix)
    00000C71 7E               [ 7] 2089 	ld	a, (hl)
    00000C72 DD 77 F1         [19] 2090 	ld	-15 (ix), a
    00000C75 23               [ 6] 2091 	inc	hl
    00000C76 7E               [ 7] 2092 	ld	a, (hl)
    00000C77 DD 77 F2         [19] 2093 	ld	-14 (ix), a
    00000C7A DD 6E FA         [19] 2094 	ld	l, -6 (ix)
    00000C7D DD 66 FB         [19] 2095 	ld	h, -5 (ix)
    00000C80 7E               [ 7] 2096 	ld	a, (hl)
    00000C81 DD 77 F9         [19] 2097 	ld	-7 (ix), a
    00000C84 DD 77 F8         [19] 2098 	ld	-8 (ix), a
    00000C87 07               [ 4] 2099 	rlca
    00000C88 9F               [ 4] 2100 	sbc	a, a
    00000C89 DD 77 F9         [19] 2101 	ld	-7 (ix), a
    00000C8C DD 7E F1         [19] 2102 	ld	a, -15 (ix)
    00000C8F DD 77 EF         [19] 2103 	ld	-17 (ix), a
    00000C92 DD 7E F2         [19] 2104 	ld	a, -14 (ix)
    00000C95 DD 77 F0         [19] 2105 	ld	-16 (ix), a
    00000C98 DD 7E F8         [19] 2106 	ld	a, -8 (ix)
    00000C9B DD 77 F1         [19] 2107 	ld	-15 (ix), a
    00000C9E DD 7E F9         [19] 2108 	ld	a, -7 (ix)
    00000CA1 DD 77 F2         [19] 2109 	ld	-14 (ix), a
    00000CA4 DD 7E EF         [19] 2110 	ld	a, -17 (ix)
    00000CA7 DD 86 F1         [19] 2111 	add	a, -15 (ix)
    00000CAA DD 77 F8         [19] 2112 	ld	-8 (ix), a
    00000CAD DD 7E F0         [19] 2113 	ld	a, -16 (ix)
    00000CB0 DD 8E F2         [19] 2114 	adc	a, -14 (ix)
    00000CB3 DD 77 F9         [19] 2115 	ld	-7 (ix), a
    00000CB6 DD 6E F3         [19] 2116 	ld	l, -13 (ix)
    00000CB9 DD 66 F4         [19] 2117 	ld	h, -12 (ix)
    00000CBC DD 7E F8         [19] 2118 	ld	a, -8 (ix)
    00000CBF 77               [ 7] 2119 	ld	(hl), a
    00000CC0 23               [ 6] 2120 	inc	hl
    00000CC1 DD 7E F9         [19] 2121 	ld	a, -7 (ix)
    00000CC4 77               [ 7] 2122 	ld	(hl), a
    00000CC5 C3rD0r0C         [10] 2123 	jp	00207$
    00000CC8                       2124 00206$:
                                   2125 ;E:\Dropbox\FAUSTO\SVILUPPI\MSX\CODE\C\MSXgl\projects\soccerlgMSX2/soccerlg_s12_b3.c:237: GK->dy = 0;
    00000CC8 DD 6E FA         [19] 2126 	ld	l, -6 (ix)
    00000CCB DD 66 FB         [19] 2127 	ld	h, -5 (ix)
    00000CCE 36 00            [10] 2128 	ld	(hl), #0x00
    00000CD0                       2129 00207$:
                                   2130 ;E:\Dropbox\FAUSTO\SVILUPPI\MSX\CODE\C\MSXgl\projects\soccerlgMSX2/soccerlg_s12_b3.c:240: if (GK->lx != target_gk_x) {
    00000CD0 DD 6E E9         [19] 2131 	ld	l, -23 (ix)
    00000CD3 DD 66 EA         [19] 2132 	ld	h, -22 (ix)
    00000CD6 7E               [ 7] 2133 	ld	a, (hl)
    00000CD7 DD 77 F7         [19] 2134 	ld	-9 (ix), a
    00000CDA DD 77 F8         [19] 2135 	ld	-8 (ix), a
    00000CDD DD 36 F9 00      [19] 2136 	ld	-7 (ix), #0x00
                                   2137 ;E:\Dropbox\FAUSTO\SVILUPPI\MSX\CODE\C\MSXgl\projects\soccerlgMSX2/soccerlg_s12_b3.c:241: GK->dx = (Ball->lx > GK->lx) ? 2 : -2;
    00000CE1 DD 7E E9         [19] 2138 	ld	a, -23 (ix)
    00000CE4 C6 11            [ 7] 2139 	add	a, #0x11
    00000CE6 DD 77 EF         [19] 2140 	ld	-17 (ix), a
    00000CE9 DD 7E EA         [19] 2141 	ld	a, -22 (ix)
    00000CEC CE 00            [ 7] 2142 	adc	a, #0x00
    00000CEE DD 77 F0         [19] 2143 	ld	-16 (ix), a
                                   2144 ;E:\Dropbox\FAUSTO\SVILUPPI\MSX\CODE\C\MSXgl\projects\soccerlgMSX2/soccerlg_s12_b3.c:240: if (GK->lx != target_gk_x) {
    00000CF1 DD 7E EC         [19] 2145 	ld	a, -20 (ix)
    00000CF4 DD 96 F8         [19] 2146 	sub	a, -8 (ix)
    00000CF7 20 09            [12] 2147 	jr	NZ, 00923$
    00000CF9 DD 7E ED         [19] 2148 	ld	a, -19 (ix)
    00000CFC DD 96 F9         [19] 2149 	sub	a, -7 (ix)
    00000CFF CArFDr0D         [10] 2150 	jp	Z,00215$
    00000D02                       2151 00923$:
                                   2152 ;E:\Dropbox\FAUSTO\SVILUPPI\MSX\CODE\C\MSXgl\projects\soccerlgMSX2/soccerlg_s12_b3.c:241: GK->dx = (Ball->lx > GK->lx) ? 2 : -2;
    00000D02 21r42r01         [10] 2153 	ld	hl, #(_SwSprite + 322)
    00000D05 DD 7E F7         [19] 2154 	ld	a,-9 (ix)
    00000D08 96               [ 7] 2155 	sub	a,(hl)
    00000D09 30 06            [12] 2156 	jr	NC, 00301$
    00000D0B 11 02 00         [10] 2157 	ld	de, #0x0002
    00000D0E C3r14r0D         [10] 2158 	jp	00302$
    00000D11                       2159 00301$:
    00000D11 11 FE FF         [10] 2160 	ld	de, #0xfffe
    00000D14                       2161 00302$:
    00000D14 DD 6E EF         [19] 2162 	ld	l, -17 (ix)
    00000D17 DD 66 F0         [19] 2163 	ld	h, -16 (ix)
    00000D1A 73               [ 7] 2164 	ld	(hl), e
                                   2165 ;E:\Dropbox\FAUSTO\SVILUPPI\MSX\CODE\C\MSXgl\projects\soccerlgMSX2/soccerlg_s12_b3.c:242: if (target_gk_x > GK->lx && GK->lx + GK->dx > target_gk_x) GK->dx = target_gk_x - GK->lx;
    00000D1B DD 6E E9         [19] 2166 	ld	l, -23 (ix)
    00000D1E DD 66 EA         [19] 2167 	ld	h, -22 (ix)
    00000D21 7E               [ 7] 2168 	ld	a, (hl)
    00000D22 DD 77 F7         [19] 2169 	ld	-9 (ix), a
    00000D25 06 00            [ 7] 2170 	ld	b, #0x00
    00000D27 DD 96 EC         [19] 2171 	sub	a, -20 (ix)
    00000D2A 78               [ 4] 2172 	ld	a, b
    00000D2B DD 9E ED         [19] 2173 	sbc	a, -19 (ix)
    00000D2E 30 49            [12] 2174 	jr	NC, 00209$
    00000D30 DD 7E F7         [19] 2175 	ld	a, -9 (ix)
    00000D33 DD 77 F1         [19] 2176 	ld	-15 (ix), a
    00000D36 DD 36 F2 00      [19] 2177 	ld	-14 (ix), #0x00
    00000D3A DD 6E EF         [19] 2178 	ld	l, -17 (ix)
    00000D3D DD 66 F0         [19] 2179 	ld	h, -16 (ix)
    00000D40 7E               [ 7] 2180 	ld	a, (hl)
    00000D41 DD 77 F9         [19] 2181 	ld	-7 (ix), a
    00000D44 DD 77 F3         [19] 2182 	ld	-13 (ix), a
    00000D47 07               [ 4] 2183 	rlca
    00000D48 9F               [ 4] 2184 	sbc	a, a
    00000D49 DD 77 F4         [19] 2185 	ld	-12 (ix), a
    00000D4C DD 7E F3         [19] 2186 	ld	a, -13 (ix)
    00000D4F DD 86 F1         [19] 2187 	add	a, -15 (ix)
    00000D52 DD 77 F8         [19] 2188 	ld	-8 (ix), a
    00000D55 DD 7E F4         [19] 2189 	ld	a, -12 (ix)
    00000D58 DD 8E F2         [19] 2190 	adc	a, -14 (ix)
    00000D5B DD 77 F9         [19] 2191 	ld	-7 (ix), a
    00000D5E DD 7E EC         [19] 2192 	ld	a, -20 (ix)
    00000D61 DD 96 F8         [19] 2193 	sub	a, -8 (ix)
    00000D64 DD 7E ED         [19] 2194 	ld	a, -19 (ix)
    00000D67 DD 9E F9         [19] 2195 	sbc	a, -7 (ix)
    00000D6A 30 0D            [12] 2196 	jr	NC, 00209$
    00000D6C DD 7E EC         [19] 2197 	ld	a, -20 (ix)
    00000D6F DD 96 F7         [19] 2198 	sub	a, -9 (ix)
    00000D72 DD 6E EF         [19] 2199 	ld	l, -17 (ix)
    00000D75 DD 66 F0         [19] 2200 	ld	h, -16 (ix)
    00000D78 77               [ 7] 2201 	ld	(hl), a
    00000D79                       2202 00209$:
                                   2203 ;E:\Dropbox\FAUSTO\SVILUPPI\MSX\CODE\C\MSXgl\projects\soccerlgMSX2/soccerlg_s12_b3.c:243: if (target_gk_x < GK->lx && GK->lx + GK->dx < target_gk_x) GK->dx = target_gk_x - GK->lx;
    00000D79 DD 6E E9         [19] 2204 	ld	l, -23 (ix)
    00000D7C DD 66 EA         [19] 2205 	ld	h, -22 (ix)
    00000D7F 7E               [ 7] 2206 	ld	a, (hl)
    00000D80 DD 77 F7         [19] 2207 	ld	-9 (ix), a
    00000D83 4F               [ 4] 2208 	ld	c, a
    00000D84 06 00            [ 7] 2209 	ld	b, #0x00
    00000D86 DD 7E EC         [19] 2210 	ld	a, -20 (ix)
    00000D89 91               [ 4] 2211 	sub	a, c
    00000D8A DD 7E ED         [19] 2212 	ld	a, -19 (ix)
    00000D8D 98               [ 4] 2213 	sbc	a, b
    00000D8E 30 49            [12] 2214 	jr	NC, 00212$
    00000D90 DD 7E F7         [19] 2215 	ld	a, -9 (ix)
    00000D93 DD 77 F1         [19] 2216 	ld	-15 (ix), a
    00000D96 DD 36 F2 00      [19] 2217 	ld	-14 (ix), #0x00
    00000D9A DD 6E EF         [19] 2218 	ld	l, -17 (ix)
    00000D9D DD 66 F0         [19] 2219 	ld	h, -16 (ix)
    00000DA0 7E               [ 7] 2220 	ld	a, (hl)
    00000DA1 DD 77 F9         [19] 2221 	ld	-7 (ix), a
    00000DA4 DD 77 F3         [19] 2222 	ld	-13 (ix), a
    00000DA7 07               [ 4] 2223 	rlca
    00000DA8 9F               [ 4] 2224 	sbc	a, a
    00000DA9 DD 77 F4         [19] 2225 	ld	-12 (ix), a
    00000DAC DD 7E F3         [19] 2226 	ld	a, -13 (ix)
    00000DAF DD 86 F1         [19] 2227 	add	a, -15 (ix)
    00000DB2 DD 77 F8         [19] 2228 	ld	-8 (ix), a
    00000DB5 DD 7E F4         [19] 2229 	ld	a, -12 (ix)
    00000DB8 DD 8E F2         [19] 2230 	adc	a, -14 (ix)
    00000DBB DD 77 F9         [19] 2231 	ld	-7 (ix), a
    00000DBE DD 7E F8         [19] 2232 	ld	a, -8 (ix)
    00000DC1 DD 96 EC         [19] 2233 	sub	a, -20 (ix)
    00000DC4 DD 7E F9         [19] 2234 	ld	a, -7 (ix)
    00000DC7 DD 9E ED         [19] 2235 	sbc	a, -19 (ix)
    00000DCA 30 0D            [12] 2236 	jr	NC, 00212$
    00000DCC DD 7E EC         [19] 2237 	ld	a, -20 (ix)
    00000DCF DD 96 F7         [19] 2238 	sub	a, -9 (ix)
    00000DD2 DD 6E EF         [19] 2239 	ld	l, -17 (ix)
    00000DD5 DD 66 F0         [19] 2240 	ld	h, -16 (ix)
    00000DD8 77               [ 7] 2241 	ld	(hl), a
    00000DD9                       2242 00212$:
                                   2243 ;E:\Dropbox\FAUSTO\SVILUPPI\MSX\CODE\C\MSXgl\projects\soccerlgMSX2/soccerlg_s12_b3.c:244: GK->lx += GK->dx;
    00000DD9 DD 6E E9         [19] 2244 	ld	l, -23 (ix)
    00000DDC DD 66 EA         [19] 2245 	ld	h, -22 (ix)
    00000DDF 7E               [ 7] 2246 	ld	a, (hl)
    00000DE0 DD 77 F9         [19] 2247 	ld	-7 (ix), a
    00000DE3 DD 6E EF         [19] 2248 	ld	l, -17 (ix)
    00000DE6 DD 66 F0         [19] 2249 	ld	h, -16 (ix)
    00000DE9 7E               [ 7] 2250 	ld	a, (hl)
    00000DEA DD 77 F8         [19] 2251 	ld	-8 (ix), a
    00000DED DD 7E F9         [19] 2252 	ld	a, -7 (ix)
    00000DF0 DD 86 F8         [19] 2253 	add	a, -8 (ix)
    00000DF3 DD 6E E9         [19] 2254 	ld	l, -23 (ix)
    00000DF6 DD 66 EA         [19] 2255 	ld	h, -22 (ix)
    00000DF9 77               [ 7] 2256 	ld	(hl), a
    00000DFA C3r05r0E         [10] 2257 	jp	00216$
    00000DFD                       2258 00215$:
                                   2259 ;E:\Dropbox\FAUSTO\SVILUPPI\MSX\CODE\C\MSXgl\projects\soccerlgMSX2/soccerlg_s12_b3.c:246: GK->dx = 0;
    00000DFD DD 6E EF         [19] 2260 	ld	l, -17 (ix)
    00000E00 DD 66 F0         [19] 2261 	ld	h, -16 (ix)
    00000E03 36 00            [10] 2262 	ld	(hl), #0x00
    00000E05                       2263 00216$:
                                   2264 ;E:\Dropbox\FAUSTO\SVILUPPI\MSX\CODE\C\MSXgl\projects\soccerlgMSX2/soccerlg_s12_b3.c:249: GK->anim++;
    00000E05 DD 6E E9         [19] 2265 	ld	l, -23 (ix)
    00000E08 DD 66 EA         [19] 2266 	ld	h, -22 (ix)
    00000E0B 11 13 00         [10] 2267 	ld	de, #0x0013
    00000E0E 19               [11] 2268 	add	hl, de
    00000E0F 5E               [ 7] 2269 	ld	e, (hl)
    00000E10 23               [ 6] 2270 	inc	hl
    00000E11 56               [ 7] 2271 	ld	d, (hl)
    00000E12 2B               [ 6] 2272 	dec	hl
    00000E13 13               [ 6] 2273 	inc	de
    00000E14 73               [ 7] 2274 	ld	(hl), e
    00000E15 23               [ 6] 2275 	inc	hl
    00000E16 72               [ 7] 2276 	ld	(hl), d
                                   2277 ;E:\Dropbox\FAUSTO\SVILUPPI\MSX\CODE\C\MSXgl\projects\soccerlgMSX2/soccerlg_s12_b3.c:250: const u8 walk_seq[4] = {0, 1, 2, 1};
    00000E17 DD 36 E4 00      [19] 2278 	ld	-28 (ix), #0x00
    00000E1B DD 36 E5 01      [19] 2279 	ld	-27 (ix), #0x01
    00000E1F DD 36 E6 02      [19] 2280 	ld	-26 (ix), #0x02
    00000E23 DD 36 E7 01      [19] 2281 	ld	-25 (ix), #0x01
                                   2282 ;E:\Dropbox\FAUSTO\SVILUPPI\MSX\CODE\C\MSXgl\projects\soccerlgMSX2/soccerlg_s12_b3.c:251: GK->frame = CallFnc_U16_P4(SEG_GAMESTATE_2, GetPlayerAnimFrame, gk, GK->dx, GK->dy, walk_seq[(GK->anim / 3) % 4]);
    00000E27 EB               [ 4] 2283 	ex	de, hl
    00000E28 11 03 00         [10] 2284 	ld	de, #0x0003
    00000E2B CDr00r00         [17] 2285 	call	__divuint
    00000E2E 7B               [ 4] 2286 	ld	a, e
    00000E2F E6 03            [ 7] 2287 	and	a, #0x03
    00000E31 4F               [ 4] 2288 	ld	c, a
    00000E32 06 00            [ 7] 2289 	ld	b, #0x00
    00000E34 21 04 00         [10] 2290 	ld	hl, #4
    00000E37 39               [11] 2291 	add	hl, sp
    00000E38 09               [11] 2292 	add	hl, bc
    00000E39 56               [ 7] 2293 	ld	d, (hl)
    00000E3A DD 6E FA         [19] 2294 	ld	l, -6 (ix)
    00000E3D DD 66 FB         [19] 2295 	ld	h, -5 (ix)
    00000E40 46               [ 7] 2296 	ld	b, (hl)
    00000E41 DD 6E EF         [19] 2297 	ld	l, -17 (ix)
    00000E44 DD 66 F0         [19] 2298 	ld	h, -16 (ix)
    00000E47 7E               [ 7] 2299 	ld	a, (hl)
    00000E48 58               [ 4] 2300 	ld	e, b
    00000E49 D5               [11] 2301 	push	de
    00000E4A F5               [11] 2302 	push	af
    00000E4B 33               [ 6] 2303 	inc	sp
    00000E4C DD 7E E8         [19] 2304 	ld	a, -24 (ix)
    00000E4F F5               [11] 2305 	push	af
    00000E50 33               [ 6] 2306 	inc	sp
    00000E51 11r00r00         [10] 2307 	ld	de, #_GetPlayerAnimFrame
    00000E54 3E 0B            [ 7] 2308 	ld	a, #0x0b
    00000E56 CDr00r00         [17] 2309 	call	_CallFnc_U16_P4
    00000E59 DD 6E F5         [19] 2310 	ld	l, -11 (ix)
    00000E5C DD 66 F6         [19] 2311 	ld	h, -10 (ix)
    00000E5F 73               [ 7] 2312 	ld	(hl), e
    00000E60 23               [ 6] 2313 	inc	hl
    00000E61 72               [ 7] 2314 	ld	(hl), d
    00000E62 C3rE8r10         [10] 2315 	jp	00242$
    00000E65                       2316 00224$:
                                   2317 ;E:\Dropbox\FAUSTO\SVILUPPI\MSX\CODE\C\MSXgl\projects\soccerlgMSX2/soccerlg_s12_b3.c:254: u8 target = (g_selected_rec == 0) ? g_throw_rec_1 : g_throw_rec_2;
    00000E65 3Ar00r00         [13] 2318 	ld	a, (_g_selected_rec+0)
    00000E68 B7               [ 4] 2319 	or	a, a
    00000E69 20 06            [12] 2320 	jr	NZ, 00303$
    00000E6B 3Ar00r00         [13] 2321 	ld	a, (_g_throw_rec_1+0)
    00000E6E C3r74r0E         [10] 2322 	jp	00304$
    00000E71                       2323 00303$:
    00000E71 3Ar00r00         [13] 2324 	ld	a, (_g_throw_rec_2+0)
    00000E74                       2325 00304$:
    00000E74 DD 77 FB         [19] 2326 	ld	-5 (ix), a
                                   2327 ;E:\Dropbox\FAUSTO\SVILUPPI\MSX\CODE\C\MSXgl\projects\soccerlgMSX2/soccerlg_s12_b3.c:255: if (!is_human) target = ((Frms % 2) == 0) ? g_throw_rec_1 : g_throw_rec_2;
    00000E77 DD 7E F2         [19] 2328 	ld	a, -14 (ix)
    00000E7A B7               [ 4] 2329 	or	a, a
    00000E7B 20 13            [12] 2330 	jr	NZ, 00218$
    00000E7D 21r00r00         [10] 2331 	ld	hl, #_Frms
    00000E80 CB 46            [12] 2332 	bit	0, (hl)
    00000E82 20 06            [12] 2333 	jr	NZ, 00305$
    00000E84 3Ar00r00         [13] 2334 	ld	a, (_g_throw_rec_1+0)
    00000E87 C3r8Dr0E         [10] 2335 	jp	00306$
    00000E8A                       2336 00305$:
    00000E8A 3Ar00r00         [13] 2337 	ld	a, (_g_throw_rec_2+0)
    00000E8D                       2338 00306$:
    00000E8D DD 77 FB         [19] 2339 	ld	-5 (ix), a
    00000E90                       2340 00218$:
                                   2341 ;E:\Dropbox\FAUSTO\SVILUPPI\MSX\CODE\C\MSXgl\projects\soccerlgMSX2/soccerlg_s12_b3.c:257: g_pass_start_x = Ball->lx;
    00000E90 DD 7E EB         [19] 2342 	ld	a, -21 (ix)
    00000E93 32r00r00         [13] 2343 	ld	(_g_pass_start_x+0), a
    00000E96 21r01r00         [10] 2344 	ld	hl, #_g_pass_start_x + 1
    00000E99 36 00            [10] 2345 	ld	(hl), #0x00
                                   2346 ;E:\Dropbox\FAUSTO\SVILUPPI\MSX\CODE\C\MSXgl\projects\soccerlgMSX2/soccerlg_s12_b3.c:258: g_pass_start_y = Ball->ly;
    00000E9B 21r46r01         [10] 2347 	ld	hl, #(_SwSprite + 326)
    00000E9E 7E               [ 7] 2348 	ld	a, (hl)
    00000E9F 23               [ 6] 2349 	inc	hl
    00000EA0 32r00r00         [13] 2350 	ld	(_g_pass_start_y+0), a
    00000EA3 7E               [ 7] 2351 	ld	a, (hl)
    00000EA4 32r01r00         [13] 2352 	ld	(_g_pass_start_y+1), a
                                   2353 ;E:\Dropbox\FAUSTO\SVILUPPI\MSX\CODE\C\MSXgl\projects\soccerlgMSX2/soccerlg_s12_b3.c:259: g_pass_target_x = SwSprite[target].lx;
    00000EA7 DD 4E FB         [19] 2354 	ld	c, -5 (ix)
    00000EAA 06 00            [ 7] 2355 	ld	b, #0x00
    00000EAC 69               [ 4] 2356 	ld	l, c
    00000EAD 60               [ 4] 2357 	ld	h, b
    00000EAE 29               [11] 2358 	add	hl, hl
    00000EAF 29               [11] 2359 	add	hl, hl
    00000EB0 09               [11] 2360 	add	hl, bc
    00000EB1 29               [11] 2361 	add	hl, hl
    00000EB2 09               [11] 2362 	add	hl, bc
    00000EB3 29               [11] 2363 	add	hl, hl
    00000EB4 09               [11] 2364 	add	hl, bc
    00000EB5 EB               [ 4] 2365 	ex	de, hl
    00000EB6 21r00r00         [10] 2366 	ld	hl, #_SwSprite
    00000EB9 19               [11] 2367 	add	hl, de
    00000EBA EB               [ 4] 2368 	ex	de, hl
    00000EBB 1A               [ 7] 2369 	ld	a, (de)
    00000EBC 32r00r00         [13] 2370 	ld	(_g_pass_target_x+0), a
    00000EBF AF               [ 4] 2371 	xor	a, a
    00000EC0 32r01r00         [13] 2372 	ld	(_g_pass_target_x+1), a
                                   2373 ;E:\Dropbox\FAUSTO\SVILUPPI\MSX\CODE\C\MSXgl\projects\soccerlgMSX2/soccerlg_s12_b3.c:260: g_pass_target_y = SwSprite[target].ly;
    00000EC3 21 04 00         [10] 2374 	ld	hl, #4
    00000EC6 19               [11] 2375 	add	hl, de
    00000EC7 7E               [ 7] 2376 	ld	a, (hl)
    00000EC8 23               [ 6] 2377 	inc	hl
    00000EC9 32r00r00         [13] 2378 	ld	(_g_pass_target_y+0), a
    00000ECC 7E               [ 7] 2379 	ld	a, (hl)
    00000ECD 32r01r00         [13] 2380 	ld	(_g_pass_target_y+1), a
                                   2381 ;E:\Dropbox\FAUSTO\SVILUPPI\MSX\CODE\C\MSXgl\projects\soccerlgMSX2/soccerlg_s12_b3.c:262: u16 dist_x = (g_pass_target_x > g_pass_start_x) ? (g_pass_target_x - g_pass_start_x) : (g_pass_start_x - g_pass_target_x);
    00000ED0 21r00r00         [10] 2382 	ld	hl, #_g_pass_start_x
    00000ED3 7E               [ 7] 2383 	ld	a, (hl)
    00000ED4 FD 21r00r00      [14] 2384 	ld	iy, #_g_pass_target_x
    00000ED8 FD 96 00         [19] 2385 	sub	a, 0 (iy)
    00000EDB 23               [ 6] 2386 	inc	hl
    00000EDC 7E               [ 7] 2387 	ld	a, (hl)
    00000EDD FD 9E 01         [19] 2388 	sbc	a, 1 (iy)
    00000EE0 30 0D            [12] 2389 	jr	NC, 00307$
    00000EE2 ED 4Br00r00      [20] 2390 	ld	bc, (_g_pass_start_x)
    00000EE6 2Ar00r00         [16] 2391 	ld	hl, (_g_pass_target_x)
    00000EE9 BF               [ 4] 2392 	cp	a, a
    00000EEA ED 42            [15] 2393 	sbc	hl, bc
    00000EEC C3rF9r0E         [10] 2394 	jp	00308$
    00000EEF                       2395 00307$:
    00000EEF ED 4Br00r00      [20] 2396 	ld	bc, (_g_pass_target_x)
    00000EF3 2Ar00r00         [16] 2397 	ld	hl, (_g_pass_start_x)
    00000EF6 BF               [ 4] 2398 	cp	a, a
    00000EF7 ED 42            [15] 2399 	sbc	hl, bc
    00000EF9                       2400 00308$:
    00000EF9 EB               [ 4] 2401 	ex	de, hl
                                   2402 ;E:\Dropbox\FAUSTO\SVILUPPI\MSX\CODE\C\MSXgl\projects\soccerlgMSX2/soccerlg_s12_b3.c:263: u16 dist_y = (g_pass_target_y > g_pass_start_y) ? (g_pass_target_y - g_pass_start_y) : (g_pass_start_y - g_pass_target_y);
    00000EFA 21r00r00         [10] 2403 	ld	hl, #_g_pass_start_y
    00000EFD 7E               [ 7] 2404 	ld	a, (hl)
    00000EFE FD 21r00r00      [14] 2405 	ld	iy, #_g_pass_target_y
    00000F02 FD 96 00         [19] 2406 	sub	a, 0 (iy)
    00000F05 23               [ 6] 2407 	inc	hl
    00000F06 7E               [ 7] 2408 	ld	a, (hl)
    00000F07 FD 9E 01         [19] 2409 	sbc	a, 1 (iy)
    00000F0A 30 0D            [12] 2410 	jr	NC, 00309$
    00000F0C ED 4Br00r00      [20] 2411 	ld	bc, (_g_pass_start_y)
    00000F10 2Ar00r00         [16] 2412 	ld	hl, (_g_pass_target_y)
    00000F13 BF               [ 4] 2413 	cp	a, a
    00000F14 ED 42            [15] 2414 	sbc	hl, bc
    00000F16 C3r23r0F         [10] 2415 	jp	00310$
    00000F19                       2416 00309$:
    00000F19 ED 4Br00r00      [20] 2417 	ld	bc, (_g_pass_target_y)
    00000F1D 2Ar00r00         [16] 2418 	ld	hl, (_g_pass_start_y)
    00000F20 BF               [ 4] 2419 	cp	a, a
    00000F21 ED 42            [15] 2420 	sbc	hl, bc
    00000F23                       2421 00310$:
                                   2422 ;E:\Dropbox\FAUSTO\SVILUPPI\MSX\CODE\C\MSXgl\projects\soccerlgMSX2/soccerlg_s12_b3.c:265: g_pass_max_frames = (dist_x + dist_y) / 4; 
    00000F23 19               [11] 2423 	add	hl, de
    00000F24 CB 3C            [ 8] 2424 	srl	h
    00000F26 CB 1D            [ 8] 2425 	rr	l
    00000F28 CB 3C            [ 8] 2426 	srl	h
    00000F2A CB 1D            [ 8] 2427 	rr	l
    00000F2C FD 21r00r00      [14] 2428 	ld	iy, #_g_pass_max_frames
    00000F30 FD 75 00         [19] 2429 	ld	0 (iy), l
                                   2430 ;E:\Dropbox\FAUSTO\SVILUPPI\MSX\CODE\C\MSXgl\projects\soccerlgMSX2/soccerlg_s12_b3.c:266: if (g_pass_max_frames < 20) g_pass_max_frames = 20;
    00000F33 3Ar00r00         [13] 2431 	ld	a, (_g_pass_max_frames+0)
    00000F36 D6 14            [ 7] 2432 	sub	a, #0x14
    00000F38 30 04            [12] 2433 	jr	NC, 00220$
    00000F3A FD 36 00 14      [19] 2434 	ld	0 (iy), #0x14
    00000F3E                       2435 00220$:
                                   2436 ;E:\Dropbox\FAUSTO\SVILUPPI\MSX\CODE\C\MSXgl\projects\soccerlgMSX2/soccerlg_s12_b3.c:267: if (g_pass_max_frames > 60) g_pass_max_frames = 60;
    00000F3E 3E 3C            [ 7] 2437 	ld	a, #0x3c
    00000F40 FD 21r00r00      [14] 2438 	ld	iy, #_g_pass_max_frames
    00000F44 FD 96 00         [19] 2439 	sub	a, 0 (iy)
    00000F47 30 04            [12] 2440 	jr	NC, 00222$
    00000F49 FD 36 00 3C      [19] 2441 	ld	0 (iy), #0x3c
    00000F4D                       2442 00222$:
                                   2443 ;E:\Dropbox\FAUSTO\SVILUPPI\MSX\CODE\C\MSXgl\projects\soccerlgMSX2/soccerlg_s12_b3.c:268: g_pass_max_height = 7;
    00000F4D 21r00r00         [10] 2444 	ld	hl, #_g_pass_max_height
    00000F50 36 07            [10] 2445 	ld	(hl), #0x07
                                   2446 ;E:\Dropbox\FAUSTO\SVILUPPI\MSX\CODE\C\MSXgl\projects\soccerlgMSX2/soccerlg_s12_b3.c:270: Ball->lx = g_pass_start_x;
    00000F52 3Ar00r00         [13] 2447 	ld	a, (_g_pass_start_x+0)
    00000F55 32r42r01         [13] 2448 	ld	(#(_SwSprite + 322)),a
                                   2449 ;E:\Dropbox\FAUSTO\SVILUPPI\MSX\CODE\C\MSXgl\projects\soccerlgMSX2/soccerlg_s12_b3.c:271: Ball->ly = g_pass_start_y;
    00000F58 21r46r01         [10] 2450 	ld	hl, #(_SwSprite + 326)
    00000F5B 3Ar00r00         [13] 2451 	ld	a, (_g_pass_start_y+0)
    00000F5E 77               [ 7] 2452 	ld	(hl), a
    00000F5F 23               [ 6] 2453 	inc	hl
    00000F60 3Ar01r00         [13] 2454 	ld	a, (_g_pass_start_y+1)
    00000F63 77               [ 7] 2455 	ld	(hl), a
                                   2456 ;E:\Dropbox\FAUSTO\SVILUPPI\MSX\CODE\C\MSXgl\projects\soccerlgMSX2/soccerlg_s12_b3.c:272: Ball->anim = 5; 
    00000F64 21 05 00         [10] 2457 	ld	hl, #0x0005
    00000F67 22r55r01         [16] 2458 	ld	((_SwSprite + 341)), hl
                                   2459 ;E:\Dropbox\FAUSTO\SVILUPPI\MSX\CODE\C\MSXgl\projects\soccerlgMSX2/soccerlg_s12_b3.c:273: Ball->count = 0; 
    00000F6A 6C               [ 4] 2460 	ld	l, h
    00000F6B 22r57r01         [16] 2461 	ld	((_SwSprite + 343)), hl
                                   2462 ;E:\Dropbox\FAUSTO\SVILUPPI\MSX\CODE\C\MSXgl\projects\soccerlgMSX2/soccerlg_s12_b3.c:274: Ball->dx = Ball->dy = 0;
    00000F6E 21r54r01         [10] 2463 	ld	hl, #(_SwSprite + 340)
    00000F71 36 00            [10] 2464 	ld	(hl), #0x00
    00000F73 21r53r01         [10] 2465 	ld	hl, #(_SwSprite + 339)
    00000F76 36 00            [10] 2466 	ld	(hl), #0x00
                                   2467 ;E:\Dropbox\FAUSTO\SVILUPPI\MSX\CODE\C\MSXgl\projects\soccerlgMSX2/soccerlg_s12_b3.c:276: CallFnc_VOID(SEG_EVENTS, EventBallKicked);
    00000F78 11r00r00         [10] 2468 	ld	de, #_EventBallKicked
    00000F7B 3E 08            [ 7] 2469 	ld	a, #0x08
    00000F7D CDr00r00         [17] 2470 	call	_CallFnc_VOID
                                   2471 ;E:\Dropbox\FAUSTO\SVILUPPI\MSX\CODE\C\MSXgl\projects\soccerlgMSX2/soccerlg_s12_b3.c:277: LastTouchTeam = (gk == 0) ? TEAM_1 : TEAM_2;
    00000F80 DD 7E E8         [19] 2472 	ld	a, -24 (ix)
    00000F83 B7               [ 4] 2473 	or	a, a
    00000F84 20 06            [12] 2474 	jr	NZ, 00311$
    00000F86 01 00 00         [10] 2475 	ld	bc, #0x0000
    00000F89 C3r8Fr0F         [10] 2476 	jp	00312$
    00000F8C                       2477 00311$:
    00000F8C 01 01 00         [10] 2478 	ld	bc, #0x0001
    00000F8F                       2479 00312$:
    00000F8F 79               [ 4] 2480 	ld	a, c
    00000F90 32r00r00         [13] 2481 	ld	(#_LastTouchTeam), a
                                   2482 ;E:\Dropbox\FAUSTO\SVILUPPI\MSX\CODE\C\MSXgl\projects\soccerlgMSX2/soccerlg_s12_b3.c:278: LastTouchPlayer = gk;
    00000F93 DD 7E E8         [19] 2483 	ld	a, -24 (ix)
    00000F96 32r00r00         [13] 2484 	ld	(_LastTouchPlayer+0), a
                                   2485 ;E:\Dropbox\FAUSTO\SVILUPPI\MSX\CODE\C\MSXgl\projects\soccerlgMSX2/soccerlg_s12_b3.c:279: g_pass_receiver = target;
    00000F99 DD 7E FB         [19] 2486 	ld	a, -5 (ix)
    00000F9C 32r00r00         [13] 2487 	ld	(_g_pass_receiver+0), a
                                   2488 ;E:\Dropbox\FAUSTO\SVILUPPI\MSX\CODE\C\MSXgl\projects\soccerlgMSX2/soccerlg_s12_b3.c:281: GK->ly = (gk == 0) ? 32 : 444; // Scatta sulla sua riga, ma conserva la X esterna
    00000F9F DD 4E F3         [19] 2489 	ld	c, -13 (ix)
    00000FA2 DD 46 F4         [19] 2490 	ld	b, -12 (ix)
    00000FA5 DD 7E E8         [19] 2491 	ld	a, -24 (ix)
    00000FA8 B7               [ 4] 2492 	or	a, a
    00000FA9 20 06            [12] 2493 	jr	NZ, 00313$
    00000FAB 11 20 00         [10] 2494 	ld	de, #0x0020
    00000FAE C3rB4r0F         [10] 2495 	jp	00314$
    00000FB1                       2496 00313$:
    00000FB1 11 BC 01         [10] 2497 	ld	de, #0x01bc
    00000FB4                       2498 00314$:
    00000FB4 7B               [ 4] 2499 	ld	a, e
    00000FB5 02               [ 7] 2500 	ld	(bc), a
    00000FB6 03               [ 6] 2501 	inc	bc
    00000FB7 7A               [ 4] 2502 	ld	a, d
    00000FB8 02               [ 7] 2503 	ld	(bc), a
                                   2504 ;E:\Dropbox\FAUSTO\SVILUPPI\MSX\CODE\C\MSXgl\projects\soccerlgMSX2/soccerlg_s12_b3.c:282: GK->frame = (gk == 0) ? SPR_GK_PLAYER_FACE_TO_SOUTH : SPR_GK_PLAYER_FACE_TO_NORTH;
    00000FB9 DD 7E E8         [19] 2505 	ld	a, -24 (ix)
    00000FBC B7               [ 4] 2506 	or	a, a
    00000FBD 20 06            [12] 2507 	jr	NZ, 00315$
    00000FBF 01 D5 00         [10] 2508 	ld	bc, #0x00d5
    00000FC2 C3rC8r0F         [10] 2509 	jp	00316$
    00000FC5                       2510 00315$:
    00000FC5 01 D6 00         [10] 2511 	ld	bc, #0x00d6
    00000FC8                       2512 00316$:
    00000FC8 DD 6E F5         [19] 2513 	ld	l, -11 (ix)
    00000FCB DD 66 F6         [19] 2514 	ld	h, -10 (ix)
    00000FCE 71               [ 7] 2515 	ld	(hl), c
    00000FCF 23               [ 6] 2516 	inc	hl
    00000FD0 70               [ 7] 2517 	ld	(hl), b
                                   2518 ;E:\Dropbox\FAUSTO\SVILUPPI\MSX\CODE\C\MSXgl\projects\soccerlgMSX2/soccerlg_s12_b3.c:284: *game_state = 3; // Riparte il gioco istantaneamente
    00000FD1 DD 6E FE         [19] 2519 	ld	l, -2 (ix)
    00000FD4 DD 66 FF         [19] 2520 	ld	h, -1 (ix)
    00000FD7 36 03            [10] 2521 	ld	(hl), #0x03
                                   2522 ;E:\Dropbox\FAUSTO\SVILUPPI\MSX\CODE\C\MSXgl\projects\soccerlgMSX2/soccerlg_s12_b3.c:285: TimerEnabled = TRUE;
    00000FD9 FD 21r00r00      [14] 2523 	ld	iy, #_TimerEnabled
    00000FDD FD 36 00 01      [19] 2524 	ld	0 (iy), #0x01
    00000FE1 C3rE8r10         [10] 2525 	jp	00242$
    00000FE4                       2526 00241$:
                                   2527 ;E:\Dropbox\FAUSTO\SVILUPPI\MSX\CODE\C\MSXgl\projects\soccerlgMSX2/soccerlg_s12_b3.c:289: if (is_human) {
    00000FE4 DD 7E F2         [19] 2528 	ld	a, -14 (ix)
    00000FE7 B7               [ 4] 2529 	or	a, a
    00000FE8 28 62            [12] 2530 	jr	Z, 00236$
                                   2531 ;E:\Dropbox\FAUSTO\SVILUPPI\MSX\CODE\C\MSXgl\projects\soccerlgMSX2/soccerlg_s12_b3.c:290: if (team_to_kick == TEAM_1) T1_Receiver = (g_selected_rec == 0) ? g_throw_rec_1 : g_throw_rec_2;
    00000FEA DD 7E FA         [19] 2532 	ld	a, -6 (ix)
    00000FED B7               [ 4] 2533 	or	a, a
    00000FEE 20 15            [12] 2534 	jr	NZ, 00228$
    00000FF0 3Ar00r00         [13] 2535 	ld	a, (_g_selected_rec+0)
    00000FF3 B7               [ 4] 2536 	or	a, a
    00000FF4 20 06            [12] 2537 	jr	NZ, 00317$
    00000FF6 3Ar00r00         [13] 2538 	ld	a, (_g_throw_rec_1+0)
    00000FF9 C3rFFr0F         [10] 2539 	jp	00318$
    00000FFC                       2540 00317$:
    00000FFC 3Ar00r00         [13] 2541 	ld	a, (_g_throw_rec_2+0)
    00000FFF                       2542 00318$:
    00000FFF 32r00r00         [13] 2543 	ld	(_T1_Receiver+0), a
    00001002 C3r17r10         [10] 2544 	jp	00229$
    00001005                       2545 00228$:
                                   2546 ;E:\Dropbox\FAUSTO\SVILUPPI\MSX\CODE\C\MSXgl\projects\soccerlgMSX2/soccerlg_s12_b3.c:291: else T2_Receiver = (g_selected_rec == 0) ? g_throw_rec_1 : g_throw_rec_2;
    00001005 3Ar00r00         [13] 2547 	ld	a, (_g_selected_rec+0)
    00001008 B7               [ 4] 2548 	or	a, a
    00001009 20 06            [12] 2549 	jr	NZ, 00319$
    0000100B 3Ar00r00         [13] 2550 	ld	a, (_g_throw_rec_1+0)
    0000100E C3r14r10         [10] 2551 	jp	00320$
    00001011                       2552 00319$:
    00001011 3Ar00r00         [13] 2553 	ld	a, (_g_throw_rec_2+0)
    00001014                       2554 00320$:
    00001014 32r00r00         [13] 2555 	ld	(_T2_Receiver+0), a
    00001017                       2556 00229$:
                                   2557 ;E:\Dropbox\FAUSTO\SVILUPPI\MSX\CODE\C\MSXgl\projects\soccerlgMSX2/soccerlg_s12_b3.c:293: u8 dir = g_player_input[team_to_kick].direction;
    00001017 01r00r00         [10] 2558 	ld	bc, #_g_player_input+0
    0000101A DD 5E FA         [19] 2559 	ld	e, -6 (ix)
    0000101D 16 00            [ 7] 2560 	ld	d, #0x00
    0000101F 6B               [ 4] 2561 	ld	l, e
    00001020 62               [ 4] 2562 	ld	h, d
    00001021 29               [11] 2563 	add	hl, hl
    00001022 19               [11] 2564 	add	hl, de
    00001023 09               [11] 2565 	add	hl, bc
    00001024 EB               [ 4] 2566 	ex	de, hl
    00001025 1A               [ 7] 2567 	ld	a, (de)
    00001026 4F               [ 4] 2568 	ld	c, a
                                   2569 ;E:\Dropbox\FAUSTO\SVILUPPI\MSX\CODE\C\MSXgl\projects\soccerlgMSX2/soccerlg_s12_b3.c:294: if (dir != DIRECTION_NONE && g_last_input_dir == DIRECTION_NONE) g_selected_rec = 1 - g_selected_rec;
    00001027 B7               [ 4] 2570 	or	a, a
    00001028 28 11            [12] 2571 	jr	Z, 00231$
    0000102A 3Ar00r00         [13] 2572 	ld	a, (_g_last_input_dir+0)
    0000102D B7               [ 4] 2573 	or	a, a
    0000102E 20 0B            [12] 2574 	jr	NZ, 00231$
    00001030 3Ar00r00         [13] 2575 	ld	a, (_g_selected_rec+0)
    00001033 47               [ 4] 2576 	ld	b, a
    00001034 21r00r00         [10] 2577 	ld	hl, #_g_selected_rec
    00001037 3E 01            [ 7] 2578 	ld	a, #0x01
    00001039 90               [ 4] 2579 	sub	a, b
    0000103A 77               [ 7] 2580 	ld	(hl), a
    0000103B                       2581 00231$:
                                   2582 ;E:\Dropbox\FAUSTO\SVILUPPI\MSX\CODE\C\MSXgl\projects\soccerlgMSX2/soccerlg_s12_b3.c:295: g_last_input_dir = dir;
    0000103B 21r00r00         [10] 2583 	ld	hl, #_g_last_input_dir
    0000103E 71               [ 7] 2584 	ld	(hl), c
                                   2585 ;E:\Dropbox\FAUSTO\SVILUPPI\MSX\CODE\C\MSXgl\projects\soccerlgMSX2/soccerlg_s12_b3.c:297: bool do_kick = g_player_input[team_to_kick].trigger_pressed;
    0000103F 13               [ 6] 2586 	inc	de
    00001040 1A               [ 7] 2587 	ld	a, (de)
                                   2588 ;E:\Dropbox\FAUSTO\SVILUPPI\MSX\CODE\C\MSXgl\projects\soccerlgMSX2/soccerlg_s12_b3.c:299: if (do_kick) *wait_secs = 0; // Trigger premuto: inizia subito la rincorsa!
    00001041 B7               [ 4] 2589 	or	a, a
    00001042 28 08            [12] 2590 	jr	Z, 00236$
    00001044 DD 6E FC         [19] 2591 	ld	l, -4 (ix)
    00001047 DD 66 FD         [19] 2592 	ld	h, -3 (ix)
    0000104A 36 00            [10] 2593 	ld	(hl), #0x00
    0000104C                       2594 00236$:
                                   2595 ;E:\Dropbox\FAUSTO\SVILUPPI\MSX\CODE\C\MSXgl\projects\soccerlgMSX2/soccerlg_s12_b3.c:303: i8 look_dx = (Ball->lx > GK->lx) ? 1 : ((Ball->lx < GK->lx) ? -1 : 0);
    0000104C 3Ar42r01         [13] 2596 	ld	a, (#(_SwSprite + 322) + 0)
    0000104F DD 77 FA         [19] 2597 	ld	-6 (ix), a
    00001052 DD 6E E9         [19] 2598 	ld	l, -23 (ix)
    00001055 DD 66 EA         [19] 2599 	ld	h, -22 (ix)
    00001058 7E               [ 7] 2600 	ld	a, (hl)
    00001059 DD 77 FB         [19] 2601 	ld	-5 (ix), a
    0000105C DD 96 FA         [19] 2602 	sub	a, -6 (ix)
    0000105F 30 0B            [12] 2603 	jr	NC, 00321$
    00001061 DD 36 FA 01      [19] 2604 	ld	-6 (ix), #0x01
    00001065 DD 36 FB 00      [19] 2605 	ld	-5 (ix), #0
    00001069 C3r86r10         [10] 2606 	jp	00322$
    0000106C                       2607 00321$:
    0000106C DD 7E FA         [19] 2608 	ld	a, -6 (ix)
    0000106F DD 96 FB         [19] 2609 	sub	a, -5 (ix)
    00001072 30 0B            [12] 2610 	jr	NC, 00323$
    00001074 DD 36 FA FF      [19] 2611 	ld	-6 (ix), #0xff
    00001078 DD 36 FB FF      [19] 2612 	ld	-5 (ix), #0xff
    0000107C C3r86r10         [10] 2613 	jp	00324$
    0000107F                       2614 00323$:
    0000107F AF               [ 4] 2615 	xor	a, a
    00001080 DD 77 FA         [19] 2616 	ld	-6 (ix), a
    00001083 DD 77 FB         [19] 2617 	ld	-5 (ix), a
    00001086                       2618 00324$:
    00001086                       2619 00322$:
    00001086 DD 7E FA         [19] 2620 	ld	a, -6 (ix)
    00001089 DD 77 FB         [19] 2621 	ld	-5 (ix), a
                                   2622 ;E:\Dropbox\FAUSTO\SVILUPPI\MSX\CODE\C\MSXgl\projects\soccerlgMSX2/soccerlg_s12_b3.c:304: i8 look_dy = (Ball->ly > GK->ly) ? 1 : ((Ball->ly < GK->ly) ? -1 : 0);
    0000108C ED 4Br46r01      [20] 2623 	ld	bc, (#(_SwSprite + 326) + 0)
    00001090 DD 6E F3         [19] 2624 	ld	l, -13 (ix)
    00001093 DD 66 F4         [19] 2625 	ld	h, -12 (ix)
    00001096 5E               [ 7] 2626 	ld	e, (hl)
    00001097 23               [ 6] 2627 	inc	hl
    00001098 56               [ 7] 2628 	ld	d, (hl)
    00001099 7B               [ 4] 2629 	ld	a, e
    0000109A 91               [ 4] 2630 	sub	a, c
    0000109B 7A               [ 4] 2631 	ld	a, d
    0000109C 98               [ 4] 2632 	sbc	a, b
    0000109D 30 06            [12] 2633 	jr	NC, 00325$
    0000109F 01 01 00         [10] 2634 	ld	bc, #0x0001
    000010A2 C3rB4r10         [10] 2635 	jp	00326$
    000010A5                       2636 00325$:
    000010A5 79               [ 4] 2637 	ld	a, c
    000010A6 93               [ 4] 2638 	sub	a, e
    000010A7 78               [ 4] 2639 	ld	a, b
    000010A8 9A               [ 4] 2640 	sbc	a, d
    000010A9 30 06            [12] 2641 	jr	NC, 00327$
    000010AB 01 FF FF         [10] 2642 	ld	bc, #0xffff
    000010AE C3rB4r10         [10] 2643 	jp	00328$
    000010B1                       2644 00327$:
    000010B1 01 00 00         [10] 2645 	ld	bc, #0x0000
    000010B4                       2646 00328$:
    000010B4                       2647 00326$:
                                   2648 ;E:\Dropbox\FAUSTO\SVILUPPI\MSX\CODE\C\MSXgl\projects\soccerlgMSX2/soccerlg_s12_b3.c:305: if (look_dx == 0 && look_dy == 0) look_dy = (gk == 0) ? 1 : -1;
    000010B4 DD 7E FB         [19] 2649 	ld	a, -5 (ix)
    000010B7 B7               [ 4] 2650 	or	a,a
    000010B8 20 13            [12] 2651 	jr	NZ, 00238$
    000010BA B1               [ 4] 2652 	or	a,c
    000010BB 20 10            [12] 2653 	jr	NZ, 00238$
    000010BD DD 7E E8         [19] 2654 	ld	a, -24 (ix)
    000010C0 B7               [ 4] 2655 	or	a, a
    000010C1 20 06            [12] 2656 	jr	NZ, 00329$
    000010C3 11 01 00         [10] 2657 	ld	de, #0x0001
    000010C6 C3rCCr10         [10] 2658 	jp	00330$
    000010C9                       2659 00329$:
    000010C9 11 FF FF         [10] 2660 	ld	de, #0xffff
    000010CC                       2661 00330$:
    000010CC 4B               [ 4] 2662 	ld	c, e
    000010CD                       2663 00238$:
                                   2664 ;E:\Dropbox\FAUSTO\SVILUPPI\MSX\CODE\C\MSXgl\projects\soccerlgMSX2/soccerlg_s12_b3.c:306: GK->frame = CallFnc_U16_P3(SEG_GAMESTATE_2, GetPlayerIdleFrame, gk, look_dx, look_dy);
    000010CD 61               [ 4] 2665 	ld	h, c
    000010CE DD 6E FB         [19] 2666 	ld	l, -5 (ix)
    000010D1 E5               [11] 2667 	push	hl
    000010D2 DD 7E E8         [19] 2668 	ld	a, -24 (ix)
    000010D5 F5               [11] 2669 	push	af
    000010D6 33               [ 6] 2670 	inc	sp
    000010D7 11r00r00         [10] 2671 	ld	de, #_GetPlayerIdleFrame
    000010DA 3E 0B            [ 7] 2672 	ld	a, #0x0b
    000010DC CDr00r00         [17] 2673 	call	_CallFnc_U16_P3
    000010DF DD 6E F5         [19] 2674 	ld	l, -11 (ix)
    000010E2 DD 66 F6         [19] 2675 	ld	h, -10 (ix)
    000010E5 73               [ 7] 2676 	ld	(hl), e
    000010E6 23               [ 6] 2677 	inc	hl
    000010E7 72               [ 7] 2678 	ld	(hl), d
    000010E8                       2679 00242$:
                                   2680 ;E:\Dropbox\FAUSTO\SVILUPPI\MSX\CODE\C\MSXgl\projects\soccerlgMSX2/soccerlg_s12_b3.c:308: return;
    000010E8                       2681 00273$:
                                   2682 ;E:\Dropbox\FAUSTO\SVILUPPI\MSX\CODE\C\MSXgl\projects\soccerlgMSX2/soccerlg_s12_b3.c:310: }
    000010E8 DD F9            [10] 2683 	ld	sp, ix
    000010EA DD E1            [14] 2684 	pop	ix
    000010EC E1               [10] 2685 	pop	hl
    000010ED F1               [10] 2686 	pop	af
    000010EE F1               [10] 2687 	pop	af
    000010EF E9               [ 4] 2688 	jp	(hl)
                         0000F380  2689 _g_RDPRIM	=	0xf380
                         0000F385  2690 _g_WRPRIM	=	0xf385
                         0000F38C  2691 _g_CLPRIM	=	0xf38c
                         0000F39A  2692 _g_USRTAB	=	0xf39a
                         0000F3DE  2693 _g_CNSDFG	=	0xf3de
                         0000F3DF  2694 _g_RG0SAV	=	0xf3df
                         0000F3E0  2695 _g_RG1SAV	=	0xf3e0
                         0000F3E1  2696 _g_RG2SAV	=	0xf3e1
                         0000F3E2  2697 _g_RG3SAV	=	0xf3e2
                         0000F3E3  2698 _g_RG4SAV	=	0xf3e3
                         0000F3E4  2699 _g_RG5SAV	=	0xf3e4
                         0000F3E5  2700 _g_RG6SAV	=	0xf3e5
                         0000F3E6  2701 _g_RG7SAV	=	0xf3e6
                         0000F3E7  2702 _g_STATFL	=	0xf3e7
                         0000F3E8  2703 _g_TRGFLG	=	0xf3e8
                         0000F3EC  2704 _g_MAXUPD	=	0xf3ec
                         0000F3EF  2705 _g_MINUPD	=	0xf3ef
                         0000F3F3  2706 _g_QUEUES	=	0xf3f3
                         0000F3F5  2707 _g_FRCNEW	=	0xf3f5
                         0000F3F6  2708 _g_SCNCNT	=	0xf3f6
                         0000F3F7  2709 _g_REPCNT	=	0xf3f7
                         0000F3F8  2710 _g_PUTPNT	=	0xf3f8
                         0000F3FA  2711 _g_GETPNT	=	0xf3fa
                         0000F3FC  2712 _g_CS120	=	0xf3fc
                         0000F401  2713 _g_CS240	=	0xf401
                         0000F406  2714 _g_LOW	=	0xf406
                         0000F408  2715 _g_HIGH	=	0xf408
                         0000F40A  2716 _g_HEADER	=	0xf40a
                         0000F40B  2717 _g_ASPCT1	=	0xf40b
                         0000F40D  2718 _g_ASPCT2	=	0xf40d
                         0000F959  2719 _g_QUETAB	=	0xf959
                         0000F971  2720 _g_QUEBAK	=	0xf971
                         0000F975  2721 _g_VOICAQ	=	0xf975
                         0000F9F5  2722 _g_VOICBQ	=	0xf9f5
                         0000FA75  2723 _g_VOICCQ	=	0xfa75
                         0000FAF5  2724 _g_RS2IQ	=	0xfaf5
                         0000FAF5  2725 _g_DPPAGE	=	0xfaf5
                         0000FAF6  2726 _g_ACPAGE	=	0xfaf6
                         0000FAF7  2727 _g_AVCSAV	=	0xfaf7
                         0000FAF8  2728 _g_EXBRSA	=	0xfaf8
                         0000FAF9  2729 _g_CHRCNT	=	0xfaf9
                         0000FAFA  2730 _g_ROMA	=	0xfafa
                         0000FAFC  2731 _g_MODE	=	0xfafc
                         0000FAFD  2732 _g_NORUSE	=	0xfafd
                         0000FAFE  2733 _g_XSAVE	=	0xfafe
                         0000FB00  2734 _g_YSAVE	=	0xfb00
                         0000FB03  2735 _g_RSTMP	=	0xfb03
                         0000FB03  2736 _g_TOCNT	=	0xfb03
                         0000FB04  2737 _g_RSFCB	=	0xfb04
                         0000FB06  2738 _g_RSIQLN	=	0xfb06
                         0000FB07  2739 _g_MEXBIh	=	0xfb07
                         0000FB0C  2740 _g_OLDSTT	=	0xfb0c
                         0000FB0C  2741 _g_OLDINT	=	0xfb0c
                         0000FB16  2742 _g_DEVNUM	=	0xfb16
                         0000FB17  2743 _g_DATCNT	=	0xfb17
                         0000FB1A  2744 _g_ERRORS	=	0xfb1a
                         0000FB1B  2745 _g_FLAGS	=	0xfb1b
                         0000FB1C  2746 _g_ESTBLS	=	0xfb1c
                         0000FB1D  2747 _g_COMMSK	=	0xfb1d
                         0000FB1E  2748 _g_LSTCOM	=	0xfb1e
                         0000FB1F  2749 _g_LSTMOD	=	0xfb1f
                         0000FB35  2750 _g_PRSCNT	=	0xfb35
                         0000FB36  2751 _g_SAVSP	=	0xfb36
                         0000FB38  2752 _g_VOICEN	=	0xfb38
                         0000FB39  2753 _g_SAVVOL	=	0xfb39
                         0000FB3B  2754 _g_MCLLEN	=	0xfb3b
                         0000FB3C  2755 _g_MCLPTR	=	0xfb3c
                         0000FB3E  2756 _g_QUEUEN	=	0xfb3e
                         0000FB3F  2757 _g_MUSICF	=	0xfb3f
                         0000FB40  2758 _g_PLYCNT	=	0xfb40
                         0000FB41  2759 _g_VCBA	=	0xfb41
                         0000FB66  2760 _g_VCBB	=	0xfb66
                         0000FB8B  2761 _g_VCBC	=	0xfb8b
                         0000FBB0  2762 _g_ENSTOP	=	0xfbb0
                         0000FBB1  2763 _g_BASROM	=	0xfbb1
                         0000FBB2  2764 _g_LINTTB	=	0xfbb2
                         0000FBCA  2765 _g_FSTPOS	=	0xfbca
                         0000FBCC  2766 _g_CODSAV	=	0xfbcc
                         0000FBCD  2767 _g_FNKSWI	=	0xfbcd
                         0000FBCE  2768 _g_FNKFLG	=	0xfbce
                         0000FBD8  2769 _g_ONGSBF	=	0xfbd8
                         0000FBD9  2770 _g_CLIKFL	=	0xfbd9
                         0000FBDA  2771 _g_OLDKEY	=	0xfbda
                         0000FBE5  2772 _g_NEWKEY	=	0xfbe5
                         0000FBF0  2773 _g_KEYBUF	=	0xfbf0
                         0000FC18  2774 _g_LINWRK	=	0xfc18
                         0000FC40  2775 _g_PATWRK	=	0xfc40
                         0000FC48  2776 _g_BOTTOM	=	0xfc48
                         0000FC4A  2777 _g_HIMEM	=	0xfc4a
                         0000FC4C  2778 _g_TRPTBL	=	0xfc4c
                         0000FC9A  2779 _g_RTYCNT	=	0xfc9a
                         0000FC9B  2780 _g_INTFLG	=	0xfc9b
                         0000FC9C  2781 _g_PADY	=	0xfc9c
                         0000FC9D  2782 _g_PADX	=	0xfc9d
                         0000FC9E  2783 _g_JIFFY	=	0xfc9e
                         0000FCA0  2784 _g_INTVAL	=	0xfca0
                         0000FCA2  2785 _g_INTCNT	=	0xfca2
                         0000FCA4  2786 _g_LOWLIM	=	0xfca4
                         0000FCA5  2787 _g_WINWID	=	0xfca5
                         0000FCA6  2788 _g_GRPHED	=	0xfca6
                         0000FCA7  2789 _g_ESCCNT	=	0xfca7
                         0000FCA8  2790 _g_INSFLG	=	0xfca8
                         0000FCA9  2791 _g_CSRSW	=	0xfca9
                         0000FCAA  2792 _g_CSTYLE	=	0xfcaa
                         0000FCAB  2793 _g_CAPST	=	0xfcab
                         0000FCAC  2794 _g_KANAST	=	0xfcac
                         0000FCAD  2795 _g_KANAMD	=	0xfcad
                         0000FCAE  2796 _g_FLBMEM	=	0xfcae
                         0000FCAF  2797 _g_SCRMOD	=	0xfcaf
                         0000FCB0  2798 _g_OLDSCR	=	0xfcb0
                         0000FCB1  2799 _g_CASPRV	=	0xfcb1
                         0000FCB2  2800 _g_BRDATR	=	0xfcb2
                         0000FCB3  2801 _g_GXPOS	=	0xfcb3
                         0000FCB5  2802 _g_GYPOS	=	0xfcb5
                         0000FCBB  2803 _g_DRWFLG	=	0xfcbb
                         0000FCBC  2804 _g_DRWSCL	=	0xfcbc
                         0000FCBD  2805 _g_DRWANG	=	0xfcbd
                         0000FCC1  2806 _g_MNROM	=	0xfcc1
                         0000FCC1  2807 _g_EXPTBL	=	0xfcc1
                         0000FCC5  2808 _g_SLTTBL	=	0xfcc5
                         0000FCC9  2809 _g_SLTATR	=	0xfcc9
                         0000FD09  2810 _g_SLTWRK	=	0xfd09
                         0000FD89  2811 _g_PROCNM	=	0xfd89
                         0000FFE7  2812 _g_RG08SAV	=	0xffe7
                         0000FFE8  2813 _g_RG09SAV	=	0xffe8
                         0000FFE9  2814 _g_RG10SAV	=	0xffe9
                         0000FFEA  2815 _g_RG11SAV	=	0xffea
                         0000FFEB  2816 _g_RG12SAV	=	0xffeb
                         0000FFEC  2817 _g_RG13SAV	=	0xffec
                         0000FFED  2818 _g_RG14SAV	=	0xffed
                         0000FFEE  2819 _g_RG15SAV	=	0xffee
                         0000FFEF  2820 _g_RG16SAV	=	0xffef
                         0000FFF0  2821 _g_RG17SAV	=	0xfff0
                         0000FFF1  2822 _g_RG18SAV	=	0xfff1
                         0000FFF2  2823 _g_RG19SAV	=	0xfff2
                         0000FFF3  2824 _g_RG20SAV	=	0xfff3
                         0000FFF4  2825 _g_RG21SAV	=	0xfff4
                         0000FFF5  2826 _g_RG22SAV	=	0xfff5
                         0000FFF6  2827 _g_RG23SAV	=	0xfff6
                         0000FFF7  2828 _g_MINROM	=	0xfff7
                         0000FFF8  2829 _g_SVFFF8	=	0xfff8
                         0000FFFA  2830 _g_RG25SAV	=	0xfffa
                         0000FFFB  2831 _g_RG26SAV	=	0xfffb
                         0000FFFC  2832 _g_RG27SAV	=	0xfffc
                         0000FFFD  2833 _g_SVFFFD	=	0xfffd
                         00000004  2834 _g_CGTABL	=	0x0004
                         00000006  2835 _g_VDP_DR	=	0x0006
                         00000007  2836 _g_VDP_DW	=	0x0007
                         0000002B  2837 _g_BASRVN	=	0x002b
                         0000002B  2838 _g_ROMVersion	=	0x002b
                         0000002D  2839 _g_MSXVER	=	0x002d
                         0000002E  2840 _g_MSXMID	=	0x002e
                         00000034  2841 _g_CHAR_16	=	0x0034
                         00000000  2842 _g_SUBRID	=	0x0000
                         00000002  2843 _g_STRSRC	=	0x0002
                         0000F30F  2844 _g_KANJTABLE	=	0xf30f
                         0000F323  2845 _g_DISKVE	=	0xf323
                         0000F325  2846 _g_BREAKV	=	0xf325
                         0000F341  2847 _g_RAMAD0	=	0xf341
                         0000F342  2848 _g_RAMAD1	=	0xf342
                         0000F343  2849 _g_RAMAD2	=	0xf343
                         0000F344  2850 _g_RAMAD3	=	0xf344
                         0000F348  2851 _g_MASTER	=	0xf348
                         0000F37D  2852 _g_BDOS	=	0xf37d
                                   2853 	.area _SEG12
                                   2854 	.area _INITIALIZER
                                   2855 	.area _CABS (ABS)
