;--------------------------------------------------------
; File Created by SDCC : free open source ANSI-C Compiler
; Version 4.2.0 #13081 (MINGW64)
;--------------------------------------------------------
	.module soccerlg_s6_b3
	.optsdcc -mz80
	
;--------------------------------------------------------
; Public variables in this module
;--------------------------------------------------------
	.globl _g_SLTSL
	.globl _g_GRPACY
	.globl _g_GRPACX
	.globl _g_LOGOPR
	.globl _g_CMASK
	.globl _g_CLOC
	.globl _g_FNKSTR
	.globl _g_ATRBYT
	.globl _g_BDRCLR
	.globl _g_BAKCLR
	.globl _g_FORCLR
	.globl _g_CSRX
	.globl _g_CSRY
	.globl _g_CLIKSW
	.globl _g_MLTPAT
	.globl _g_MLTATR
	.globl _g_MLTCGP
	.globl _g_MLTCOL
	.globl _g_MLTNAM
	.globl _g_GRPPAT
	.globl _g_GRPATR
	.globl _g_GRPCGP
	.globl _g_GRPCOL
	.globl _g_GRPNAM
	.globl _g_T32PAT
	.globl _g_T32ATR
	.globl _g_T32CGP
	.globl _g_T32COL
	.globl _g_T32NAM
	.globl _g_TXTPAT
	.globl _g_TXTATR
	.globl _g_TXTCGP
	.globl _g_TXTCOL
	.globl _g_TXTNAM
	.globl _g_CLMLST
	.globl _g_CRTCNT
	.globl _g_LINLEN
	.globl _g_LINL32
	.globl _g_LINL40
	.globl _g_BDOS
	.globl _g_MASTER
	.globl _g_RAMAD3
	.globl _g_RAMAD2
	.globl _g_RAMAD1
	.globl _g_RAMAD0
	.globl _g_BREAKV
	.globl _g_DISKVE
	.globl _g_KANJTABLE
	.globl _g_STRSRC
	.globl _g_SUBRID
	.globl _g_CHAR_16
	.globl _g_MSXMID
	.globl _g_MSXVER
	.globl _g_ROMVersion
	.globl _g_BASRVN
	.globl _g_VDP_DW
	.globl _g_VDP_DR
	.globl _g_CGTABL
	.globl _g_SVFFFD
	.globl _g_RG27SAV
	.globl _g_RG26SAV
	.globl _g_RG25SAV
	.globl _g_SVFFF8
	.globl _g_MINROM
	.globl _g_RG23SAV
	.globl _g_RG22SAV
	.globl _g_RG21SAV
	.globl _g_RG20SAV
	.globl _g_RG19SAV
	.globl _g_RG18SAV
	.globl _g_RG17SAV
	.globl _g_RG16SAV
	.globl _g_RG15SAV
	.globl _g_RG14SAV
	.globl _g_RG13SAV
	.globl _g_RG12SAV
	.globl _g_RG11SAV
	.globl _g_RG10SAV
	.globl _g_RG09SAV
	.globl _g_RG08SAV
	.globl _g_PROCNM
	.globl _g_SLTWRK
	.globl _g_SLTATR
	.globl _g_SLTTBL
	.globl _g_EXPTBL
	.globl _g_MNROM
	.globl _g_DRWANG
	.globl _g_DRWSCL
	.globl _g_DRWFLG
	.globl _g_GYPOS
	.globl _g_GXPOS
	.globl _g_BRDATR
	.globl _g_CASPRV
	.globl _g_OLDSCR
	.globl _g_SCRMOD
	.globl _g_FLBMEM
	.globl _g_KANAMD
	.globl _g_KANAST
	.globl _g_CAPST
	.globl _g_CSTYLE
	.globl _g_CSRSW
	.globl _g_INSFLG
	.globl _g_ESCCNT
	.globl _g_GRPHED
	.globl _g_WINWID
	.globl _g_LOWLIM
	.globl _g_INTCNT
	.globl _g_INTVAL
	.globl _g_JIFFY
	.globl _g_PADX
	.globl _g_PADY
	.globl _g_INTFLG
	.globl _g_RTYCNT
	.globl _g_TRPTBL
	.globl _g_HIMEM
	.globl _g_BOTTOM
	.globl _g_PATWRK
	.globl _g_LINWRK
	.globl _g_KEYBUF
	.globl _g_NEWKEY
	.globl _g_OLDKEY
	.globl _g_CLIKFL
	.globl _g_ONGSBF
	.globl _g_FNKFLG
	.globl _g_FNKSWI
	.globl _g_CODSAV
	.globl _g_FSTPOS
	.globl _g_LINTTB
	.globl _g_BASROM
	.globl _g_ENSTOP
	.globl _g_VCBC
	.globl _g_VCBB
	.globl _g_VCBA
	.globl _g_PLYCNT
	.globl _g_MUSICF
	.globl _g_QUEUEN
	.globl _g_MCLPTR
	.globl _g_MCLLEN
	.globl _g_SAVVOL
	.globl _g_VOICEN
	.globl _g_SAVSP
	.globl _g_PRSCNT
	.globl _g_LSTMOD
	.globl _g_LSTCOM
	.globl _g_COMMSK
	.globl _g_ESTBLS
	.globl _g_FLAGS
	.globl _g_ERRORS
	.globl _g_DATCNT
	.globl _g_DEVNUM
	.globl _g_OLDINT
	.globl _g_OLDSTT
	.globl _g_MEXBIh
	.globl _g_RSIQLN
	.globl _g_RSFCB
	.globl _g_TOCNT
	.globl _g_RSTMP
	.globl _g_YSAVE
	.globl _g_XSAVE
	.globl _g_NORUSE
	.globl _g_MODE
	.globl _g_ROMA
	.globl _g_CHRCNT
	.globl _g_EXBRSA
	.globl _g_AVCSAV
	.globl _g_ACPAGE
	.globl _g_DPPAGE
	.globl _g_RS2IQ
	.globl _g_VOICCQ
	.globl _g_VOICBQ
	.globl _g_VOICAQ
	.globl _g_QUEBAK
	.globl _g_QUETAB
	.globl _g_ASPCT2
	.globl _g_ASPCT1
	.globl _g_HEADER
	.globl _g_HIGH
	.globl _g_LOW
	.globl _g_CS240
	.globl _g_CS120
	.globl _g_GETPNT
	.globl _g_PUTPNT
	.globl _g_REPCNT
	.globl _g_SCNCNT
	.globl _g_FRCNEW
	.globl _g_QUEUES
	.globl _g_MINUPD
	.globl _g_MAXUPD
	.globl _g_TRGFLG
	.globl _g_STATFL
	.globl _g_RG7SAV
	.globl _g_RG6SAV
	.globl _g_RG5SAV
	.globl _g_RG4SAV
	.globl _g_RG3SAV
	.globl _g_RG2SAV
	.globl _g_RG1SAV
	.globl _g_RG0SAV
	.globl _g_CNSDFG
	.globl _g_USRTAB
	.globl _g_CLPRIM
	.globl _g_WRPRIM
	.globl _g_RDPRIM
	.globl _PlayerAI
	.globl _FindReceiver
;--------------------------------------------------------
; special function registers
;--------------------------------------------------------
_g_PortPrimarySlot	=	0x00a8
_g_PortReadKeyboard	=	0x00a9
_g_PortAccessKeyboard	=	0x00aa
_g_PortControl	=	0x00ab
_g_VDP_DataPort	=	0x0098
_g_VDP_RegPort	=	0x0099
_g_VDP_AddrPort	=	0x0099
_g_VDP_StatPort	=	0x0099
_g_VDP_PalPort	=	0x009a
_g_VDP_IRegPort	=	0x009b
_g_PSG_RegPort	=	0x00a0
_g_PSG_DataPort	=	0x00a1
_g_PSG_StatPort	=	0x00a2
_g_PSG_Ext_RegPort	=	0x0010
_g_PSG_Ext_DataPort	=	0x0011
_g_PSG_Ext_StatPort	=	0x0012
_g_MSXMusic_IndexPort	=	0x007c
_g_MSXMusic_DataPort	=	0x007d
_g_MSXAudio_IndexPort	=	0x00c0
_g_MSXAudio_DataPort	=	0x00c1
_g_MSXAudio_IndexPort2	=	0x00c2
_g_MSXAudio_DataPort2	=	0x00c3
_g_RTC_AddrPort	=	0x00b4
_g_RTC_DataPort	=	0x00b5
;--------------------------------------------------------
; ram data
;--------------------------------------------------------
	.area _DATA
_g_LINL40	=	0xf3ae
_g_LINL32	=	0xf3af
_g_LINLEN	=	0xf3b0
_g_CRTCNT	=	0xf3b1
_g_CLMLST	=	0xf3b2
_g_TXTNAM	=	0xf3b3
_g_TXTCOL	=	0xf3b5
_g_TXTCGP	=	0xf3b7
_g_TXTATR	=	0xf3b9
_g_TXTPAT	=	0xf3bb
_g_T32NAM	=	0xf3bd
_g_T32COL	=	0xf3bf
_g_T32CGP	=	0xf3c1
_g_T32ATR	=	0xf3c3
_g_T32PAT	=	0xf3c5
_g_GRPNAM	=	0xf3c7
_g_GRPCOL	=	0xf3c9
_g_GRPCGP	=	0xf3cb
_g_GRPATR	=	0xf3cd
_g_GRPPAT	=	0xf3cf
_g_MLTNAM	=	0xf3d1
_g_MLTCOL	=	0xf3d3
_g_MLTCGP	=	0xf3d5
_g_MLTATR	=	0xf3d7
_g_MLTPAT	=	0xf3d9
_g_CLIKSW	=	0xf3db
_g_CSRY	=	0xf3dc
_g_CSRX	=	0xf3dd
_g_FORCLR	=	0xf3e9
_g_BAKCLR	=	0xf3ea
_g_BDRCLR	=	0xf3eb
_g_ATRBYT	=	0xf3f2
_g_FNKSTR	=	0xf87f
_g_CLOC	=	0xf92a
_g_CMASK	=	0xf92c
_g_LOGOPR	=	0xfb02
_g_GRPACX	=	0xfcb7
_g_GRPACY	=	0xfcb9
_g_SLTSL	=	0xffff
;--------------------------------------------------------
; ram data
;--------------------------------------------------------
	.area _INITIALIZED
;--------------------------------------------------------
; absolute external ram data
;--------------------------------------------------------
	.area _DABS (ABS)
;--------------------------------------------------------
; global & static initialisations
;--------------------------------------------------------
	.area _HOME
	.area _GSINIT
	.area _GSFINAL
	.area _GSINIT
;--------------------------------------------------------
; Home
;--------------------------------------------------------
	.area _HOME
	.area _HOME
;--------------------------------------------------------
; code
;--------------------------------------------------------
	.area _SEG6
;E:\Dropbox\FAUSTO\SVILUPPI\MSX\CODE\C\MSXgl\projects\soccerlgMSX2/soccerlg_s6_b3.c:9: void PlayerAI(u8 i) 
;	---------------------------------
; Function PlayerAI
; ---------------------------------
_PlayerAI::
	ld	e, a
;E:\Dropbox\FAUSTO\SVILUPPI\MSX\CODE\C\MSXgl\projects\soccerlgMSX2/soccerlg_s6_b3.c:11: struct ObjectInfo* Player = &SwSprite[i];
	ld	bc, #_SwSprite+0
	ld	d, #0x00
	ld	l, e
	ld	h, d
	add	hl, hl
	add	hl, hl
	add	hl, de
	add	hl, hl
	add	hl, de
	add	hl, hl
	add	hl, de
	add	hl, bc
	ex	de, hl
;E:\Dropbox\FAUSTO\SVILUPPI\MSX\CODE\C\MSXgl\projects\soccerlgMSX2/soccerlg_s6_b3.c:12: Player->lx += Player->dx; 
	ld	a, (de)
	ld	l, a
;	spillPairReg hl
;	spillPairReg hl
	ld	a, e
	add	a, #0x11
	ld	c, a
	ld	a, d
	adc	a, #0x00
	ld	b, a
	ld	a, (bc)
	add	a, l
;E:\Dropbox\FAUSTO\SVILUPPI\MSX\CODE\C\MSXgl\projects\soccerlgMSX2/soccerlg_s6_b3.c:13: if  (Player->lx>238 || Player->lx<4) 
	ld	(de), a
	ld	l, a
;	spillPairReg hl
;	spillPairReg hl
	ld	a, #0xee
	sub	a, l
	jr	C, 00101$
	ld	a, l
	sub	a, #0x04
	jr	NC, 00102$
00101$:
;E:\Dropbox\FAUSTO\SVILUPPI\MSX\CODE\C\MSXgl\projects\soccerlgMSX2/soccerlg_s6_b3.c:14: Player->dx = -Player->dx;
	ld	a, (bc)
	neg
	ld	(bc), a
00102$:
;E:\Dropbox\FAUSTO\SVILUPPI\MSX\CODE\C\MSXgl\projects\soccerlgMSX2/soccerlg_s6_b3.c:16: Player->ly += Player->dy; 
	ld	hl, #0x0004
	add	hl, de
	ld	c, (hl)
	inc	hl
	ld	b, (hl)
	dec	hl
	ld	a, e
	add	a, #0x12
	ld	e, a
	jr	NC, 00119$
	inc	d
00119$:
	ld	a, (de)
	push	af
	rlca
	sbc	a, a
	push	iy
	ex	(sp), hl
	ld	h, a
;	spillPairReg hl
;	spillPairReg hl
	ex	(sp), hl
	pop	iy
	pop	af
	add	a, c
	ld	c, a
	push	iy
	ex	(sp), hl
	ld	a, h
	ex	(sp), hl
	pop	iy
	adc	a, b
	ld	b, a
	ld	(hl), c
	inc	hl
	ld	(hl), b
	dec	hl
;E:\Dropbox\FAUSTO\SVILUPPI\MSX\CODE\C\MSXgl\projects\soccerlgMSX2/soccerlg_s6_b3.c:17: if  (Player->ly>504-16 || Player->ly<=16) 
	ld	a, (hl)
	inc	hl
	ld	h, (hl)
;	spillPairReg hl
	ld	l, a
;	spillPairReg hl
;	spillPairReg hl
	ld	a, #0xe8
	cp	a, c
	ld	a, #0x01
	sbc	a, b
	jr	C, 00104$
	ld	a, #0x10
	cp	a, l
	ld	a, #0x00
	sbc	a, h
	ret	C
00104$:
;E:\Dropbox\FAUSTO\SVILUPPI\MSX\CODE\C\MSXgl\projects\soccerlgMSX2/soccerlg_s6_b3.c:18: Player->dy = -Player->dy;
	ld	a, (de)
	neg
	ld	(de), a
;E:\Dropbox\FAUSTO\SVILUPPI\MSX\CODE\C\MSXgl\projects\soccerlgMSX2/soccerlg_s6_b3.c:19: }
	ret
_g_RDPRIM	=	0xf380
_g_WRPRIM	=	0xf385
_g_CLPRIM	=	0xf38c
_g_USRTAB	=	0xf39a
_g_CNSDFG	=	0xf3de
_g_RG0SAV	=	0xf3df
_g_RG1SAV	=	0xf3e0
_g_RG2SAV	=	0xf3e1
_g_RG3SAV	=	0xf3e2
_g_RG4SAV	=	0xf3e3
_g_RG5SAV	=	0xf3e4
_g_RG6SAV	=	0xf3e5
_g_RG7SAV	=	0xf3e6
_g_STATFL	=	0xf3e7
_g_TRGFLG	=	0xf3e8
_g_MAXUPD	=	0xf3ec
_g_MINUPD	=	0xf3ef
_g_QUEUES	=	0xf3f3
_g_FRCNEW	=	0xf3f5
_g_SCNCNT	=	0xf3f6
_g_REPCNT	=	0xf3f7
_g_PUTPNT	=	0xf3f8
_g_GETPNT	=	0xf3fa
_g_CS120	=	0xf3fc
_g_CS240	=	0xf401
_g_LOW	=	0xf406
_g_HIGH	=	0xf408
_g_HEADER	=	0xf40a
_g_ASPCT1	=	0xf40b
_g_ASPCT2	=	0xf40d
_g_QUETAB	=	0xf959
_g_QUEBAK	=	0xf971
_g_VOICAQ	=	0xf975
_g_VOICBQ	=	0xf9f5
_g_VOICCQ	=	0xfa75
_g_RS2IQ	=	0xfaf5
_g_DPPAGE	=	0xfaf5
_g_ACPAGE	=	0xfaf6
_g_AVCSAV	=	0xfaf7
_g_EXBRSA	=	0xfaf8
_g_CHRCNT	=	0xfaf9
_g_ROMA	=	0xfafa
_g_MODE	=	0xfafc
_g_NORUSE	=	0xfafd
_g_XSAVE	=	0xfafe
_g_YSAVE	=	0xfb00
_g_RSTMP	=	0xfb03
_g_TOCNT	=	0xfb03
_g_RSFCB	=	0xfb04
_g_RSIQLN	=	0xfb06
_g_MEXBIh	=	0xfb07
_g_OLDSTT	=	0xfb0c
_g_OLDINT	=	0xfb0c
_g_DEVNUM	=	0xfb16
_g_DATCNT	=	0xfb17
_g_ERRORS	=	0xfb1a
_g_FLAGS	=	0xfb1b
_g_ESTBLS	=	0xfb1c
_g_COMMSK	=	0xfb1d
_g_LSTCOM	=	0xfb1e
_g_LSTMOD	=	0xfb1f
_g_PRSCNT	=	0xfb35
_g_SAVSP	=	0xfb36
_g_VOICEN	=	0xfb38
_g_SAVVOL	=	0xfb39
_g_MCLLEN	=	0xfb3b
_g_MCLPTR	=	0xfb3c
_g_QUEUEN	=	0xfb3e
_g_MUSICF	=	0xfb3f
_g_PLYCNT	=	0xfb40
_g_VCBA	=	0xfb41
_g_VCBB	=	0xfb66
_g_VCBC	=	0xfb8b
_g_ENSTOP	=	0xfbb0
_g_BASROM	=	0xfbb1
_g_LINTTB	=	0xfbb2
_g_FSTPOS	=	0xfbca
_g_CODSAV	=	0xfbcc
_g_FNKSWI	=	0xfbcd
_g_FNKFLG	=	0xfbce
_g_ONGSBF	=	0xfbd8
_g_CLIKFL	=	0xfbd9
_g_OLDKEY	=	0xfbda
_g_NEWKEY	=	0xfbe5
_g_KEYBUF	=	0xfbf0
_g_LINWRK	=	0xfc18
_g_PATWRK	=	0xfc40
_g_BOTTOM	=	0xfc48
_g_HIMEM	=	0xfc4a
_g_TRPTBL	=	0xfc4c
_g_RTYCNT	=	0xfc9a
_g_INTFLG	=	0xfc9b
_g_PADY	=	0xfc9c
_g_PADX	=	0xfc9d
_g_JIFFY	=	0xfc9e
_g_INTVAL	=	0xfca0
_g_INTCNT	=	0xfca2
_g_LOWLIM	=	0xfca4
_g_WINWID	=	0xfca5
_g_GRPHED	=	0xfca6
_g_ESCCNT	=	0xfca7
_g_INSFLG	=	0xfca8
_g_CSRSW	=	0xfca9
_g_CSTYLE	=	0xfcaa
_g_CAPST	=	0xfcab
_g_KANAST	=	0xfcac
_g_KANAMD	=	0xfcad
_g_FLBMEM	=	0xfcae
_g_SCRMOD	=	0xfcaf
_g_OLDSCR	=	0xfcb0
_g_CASPRV	=	0xfcb1
_g_BRDATR	=	0xfcb2
_g_GXPOS	=	0xfcb3
_g_GYPOS	=	0xfcb5
_g_DRWFLG	=	0xfcbb
_g_DRWSCL	=	0xfcbc
_g_DRWANG	=	0xfcbd
_g_MNROM	=	0xfcc1
_g_EXPTBL	=	0xfcc1
_g_SLTTBL	=	0xfcc5
_g_SLTATR	=	0xfcc9
_g_SLTWRK	=	0xfd09
_g_PROCNM	=	0xfd89
_g_RG08SAV	=	0xffe7
_g_RG09SAV	=	0xffe8
_g_RG10SAV	=	0xffe9
_g_RG11SAV	=	0xffea
_g_RG12SAV	=	0xffeb
_g_RG13SAV	=	0xffec
_g_RG14SAV	=	0xffed
_g_RG15SAV	=	0xffee
_g_RG16SAV	=	0xffef
_g_RG17SAV	=	0xfff0
_g_RG18SAV	=	0xfff1
_g_RG19SAV	=	0xfff2
_g_RG20SAV	=	0xfff3
_g_RG21SAV	=	0xfff4
_g_RG22SAV	=	0xfff5
_g_RG23SAV	=	0xfff6
_g_MINROM	=	0xfff7
_g_SVFFF8	=	0xfff8
_g_RG25SAV	=	0xfffa
_g_RG26SAV	=	0xfffb
_g_RG27SAV	=	0xfffc
_g_SVFFFD	=	0xfffd
_g_CGTABL	=	0x0004
_g_VDP_DR	=	0x0006
_g_VDP_DW	=	0x0007
_g_BASRVN	=	0x002b
_g_ROMVersion	=	0x002b
_g_MSXVER	=	0x002d
_g_MSXMID	=	0x002e
_g_CHAR_16	=	0x0034
_g_SUBRID	=	0x0000
_g_STRSRC	=	0x0002
_g_KANJTABLE	=	0xf30f
_g_DISKVE	=	0xf323
_g_BREAKV	=	0xf325
_g_RAMAD0	=	0xf341
_g_RAMAD1	=	0xf342
_g_RAMAD2	=	0xf343
_g_RAMAD3	=	0xf344
_g_MASTER	=	0xf348
_g_BDOS	=	0xf37d
;E:\Dropbox\FAUSTO\SVILUPPI\MSX\CODE\C\MSXgl\projects\soccerlgMSX2/soccerlg_s6_b3.c:22: u8 FindReceiver(u8 carrier, u8 ignore_player) 
;	---------------------------------
; Function FindReceiver
; ---------------------------------
_FindReceiver::
	push	ix
	ld	ix,#0
	add	ix,sp
	ld	iy, #-26
	add	iy, sp
	ld	sp, iy
	ld	-2 (ix), a
	ld	-3 (ix), l
;E:\Dropbox\FAUSTO\SVILUPPI\MSX\CODE\C\MSXgl\projects\soccerlgMSX2/soccerlg_s6_b3.c:24: u8 start_idx = (carrier < 7) ? 0 : 7;
	ld	a, -2 (ix)
	sub	a, #0x07
	ld	a, #0x00
	rla
	ld	-1 (ix), a
	ld	-26 (ix), a
	ld	a, -1 (ix)
	or	a, a
	jr	Z, 00133$
	xor	a, a
	ld	-5 (ix), a
	ld	-4 (ix), a
	jp	00134$
00133$:
	ld	-5 (ix), #0x07
	ld	-4 (ix), #0
00134$:
	ld	a, -5 (ix)
;E:\Dropbox\FAUSTO\SVILUPPI\MSX\CODE\C\MSXgl\projects\soccerlgMSX2/soccerlg_s6_b3.c:25: u8 end_idx = start_idx + 7;
	ld	-25 (ix), a
	ld	-4 (ix), a
	add	a, #0x07
	ld	-24 (ix), a
;E:\Dropbox\FAUSTO\SVILUPPI\MSX\CODE\C\MSXgl\projects\soccerlgMSX2/soccerlg_s6_b3.c:26: u8 best_match = 0xFF;
	ld	-23 (ix), #0xff
;E:\Dropbox\FAUSTO\SVILUPPI\MSX\CODE\C\MSXgl\projects\soccerlgMSX2/soccerlg_s6_b3.c:27: u16 min_dist = 0xFFFF;
	ld	-22 (ix), #0xff
	ld	-21 (ix), #0xff
;E:\Dropbox\FAUSTO\SVILUPPI\MSX\CODE\C\MSXgl\projects\soccerlgMSX2/soccerlg_s6_b3.c:29: for (u8 i = start_idx; i < end_idx; i++) {
	ld	c, -2 (ix)
	ld	b, #0x00
	ld	l, c
	ld	h, b
	add	hl, hl
	add	hl, hl
	add	hl, bc
	add	hl, hl
	add	hl, bc
	add	hl, hl
	add	hl, bc
	ld	-20 (ix), l
	ld	-19 (ix), h
	ld	a, #<(_SwSprite)
	add	a, -20 (ix)
	ld	-5 (ix), a
	ld	a, #>(_SwSprite)
	adc	a, -19 (ix)
	ld	-4 (ix), a
	ld	l, -5 (ix)
	ld	h, -4 (ix)
	ld	a, (hl)
	ld	-18 (ix), a
	ld	a, -5 (ix)
	ld	-17 (ix), a
	ld	a, -4 (ix)
	ld	-16 (ix), a
	ld	a, -1 (ix)
	ld	-15 (ix), a
	ld	a, -25 (ix)
	ld	-1 (ix), a
00128$:
	ld	a, -1 (ix)
	sub	a, -24 (ix)
	jp	NC, 00115$
;E:\Dropbox\FAUSTO\SVILUPPI\MSX\CODE\C\MSXgl\projects\soccerlgMSX2/soccerlg_s6_b3.c:31: if (i == carrier || i == ignore_player || i == 0 || i == 7) continue; 
	ld	a, -2 (ix)
	sub	a, -1 (ix)
	jp	Z,00114$
	ld	a, -3 (ix)
	sub	a, -1 (ix)
	jp	Z,00114$
	ld	a, -1 (ix)
	or	a, a
	jp	Z, 00114$
	ld	a, -1 (ix)
	sub	a, #0x07
	jp	Z,00114$
;E:\Dropbox\FAUSTO\SVILUPPI\MSX\CODE\C\MSXgl\projects\soccerlgMSX2/soccerlg_s6_b3.c:33: u16 dx = (SwSprite[i].lx > SwSprite[carrier].lx) ? (SwSprite[i].lx - SwSprite[carrier].lx) : (SwSprite[carrier].lx - SwSprite[i].lx);
	ld	c, -1 (ix)
	ld	b, #0x00
	ld	l, c
	ld	h, b
	add	hl, hl
	add	hl, hl
	add	hl, bc
	add	hl, hl
	add	hl, bc
	add	hl, hl
	add	hl, bc
	ld	de, #_SwSprite
	add	hl, de
	ld	-7 (ix), l
	ld	-6 (ix), h
	ld	c, (hl)
	ld	-11 (ix), c
	ld	-10 (ix), #0x00
	ld	a, -18 (ix)
	ld	-9 (ix), a
	ld	-8 (ix), #0x00
	ld	a, -18 (ix)
	sub	a, c
	jr	NC, 00135$
	ld	a, -11 (ix)
	sub	a, -9 (ix)
	ld	-5 (ix), a
	ld	a, -10 (ix)
	sbc	a, -8 (ix)
	ld	-4 (ix), a
	jp	00136$
00135$:
	ld	a, -9 (ix)
	sub	a, -11 (ix)
	ld	-5 (ix), a
	ld	a, -8 (ix)
	sbc	a, -10 (ix)
	ld	-4 (ix), a
00136$:
	ld	a, -5 (ix)
	ld	-14 (ix), a
	ld	a, -4 (ix)
	ld	-13 (ix), a
;E:\Dropbox\FAUSTO\SVILUPPI\MSX\CODE\C\MSXgl\projects\soccerlgMSX2/soccerlg_s6_b3.c:34: u16 dy = (SwSprite[i].ly > SwSprite[carrier].ly) ? (SwSprite[i].ly - SwSprite[carrier].ly) : (SwSprite[carrier].ly - SwSprite[i].ly);
	ld	c, -7 (ix)
	ld	b, -6 (ix)
	ld	hl, #4
	add	hl, bc
	ld	a, (hl)
	ld	-12 (ix), a
	inc	hl
	ld	a, (hl)
	ld	-11 (ix), a
	ld	l, -17 (ix)
	ld	h, -16 (ix)
	ld	de, #0x0004
	add	hl, de
	ld	a, (hl)
	ld	-10 (ix), a
	inc	hl
	ld	a, (hl)
	ld	-9 (ix), a
	ld	a, -10 (ix)
	sub	a, -12 (ix)
	ld	a, -9 (ix)
	sbc	a, -11 (ix)
	ld	a, #0x00
	rla
	ld	-8 (ix), a
	or	a, a
	jr	Z, 00137$
	ld	a, -12 (ix)
	sub	a, -10 (ix)
	ld	-5 (ix), a
	ld	a, -11 (ix)
	sbc	a, -9 (ix)
	ld	-4 (ix), a
	jp	00138$
00137$:
	ld	a, -10 (ix)
	sub	a, -12 (ix)
	ld	-5 (ix), a
	ld	a, -9 (ix)
	sbc	a, -11 (ix)
	ld	-4 (ix), a
00138$:
	ld	a, -5 (ix)
	ld	-7 (ix), a
	ld	a, -4 (ix)
	ld	-6 (ix), a
;E:\Dropbox\FAUSTO\SVILUPPI\MSX\CODE\C\MSXgl\projects\soccerlgMSX2/soccerlg_s6_b3.c:35: u16 dist = dx + dy; // Distanza di Manhattan
	ld	a, -7 (ix)
	add	a, -14 (ix)
	ld	-5 (ix), a
	ld	a, -6 (ix)
	adc	a, -13 (ix)
	ld	-4 (ix), a
;E:\Dropbox\FAUSTO\SVILUPPI\MSX\CODE\C\MSXgl\projects\soccerlgMSX2/soccerlg_s6_b3.c:38: if (carrier < 7 && SwSprite[i].ly <= SwSprite[carrier].ly) continue; // Team 1 attacca verso Sud (Y crescente)
	ld	a, -26 (ix)
	or	a, a
	jr	Z, 00107$
	ld	a, -8 (ix)
	ld	-6 (ix), a
	bit	0, -6 (ix)
	jr	Z, 00114$
00107$:
;E:\Dropbox\FAUSTO\SVILUPPI\MSX\CODE\C\MSXgl\projects\soccerlgMSX2/soccerlg_s6_b3.c:39: if (carrier >= 7 && SwSprite[i].ly >= SwSprite[carrier].ly) continue; // Team 2 attacca verso Nord (Y decrescente)
	bit	0, -15 (ix)
	jr	NZ, 00110$
	ld	a, -12 (ix)
	sub	a, -10 (ix)
	ld	a, -11 (ix)
	sbc	a, -9 (ix)
	jr	NC, 00114$
00110$:
;E:\Dropbox\FAUSTO\SVILUPPI\MSX\CODE\C\MSXgl\projects\soccerlgMSX2/soccerlg_s6_b3.c:41: if (dist < min_dist) {
	ld	a, -5 (ix)
	sub	a, -22 (ix)
	ld	a, -4 (ix)
	sbc	a, -21 (ix)
	jr	NC, 00114$
;E:\Dropbox\FAUSTO\SVILUPPI\MSX\CODE\C\MSXgl\projects\soccerlgMSX2/soccerlg_s6_b3.c:42: min_dist = dist;
	ld	a, -5 (ix)
	ld	-22 (ix), a
	ld	a, -4 (ix)
	ld	-21 (ix), a
;E:\Dropbox\FAUSTO\SVILUPPI\MSX\CODE\C\MSXgl\projects\soccerlgMSX2/soccerlg_s6_b3.c:43: best_match = i;
	ld	a, -1 (ix)
	ld	-23 (ix), a
00114$:
;E:\Dropbox\FAUSTO\SVILUPPI\MSX\CODE\C\MSXgl\projects\soccerlgMSX2/soccerlg_s6_b3.c:29: for (u8 i = start_idx; i < end_idx; i++) {
	inc	-1 (ix)
	jp	00128$
00115$:
;E:\Dropbox\FAUSTO\SVILUPPI\MSX\CODE\C\MSXgl\projects\soccerlgMSX2/soccerlg_s6_b3.c:48: if (best_match == 0xFF) {
	ld	a, -23 (ix)
	inc	a
	jp	NZ,00126$
;E:\Dropbox\FAUSTO\SVILUPPI\MSX\CODE\C\MSXgl\projects\soccerlgMSX2/soccerlg_s6_b3.c:49: for (u8 i = start_idx; i < end_idx; i++) {
;E:\Dropbox\FAUSTO\SVILUPPI\MSX\CODE\C\MSXgl\projects\soccerlgMSX2/soccerlg_s6_b3.c:29: for (u8 i = start_idx; i < end_idx; i++) {
	ld	a, #<(_SwSprite)
	add	a, -20 (ix)
	ld	c, a
	ld	a, #>(_SwSprite)
	adc	a, -19 (ix)
	ld	b, a
;E:\Dropbox\FAUSTO\SVILUPPI\MSX\CODE\C\MSXgl\projects\soccerlgMSX2/soccerlg_s6_b3.c:49: for (u8 i = start_idx; i < end_idx; i++) {
	ld	a, (bc)
	ld	-6 (ix), a
	ld	-5 (ix), c
	ld	-4 (ix), b
	ld	a, -25 (ix)
	ld	-1 (ix), a
00130$:
	ld	a, -1 (ix)
	sub	a, -24 (ix)
	jp	NC, 00126$
;E:\Dropbox\FAUSTO\SVILUPPI\MSX\CODE\C\MSXgl\projects\soccerlgMSX2/soccerlg_s6_b3.c:50: if (i == carrier || i == ignore_player || i == 0 || i == 7) continue;
	ld	a, -1 (ix)
	sub	a, -2 (ix)
	jp	Z,00123$
	ld	a, -3 (ix)
	sub	a, -1 (ix)
	jp	Z,00123$
	ld	a, -1 (ix)
	or	a, a
	jp	Z, 00123$
	ld	a, -1 (ix)
	sub	a, #0x07
	jp	Z,00123$
;E:\Dropbox\FAUSTO\SVILUPPI\MSX\CODE\C\MSXgl\projects\soccerlgMSX2/soccerlg_s6_b3.c:51: u16 dist = ((SwSprite[i].lx > SwSprite[carrier].lx) ? (SwSprite[i].lx - SwSprite[carrier].lx) : (SwSprite[carrier].lx - SwSprite[i].lx)) + ((SwSprite[i].ly > SwSprite[carrier].ly) ? (SwSprite[i].ly - SwSprite[carrier].ly) : (SwSprite[carrier].ly - SwSprite[i].ly));
	ld	c, -1 (ix)
	ld	b, #0x00
	ld	l, c
	ld	h, b
	add	hl, hl
	add	hl, hl
	add	hl, bc
	add	hl, hl
	add	hl, bc
	add	hl, hl
	add	hl, bc
	ld	de, #_SwSprite
	add	hl, de
	ld	-8 (ix), l
	ld	-7 (ix), h
	ld	l, (hl)
;	spillPairReg hl
	ld	c, l
	ld	b, #0x00
	ld	e, -6 (ix)
	ld	d, #0x00
	ld	a, -6 (ix)
	sub	a, l
	jr	NC, 00139$
	ld	a, c
	sub	a, e
	ld	-14 (ix), a
	ld	a, b
	sbc	a, d
	ld	-13 (ix), a
	jp	00140$
00139$:
	ld	a, e
	sub	a, c
	ld	-14 (ix), a
	ld	a, d
	sbc	a, b
	ld	-13 (ix), a
00140$:
	ld	c, -8 (ix)
	ld	b, -7 (ix)
	ld	hl, #4
	add	hl, bc
	ld	a, (hl)
	ld	-12 (ix), a
	inc	hl
	ld	a, (hl)
	ld	-11 (ix), a
	ld	l, -5 (ix)
	ld	h, -4 (ix)
	ld	de, #0x0004
	add	hl, de
	ld	a, (hl)
	ld	-10 (ix), a
	inc	hl
	ld	a, (hl)
	ld	-9 (ix), a
	ld	a, -10 (ix)
	sub	a, -12 (ix)
	ld	a, -9 (ix)
	sbc	a, -11 (ix)
	jr	NC, 00141$
	ld	a, -12 (ix)
	sub	a, -10 (ix)
	ld	-8 (ix), a
	ld	a, -11 (ix)
	sbc	a, -9 (ix)
	ld	-7 (ix), a
	jp	00142$
00141$:
	ld	a, -10 (ix)
	sub	a, -12 (ix)
	ld	-8 (ix), a
	ld	a, -9 (ix)
	sbc	a, -11 (ix)
	ld	-7 (ix), a
00142$:
	ld	c, -14 (ix)
	ld	b, -13 (ix)
	ld	l, -8 (ix)
	ld	h, -7 (ix)
	add	hl, bc
;E:\Dropbox\FAUSTO\SVILUPPI\MSX\CODE\C\MSXgl\projects\soccerlgMSX2/soccerlg_s6_b3.c:52: if (dist < min_dist) {
	ld	a, l
	sub	a, -22 (ix)
	ld	a, h
	sbc	a, -21 (ix)
	jr	NC, 00123$
;E:\Dropbox\FAUSTO\SVILUPPI\MSX\CODE\C\MSXgl\projects\soccerlgMSX2/soccerlg_s6_b3.c:53: min_dist = dist;
	ld	-22 (ix), l
	ld	-21 (ix), h
;E:\Dropbox\FAUSTO\SVILUPPI\MSX\CODE\C\MSXgl\projects\soccerlgMSX2/soccerlg_s6_b3.c:54: best_match = i;
	ld	a, -1 (ix)
	ld	-23 (ix), a
00123$:
;E:\Dropbox\FAUSTO\SVILUPPI\MSX\CODE\C\MSXgl\projects\soccerlgMSX2/soccerlg_s6_b3.c:49: for (u8 i = start_idx; i < end_idx; i++) {
	inc	-1 (ix)
	jp	00130$
00126$:
;E:\Dropbox\FAUSTO\SVILUPPI\MSX\CODE\C\MSXgl\projects\soccerlgMSX2/soccerlg_s6_b3.c:58: return best_match;
	ld	a, -23 (ix)
;E:\Dropbox\FAUSTO\SVILUPPI\MSX\CODE\C\MSXgl\projects\soccerlgMSX2/soccerlg_s6_b3.c:59: }
	ld	sp, ix
	pop	ix
	ret
	.area _SEG6
	.area _INITIALIZER
	.area _CABS (ABS)
