;--------------------------------------------------------
; File Created by SDCC : free open source ANSI-C Compiler
; Version 4.2.0 #13081 (MINGW64)
;--------------------------------------------------------
	.module soccerlg_s4_b3
	.optsdcc -mz80
	
;--------------------------------------------------------
; Public variables in this module
;--------------------------------------------------------
	.globl _UpdateGameState
	.globl _EventStartPresentationScrollig
	.globl _UpdateAllInputs
	.globl _IsBallForeground
	.globl _PrintScoreBoardRight
	.globl _PrintScoreBoardLeft
	.globl _RemoveSwSprite
	.globl _SetTeamColors
	.globl _AddLines
	.globl _CallFnc_BOOL
	.globl _CallFnc_VOID_3PTR_U16
	.globl _CallFnc_VOID_U8U16U16
	.globl _CallFnc_VOID
	.globl _CallSpriteFrame
	.globl _WaitForVBlank
	.globl _Print_DrawFormat
	.globl _VPD_CommandSetupR36
	.globl _VDP_SetPage
	.globl _VDP_RegWrite
	.globl _g_SLTSL
	.globl _g_GRPACY
	.globl _g_GRPACX
	.globl _g_LOGOPR
	.globl _g_CMASK
	.globl _g_CLOC
	.globl _g_FNKSTR
	.globl _g_ATRBYT
	.globl _g_BDRCLR
	.globl _g_BAKCLR
	.globl _g_FORCLR
	.globl _g_CSRX
	.globl _g_CSRY
	.globl _g_CLIKSW
	.globl _g_MLTPAT
	.globl _g_MLTATR
	.globl _g_MLTCGP
	.globl _g_MLTCOL
	.globl _g_MLTNAM
	.globl _g_GRPPAT
	.globl _g_GRPATR
	.globl _g_GRPCGP
	.globl _g_GRPCOL
	.globl _g_GRPNAM
	.globl _g_T32PAT
	.globl _g_T32ATR
	.globl _g_T32CGP
	.globl _g_T32COL
	.globl _g_T32NAM
	.globl _g_TXTPAT
	.globl _g_TXTATR
	.globl _g_TXTCGP
	.globl _g_TXTCOL
	.globl _g_TXTNAM
	.globl _g_CLMLST
	.globl _g_CRTCNT
	.globl _g_LINLEN
	.globl _g_LINL32
	.globl _g_LINL40
	.globl _g_Fonts
	.globl _g_BDOS
	.globl _g_MASTER
	.globl _g_RAMAD3
	.globl _g_RAMAD2
	.globl _g_RAMAD1
	.globl _g_RAMAD0
	.globl _g_BREAKV
	.globl _g_DISKVE
	.globl _g_KANJTABLE
	.globl _g_STRSRC
	.globl _g_SUBRID
	.globl _g_CHAR_16
	.globl _g_MSXMID
	.globl _g_MSXVER
	.globl _g_ROMVersion
	.globl _g_BASRVN
	.globl _g_VDP_DW
	.globl _g_VDP_DR
	.globl _g_CGTABL
	.globl _g_SVFFFD
	.globl _g_RG27SAV
	.globl _g_RG26SAV
	.globl _g_RG25SAV
	.globl _g_SVFFF8
	.globl _g_MINROM
	.globl _g_RG23SAV
	.globl _g_RG22SAV
	.globl _g_RG21SAV
	.globl _g_RG20SAV
	.globl _g_RG19SAV
	.globl _g_RG18SAV
	.globl _g_RG17SAV
	.globl _g_RG16SAV
	.globl _g_RG15SAV
	.globl _g_RG14SAV
	.globl _g_RG13SAV
	.globl _g_RG12SAV
	.globl _g_RG11SAV
	.globl _g_RG10SAV
	.globl _g_RG09SAV
	.globl _g_RG08SAV
	.globl _g_PROCNM
	.globl _g_SLTWRK
	.globl _g_SLTATR
	.globl _g_SLTTBL
	.globl _g_EXPTBL
	.globl _g_MNROM
	.globl _g_DRWANG
	.globl _g_DRWSCL
	.globl _g_DRWFLG
	.globl _g_GYPOS
	.globl _g_GXPOS
	.globl _g_BRDATR
	.globl _g_CASPRV
	.globl _g_OLDSCR
	.globl _g_SCRMOD
	.globl _g_FLBMEM
	.globl _g_KANAMD
	.globl _g_KANAST
	.globl _g_CAPST
	.globl _g_CSTYLE
	.globl _g_CSRSW
	.globl _g_INSFLG
	.globl _g_ESCCNT
	.globl _g_GRPHED
	.globl _g_WINWID
	.globl _g_LOWLIM
	.globl _g_INTCNT
	.globl _g_INTVAL
	.globl _g_JIFFY
	.globl _g_PADX
	.globl _g_PADY
	.globl _g_INTFLG
	.globl _g_RTYCNT
	.globl _g_TRPTBL
	.globl _g_HIMEM
	.globl _g_BOTTOM
	.globl _g_PATWRK
	.globl _g_LINWRK
	.globl _g_KEYBUF
	.globl _g_NEWKEY
	.globl _g_OLDKEY
	.globl _g_CLIKFL
	.globl _g_ONGSBF
	.globl _g_FNKFLG
	.globl _g_FNKSWI
	.globl _g_CODSAV
	.globl _g_FSTPOS
	.globl _g_LINTTB
	.globl _g_BASROM
	.globl _g_ENSTOP
	.globl _g_VCBC
	.globl _g_VCBB
	.globl _g_VCBA
	.globl _g_PLYCNT
	.globl _g_MUSICF
	.globl _g_QUEUEN
	.globl _g_MCLPTR
	.globl _g_MCLLEN
	.globl _g_SAVVOL
	.globl _g_VOICEN
	.globl _g_SAVSP
	.globl _g_PRSCNT
	.globl _g_LSTMOD
	.globl _g_LSTCOM
	.globl _g_COMMSK
	.globl _g_ESTBLS
	.globl _g_FLAGS
	.globl _g_ERRORS
	.globl _g_DATCNT
	.globl _g_DEVNUM
	.globl _g_OLDINT
	.globl _g_OLDSTT
	.globl _g_MEXBIh
	.globl _g_RSIQLN
	.globl _g_RSFCB
	.globl _g_TOCNT
	.globl _g_RSTMP
	.globl _g_YSAVE
	.globl _g_XSAVE
	.globl _g_NORUSE
	.globl _g_MODE
	.globl _g_ROMA
	.globl _g_CHRCNT
	.globl _g_EXBRSA
	.globl _g_AVCSAV
	.globl _g_ACPAGE
	.globl _g_DPPAGE
	.globl _g_RS2IQ
	.globl _g_VOICCQ
	.globl _g_VOICBQ
	.globl _g_VOICAQ
	.globl _g_QUEBAK
	.globl _g_QUETAB
	.globl _g_ASPCT2
	.globl _g_ASPCT1
	.globl _g_HEADER
	.globl _g_HIGH
	.globl _g_LOW
	.globl _g_CS240
	.globl _g_CS120
	.globl _g_GETPNT
	.globl _g_PUTPNT
	.globl _g_REPCNT
	.globl _g_SCNCNT
	.globl _g_FRCNEW
	.globl _g_QUEUES
	.globl _g_MINUPD
	.globl _g_MAXUPD
	.globl _g_TRGFLG
	.globl _g_STATFL
	.globl _g_RG7SAV
	.globl _g_RG6SAV
	.globl _g_RG5SAV
	.globl _g_RG4SAV
	.globl _g_RG3SAV
	.globl _g_RG2SAV
	.globl _g_RG1SAV
	.globl _g_RG0SAV
	.globl _g_CNSDFG
	.globl _g_USRTAB
	.globl _g_CLPRIM
	.globl _g_WRPRIM
	.globl _g_RDPRIM
	.globl _GetDrawFrame
	.globl _MainLoop
;--------------------------------------------------------
; special function registers
;--------------------------------------------------------
_g_PortPrimarySlot	=	0x00a8
_g_PortReadKeyboard	=	0x00a9
_g_PortAccessKeyboard	=	0x00aa
_g_PortControl	=	0x00ab
_g_VDP_DataPort	=	0x0098
_g_VDP_RegPort	=	0x0099
_g_VDP_AddrPort	=	0x0099
_g_VDP_StatPort	=	0x0099
_g_VDP_PalPort	=	0x009a
_g_VDP_IRegPort	=	0x009b
_g_PSG_RegPort	=	0x00a0
_g_PSG_DataPort	=	0x00a1
_g_PSG_StatPort	=	0x00a2
_g_PSG_Ext_RegPort	=	0x0010
_g_PSG_Ext_DataPort	=	0x0011
_g_PSG_Ext_StatPort	=	0x0012
_g_MSXMusic_IndexPort	=	0x007c
_g_MSXMusic_DataPort	=	0x007d
_g_MSXAudio_IndexPort	=	0x00c0
_g_MSXAudio_DataPort	=	0x00c1
_g_MSXAudio_IndexPort2	=	0x00c2
_g_MSXAudio_DataPort2	=	0x00c3
_g_RTC_AddrPort	=	0x00b4
_g_RTC_DataPort	=	0x00b5
;--------------------------------------------------------
; ram data
;--------------------------------------------------------
	.area _DATA
_g_LINL40	=	0xf3ae
_g_LINL32	=	0xf3af
_g_LINLEN	=	0xf3b0
_g_CRTCNT	=	0xf3b1
_g_CLMLST	=	0xf3b2
_g_TXTNAM	=	0xf3b3
_g_TXTCOL	=	0xf3b5
_g_TXTCGP	=	0xf3b7
_g_TXTATR	=	0xf3b9
_g_TXTPAT	=	0xf3bb
_g_T32NAM	=	0xf3bd
_g_T32COL	=	0xf3bf
_g_T32CGP	=	0xf3c1
_g_T32ATR	=	0xf3c3
_g_T32PAT	=	0xf3c5
_g_GRPNAM	=	0xf3c7
_g_GRPCOL	=	0xf3c9
_g_GRPCGP	=	0xf3cb
_g_GRPATR	=	0xf3cd
_g_GRPPAT	=	0xf3cf
_g_MLTNAM	=	0xf3d1
_g_MLTCOL	=	0xf3d3
_g_MLTCGP	=	0xf3d5
_g_MLTATR	=	0xf3d7
_g_MLTPAT	=	0xf3d9
_g_CLIKSW	=	0xf3db
_g_CSRY	=	0xf3dc
_g_CSRX	=	0xf3dd
_g_FORCLR	=	0xf3e9
_g_BAKCLR	=	0xf3ea
_g_BDRCLR	=	0xf3eb
_g_ATRBYT	=	0xf3f2
_g_FNKSTR	=	0xf87f
_g_CLOC	=	0xf92a
_g_CMASK	=	0xf92c
_g_LOGOPR	=	0xfb02
_g_GRPACX	=	0xfcb7
_g_GRPACY	=	0xfcb9
_g_SLTSL	=	0xffff
;--------------------------------------------------------
; ram data
;--------------------------------------------------------
	.area _INITIALIZED
;--------------------------------------------------------
; absolute external ram data
;--------------------------------------------------------
	.area _DABS (ABS)
;--------------------------------------------------------
; global & static initialisations
;--------------------------------------------------------
	.area _HOME
	.area _GSINIT
	.area _GSFINAL
	.area _GSINIT
;--------------------------------------------------------
; Home
;--------------------------------------------------------
	.area _HOME
	.area _HOME
;--------------------------------------------------------
; code
;--------------------------------------------------------
	.area _SEG4
;E:\Dropbox\FAUSTO\SVILUPPI\MSX\CODE\C\MSXgl\projects\soccerlgMSX2/soccerlg_s4_b3.c:1002: u16 GetDrawFrame(u8 i) {
;	---------------------------------
; Function GetDrawFrame
; ---------------------------------
_GetDrawFrame::
	ld	c, a
;E:\Dropbox\FAUSTO\SVILUPPI\MSX\CODE\C\MSXgl\projects\soccerlgMSX2/soccerlg_s4_b3.c:1003: u16 f = SwSprite[i].frame;
	ld	de, #_SwSprite+0
	ld	b, #0x00
	ld	l, c
	ld	h, b
	add	hl, hl
	add	hl, hl
	add	hl, bc
	add	hl, hl
	add	hl, bc
	add	hl, hl
	add	hl, bc
	add	hl, de
	ld	de, #0x000f
	add	hl, de
	ld	e, (hl)
	inc	hl
	ld	d, (hl)
;E:\Dropbox\FAUSTO\SVILUPPI\MSX\CODE\C\MSXgl\projects\soccerlgMSX2/soccerlg_s4_b3.c:1004: if (i >= 7) { // P1 controls Team 2
	ld	a, c
	sub	a, #0x07
	jr	C, 00110$
;E:\Dropbox\FAUSTO\SVILUPPI\MSX\CODE\C\MSXgl\projects\soccerlgMSX2/soccerlg_s4_b3.c:1005: if (i == T2_Carrier || i == T2_Receiver) return f + SPRITE_FOCUSED_PLAYER_OFFSET;
	ld	a, (_T2_Carrier+0)
	sub	a, c
	jr	Z, 00101$
	ld	a, (_T2_Receiver+0)
	sub	a, c
	ret	NZ
00101$:
	ld	hl, #0x0030
	add	hl, de
	ex	de, hl
	ret
00110$:
;E:\Dropbox\FAUSTO\SVILUPPI\MSX\CODE\C\MSXgl\projects\soccerlgMSX2/soccerlg_s4_b3.c:1006: } else if (GameMode == GAMEMODE_P1_VS_P2) { // P2 controls Team 1
	ld	a, (_GameMode+0)
	dec	a
	ret	NZ
;E:\Dropbox\FAUSTO\SVILUPPI\MSX\CODE\C\MSXgl\projects\soccerlgMSX2/soccerlg_s4_b3.c:1007: if (i == T1_Carrier || i == T1_Receiver) return f + SPRITE_FOCUSED_PLAYER_OFFSET;
	ld	a, (_T1_Carrier+0)
	sub	a, c
	jr	Z, 00104$
	ld	a, (_T1_Receiver+0)
	sub	a, c
	ret	NZ
00104$:
	ld	hl, #0x0030
	add	hl, de
	ex	de, hl
;E:\Dropbox\FAUSTO\SVILUPPI\MSX\CODE\C\MSXgl\projects\soccerlgMSX2/soccerlg_s4_b3.c:1009: return f;
;E:\Dropbox\FAUSTO\SVILUPPI\MSX\CODE\C\MSXgl\projects\soccerlgMSX2/soccerlg_s4_b3.c:1010: }
	ret
_g_RDPRIM	=	0xf380
_g_WRPRIM	=	0xf385
_g_CLPRIM	=	0xf38c
_g_USRTAB	=	0xf39a
_g_CNSDFG	=	0xf3de
_g_RG0SAV	=	0xf3df
_g_RG1SAV	=	0xf3e0
_g_RG2SAV	=	0xf3e1
_g_RG3SAV	=	0xf3e2
_g_RG4SAV	=	0xf3e3
_g_RG5SAV	=	0xf3e4
_g_RG6SAV	=	0xf3e5
_g_RG7SAV	=	0xf3e6
_g_STATFL	=	0xf3e7
_g_TRGFLG	=	0xf3e8
_g_MAXUPD	=	0xf3ec
_g_MINUPD	=	0xf3ef
_g_QUEUES	=	0xf3f3
_g_FRCNEW	=	0xf3f5
_g_SCNCNT	=	0xf3f6
_g_REPCNT	=	0xf3f7
_g_PUTPNT	=	0xf3f8
_g_GETPNT	=	0xf3fa
_g_CS120	=	0xf3fc
_g_CS240	=	0xf401
_g_LOW	=	0xf406
_g_HIGH	=	0xf408
_g_HEADER	=	0xf40a
_g_ASPCT1	=	0xf40b
_g_ASPCT2	=	0xf40d
_g_QUETAB	=	0xf959
_g_QUEBAK	=	0xf971
_g_VOICAQ	=	0xf975
_g_VOICBQ	=	0xf9f5
_g_VOICCQ	=	0xfa75
_g_RS2IQ	=	0xfaf5
_g_DPPAGE	=	0xfaf5
_g_ACPAGE	=	0xfaf6
_g_AVCSAV	=	0xfaf7
_g_EXBRSA	=	0xfaf8
_g_CHRCNT	=	0xfaf9
_g_ROMA	=	0xfafa
_g_MODE	=	0xfafc
_g_NORUSE	=	0xfafd
_g_XSAVE	=	0xfafe
_g_YSAVE	=	0xfb00
_g_RSTMP	=	0xfb03
_g_TOCNT	=	0xfb03
_g_RSFCB	=	0xfb04
_g_RSIQLN	=	0xfb06
_g_MEXBIh	=	0xfb07
_g_OLDSTT	=	0xfb0c
_g_OLDINT	=	0xfb0c
_g_DEVNUM	=	0xfb16
_g_DATCNT	=	0xfb17
_g_ERRORS	=	0xfb1a
_g_FLAGS	=	0xfb1b
_g_ESTBLS	=	0xfb1c
_g_COMMSK	=	0xfb1d
_g_LSTCOM	=	0xfb1e
_g_LSTMOD	=	0xfb1f
_g_PRSCNT	=	0xfb35
_g_SAVSP	=	0xfb36
_g_VOICEN	=	0xfb38
_g_SAVVOL	=	0xfb39
_g_MCLLEN	=	0xfb3b
_g_MCLPTR	=	0xfb3c
_g_QUEUEN	=	0xfb3e
_g_MUSICF	=	0xfb3f
_g_PLYCNT	=	0xfb40
_g_VCBA	=	0xfb41
_g_VCBB	=	0xfb66
_g_VCBC	=	0xfb8b
_g_ENSTOP	=	0xfbb0
_g_BASROM	=	0xfbb1
_g_LINTTB	=	0xfbb2
_g_FSTPOS	=	0xfbca
_g_CODSAV	=	0xfbcc
_g_FNKSWI	=	0xfbcd
_g_FNKFLG	=	0xfbce
_g_ONGSBF	=	0xfbd8
_g_CLIKFL	=	0xfbd9
_g_OLDKEY	=	0xfbda
_g_NEWKEY	=	0xfbe5
_g_KEYBUF	=	0xfbf0
_g_LINWRK	=	0xfc18
_g_PATWRK	=	0xfc40
_g_BOTTOM	=	0xfc48
_g_HIMEM	=	0xfc4a
_g_TRPTBL	=	0xfc4c
_g_RTYCNT	=	0xfc9a
_g_INTFLG	=	0xfc9b
_g_PADY	=	0xfc9c
_g_PADX	=	0xfc9d
_g_JIFFY	=	0xfc9e
_g_INTVAL	=	0xfca0
_g_INTCNT	=	0xfca2
_g_LOWLIM	=	0xfca4
_g_WINWID	=	0xfca5
_g_GRPHED	=	0xfca6
_g_ESCCNT	=	0xfca7
_g_INSFLG	=	0xfca8
_g_CSRSW	=	0xfca9
_g_CSTYLE	=	0xfcaa
_g_CAPST	=	0xfcab
_g_KANAST	=	0xfcac
_g_KANAMD	=	0xfcad
_g_FLBMEM	=	0xfcae
_g_SCRMOD	=	0xfcaf
_g_OLDSCR	=	0xfcb0
_g_CASPRV	=	0xfcb1
_g_BRDATR	=	0xfcb2
_g_GXPOS	=	0xfcb3
_g_GYPOS	=	0xfcb5
_g_DRWFLG	=	0xfcbb
_g_DRWSCL	=	0xfcbc
_g_DRWANG	=	0xfcbd
_g_MNROM	=	0xfcc1
_g_EXPTBL	=	0xfcc1
_g_SLTTBL	=	0xfcc5
_g_SLTATR	=	0xfcc9
_g_SLTWRK	=	0xfd09
_g_PROCNM	=	0xfd89
_g_RG08SAV	=	0xffe7
_g_RG09SAV	=	0xffe8
_g_RG10SAV	=	0xffe9
_g_RG11SAV	=	0xffea
_g_RG12SAV	=	0xffeb
_g_RG13SAV	=	0xffec
_g_RG14SAV	=	0xffed
_g_RG15SAV	=	0xffee
_g_RG16SAV	=	0xffef
_g_RG17SAV	=	0xfff0
_g_RG18SAV	=	0xfff1
_g_RG19SAV	=	0xfff2
_g_RG20SAV	=	0xfff3
_g_RG21SAV	=	0xfff4
_g_RG22SAV	=	0xfff5
_g_RG23SAV	=	0xfff6
_g_MINROM	=	0xfff7
_g_SVFFF8	=	0xfff8
_g_RG25SAV	=	0xfffa
_g_RG26SAV	=	0xfffb
_g_RG27SAV	=	0xfffc
_g_SVFFFD	=	0xfffd
_g_CGTABL	=	0x0004
_g_VDP_DR	=	0x0006
_g_VDP_DW	=	0x0007
_g_BASRVN	=	0x002b
_g_ROMVersion	=	0x002b
_g_MSXVER	=	0x002d
_g_MSXMID	=	0x002e
_g_CHAR_16	=	0x0034
_g_SUBRID	=	0x0000
_g_STRSRC	=	0x0002
_g_KANJTABLE	=	0xf30f
_g_DISKVE	=	0xf323
_g_BREAKV	=	0xf325
_g_RAMAD0	=	0xf341
_g_RAMAD1	=	0xf342
_g_RAMAD2	=	0xf343
_g_RAMAD3	=	0xf344
_g_MASTER	=	0xf348
_g_BDOS	=	0xf37d
_g_Fonts:
	.db #0x88	; 136
	.db #0x88	; 136
	.db #0x21	; 33
	.db #0x7e	; 126
	.db #0x78	; 120	'x'
	.db #0x48	; 72	'H'
	.db #0x48	; 72	'H'
	.db #0x48	; 72	'H'
	.db #0x78	; 120	'x'
	.db #0x48	; 72	'H'
	.db #0x78	; 120	'x'
	.db #0x00	; 0
	.db #0x7c	; 124
	.db #0x54	; 84	'T'
	.db #0x54	; 84	'T'
	.db #0x7c	; 124
	.db #0x00	; 0
	.db #0x00	; 0
	.db #0x00	; 0
	.db #0x00	; 0
	.db #0x7c	; 124
	.db #0xd6	; 214
	.db #0x82	; 130
	.db #0xd6	; 214
	.db #0x82	; 130
	.db #0xd6	; 214
	.db #0x7c	; 124
	.db #0x00	; 0
	.db #0x6e	; 110	'n'
	.db #0xc2	; 194
	.db #0xae	; 174
	.db #0xc6	; 198
	.db #0xea	; 234
	.db #0x86	; 134
	.db #0xec	; 236
	.db #0x00	; 0
	.db #0xee	; 238
	.db #0xba	; 186
	.db #0xf6	; 246
	.db #0x6c	; 108	'l'
	.db #0xde	; 222
	.db #0xba	; 186
	.db #0xee	; 238
	.db #0x00	; 0
	.db #0x78	; 120	'x'
	.db #0xc8	; 200
	.db #0xae	; 174
	.db #0xca	; 202
	.db #0xb6	; 182
	.db #0xca	; 202
	.db #0x7e	; 126
	.db #0x00	; 0
	.db #0x78	; 120	'x'
	.db #0x48	; 72	'H'
	.db #0x58	; 88	'X'
	.db #0x70	; 112	'p'
	.db #0x00	; 0
	.db #0x00	; 0
	.db #0x00	; 0
	.db #0x00	; 0
	.db #0x1c	; 28
	.db #0x34	; 52	'4'
	.db #0x2c	; 44
	.db #0x28	; 40
	.db #0x2c	; 44
	.db #0x34	; 52	'4'
	.db #0x1c	; 28
	.db #0x00	; 0
	.db #0x38	; 56	'8'
	.db #0x2c	; 44
	.db #0x34	; 52	'4'
	.db #0x14	; 20
	.db #0x34	; 52	'4'
	.db #0x2c	; 44
	.db #0x38	; 56	'8'
	.db #0x00	; 0
	.db #0x00	; 0
	.db #0x7c	; 124
	.db #0x54	; 84	'T'
	.db #0x6c	; 108	'l'
	.db #0x54	; 84	'T'
	.db #0x7c	; 124
	.db #0x00	; 0
	.db #0x00	; 0
	.db #0x00	; 0
	.db #0x38	; 56	'8'
	.db #0x6c	; 108	'l'
	.db #0x44	; 68	'D'
	.db #0x6c	; 108	'l'
	.db #0x38	; 56	'8'
	.db #0x00	; 0
	.db #0x00	; 0
	.db #0x00	; 0
	.db #0x00	; 0
	.db #0x00	; 0
	.db #0x00	; 0
	.db #0x70	; 112	'p'
	.db #0xd0	; 208
	.db #0x90	; 144
	.db #0xf0	; 240
	.db #0x00	; 0
	.db #0x00	; 0
	.db #0x7c	; 124
	.db #0x44	; 68	'D'
	.db #0x7c	; 124
	.db #0x00	; 0
	.db #0x00	; 0
	.db #0x00	; 0
	.db #0x00	; 0
	.db #0x00	; 0
	.db #0x00	; 0
	.db #0x00	; 0
	.db #0x70	; 112	'p'
	.db #0x50	; 80	'P'
	.db #0x70	; 112	'p'
	.db #0x00	; 0
	.db #0x0e	; 14
	.db #0x1a	; 26
	.db #0x36	; 54	'6'
	.db #0x6c	; 108	'l'
	.db #0xd8	; 216
	.db #0xb0	; 176
	.db #0xe0	; 224
	.db #0x00	; 0
	.db #0x3c	; 60
	.db #0x66	; 102	'f'
	.db #0x5a	; 90	'Z'
	.db #0x5a	; 90	'Z'
	.db #0x5a	; 90	'Z'
	.db #0x66	; 102	'f'
	.db #0x3c	; 60
	.db #0x00	; 0
	.db #0x38	; 56	'8'
	.db #0x68	; 104	'h'
	.db #0x48	; 72	'H'
	.db #0x68	; 104	'h'
	.db #0x6c	; 108	'l'
	.db #0x44	; 68	'D'
	.db #0x7c	; 124
	.db #0x00	; 0
	.db #0x7c	; 124
	.db #0x46	; 70	'F'
	.db #0x7a	; 122	'z'
	.db #0x66	; 102	'f'
	.db #0x5e	; 94
	.db #0x42	; 66	'B'
	.db #0x7e	; 126
	.db #0x00	; 0
	.db #0x7c	; 124
	.db #0x46	; 70	'F'
	.db #0x7a	; 122	'z'
	.db #0x26	; 38
	.db #0x7a	; 122	'z'
	.db #0x46	; 70	'F'
	.db #0x7c	; 124
	.db #0x00	; 0
	.db #0x70	; 112	'p'
	.db #0x5c	; 92
	.db #0x56	; 86	'V'
	.db #0x42	; 66	'B'
	.db #0x76	; 118	'v'
	.db #0x14	; 20
	.db #0x1c	; 28
	.db #0x00	; 0
	.db #0x7e	; 126
	.db #0x42	; 66	'B'
	.db #0x5e	; 94
	.db #0x46	; 70	'F'
	.db #0x7a	; 122	'z'
	.db #0x46	; 70	'F'
	.db #0x7c	; 124
	.db #0x00	; 0
	.db #0x3e	; 62
	.db #0x62	; 98	'b'
	.db #0x5e	; 94
	.db #0x46	; 70	'F'
	.db #0x5a	; 90	'Z'
	.db #0x66	; 102	'f'
	.db #0x3c	; 60
	.db #0x00	; 0
	.db #0x7e	; 126
	.db #0x42	; 66	'B'
	.db #0x7a	; 122	'z'
	.db #0x36	; 54	'6'
	.db #0x6c	; 108	'l'
	.db #0x58	; 88	'X'
	.db #0x70	; 112	'p'
	.db #0x00	; 0
	.db #0x3c	; 60
	.db #0x66	; 102	'f'
	.db #0x5a	; 90	'Z'
	.db #0x66	; 102	'f'
	.db #0x5a	; 90	'Z'
	.db #0x66	; 102	'f'
	.db #0x3c	; 60
	.db #0x00	; 0
	.db #0x3c	; 60
	.db #0x66	; 102	'f'
	.db #0x5a	; 90	'Z'
	.db #0x62	; 98	'b'
	.db #0x7a	; 122	'z'
	.db #0x46	; 70	'F'
	.db #0x7c	; 124
	.db #0x00	; 0
	.db #0x00	; 0
	.db #0x70	; 112	'p'
	.db #0x50	; 80	'P'
	.db #0x70	; 112	'p'
	.db #0x50	; 80	'P'
	.db #0x70	; 112	'p'
	.db #0x00	; 0
	.db #0x00	; 0
	.db #0x00	; 0
	.db #0x00	; 0
	.db #0x70	; 112	'p'
	.db #0x50	; 80	'P'
	.db #0x70	; 112	'p'
	.db #0xd0	; 208
	.db #0x90	; 144
	.db #0xf0	; 240
	.db #0x1c	; 28
	.db #0x34	; 52	'4'
	.db #0x6c	; 108	'l'
	.db #0x58	; 88	'X'
	.db #0x6c	; 108	'l'
	.db #0x34	; 52	'4'
	.db #0x1c	; 28
	.db #0x00	; 0
	.db #0x00	; 0
	.db #0x7c	; 124
	.db #0x44	; 68	'D'
	.db #0x7c	; 124
	.db #0x44	; 68	'D'
	.db #0x7c	; 124
	.db #0x00	; 0
	.db #0x00	; 0
	.db #0x70	; 112	'p'
	.db #0x58	; 88	'X'
	.db #0x6c	; 108	'l'
	.db #0x34	; 52	'4'
	.db #0x6c	; 108	'l'
	.db #0x58	; 88	'X'
	.db #0x70	; 112	'p'
	.db #0x00	; 0
	.db #0x78	; 120	'x'
	.db #0x4c	; 76	'L'
	.db #0x74	; 116	't'
	.db #0x2c	; 44
	.db #0x38	; 56	'8'
	.db #0x28	; 40
	.db #0x38	; 56	'8'
	.db #0x00	; 0
	.db #0x7c	; 124
	.db #0xc6	; 198
	.db #0xba	; 186
	.db #0xfa	; 250
	.db #0x4a	; 74	'J'
	.db #0x46	; 70	'F'
	.db #0x7c	; 124
	.db #0x00	; 0
	.db #0x3c	; 60
	.db #0x66	; 102	'f'
	.db #0x5a	; 90	'Z'
	.db #0x5a	; 90	'Z'
	.db #0x42	; 66	'B'
	.db #0x5a	; 90	'Z'
	.db #0x7e	; 126
	.db #0x00	; 0
	.db #0x7c	; 124
	.db #0x46	; 70	'F'
	.db #0x5a	; 90	'Z'
	.db #0x46	; 70	'F'
	.db #0x5a	; 90	'Z'
	.db #0x46	; 70	'F'
	.db #0x7c	; 124
	.db #0x00	; 0
	.db #0x3c	; 60
	.db #0x66	; 102	'f'
	.db #0x5a	; 90	'Z'
	.db #0x5e	; 94
	.db #0x5a	; 90	'Z'
	.db #0x66	; 102	'f'
	.db #0x3c	; 60
	.db #0x00	; 0
	.db #0x7c	; 124
	.db #0x46	; 70	'F'
	.db #0x5a	; 90	'Z'
	.db #0x5a	; 90	'Z'
	.db #0x5a	; 90	'Z'
	.db #0x46	; 70	'F'
	.db #0x7c	; 124
	.db #0x00	; 0
	.db #0x7e	; 126
	.db #0x42	; 66	'B'
	.db #0x5e	; 94
	.db #0x44	; 68	'D'
	.db #0x5e	; 94
	.db #0x42	; 66	'B'
	.db #0x7e	; 126
	.db #0x00	; 0
	.db #0x7e	; 126
	.db #0x42	; 66	'B'
	.db #0x5e	; 94
	.db #0x44	; 68	'D'
	.db #0x5c	; 92
	.db #0x50	; 80	'P'
	.db #0x70	; 112	'p'
	.db #0x00	; 0
	.db #0x3c	; 60
	.db #0x66	; 102	'f'
	.db #0x5e	; 94
	.db #0x52	; 82	'R'
	.db #0x5a	; 90	'Z'
	.db #0x66	; 102	'f'
	.db #0x3c	; 60
	.db #0x00	; 0
	.db #0x7e	; 126
	.db #0x5a	; 90	'Z'
	.db #0x5a	; 90	'Z'
	.db #0x42	; 66	'B'
	.db #0x5a	; 90	'Z'
	.db #0x5a	; 90	'Z'
	.db #0x7e	; 126
	.db #0x00	; 0
	.db #0x7c	; 124
	.db #0x44	; 68	'D'
	.db #0x6c	; 108	'l'
	.db #0x28	; 40
	.db #0x6c	; 108	'l'
	.db #0x44	; 68	'D'
	.db #0x7c	; 124
	.db #0x00	; 0
	.db #0x7e	; 126
	.db #0x42	; 66	'B'
	.db #0x76	; 118	'v'
	.db #0x74	; 116	't'
	.db #0x54	; 84	'T'
	.db #0x6c	; 108	'l'
	.db #0x38	; 56	'8'
	.db #0x00	; 0
	.db #0x7e	; 126
	.db #0x5a	; 90	'Z'
	.db #0x56	; 86	'V'
	.db #0x4c	; 76	'L'
	.db #0x56	; 86	'V'
	.db #0x5a	; 90	'Z'
	.db #0x7e	; 126
	.db #0x00	; 0
	.db #0x70	; 112	'p'
	.db #0x50	; 80	'P'
	.db #0x50	; 80	'P'
	.db #0x50	; 80	'P'
	.db #0x5e	; 94
	.db #0x42	; 66	'B'
	.db #0x7e	; 126
	.db #0x00	; 0
	.db #0xee	; 238
	.db #0xba	; 186
	.db #0x92	; 146
	.db #0xaa	; 170
	.db #0xba	; 186
	.db #0xaa	; 170
	.db #0xee	; 238
	.db #0x00	; 0
	.db #0xee	; 238
	.db #0xba	; 186
	.db #0x9a	; 154
	.db #0xaa	; 170
	.db #0xb2	; 178
	.db #0xba	; 186
	.db #0xee	; 238
	.db #0x00	; 0
	.db #0x7c	; 124
	.db #0xc6	; 198
	.db #0xba	; 186
	.db #0xba	; 186
	.db #0xba	; 186
	.db #0xc6	; 198
	.db #0x7c	; 124
	.db #0x00	; 0
	.db #0x7c	; 124
	.db #0x46	; 70	'F'
	.db #0x5a	; 90	'Z'
	.db #0x46	; 70	'F'
	.db #0x5c	; 92
	.db #0x50	; 80	'P'
	.db #0x70	; 112	'p'
	.db #0x00	; 0
	.db #0x3e	; 62
	.db #0x62	; 98	'b'
	.db #0x5a	; 90	'Z'
	.db #0x62	; 98	'b'
	.db #0x3a	; 58
	.db #0x0a	; 10
	.db #0x0e	; 14
	.db #0x00	; 0
	.db #0x7c	; 124
	.db #0x46	; 70	'F'
	.db #0x5a	; 90	'Z'
	.db #0x46	; 70	'F'
	.db #0x5a	; 90	'Z'
	.db #0x5a	; 90	'Z'
	.db #0x7e	; 126
	.db #0x00	; 0
	.db #0x3e	; 62
	.db #0x62	; 98	'b'
	.db #0x5e	; 94
	.db #0x66	; 102	'f'
	.db #0x7a	; 122	'z'
	.db #0x46	; 70	'F'
	.db #0x7c	; 124
	.db #0x00	; 0
	.db #0xfe	; 254
	.db #0x82	; 130
	.db #0xee	; 238
	.db #0x28	; 40
	.db #0x28	; 40
	.db #0x28	; 40
	.db #0x38	; 56	'8'
	.db #0x00	; 0
	.db #0x7e	; 126
	.db #0x5a	; 90	'Z'
	.db #0x5a	; 90	'Z'
	.db #0x5a	; 90	'Z'
	.db #0x5a	; 90	'Z'
	.db #0x66	; 102	'f'
	.db #0x3c	; 60
	.db #0x00	; 0
	.db #0xee	; 238
	.db #0xaa	; 170
	.db #0xba	; 186
	.db #0xd6	; 214
	.db #0x54	; 84	'T'
	.db #0x6c	; 108	'l'
	.db #0x38	; 56	'8'
	.db #0x00	; 0
	.db #0xee	; 238
	.db #0xaa	; 170
	.db #0xba	; 186
	.db #0xaa	; 170
	.db #0xaa	; 170
	.db #0xd6	; 214
	.db #0x7c	; 124
	.db #0x00	; 0
	.db #0xee	; 238
	.db #0xba	; 186
	.db #0xd6	; 214
	.db #0x6c	; 108	'l'
	.db #0xd6	; 214
	.db #0xba	; 186
	.db #0xee	; 238
	.db #0x00	; 0
	.db #0x7e	; 126
	.db #0x5a	; 90	'Z'
	.db #0x5a	; 90	'Z'
	.db #0x66	; 102	'f'
	.db #0x34	; 52	'4'
	.db #0x14	; 20
	.db #0x1c	; 28
	.db #0x00	; 0
	.db #0x7e	; 126
	.db #0x42	; 66	'B'
	.db #0x7a	; 122	'z'
	.db #0x66	; 102	'f'
	.db #0x5e	; 94
	.db #0x42	; 66	'B'
	.db #0x7e	; 126
	.db #0x00	; 0
	.db #0x3c	; 60
	.db #0x24	; 36
	.db #0x2c	; 44
	.db #0x28	; 40
	.db #0x2c	; 44
	.db #0x24	; 36
	.db #0x3c	; 60
	.db #0x00	; 0
	.db #0xe0	; 224
	.db #0xb0	; 176
	.db #0xd8	; 216
	.db #0x6c	; 108	'l'
	.db #0x36	; 54	'6'
	.db #0x1a	; 26
	.db #0x0e	; 14
	.db #0x00	; 0
	.db #0x3c	; 60
	.db #0x24	; 36
	.db #0x34	; 52	'4'
	.db #0x14	; 20
	.db #0x34	; 52	'4'
	.db #0x24	; 36
	.db #0x3c	; 60
	.db #0x00	; 0
	.db #0x38	; 56	'8'
	.db #0x6c	; 108	'l'
	.db #0xd6	; 214
	.db #0xba	; 186
	.db #0xee	; 238
	.db #0x00	; 0
	.db #0x00	; 0
	.db #0x00	; 0
	.db #0x00	; 0
	.db #0x00	; 0
	.db #0x00	; 0
	.db #0x00	; 0
	.db #0x00	; 0
	.db #0xfe	; 254
	.db #0x82	; 130
	.db #0xfe	; 254
	.db #0x78	; 120	'x'
	.db #0x48	; 72	'H'
	.db #0x68	; 104	'h'
	.db #0x38	; 56	'8'
	.db #0x00	; 0
	.db #0x00	; 0
	.db #0x00	; 0
	.db #0x00	; 0
	.db #0x3c	; 60
	.db #0x26	; 38
	.db #0x3a	; 58
	.db #0x62	; 98	'b'
	.db #0x5a	; 90	'Z'
	.db #0x62	; 98	'b'
	.db #0x3e	; 62
	.db #0x00	; 0
	.db #0x70	; 112	'p'
	.db #0x50	; 80	'P'
	.db #0x5c	; 92
	.db #0x46	; 70	'F'
	.db #0x5a	; 90	'Z'
	.db #0x46	; 70	'F'
	.db #0x7c	; 124
	.db #0x00	; 0
	.db #0x00	; 0
	.db #0x3e	; 62
	.db #0x62	; 98	'b'
	.db #0x5e	; 94
	.db #0x5e	; 94
	.db #0x62	; 98	'b'
	.db #0x3e	; 62
	.db #0x00	; 0
	.db #0x0e	; 14
	.db #0x0a	; 10
	.db #0x3a	; 58
	.db #0x62	; 98	'b'
	.db #0x5a	; 90	'Z'
	.db #0x62	; 98	'b'
	.db #0x3e	; 62
	.db #0x00	; 0
	.db #0x3c	; 60
	.db #0x66	; 102	'f'
	.db #0x5a	; 90	'Z'
	.db #0x46	; 70	'F'
	.db #0x5e	; 94
	.db #0x62	; 98	'b'
	.db #0x3e	; 62
	.db #0x00	; 0
	.db #0x3e	; 62
	.db #0x62	; 98	'b'
	.db #0x5e	; 94
	.db #0x44	; 68	'D'
	.db #0x5c	; 92
	.db #0x50	; 80	'P'
	.db #0x70	; 112	'p'
	.db #0x00	; 0
	.db #0x00	; 0
	.db #0x3e	; 62
	.db #0x62	; 98	'b'
	.db #0x5a	; 90	'Z'
	.db #0x62	; 98	'b'
	.db #0x7a	; 122	'z'
	.db #0x46	; 70	'F'
	.db #0x7c	; 124
	.db #0x70	; 112	'p'
	.db #0x50	; 80	'P'
	.db #0x5c	; 92
	.db #0x46	; 70	'F'
	.db #0x5a	; 90	'Z'
	.db #0x5a	; 90	'Z'
	.db #0x7e	; 126
	.db #0x00	; 0
	.db #0x00	; 0
	.db #0x38	; 56	'8'
	.db #0x28	; 40
	.db #0x38	; 56	'8'
	.db #0x2c	; 44
	.db #0x24	; 36
	.db #0x3c	; 60
	.db #0x00	; 0
	.db #0x00	; 0
	.db #0x0e	; 14
	.db #0x0a	; 10
	.db #0x0e	; 14
	.db #0x7a	; 122	'z'
	.db #0x5a	; 90	'Z'
	.db #0x66	; 102	'f'
	.db #0x3c	; 60
	.db #0x70	; 112	'p'
	.db #0x50	; 80	'P'
	.db #0x5e	; 94
	.db #0x52	; 82	'R'
	.db #0x4e	; 78	'N'
	.db #0x52	; 82	'R'
	.db #0x7e	; 126
	.db #0x00	; 0
	.db #0x38	; 56	'8'
	.db #0x28	; 40
	.db #0x28	; 40
	.db #0x28	; 40
	.db #0x2c	; 44
	.db #0x34	; 52	'4'
	.db #0x1c	; 28
	.db #0x00	; 0
	.db #0x00	; 0
	.db #0x00	; 0
	.db #0xfc	; 252
	.db #0x86	; 134
	.db #0xaa	; 170
	.db #0xaa	; 170
	.db #0xfe	; 254
	.db #0x00	; 0
	.db #0x00	; 0
	.db #0x00	; 0
	.db #0x7c	; 124
	.db #0x46	; 70	'F'
	.db #0x5a	; 90	'Z'
	.db #0x5a	; 90	'Z'
	.db #0x7e	; 126
	.db #0x00	; 0
	.db #0x00	; 0
	.db #0x00	; 0
	.db #0x3c	; 60
	.db #0x66	; 102	'f'
	.db #0x5a	; 90	'Z'
	.db #0x66	; 102	'f'
	.db #0x3c	; 60
	.db #0x00	; 0
	.db #0x00	; 0
	.db #0x00	; 0
	.db #0x7c	; 124
	.db #0x46	; 70	'F'
	.db #0x5a	; 90	'Z'
	.db #0x46	; 70	'F'
	.db #0x5c	; 92
	.db #0x70	; 112	'p'
	.db #0x00	; 0
	.db #0x00	; 0
	.db #0x3c	; 60
	.db #0x62	; 98	'b'
	.db #0x5a	; 90	'Z'
	.db #0x62	; 98	'b'
	.db #0x3a	; 58
	.db #0x0e	; 14
	.db #0x00	; 0
	.db #0x7e	; 126
	.db #0x52	; 82	'R'
	.db #0x4e	; 78	'N'
	.db #0x58	; 88	'X'
	.db #0x50	; 80	'P'
	.db #0x70	; 112	'p'
	.db #0x00	; 0
	.db #0x3c	; 60
	.db #0x64	; 100	'd'
	.db #0x5c	; 92
	.db #0x66	; 102	'f'
	.db #0x3a	; 58
	.db #0x26	; 38
	.db #0x3c	; 60
	.db #0x00	; 0
	.db #0x70	; 112	'p'
	.db #0x58	; 88	'X'
	.db #0x48	; 72	'H'
	.db #0x58	; 88	'X'
	.db #0x5c	; 92
	.db #0x64	; 100	'd'
	.db #0x3c	; 60
	.db #0x00	; 0
	.db #0x00	; 0
	.db #0x00	; 0
	.db #0x7e	; 126
	.db #0x5a	; 90	'Z'
	.db #0x5a	; 90	'Z'
	.db #0x62	; 98	'b'
	.db #0x3e	; 62
	.db #0x00	; 0
	.db #0x00	; 0
	.db #0x00	; 0
	.db #0x7e	; 126
	.db #0x5a	; 90	'Z'
	.db #0x56	; 86	'V'
	.db #0x6c	; 108	'l'
	.db #0x38	; 56	'8'
	.db #0x00	; 0
	.db #0x00	; 0
	.db #0x00	; 0
	.db #0xfe	; 254
	.db #0xaa	; 170
	.db #0xaa	; 170
	.db #0xd6	; 214
	.db #0x7c	; 124
	.db #0x00	; 0
	.db #0x00	; 0
	.db #0x00	; 0
	.db #0x7c	; 124
	.db #0x54	; 84	'T'
	.db #0x6c	; 108	'l'
	.db #0x54	; 84	'T'
	.db #0x7c	; 124
	.db #0x00	; 0
	.db #0x00	; 0
	.db #0x00	; 0
	.db #0x7e	; 126
	.db #0x4a	; 74	'J'
	.db #0x72	; 114	'r'
	.db #0x7a	; 122	'z'
	.db #0x46	; 70	'F'
	.db #0x7c	; 124
	.db #0x00	; 0
	.db #0x00	; 0
	.db #0x7e	; 126
	.db #0x42	; 66	'B'
	.db #0x76	; 118	'v'
	.db #0x6e	; 110	'n'
	.db #0x42	; 66	'B'
	.db #0x7e	; 126
	.db #0x3c	; 60
	.db #0x24	; 36
	.db #0x6c	; 108	'l'
	.db #0x48	; 72	'H'
	.db #0x6c	; 108	'l'
	.db #0x24	; 36
	.db #0x3c	; 60
	.db #0x00	; 0
	.db #0x38	; 56	'8'
	.db #0x28	; 40
	.db #0x28	; 40
	.db #0x28	; 40
	.db #0x28	; 40
	.db #0x28	; 40
	.db #0x38	; 56	'8'
	.db #0x00	; 0
	.db #0x78	; 120	'x'
	.db #0x48	; 72	'H'
	.db #0x6c	; 108	'l'
	.db #0x24	; 36
	.db #0x6c	; 108	'l'
	.db #0x48	; 72	'H'
	.db #0x78	; 120	'x'
	.db #0x00	; 0
	.db #0x00	; 0
	.db #0x3e	; 62
	.db #0x6a	; 106	'j'
	.db #0x56	; 86	'V'
	.db #0x7c	; 124
	.db #0x00	; 0
	.db #0x00	; 0
	.db #0x00	; 0
;E:\Dropbox\FAUSTO\SVILUPPI\MSX\CODE\C\MSXgl\projects\soccerlgMSX2/soccerlg_s4_b3.c:1011: void MainLoop(){
;	---------------------------------
; Function MainLoop
; ---------------------------------
_MainLoop::
	push	ix
	ld	ix,#0
	add	ix,sp
	ld	hl, #-10
	add	hl, sp
	ld	sp, hl
;E:\Dropbox\FAUSTO\SVILUPPI\MSX\CODE\C\MSXgl\projects\soccerlgMSX2/soccerlg_s4_b3.c:1013: SetTeamColors(TEAM_1, &g_TeamColorsArray[Team1Code]);
	ld	bc, #_g_TeamColorsArray+0
	ld	de, (_Team1Code)
	ld	d, #0x00
	ld	l, e
	ld	h, d
	add	hl, hl
	add	hl, de
	add	hl, hl
	add	hl, bc
	push	bc
	ex	de, hl
	xor	a, a
	call	_SetTeamColors
	pop	bc
;E:\Dropbox\FAUSTO\SVILUPPI\MSX\CODE\C\MSXgl\projects\soccerlgMSX2/soccerlg_s4_b3.c:1014: SetTeamColors(TEAM_2, &g_TeamColorsArray[Team2Code]);
	ld	de, (_Team2Code)
	ld	d, #0x00
	ld	l, e
	ld	h, d
	add	hl, hl
	add	hl, de
	add	hl, hl
	add	hl, bc
	ex	de, hl
	ld	a, #0x01
	call	_SetTeamColors
;E:\Dropbox\FAUSTO\SVILUPPI\MSX\CODE\C\MSXgl\projects\soccerlgMSX2/soccerlg_s4_b3.c:1017: u8 game_state = 0; // 0: Scorrimento, 1: Pausa, 2: Posizionamento, 3: Partita
	ld	-10 (ix), #0x00
;E:\Dropbox\FAUSTO\SVILUPPI\MSX\CODE\C\MSXgl\projects\soccerlgMSX2/soccerlg_s4_b3.c:1018: u8 wait_secs = 0;
	ld	-9 (ix), #0x00
;E:\Dropbox\FAUSTO\SVILUPPI\MSX\CODE\C\MSXgl\projects\soccerlgMSX2/soccerlg_s4_b3.c:1019: u8 start_sec = 0;
	ld	-8 (ix), #0x00
;E:\Dropbox\FAUSTO\SVILUPPI\MSX\CODE\C\MSXgl\projects\soccerlgMSX2/soccerlg_s4_b3.c:1023: Field.ly = 0; // Parte da estremo Nord
	ld	hl, #0x0000
	ld	((_Field + 4)), hl
;E:\Dropbox\FAUSTO\SVILUPPI\MSX\CODE\C\MSXgl\projects\soccerlgMSX2/soccerlg_s4_b3.c:1024: Field.dy = 1; // Avanzamento scorrimento per fase (3 px a frame)
	ld	hl, #(_Field + 18)
	ld	(hl), #0x01
;E:\Dropbox\FAUSTO\SVILUPPI\MSX\CODE\C\MSXgl\projects\soccerlgMSX2/soccerlg_s4_b3.c:1028: for (u8 i = 0; i < 7; i++) {
	ld	-1 (ix), #0x00
00179$:
	ld	a, -1 (ix)
	sub	a, #0x07
	jp	NC, 00101$
;E:\Dropbox\FAUSTO\SVILUPPI\MSX\CODE\C\MSXgl\projects\soccerlgMSX2/soccerlg_s4_b3.c:1030: SwSprite[i].lx = 36 + i * 28;
	ld	c, -1 (ix)
	ld	b, #0x00
	ld	l, c
	ld	h, b
	add	hl, hl
	add	hl, hl
	add	hl, bc
	add	hl, hl
	add	hl, bc
	add	hl, hl
	add	hl, bc
	ld	de, #_SwSprite
	add	hl, de
	ld	c, l
	ld	b, h
	ld	a, -1 (ix)
	ld	e, a
	add	a, a
	add	a, a
	add	a, a
	sub	a, e
	add	a, a
	add	a, a
	add	a, #0x24
	ld	-2 (ix), a
	ld	(bc), a
;E:\Dropbox\FAUSTO\SVILUPPI\MSX\CODE\C\MSXgl\projects\soccerlgMSX2/soccerlg_s4_b3.c:1031: SwSprite[i].ly = 252 - 24; // Schierata sopra la riga di centrocampo
	ld	hl, #0x0004
	add	hl, bc
	ld	(hl), #0xe4
	inc	hl
	ld	(hl), #0x00
;E:\Dropbox\FAUSTO\SVILUPPI\MSX\CODE\C\MSXgl\projects\soccerlgMSX2/soccerlg_s4_b3.c:1032: SwSprite[i].frame = (i == 0) ? SPR_GK_PLAYER_FACE_TO_SOUTH : SPR_T1_PLAYER_PRESENTATION;
	ld	hl, #0x000f
	add	hl, bc
	ld	-4 (ix), l
	ld	-3 (ix), h
	ld	a, -1 (ix)
	or	a, a
	jr	NZ, 00227$
	ld	de, #0x00d5
	jp	00228$
00227$:
	ld	de, #0x0003
00228$:
	ld	l, -4 (ix)
	ld	h, -3 (ix)
	ld	(hl), e
	inc	hl
	ld	(hl), d
;E:\Dropbox\FAUSTO\SVILUPPI\MSX\CODE\C\MSXgl\projects\soccerlgMSX2/soccerlg_s4_b3.c:1033: SwSprite[i].dx = 0;
	ld	hl, #0x0011
	add	hl, bc
	ld	(hl), #0x00
;E:\Dropbox\FAUSTO\SVILUPPI\MSX\CODE\C\MSXgl\projects\soccerlgMSX2/soccerlg_s4_b3.c:1034: SwSprite[i].dy = 0;
	ld	hl, #0x0012
	add	hl, bc
	ld	(hl), #0x00
;E:\Dropbox\FAUSTO\SVILUPPI\MSX\CODE\C\MSXgl\projects\soccerlgMSX2/soccerlg_s4_b3.c:1037: SwSprite[i+7].lx = 36 + i * 28;
	ld	c, -1 (ix)
	ld	b, #0x00
	ld	hl, #0x0007
	add	hl, bc
	ld	c, l
	ld	b, h
	add	hl, hl
	add	hl, hl
	add	hl, bc
	add	hl, hl
	add	hl, bc
	add	hl, hl
	add	hl, bc
	ld	de, #_SwSprite
	add	hl, de
	ld	-7 (ix), l
	ld	-6 (ix), h
	ld	a, -2 (ix)
	ld	(hl), a
;E:\Dropbox\FAUSTO\SVILUPPI\MSX\CODE\C\MSXgl\projects\soccerlgMSX2/soccerlg_s4_b3.c:1038: SwSprite[i+7].ly = 252 + 24; // Schierata sotto la riga di centrocampo
	ld	l, -7 (ix)
	ld	h, -6 (ix)
	ld	de, #0x0004
	add	hl, de
	ld	(hl), #0x14
	inc	hl
	ld	(hl), #0x01
;E:\Dropbox\FAUSTO\SVILUPPI\MSX\CODE\C\MSXgl\projects\soccerlgMSX2/soccerlg_s4_b3.c:1039: SwSprite[i+7].frame = (i == 0) ? SPR_GK_PLAYER_FACE_TO_NORTH : SPR_T2_PLAYER_PRESENTATION;
	ld	a, -7 (ix)
	add	a, #0x0f
	ld	-5 (ix), a
	ld	a, -6 (ix)
	adc	a, #0x00
	ld	-4 (ix), a
	ld	a, -1 (ix)
	or	a, a
	jr	NZ, 00229$
	ld	-3 (ix), #0xd6
	ld	-2 (ix), #0
	jp	00230$
00229$:
	ld	-3 (ix), #0x76
	ld	-2 (ix), #0
00230$:
	ld	c, -3 (ix)
	ld	b, -2 (ix)
	ld	l, -5 (ix)
	ld	h, -4 (ix)
	ld	(hl), c
	inc	hl
	ld	(hl), b
;E:\Dropbox\FAUSTO\SVILUPPI\MSX\CODE\C\MSXgl\projects\soccerlgMSX2/soccerlg_s4_b3.c:1040: SwSprite[i+7].dx = 0;
	ld	l, -7 (ix)
	ld	h, -6 (ix)
	ld	de, #0x0011
	add	hl, de
	ld	(hl), #0x00
;E:\Dropbox\FAUSTO\SVILUPPI\MSX\CODE\C\MSXgl\projects\soccerlgMSX2/soccerlg_s4_b3.c:1041: SwSprite[i+7].dy = 0;
	ld	l, -7 (ix)
	ld	h, -6 (ix)
	ld	de, #0x0012
	add	hl, de
	ld	(hl), #0x00
;E:\Dropbox\FAUSTO\SVILUPPI\MSX\CODE\C\MSXgl\projects\soccerlgMSX2/soccerlg_s4_b3.c:1028: for (u8 i = 0; i < 7; i++) {
	inc	-1 (ix)
	jp	00179$
00101$:
;E:\Dropbox\FAUSTO\SVILUPPI\MSX\CODE\C\MSXgl\projects\soccerlgMSX2/soccerlg_s4_b3.c:1045: SwSprite[14].lx = BALL_START_X;
	ld	hl, #(_SwSprite + 322)
	ld	(hl), #0x78
;E:\Dropbox\FAUSTO\SVILUPPI\MSX\CODE\C\MSXgl\projects\soccerlgMSX2/soccerlg_s4_b3.c:1046: SwSprite[14].ly = BALL_START_Y;
	ld	hl, #0x0100
	ld	((_SwSprite + 326)), hl
;E:\Dropbox\FAUSTO\SVILUPPI\MSX\CODE\C\MSXgl\projects\soccerlgMSX2/soccerlg_s4_b3.c:1047: SwSprite[14].frame = SPR_BALL_SIZE_1; // Sprite base della palla
	ld	hl, #0x0060
	ld	((_SwSprite + 337)), hl
;E:\Dropbox\FAUSTO\SVILUPPI\MSX\CODE\C\MSXgl\projects\soccerlgMSX2/soccerlg_s4_b3.c:1048: SwSprite[14].dx = 0;
	ld	hl, #(_SwSprite + 339)
	ld	(hl), #0x00
;E:\Dropbox\FAUSTO\SVILUPPI\MSX\CODE\C\MSXgl\projects\soccerlgMSX2/soccerlg_s4_b3.c:1049: SwSprite[14].dy = 0;
	ld	hl, #(_SwSprite + 340)
	ld	(hl), #0x00
;E:\Dropbox\FAUSTO\SVILUPPI\MSX\CODE\C\MSXgl\projects\soccerlgMSX2/soccerlg_s4_b3.c:1052: for (u8 i = 15; i < NumSprite; i++) {
	ld	c, #0x0f
00182$:
	ld	a, c
	sub	a, #0x25
	jr	NC, 00102$
;E:\Dropbox\FAUSTO\SVILUPPI\MSX\CODE\C\MSXgl\projects\soccerlgMSX2/soccerlg_s4_b3.c:1053: SwSprite[i].lx = 0;
	ld	b, #0x00
	ld	l, c
	ld	h, b
	add	hl, hl
	add	hl, hl
	add	hl, bc
	add	hl, hl
	add	hl, bc
	add	hl, hl
	add	hl, bc
	ex	de, hl
	ld	hl, #_SwSprite
	add	hl, de
	ex	de, hl
	xor	a, a
	ld	(de), a
;E:\Dropbox\FAUSTO\SVILUPPI\MSX\CODE\C\MSXgl\projects\soccerlgMSX2/soccerlg_s4_b3.c:1054: SwSprite[i].ly = 1000; // Nascondimento assoluto
	ld	hl, #0x0004
	add	hl, de
	ld	(hl), #0xe8
	inc	hl
	ld	(hl), #0x03
;E:\Dropbox\FAUSTO\SVILUPPI\MSX\CODE\C\MSXgl\projects\soccerlgMSX2/soccerlg_s4_b3.c:1055: SwSprite[i].frame = 0;
	ld	hl, #0x000f
	add	hl, de
	xor	a, a
	ld	(hl), a
	inc	hl
	ld	(hl), a
;E:\Dropbox\FAUSTO\SVILUPPI\MSX\CODE\C\MSXgl\projects\soccerlgMSX2/soccerlg_s4_b3.c:1056: SwSprite[i].dx = 0;
	ld	hl, #0x0011
	add	hl, de
	ld	(hl), #0x00
;E:\Dropbox\FAUSTO\SVILUPPI\MSX\CODE\C\MSXgl\projects\soccerlgMSX2/soccerlg_s4_b3.c:1057: SwSprite[i].dy = 0;
	ld	hl, #0x0012
	add	hl, de
	ld	(hl), #0x00
;E:\Dropbox\FAUSTO\SVILUPPI\MSX\CODE\C\MSXgl\projects\soccerlgMSX2/soccerlg_s4_b3.c:1052: for (u8 i = 15; i < NumSprite; i++) {
	inc	c
	jp	00182$
00102$:
;E:\Dropbox\FAUSTO\SVILUPPI\MSX\CODE\C\MSXgl\projects\soccerlgMSX2/soccerlg_s4_b3.c:1060: SwSprite[26].lx = 20;
	ld	hl, #(_SwSprite + 598)
	ld	(hl), #0x14
;E:\Dropbox\FAUSTO\SVILUPPI\MSX\CODE\C\MSXgl\projects\soccerlgMSX2/soccerlg_s4_b3.c:1061: SwSprite[26].ly = BALL_START_Y;
	ld	hl, #0x0100
	ld	((_SwSprite + 602)), hl
;E:\Dropbox\FAUSTO\SVILUPPI\MSX\CODE\C\MSXgl\projects\soccerlgMSX2/soccerlg_s4_b3.c:1062: SwSprite[26].frame = SPR_REFEREE_FACE_TO_WEST;
	ld	l, #0x1b
	ld	((_SwSprite + 613)), hl
;E:\Dropbox\FAUSTO\SVILUPPI\MSX\CODE\C\MSXgl\projects\soccerlgMSX2/soccerlg_s4_b3.c:1063: SwSprite[26].dx = 0;
	ld	hl, #(_SwSprite + 615)
	ld	(hl), #0x00
;E:\Dropbox\FAUSTO\SVILUPPI\MSX\CODE\C\MSXgl\projects\soccerlgMSX2/soccerlg_s4_b3.c:1064: SwSprite[26].dy = 0;
	ld	hl, #(_SwSprite + 616)
;E:\Dropbox\FAUSTO\SVILUPPI\MSX\CODE\C\MSXgl\projects\soccerlgMSX2/soccerlg_s4_b3.c:1067: for (u8 i=0; i<NumSprite;i++) 
	ld	(hl), #0x00
	ld	c, (hl)
00185$:
	ld	a, c
	sub	a, #0x25
	jp	NC, 00103$
;E:\Dropbox\FAUSTO\SVILUPPI\MSX\CODE\C\MSXgl\projects\soccerlgMSX2/soccerlg_s4_b3.c:1069: SwSprite[i].x0 = SwSprite[i].lx;
	ld	b, #0x00
	ld	l, c
	ld	h, b
	add	hl, hl
	add	hl, hl
	add	hl, bc
	add	hl, hl
	add	hl, bc
	add	hl, hl
	add	hl, bc
	ld	de, #_SwSprite
	add	hl, de
;	spillPairReg hl
;	spillPairReg hl
	ld	e, l
	ld	d, h
;	spillPairReg hl
;	spillPairReg hl
	inc	hl
	ld	a, (de)
	ld	(hl), a
;E:\Dropbox\FAUSTO\SVILUPPI\MSX\CODE\C\MSXgl\projects\soccerlgMSX2/soccerlg_s4_b3.c:1070: SwSprite[i].y0 = SwSprite[i].ly;
	ld	hl, #0x0006
	add	hl, de
	ld	-4 (ix), l
	ld	-3 (ix), h
	ld	hl, #0x0004
	add	hl, de
	ld	-6 (ix), l
	ld	-5 (ix), h
	ld	a, (hl)
	ld	-2 (ix), a
	inc	hl
	ld	a, (hl)
	ld	-1 (ix), a
	ld	l, -4 (ix)
	ld	h, -3 (ix)
	ld	a, -2 (ix)
	ld	(hl), a
	inc	hl
	ld	a, -1 (ix)
	ld	(hl), a
;E:\Dropbox\FAUSTO\SVILUPPI\MSX\CODE\C\MSXgl\projects\soccerlgMSX2/soccerlg_s4_b3.c:1071: SwSprite[i].x1 = SwSprite[i].lx;
	ld	l, e
;	spillPairReg hl
;	spillPairReg hl
	ld	h, d
;	spillPairReg hl
;	spillPairReg hl
	inc	hl
	inc	hl
	ld	a, (de)
	ld	(hl), a
;E:\Dropbox\FAUSTO\SVILUPPI\MSX\CODE\C\MSXgl\projects\soccerlgMSX2/soccerlg_s4_b3.c:1072: SwSprite[i].y1 = SwSprite[i].ly;
	ld	hl, #0x0008
	add	hl, de
	ld	-4 (ix), l
	ld	-3 (ix), h
	ld	l, -6 (ix)
	ld	h, -5 (ix)
	ld	a, (hl)
	ld	-2 (ix), a
	inc	hl
	ld	a, (hl)
	ld	-1 (ix), a
	ld	l, -4 (ix)
	ld	h, -3 (ix)
	ld	a, -2 (ix)
	ld	(hl), a
	inc	hl
	ld	a, -1 (ix)
	ld	(hl), a
;E:\Dropbox\FAUSTO\SVILUPPI\MSX\CODE\C\MSXgl\projects\soccerlgMSX2/soccerlg_s4_b3.c:1073: SwSprite[i].x2 = SwSprite[i].lx;
	ld	l, e
;	spillPairReg hl
;	spillPairReg hl
	ld	h, d
;	spillPairReg hl
;	spillPairReg hl
	inc	hl
	inc	hl
	inc	hl
	ld	a, (de)
	ld	(hl), a
;E:\Dropbox\FAUSTO\SVILUPPI\MSX\CODE\C\MSXgl\projects\soccerlgMSX2/soccerlg_s4_b3.c:1074: SwSprite[i].y2 = SwSprite[i].ly;
	ld	hl, #0x000a
	add	hl, de
	ld	-2 (ix), l
	ld	-1 (ix), h
	ld	l, -6 (ix)
	ld	h, -5 (ix)
	ld	b, (hl)
	inc	hl
	ld	e, (hl)
	ld	l, -2 (ix)
	ld	h, -1 (ix)
	ld	(hl), b
	inc	hl
	ld	(hl), e
;E:\Dropbox\FAUSTO\SVILUPPI\MSX\CODE\C\MSXgl\projects\soccerlgMSX2/soccerlg_s4_b3.c:1067: for (u8 i=0; i<NumSprite;i++) 
	inc	c
	jp	00185$
00103$:
;E:\Dropbox\FAUSTO\SVILUPPI\MSX\CODE\C\MSXgl\projects\soccerlgMSX2/soccerlg_s4_b3.c:1078: ScoreBoardLeft.y0 = ScoreBoardRight.y0 = Field.ly;
	ld	bc, (#(_Field + 4) + 0)
	ld	((_ScoreBoardRight + 6)), bc
	ld	((_ScoreBoardLeft + 6)), bc
;E:\Dropbox\FAUSTO\SVILUPPI\MSX\CODE\C\MSXgl\projects\soccerlgMSX2/soccerlg_s4_b3.c:1079: ScoreBoardLeft.y1 = ScoreBoardRight.y1 = Field.ly;
	ld	bc, (#(_Field + 4) + 0)
	ld	((_ScoreBoardRight + 8)), bc
	ld	((_ScoreBoardLeft + 8)), bc
;E:\Dropbox\FAUSTO\SVILUPPI\MSX\CODE\C\MSXgl\projects\soccerlgMSX2/soccerlg_s4_b3.c:1080: ScoreBoardLeft.y2 = ScoreBoardRight.y2 = Field.ly;
	ld	bc, (#(_Field + 4) + 0)
	ld	((_ScoreBoardRight + 10)), bc
	ld	((_ScoreBoardLeft + 10)), bc
;E:\Dropbox\FAUSTO\SVILUPPI\MSX\CODE\C\MSXgl\projects\soccerlgMSX2/soccerlg_s4_b3.c:1082: CallFnc_VOID(SEG_EVENTS, EventStartPresentationScrollig);
	ld	de, #_EventStartPresentationScrollig
	ld	a, #0x08
	call	_CallFnc_VOID
00223$:
;E:\Dropbox\FAUSTO\SVILUPPI\MSX\CODE\C\MSXgl\projects\soccerlgMSX2/soccerlg_s4_b3.c:1086: WaitForVBlank();
	call	_WaitForVBlank
;E:\Dropbox\FAUSTO\SVILUPPI\MSX\CODE\C\MSXgl\projects\soccerlgMSX2/soccerlg_s4_b3.c:1088: CallFnc_VOID(SEG_INPUT, UpdateAllInputs);
	ld	de, #_UpdateAllInputs
	ld	a, #0x07
	call	_CallFnc_VOID
;E:\Dropbox\FAUSTO\SVILUPPI\MSX\CODE\C\MSXgl\projects\soccerlgMSX2/soccerlg_s4_b3.c:1089: CallFnc_VOID_3PTR_U16(SEG_GAMESTATE_1, UpdateGameState, &game_state, &wait_secs, &start_sec, target_ly);
	ld	hl, #0x009c
	push	hl
	ld	hl, #4
	add	hl, sp
	push	hl
	ld	hl, #5
	add	hl, sp
	push	hl
	ld	hl, #6
	add	hl, sp
	push	hl
	ld	de, #_UpdateGameState
	ld	a, #0x09
	call	_CallFnc_VOID_3PTR_U16
;E:\Dropbox\FAUSTO\SVILUPPI\MSX\CODE\C\MSXgl\projects\soccerlgMSX2/soccerlg_s4_b3.c:1092: VDP_SetPage(0);		
	xor	a, a
	call	_VDP_SetPage
;E:\Dropbox\FAUSTO\SVILUPPI\MSX\CODE\C\MSXgl\projects\soccerlgMSX2/soccerlg_s4_b3.c:1093: VDP_SetVerticalOffset(ScoreBoardLeft.y0 & 255);
	ld	hl, #(_ScoreBoardLeft + 6)
	ld	l, (hl)
;	spillPairReg hl
;E:/Dropbox/FAUSTO/SVILUPPI/MSX/CODE/C/MSXgl/engine/src/vdp.h:777: inline void VDP_SetVerticalOffset(u8 offset) { VDP_RegWrite(23, offset); }
	ld	a, #0x17
	call	_VDP_RegWrite
;E:\Dropbox\FAUSTO\SVILUPPI\MSX\CODE\C\MSXgl\projects\soccerlgMSX2/soccerlg_s4_b3.c:1094: AddLines(&Field);
	ld	hl, #_Field
	call	_AddLines
;E:\Dropbox\FAUSTO\SVILUPPI\MSX\CODE\C\MSXgl\projects\soccerlgMSX2/soccerlg_s4_b3.c:1096: ball_fg = CallFnc_BOOL(SEG_DRAW, IsBallForeground);
	ld	de, #_IsBallForeground
	ld	a, #0x05
	call	_CallFnc_BOOL
	ld	c, a
;E:\Dropbox\FAUSTO\SVILUPPI\MSX\CODE\C\MSXgl\projects\soccerlgMSX2/soccerlg_s4_b3.c:1098: for (u8 i=0; i<NumSprite;i++) 
	ld	b, #0x00
00188$:
	ld	a, b
	sub	a, #0x25
	jr	NC, 00104$
;E:\Dropbox\FAUSTO\SVILUPPI\MSX\CODE\C\MSXgl\projects\soccerlgMSX2/soccerlg_s4_b3.c:1101: CallFnc_VOID_U8U16U16(SEG_DRAW, RemoveSwSprite, SwSprite[i].x2, SwSprite[i].y2, 512);
	ld	e, b
	ld	d, #0x00
	ld	l, e
	ld	h, d
	add	hl, hl
	add	hl, hl
	add	hl, de
	add	hl, hl
	add	hl, de
	add	hl, hl
	add	hl, de
	ld	de, #_SwSprite
	add	hl, de
	ld	-2 (ix), l
	ld	-1 (ix), h
	ld	de, #10
	add	hl, de
	ld	e, (hl)
	inc	hl
	ld	d, (hl)
	ld	l, -2 (ix)
;	spillPairReg hl
;	spillPairReg hl
	ld	h, -1 (ix)
;	spillPairReg hl
;	spillPairReg hl
	inc	hl
	inc	hl
	inc	hl
	ld	a, (hl)
	push	bc
	ld	hl, #0x0200
	push	hl
	push	de
	push	af
	inc	sp
	ld	de, #_RemoveSwSprite
	ld	a, #0x05
	call	_CallFnc_VOID_U8U16U16
	pop	bc
;E:\Dropbox\FAUSTO\SVILUPPI\MSX\CODE\C\MSXgl\projects\soccerlgMSX2/soccerlg_s4_b3.c:1098: for (u8 i=0; i<NumSprite;i++) 
	inc	b
	jp	00188$
00104$:
;E:\Dropbox\FAUSTO\SVILUPPI\MSX\CODE\C\MSXgl\projects\soccerlgMSX2/soccerlg_s4_b3.c:1104: if (!ball_fg && OnScreen(SwSprite[14].ly)) 
	ld	a, c
	or	a, a
	jr	NZ, 00247$
	ld	de, (#(_SwSprite + 326) + 0)
	ld	a, d
	sub	a, #0x02
	jr	NC, 00247$
	ld	hl, #0x020f
	add	hl, de
	ld	-2 (ix), l
	ld	-1 (ix), h
	ld	hl, (#(_Field + 4) + 0)
	ld	a, -2 (ix)
	ld	b, -1 (ix)
	sub	a, l
	ld	l, a
;	spillPairReg hl
;	spillPairReg hl
	ld	a, b
	sbc	a, h
	and	a, #0x01
	ld	b, a
	ld	a, l
	sub	a, #0xcf
	ld	a, b
	sbc	a, #0x00
	jr	NC, 00247$
;E:\Dropbox\FAUSTO\SVILUPPI\MSX\CODE\C\MSXgl\projects\soccerlgMSX2/soccerlg_s4_b3.c:1105: CallSpriteFrame(SwSprite[14].lx,(SwSprite[14].ly&255)+256,SwSprite[14].frame);
	ld	hl, #(_SwSprite + 337)
	ld	a, (hl)
	ld	-2 (ix), a
	inc	hl
	ld	a, (hl)
	ld	-1 (ix), a
	ld	l, e
;	spillPairReg hl
;	spillPairReg hl
	ld	h, #0x00
;	spillPairReg hl
;	spillPairReg hl
	ld	e, l
	ld	a, h
	inc	a
	ld	d, a
	ld	hl, #(_SwSprite + 322)
	ld	b, (hl)
	push	bc
	ld	l, -2 (ix)
;	spillPairReg hl
;	spillPairReg hl
	ld	h, -1 (ix)
;	spillPairReg hl
;	spillPairReg hl
	push	hl
	ld	a, b
	call	_CallSpriteFrame
	pop	bc
;E:\Dropbox\FAUSTO\SVILUPPI\MSX\CODE\C\MSXgl\projects\soccerlgMSX2/soccerlg_s4_b3.c:1107: for (u8 i=0; i<14;i++) 
00247$:
	ld	b, #0x00
00191$:
	ld	a, b
	sub	a, #0x0e
	jr	NC, 00112$
;E:\Dropbox\FAUSTO\SVILUPPI\MSX\CODE\C\MSXgl\projects\soccerlgMSX2/soccerlg_s4_b3.c:1110: if OnScreen(SwSprite[i].ly) 
	ld	e, b
	ld	d, #0x00
	ld	l, e
	ld	h, d
	add	hl, hl
	add	hl, hl
	add	hl, de
	add	hl, hl
	add	hl, de
	add	hl, hl
	add	hl, de
	ld	de, #_SwSprite
	add	hl, de
	ld	-4 (ix), l
	ld	-3 (ix), h
	ld	a, -4 (ix)
	add	a, #0x04
	ld	-2 (ix), a
	ld	a, -3 (ix)
	adc	a, #0x00
	ld	-1 (ix), a
	ld	l, -2 (ix)
	ld	h, -1 (ix)
	ld	e, (hl)
	inc	hl
	ld	d, (hl)
	ld	a, d
	sub	a, #0x02
	jr	NC, 00192$
	ld	hl, #0x020f
	add	hl, de
	ex	de, hl
	ld	hl, (#(_Field + 4) + 0)
	ld	a, e
	sub	a, l
	ld	e, a
	ld	a, d
	sbc	a, h
	and	a, #0x01
	ld	d, a
	ld	a, e
	sub	a, #0xcf
	ld	a, d
	sbc	a, #0x00
	jr	NC, 00192$
;E:\Dropbox\FAUSTO\SVILUPPI\MSX\CODE\C\MSXgl\projects\soccerlgMSX2/soccerlg_s4_b3.c:1111: CallSpriteFrame(SwSprite[i].lx,(SwSprite[i].ly&255)+256,GetDrawFrame(i));
	push	bc
	ld	a, b
	call	_GetDrawFrame
	pop	bc
	ld	l, -2 (ix)
	ld	h, -1 (ix)
;	spillPairReg hl
	ld	l, (hl)
;	spillPairReg hl
;	spillPairReg hl
;	spillPairReg hl
;	spillPairReg hl
	xor	a, a
	inc	a
	ld	-2 (ix), l
	ld	-1 (ix), a
	ld	l, -4 (ix)
	ld	h, -3 (ix)
	ld	l, (hl)
;	spillPairReg hl
	push	bc
	push	de
	ld	e, -2 (ix)
	ld	d, -1 (ix)
	ld	a, l
	call	_CallSpriteFrame
	pop	bc
00192$:
;E:\Dropbox\FAUSTO\SVILUPPI\MSX\CODE\C\MSXgl\projects\soccerlgMSX2/soccerlg_s4_b3.c:1107: for (u8 i=0; i<14;i++) 
	inc	b
	jp	00191$
00112$:
;E:\Dropbox\FAUSTO\SVILUPPI\MSX\CODE\C\MSXgl\projects\soccerlgMSX2/soccerlg_s4_b3.c:1114: if (ball_fg && OnScreen(SwSprite[14].ly)) 
	ld	a, c
	or	a, a
	jr	Z, 00254$
;E:\Dropbox\FAUSTO\SVILUPPI\MSX\CODE\C\MSXgl\projects\soccerlgMSX2/soccerlg_s4_b3.c:1104: if (!ball_fg && OnScreen(SwSprite[14].ly)) 
	ld	de, (#(_SwSprite + 326) + 0)
;E:\Dropbox\FAUSTO\SVILUPPI\MSX\CODE\C\MSXgl\projects\soccerlgMSX2/soccerlg_s4_b3.c:1114: if (ball_fg && OnScreen(SwSprite[14].ly)) 
	ld	a, d
	sub	a, #0x02
	jr	NC, 00254$
	ld	hl, #0x020f
	add	hl, de
	ld	c, l
	ld	b, h
	ld	hl, (#(_Field + 4) + 0)
	ld	a, c
	sub	a, l
	ld	c, a
	ld	a, b
	sbc	a, h
	and	a, #0x01
	ld	b, a
	ld	a, c
	sub	a, #0xcf
	ld	a, b
	sbc	a, #0x00
	jr	NC, 00254$
;E:\Dropbox\FAUSTO\SVILUPPI\MSX\CODE\C\MSXgl\projects\soccerlgMSX2/soccerlg_s4_b3.c:1115: CallSpriteFrame(SwSprite[14].lx,(SwSprite[14].ly&255)+256,SwSprite[14].frame);
	ld	bc, (#(_SwSprite + 337) + 0)
	ld	l, e
;	spillPairReg hl
;	spillPairReg hl
	ld	h, #0x00
;	spillPairReg hl
;	spillPairReg hl
	ld	e, l
	ld	a, h
	inc	a
	ld	d, a
	ld	hl, #(_SwSprite + 322)
	ld	l, (hl)
;	spillPairReg hl
	push	bc
	ld	a, l
	call	_CallSpriteFrame
;E:\Dropbox\FAUSTO\SVILUPPI\MSX\CODE\C\MSXgl\projects\soccerlgMSX2/soccerlg_s4_b3.c:1117: for (u8 i=15; i<NumSprite;i++) 
00254$:
	ld	c, #0x0f
00194$:
	ld	a, c
	sub	a, #0x25
	jr	NC, 00120$
;E:\Dropbox\FAUSTO\SVILUPPI\MSX\CODE\C\MSXgl\projects\soccerlgMSX2/soccerlg_s4_b3.c:1120: if OnScreen(SwSprite[i].ly) 
	ld	b, #0x00
	ld	l, c
	ld	h, b
	add	hl, hl
	add	hl, hl
	add	hl, bc
	add	hl, hl
	add	hl, bc
	add	hl, hl
	add	hl, bc
	ld	de, #_SwSprite
	add	hl, de
	ld	-4 (ix), l
	ld	-3 (ix), h
	ld	de, #4
	add	hl, de
	ld	b, (hl)
	inc	hl
	ld	a, (hl)
	ld	-2 (ix), b
	ld	-1 (ix), a
	sub	a, #0x02
	jr	NC, 00195$
	ld	a, -2 (ix)
	add	a, #0x0f
	ld	e, a
	ld	a, -1 (ix)
	adc	a, #0x02
	ld	d, a
	ld	hl, (#(_Field + 4) + 0)
	ld	a, e
	sub	a, l
	ld	e, a
	ld	a, d
	sbc	a, h
	and	a, #0x01
	ld	b, a
	ld	a, e
	sub	a, #0xcf
	ld	a, b
	sbc	a, #0x00
	jr	NC, 00195$
;E:\Dropbox\FAUSTO\SVILUPPI\MSX\CODE\C\MSXgl\projects\soccerlgMSX2/soccerlg_s4_b3.c:1121: CallSpriteFrame(SwSprite[i].lx,(SwSprite[i].ly&255)+256,SwSprite[i].frame);
	ld	e, -4 (ix)
	ld	d, -3 (ix)
	ld	hl, #15
	add	hl, de
	ld	e, (hl)
	inc	hl
	ld	d, (hl)
	ld	l, -2 (ix)
;	spillPairReg hl
;	spillPairReg hl
;	spillPairReg hl
;	spillPairReg hl
	xor	a, a
	inc	a
	ld	-2 (ix), l
	ld	-1 (ix), a
	ld	l, -4 (ix)
	ld	h, -3 (ix)
	ld	b, (hl)
	push	bc
	push	de
	ld	e, -2 (ix)
	ld	d, -1 (ix)
	ld	a, b
	call	_CallSpriteFrame
	pop	bc
00195$:
;E:\Dropbox\FAUSTO\SVILUPPI\MSX\CODE\C\MSXgl\projects\soccerlgMSX2/soccerlg_s4_b3.c:1117: for (u8 i=15; i<NumSprite;i++) 
	inc	c
	jp	00194$
00120$:
;E:\Dropbox\FAUSTO\SVILUPPI\MSX\CODE\C\MSXgl\projects\soccerlgMSX2/soccerlg_s4_b3.c:1126: CallFnc_VOID_U8U16U16(SEG_DRAW, PrintScoreBoardLeft, ScoreBoardLeft.lx, Field.ly, 256);
	ld	bc, (#(_Field + 4) + 0)
	ld	a, (#_ScoreBoardLeft + 0)
	ld	hl, #0x0100
	push	hl
	push	bc
	push	af
	inc	sp
	ld	de, #_PrintScoreBoardLeft
	ld	a, #0x05
	call	_CallFnc_VOID_U8U16U16
;E:\Dropbox\FAUSTO\SVILUPPI\MSX\CODE\C\MSXgl\projects\soccerlgMSX2/soccerlg_s4_b3.c:1128: CallFnc_VOID_U8U16U16(SEG_DRAW, PrintScoreBoardRight, ScoreBoardRight.lx, Field.ly, 256);
	ld	bc, (#(_Field + 4) + 0)
	ld	a, (#_ScoreBoardRight + 0)
	ld	hl, #0x0100
	push	hl
	push	bc
	push	af
	inc	sp
	ld	de, #_PrintScoreBoardRight
	ld	a, #0x05
	call	_CallFnc_VOID_U8U16U16
;E:\Dropbox\FAUSTO\SVILUPPI\MSX\CODE\C\MSXgl\projects\soccerlgMSX2/soccerlg_s4_b3.c:1130: for (u8 i=0; i<NumSprite;i++) 
	ld	c, #0x00
00197$:
	ld	a, c
	sub	a, #0x25
	jr	NC, 00121$
;E:\Dropbox\FAUSTO\SVILUPPI\MSX\CODE\C\MSXgl\projects\soccerlgMSX2/soccerlg_s4_b3.c:1132: SwSprite[i].x1 = SwSprite[i].lx;
	ld	b, #0x00
	ld	l, c
	ld	h, b
	add	hl, hl
	add	hl, hl
	add	hl, bc
	add	hl, hl
	add	hl, bc
	add	hl, hl
	add	hl, bc
	ld	de, #_SwSprite
	add	hl, de
;	spillPairReg hl
;	spillPairReg hl
	ld	e, l
	ld	d, h
;	spillPairReg hl
;	spillPairReg hl
	inc	hl
	inc	hl
	ld	a, (de)
	ld	(hl), a
;E:\Dropbox\FAUSTO\SVILUPPI\MSX\CODE\C\MSXgl\projects\soccerlgMSX2/soccerlg_s4_b3.c:1133: SwSprite[i].y1 = SwSprite[i].ly;
	ld	hl, #0x0008
	add	hl, de
	ld	-2 (ix), l
	ld	-1 (ix), h
	ld	hl, #4
	add	hl, de
	ld	b, (hl)
	inc	hl
	ld	e, (hl)
	ld	l, -2 (ix)
	ld	h, -1 (ix)
	ld	(hl), b
	inc	hl
	ld	(hl), e
;E:\Dropbox\FAUSTO\SVILUPPI\MSX\CODE\C\MSXgl\projects\soccerlgMSX2/soccerlg_s4_b3.c:1130: for (u8 i=0; i<NumSprite;i++) 
	inc	c
	jp	00197$
00121$:
;E:\Dropbox\FAUSTO\SVILUPPI\MSX\CODE\C\MSXgl\projects\soccerlgMSX2/soccerlg_s4_b3.c:1136: ScoreBoardLeft.y1 = Field.ly;	
	ld	bc, (#(_Field + 4) + 0)
	ld	((_ScoreBoardLeft + 8)), bc
;E:\Dropbox\FAUSTO\SVILUPPI\MSX\CODE\C\MSXgl\projects\soccerlgMSX2/soccerlg_s4_b3.c:1137: ScoreBoardRight.y1 = Field.ly;	
	ld	bc, (#(_Field + 4) + 0)
	ld	((_ScoreBoardRight + 8)), bc
;E:\Dropbox\FAUSTO\SVILUPPI\MSX\CODE\C\MSXgl\projects\soccerlgMSX2/soccerlg_s4_b3.c:1140: WaitForVBlank();
	call	_WaitForVBlank
;E:\Dropbox\FAUSTO\SVILUPPI\MSX\CODE\C\MSXgl\projects\soccerlgMSX2/soccerlg_s4_b3.c:1142: CallFnc_VOID(SEG_INPUT, UpdateAllInputs);
	ld	de, #_UpdateAllInputs
	ld	a, #0x07
	call	_CallFnc_VOID
;E:\Dropbox\FAUSTO\SVILUPPI\MSX\CODE\C\MSXgl\projects\soccerlgMSX2/soccerlg_s4_b3.c:1143: CallFnc_VOID_3PTR_U16(SEG_GAMESTATE_1, UpdateGameState, &game_state, &wait_secs, &start_sec, target_ly);
	ld	hl, #0x009c
	push	hl
	ld	hl, #4
	add	hl, sp
	push	hl
	ld	hl, #5
	add	hl, sp
	push	hl
	ld	hl, #6
	add	hl, sp
	push	hl
	ld	de, #_UpdateGameState
	ld	a, #0x09
	call	_CallFnc_VOID_3PTR_U16
;E:\Dropbox\FAUSTO\SVILUPPI\MSX\CODE\C\MSXgl\projects\soccerlgMSX2/soccerlg_s4_b3.c:1145: VDP_SetPage(1);		
	ld	a, #0x01
	call	_VDP_SetPage
;E:\Dropbox\FAUSTO\SVILUPPI\MSX\CODE\C\MSXgl\projects\soccerlgMSX2/soccerlg_s4_b3.c:1146: VDP_SetVerticalOffset(ScoreBoardLeft.y1 & 255);
	ld	hl, #(_ScoreBoardLeft + 8)
	ld	l, (hl)
;	spillPairReg hl
;E:/Dropbox/FAUSTO/SVILUPPI/MSX/CODE/C/MSXgl/engine/src/vdp.h:777: inline void VDP_SetVerticalOffset(u8 offset) { VDP_RegWrite(23, offset); }
	ld	a, #0x17
	call	_VDP_RegWrite
;E:\Dropbox\FAUSTO\SVILUPPI\MSX\CODE\C\MSXgl\projects\soccerlgMSX2/soccerlg_s4_b3.c:1147: AddLines(&Field);
	ld	hl, #_Field
	call	_AddLines
;E:\Dropbox\FAUSTO\SVILUPPI\MSX\CODE\C\MSXgl\projects\soccerlgMSX2/soccerlg_s4_b3.c:1149: ball_fg = CallFnc_BOOL(SEG_DRAW, IsBallForeground);
	ld	de, #_IsBallForeground
	ld	a, #0x05
	call	_CallFnc_BOOL
	ld	c, a
;E:\Dropbox\FAUSTO\SVILUPPI\MSX\CODE\C\MSXgl\projects\soccerlgMSX2/soccerlg_s4_b3.c:1151: for (u8 i=0; i<NumSprite;i++) 
	ld	b, #0x00
00200$:
	ld	a, b
	sub	a, #0x25
	jr	NC, 00122$
;E:\Dropbox\FAUSTO\SVILUPPI\MSX\CODE\C\MSXgl\projects\soccerlgMSX2/soccerlg_s4_b3.c:1154: CallFnc_VOID_U8U16U16(SEG_DRAW, RemoveSwSprite, SwSprite[i].x0, SwSprite[i].y0, 0);
	ld	e, b
	ld	d, #0x00
	ld	l, e
	ld	h, d
	add	hl, hl
	add	hl, hl
	add	hl, de
	add	hl, hl
	add	hl, de
	add	hl, hl
	add	hl, de
	ld	de, #_SwSprite
	add	hl, de
;	spillPairReg hl
;	spillPairReg hl
	ld	e, l
	ld	d, h
;	spillPairReg hl
;	spillPairReg hl
	push	bc
	ld	bc, #0x0006
	add	hl, bc
	pop	bc
	ld	a, (hl)
	ld	-2 (ix), a
	inc	hl
	ld	a, (hl)
	ld	-1 (ix), a
	inc	de
	ld	a, (de)
	push	bc
	ld	hl, #0x0000
	push	hl
	ld	l, -2 (ix)
;	spillPairReg hl
;	spillPairReg hl
	ld	h, -1 (ix)
;	spillPairReg hl
;	spillPairReg hl
	push	hl
	push	af
	inc	sp
	ld	de, #_RemoveSwSprite
	ld	a, #0x05
	call	_CallFnc_VOID_U8U16U16
	pop	bc
;E:\Dropbox\FAUSTO\SVILUPPI\MSX\CODE\C\MSXgl\projects\soccerlgMSX2/soccerlg_s4_b3.c:1151: for (u8 i=0; i<NumSprite;i++) 
	inc	b
	jp	00200$
00122$:
;E:\Dropbox\FAUSTO\SVILUPPI\MSX\CODE\C\MSXgl\projects\soccerlgMSX2/soccerlg_s4_b3.c:1157: if (!ball_fg && OnScreen(SwSprite[14].ly)) 
	ld	a, c
	or	a, a
	jr	NZ, 00265$
;E:\Dropbox\FAUSTO\SVILUPPI\MSX\CODE\C\MSXgl\projects\soccerlgMSX2/soccerlg_s4_b3.c:1104: if (!ball_fg && OnScreen(SwSprite[14].ly)) 
	ld	de, (#(_SwSprite + 326) + 0)
;E:\Dropbox\FAUSTO\SVILUPPI\MSX\CODE\C\MSXgl\projects\soccerlgMSX2/soccerlg_s4_b3.c:1157: if (!ball_fg && OnScreen(SwSprite[14].ly)) 
	ld	a, d
	sub	a, #0x02
	jr	NC, 00265$
	ld	hl, #0x020f
	add	hl, de
	ld	-2 (ix), l
	ld	-1 (ix), h
	ld	hl, (#(_Field + 4) + 0)
	ld	a, -2 (ix)
	ld	b, -1 (ix)
	sub	a, l
	ld	l, a
;	spillPairReg hl
;	spillPairReg hl
	ld	a, b
	sbc	a, h
	and	a, #0x01
	ld	b, a
	ld	a, l
	sub	a, #0xcf
	ld	a, b
	sbc	a, #0x00
	jr	NC, 00265$
;E:\Dropbox\FAUSTO\SVILUPPI\MSX\CODE\C\MSXgl\projects\soccerlgMSX2/soccerlg_s4_b3.c:1158: CallSpriteFrame(SwSprite[14].lx,(SwSprite[14].ly&255)+512,SwSprite[14].frame);
	ld	hl, #(_SwSprite + 337)
	ld	a, (hl)
	ld	-2 (ix), a
	inc	hl
	ld	a, (hl)
	ld	-1 (ix), a
	ld	d, #0x00
	ld	hl, #0x0200
	add	hl, de
	ex	de, hl
	ld	hl, #(_SwSprite + 322)
	ld	b, (hl)
	push	bc
	ld	l, -2 (ix)
;	spillPairReg hl
;	spillPairReg hl
	ld	h, -1 (ix)
;	spillPairReg hl
;	spillPairReg hl
	push	hl
	ld	a, b
	call	_CallSpriteFrame
	pop	bc
;E:\Dropbox\FAUSTO\SVILUPPI\MSX\CODE\C\MSXgl\projects\soccerlgMSX2/soccerlg_s4_b3.c:1160: for (u8 i=0; i<14;i++) 
00265$:
	ld	b, #0x00
00203$:
	ld	a, b
	sub	a, #0x0e
	jr	NC, 00130$
;E:\Dropbox\FAUSTO\SVILUPPI\MSX\CODE\C\MSXgl\projects\soccerlgMSX2/soccerlg_s4_b3.c:1163: if OnScreen(SwSprite[i].ly) 
	ld	e, b
	ld	d, #0x00
	ld	l, e
	ld	h, d
	add	hl, hl
	add	hl, hl
	add	hl, de
	add	hl, hl
	add	hl, de
	add	hl, hl
	add	hl, de
	ld	de, #_SwSprite
	add	hl, de
	ld	-4 (ix), l
	ld	-3 (ix), h
	ld	a, -4 (ix)
	add	a, #0x04
	ld	-2 (ix), a
	ld	a, -3 (ix)
	adc	a, #0x00
	ld	-1 (ix), a
	ld	l, -2 (ix)
	ld	h, -1 (ix)
	ld	e, (hl)
	inc	hl
	ld	d, (hl)
	ld	a, d
	sub	a, #0x02
	jr	NC, 00204$
	ld	hl, #0x020f
	add	hl, de
	ex	de, hl
	ld	hl, (#(_Field + 4) + 0)
	ld	a, e
	sub	a, l
	ld	e, a
	ld	a, d
	sbc	a, h
	and	a, #0x01
	ld	d, a
	ld	a, e
	sub	a, #0xcf
	ld	a, d
	sbc	a, #0x00
	jr	NC, 00204$
;E:\Dropbox\FAUSTO\SVILUPPI\MSX\CODE\C\MSXgl\projects\soccerlgMSX2/soccerlg_s4_b3.c:1164: CallSpriteFrame(SwSprite[i].lx,(SwSprite[i].ly&255)+512,GetDrawFrame(i));
	push	bc
	ld	a, b
	call	_GetDrawFrame
	pop	bc
	ld	l, -2 (ix)
	ld	h, -1 (ix)
	ld	l, (hl)
;	spillPairReg hl
;	spillPairReg hl
;	spillPairReg hl
	xor	a, a
	add	a, #0x02
	ld	-2 (ix), l
	ld	-1 (ix), a
	ld	l, -4 (ix)
	ld	h, -3 (ix)
	ld	l, (hl)
;	spillPairReg hl
	push	bc
	push	de
	ld	e, -2 (ix)
	ld	d, -1 (ix)
	ld	a, l
	call	_CallSpriteFrame
	pop	bc
00204$:
;E:\Dropbox\FAUSTO\SVILUPPI\MSX\CODE\C\MSXgl\projects\soccerlgMSX2/soccerlg_s4_b3.c:1160: for (u8 i=0; i<14;i++) 
	inc	b
	jp	00203$
00130$:
;E:\Dropbox\FAUSTO\SVILUPPI\MSX\CODE\C\MSXgl\projects\soccerlgMSX2/soccerlg_s4_b3.c:1167: if (ball_fg && OnScreen(SwSprite[14].ly)) 
	ld	a, c
	or	a, a
	jr	Z, 00272$
;E:\Dropbox\FAUSTO\SVILUPPI\MSX\CODE\C\MSXgl\projects\soccerlgMSX2/soccerlg_s4_b3.c:1104: if (!ball_fg && OnScreen(SwSprite[14].ly)) 
	ld	de, (#(_SwSprite + 326) + 0)
;E:\Dropbox\FAUSTO\SVILUPPI\MSX\CODE\C\MSXgl\projects\soccerlgMSX2/soccerlg_s4_b3.c:1167: if (ball_fg && OnScreen(SwSprite[14].ly)) 
	ld	a, d
	sub	a, #0x02
	jr	NC, 00272$
	ld	hl, #0x020f
	add	hl, de
	ld	c, l
	ld	b, h
	ld	hl, (#(_Field + 4) + 0)
	ld	a, c
	sub	a, l
	ld	c, a
	ld	a, b
	sbc	a, h
	and	a, #0x01
	ld	b, a
	ld	a, c
	sub	a, #0xcf
	ld	a, b
	sbc	a, #0x00
	jr	NC, 00272$
;E:\Dropbox\FAUSTO\SVILUPPI\MSX\CODE\C\MSXgl\projects\soccerlgMSX2/soccerlg_s4_b3.c:1168: CallSpriteFrame(SwSprite[14].lx,(SwSprite[14].ly&255)+512,SwSprite[14].frame);
	ld	bc, (#(_SwSprite + 337) + 0)
	ld	d, #0x00
	ld	hl, #0x0200
	add	hl, de
	ex	de, hl
	ld	hl, #(_SwSprite + 322)
	ld	l, (hl)
;	spillPairReg hl
	push	bc
	ld	a, l
	call	_CallSpriteFrame
;E:\Dropbox\FAUSTO\SVILUPPI\MSX\CODE\C\MSXgl\projects\soccerlgMSX2/soccerlg_s4_b3.c:1170: for (u8 i=15; i<NumSprite;i++) 
00272$:
	ld	-1 (ix), #0x0f
00206$:
	ld	a, -1 (ix)
	sub	a, #0x25
	jr	NC, 00138$
;E:\Dropbox\FAUSTO\SVILUPPI\MSX\CODE\C\MSXgl\projects\soccerlgMSX2/soccerlg_s4_b3.c:1173: if OnScreen(SwSprite[i].ly) 
	ld	c, -1 (ix)
	ld	b, #0x00
	ld	l, c
	ld	h, b
	add	hl, hl
	add	hl, hl
	add	hl, bc
	add	hl, hl
	add	hl, bc
	add	hl, hl
	add	hl, bc
	ld	de, #_SwSprite
	add	hl, de
	ld	c, l
	ld	b, h
	ld	e, c
	ld	d, b
	ld	hl, #4
	add	hl, de
	ld	e, (hl)
	inc	hl
	ld	a, (hl)
	ld	-3 (ix), e
	ld	-2 (ix), a
	sub	a, #0x02
	jr	NC, 00207$
	ld	a, -3 (ix)
	add	a, #0x0f
	ld	e, a
	ld	a, -2 (ix)
	adc	a, #0x02
	ld	d, a
	ld	hl, (#(_Field + 4) + 0)
	ld	a, e
	sub	a, l
	ld	e, a
	ld	a, d
	sbc	a, h
	and	a, #0x01
	ld	d, a
	ld	a, e
	sub	a, #0xcf
	ld	a, d
	sbc	a, #0x00
	jr	NC, 00207$
;E:\Dropbox\FAUSTO\SVILUPPI\MSX\CODE\C\MSXgl\projects\soccerlgMSX2/soccerlg_s4_b3.c:1174: CallSpriteFrame(SwSprite[i].lx,(SwSprite[i].ly&255)+512,SwSprite[i].frame);
	ld	e, c
	ld	d, b
	ld	hl, #15
	add	hl, de
	ld	a, (hl)
	inc	hl
	ld	h, (hl)
;	spillPairReg hl
	ld	l, a
;	spillPairReg hl
;	spillPairReg hl
	ld	e, -3 (ix)
	xor	a, a
	add	a, #0x02
	ld	d, a
	ld	a, (bc)
	ld	c, a
	push	hl
	ld	a, c
	call	_CallSpriteFrame
00207$:
;E:\Dropbox\FAUSTO\SVILUPPI\MSX\CODE\C\MSXgl\projects\soccerlgMSX2/soccerlg_s4_b3.c:1170: for (u8 i=15; i<NumSprite;i++) 
	inc	-1 (ix)
	jp	00206$
00138$:
;E:\Dropbox\FAUSTO\SVILUPPI\MSX\CODE\C\MSXgl\projects\soccerlgMSX2/soccerlg_s4_b3.c:1179: CallFnc_VOID_U8U16U16(SEG_DRAW, PrintScoreBoardLeft, ScoreBoardLeft.lx, Field.ly, 512);
	ld	bc, (#(_Field + 4) + 0)
	ld	a, (#_ScoreBoardLeft + 0)
	ld	hl, #0x0200
	push	hl
	push	bc
	push	af
	inc	sp
	ld	de, #_PrintScoreBoardLeft
	ld	a, #0x05
	call	_CallFnc_VOID_U8U16U16
;E:\Dropbox\FAUSTO\SVILUPPI\MSX\CODE\C\MSXgl\projects\soccerlgMSX2/soccerlg_s4_b3.c:1181: CallFnc_VOID_U8U16U16(SEG_DRAW, PrintScoreBoardRight, ScoreBoardRight.lx, Field.ly, 512);
	ld	bc, (#(_Field + 4) + 0)
	ld	a, (#_ScoreBoardRight + 0)
	ld	hl, #0x0200
	push	hl
	push	bc
	push	af
	inc	sp
	ld	de, #_PrintScoreBoardRight
	ld	a, #0x05
	call	_CallFnc_VOID_U8U16U16
;E:\Dropbox\FAUSTO\SVILUPPI\MSX\CODE\C\MSXgl\projects\soccerlgMSX2/soccerlg_s4_b3.c:1183: for (u8 i=0; i<NumSprite;i++) 
	ld	-1 (ix), #0x00
00209$:
	ld	a, -1 (ix)
	sub	a, #0x25
	jr	NC, 00139$
;E:\Dropbox\FAUSTO\SVILUPPI\MSX\CODE\C\MSXgl\projects\soccerlgMSX2/soccerlg_s4_b3.c:1185: SwSprite[i].x2 = SwSprite[i].lx;
	ld	c, -1 (ix)
	ld	b, #0x00
	ld	l, c
	ld	h, b
	add	hl, hl
	add	hl, hl
	add	hl, bc
	add	hl, hl
	add	hl, bc
	add	hl, hl
	add	hl, bc
	ex	de, hl
	ld	hl, #_SwSprite
	add	hl, de
	ex	de, hl
	ld	c, e
	ld	b, d
	inc	bc
	inc	bc
	inc	bc
	ld	a, (de)
	ld	(bc), a
;E:\Dropbox\FAUSTO\SVILUPPI\MSX\CODE\C\MSXgl\projects\soccerlgMSX2/soccerlg_s4_b3.c:1186: SwSprite[i].y2 = SwSprite[i].ly;
	ld	hl, #0x000a
	add	hl, de
	ld	c, l
	ld	b, h
	ld	hl, #4
	add	hl, de
	ld	e, (hl)
	inc	hl
	ld	d, (hl)
	ld	a, e
	ld	(bc), a
	inc	bc
	ld	a, d
	ld	(bc), a
;E:\Dropbox\FAUSTO\SVILUPPI\MSX\CODE\C\MSXgl\projects\soccerlgMSX2/soccerlg_s4_b3.c:1183: for (u8 i=0; i<NumSprite;i++) 
	inc	-1 (ix)
	jp	00209$
00139$:
;E:\Dropbox\FAUSTO\SVILUPPI\MSX\CODE\C\MSXgl\projects\soccerlgMSX2/soccerlg_s4_b3.c:1189: ScoreBoardLeft.y2 = Field.ly;
	ld	bc, (#(_Field + 4) + 0)
	ld	((_ScoreBoardLeft + 10)), bc
;E:\Dropbox\FAUSTO\SVILUPPI\MSX\CODE\C\MSXgl\projects\soccerlgMSX2/soccerlg_s4_b3.c:1190: ScoreBoardRight.y2 = Field.ly;
	ld	bc, (#(_Field + 4) + 0)
	ld	((_ScoreBoardRight + 10)), bc
;E:\Dropbox\FAUSTO\SVILUPPI\MSX\CODE\C\MSXgl\projects\soccerlgMSX2/soccerlg_s4_b3.c:1193: WaitForVBlank();
	call	_WaitForVBlank
;E:\Dropbox\FAUSTO\SVILUPPI\MSX\CODE\C\MSXgl\projects\soccerlgMSX2/soccerlg_s4_b3.c:1195: CallFnc_VOID(SEG_INPUT, UpdateAllInputs);
	ld	de, #_UpdateAllInputs
	ld	a, #0x07
	call	_CallFnc_VOID
;E:\Dropbox\FAUSTO\SVILUPPI\MSX\CODE\C\MSXgl\projects\soccerlgMSX2/soccerlg_s4_b3.c:1196: CallFnc_VOID_3PTR_U16(SEG_GAMESTATE_1, UpdateGameState, &game_state, &wait_secs, &start_sec, target_ly);
	ld	hl, #0x009c
	push	hl
	ld	hl, #4
	add	hl, sp
	push	hl
	ld	hl, #5
	add	hl, sp
	push	hl
	ld	hl, #6
	add	hl, sp
	push	hl
	ld	de, #_UpdateGameState
	ld	a, #0x09
	call	_CallFnc_VOID_3PTR_U16
;E:\Dropbox\FAUSTO\SVILUPPI\MSX\CODE\C\MSXgl\projects\soccerlgMSX2/soccerlg_s4_b3.c:1198: VDP_SetPage(2);		
	ld	a, #0x02
	call	_VDP_SetPage
;E:\Dropbox\FAUSTO\SVILUPPI\MSX\CODE\C\MSXgl\projects\soccerlgMSX2/soccerlg_s4_b3.c:1199: VDP_SetVerticalOffset(ScoreBoardLeft.y2 & 255);
	ld	hl, #(_ScoreBoardLeft + 10)
	ld	l, (hl)
;	spillPairReg hl
;E:/Dropbox/FAUSTO/SVILUPPI/MSX/CODE/C/MSXgl/engine/src/vdp.h:777: inline void VDP_SetVerticalOffset(u8 offset) { VDP_RegWrite(23, offset); }
	ld	a, #0x17
	call	_VDP_RegWrite
;E:\Dropbox\FAUSTO\SVILUPPI\MSX\CODE\C\MSXgl\projects\soccerlgMSX2/soccerlg_s4_b3.c:1200: AddLines(&Field);
	ld	hl, #_Field
	call	_AddLines
;E:\Dropbox\FAUSTO\SVILUPPI\MSX\CODE\C\MSXgl\projects\soccerlgMSX2/soccerlg_s4_b3.c:1202: ball_fg = CallFnc_BOOL(SEG_DRAW, IsBallForeground);
	ld	de, #_IsBallForeground
	ld	a, #0x05
	call	_CallFnc_BOOL
	ld	c, a
;E:\Dropbox\FAUSTO\SVILUPPI\MSX\CODE\C\MSXgl\projects\soccerlgMSX2/soccerlg_s4_b3.c:1204: for (u8 i=0; i<NumSprite;i++) 
	ld	-1 (ix), #0x00
00212$:
	ld	a, -1 (ix)
	sub	a, #0x25
	jr	NC, 00140$
;E:\Dropbox\FAUSTO\SVILUPPI\MSX\CODE\C\MSXgl\projects\soccerlgMSX2/soccerlg_s4_b3.c:1207: CallFnc_VOID_U8U16U16(SEG_DRAW, RemoveSwSprite, SwSprite[i].x1, SwSprite[i].y1, 256);
	ld	e, -1 (ix)
	ld	d, #0x00
	ld	l, e
	ld	h, d
	add	hl, hl
	add	hl, hl
	add	hl, de
	add	hl, hl
	add	hl, de
	add	hl, hl
	add	hl, de
	ld	de, #_SwSprite
	add	hl, de
;	spillPairReg hl
;	spillPairReg hl
	ld	e, l
	ld	d, h
;	spillPairReg hl
;	spillPairReg hl
	push	bc
	ld	bc, #0x0008
	add	hl, bc
	pop	bc
	ld	b, (hl)
	inc	hl
	ld	a, (hl)
	ex	de, hl
	inc	hl
	inc	hl
	ld	d, (hl)
	push	bc
	ld	hl, #0x0100
	push	hl
	ld	l, b
;	spillPairReg hl
;	spillPairReg hl
	ld	h, a
;	spillPairReg hl
;	spillPairReg hl
	push	hl
	push	de
	inc	sp
	ld	de, #_RemoveSwSprite
	ld	a, #0x05
	call	_CallFnc_VOID_U8U16U16
	pop	bc
;E:\Dropbox\FAUSTO\SVILUPPI\MSX\CODE\C\MSXgl\projects\soccerlgMSX2/soccerlg_s4_b3.c:1204: for (u8 i=0; i<NumSprite;i++) 
	inc	-1 (ix)
	jp	00212$
00140$:
;E:\Dropbox\FAUSTO\SVILUPPI\MSX\CODE\C\MSXgl\projects\soccerlgMSX2/soccerlg_s4_b3.c:1210: if (!ball_fg && OnScreen(SwSprite[14].ly)) 
	ld	a, c
	or	a, a
	jr	NZ, 00283$
;E:\Dropbox\FAUSTO\SVILUPPI\MSX\CODE\C\MSXgl\projects\soccerlgMSX2/soccerlg_s4_b3.c:1104: if (!ball_fg && OnScreen(SwSprite[14].ly)) 
	ld	de, (#(_SwSprite + 326) + 0)
;E:\Dropbox\FAUSTO\SVILUPPI\MSX\CODE\C\MSXgl\projects\soccerlgMSX2/soccerlg_s4_b3.c:1210: if (!ball_fg && OnScreen(SwSprite[14].ly)) 
	ld	a, d
	sub	a, #0x02
	jr	NC, 00283$
	ld	hl, #0x020f
	add	hl, de
	ld	-2 (ix), l
	ld	-1 (ix), h
	ld	hl, (#(_Field + 4) + 0)
	ld	a, -2 (ix)
	ld	b, -1 (ix)
	sub	a, l
	ld	l, a
;	spillPairReg hl
;	spillPairReg hl
	ld	a, b
	sbc	a, h
	and	a, #0x01
	ld	b, a
	ld	a, l
	sub	a, #0xcf
	ld	a, b
	sbc	a, #0x00
	jr	NC, 00283$
;E:\Dropbox\FAUSTO\SVILUPPI\MSX\CODE\C\MSXgl\projects\soccerlgMSX2/soccerlg_s4_b3.c:1211: CallSpriteFrame(SwSprite[14].lx,(SwSprite[14].ly&255),SwSprite[14].frame);
	ld	hl, #(_SwSprite + 337)
	ld	b, (hl)
	inc	hl
	ld	a, (hl)
	ld	d, #0x00
	ld	hl, #(_SwSprite + 322)
	ld	l, (hl)
;	spillPairReg hl
	push	bc
	push	hl
	ld	l, b
;	spillPairReg hl
;	spillPairReg hl
	ld	h, a
;	spillPairReg hl
;	spillPairReg hl
	ex	(sp), hl
	ld	a, l
	call	_CallSpriteFrame
	pop	bc
;E:\Dropbox\FAUSTO\SVILUPPI\MSX\CODE\C\MSXgl\projects\soccerlgMSX2/soccerlg_s4_b3.c:1213: for (u8 i=0; i<14;i++) 
00283$:
	ld	-1 (ix), #0x00
00215$:
	ld	a, -1 (ix)
	sub	a, #0x0e
	jp	NC, 00148$
;E:\Dropbox\FAUSTO\SVILUPPI\MSX\CODE\C\MSXgl\projects\soccerlgMSX2/soccerlg_s4_b3.c:1216: if OnScreen(SwSprite[i].ly) 
	ld	e, -1 (ix)
	ld	d, #0x00
	ld	l, e
	ld	h, d
	add	hl, hl
	add	hl, hl
	add	hl, de
	add	hl, hl
	add	hl, de
	add	hl, hl
	add	hl, de
	ld	de, #_SwSprite
	add	hl, de
	ld	-7 (ix), l
	ld	-6 (ix), h
	ld	a, -7 (ix)
	add	a, #0x04
	ld	-5 (ix), a
	ld	a, -6 (ix)
	adc	a, #0x00
	ld	-4 (ix), a
	ld	l, -5 (ix)
	ld	h, -4 (ix)
	ld	e, (hl)
	inc	hl
	ld	d, (hl)
	ld	a, d
	sub	a, #0x02
	jr	NC, 00216$
	ld	hl, #0x020f
	add	hl, de
	ex	de, hl
	ld	hl, (#(_Field + 4) + 0)
	ld	a, e
	sub	a, l
	ld	e, a
	ld	a, d
	sbc	a, h
	and	a, #0x01
	ld	b, a
	ld	a, e
	sub	a, #0xcf
	ld	a, b
	sbc	a, #0x00
	jr	NC, 00216$
;E:\Dropbox\FAUSTO\SVILUPPI\MSX\CODE\C\MSXgl\projects\soccerlgMSX2/soccerlg_s4_b3.c:1217: CallSpriteFrame(SwSprite[i].lx,(SwSprite[i].ly&255),GetDrawFrame(i));	
	push	bc
	ld	a, -1 (ix)
	call	_GetDrawFrame
	ld	-3 (ix), e
	ld	-2 (ix), d
	pop	bc
	ld	l, -5 (ix)
	ld	h, -4 (ix)
	ld	e, (hl)
	ld	d, #0x00
	ld	l, -7 (ix)
	ld	h, -6 (ix)
	ld	b, (hl)
	push	bc
	ld	l, -3 (ix)
;	spillPairReg hl
;	spillPairReg hl
	ld	h, -2 (ix)
;	spillPairReg hl
;	spillPairReg hl
	push	hl
	ld	a, b
	call	_CallSpriteFrame
	pop	bc
00216$:
;E:\Dropbox\FAUSTO\SVILUPPI\MSX\CODE\C\MSXgl\projects\soccerlgMSX2/soccerlg_s4_b3.c:1213: for (u8 i=0; i<14;i++) 
	inc	-1 (ix)
	jp	00215$
00148$:
;E:\Dropbox\FAUSTO\SVILUPPI\MSX\CODE\C\MSXgl\projects\soccerlgMSX2/soccerlg_s4_b3.c:1220: if (ball_fg && OnScreen(SwSprite[14].ly)) 
	ld	a, c
	or	a, a
	jr	Z, 00290$
;E:\Dropbox\FAUSTO\SVILUPPI\MSX\CODE\C\MSXgl\projects\soccerlgMSX2/soccerlg_s4_b3.c:1104: if (!ball_fg && OnScreen(SwSprite[14].ly)) 
	ld	de, (#(_SwSprite + 326) + 0)
;E:\Dropbox\FAUSTO\SVILUPPI\MSX\CODE\C\MSXgl\projects\soccerlgMSX2/soccerlg_s4_b3.c:1220: if (ball_fg && OnScreen(SwSprite[14].ly)) 
	ld	a, d
	sub	a, #0x02
	jr	NC, 00290$
	ld	hl, #0x020f
	add	hl, de
	ld	c, l
	ld	b, h
	ld	hl, (#(_Field + 4) + 0)
	ld	a, c
	sub	a, l
	ld	c, a
	ld	a, b
	sbc	a, h
	and	a, #0x01
	ld	b, a
	ld	a, c
	sub	a, #0xcf
	ld	a, b
	sbc	a, #0x00
	jr	NC, 00290$
;E:\Dropbox\FAUSTO\SVILUPPI\MSX\CODE\C\MSXgl\projects\soccerlgMSX2/soccerlg_s4_b3.c:1221: CallSpriteFrame(SwSprite[14].lx,(SwSprite[14].ly&255),SwSprite[14].frame);
	ld	bc, (#(_SwSprite + 337) + 0)
	ld	d, #0x00
	ld	hl, #(_SwSprite + 322)
	ld	l, (hl)
;	spillPairReg hl
	push	bc
	ld	a, l
	call	_CallSpriteFrame
;E:\Dropbox\FAUSTO\SVILUPPI\MSX\CODE\C\MSXgl\projects\soccerlgMSX2/soccerlg_s4_b3.c:1223: for (u8 i=15; i<NumSprite;i++) 
00290$:
	ld	-1 (ix), #0x0f
00218$:
	ld	a, -1 (ix)
	sub	a, #0x25
	jr	NC, 00156$
;E:\Dropbox\FAUSTO\SVILUPPI\MSX\CODE\C\MSXgl\projects\soccerlgMSX2/soccerlg_s4_b3.c:1226: if OnScreen(SwSprite[i].ly) 
	ld	c, -1 (ix)
	ld	b, #0x00
	ld	l, c
	ld	h, b
	add	hl, hl
	add	hl, hl
	add	hl, bc
	add	hl, hl
	add	hl, bc
	add	hl, hl
	add	hl, bc
	ld	de, #_SwSprite
	add	hl, de
	ld	-3 (ix), l
	ld	-2 (ix), h
	ld	bc,#4
	add	hl,bc
	ld	e, (hl)
	inc	hl
	ld	d, (hl)
	ld	a, d
	sub	a, #0x02
	jr	NC, 00219$
	ld	hl, #0x020f
	add	hl, de
	ld	c, l
	ld	b, h
	ld	hl, (#(_Field + 4) + 0)
	ld	a, c
	sub	a, l
	ld	c, a
	ld	a, b
	sbc	a, h
	and	a, #0x01
	ld	b, a
	ld	a, c
	sub	a, #0xcf
	ld	a, b
	sbc	a, #0x00
	jr	NC, 00219$
;E:\Dropbox\FAUSTO\SVILUPPI\MSX\CODE\C\MSXgl\projects\soccerlgMSX2/soccerlg_s4_b3.c:1227: CallSpriteFrame(SwSprite[i].lx,(SwSprite[i].ly&255),SwSprite[i].frame);	
	ld	c, -3 (ix)
	ld	b, -2 (ix)
	ld	hl, #15
	add	hl, bc
	ld	c, (hl)
	inc	hl
	ld	b, (hl)
	ld	d, #0x00
	ld	l, -3 (ix)
	ld	h, -2 (ix)
	ld	l, (hl)
;	spillPairReg hl
	push	bc
	ld	a, l
	call	_CallSpriteFrame
00219$:
;E:\Dropbox\FAUSTO\SVILUPPI\MSX\CODE\C\MSXgl\projects\soccerlgMSX2/soccerlg_s4_b3.c:1223: for (u8 i=15; i<NumSprite;i++) 
	inc	-1 (ix)
	jp	00218$
00156$:
;E:\Dropbox\FAUSTO\SVILUPPI\MSX\CODE\C\MSXgl\projects\soccerlgMSX2/soccerlg_s4_b3.c:1232: CallFnc_VOID_U8U16U16(SEG_DRAW, PrintScoreBoardLeft, ScoreBoardLeft.lx, Field.ly, 0);
	ld	bc, (#(_Field + 4) + 0)
	ld	a, (#_ScoreBoardLeft + 0)
	ld	hl, #0x0000
	push	hl
	push	bc
	push	af
	inc	sp
	ld	de, #_PrintScoreBoardLeft
	ld	a, #0x05
	call	_CallFnc_VOID_U8U16U16
;E:\Dropbox\FAUSTO\SVILUPPI\MSX\CODE\C\MSXgl\projects\soccerlgMSX2/soccerlg_s4_b3.c:1234: CallFnc_VOID_U8U16U16(SEG_DRAW, PrintScoreBoardRight, ScoreBoardRight.lx, Field.ly, 0);
	ld	bc, (#(_Field + 4) + 0)
	ld	a, (#_ScoreBoardRight + 0)
	ld	hl, #0x0000
	push	hl
	push	bc
	push	af
	inc	sp
	ld	de, #_PrintScoreBoardRight
	ld	a, #0x05
	call	_CallFnc_VOID_U8U16U16
;E:\Dropbox\FAUSTO\SVILUPPI\MSX\CODE\C\MSXgl\projects\soccerlgMSX2/soccerlg_s4_b3.c:1236: for (u8 i=0; i<NumSprite;i++) 
	ld	c, #0x00
00221$:
	ld	a, c
	sub	a, #0x25
	jr	NC, 00157$
;E:\Dropbox\FAUSTO\SVILUPPI\MSX\CODE\C\MSXgl\projects\soccerlgMSX2/soccerlg_s4_b3.c:1238: SwSprite[i].x0 = SwSprite[i].lx;
	ld	b, #0x00
	ld	l, c
	ld	h, b
	add	hl, hl
	add	hl, hl
	add	hl, bc
	add	hl, hl
	add	hl, bc
	add	hl, hl
	add	hl, bc
	ld	de, #_SwSprite
	add	hl, de
;	spillPairReg hl
;	spillPairReg hl
	ld	e, l
	ld	d, h
;	spillPairReg hl
;	spillPairReg hl
	inc	hl
	ld	a, (de)
	ld	(hl), a
;E:\Dropbox\FAUSTO\SVILUPPI\MSX\CODE\C\MSXgl\projects\soccerlgMSX2/soccerlg_s4_b3.c:1239: SwSprite[i].y0 = SwSprite[i].ly;
	ld	hl, #0x0006
	add	hl, de
	ld	-2 (ix), l
	ld	-1 (ix), h
	ld	hl, #4
	add	hl, de
	ld	b, (hl)
	inc	hl
	ld	e, (hl)
	ld	l, -2 (ix)
	ld	h, -1 (ix)
	ld	(hl), b
	inc	hl
	ld	(hl), e
;E:\Dropbox\FAUSTO\SVILUPPI\MSX\CODE\C\MSXgl\projects\soccerlgMSX2/soccerlg_s4_b3.c:1236: for (u8 i=0; i<NumSprite;i++) 
	inc	c
	jp	00221$
00157$:
;E:\Dropbox\FAUSTO\SVILUPPI\MSX\CODE\C\MSXgl\projects\soccerlgMSX2/soccerlg_s4_b3.c:1242: ScoreBoardLeft.y0 = Field.ly;
	ld	bc, (#(_Field + 4) + 0)
	ld	((_ScoreBoardLeft + 6)), bc
;E:\Dropbox\FAUSTO\SVILUPPI\MSX\CODE\C\MSXgl\projects\soccerlgMSX2/soccerlg_s4_b3.c:1243: ScoreBoardRight.y0 = Field.ly;
	ld	bc, (#(_Field + 4) + 0)
	ld	((_ScoreBoardRight + 6)), bc
;E:/Dropbox/FAUSTO/SVILUPPI/MSX/CODE/C/MSXgl/engine/src/print.h:223: g_PrintData.CursorX = x;
	ld	hl, #(_g_PrintData + 5)
	ld	(hl), #0x01
;E:/Dropbox/FAUSTO/SVILUPPI/MSX/CODE/C/MSXgl/engine/src/print.h:224: g_PrintData.CursorY = y;
	ld	hl, #0x0318
	ld	((_g_PrintData + 6)), hl
;E:\Dropbox\FAUSTO\SVILUPPI\MSX\CODE\C\MSXgl\projects\soccerlgMSX2/soccerlg_s4_b3.c:1249: if(LastSecs!=Secs){
	ld	a, (_LastSecs+0)
	ld	hl, #_Secs
	sub	a, (hl)
	jr	Z, 00159$
;E:\Dropbox\FAUSTO\SVILUPPI\MSX\CODE\C\MSXgl\projects\soccerlgMSX2/soccerlg_s4_b3.c:1250: LastSecs=Secs;
	ld	a, (_Secs+0)
	ld	(_LastSecs+0), a
;E:/Dropbox/FAUSTO/SVILUPPI/MSX/CODE/C/MSXgl/engine/src/print.h:223: g_PrintData.CursorX = x;
	ld	hl, #(_g_PrintData + 5)
	ld	(hl), #0xf8
;E:/Dropbox/FAUSTO/SVILUPPI/MSX/CODE/C/MSXgl/engine/src/print.h:224: g_PrintData.CursorY = y;
	ld	hl, #0x0330
	ld	((_g_PrintData + 6)), hl
;E:\Dropbox\FAUSTO\SVILUPPI\MSX\CODE\C\MSXgl\projects\soccerlgMSX2/soccerlg_s4_b3.c:1252: Print_SetPosition(248,  48+768);Print_DrawFormat("%i",Mins);
	ld	a, (_Mins+0)
	ld	c, a
	ld	b, #0x00
	push	bc
	ld	hl, #___str_0
	push	hl
	call	_Print_DrawFormat
	pop	af
	pop	af
;E:/Dropbox/FAUSTO/SVILUPPI/MSX/CODE/C/MSXgl/engine/src/print.h:223: g_PrintData.CursorX = x;
	ld	hl, #(_g_PrintData + 5)
	ld	(hl), #0xf8
;E:/Dropbox/FAUSTO/SVILUPPI/MSX/CODE/C/MSXgl/engine/src/print.h:224: g_PrintData.CursorY = y;
	ld	hl, #0x033c
	ld	((_g_PrintData + 6)), hl
;E:\Dropbox\FAUSTO\SVILUPPI\MSX\CODE\C\MSXgl\projects\soccerlgMSX2/soccerlg_s4_b3.c:1253: Print_SetPosition(248,  60+768);Print_DrawFormat("%i",Secs/10);	
	ld	a, (_Secs+0)
	ld	l, a
;	spillPairReg hl
;	spillPairReg hl
	ld	h, #0x00
;	spillPairReg hl
;	spillPairReg hl
	ld	de, #0x000a
	call	__divsint
	push	de
	ld	hl, #___str_0
	push	hl
	call	_Print_DrawFormat
	pop	af
	pop	af
;E:/Dropbox/FAUSTO/SVILUPPI/MSX/CODE/C/MSXgl/engine/src/print.h:223: g_PrintData.CursorX = x;
	ld	hl, #(_g_PrintData + 5)
	ld	(hl), #0xf8
;E:/Dropbox/FAUSTO/SVILUPPI/MSX/CODE/C/MSXgl/engine/src/print.h:224: g_PrintData.CursorY = y;
	ld	hl, #0x0344
	ld	((_g_PrintData + 6)), hl
;E:\Dropbox\FAUSTO\SVILUPPI\MSX\CODE\C\MSXgl\projects\soccerlgMSX2/soccerlg_s4_b3.c:1254: Print_SetPosition(248,  68+768);Print_DrawFormat("%i",Secs-Secs/10*10);
	ld	a, (_Secs+0)
	ld	c, a
	ld	b, #0x00
	push	bc
	ld	de, #0x000a
	ld	l, c
;	spillPairReg hl
;	spillPairReg hl
	ld	h, b
;	spillPairReg hl
;	spillPairReg hl
	call	__divsint
	pop	bc
	ld	l, e
	ld	h, d
	add	hl, hl
	add	hl, hl
	add	hl, de
	add	hl, hl
	ld	a, c
	sub	a, l
	ld	c, a
	ld	a, b
	sbc	a, h
	ld	b, a
	push	bc
	ld	hl, #___str_0
	push	hl
	call	_Print_DrawFormat
	pop	af
	pop	af
00159$:
;E:\Dropbox\FAUSTO\SVILUPPI\MSX\CODE\C\MSXgl\projects\soccerlgMSX2/soccerlg_s4_b3.c:1258: if(LastScoreTeam1 != ScoreTeam1){
	ld	a, (_LastScoreTeam1+0)
	ld	hl, #_ScoreTeam1
	sub	a, (hl)
	jr	Z, 00161$
;E:\Dropbox\FAUSTO\SVILUPPI\MSX\CODE\C\MSXgl\projects\soccerlgMSX2/soccerlg_s4_b3.c:1259: LastScoreTeam1 = ScoreTeam1;
	ld	a, (_ScoreTeam1+0)
	ld	(_LastScoreTeam1+0), a
;E:/Dropbox/FAUSTO/SVILUPPI/MSX/CODE/C/MSXgl/engine/src/vdp_inl.h:167: g_VDP_Command.DX = dx; 
	ld	hl, #0x0000
	ld	((_g_VDP_Command + 4)), hl
;E:/Dropbox/FAUSTO/SVILUPPI/MSX/CODE/C/MSXgl/engine/src/vdp_inl.h:168: g_VDP_Command.DY = dy; 
	ld	hl, #0x0358
	ld	((_g_VDP_Command + 6)), hl
;E:/Dropbox/FAUSTO/SVILUPPI/MSX/CODE/C/MSXgl/engine/src/vdp_inl.h:169: g_VDP_Command.NX = nx; 
	ld	hl, #0x0008
	ld	((_g_VDP_Command + 8)), hl
;E:/Dropbox/FAUSTO/SVILUPPI/MSX/CODE/C/MSXgl/engine/src/vdp_inl.h:170: g_VDP_Command.NY = ny; 
	ld	((_g_VDP_Command + 10)), hl
;E:/Dropbox/FAUSTO/SVILUPPI/MSX/CODE/C/MSXgl/engine/src/vdp_inl.h:171: g_VDP_Command.CLR = col; 
	ld	hl, #(_g_VDP_Command + 12)
	ld	(hl), #0x77
;E:/Dropbox/FAUSTO/SVILUPPI/MSX/CODE/C/MSXgl/engine/src/vdp_inl.h:172: g_VDP_Command.ARG = arg; 
	ld	hl, #(_g_VDP_Command + 13)
	ld	(hl), #0x00
;E:/Dropbox/FAUSTO/SVILUPPI/MSX/CODE/C/MSXgl/engine/src/vdp_inl.h:173: g_VDP_Command.CMD = VDP_CMD_HMMV;
	ld	hl, #(_g_VDP_Command + 14)
	ld	(hl), #0xc0
;E:/Dropbox/FAUSTO/SVILUPPI/MSX/CODE/C/MSXgl/engine/src/vdp_inl.h:174: VPD_CommandSetupR36();
	call	_VPD_CommandSetupR36
;E:/Dropbox/FAUSTO/SVILUPPI/MSX/CODE/C/MSXgl/engine/src/print.h:223: g_PrintData.CursorX = x;
	ld	hl, #(_g_PrintData + 5)
	ld	(hl), #0x00
;E:/Dropbox/FAUSTO/SVILUPPI/MSX/CODE/C/MSXgl/engine/src/print.h:224: g_PrintData.CursorY = y;
	ld	hl, #0x0358
	ld	((_g_PrintData + 6)), hl
;E:\Dropbox\FAUSTO\SVILUPPI\MSX\CODE\C\MSXgl\projects\soccerlgMSX2/soccerlg_s4_b3.c:1261: Print_SetPosition(0,  88+768);Print_DrawFormat("%i", (i16)ScoreTeam1);
	ld	a, (_ScoreTeam1+0)
	ld	c, a
	ld	b, #0x00
	push	bc
	ld	hl, #___str_0
	push	hl
	call	_Print_DrawFormat
	pop	af
	pop	af
00161$:
;E:\Dropbox\FAUSTO\SVILUPPI\MSX\CODE\C\MSXgl\projects\soccerlgMSX2/soccerlg_s4_b3.c:1264: if(LastScoreTeam2 != ScoreTeam2){
	ld	a, (_LastScoreTeam2+0)
	ld	hl, #_ScoreTeam2
	sub	a, (hl)
	jp	Z,00223$
;E:\Dropbox\FAUSTO\SVILUPPI\MSX\CODE\C\MSXgl\projects\soccerlgMSX2/soccerlg_s4_b3.c:1265: LastScoreTeam2 = ScoreTeam2;
	ld	a, (_ScoreTeam2+0)
	ld	(_LastScoreTeam2+0), a
;E:/Dropbox/FAUSTO/SVILUPPI/MSX/CODE/C/MSXgl/engine/src/vdp_inl.h:167: g_VDP_Command.DX = dx; 
	ld	hl, #0x0000
	ld	((_g_VDP_Command + 4)), hl
;E:/Dropbox/FAUSTO/SVILUPPI/MSX/CODE/C/MSXgl/engine/src/vdp_inl.h:168: g_VDP_Command.DY = dy; 
	ld	hl, #0x0328
	ld	((_g_VDP_Command + 6)), hl
;E:/Dropbox/FAUSTO/SVILUPPI/MSX/CODE/C/MSXgl/engine/src/vdp_inl.h:169: g_VDP_Command.NX = nx; 
	ld	hl, #0x0008
	ld	((_g_VDP_Command + 8)), hl
;E:/Dropbox/FAUSTO/SVILUPPI/MSX/CODE/C/MSXgl/engine/src/vdp_inl.h:170: g_VDP_Command.NY = ny; 
	ld	((_g_VDP_Command + 10)), hl
;E:/Dropbox/FAUSTO/SVILUPPI/MSX/CODE/C/MSXgl/engine/src/vdp_inl.h:171: g_VDP_Command.CLR = col; 
	ld	hl, #(_g_VDP_Command + 12)
	ld	(hl), #0x77
;E:/Dropbox/FAUSTO/SVILUPPI/MSX/CODE/C/MSXgl/engine/src/vdp_inl.h:172: g_VDP_Command.ARG = arg; 
	ld	hl, #(_g_VDP_Command + 13)
	ld	(hl), #0x00
;E:/Dropbox/FAUSTO/SVILUPPI/MSX/CODE/C/MSXgl/engine/src/vdp_inl.h:173: g_VDP_Command.CMD = VDP_CMD_HMMV;
	ld	hl, #(_g_VDP_Command + 14)
	ld	(hl), #0xc0
;E:/Dropbox/FAUSTO/SVILUPPI/MSX/CODE/C/MSXgl/engine/src/vdp_inl.h:174: VPD_CommandSetupR36();
	call	_VPD_CommandSetupR36
;E:/Dropbox/FAUSTO/SVILUPPI/MSX/CODE/C/MSXgl/engine/src/print.h:223: g_PrintData.CursorX = x;
	ld	hl, #(_g_PrintData + 5)
	ld	(hl), #0x00
;E:/Dropbox/FAUSTO/SVILUPPI/MSX/CODE/C/MSXgl/engine/src/print.h:224: g_PrintData.CursorY = y;
	ld	hl, #0x0328
	ld	((_g_PrintData + 6)), hl
;E:\Dropbox\FAUSTO\SVILUPPI\MSX\CODE\C\MSXgl\projects\soccerlgMSX2/soccerlg_s4_b3.c:1267: Print_SetPosition(0,  40+768);Print_DrawFormat("%i", (i16)ScoreTeam2);
	ld	a, (_ScoreTeam2+0)
	ld	c, a
	ld	b, #0x00
	push	bc
	ld	hl, #___str_0
	push	hl
	call	_Print_DrawFormat
	pop	af
	pop	af
;E:\Dropbox\FAUSTO\SVILUPPI\MSX\CODE\C\MSXgl\projects\soccerlgMSX2/soccerlg_s4_b3.c:1270: }
	jp	00223$
___str_0:
	.ascii "%i"
	.db 0x00
	.area _SEG4
	.area _INITIALIZER
	.area _CABS (ABS)
