                                      1 ;--------------------------------------------------------
                                      2 ; File Created by SDCC : free open source ANSI-C Compiler
                                      3 ; Version 4.2.0 #13081 (MINGW64)
                                      4 ;--------------------------------------------------------
                                      5 	.module vdp
                                      6 	.optsdcc -mz80
                                      7 	
                                      8 ;--------------------------------------------------------
                                      9 ; Public variables in this module
                                     10 ;--------------------------------------------------------
                                     11 	.globl _g_VDPInitilized
                                     12 	.globl _g_ScreenPatternHigh
                                     13 	.globl _g_ScreenColorHigh
                                     14 	.globl _g_ScreenLayoutHigh
                                     15 	.globl _g_ScreenPatternLow
                                     16 	.globl _g_ScreenColorLow
                                     17 	.globl _g_ScreenLayoutLow
                                     18 	.globl _g_VDP_Command
                                     19 	.globl _g_VDP_Data
                                     20 	.globl _g_VDP_REGSAV
                                     21 	.globl _g_SLTSL
                                     22 	.globl _g_GRPACY
                                     23 	.globl _g_GRPACX
                                     24 	.globl _g_LOGOPR
                                     25 	.globl _g_CMASK
                                     26 	.globl _g_CLOC
                                     27 	.globl _g_FNKSTR
                                     28 	.globl _g_ATRBYT
                                     29 	.globl _g_BDRCLR
                                     30 	.globl _g_BAKCLR
                                     31 	.globl _g_FORCLR
                                     32 	.globl _g_CSRX
                                     33 	.globl _g_CSRY
                                     34 	.globl _g_CLIKSW
                                     35 	.globl _g_MLTPAT
                                     36 	.globl _g_MLTATR
                                     37 	.globl _g_MLTCGP
                                     38 	.globl _g_MLTCOL
                                     39 	.globl _g_MLTNAM
                                     40 	.globl _g_GRPPAT
                                     41 	.globl _g_GRPATR
                                     42 	.globl _g_GRPCGP
                                     43 	.globl _g_GRPCOL
                                     44 	.globl _g_GRPNAM
                                     45 	.globl _g_T32PAT
                                     46 	.globl _g_T32ATR
                                     47 	.globl _g_T32CGP
                                     48 	.globl _g_T32COL
                                     49 	.globl _g_T32NAM
                                     50 	.globl _g_TXTPAT
                                     51 	.globl _g_TXTATR
                                     52 	.globl _g_TXTCGP
                                     53 	.globl _g_TXTCOL
                                     54 	.globl _g_TXTNAM
                                     55 	.globl _g_CLMLST
                                     56 	.globl _g_CRTCNT
                                     57 	.globl _g_LINLEN
                                     58 	.globl _g_LINL32
                                     59 	.globl _g_LINL40
                                     60 	.globl _g_CHAR_16
                                     61 	.globl _g_MSXMID
                                     62 	.globl _g_MSXVER
                                     63 	.globl _g_ROMVersion
                                     64 	.globl _g_BASRVN
                                     65 	.globl _g_VDP_DW
                                     66 	.globl _g_VDP_DR
                                     67 	.globl _g_CGTABL
                                     68 	.globl _g_SVFFFD
                                     69 	.globl _g_RG27SAV
                                     70 	.globl _g_RG26SAV
                                     71 	.globl _g_RG25SAV
                                     72 	.globl _g_SVFFF8
                                     73 	.globl _g_MINROM
                                     74 	.globl _g_RG23SAV
                                     75 	.globl _g_RG22SAV
                                     76 	.globl _g_RG21SAV
                                     77 	.globl _g_RG20SAV
                                     78 	.globl _g_RG19SAV
                                     79 	.globl _g_RG18SAV
                                     80 	.globl _g_RG17SAV
                                     81 	.globl _g_RG16SAV
                                     82 	.globl _g_RG15SAV
                                     83 	.globl _g_RG14SAV
                                     84 	.globl _g_RG13SAV
                                     85 	.globl _g_RG12SAV
                                     86 	.globl _g_RG11SAV
                                     87 	.globl _g_RG10SAV
                                     88 	.globl _g_RG09SAV
                                     89 	.globl _g_RG08SAV
                                     90 	.globl _g_PROCNM
                                     91 	.globl _g_SLTWRK
                                     92 	.globl _g_SLTATR
                                     93 	.globl _g_SLTTBL
                                     94 	.globl _g_EXPTBL
                                     95 	.globl _g_MNROM
                                     96 	.globl _g_DRWANG
                                     97 	.globl _g_DRWSCL
                                     98 	.globl _g_DRWFLG
                                     99 	.globl _g_GYPOS
                                    100 	.globl _g_GXPOS
                                    101 	.globl _g_BRDATR
                                    102 	.globl _g_CASPRV
                                    103 	.globl _g_OLDSCR
                                    104 	.globl _g_SCRMOD
                                    105 	.globl _g_FLBMEM
                                    106 	.globl _g_KANAMD
                                    107 	.globl _g_KANAST
                                    108 	.globl _g_CAPST
                                    109 	.globl _g_CSTYLE
                                    110 	.globl _g_CSRSW
                                    111 	.globl _g_INSFLG
                                    112 	.globl _g_ESCCNT
                                    113 	.globl _g_GRPHED
                                    114 	.globl _g_WINWID
                                    115 	.globl _g_LOWLIM
                                    116 	.globl _g_INTCNT
                                    117 	.globl _g_INTVAL
                                    118 	.globl _g_JIFFY
                                    119 	.globl _g_PADX
                                    120 	.globl _g_PADY
                                    121 	.globl _g_INTFLG
                                    122 	.globl _g_RTYCNT
                                    123 	.globl _g_TRPTBL
                                    124 	.globl _g_HIMEM
                                    125 	.globl _g_BOTTOM
                                    126 	.globl _g_PATWRK
                                    127 	.globl _g_LINWRK
                                    128 	.globl _g_KEYBUF
                                    129 	.globl _g_NEWKEY
                                    130 	.globl _g_OLDKEY
                                    131 	.globl _g_CLIKFL
                                    132 	.globl _g_ONGSBF
                                    133 	.globl _g_FNKFLG
                                    134 	.globl _g_FNKSWI
                                    135 	.globl _g_CODSAV
                                    136 	.globl _g_FSTPOS
                                    137 	.globl _g_LINTTB
                                    138 	.globl _g_BASROM
                                    139 	.globl _g_ENSTOP
                                    140 	.globl _g_VCBC
                                    141 	.globl _g_VCBB
                                    142 	.globl _g_VCBA
                                    143 	.globl _g_PLYCNT
                                    144 	.globl _g_MUSICF
                                    145 	.globl _g_QUEUEN
                                    146 	.globl _g_MCLPTR
                                    147 	.globl _g_MCLLEN
                                    148 	.globl _g_SAVVOL
                                    149 	.globl _g_VOICEN
                                    150 	.globl _g_SAVSP
                                    151 	.globl _g_PRSCNT
                                    152 	.globl _g_LSTMOD
                                    153 	.globl _g_LSTCOM
                                    154 	.globl _g_COMMSK
                                    155 	.globl _g_ESTBLS
                                    156 	.globl _g_FLAGS
                                    157 	.globl _g_ERRORS
                                    158 	.globl _g_DATCNT
                                    159 	.globl _g_DEVNUM
                                    160 	.globl _g_OLDINT
                                    161 	.globl _g_OLDSTT
                                    162 	.globl _g_MEXBIh
                                    163 	.globl _g_RSIQLN
                                    164 	.globl _g_RSFCB
                                    165 	.globl _g_TOCNT
                                    166 	.globl _g_RSTMP
                                    167 	.globl _g_YSAVE
                                    168 	.globl _g_XSAVE
                                    169 	.globl _g_NORUSE
                                    170 	.globl _g_MODE
                                    171 	.globl _g_ROMA
                                    172 	.globl _g_CHRCNT
                                    173 	.globl _g_EXBRSA
                                    174 	.globl _g_AVCSAV
                                    175 	.globl _g_ACPAGE
                                    176 	.globl _g_DPPAGE
                                    177 	.globl _g_RS2IQ
                                    178 	.globl _g_VOICCQ
                                    179 	.globl _g_VOICBQ
                                    180 	.globl _g_VOICAQ
                                    181 	.globl _g_QUEBAK
                                    182 	.globl _g_QUETAB
                                    183 	.globl _g_ASPCT2
                                    184 	.globl _g_ASPCT1
                                    185 	.globl _g_HEADER
                                    186 	.globl _g_HIGH
                                    187 	.globl _g_LOW
                                    188 	.globl _g_CS240
                                    189 	.globl _g_CS120
                                    190 	.globl _g_GETPNT
                                    191 	.globl _g_PUTPNT
                                    192 	.globl _g_REPCNT
                                    193 	.globl _g_SCNCNT
                                    194 	.globl _g_FRCNEW
                                    195 	.globl _g_QUEUES
                                    196 	.globl _g_MINUPD
                                    197 	.globl _g_MAXUPD
                                    198 	.globl _g_TRGFLG
                                    199 	.globl _g_STATFL
                                    200 	.globl _g_RG7SAV
                                    201 	.globl _g_RG6SAV
                                    202 	.globl _g_RG5SAV
                                    203 	.globl _g_RG4SAV
                                    204 	.globl _g_RG3SAV
                                    205 	.globl _g_RG2SAV
                                    206 	.globl _g_RG1SAV
                                    207 	.globl _g_RG0SAV
                                    208 	.globl _g_CNSDFG
                                    209 	.globl _g_USRTAB
                                    210 	.globl _g_CLPRIM
                                    211 	.globl _g_WRPRIM
                                    212 	.globl _g_RDPRIM
                                    213 	.globl _VDP_SetModeFlag
                                    214 	.globl _VDP_SetModeText1
                                    215 	.globl _VDP_SetModeMultiColor
                                    216 	.globl _VDP_SetModeGraphic1
                                    217 	.globl _VDP_SetModeGraphic2
                                    218 	.globl _VDP_ClearVRAM
                                    219 	.globl _VDP_WriteVRAM_16K
                                    220 	.globl _VDP_FillVRAM_16K
                                    221 	.globl _VDP_ReadVRAM_16K
                                    222 	.globl _VDP_Peek_16K
                                    223 	.globl _VDP_Poke_16K
                                    224 	.globl _VDP_SetModeGraphic4
                                    225 	.globl _VDP_SetModeGraphic7
                                    226 	.globl _VDP_ReadStatus
                                    227 	.globl _VDP_SetAdjustOffset
                                    228 	.globl _VDP_SetPalette
                                    229 	.globl _VDP_SetPaletteEntry
                                    230 	.globl _VDP_WriteVRAM_128K
                                    231 	.globl _VDP_FillVRAM_128K
                                    232 	.globl _VDP_ReadVRAM_128K
                                    233 	.globl _VDP_Poke_128K
                                    234 	.globl _VDP_Peek_128K
                                    235 	.globl _VDP_CommandWait
                                    236 	.globl _VPD_CommandSetupR32
                                    237 	.globl _VPD_CommandSetupR36
                                    238 	.globl _VPD_CommandWriteLoop
                                    239 	.globl _VDP_Initialize
                                    240 	.globl _VDP_SetMode
                                    241 	.globl _VDP_GetVersion
                                    242 	.globl _VDP_RegWrite
                                    243 	.globl _VDP_RegWriteBak
                                    244 	.globl _VDP_RegWriteBakMask
                                    245 	.globl _VDP_ReadDefaultStatus
                                    246 	.globl _VDP_SetPage
                                    247 	.globl _VDP_SetLayoutTable
                                    248 	.globl _VDP_SetColorTable
                                    249 	.globl _VDP_SetPatternTable
                                    250 	.globl _VDP_LoadPattern_GM2
                                    251 	.globl _VDP_LoadColor_GM2
                                    252 	.globl _VDP_WriteLayout_GM2
                                    253 	.globl _VDP_FillLayout_GM2
                                    254 ;--------------------------------------------------------
                                    255 ; special function registers
                                    256 ;--------------------------------------------------------
                         000000A8   257 _g_PortPrimarySlot	=	0x00a8
                         000000A9   258 _g_PortReadKeyboard	=	0x00a9
                         000000AA   259 _g_PortAccessKeyboard	=	0x00aa
                         000000AB   260 _g_PortControl	=	0x00ab
                         00000098   261 _g_VDP_DataPort	=	0x0098
                         00000099   262 _g_VDP_RegPort	=	0x0099
                         00000099   263 _g_VDP_AddrPort	=	0x0099
                         00000099   264 _g_VDP_StatPort	=	0x0099
                         0000009A   265 _g_VDP_PalPort	=	0x009a
                         0000009B   266 _g_VDP_IRegPort	=	0x009b
                         000000A0   267 _g_PSG_RegPort	=	0x00a0
                         000000A1   268 _g_PSG_DataPort	=	0x00a1
                         000000A2   269 _g_PSG_StatPort	=	0x00a2
                         00000010   270 _g_PSG_Ext_RegPort	=	0x0010
                         00000011   271 _g_PSG_Ext_DataPort	=	0x0011
                         00000012   272 _g_PSG_Ext_StatPort	=	0x0012
                         0000007C   273 _g_MSXMusic_IndexPort	=	0x007c
                         0000007D   274 _g_MSXMusic_DataPort	=	0x007d
                         000000C0   275 _g_MSXAudio_IndexPort	=	0x00c0
                         000000C1   276 _g_MSXAudio_DataPort	=	0x00c1
                         000000C2   277 _g_MSXAudio_IndexPort2	=	0x00c2
                         000000C3   278 _g_MSXAudio_DataPort2	=	0x00c3
                         000000B4   279 _g_RTC_AddrPort	=	0x00b4
                         000000B5   280 _g_RTC_DataPort	=	0x00b5
                                    281 ;--------------------------------------------------------
                                    282 ; ram data
                                    283 ;--------------------------------------------------------
                                    284 	.area _DATA
                         0000F3AE   285 _g_LINL40	=	0xf3ae
                         0000F3AF   286 _g_LINL32	=	0xf3af
                         0000F3B0   287 _g_LINLEN	=	0xf3b0
                         0000F3B1   288 _g_CRTCNT	=	0xf3b1
                         0000F3B2   289 _g_CLMLST	=	0xf3b2
                         0000F3B3   290 _g_TXTNAM	=	0xf3b3
                         0000F3B5   291 _g_TXTCOL	=	0xf3b5
                         0000F3B7   292 _g_TXTCGP	=	0xf3b7
                         0000F3B9   293 _g_TXTATR	=	0xf3b9
                         0000F3BB   294 _g_TXTPAT	=	0xf3bb
                         0000F3BD   295 _g_T32NAM	=	0xf3bd
                         0000F3BF   296 _g_T32COL	=	0xf3bf
                         0000F3C1   297 _g_T32CGP	=	0xf3c1
                         0000F3C3   298 _g_T32ATR	=	0xf3c3
                         0000F3C5   299 _g_T32PAT	=	0xf3c5
                         0000F3C7   300 _g_GRPNAM	=	0xf3c7
                         0000F3C9   301 _g_GRPCOL	=	0xf3c9
                         0000F3CB   302 _g_GRPCGP	=	0xf3cb
                         0000F3CD   303 _g_GRPATR	=	0xf3cd
                         0000F3CF   304 _g_GRPPAT	=	0xf3cf
                         0000F3D1   305 _g_MLTNAM	=	0xf3d1
                         0000F3D3   306 _g_MLTCOL	=	0xf3d3
                         0000F3D5   307 _g_MLTCGP	=	0xf3d5
                         0000F3D7   308 _g_MLTATR	=	0xf3d7
                         0000F3D9   309 _g_MLTPAT	=	0xf3d9
                         0000F3DB   310 _g_CLIKSW	=	0xf3db
                         0000F3DC   311 _g_CSRY	=	0xf3dc
                         0000F3DD   312 _g_CSRX	=	0xf3dd
                         0000F3E9   313 _g_FORCLR	=	0xf3e9
                         0000F3EA   314 _g_BAKCLR	=	0xf3ea
                         0000F3EB   315 _g_BDRCLR	=	0xf3eb
                         0000F3F2   316 _g_ATRBYT	=	0xf3f2
                         0000F87F   317 _g_FNKSTR	=	0xf87f
                         0000F92A   318 _g_CLOC	=	0xf92a
                         0000F92C   319 _g_CMASK	=	0xf92c
                         0000FB02   320 _g_LOGOPR	=	0xfb02
                         0000FCB7   321 _g_GRPACX	=	0xfcb7
                         0000FCB9   322 _g_GRPACY	=	0xfcb9
                         0000FFFF   323 _g_SLTSL	=	0xffff
    00000000                        324 _g_VDP_REGSAV::
    00000000                        325 	.ds 28
    0000001C                        326 _g_VDP_Data::
    0000001C                        327 	.ds 2
    0000001E                        328 _g_VDP_Command::
    0000001E                        329 	.ds 15
    0000002D                        330 _g_ScreenLayoutLow::
    0000002D                        331 	.ds 2
    0000002F                        332 _g_ScreenColorLow::
    0000002F                        333 	.ds 2
    00000031                        334 _g_ScreenPatternLow::
    00000031                        335 	.ds 2
    00000033                        336 _g_ScreenLayoutHigh::
    00000033                        337 	.ds 1
    00000034                        338 _g_ScreenColorHigh::
    00000034                        339 	.ds 1
    00000035                        340 _g_ScreenPatternHigh::
    00000035                        341 	.ds 1
                                    342 ;--------------------------------------------------------
                                    343 ; ram data
                                    344 ;--------------------------------------------------------
                                    345 	.area _INITIALIZED
    00000000                        346 _g_VDPInitilized::
    00000000                        347 	.ds 1
                                    348 ;--------------------------------------------------------
                                    349 ; absolute external ram data
                                    350 ;--------------------------------------------------------
                                    351 	.area _DABS (ABS)
                                    352 ;--------------------------------------------------------
                                    353 ; global & static initialisations
                                    354 ;--------------------------------------------------------
                                    355 	.area _HOME
                                    356 	.area _GSINIT
                                    357 	.area _GSFINAL
                                    358 	.area _GSINIT
                                    359 ;--------------------------------------------------------
                                    360 ; Home
                                    361 ;--------------------------------------------------------
                                    362 	.area _HOME
                                    363 	.area _HOME
                                    364 ;--------------------------------------------------------
                                    365 ; code
                                    366 ;--------------------------------------------------------
                                    367 	.area _CODE
                                    368 ;E:\Dropbox\FAUSTO\SVILUPPI\MSX\CODE\C\MSXgl\engine/src/vdp.c:165: void VDP_SetModeFlag(u8 flag)
                                    369 ;	---------------------------------
                                    370 ; Function VDP_SetModeFlag
                                    371 ; ---------------------------------
    00000000                        372 _VDP_SetModeFlag::
    00000000 5F               [ 4]  373 	ld	e, a
                                    374 ;E:\Dropbox\FAUSTO\SVILUPPI\MSX\CODE\C\MSXgl\engine/src/vdp.c:168: u8 reg1 = g_VDP_REGSAV[1];
    00000001 3Ar01r00         [13]  375 	ld	a, (#_g_VDP_REGSAV + 1)
                                    376 ;E:\Dropbox\FAUSTO\SVILUPPI\MSX\CODE\C\MSXgl\engine/src/vdp.c:169: reg1 &= 0b11100111;
    00000004 E6 E7            [ 7]  377 	and	a, #0xe7
    00000006 6F               [ 4]  378 	ld	l, a
                                    379 ;	spillPairReg hl
                                    380 ;	spillPairReg hl
                                    381 ;E:\Dropbox\FAUSTO\SVILUPPI\MSX\CODE\C\MSXgl\engine/src/vdp.c:170: if (flag & 0b00001)
    00000007 CB 43            [ 8]  382 	bit	0, e
    00000009 28 02            [12]  383 	jr	Z, 00102$
                                    384 ;E:\Dropbox\FAUSTO\SVILUPPI\MSX\CODE\C\MSXgl\engine/src/vdp.c:171: reg1 |= 0b00010000;
    0000000B CB E5            [ 8]  385 	set	4, l
    0000000D                        386 00102$:
                                    387 ;E:\Dropbox\FAUSTO\SVILUPPI\MSX\CODE\C\MSXgl\engine/src/vdp.c:172: if (flag & 0b00010)
    0000000D CB 4B            [ 8]  388 	bit	1, e
    0000000F 28 02            [12]  389 	jr	Z, 00104$
                                    390 ;E:\Dropbox\FAUSTO\SVILUPPI\MSX\CODE\C\MSXgl\engine/src/vdp.c:173: reg1 |= 0b00001000;
    00000011 CB DD            [ 8]  391 	set	3, l
    00000013                        392 00104$:
                                    393 ;E:\Dropbox\FAUSTO\SVILUPPI\MSX\CODE\C\MSXgl\engine/src/vdp.c:174: VDP_RegWriteBak(1, reg1);
    00000013 3E 01            [ 7]  394 	ld	a, #0x01
    00000015 CDrC9r04         [17]  395 	call	_VDP_RegWriteBak
                                    396 ;E:\Dropbox\FAUSTO\SVILUPPI\MSX\CODE\C\MSXgl\engine/src/vdp.c:177: u8 reg0 = g_VDP_REGSAV[0];
    00000018 3Ar00r00         [13]  397 	ld	a, (#_g_VDP_REGSAV + 0)
                                    398 ;E:\Dropbox\FAUSTO\SVILUPPI\MSX\CODE\C\MSXgl\engine/src/vdp.c:178: reg0 &= 0b11110001;
    0000001B E6 F1            [ 7]  399 	and	a, #0xf1
    0000001D 4F               [ 4]  400 	ld	c, a
                                    401 ;E:\Dropbox\FAUSTO\SVILUPPI\MSX\CODE\C\MSXgl\engine/src/vdp.c:179: flag >>= 1;
    0000001E 7B               [ 4]  402 	ld	a, e
    0000001F CB 3F            [ 8]  403 	srl	a
                                    404 ;E:\Dropbox\FAUSTO\SVILUPPI\MSX\CODE\C\MSXgl\engine/src/vdp.c:180: flag &= 0b00001110;
    00000021 E6 0E            [ 7]  405 	and	a, #0x0e
                                    406 ;E:\Dropbox\FAUSTO\SVILUPPI\MSX\CODE\C\MSXgl\engine/src/vdp.c:181: reg0 |= flag;
    00000023 B1               [ 4]  407 	or	a, c
    00000024 6F               [ 4]  408 	ld	l, a
                                    409 ;	spillPairReg hl
                                    410 ;	spillPairReg hl
                                    411 ;E:\Dropbox\FAUSTO\SVILUPPI\MSX\CODE\C\MSXgl\engine/src/vdp.c:182: VDP_RegWriteBak(0, reg0);
    00000025 AF               [ 4]  412 	xor	a, a
                                    413 ;E:\Dropbox\FAUSTO\SVILUPPI\MSX\CODE\C\MSXgl\engine/src/vdp.c:183: }
    00000026 C3rC9r04         [10]  414 	jp	_VDP_RegWriteBak
                         0000F380   415 _g_RDPRIM	=	0xf380
                         0000F385   416 _g_WRPRIM	=	0xf385
                         0000F38C   417 _g_CLPRIM	=	0xf38c
                         0000F39A   418 _g_USRTAB	=	0xf39a
                         0000F3DE   419 _g_CNSDFG	=	0xf3de
                         0000F3DF   420 _g_RG0SAV	=	0xf3df
                         0000F3E0   421 _g_RG1SAV	=	0xf3e0
                         0000F3E1   422 _g_RG2SAV	=	0xf3e1
                         0000F3E2   423 _g_RG3SAV	=	0xf3e2
                         0000F3E3   424 _g_RG4SAV	=	0xf3e3
                         0000F3E4   425 _g_RG5SAV	=	0xf3e4
                         0000F3E5   426 _g_RG6SAV	=	0xf3e5
                         0000F3E6   427 _g_RG7SAV	=	0xf3e6
                         0000F3E7   428 _g_STATFL	=	0xf3e7
                         0000F3E8   429 _g_TRGFLG	=	0xf3e8
                         0000F3EC   430 _g_MAXUPD	=	0xf3ec
                         0000F3EF   431 _g_MINUPD	=	0xf3ef
                         0000F3F3   432 _g_QUEUES	=	0xf3f3
                         0000F3F5   433 _g_FRCNEW	=	0xf3f5
                         0000F3F6   434 _g_SCNCNT	=	0xf3f6
                         0000F3F7   435 _g_REPCNT	=	0xf3f7
                         0000F3F8   436 _g_PUTPNT	=	0xf3f8
                         0000F3FA   437 _g_GETPNT	=	0xf3fa
                         0000F3FC   438 _g_CS120	=	0xf3fc
                         0000F401   439 _g_CS240	=	0xf401
                         0000F406   440 _g_LOW	=	0xf406
                         0000F408   441 _g_HIGH	=	0xf408
                         0000F40A   442 _g_HEADER	=	0xf40a
                         0000F40B   443 _g_ASPCT1	=	0xf40b
                         0000F40D   444 _g_ASPCT2	=	0xf40d
                         0000F959   445 _g_QUETAB	=	0xf959
                         0000F971   446 _g_QUEBAK	=	0xf971
                         0000F975   447 _g_VOICAQ	=	0xf975
                         0000F9F5   448 _g_VOICBQ	=	0xf9f5
                         0000FA75   449 _g_VOICCQ	=	0xfa75
                         0000FAF5   450 _g_RS2IQ	=	0xfaf5
                         0000FAF5   451 _g_DPPAGE	=	0xfaf5
                         0000FAF6   452 _g_ACPAGE	=	0xfaf6
                         0000FAF7   453 _g_AVCSAV	=	0xfaf7
                         0000FAF8   454 _g_EXBRSA	=	0xfaf8
                         0000FAF9   455 _g_CHRCNT	=	0xfaf9
                         0000FAFA   456 _g_ROMA	=	0xfafa
                         0000FAFC   457 _g_MODE	=	0xfafc
                         0000FAFD   458 _g_NORUSE	=	0xfafd
                         0000FAFE   459 _g_XSAVE	=	0xfafe
                         0000FB00   460 _g_YSAVE	=	0xfb00
                         0000FB03   461 _g_RSTMP	=	0xfb03
                         0000FB03   462 _g_TOCNT	=	0xfb03
                         0000FB04   463 _g_RSFCB	=	0xfb04
                         0000FB06   464 _g_RSIQLN	=	0xfb06
                         0000FB07   465 _g_MEXBIh	=	0xfb07
                         0000FB0C   466 _g_OLDSTT	=	0xfb0c
                         0000FB0C   467 _g_OLDINT	=	0xfb0c
                         0000FB16   468 _g_DEVNUM	=	0xfb16
                         0000FB17   469 _g_DATCNT	=	0xfb17
                         0000FB1A   470 _g_ERRORS	=	0xfb1a
                         0000FB1B   471 _g_FLAGS	=	0xfb1b
                         0000FB1C   472 _g_ESTBLS	=	0xfb1c
                         0000FB1D   473 _g_COMMSK	=	0xfb1d
                         0000FB1E   474 _g_LSTCOM	=	0xfb1e
                         0000FB1F   475 _g_LSTMOD	=	0xfb1f
                         0000FB35   476 _g_PRSCNT	=	0xfb35
                         0000FB36   477 _g_SAVSP	=	0xfb36
                         0000FB38   478 _g_VOICEN	=	0xfb38
                         0000FB39   479 _g_SAVVOL	=	0xfb39
                         0000FB3B   480 _g_MCLLEN	=	0xfb3b
                         0000FB3C   481 _g_MCLPTR	=	0xfb3c
                         0000FB3E   482 _g_QUEUEN	=	0xfb3e
                         0000FB3F   483 _g_MUSICF	=	0xfb3f
                         0000FB40   484 _g_PLYCNT	=	0xfb40
                         0000FB41   485 _g_VCBA	=	0xfb41
                         0000FB66   486 _g_VCBB	=	0xfb66
                         0000FB8B   487 _g_VCBC	=	0xfb8b
                         0000FBB0   488 _g_ENSTOP	=	0xfbb0
                         0000FBB1   489 _g_BASROM	=	0xfbb1
                         0000FBB2   490 _g_LINTTB	=	0xfbb2
                         0000FBCA   491 _g_FSTPOS	=	0xfbca
                         0000FBCC   492 _g_CODSAV	=	0xfbcc
                         0000FBCD   493 _g_FNKSWI	=	0xfbcd
                         0000FBCE   494 _g_FNKFLG	=	0xfbce
                         0000FBD8   495 _g_ONGSBF	=	0xfbd8
                         0000FBD9   496 _g_CLIKFL	=	0xfbd9
                         0000FBDA   497 _g_OLDKEY	=	0xfbda
                         0000FBE5   498 _g_NEWKEY	=	0xfbe5
                         0000FBF0   499 _g_KEYBUF	=	0xfbf0
                         0000FC18   500 _g_LINWRK	=	0xfc18
                         0000FC40   501 _g_PATWRK	=	0xfc40
                         0000FC48   502 _g_BOTTOM	=	0xfc48
                         0000FC4A   503 _g_HIMEM	=	0xfc4a
                         0000FC4C   504 _g_TRPTBL	=	0xfc4c
                         0000FC9A   505 _g_RTYCNT	=	0xfc9a
                         0000FC9B   506 _g_INTFLG	=	0xfc9b
                         0000FC9C   507 _g_PADY	=	0xfc9c
                         0000FC9D   508 _g_PADX	=	0xfc9d
                         0000FC9E   509 _g_JIFFY	=	0xfc9e
                         0000FCA0   510 _g_INTVAL	=	0xfca0
                         0000FCA2   511 _g_INTCNT	=	0xfca2
                         0000FCA4   512 _g_LOWLIM	=	0xfca4
                         0000FCA5   513 _g_WINWID	=	0xfca5
                         0000FCA6   514 _g_GRPHED	=	0xfca6
                         0000FCA7   515 _g_ESCCNT	=	0xfca7
                         0000FCA8   516 _g_INSFLG	=	0xfca8
                         0000FCA9   517 _g_CSRSW	=	0xfca9
                         0000FCAA   518 _g_CSTYLE	=	0xfcaa
                         0000FCAB   519 _g_CAPST	=	0xfcab
                         0000FCAC   520 _g_KANAST	=	0xfcac
                         0000FCAD   521 _g_KANAMD	=	0xfcad
                         0000FCAE   522 _g_FLBMEM	=	0xfcae
                         0000FCAF   523 _g_SCRMOD	=	0xfcaf
                         0000FCB0   524 _g_OLDSCR	=	0xfcb0
                         0000FCB1   525 _g_CASPRV	=	0xfcb1
                         0000FCB2   526 _g_BRDATR	=	0xfcb2
                         0000FCB3   527 _g_GXPOS	=	0xfcb3
                         0000FCB5   528 _g_GYPOS	=	0xfcb5
                         0000FCBB   529 _g_DRWFLG	=	0xfcbb
                         0000FCBC   530 _g_DRWSCL	=	0xfcbc
                         0000FCBD   531 _g_DRWANG	=	0xfcbd
                         0000FCC1   532 _g_MNROM	=	0xfcc1
                         0000FCC1   533 _g_EXPTBL	=	0xfcc1
                         0000FCC5   534 _g_SLTTBL	=	0xfcc5
                         0000FCC9   535 _g_SLTATR	=	0xfcc9
                         0000FD09   536 _g_SLTWRK	=	0xfd09
                         0000FD89   537 _g_PROCNM	=	0xfd89
                         0000FFE7   538 _g_RG08SAV	=	0xffe7
                         0000FFE8   539 _g_RG09SAV	=	0xffe8
                         0000FFE9   540 _g_RG10SAV	=	0xffe9
                         0000FFEA   541 _g_RG11SAV	=	0xffea
                         0000FFEB   542 _g_RG12SAV	=	0xffeb
                         0000FFEC   543 _g_RG13SAV	=	0xffec
                         0000FFED   544 _g_RG14SAV	=	0xffed
                         0000FFEE   545 _g_RG15SAV	=	0xffee
                         0000FFEF   546 _g_RG16SAV	=	0xffef
                         0000FFF0   547 _g_RG17SAV	=	0xfff0
                         0000FFF1   548 _g_RG18SAV	=	0xfff1
                         0000FFF2   549 _g_RG19SAV	=	0xfff2
                         0000FFF3   550 _g_RG20SAV	=	0xfff3
                         0000FFF4   551 _g_RG21SAV	=	0xfff4
                         0000FFF5   552 _g_RG22SAV	=	0xfff5
                         0000FFF6   553 _g_RG23SAV	=	0xfff6
                         0000FFF7   554 _g_MINROM	=	0xfff7
                         0000FFF8   555 _g_SVFFF8	=	0xfff8
                         0000FFFA   556 _g_RG25SAV	=	0xfffa
                         0000FFFB   557 _g_RG26SAV	=	0xfffb
                         0000FFFC   558 _g_RG27SAV	=	0xfffc
                         0000FFFD   559 _g_SVFFFD	=	0xfffd
                         00000004   560 _g_CGTABL	=	0x0004
                         00000006   561 _g_VDP_DR	=	0x0006
                         00000007   562 _g_VDP_DW	=	0x0007
                         0000002B   563 _g_BASRVN	=	0x002b
                         0000002B   564 _g_ROMVersion	=	0x002b
                         0000002D   565 _g_MSXVER	=	0x002d
                         0000002E   566 _g_MSXMID	=	0x002e
                         00000034   567 _g_CHAR_16	=	0x0034
                                    568 ;E:\Dropbox\FAUSTO\SVILUPPI\MSX\CODE\C\MSXgl\engine/src/vdp.c:188: void VDP_SetModeText1()
                                    569 ;	---------------------------------
                                    570 ; Function VDP_SetModeText1
                                    571 ; ---------------------------------
    00000029                        572 _VDP_SetModeText1::
                                    573 ;E:\Dropbox\FAUSTO\SVILUPPI\MSX\CODE\C\MSXgl\engine/src/vdp.c:190: VDP_SetModeFlag(VDP_T1_MODE);
    00000029 3E 01            [ 7]  574 	ld	a, #0x01
    0000002B CDr00r00         [17]  575 	call	_VDP_SetModeFlag
                                    576 ;E:\Dropbox\FAUSTO\SVILUPPI\MSX\CODE\C\MSXgl\engine/src/vdp.c:191: VDP_SetLayoutTable(VDP_T1_ADDR_NT);
    0000002E 11 00 00         [10]  577 	ld	de, #0x0000
    00000031 21 00 00         [10]  578 	ld	hl, #0x0000
    00000034 CDr0Cr05         [17]  579 	call	_VDP_SetLayoutTable
                                    580 ;E:\Dropbox\FAUSTO\SVILUPPI\MSX\CODE\C\MSXgl\engine/src/vdp.c:192: VDP_SetPatternTable(VDP_T1_ADDR_PT);
    00000037 11 00 08         [10]  581 	ld	de, #0x0800
    0000003A 21 00 00         [10]  582 	ld	hl, #0x0000
                                    583 ;E:\Dropbox\FAUSTO\SVILUPPI\MSX\CODE\C\MSXgl\engine/src/vdp.c:193: }
    0000003D C3r08r06         [10]  584 	jp	_VDP_SetPatternTable
                                    585 ;E:\Dropbox\FAUSTO\SVILUPPI\MSX\CODE\C\MSXgl\engine/src/vdp.c:199: void VDP_SetModeMultiColor()
                                    586 ;	---------------------------------
                                    587 ; Function VDP_SetModeMultiColor
                                    588 ; ---------------------------------
    00000040                        589 _VDP_SetModeMultiColor::
                                    590 ;E:\Dropbox\FAUSTO\SVILUPPI\MSX\CODE\C\MSXgl\engine/src/vdp.c:201: VDP_SetModeFlag(VDP_MC_MODE);
    00000040 3E 02            [ 7]  591 	ld	a, #0x02
    00000042 CDr00r00         [17]  592 	call	_VDP_SetModeFlag
                                    593 ;E:\Dropbox\FAUSTO\SVILUPPI\MSX\CODE\C\MSXgl\engine/src/vdp.c:202: VDP_SetLayoutTable(VDP_MC_ADDR_NT);
    00000045 11 00 08         [10]  594 	ld	de, #0x0800
    00000048 21 00 00         [10]  595 	ld	hl, #0x0000
    0000004B CDr0Cr05         [17]  596 	call	_VDP_SetLayoutTable
                                    597 ;E:\Dropbox\FAUSTO\SVILUPPI\MSX\CODE\C\MSXgl\engine/src/vdp.c:203: VDP_SetPatternTable(VDP_MC_ADDR_PT);
    0000004E 11 00 00         [10]  598 	ld	de, #0x0000
    00000051 21 00 00         [10]  599 	ld	hl, #0x0000
                                    600 ;E:\Dropbox\FAUSTO\SVILUPPI\MSX\CODE\C\MSXgl\engine/src/vdp.c:208: }
    00000054 C3r08r06         [10]  601 	jp	_VDP_SetPatternTable
                                    602 ;E:\Dropbox\FAUSTO\SVILUPPI\MSX\CODE\C\MSXgl\engine/src/vdp.c:214: void VDP_SetModeGraphic1()
                                    603 ;	---------------------------------
                                    604 ; Function VDP_SetModeGraphic1
                                    605 ; ---------------------------------
    00000057                        606 _VDP_SetModeGraphic1::
                                    607 ;E:\Dropbox\FAUSTO\SVILUPPI\MSX\CODE\C\MSXgl\engine/src/vdp.c:216: VDP_SetModeFlag(VDP_G1_MODE);
    00000057 AF               [ 4]  608 	xor	a, a
    00000058 CDr00r00         [17]  609 	call	_VDP_SetModeFlag
                                    610 ;E:\Dropbox\FAUSTO\SVILUPPI\MSX\CODE\C\MSXgl\engine/src/vdp.c:217: VDP_SetLayoutTable(VDP_G1_ADDR_NT);
    0000005B 11 00 18         [10]  611 	ld	de, #0x1800
    0000005E 21 00 00         [10]  612 	ld	hl, #0x0000
    00000061 CDr0Cr05         [17]  613 	call	_VDP_SetLayoutTable
                                    614 ;E:\Dropbox\FAUSTO\SVILUPPI\MSX\CODE\C\MSXgl\engine/src/vdp.c:218: VDP_SetColorTable(VDP_G1_ADDR_CT);
    00000064 11 00 20         [10]  615 	ld	de, #0x2000
    00000067 21 00 00         [10]  616 	ld	hl, #0x0000
    0000006A CDr6Fr05         [17]  617 	call	_VDP_SetColorTable
                                    618 ;E:\Dropbox\FAUSTO\SVILUPPI\MSX\CODE\C\MSXgl\engine/src/vdp.c:219: VDP_SetPatternTable(VDP_G1_ADDR_PT);
    0000006D 11 00 00         [10]  619 	ld	de, #0x0000
    00000070 21 00 00         [10]  620 	ld	hl, #0x0000
                                    621 ;E:\Dropbox\FAUSTO\SVILUPPI\MSX\CODE\C\MSXgl\engine/src/vdp.c:224: }
    00000073 C3r08r06         [10]  622 	jp	_VDP_SetPatternTable
                                    623 ;E:\Dropbox\FAUSTO\SVILUPPI\MSX\CODE\C\MSXgl\engine/src/vdp.c:230: void VDP_SetModeGraphic2()
                                    624 ;	---------------------------------
                                    625 ; Function VDP_SetModeGraphic2
                                    626 ; ---------------------------------
    00000076                        627 _VDP_SetModeGraphic2::
                                    628 ;E:\Dropbox\FAUSTO\SVILUPPI\MSX\CODE\C\MSXgl\engine/src/vdp.c:232: VDP_SetModeFlag(VDP_G2_MODE);
    00000076 3E 04            [ 7]  629 	ld	a, #0x04
    00000078 CDr00r00         [17]  630 	call	_VDP_SetModeFlag
                                    631 ;E:\Dropbox\FAUSTO\SVILUPPI\MSX\CODE\C\MSXgl\engine/src/vdp.c:233: VDP_SetLayoutTable(VDP_G2_ADDR_NT);
    0000007B 11 00 18         [10]  632 	ld	de, #0x1800
    0000007E 21 00 00         [10]  633 	ld	hl, #0x0000
    00000081 CDr0Cr05         [17]  634 	call	_VDP_SetLayoutTable
                                    635 ;E:\Dropbox\FAUSTO\SVILUPPI\MSX\CODE\C\MSXgl\engine/src/vdp.c:234: VDP_SetColorTable(VDP_G2_ADDR_CT);
    00000084 11 00 20         [10]  636 	ld	de, #0x2000
    00000087 21 00 00         [10]  637 	ld	hl, #0x0000
    0000008A CDr6Fr05         [17]  638 	call	_VDP_SetColorTable
                                    639 ;E:\Dropbox\FAUSTO\SVILUPPI\MSX\CODE\C\MSXgl\engine/src/vdp.c:235: VDP_SetPatternTable(VDP_G2_ADDR_PT);
    0000008D 11 00 00         [10]  640 	ld	de, #0x0000
    00000090 21 00 00         [10]  641 	ld	hl, #0x0000
                                    642 ;E:\Dropbox\FAUSTO\SVILUPPI\MSX\CODE\C\MSXgl\engine/src/vdp.c:240: }
    00000093 C3r08r06         [10]  643 	jp	_VDP_SetPatternTable
                                    644 ;E:\Dropbox\FAUSTO\SVILUPPI\MSX\CODE\C\MSXgl\engine/src/vdp.c:251: void VDP_ClearVRAM()
                                    645 ;	---------------------------------
                                    646 ; Function VDP_ClearVRAM
                                    647 ; ---------------------------------
    00000096                        648 _VDP_ClearVRAM::
                                    649 ;E:\Dropbox\FAUSTO\SVILUPPI\MSX\CODE\C\MSXgl\engine/src/vdp.c:256: VDP_FillVRAM(0, 0x0000, 0, 0x8000); // Clear VRAM by 32 KB step
    00000096 21 00 80         [10]  650 	ld	hl, #0x8000
    00000099 E5               [11]  651 	push	hl
    0000009A AF               [ 4]  652 	xor	a, a
    0000009B F5               [11]  653 	push	af
    0000009C 33               [ 6]  654 	inc	sp
    0000009D 11 00 00         [10]  655 	ld	de, #0x0000
    000000A0 AF               [ 4]  656 	xor	a, a
    000000A1 CDr2Br02         [17]  657 	call	_VDP_FillVRAM_128K
                                    658 ;E:\Dropbox\FAUSTO\SVILUPPI\MSX\CODE\C\MSXgl\engine/src/vdp.c:257: VDP_FillVRAM(0, 0x8000, 0, 0x8000); // Clear VRAM by 32 KB step
    000000A4 21 00 80         [10]  659 	ld	hl, #0x8000
    000000A7 E5               [11]  660 	push	hl
    000000A8 AF               [ 4]  661 	xor	a, a
    000000A9 F5               [11]  662 	push	af
    000000AA 33               [ 6]  663 	inc	sp
    000000AB 11 00 80         [10]  664 	ld	de, #0x8000
    000000AE AF               [ 4]  665 	xor	a, a
    000000AF CDr2Br02         [17]  666 	call	_VDP_FillVRAM_128K
                                    667 ;E:\Dropbox\FAUSTO\SVILUPPI\MSX\CODE\C\MSXgl\engine/src/vdp.c:258: VDP_FillVRAM(0, 0x0000, 1, 0x8000); // Clear VRAM by 32 KB step
    000000B2 21 00 80         [10]  668 	ld	hl, #0x8000
    000000B5 E5               [11]  669 	push	hl
    000000B6 3E 01            [ 7]  670 	ld	a, #0x01
    000000B8 F5               [11]  671 	push	af
    000000B9 33               [ 6]  672 	inc	sp
    000000BA 11 00 00         [10]  673 	ld	de, #0x0000
    000000BD AF               [ 4]  674 	xor	a, a
    000000BE CDr2Br02         [17]  675 	call	_VDP_FillVRAM_128K
                                    676 ;E:\Dropbox\FAUSTO\SVILUPPI\MSX\CODE\C\MSXgl\engine/src/vdp.c:259: VDP_FillVRAM(0, 0x8000, 1, 0x8000); // Clear VRAM by 32 KB step
    000000C1 21 00 80         [10]  677 	ld	hl, #0x8000
    000000C4 E5               [11]  678 	push	hl
    000000C5 3E 01            [ 7]  679 	ld	a, #0x01
    000000C7 F5               [11]  680 	push	af
    000000C8 33               [ 6]  681 	inc	sp
    000000C9 11 00 80         [10]  682 	ld	de, #0x8000
    000000CC AF               [ 4]  683 	xor	a, a
    000000CD CDr2Br02         [17]  684 	call	_VDP_FillVRAM_128K
                                    685 ;E:\Dropbox\FAUSTO\SVILUPPI\MSX\CODE\C\MSXgl\engine/src/vdp.c:261: }
    000000D0 C9               [10]  686 	ret
                                    687 ;E:\Dropbox\FAUSTO\SVILUPPI\MSX\CODE\C\MSXgl\engine/src/vdp.c:272: void VDP_WriteVRAM_16K(const u8* src, u16 dest, u16 count)
                                    688 ;	---------------------------------
                                    689 ; Function VDP_WriteVRAM_16K
                                    690 ; ---------------------------------
    000000D1                        691 _VDP_WriteVRAM_16K::
                                    692 ;E:\Dropbox\FAUSTO\SVILUPPI\MSX\CODE\C\MSXgl\engine/src/vdp.c:341: __endasm;
    000000D1 AF               [ 4]  693 	xor	a
    000000D2 D3 99            [11]  694 	out	(0x99), a
    000000D4 3E 8E            [ 7]  695 	ld	a, #(0x80 | 14)
    000000D6 D3 99            [11]  696 	out	(0x99), a
    000000D8 FD 21 02 00      [14]  697 	ld	iy, #2
    000000DC FD 39            [15]  698 	add	iy, sp
    000000DE 7B               [ 4]  699 	ld	a, e
    000000DF F3               [ 4]  700 	di
    000000E0 D3 99            [11]  701 	out	(0x99), a
    000000E2 7A               [ 4]  702 	ld	a, d
    000000E3 E6 3F            [ 7]  703 	and	a, #0x3F
    000000E5 F6 40            [ 7]  704 	or	a, #0x40
    000000E7 FB               [ 4]  705 	ei
    000000E8 D3 99            [11]  706 	out	(0x99), a
    000000EA 0E 98            [ 7]  707 	ld	c, #0x98
    000000EC FD 7E 00         [19]  708 	ld	a, 0(iy)
    000000EF A7               [ 4]  709 	and	a
    000000F0 CArF6r00         [10]  710 	jp	z, wrt16_loop_init
    000000F3 47               [ 4]  711 	ld	b, a
    000000F4 ED B3            [21]  712 	otir
    000000F6                        713 	 wrt16_loop_init:
    000000F6 FD 7E 01         [19]  714 	ld	a, 1(iy)
    000000F9                        715 	 wrt16_loop_start:
    000000F9 A7               [ 4]  716 	and	a
    000000FA CAr05r01         [10]  717 	jp	z, wrt16_loop_end
    000000FD 06 00            [ 7]  718 	ld	b, #0
    000000FF ED B3            [21]  719 	otir
    00000101 3D               [ 4]  720 	dec	a
    00000102 C3rF9r00         [10]  721 	jp	wrt16_loop_start
    00000105                        722 	 wrt16_loop_end:
                                    723 ;E:\Dropbox\FAUSTO\SVILUPPI\MSX\CODE\C\MSXgl\engine/src/vdp.c:342: }
    00000105 E1               [10]  724 	pop	hl
    00000106 F1               [10]  725 	pop	af
    00000107 E9               [ 4]  726 	jp	(hl)
                                    727 ;E:\Dropbox\FAUSTO\SVILUPPI\MSX\CODE\C\MSXgl\engine/src/vdp.c:351: void VDP_FillVRAM_16K(u8 value, u16 dest, u16 count) __NAKED // Stack: 4 bytes
                                    728 ;	---------------------------------
                                    729 ; Function VDP_FillVRAM_16K
                                    730 ; ---------------------------------
    00000108                        731 _VDP_FillVRAM_16K::
                                    732 ;E:\Dropbox\FAUSTO\SVILUPPI\MSX\CODE\C\MSXgl\engine/src/vdp.c:402: __endasm;
    00000108 4F               [ 4]  733 	ld	c, a
    00000109 AF               [ 4]  734 	xor	a
    0000010A D3 99            [11]  735 	out	(0x99), a
    0000010C 3E 8E            [ 7]  736 	ld	a, #(0x80 | 14)
    0000010E D3 99            [11]  737 	out	(0x99), a
    00000110 7B               [ 4]  738 	ld	a, e
    00000111 F3               [ 4]  739 	di
    00000112 D3 99            [11]  740 	out	(0x99), a
    00000114 7A               [ 4]  741 	ld	a, d
    00000115 E6 3F            [ 7]  742 	and	a, #0x3F
    00000117 F6 40            [ 7]  743 	or	a, #0x40
    00000119 D3 99            [11]  744 	out	(0x99), a
    0000011B FD E1            [14]  745 	pop	iy
    0000011D D1               [10]  746 	pop	de
    0000011E 79               [ 4]  747 	ld	a, c
    0000011F 43               [ 4]  748 	ld	b, e
    00000120 1B               [ 6]  749 	dec	de
    00000121 14               [ 4]  750 	inc	d
    00000122                        751 	 fll16_loop_start:
    00000122 D3 98            [11]  752 	out	(0x98), a
    00000124 10 FC            [13]  753 	djnz	fll16_loop_start
    00000126 15               [ 4]  754 	dec	d
    00000127 C2r22r01         [10]  755 	jp	nz, fll16_loop_start
    0000012A                        756 	 fll16_loop_end:
    0000012A FB               [ 4]  757 	ei
    0000012B FD E9            [ 8]  758 	jp	(iy)
                                    759 ;E:\Dropbox\FAUSTO\SVILUPPI\MSX\CODE\C\MSXgl\engine/src/vdp.c:403: }
                                    760 ;E:\Dropbox\FAUSTO\SVILUPPI\MSX\CODE\C\MSXgl\engine/src/vdp.c:516: void VDP_ReadVRAM_16K(u16 src, u8* dest, u16 count)
                                    761 ;	---------------------------------
                                    762 ; Function VDP_ReadVRAM_16K
                                    763 ; ---------------------------------
    0000012D                        764 _VDP_ReadVRAM_16K::
                                    765 ;E:\Dropbox\FAUSTO\SVILUPPI\MSX\CODE\C\MSXgl\engine/src/vdp.c:586: __endasm;
    0000012D AF               [ 4]  766 	xor	a
    0000012E D3 99            [11]  767 	out	(0x99), a
    00000130 3E 8E            [ 7]  768 	ld	a, #(0x80 | 14)
    00000132 D3 99            [11]  769 	out	(0x99), a
    00000134 FD 21 02 00      [14]  770 	ld	iy, #2
    00000138 FD 39            [15]  771 	add	iy, sp
    0000013A 7D               [ 4]  772 	ld	a, l
    0000013B F3               [ 4]  773 	di
    0000013C D3 99            [11]  774 	out	(0x99), a
    0000013E 7C               [ 4]  775 	ld	a, h
    0000013F E6 3F            [ 7]  776 	and	a, #0x3F
    00000141 FB               [ 4]  777 	ei
    00000142 D3 99            [11]  778 	out	(0x99), a
    00000144 EB               [ 4]  779 	ex	de, hl
    00000145 0E 98            [ 7]  780 	ld	c, #0x98
    00000147 FD 7E 00         [19]  781 	ld	a, 0(iy)
    0000014A A7               [ 4]  782 	and	a
    0000014B CAr51r01         [10]  783 	jp	z, rd16_loop_init
    0000014E 47               [ 4]  784 	ld	b, a
    0000014F ED B2            [21]  785 	inir
    00000151                        786 	 rd16_loop_init:
    00000151 FD 7E 01         [19]  787 	ld	a, 1(iy)
    00000154                        788 	 rd16_loop_start:
    00000154 A7               [ 4]  789 	and	a
    00000155 CAr60r01         [10]  790 	jp	z, rd16_loop_end
    00000158 06 00            [ 7]  791 	ld	b, #0
    0000015A ED B2            [21]  792 	inir
    0000015C 3D               [ 4]  793 	dec	a
    0000015D C3r54r01         [10]  794 	jp	rd16_loop_start
    00000160                        795 	 rd16_loop_end:
                                    796 ;E:\Dropbox\FAUSTO\SVILUPPI\MSX\CODE\C\MSXgl\engine/src/vdp.c:587: }
    00000160 E1               [10]  797 	pop	hl
    00000161 F1               [10]  798 	pop	af
    00000162 E9               [ 4]  799 	jp	(hl)
                                    800 ;E:\Dropbox\FAUSTO\SVILUPPI\MSX\CODE\C\MSXgl\engine/src/vdp.c:597: u8 VDP_Peek_16K(u16 dest) __NAKED __PRESERVES(b, c, d, e, iyl, iyh)
                                    801 ;	---------------------------------
                                    802 ; Function VDP_Peek_16K
                                    803 ; ---------------------------------
    00000163                        804 _VDP_Peek_16K::
                                    805 ;E:\Dropbox\FAUSTO\SVILUPPI\MSX\CODE\C\MSXgl\engine/src/vdp.c:633: __endasm;
    00000163 AF               [ 4]  806 	xor	a
    00000164 D3 99            [11]  807 	out	(0x99), a
    00000166 3E 8E            [ 7]  808 	ld	a, #(0x80 | 14)
    00000168 D3 99            [11]  809 	out	(0x99), a
    0000016A 7D               [ 4]  810 	ld	a, l
    0000016B F3               [ 4]  811 	di
    0000016C D3 99            [11]  812 	out	(0x99), a
    0000016E 7C               [ 4]  813 	ld	a, h
    0000016F E6 3F            [ 7]  814 	and	a, #0x3F
    00000171 D3 99            [11]  815 	out	(0x99), a
    00000173 00               [ 4]  816 	nop
    00000174 FB               [ 4]  817 	ei
    00000175 DB 98            [11]  818 	in	a, (0x98)
    00000177 C9               [10]  819 	ret
                                    820 ;E:\Dropbox\FAUSTO\SVILUPPI\MSX\CODE\C\MSXgl\engine/src/vdp.c:634: }
                                    821 ;E:\Dropbox\FAUSTO\SVILUPPI\MSX\CODE\C\MSXgl\engine/src/vdp.c:642: void VDP_Poke_16K(u8 val, u16 dest) __PRESERVES(c, h, l, iyl, iyh)
                                    822 ;	---------------------------------
                                    823 ; Function VDP_Poke_16K
                                    824 ; ---------------------------------
    00000178                        825 _VDP_Poke_16K::
                                    826 ;E:\Dropbox\FAUSTO\SVILUPPI\MSX\CODE\C\MSXgl\engine/src/vdp.c:679: __endasm;
    00000178 47               [ 4]  827 	ld	b, a
    00000179 AF               [ 4]  828 	xor	a
    0000017A D3 99            [11]  829 	out	(0x99), a
    0000017C 3E 8E            [ 7]  830 	ld	a, #(0x80 | 14)
    0000017E D3 99            [11]  831 	out	(0x99), a
    00000180 7B               [ 4]  832 	ld	a, e
    00000181 F3               [ 4]  833 	di
    00000182 D3 99            [11]  834 	out	(0x99), a
    00000184 7A               [ 4]  835 	ld	a, d
    00000185 E6 3F            [ 7]  836 	and	a, #0x3F
    00000187 F6 40            [ 7]  837 	or	a, #0x40
    00000189 D3 99            [11]  838 	out	(0x99), a
    0000018B 78               [ 4]  839 	ld	a, b
    0000018C FB               [ 4]  840 	ei
    0000018D D3 98            [11]  841 	out	(0x98), a
                                    842 ;E:\Dropbox\FAUSTO\SVILUPPI\MSX\CODE\C\MSXgl\engine/src/vdp.c:680: }
    0000018F C9               [10]  843 	ret
                                    844 ;E:\Dropbox\FAUSTO\SVILUPPI\MSX\CODE\C\MSXgl\engine/src/vdp.c:806: void VDP_SetModeGraphic4()
                                    845 ;	---------------------------------
                                    846 ; Function VDP_SetModeGraphic4
                                    847 ; ---------------------------------
    00000190                        848 _VDP_SetModeGraphic4::
                                    849 ;E:\Dropbox\FAUSTO\SVILUPPI\MSX\CODE\C\MSXgl\engine/src/vdp.c:808: VDP_SetModeFlag(VDP_G4_MODE);
    00000190 3E 0C            [ 7]  850 	ld	a, #0x0c
    00000192 CDr00r00         [17]  851 	call	_VDP_SetModeFlag
                                    852 ;E:\Dropbox\FAUSTO\SVILUPPI\MSX\CODE\C\MSXgl\engine/src/vdp.c:809: VDP_SetLayoutTable(VDP_G4_ADDR_NT);
    00000195 11 00 00         [10]  853 	ld	de, #0x0000
    00000198 21 00 00         [10]  854 	ld	hl, #0x0000
                                    855 ;E:\Dropbox\FAUSTO\SVILUPPI\MSX\CODE\C\MSXgl\engine/src/vdp.c:814: }
    0000019B C3r0Cr05         [10]  856 	jp	_VDP_SetLayoutTable
                                    857 ;E:\Dropbox\FAUSTO\SVILUPPI\MSX\CODE\C\MSXgl\engine/src/vdp.c:848: void VDP_SetModeGraphic7()
                                    858 ;	---------------------------------
                                    859 ; Function VDP_SetModeGraphic7
                                    860 ; ---------------------------------
    0000019E                        861 _VDP_SetModeGraphic7::
                                    862 ;E:\Dropbox\FAUSTO\SVILUPPI\MSX\CODE\C\MSXgl\engine/src/vdp.c:850: VDP_SetModeFlag(VDP_G7_MODE);
    0000019E 3E 1C            [ 7]  863 	ld	a, #0x1c
    000001A0 CDr00r00         [17]  864 	call	_VDP_SetModeFlag
                                    865 ;E:\Dropbox\FAUSTO\SVILUPPI\MSX\CODE\C\MSXgl\engine/src/vdp.c:851: VDP_SetLayoutTable(VDP_G7_ADDR_NT);
    000001A3 11 00 00         [10]  866 	ld	de, #0x0000
    000001A6 21 00 00         [10]  867 	ld	hl, #0x0000
                                    868 ;E:\Dropbox\FAUSTO\SVILUPPI\MSX\CODE\C\MSXgl\engine/src/vdp.c:856: }
    000001A9 C3r0Cr05         [10]  869 	jp	_VDP_SetLayoutTable
                                    870 ;E:\Dropbox\FAUSTO\SVILUPPI\MSX\CODE\C\MSXgl\engine/src/vdp.c:870: u8 VDP_ReadStatus(u8 stat) __NAKED __PRESERVES(b, c, d, e, h, iyl, iyh)
                                    871 ;	---------------------------------
                                    872 ; Function VDP_ReadStatus
                                    873 ; ---------------------------------
    000001AC                        874 _VDP_ReadStatus::
                                    875 ;E:\Dropbox\FAUSTO\SVILUPPI\MSX\CODE\C\MSXgl\engine/src/vdp.c:898: __endasm;
    000001AC F3               [ 4]  876 	di
    000001AD D3 99            [11]  877 	out	(0x99), a
    000001AF 3E 8F            [ 7]  878 	ld	a, #(0x80 | 15)
    000001B1 D3 99            [11]  879 	out	(0x99), a
    000001B3 DB 99            [11]  880 	in	a, (0x99)
    000001B5 6F               [ 4]  881 	ld	l, a
    000001B6 AF               [ 4]  882 	xor	a
    000001B7 D3 99            [11]  883 	out	(0x99), a
    000001B9 3E 8F            [ 7]  884 	ld	a, #(0x80 | 15)
    000001BB FB               [ 4]  885 	ei
    000001BC D3 99            [11]  886 	out	(0x99),a
    000001BE 7D               [ 4]  887 	ld	a, l
    000001BF C9               [10]  888 	ret
                                    889 ;E:\Dropbox\FAUSTO\SVILUPPI\MSX\CODE\C\MSXgl\engine/src/vdp.c:899: }
                                    890 ;E:\Dropbox\FAUSTO\SVILUPPI\MSX\CODE\C\MSXgl\engine/src/vdp.c:903: void VDP_SetAdjustOffset(u8 offset)
                                    891 ;	---------------------------------
                                    892 ; Function VDP_SetAdjustOffset
                                    893 ; ---------------------------------
    000001C0                        894 _VDP_SetAdjustOffset::
    000001C0 4F               [ 4]  895 	ld	c, a
                                    896 ;E:\Dropbox\FAUSTO\SVILUPPI\MSX\CODE\C\MSXgl\engine/src/vdp.c:906: VDP_CommandWait(); // @todo Check if it's really needed. Cf. https://www.msx.org/wiki/VDP_Display_Registers#Control_Register_18
    000001C1 CDrFCr02         [17]  897 	call	_VDP_CommandWait
                                    898 ;E:\Dropbox\FAUSTO\SVILUPPI\MSX\CODE\C\MSXgl\engine/src/vdp.c:908: VDP_RegWrite(18, offset);
    000001C4 69               [ 4]  899 	ld	l, c
                                    900 ;	spillPairReg hl
                                    901 ;	spillPairReg hl
    000001C5 3E 12            [ 7]  902 	ld	a, #0x12
                                    903 ;E:\Dropbox\FAUSTO\SVILUPPI\MSX\CODE\C\MSXgl\engine/src/vdp.c:909: }
    000001C7 C3rBDr04         [10]  904 	jp	_VDP_RegWrite
                                    905 ;E:\Dropbox\FAUSTO\SVILUPPI\MSX\CODE\C\MSXgl\engine/src/vdp.c:915: void VDP_SetPalette(const u8* pal) __FASTCALL __PRESERVES(d, e, iyl, iyh)
                                    906 ;	---------------------------------
                                    907 ; Function VDP_SetPalette
                                    908 ; ---------------------------------
    000001CA                        909 _VDP_SetPalette::
                                    910 ;E:\Dropbox\FAUSTO\SVILUPPI\MSX\CODE\C\MSXgl\engine/src/vdp.c:939: __endasm;
    000001CA AF               [ 4]  911 	xor	a
    000001CB D3 99            [11]  912 	out	(0x99), a
    000001CD 3E 90            [ 7]  913 	ld	a, #(0x80 | 16)
    000001CF FB               [ 4]  914 	ei
    000001D0 D3 99            [11]  915 	out	(0x99), a
    000001D2 0E 9A            [ 7]  916 	ld	c, #0x9A
    000001D4 06 20            [ 7]  917 	ld	b, #32
    000001D6 ED B3            [21]  918 	otir
                                    919 ;E:\Dropbox\FAUSTO\SVILUPPI\MSX\CODE\C\MSXgl\engine/src/vdp.c:940: }
    000001D8 C9               [10]  920 	ret
                                    921 ;E:\Dropbox\FAUSTO\SVILUPPI\MSX\CODE\C\MSXgl\engine/src/vdp.c:966: void VDP_SetPaletteEntry(u8 index, u16 color)
                                    922 ;	---------------------------------
                                    923 ; Function VDP_SetPaletteEntry
                                    924 ; ---------------------------------
    000001D9                        925 _VDP_SetPaletteEntry::
                                    926 ;E:\Dropbox\FAUSTO\SVILUPPI\MSX\CODE\C\MSXgl\engine/src/vdp.c:980: __endasm;
    000001D9 F3               [ 4]  927 	di
    000001DA D3 99            [11]  928 	out	(_g_VDP_RegPort), a
    000001DC 3E 90            [ 7]  929 	ld	a, #(0x80 | 16)
    000001DE D3 99            [11]  930 	out	(_g_VDP_RegPort), a
    000001E0 7B               [ 4]  931 	ld	a, e
    000001E1 D3 9A            [11]  932 	out	(_g_VDP_PalPort), a
    000001E3 7A               [ 4]  933 	ld	a, d
    000001E4 FB               [ 4]  934 	ei
    000001E5 D3 9A            [11]  935 	out	(_g_VDP_PalPort), a
                                    936 ;E:\Dropbox\FAUSTO\SVILUPPI\MSX\CODE\C\MSXgl\engine/src/vdp.c:981: }
    000001E7 C9               [10]  937 	ret
                                    938 ;E:\Dropbox\FAUSTO\SVILUPPI\MSX\CODE\C\MSXgl\engine/src/vdp.c:999: void VDP_WriteVRAM_128K(const u8* src, u16 destLow, u8 destHigh, u16 count)
                                    939 ;	---------------------------------
                                    940 ; Function VDP_WriteVRAM_128K
                                    941 ; ---------------------------------
    000001E8                        942 _VDP_WriteVRAM_128K::
                                    943 ;E:\Dropbox\FAUSTO\SVILUPPI\MSX\CODE\C\MSXgl\engine/src/vdp.c:1051: __endasm;
    000001E8 FD 21 02 00      [14]  944 	ld	iy, #2
    000001EC FD 39            [15]  945 	add	iy, sp
    000001EE FD 7E 00         [19]  946 	ld	a, 0(iy)
    000001F1 87               [ 4]  947 	add	a, a
    000001F2 87               [ 4]  948 	add	a, a
    000001F3 4F               [ 4]  949 	ld	c, a
    000001F4 7A               [ 4]  950 	ld	a, d
    000001F5 07               [ 4]  951 	rlca
    000001F6 07               [ 4]  952 	rlca
    000001F7 E6 03            [ 7]  953 	and	a, #0x03
    000001F9 81               [ 4]  954 	add	a, c
    000001FA F3               [ 4]  955 	di
    000001FB D3 99            [11]  956 	out	(0x99), a
    000001FD 3E 8E            [ 7]  957 	ld	a, #(0x80 | 14)
    000001FF D3 99            [11]  958 	out	(0x99), a
    00000201 7B               [ 4]  959 	ld	a, e
    00000202 D3 99            [11]  960 	out	(0x99), a
    00000204 7A               [ 4]  961 	ld	a, d
    00000205 E6 3F            [ 7]  962 	and	a, #0x3F
    00000207 F6 40            [ 7]  963 	or	a, #0x40
    00000209 FB               [ 4]  964 	ei
    0000020A D3 99            [11]  965 	out	(0x99), a
    0000020C 0E 98            [ 7]  966 	ld	c, #0x98
    0000020E FD 7E 01         [19]  967 	ld	a, 1(iy)
    00000211 A7               [ 4]  968 	and	a
    00000212 CAr18r02         [10]  969 	jp	z, wrt_loop_init
    00000215 47               [ 4]  970 	ld	b, a
    00000216 ED B3            [21]  971 	otir
    00000218                        972 	 wrt_loop_init:
    00000218 FD 7E 02         [19]  973 	ld	a, 2(iy)
    0000021B                        974 	 wrt_loop_start:
    0000021B A7               [ 4]  975 	and	a
    0000021C CAr27r02         [10]  976 	jp	z, wrt_loop_end
    0000021F 06 00            [ 7]  977 	ld	b, #0
    00000221 ED B3            [21]  978 	otir
    00000223 3D               [ 4]  979 	dec	a
    00000224 C3r1Br02         [10]  980 	jp	wrt_loop_start
    00000227                        981 	 wrt_loop_end:
                                    982 ;E:\Dropbox\FAUSTO\SVILUPPI\MSX\CODE\C\MSXgl\engine/src/vdp.c:1052: }
    00000227 E1               [10]  983 	pop	hl
    00000228 F1               [10]  984 	pop	af
    00000229 33               [ 6]  985 	inc	sp
    0000022A E9               [ 4]  986 	jp	(hl)
                                    987 ;E:\Dropbox\FAUSTO\SVILUPPI\MSX\CODE\C\MSXgl\engine/src/vdp.c:1062: void VDP_FillVRAM_128K(u8 value, u16 destLow, u8 destHigh, u16 count)
                                    988 ;	---------------------------------
                                    989 ; Function VDP_FillVRAM_128K
                                    990 ; ---------------------------------
    0000022B                        991 _VDP_FillVRAM_128K::
                                    992 ;E:\Dropbox\FAUSTO\SVILUPPI\MSX\CODE\C\MSXgl\engine/src/vdp.c:1110: __endasm;
    0000022B 47               [ 4]  993 	ld	b, a
    0000022C FD 21 02 00      [14]  994 	ld	iy, #2
    00000230 FD 39            [15]  995 	add	iy, sp
    00000232 FD 7E 00         [19]  996 	ld	a, 0(iy)
    00000235 87               [ 4]  997 	add	a, a
    00000236 87               [ 4]  998 	add	a, a
    00000237 4F               [ 4]  999 	ld	c, a
    00000238 7A               [ 4] 1000 	ld	a, d
    00000239 07               [ 4] 1001 	rlca
    0000023A 07               [ 4] 1002 	rlca
    0000023B E6 03            [ 7] 1003 	and	a, #0x03
    0000023D 81               [ 4] 1004 	add	a, c
    0000023E F3               [ 4] 1005 	di
    0000023F D3 99            [11] 1006 	out	(0x99), a
    00000241 3E 8E            [ 7] 1007 	ld	a, #(0x80 | 14)
    00000243 D3 99            [11] 1008 	out	(0x99), a
    00000245 7B               [ 4] 1009 	ld	a, e
    00000246 D3 99            [11] 1010 	out	(0x99), a
    00000248 7A               [ 4] 1011 	ld	a, d
    00000249 E6 3F            [ 7] 1012 	and	a, #0x3F
    0000024B F6 40            [ 7] 1013 	or	a, #0x40
    0000024D FB               [ 4] 1014 	ei
    0000024E D3 99            [11] 1015 	out	(0x99), a
    00000250 FD 5E 01         [19] 1016 	ld	e, 1(iy)
    00000253 FD 56 02         [19] 1017 	ld	d, 2(iy)
    00000256 78               [ 4] 1018 	ld	a, b
    00000257 43               [ 4] 1019 	ld	b, e
    00000258 1B               [ 6] 1020 	dec	de
    00000259 14               [ 4] 1021 	inc	d
    0000025A                       1022 	 fll_loop_start:
    0000025A D3 98            [11] 1023 	out	(0x98), a
    0000025C 10 FC            [13] 1024 	djnz	fll_loop_start
    0000025E 15               [ 4] 1025 	dec	d
    0000025F C2r5Ar02         [10] 1026 	jp	nz, fll_loop_start
    00000262                       1027 	 fll_loop_end:
                                   1028 ;E:\Dropbox\FAUSTO\SVILUPPI\MSX\CODE\C\MSXgl\engine/src/vdp.c:1111: }
    00000262 E1               [10] 1029 	pop	hl
    00000263 F1               [10] 1030 	pop	af
    00000264 33               [ 6] 1031 	inc	sp
    00000265 E9               [ 4] 1032 	jp	(hl)
                                   1033 ;E:\Dropbox\FAUSTO\SVILUPPI\MSX\CODE\C\MSXgl\engine/src/vdp.c:1119: void VDP_ReadVRAM_128K(u16 srcLow, u8 srcHigh, u8* dest, u16 count)
                                   1034 ;	---------------------------------
                                   1035 ; Function VDP_ReadVRAM_128K
                                   1036 ; ---------------------------------
    00000266                       1037 _VDP_ReadVRAM_128K::
                                   1038 ;E:\Dropbox\FAUSTO\SVILUPPI\MSX\CODE\C\MSXgl\engine/src/vdp.c:1172: __endasm;
    00000266 FD 21 02 00      [14] 1039 	ld	iy, #2
    0000026A FD 39            [15] 1040 	add	iy, sp
    0000026C FD 7E 00         [19] 1041 	ld	a, 0(iy)
    0000026F 87               [ 4] 1042 	add	a, a
    00000270 87               [ 4] 1043 	add	a, a
    00000271 4F               [ 4] 1044 	ld	c, a
    00000272 7C               [ 4] 1045 	ld	a, h
    00000273 07               [ 4] 1046 	rlca
    00000274 07               [ 4] 1047 	rlca
    00000275 E6 03            [ 7] 1048 	and	a, #0x03
    00000277 81               [ 4] 1049 	add	a, c
    00000278 F3               [ 4] 1050 	di
    00000279 D3 99            [11] 1051 	out	(0x99), a
    0000027B 3E 8E            [ 7] 1052 	ld	a, #(0x80 | 14)
    0000027D D3 99            [11] 1053 	out	(0x99), a
    0000027F 7D               [ 4] 1054 	ld	a, l
    00000280 D3 99            [11] 1055 	out	(0x99), a
    00000282 7C               [ 4] 1056 	ld	a, h
    00000283 E6 3F            [ 7] 1057 	and	a, #0x3F
    00000285 FB               [ 4] 1058 	ei
    00000286 D3 99            [11] 1059 	out	(0x99), a
    00000288 FD 6E 01         [19] 1060 	ld	l, 1(iy)
    0000028B FD 66 02         [19] 1061 	ld	h, 2(iy)
    0000028E 0E 98            [ 7] 1062 	ld	c, #0x98
    00000290 FD 7E 03         [19] 1063 	ld	a, 3(iy)
    00000293 A7               [ 4] 1064 	and	a
    00000294 CAr9Ar02         [10] 1065 	jp	z, rd_loop_init
    00000297 47               [ 4] 1066 	ld	b, a
    00000298 ED B2            [21] 1067 	inir
    0000029A                       1068 	 rd_loop_init:
    0000029A FD 7E 04         [19] 1069 	ld	a, 4(iy)
    0000029D                       1070 	 rd_loop_start:
    0000029D A7               [ 4] 1071 	and	a
    0000029E CArA9r02         [10] 1072 	jp	z, rd_loop_end
    000002A1 06 00            [ 7] 1073 	ld	b, #0
    000002A3 ED B2            [21] 1074 	inir
    000002A5 3D               [ 4] 1075 	dec	a
    000002A6 C3r9Dr02         [10] 1076 	jp	rd_loop_start
    000002A9                       1077 	 rd_loop_end:
                                   1078 ;E:\Dropbox\FAUSTO\SVILUPPI\MSX\CODE\C\MSXgl\engine/src/vdp.c:1173: }
    000002A9 E1               [10] 1079 	pop	hl
    000002AA F1               [10] 1080 	pop	af
    000002AB F1               [10] 1081 	pop	af
    000002AC 33               [ 6] 1082 	inc	sp
    000002AD E9               [ 4] 1083 	jp	(hl)
                                   1084 ;E:\Dropbox\FAUSTO\SVILUPPI\MSX\CODE\C\MSXgl\engine/src/vdp.c:1182: void VDP_Poke_128K(u8 val, u16 destLow, u8 destHigh)
                                   1085 ;	---------------------------------
                                   1086 ; Function VDP_Poke_128K
                                   1087 ; ---------------------------------
    000002AE                       1088 _VDP_Poke_128K::
                                   1089 ;E:\Dropbox\FAUSTO\SVILUPPI\MSX\CODE\C\MSXgl\engine/src/vdp.c:1224: __endasm;
    000002AE 47               [ 4] 1090 	ld	b, a
    000002AF FD 21 02 00      [14] 1091 	ld	iy, #2
    000002B3 FD 39            [15] 1092 	add	iy, sp
    000002B5 FD 7E 00         [19] 1093 	ld	a, 0(iy)
    000002B8 87               [ 4] 1094 	add	a, a
    000002B9 87               [ 4] 1095 	add	a, a
    000002BA 4F               [ 4] 1096 	ld	c, a
    000002BB 7A               [ 4] 1097 	ld	a, d
    000002BC 07               [ 4] 1098 	rlca
    000002BD 07               [ 4] 1099 	rlca
    000002BE E6 03            [ 7] 1100 	and	a, #0x03
    000002C0 81               [ 4] 1101 	add	a, c
    000002C1 F3               [ 4] 1102 	di
    000002C2 D3 99            [11] 1103 	out	(0x99), a
    000002C4 3E 8E            [ 7] 1104 	ld	a, #(0x80 | 14)
    000002C6 D3 99            [11] 1105 	out	(0x99), a
    000002C8 7B               [ 4] 1106 	ld	a, e
    000002C9 D3 99            [11] 1107 	out	(0x99), a
    000002CB 7A               [ 4] 1108 	ld	a, d
    000002CC E6 3F            [ 7] 1109 	and	a, #0x3F
    000002CE F6 40            [ 7] 1110 	or	a, #0x40
    000002D0 D3 99            [11] 1111 	out	(0x99), a
    000002D2 78               [ 4] 1112 	ld	a, b
    000002D3 FB               [ 4] 1113 	ei
    000002D4 D3 98            [11] 1114 	out	(0x98), a
                                   1115 ;E:\Dropbox\FAUSTO\SVILUPPI\MSX\CODE\C\MSXgl\engine/src/vdp.c:1225: }
    000002D6 E1               [10] 1116 	pop	hl
    000002D7 33               [ 6] 1117 	inc	sp
    000002D8 E9               [ 4] 1118 	jp	(hl)
                                   1119 ;E:\Dropbox\FAUSTO\SVILUPPI\MSX\CODE\C\MSXgl\engine/src/vdp.c:1236: u8 VDP_Peek_128K(u16 srcLow, u8 srcHigh) __NAKED
                                   1120 ;	---------------------------------
                                   1121 ; Function VDP_Peek_128K
                                   1122 ; ---------------------------------
    000002D9                       1123 _VDP_Peek_128K::
                                   1124 ;E:\Dropbox\FAUSTO\SVILUPPI\MSX\CODE\C\MSXgl\engine/src/vdp.c:1281: __endasm;
    000002D9 FD E1            [14] 1125 	pop	iy
    000002DB 3B               [ 6] 1126 	dec	sp
    000002DC D1               [10] 1127 	pop	de
    000002DD 7A               [ 4] 1128 	ld	a, d
    000002DE 87               [ 4] 1129 	add	a, a
    000002DF 87               [ 4] 1130 	add	a, a
    000002E0 4F               [ 4] 1131 	ld	c, a
    000002E1 7C               [ 4] 1132 	ld	a, h
    000002E2 07               [ 4] 1133 	rlca
    000002E3 07               [ 4] 1134 	rlca
    000002E4 E6 03            [ 7] 1135 	and	a, #0x03
    000002E6 81               [ 4] 1136 	add	a, c
    000002E7 F3               [ 4] 1137 	di
    000002E8 D3 99            [11] 1138 	out	(0x99), a
    000002EA 3E 8E            [ 7] 1139 	ld	a, #(0x80 | 14)
    000002EC D3 99            [11] 1140 	out	(0x99), a
    000002EE 7D               [ 4] 1141 	ld	a, l
    000002EF D3 99            [11] 1142 	out	(0x99), a
    000002F1 7C               [ 4] 1143 	ld	a, h
    000002F2 E6 3F            [ 7] 1144 	and	a, #0x3F
    000002F4 D3 99            [11] 1145 	out	(0x99), a
    000002F6 00               [ 4] 1146 	nop
    000002F7 FB               [ 4] 1147 	ei
    000002F8 DB 98            [11] 1148 	in	a, (0x98)
    000002FA FD E9            [ 8] 1149 	jp	(iy)
                                   1150 ;E:\Dropbox\FAUSTO\SVILUPPI\MSX\CODE\C\MSXgl\engine/src/vdp.c:1282: }
                                   1151 ;E:\Dropbox\FAUSTO\SVILUPPI\MSX\CODE\C\MSXgl\engine/src/vdp.c:1300: void VDP_CommandWait() __PRESERVES(b, c, d, e, h, l, iyl, iyh)
                                   1152 ;	---------------------------------
                                   1153 ; Function VDP_CommandWait
                                   1154 ; ---------------------------------
    000002FC                       1155 _VDP_CommandWait::
                                   1156 ;E:\Dropbox\FAUSTO\SVILUPPI\MSX\CODE\C\MSXgl\engine/src/vdp.c:1331: __endasm;
    000002FC                       1157 	 wait_vdp_ready:
    000002FC 3E 02            [ 7] 1158 	ld	a, #2
    000002FE F3               [ 4] 1159 	di
    000002FF D3 99            [11] 1160 	out	(0x99), a
    00000301 3E 8F            [ 7] 1161 	ld	a, #(0x80 | 15)
    00000303 D3 99            [11] 1162 	out	(0x99), a
    00000305 DB 99            [11] 1163 	in	a, (0x99)
    00000307 1F               [ 4] 1164 	rra
    00000308 3E 00            [ 7] 1165 	ld	a, #0
    0000030A D3 99            [11] 1166 	out	(0x99), a
    0000030C 3E 8F            [ 7] 1167 	ld	a, #(0x80 | 15)
    0000030E FB               [ 4] 1168 	ei
    0000030F D3 99            [11] 1169 	out	(0x99), a
    00000311 DArFCr02         [10] 1170 	jp	c, wait_vdp_ready
                                   1171 ;E:\Dropbox\FAUSTO\SVILUPPI\MSX\CODE\C\MSXgl\engine/src/vdp.c:1332: }
    00000314 C9               [10] 1172 	ret
                                   1173 ;E:\Dropbox\FAUSTO\SVILUPPI\MSX\CODE\C\MSXgl\engine/src/vdp.c:1336: void VPD_CommandSetupR32()
                                   1174 ;	---------------------------------
                                   1175 ; Function VPD_CommandSetupR32
                                   1176 ; ---------------------------------
    00000315                       1177 _VPD_CommandSetupR32::
                                   1178 ;E:\Dropbox\FAUSTO\SVILUPPI\MSX\CODE\C\MSXgl\engine/src/vdp.c:1338: VDP_CommandWait();
    00000315 CDrFCr02         [17] 1179 	call	_VDP_CommandWait
                                   1180 ;E:\Dropbox\FAUSTO\SVILUPPI\MSX\CODE\C\MSXgl\engine/src/vdp.c:1339: ASM_REG_WRITE_INC(g_VDP_Command, 32, 15);
    00000318 3E 20            [ 7] 1181 	ld a, #(32) 
    0000031A F3               [ 4] 1182 	di 
    0000031B D3 99            [11] 1183 	out (0x99), a 
    0000031D 3E 91            [ 7] 1184 	ld a, #((0x80 | 17)) 
    0000031F FB               [ 4] 1185 	ei 
    00000320 D3 99            [11] 1186 	out (0x99), a 
    00000322 21r1Er00         [10] 1187 	ld hl, #(_g_VDP_Command) 
    00000325 0E 9B            [ 7] 1188 	ld c, #(0x9B) 
    00000327 F3               [ 4] 1189 	di 
                                   1190 	.rept 15 -1 
                                   1191 	outi 
                                   1192 	.endm 
    00000328 ED A3            [16]    1 	outi 
    0000032A ED A3            [16]    1 	outi 
    0000032C ED A3            [16]    1 	outi 
    0000032E ED A3            [16]    1 	outi 
    00000330 ED A3            [16]    1 	outi 
    00000332 ED A3            [16]    1 	outi 
    00000334 ED A3            [16]    1 	outi 
    00000336 ED A3            [16]    1 	outi 
    00000338 ED A3            [16]    1 	outi 
    0000033A ED A3            [16]    1 	outi 
    0000033C ED A3            [16]    1 	outi 
    0000033E ED A3            [16]    1 	outi 
    00000340 ED A3            [16]    1 	outi 
    00000342 ED A3            [16]    1 	outi 
    00000344 FB               [ 4] 1193 	ei 
    00000345 ED A3            [16] 1194 	outi ; 'ei' included 
                                   1195 ;E:\Dropbox\FAUSTO\SVILUPPI\MSX\CODE\C\MSXgl\engine/src/vdp.c:1340: }
    00000347 C9               [10] 1196 	ret
                                   1197 ;E:\Dropbox\FAUSTO\SVILUPPI\MSX\CODE\C\MSXgl\engine/src/vdp.c:1344: void VPD_CommandSetupR36()
                                   1198 ;	---------------------------------
                                   1199 ; Function VPD_CommandSetupR36
                                   1200 ; ---------------------------------
    00000348                       1201 _VPD_CommandSetupR36::
                                   1202 ;E:\Dropbox\FAUSTO\SVILUPPI\MSX\CODE\C\MSXgl\engine/src/vdp.c:1346: VDP_CommandWait();
    00000348 CDrFCr02         [17] 1203 	call	_VDP_CommandWait
                                   1204 ;E:\Dropbox\FAUSTO\SVILUPPI\MSX\CODE\C\MSXgl\engine/src/vdp.c:1347: ASM_REG_WRITE_INC(g_VDP_Command + 4, 36, 11);
    0000034B 3E 24            [ 7] 1205 	ld a, #(36) 
    0000034D F3               [ 4] 1206 	di 
    0000034E D3 99            [11] 1207 	out (0x99), a 
    00000350 3E 91            [ 7] 1208 	ld a, #((0x80 | 17)) 
    00000352 FB               [ 4] 1209 	ei 
    00000353 D3 99            [11] 1210 	out (0x99), a 
    00000355 21r22r00         [10] 1211 	ld hl, #(_g_VDP_Command + 4) 
    00000358 0E 9B            [ 7] 1212 	ld c, #(0x9B) 
    0000035A F3               [ 4] 1213 	di 
                                   1214 	.rept 11 -1 
                                   1215 	outi 
                                   1216 	.endm 
    0000035B ED A3            [16]    1 	outi 
    0000035D ED A3            [16]    1 	outi 
    0000035F ED A3            [16]    1 	outi 
    00000361 ED A3            [16]    1 	outi 
    00000363 ED A3            [16]    1 	outi 
    00000365 ED A3            [16]    1 	outi 
    00000367 ED A3            [16]    1 	outi 
    00000369 ED A3            [16]    1 	outi 
    0000036B ED A3            [16]    1 	outi 
    0000036D ED A3            [16]    1 	outi 
    0000036F FB               [ 4] 1217 	ei 
    00000370 ED A3            [16] 1218 	outi ; 'ei' included 
                                   1219 ;E:\Dropbox\FAUSTO\SVILUPPI\MSX\CODE\C\MSXgl\engine/src/vdp.c:1348: }
    00000372 C9               [10] 1220 	ret
                                   1221 ;E:\Dropbox\FAUSTO\SVILUPPI\MSX\CODE\C\MSXgl\engine/src/vdp.c:1354: void VPD_CommandWriteLoop(const u8* addr) __FASTCALL __PRESERVES(d, e, iyl, iyh)
                                   1222 ;	---------------------------------
                                   1223 ; Function VPD_CommandWriteLoop
                                   1224 ; ---------------------------------
    00000373                       1225 _VPD_CommandWriteLoop::
                                   1226 ;E:\Dropbox\FAUSTO\SVILUPPI\MSX\CODE\C\MSXgl\engine/src/vdp.c:1392: __endasm;
    00000373 3E AC            [ 7] 1227 	ld	a, #(0x80 | 44)
    00000375 F3               [ 4] 1228 	di
    00000376 D3 99            [11] 1229 	out	(0x99), a
    00000378 3E 91            [ 7] 1230 	ld	a, #(0x80 | 17)
    0000037A D3 99            [11] 1231 	out	(0x99), a
    0000037C 3E 02            [ 7] 1232 	ld	a, #2
    0000037E D3 99            [11] 1233 	out	(0x99), a
    00000380 3E 8F            [ 7] 1234 	ld	a, #(0x80 | 15)
    00000382 D3 99            [11] 1235 	out	(0x99), a
    00000384 23               [ 6] 1236 	inc	hl
    00000385 0E 9B            [ 7] 1237 	ld	c, #0x9B
    00000387                       1238 	 write_loop:
    00000387 DB 99            [11] 1239 	in	a, (0x99)
    00000389 1F               [ 4] 1240 	rra
    0000038A D2r92r03         [10] 1241 	jp	nc, write_finished
    0000038D ED A3            [16] 1242 	outi
    0000038F C3r87r03         [10] 1243 	jp	write_loop
    00000392                       1244 	 write_finished:
    00000392 AF               [ 4] 1245 	xor	a
    00000393 D3 99            [11] 1246 	out	(0x99), a
    00000395 3E 8F            [ 7] 1247 	ld	a, #(0x80 | 15)
    00000397 FB               [ 4] 1248 	ei
    00000398 D3 99            [11] 1249 	out	(0x99), a
                                   1250 ;E:\Dropbox\FAUSTO\SVILUPPI\MSX\CODE\C\MSXgl\engine/src/vdp.c:1393: }
    0000039A C9               [10] 1251 	ret
                                   1252 ;E:\Dropbox\FAUSTO\SVILUPPI\MSX\CODE\C\MSXgl\engine/src/vdp.c:1452: void VDP_Initialize()
                                   1253 ;	---------------------------------
                                   1254 ; Function VDP_Initialize
                                   1255 ; ---------------------------------
    0000039B                       1256 _VDP_Initialize::
                                   1257 ;E:\Dropbox\FAUSTO\SVILUPPI\MSX\CODE\C\MSXgl\engine/src/vdp.c:1460: __endasm;
    0000039B 21 DF F3         [10] 1258 	ld	hl, #0xF3DF
    0000039E 11r00r00         [10] 1259 	ld	de, #_g_VDP_REGSAV+0
    000003A1 01 08 00         [10] 1260 	ld	bc, #8
    000003A4 ED B0            [21] 1261 	ldir
                                   1262 ;E:\Dropbox\FAUSTO\SVILUPPI\MSX\CODE\C\MSXgl\engine/src/vdp.c:1469: __endasm;
    000003A6 21 E7 FF         [10] 1263 	ld	hl, #0xFFE7
    000003A9 11r08r00         [10] 1264 	ld	de, #_g_VDP_REGSAV+8
    000003AC 01 10 00         [10] 1265 	ld	bc, #16
    000003AF ED B0            [21] 1266 	ldir
                                   1267 ;E:\Dropbox\FAUSTO\SVILUPPI\MSX\CODE\C\MSXgl\engine/src/vdp.c:1483: g_VDPInitilized = TRUE;
    000003B1 21r00r00         [10] 1268 	ld	hl, #_g_VDPInitilized
    000003B4 36 01            [10] 1269 	ld	(hl), #0x01
                                   1270 ;E:\Dropbox\FAUSTO\SVILUPPI\MSX\CODE\C\MSXgl\engine/src/vdp.c:1485: }
    000003B6 C9               [10] 1271 	ret
                                   1272 ;E:\Dropbox\FAUSTO\SVILUPPI\MSX\CODE\C\MSXgl\engine/src/vdp.c:1493: void VDP_SetMode(const u8 mode)
                                   1273 ;	---------------------------------
                                   1274 ; Function VDP_SetMode
                                   1275 ; ---------------------------------
    000003B7                       1276 _VDP_SetMode::
    000003B7 4F               [ 4] 1277 	ld	c, a
                                   1278 ;E:\Dropbox\FAUSTO\SVILUPPI\MSX\CODE\C\MSXgl\engine/src/vdp.c:1496: if (!g_VDPInitilized)
    000003B8 3Ar00r00         [13] 1279 	ld	a, (_g_VDPInitilized+0)
    000003BB B7               [ 4] 1280 	or	a, a
    000003BC 20 05            [12] 1281 	jr	NZ, 00102$
                                   1282 ;E:\Dropbox\FAUSTO\SVILUPPI\MSX\CODE\C\MSXgl\engine/src/vdp.c:1497: VDP_Initialize();
    000003BE C5               [11] 1283 	push	bc
    000003BF CDr9Br03         [17] 1284 	call	_VDP_Initialize
    000003C2 C1               [10] 1285 	pop	bc
    000003C3                       1286 00102$:
                                   1287 ;E:\Dropbox\FAUSTO\SVILUPPI\MSX\CODE\C\MSXgl\engine/src/vdp.c:1504: g_VDP_Data.Mode = mode;
    000003C3 21r1Cr00         [10] 1288 	ld	hl, #_g_VDP_Data
                                   1289 ;E:\Dropbox\FAUSTO\SVILUPPI\MSX\CODE\C\MSXgl\engine/src/vdp.c:1505: switch (mode)
    000003C6 79               [ 4] 1290 	ld	a,c
    000003C7 77               [ 7] 1291 	ld	(hl),a
    000003C8 B7               [ 4] 1292 	or	a, a
    000003C9 28 1C            [12] 1293 	jr	Z, 00103$
    000003CB 79               [ 4] 1294 	ld	a, c
    000003CC 3D               [ 4] 1295 	dec	a
    000003CD 28 20            [12] 1296 	jr	Z, 00104$
    000003CF 79               [ 4] 1297 	ld	a,c
    000003D0 FE 02            [ 7] 1298 	cp	a,#0x02
    000003D2 28 23            [12] 1299 	jr	Z, 00105$
    000003D4 FE 03            [ 7] 1300 	cp	a,#0x03
    000003D6 28 27            [12] 1301 	jr	Z, 00106$
    000003D8 FE 06            [ 7] 1302 	cp	a,#0x06
    000003DA 28 2B            [12] 1303 	jr	Z, 00108$
    000003DC FE 09            [ 7] 1304 	cp	a,#0x09
    000003DE 28 2F            [12] 1305 	jr	Z, 00109$
    000003E0 D6 0A            [ 7] 1306 	sub	a, #0x0a
    000003E2 28 23            [12] 1307 	jr	Z, 00108$
    000003E4 C3r14r04         [10] 1308 	jp	00126$
                                   1309 ;E:\Dropbox\FAUSTO\SVILUPPI\MSX\CODE\C\MSXgl\engine/src/vdp.c:1512: case VDP_MODE_TEXT1:
    000003E7                       1310 00103$:
                                   1311 ;E:\Dropbox\FAUSTO\SVILUPPI\MSX\CODE\C\MSXgl\engine/src/vdp.c:1513: VDP_SetModeText1();
    000003E7 C5               [11] 1312 	push	bc
    000003E8 CDr29r00         [17] 1313 	call	_VDP_SetModeText1
    000003EB C1               [10] 1314 	pop	bc
                                   1315 ;E:\Dropbox\FAUSTO\SVILUPPI\MSX\CODE\C\MSXgl\engine/src/vdp.c:1514: break;
    000003EC C3r14r04         [10] 1316 	jp	00126$
                                   1317 ;E:\Dropbox\FAUSTO\SVILUPPI\MSX\CODE\C\MSXgl\engine/src/vdp.c:1519: case VDP_MODE_MULTICOLOR:
    000003EF                       1318 00104$:
                                   1319 ;E:\Dropbox\FAUSTO\SVILUPPI\MSX\CODE\C\MSXgl\engine/src/vdp.c:1520: VDP_SetModeMultiColor();
    000003EF C5               [11] 1320 	push	bc
    000003F0 CDr40r00         [17] 1321 	call	_VDP_SetModeMultiColor
    000003F3 C1               [10] 1322 	pop	bc
                                   1323 ;E:\Dropbox\FAUSTO\SVILUPPI\MSX\CODE\C\MSXgl\engine/src/vdp.c:1521: break;
    000003F4 C3r14r04         [10] 1324 	jp	00126$
                                   1325 ;E:\Dropbox\FAUSTO\SVILUPPI\MSX\CODE\C\MSXgl\engine/src/vdp.c:1526: case VDP_MODE_GRAPHIC1:
    000003F7                       1326 00105$:
                                   1327 ;E:\Dropbox\FAUSTO\SVILUPPI\MSX\CODE\C\MSXgl\engine/src/vdp.c:1527: VDP_SetModeGraphic1();
    000003F7 C5               [11] 1328 	push	bc
    000003F8 CDr57r00         [17] 1329 	call	_VDP_SetModeGraphic1
    000003FB C1               [10] 1330 	pop	bc
                                   1331 ;E:\Dropbox\FAUSTO\SVILUPPI\MSX\CODE\C\MSXgl\engine/src/vdp.c:1528: break;
    000003FC C3r14r04         [10] 1332 	jp	00126$
                                   1333 ;E:\Dropbox\FAUSTO\SVILUPPI\MSX\CODE\C\MSXgl\engine/src/vdp.c:1533: case VDP_MODE_GRAPHIC2:
    000003FF                       1334 00106$:
                                   1335 ;E:\Dropbox\FAUSTO\SVILUPPI\MSX\CODE\C\MSXgl\engine/src/vdp.c:1534: VDP_SetModeGraphic2();
    000003FF C5               [11] 1336 	push	bc
    00000400 CDr76r00         [17] 1337 	call	_VDP_SetModeGraphic2
    00000403 C1               [10] 1338 	pop	bc
                                   1339 ;E:\Dropbox\FAUSTO\SVILUPPI\MSX\CODE\C\MSXgl\engine/src/vdp.c:1535: break;
    00000404 C3r14r04         [10] 1340 	jp	00126$
                                   1341 ;E:\Dropbox\FAUSTO\SVILUPPI\MSX\CODE\C\MSXgl\engine/src/vdp.c:1565: case VDP_MODE_SCREEN9_40: // @todo Further setting needed?
    00000407                       1342 00108$:
                                   1343 ;E:\Dropbox\FAUSTO\SVILUPPI\MSX\CODE\C\MSXgl\engine/src/vdp.c:1566: VDP_SetModeGraphic4();
    00000407 C5               [11] 1344 	push	bc
    00000408 CDr90r01         [17] 1345 	call	_VDP_SetModeGraphic4
    0000040B C1               [10] 1346 	pop	bc
                                   1347 ;E:\Dropbox\FAUSTO\SVILUPPI\MSX\CODE\C\MSXgl\engine/src/vdp.c:1567: break;
    0000040C C3r14r04         [10] 1348 	jp	00126$
                                   1349 ;E:\Dropbox\FAUSTO\SVILUPPI\MSX\CODE\C\MSXgl\engine/src/vdp.c:1587: case VDP_MODE_GRAPHIC7:		
    0000040F                       1350 00109$:
                                   1351 ;E:\Dropbox\FAUSTO\SVILUPPI\MSX\CODE\C\MSXgl\engine/src/vdp.c:1588: VDP_SetModeGraphic7();
    0000040F C5               [11] 1352 	push	bc
    00000410 CDr9Er01         [17] 1353 	call	_VDP_SetModeGraphic7
    00000413 C1               [10] 1354 	pop	bc
                                   1355 ;E:\Dropbox\FAUSTO\SVILUPPI\MSX\CODE\C\MSXgl\engine/src/vdp.h:705: inline void VDP_EnableDisplay(bool enable) { VDP_RegWriteBakMask(1, (u8)~R01_BL, enable ? R01_BL : 0); }
    00000414                       1356 00126$:
    00000414 C5               [11] 1357 	push	bc
    00000415 3E 40            [ 7] 1358 	ld	a, #0x40
    00000417 F5               [11] 1359 	push	af
    00000418 33               [ 6] 1360 	inc	sp
    00000419 2E BF            [ 7] 1361 	ld	l, #0xbf
                                   1362 ;	spillPairReg hl
                                   1363 ;	spillPairReg hl
    0000041B 3E 01            [ 7] 1364 	ld	a, #0x01
    0000041D CDrDCr04         [17] 1365 	call	_VDP_RegWriteBakMask
    00000420 3E 20            [ 7] 1366 	ld	a, #0x20
    00000422 F5               [11] 1367 	push	af
    00000423 33               [ 6] 1368 	inc	sp
    00000424 2E DF            [ 7] 1369 	ld	l, #0xdf
                                   1370 ;	spillPairReg hl
                                   1371 ;	spillPairReg hl
    00000426 3E 01            [ 7] 1372 	ld	a, #0x01
    00000428 CDrDCr04         [17] 1373 	call	_VDP_RegWriteBakMask
    0000042B 3E 02            [ 7] 1374 	ld	a, #0x02
    0000042D F5               [11] 1375 	push	af
    0000042E 33               [ 6] 1376 	inc	sp
    0000042F 2E FD            [ 7] 1377 	ld	l, #0xfd
                                   1378 ;	spillPairReg hl
                                   1379 ;	spillPairReg hl
    00000431 3E 08            [ 7] 1380 	ld	a, #0x08
    00000433 CDrDCr04         [17] 1381 	call	_VDP_RegWriteBakMask
    00000436 C1               [10] 1382 	pop	bc
                                   1383 ;E:\Dropbox\FAUSTO\SVILUPPI\MSX\CODE\C\MSXgl\engine/src/vdp.h:494: return mode >= VDP_MODE_GRAPHIC4;
    00000437 79               [ 4] 1384 	ld	a, c
    00000438 D6 06            [ 7] 1385 	sub	a, #0x06
    0000043A 3E 00            [ 7] 1386 	ld	a, #0x00
    0000043C 17               [ 4] 1387 	rla
                                   1388 ;E:\Dropbox\FAUSTO\SVILUPPI\MSX\CODE\C\MSXgl\engine/src/vdp.c:1632: if (VDP_IsBitmapMode(mode)) // Activate 212 lines for bitmap mode
    0000043D EE 01            [ 7] 1389 	xor	a,#0x01
    0000043F 28 0E            [12] 1390 	jr	Z, 00112$
                                   1391 ;E:\Dropbox\FAUSTO\SVILUPPI\MSX\CODE\C\MSXgl\engine/src/vdp.h:834: inline void VDP_SetLineCount(u8 lines) { VDP_RegWriteBakMask(9, (u8)~R09_LN, lines); }
    00000441 3E 80            [ 7] 1392 	ld	a, #0x80
    00000443 F5               [11] 1393 	push	af
    00000444 33               [ 6] 1394 	inc	sp
    00000445 2E 7F            [ 7] 1395 	ld	l, #0x7f
                                   1396 ;	spillPairReg hl
                                   1397 ;	spillPairReg hl
    00000447 3E 09            [ 7] 1398 	ld	a, #0x09
    00000449 CDrDCr04         [17] 1399 	call	_VDP_RegWriteBakMask
                                   1400 ;E:\Dropbox\FAUSTO\SVILUPPI\MSX\CODE\C\MSXgl\engine/src/vdp.c:1633: VDP_SetLineCount(VDP_LINE_212);
    0000044C C3r59r04         [10] 1401 	jp	00131$
    0000044F                       1402 00112$:
                                   1403 ;E:\Dropbox\FAUSTO\SVILUPPI\MSX\CODE\C\MSXgl\engine/src/vdp.h:834: inline void VDP_SetLineCount(u8 lines) { VDP_RegWriteBakMask(9, (u8)~R09_LN, lines); }
    0000044F AF               [ 4] 1404 	xor	a, a
    00000450 F5               [11] 1405 	push	af
    00000451 33               [ 6] 1406 	inc	sp
    00000452 2E 7F            [ 7] 1407 	ld	l, #0x7f
                                   1408 ;	spillPairReg hl
                                   1409 ;	spillPairReg hl
    00000454 3E 09            [ 7] 1410 	ld	a, #0x09
    00000456 CDrDCr04         [17] 1411 	call	_VDP_RegWriteBakMask
                                   1412 ;E:\Dropbox\FAUSTO\SVILUPPI\MSX\CODE\C\MSXgl\engine/src/vdp.h:849: inline void VDP_SetInterlace(bool enable) { VDP_RegWriteBakMask(9, (u8)~R09_IL, enable ? R09_IL : 0); }
    00000459                       1413 00131$:
    00000459 AF               [ 4] 1414 	xor	a, a
    0000045A F5               [11] 1415 	push	af
    0000045B 33               [ 6] 1416 	inc	sp
    0000045C 2E F7            [ 7] 1417 	ld	l, #0xf7
                                   1418 ;	spillPairReg hl
                                   1419 ;	spillPairReg hl
    0000045E 3E 09            [ 7] 1420 	ld	a, #0x09
    00000460 CDrDCr04         [17] 1421 	call	_VDP_RegWriteBakMask
                                   1422 ;E:\Dropbox\FAUSTO\SVILUPPI\MSX\CODE\C\MSXgl\engine/src/vdp.h:841: inline void VDP_SetPageAlternance(bool enable) { VDP_RegWriteBakMask(9, (u8)~R09_EO, enable ? R09_EO : 0); }
    00000463 AF               [ 4] 1423 	xor	a, a
    00000464 F5               [11] 1424 	push	af
    00000465 33               [ 6] 1425 	inc	sp
    00000466 2E FB            [ 7] 1426 	ld	l, #0xfb
                                   1427 ;	spillPairReg hl
                                   1428 ;	spillPairReg hl
    00000468 3E 09            [ 7] 1429 	ld	a, #0x09
    0000046A CDrDCr04         [17] 1430 	call	_VDP_RegWriteBakMask
                                   1431 ;E:\Dropbox\FAUSTO\SVILUPPI\MSX\CODE\C\MSXgl\engine/src/vdp.c:1637: VDP_SetPageAlternance(FALSE);
                                   1432 ;E:\Dropbox\FAUSTO\SVILUPPI\MSX\CODE\C\MSXgl\engine/src/vdp.c:1640: }
    0000046D C9               [10] 1433 	ret
                                   1434 ;E:\Dropbox\FAUSTO\SVILUPPI\MSX\CODE\C\MSXgl\engine/src/vdp.c:1646: u8 VDP_GetVersion() __NAKED
                                   1435 ;	---------------------------------
                                   1436 ; Function VDP_GetVersion
                                   1437 ; ---------------------------------
    0000046E                       1438 _VDP_GetVersion::
                                   1439 ;E:\Dropbox\FAUSTO\SVILUPPI\MSX\CODE\C\MSXgl\engine/src/vdp.c:1715: __endasm;
    0000046E                       1440 	 VDP_GetVersionAsm:
    0000046E CDr8Dr04         [17] 1441 	call	VDP_IsTMS9918A
    00000471 C8               [11] 1442 	ret	z
    00000472 3E 01            [ 7] 1443 	ld	a, #1
    00000474 F3               [ 4] 1444 	di
    00000475 D3 99            [11] 1445 	out	(0x99), a
    00000477 3E 8F            [ 7] 1446 	ld	a, #(0x80 | 15)
    00000479 D3 99            [11] 1447 	out	(0x99), a
    0000047B DB 99            [11] 1448 	in	a, (0x99)
    0000047D E6 3E            [ 7] 1449 	and	#0b00111110
    0000047F 0F               [ 4] 1450 	rrca
    00000480 08               [ 4] 1451 	ex	af, af'					; '
    00000481 AF               [ 4] 1452 	xor	a
    00000482 D3 99            [11] 1453 	out	(0x99), a
    00000484 3E 8F            [ 7] 1454 	ld	a, #(0x80 | 15)
    00000486 FB               [ 4] 1455 	ei
    00000487 D3 99            [11] 1456 	out	(0x99), a
    00000489 08               [ 4] 1457 	ex	af, af'					; '
    0000048A C0               [11] 1458 	ret	nz
    0000048B 3C               [ 4] 1459 	inc	a
    0000048C C9               [10] 1460 	ret
    0000048D                       1461 	 VDP_IsTMS9918A:
    0000048D AF               [ 4] 1462 	xor	a
    0000048E F3               [ 4] 1463 	di
    0000048F D3 99            [11] 1464 	out	(0x99), a
    00000491 3E 8F            [ 7] 1465 	ld	a, #(0x80 | 15)
    00000493 D3 99            [11] 1466 	out	(0x99), a
    00000495 DB 99            [11] 1467 	in	a, (0x99)
    00000497                       1468 	 VDP_IsTMS9918A_Wait:
    00000497 DB 99            [11] 1469 	in	a,(0x99)
    00000499 A7               [ 4] 1470 	and	a
    0000049A F2r97r04         [10] 1471 	jp	p, VDP_IsTMS9918A_Wait
    0000049D 3E 02            [ 7] 1472 	ld	a, #2
    0000049F D3 99            [11] 1473 	out	(0x99), a
    000004A1 3E 8F            [ 7] 1474 	ld	a, #(0x80 | 15)
    000004A3 D3 99            [11] 1475 	out	(0x99), a
    000004A5 DB 99            [11] 1476 	in	a, (0x99)
    000004A7 08               [ 4] 1477 	ex	af, af'					; '
    000004A8 AF               [ 4] 1478 	xor	a
    000004A9 D3 99            [11] 1479 	out	(0x99), a
    000004AB 3E 8F            [ 7] 1480 	ld	a, #(0x80 | 15)
    000004AD D3 99            [11] 1481 	out	(0x99), a
    000004AF 3A E6 F3         [13] 1482 	ld	a, (0xF3E6)
    000004B2 D3 99            [11] 1483 	out	(0x99), a
    000004B4 3E 87            [ 7] 1484 	ld	a, #(0x80 | 7)
    000004B6 FB               [ 4] 1485 	ei
    000004B7 D3 99            [11] 1486 	out	(0x99), a
    000004B9 08               [ 4] 1487 	ex	af, af'					; '
    000004BA E6 40            [ 7] 1488 	and	#0b01000000
    000004BC C9               [10] 1489 	ret
                                   1490 ;E:\Dropbox\FAUSTO\SVILUPPI\MSX\CODE\C\MSXgl\engine/src/vdp.c:1716: }
                                   1491 ;E:\Dropbox\FAUSTO\SVILUPPI\MSX\CODE\C\MSXgl\engine/src/vdp.c:1724: void VDP_RegWrite(u8 reg, u8 value) __PRESERVES(b, c, d, e, iyl, iyh)
                                   1492 ;	---------------------------------
                                   1493 ; Function VDP_RegWrite
                                   1494 ; ---------------------------------
    000004BD                       1495 _VDP_RegWrite::
                                   1496 ;E:\Dropbox\FAUSTO\SVILUPPI\MSX\CODE\C\MSXgl\engine/src/vdp.c:1738: __endasm;
    000004BD 67               [ 4] 1497 	ld	h, a
    000004BE 7D               [ 4] 1498 	ld	a, l
    000004BF F3               [ 4] 1499 	di
    000004C0 D3 99            [11] 1500 	out	(0x99), a
    000004C2 7C               [ 4] 1501 	ld	a, h
    000004C3 C6 80            [ 7] 1502 	add	#0x80
    000004C5 FB               [ 4] 1503 	ei
    000004C6 D3 99            [11] 1504 	out	(0x99), a
                                   1505 ;E:\Dropbox\FAUSTO\SVILUPPI\MSX\CODE\C\MSXgl\engine/src/vdp.c:1739: }
    000004C8 C9               [10] 1506 	ret
                                   1507 ;E:\Dropbox\FAUSTO\SVILUPPI\MSX\CODE\C\MSXgl\engine/src/vdp.c:1747: void VDP_RegWriteBak(u8 reg, u8 value) __PRESERVES(d, e, iyl, iyh)
                                   1508 ;	---------------------------------
                                   1509 ; Function VDP_RegWriteBak
                                   1510 ; ---------------------------------
    000004C9                       1511 _VDP_RegWriteBak::
                                   1512 ;E:\Dropbox\FAUSTO\SVILUPPI\MSX\CODE\C\MSXgl\engine/src/vdp.c:1767: __endasm;
    000004C9 4F               [ 4] 1513 	ld	c, a
    000004CA 7D               [ 4] 1514 	ld	a, l
    000004CB 06 00            [ 7] 1515 	ld	b, #0
    000004CD 21r00r00         [10] 1516 	ld	hl, #_g_VDP_REGSAV
    000004D0 09               [11] 1517 	add	hl, bc
    000004D1 77               [ 7] 1518 	ld	(hl), a
    000004D2 F3               [ 4] 1519 	di
    000004D3 D3 99            [11] 1520 	out	(0x99), a
    000004D5 79               [ 4] 1521 	ld	a, c
    000004D6 C6 80            [ 7] 1522 	add	#0x80
    000004D8 FB               [ 4] 1523 	ei
    000004D9 D3 99            [11] 1524 	out	(0x99), a
                                   1525 ;E:\Dropbox\FAUSTO\SVILUPPI\MSX\CODE\C\MSXgl\engine/src/vdp.c:1768: }
    000004DB C9               [10] 1526 	ret
                                   1527 ;E:\Dropbox\FAUSTO\SVILUPPI\MSX\CODE\C\MSXgl\engine/src/vdp.c:1777: void VDP_RegWriteBakMask(u8 reg, u8 mask, u8 flag)
                                   1528 ;	---------------------------------
                                   1529 ; Function VDP_RegWriteBakMask
                                   1530 ; ---------------------------------
    000004DC                       1531 _VDP_RegWriteBakMask::
    000004DC DD E5            [15] 1532 	push	ix
    000004DE DD 21 00 00      [14] 1533 	ld	ix,#0
    000004E2 DD 39            [15] 1534 	add	ix,sp
    000004E4 4F               [ 4] 1535 	ld	c, a
    000004E5 5D               [ 4] 1536 	ld	e, l
                                   1537 ;E:\Dropbox\FAUSTO\SVILUPPI\MSX\CODE\C\MSXgl\engine/src/vdp.c:1779: u8 value = g_VDP_REGSAV[reg];
    000004E6 21r00r00         [10] 1538 	ld	hl, #_g_VDP_REGSAV+0
    000004E9 06 00            [ 7] 1539 	ld	b, #0x00
    000004EB 09               [11] 1540 	add	hl, bc
    000004EC 7E               [ 7] 1541 	ld	a, (hl)
                                   1542 ;E:\Dropbox\FAUSTO\SVILUPPI\MSX\CODE\C\MSXgl\engine/src/vdp.c:1780: value &= mask;
    000004ED A3               [ 4] 1543 	and	a, e
                                   1544 ;E:\Dropbox\FAUSTO\SVILUPPI\MSX\CODE\C\MSXgl\engine/src/vdp.c:1781: value |= flag;
    000004EE DD B6 04         [19] 1545 	or	a, 4 (ix)
    000004F1 6F               [ 4] 1546 	ld	l, a
                                   1547 ;	spillPairReg hl
                                   1548 ;	spillPairReg hl
                                   1549 ;E:\Dropbox\FAUSTO\SVILUPPI\MSX\CODE\C\MSXgl\engine/src/vdp.c:1782: VDP_RegWriteBak(reg, value);
    000004F2 79               [ 4] 1550 	ld	a, c
    000004F3 CDrC9r04         [17] 1551 	call	_VDP_RegWriteBak
                                   1552 ;E:\Dropbox\FAUSTO\SVILUPPI\MSX\CODE\C\MSXgl\engine/src/vdp.c:1783: }
    000004F6 DD E1            [14] 1553 	pop	ix
    000004F8 E1               [10] 1554 	pop	hl
    000004F9 33               [ 6] 1555 	inc	sp
    000004FA E9               [ 4] 1556 	jp	(hl)
                                   1557 ;E:\Dropbox\FAUSTO\SVILUPPI\MSX\CODE\C\MSXgl\engine/src/vdp.c:1787: u8 VDP_ReadDefaultStatus() __NAKED __PRESERVES(b, c, d, e, h, l, iyl, iyh)
                                   1558 ;	---------------------------------
                                   1559 ; Function VDP_ReadDefaultStatus
                                   1560 ; ---------------------------------
    000004FB                       1561 _VDP_ReadDefaultStatus::
                                   1562 ;E:\Dropbox\FAUSTO\SVILUPPI\MSX\CODE\C\MSXgl\engine/src/vdp.c:1792: __endasm;
    000004FB DB 99            [11] 1563 	in	a, (0x99)
    000004FD C9               [10] 1564 	ret
                                   1565 ;E:\Dropbox\FAUSTO\SVILUPPI\MSX\CODE\C\MSXgl\engine/src/vdp.c:1793: }
                                   1566 ;E:\Dropbox\FAUSTO\SVILUPPI\MSX\CODE\C\MSXgl\engine/src/vdp.c:1799: void VDP_SetPage(u8 page)
                                   1567 ;	---------------------------------
                                   1568 ; Function VDP_SetPage
                                   1569 ; ---------------------------------
    000004FE                       1570 _VDP_SetPage::
                                   1571 ;E:\Dropbox\FAUSTO\SVILUPPI\MSX\CODE\C\MSXgl\engine/src/vdp.c:1801: u8 reg = page << 5;
    000004FE 4F               [ 4] 1572 	ld	c, a
    000004FF 0F               [ 4] 1573 	rrca
    00000500 0F               [ 4] 1574 	rrca
    00000501 0F               [ 4] 1575 	rrca
    00000502 E6 E0            [ 7] 1576 	and	a, #0xe0
                                   1577 ;E:\Dropbox\FAUSTO\SVILUPPI\MSX\CODE\C\MSXgl\engine/src/vdp.c:1802: reg |= 0b11111;
    00000504 F6 1F            [ 7] 1578 	or	a, #0x1f
    00000506 6F               [ 4] 1579 	ld	l, a
                                   1580 ;	spillPairReg hl
                                   1581 ;	spillPairReg hl
                                   1582 ;E:\Dropbox\FAUSTO\SVILUPPI\MSX\CODE\C\MSXgl\engine/src/vdp.c:1803: VDP_RegWriteBak(2, reg);
    00000507 3E 02            [ 7] 1583 	ld	a, #0x02
                                   1584 ;E:\Dropbox\FAUSTO\SVILUPPI\MSX\CODE\C\MSXgl\engine/src/vdp.c:1804: }
    00000509 C3rC9r04         [10] 1585 	jp	_VDP_RegWriteBak
                                   1586 ;E:\Dropbox\FAUSTO\SVILUPPI\MSX\CODE\C\MSXgl\engine/src/vdp.c:1810: void VDP_SetLayoutTable(VADDR addr)
                                   1587 ;	---------------------------------
                                   1588 ; Function VDP_SetLayoutTable
                                   1589 ; ---------------------------------
    0000050C                       1590 _VDP_SetLayoutTable::
    0000050C DD E5            [15] 1591 	push	ix
    0000050E DD 21 00 00      [14] 1592 	ld	ix,#0
    00000512 DD 39            [15] 1593 	add	ix,sp
    00000514 F5               [11] 1594 	push	af
    00000515 F5               [11] 1595 	push	af
    00000516 33               [ 6] 1596 	inc	sp
    00000517 33               [ 6] 1597 	inc	sp
    00000518 D5               [11] 1598 	push	de
    00000519 DD 75 FE         [19] 1599 	ld	-2 (ix), l
    0000051C DD 74 FF         [19] 1600 	ld	-1 (ix), h
                                   1601 ;E:\Dropbox\FAUSTO\SVILUPPI\MSX\CODE\C\MSXgl\engine/src/vdp.c:1812: g_ScreenLayoutLow = (u16)addr;
    0000051F E1               [10] 1602 	pop	hl
    00000520 E5               [11] 1603 	push	hl
    00000521 22r2Dr00         [16] 1604 	ld	(_g_ScreenLayoutLow), hl
                                   1605 ;E:\Dropbox\FAUSTO\SVILUPPI\MSX\CODE\C\MSXgl\engine/src/vdp.c:1815: reg = (u8)(addr >> 10);
    00000524 DD 5E FD         [19] 1606 	ld	e, -3 (ix)
    00000527 DD 56 FE         [19] 1607 	ld	d, -2 (ix)
    0000052A DD 6E FF         [19] 1608 	ld	l, -1 (ix)
                                   1609 ;	spillPairReg hl
                                   1610 ;	spillPairReg hl
                                   1611 ;	spillPairReg hl
                                   1612 ;	spillPairReg hl
    0000052D 06 02            [ 7] 1613 	ld	b, #0x02
    0000052F                       1614 00134$:
    0000052F CB 3D            [ 8] 1615 	srl	l
    00000531 CB 1A            [ 8] 1616 	rr	d
    00000533 CB 1B            [ 8] 1617 	rr	e
    00000535 10 F8            [13] 1618 	djnz	00134$
                                   1619 ;E:\Dropbox\FAUSTO\SVILUPPI\MSX\CODE\C\MSXgl\engine/src/vdp.c:1817: switch (g_VDP_Data.Mode)
    00000537 3Ar1Cr00         [13] 1620 	ld	a, (#_g_VDP_Data + 0)
    0000053A FE 04            [ 7] 1621 	cp	a, #0x04
    0000053C 28 13            [12] 1622 	jr	Z, 00101$
    0000053E FE 06            [ 7] 1623 	cp	a, #0x06
    00000540 28 18            [12] 1624 	jr	Z, 00105$
    00000542 FE 07            [ 7] 1625 	cp	a, #0x07
    00000544 28 14            [12] 1626 	jr	Z, 00105$
    00000546 FE 08            [ 7] 1627 	cp	a, #0x08
    00000548 28 0E            [12] 1628 	jr	Z, 00103$
    0000054A D6 09            [ 7] 1629 	sub	a, #0x09
    0000054C 28 0A            [12] 1630 	jr	Z, 00103$
    0000054E C3r5Er05         [10] 1631 	jp	00106$
                                   1632 ;E:\Dropbox\FAUSTO\SVILUPPI\MSX\CODE\C\MSXgl\engine/src/vdp.c:1819: case VDP_MODE_TEXT2:
    00000551                       1633 00101$:
                                   1634 ;E:\Dropbox\FAUSTO\SVILUPPI\MSX\CODE\C\MSXgl\engine/src/vdp.c:1820: reg |= 0b11;
    00000551 7B               [ 4] 1635 	ld	a, e
    00000552 F6 03            [ 7] 1636 	or	a, #0x03
    00000554 5F               [ 4] 1637 	ld	e, a
                                   1638 ;E:\Dropbox\FAUSTO\SVILUPPI\MSX\CODE\C\MSXgl\engine/src/vdp.c:1821: break;
    00000555 C3r5Er05         [10] 1639 	jp	00106$
                                   1640 ;E:\Dropbox\FAUSTO\SVILUPPI\MSX\CODE\C\MSXgl\engine/src/vdp.c:1823: case VDP_MODE_GRAPHIC7:
    00000558                       1641 00103$:
                                   1642 ;E:\Dropbox\FAUSTO\SVILUPPI\MSX\CODE\C\MSXgl\engine/src/vdp.c:1829: reg >>= 1;
    00000558 CB 3B            [ 8] 1643 	srl	e
                                   1644 ;E:\Dropbox\FAUSTO\SVILUPPI\MSX\CODE\C\MSXgl\engine/src/vdp.c:1831: case VDP_MODE_GRAPHIC5:
    0000055A                       1645 00105$:
                                   1646 ;E:\Dropbox\FAUSTO\SVILUPPI\MSX\CODE\C\MSXgl\engine/src/vdp.c:1832: reg |= 0b11111;
    0000055A 7B               [ 4] 1647 	ld	a, e
    0000055B F6 1F            [ 7] 1648 	or	a, #0x1f
    0000055D 5F               [ 4] 1649 	ld	e, a
                                   1650 ;E:\Dropbox\FAUSTO\SVILUPPI\MSX\CODE\C\MSXgl\engine/src/vdp.c:1834: };	
    0000055E                       1651 00106$:
                                   1652 ;E:\Dropbox\FAUSTO\SVILUPPI\MSX\CODE\C\MSXgl\engine/src/vdp.c:1836: VDP_RegWrite(2, reg);
    0000055E 6B               [ 4] 1653 	ld	l, e
                                   1654 ;	spillPairReg hl
                                   1655 ;	spillPairReg hl
    0000055F 3E 02            [ 7] 1656 	ld	a, #0x02
    00000561 CDrBDr04         [17] 1657 	call	_VDP_RegWrite
                                   1658 ;E:\Dropbox\FAUSTO\SVILUPPI\MSX\CODE\C\MSXgl\engine/src/vdp.c:1839: g_ScreenLayoutHigh = addr >> 16;
    00000564 DD 7E FE         [19] 1659 	ld	a, -2 (ix)
    00000567 32r33r00         [13] 1660 	ld	(_g_ScreenLayoutHigh+0), a
                                   1661 ;E:\Dropbox\FAUSTO\SVILUPPI\MSX\CODE\C\MSXgl\engine/src/vdp.c:1841: }
    0000056A DD F9            [10] 1662 	ld	sp, ix
    0000056C DD E1            [14] 1663 	pop	ix
    0000056E C9               [10] 1664 	ret
                                   1665 ;E:\Dropbox\FAUSTO\SVILUPPI\MSX\CODE\C\MSXgl\engine/src/vdp.c:1845: void VDP_SetColorTable(VADDR addr)
                                   1666 ;	---------------------------------
                                   1667 ; Function VDP_SetColorTable
                                   1668 ; ---------------------------------
    0000056F                       1669 _VDP_SetColorTable::
    0000056F DD E5            [15] 1670 	push	ix
    00000571 DD 21 00 00      [14] 1671 	ld	ix,#0
    00000575 DD 39            [15] 1672 	add	ix,sp
    00000577 F5               [11] 1673 	push	af
    00000578 F5               [11] 1674 	push	af
    00000579 33               [ 6] 1675 	inc	sp
    0000057A 33               [ 6] 1676 	inc	sp
    0000057B D5               [11] 1677 	push	de
    0000057C DD 75 FE         [19] 1678 	ld	-2 (ix), l
    0000057F DD 74 FF         [19] 1679 	ld	-1 (ix), h
                                   1680 ;E:\Dropbox\FAUSTO\SVILUPPI\MSX\CODE\C\MSXgl\engine/src/vdp.c:1847: g_ScreenColorLow = (u16)addr;
    00000582 E1               [10] 1681 	pop	hl
    00000583 E5               [11] 1682 	push	hl
    00000584 22r2Fr00         [16] 1683 	ld	(_g_ScreenColorLow), hl
                                   1684 ;E:\Dropbox\FAUSTO\SVILUPPI\MSX\CODE\C\MSXgl\engine/src/vdp.c:1850: reg = (u8)(addr >> 6);
    00000587 C1               [10] 1685 	pop	bc
    00000588 C5               [11] 1686 	push	bc
    00000589 CB 38            [ 8] 1687 	srl	b
    0000058B CB 19            [ 8] 1688 	rr	c
    0000058D CB 38            [ 8] 1689 	srl	b
    0000058F CB 19            [ 8] 1690 	rr	c
    00000591 CB 38            [ 8] 1691 	srl	b
    00000593 CB 19            [ 8] 1692 	rr	c
    00000595 CB 38            [ 8] 1693 	srl	b
    00000597 CB 19            [ 8] 1694 	rr	c
    00000599 CB 38            [ 8] 1695 	srl	b
    0000059B CB 19            [ 8] 1696 	rr	c
    0000059D CB 38            [ 8] 1697 	srl	b
    0000059F CB 19            [ 8] 1698 	rr	c
                                   1699 ;E:\Dropbox\FAUSTO\SVILUPPI\MSX\CODE\C\MSXgl\engine/src/vdp.c:1851: switch (g_VDP_Data.Mode)
    000005A1 3Ar1Cr00         [13] 1700 	ld	a, (#_g_VDP_Data + 0)
    000005A4 FE 03            [ 7] 1701 	cp	a, #0x03
    000005A6 28 33            [12] 1702 	jr	Z, 00106$
    000005A8 FE 04            [ 7] 1703 	cp	a, #0x04
    000005AA 28 13            [12] 1704 	jr	Z, 00101$
    000005AC FE 05            [ 7] 1705 	cp	a, #0x05
    000005AE 28 2B            [12] 1706 	jr	Z, 00106$
    000005B0 FE 0F            [ 7] 1707 	cp	a, #0x0f
    000005B2 28 12            [12] 1708 	jr	Z, 00102$
    000005B4 FE 10            [ 7] 1709 	cp	a, #0x10
    000005B6 28 15            [12] 1710 	jr	Z, 00103$
    000005B8 D6 11            [ 7] 1711 	sub	a, #0x11
    000005BA 28 18            [12] 1712 	jr	Z, 00104$
    000005BC C3rDFr05         [10] 1713 	jp	00107$
                                   1714 ;E:\Dropbox\FAUSTO\SVILUPPI\MSX\CODE\C\MSXgl\engine/src/vdp.c:1854: case VDP_MODE_TEXT2:
    000005BF                       1715 00101$:
                                   1716 ;E:\Dropbox\FAUSTO\SVILUPPI\MSX\CODE\C\MSXgl\engine/src/vdp.c:1855: reg |= 0b111;
    000005BF 79               [ 4] 1717 	ld	a, c
    000005C0 F6 07            [ 7] 1718 	or	a, #0x07
    000005C2 4F               [ 4] 1719 	ld	c, a
                                   1720 ;E:\Dropbox\FAUSTO\SVILUPPI\MSX\CODE\C\MSXgl\engine/src/vdp.c:1856: break;
    000005C3 C3rDFr05         [10] 1721 	jp	00107$
                                   1722 ;E:\Dropbox\FAUSTO\SVILUPPI\MSX\CODE\C\MSXgl\engine/src/vdp.c:1858: case VDP_MODE_GRAPHIC3_MIRROR_0:
    000005C6                       1723 00102$:
                                   1724 ;E:\Dropbox\FAUSTO\SVILUPPI\MSX\CODE\C\MSXgl\engine/src/vdp.c:1859: reg |= 0b0011111;
    000005C6 79               [ 4] 1725 	ld	a, c
    000005C7 F6 1F            [ 7] 1726 	or	a, #0x1f
    000005C9 4F               [ 4] 1727 	ld	c, a
                                   1728 ;E:\Dropbox\FAUSTO\SVILUPPI\MSX\CODE\C\MSXgl\engine/src/vdp.c:1860: break;
    000005CA C3rDFr05         [10] 1729 	jp	00107$
                                   1730 ;E:\Dropbox\FAUSTO\SVILUPPI\MSX\CODE\C\MSXgl\engine/src/vdp.c:1861: case VDP_MODE_GRAPHIC3_MIRROR_01:
    000005CD                       1731 00103$:
                                   1732 ;E:\Dropbox\FAUSTO\SVILUPPI\MSX\CODE\C\MSXgl\engine/src/vdp.c:1862: reg |= 0b0111111;
    000005CD 79               [ 4] 1733 	ld	a, c
    000005CE F6 3F            [ 7] 1734 	or	a, #0x3f
    000005D0 4F               [ 4] 1735 	ld	c, a
                                   1736 ;E:\Dropbox\FAUSTO\SVILUPPI\MSX\CODE\C\MSXgl\engine/src/vdp.c:1863: break;
    000005D1 C3rDFr05         [10] 1737 	jp	00107$
                                   1738 ;E:\Dropbox\FAUSTO\SVILUPPI\MSX\CODE\C\MSXgl\engine/src/vdp.c:1864: case VDP_MODE_GRAPHIC3_MIRROR_02:
    000005D4                       1739 00104$:
                                   1740 ;E:\Dropbox\FAUSTO\SVILUPPI\MSX\CODE\C\MSXgl\engine/src/vdp.c:1865: reg |= 0b1011111;
    000005D4 79               [ 4] 1741 	ld	a, c
    000005D5 F6 5F            [ 7] 1742 	or	a, #0x5f
    000005D7 4F               [ 4] 1743 	ld	c, a
                                   1744 ;E:\Dropbox\FAUSTO\SVILUPPI\MSX\CODE\C\MSXgl\engine/src/vdp.c:1866: break;
    000005D8 C3rDFr05         [10] 1745 	jp	00107$
                                   1746 ;E:\Dropbox\FAUSTO\SVILUPPI\MSX\CODE\C\MSXgl\engine/src/vdp.c:1870: case VDP_MODE_GRAPHIC2:
    000005DB                       1747 00106$:
                                   1748 ;E:\Dropbox\FAUSTO\SVILUPPI\MSX\CODE\C\MSXgl\engine/src/vdp.c:1871: reg |= 0b1111111;
    000005DB 79               [ 4] 1749 	ld	a, c
    000005DC F6 7F            [ 7] 1750 	or	a, #0x7f
    000005DE 4F               [ 4] 1751 	ld	c, a
                                   1752 ;E:\Dropbox\FAUSTO\SVILUPPI\MSX\CODE\C\MSXgl\engine/src/vdp.c:1873: };	
    000005DF                       1753 00107$:
                                   1754 ;E:\Dropbox\FAUSTO\SVILUPPI\MSX\CODE\C\MSXgl\engine/src/vdp.c:1874: VDP_RegWrite(3, reg);
    000005DF 69               [ 4] 1755 	ld	l, c
                                   1756 ;	spillPairReg hl
                                   1757 ;	spillPairReg hl
    000005E0 3E 03            [ 7] 1758 	ld	a, #0x03
    000005E2 CDrBDr04         [17] 1759 	call	_VDP_RegWrite
                                   1760 ;E:\Dropbox\FAUSTO\SVILUPPI\MSX\CODE\C\MSXgl\engine/src/vdp.c:1877: reg = (u8)(addr >> 14);
    000005E5 DD 6E FD         [19] 1761 	ld	l, -3 (ix)
                                   1762 ;	spillPairReg hl
                                   1763 ;	spillPairReg hl
    000005E8 DD 4E FE         [19] 1764 	ld	c, -2 (ix)
    000005EB DD 5E FF         [19] 1765 	ld	e, -1 (ix)
    000005EE 06 06            [ 7] 1766 	ld	b, #0x06
    000005F0                       1767 00146$:
    000005F0 CB 3B            [ 8] 1768 	srl	e
    000005F2 CB 19            [ 8] 1769 	rr	c
    000005F4 CB 1D            [ 8] 1770 	rr	l
    000005F6 10 F8            [13] 1771 	djnz	00146$
                                   1772 ;E:\Dropbox\FAUSTO\SVILUPPI\MSX\CODE\C\MSXgl\engine/src/vdp.c:1878: VDP_RegWrite(10, reg);
    000005F8 3E 0A            [ 7] 1773 	ld	a, #0x0a
    000005FA CDrBDr04         [17] 1774 	call	_VDP_RegWrite
                                   1775 ;E:\Dropbox\FAUSTO\SVILUPPI\MSX\CODE\C\MSXgl\engine/src/vdp.c:1880: g_ScreenColorHigh = addr >> 16;
    000005FD DD 7E FE         [19] 1776 	ld	a, -2 (ix)
    00000600 32r34r00         [13] 1777 	ld	(_g_ScreenColorHigh+0), a
                                   1778 ;E:\Dropbox\FAUSTO\SVILUPPI\MSX\CODE\C\MSXgl\engine/src/vdp.c:1882: }
    00000603 DD F9            [10] 1779 	ld	sp, ix
    00000605 DD E1            [14] 1780 	pop	ix
    00000607 C9               [10] 1781 	ret
                                   1782 ;E:\Dropbox\FAUSTO\SVILUPPI\MSX\CODE\C\MSXgl\engine/src/vdp.c:1886: void VDP_SetPatternTable(VADDR addr)
                                   1783 ;	---------------------------------
                                   1784 ; Function VDP_SetPatternTable
                                   1785 ; ---------------------------------
    00000608                       1786 _VDP_SetPatternTable::
    00000608 DD E5            [15] 1787 	push	ix
    0000060A DD 21 00 00      [14] 1788 	ld	ix,#0
    0000060E DD 39            [15] 1789 	add	ix,sp
    00000610 F5               [11] 1790 	push	af
    00000611 F5               [11] 1791 	push	af
    00000612 33               [ 6] 1792 	inc	sp
    00000613 33               [ 6] 1793 	inc	sp
    00000614 D5               [11] 1794 	push	de
    00000615 DD 75 FE         [19] 1795 	ld	-2 (ix), l
    00000618 DD 74 FF         [19] 1796 	ld	-1 (ix), h
                                   1797 ;E:\Dropbox\FAUSTO\SVILUPPI\MSX\CODE\C\MSXgl\engine/src/vdp.c:1888: g_ScreenPatternLow = (u16)addr;
    0000061B E1               [10] 1798 	pop	hl
    0000061C E5               [11] 1799 	push	hl
    0000061D 22r31r00         [16] 1800 	ld	(_g_ScreenPatternLow), hl
                                   1801 ;E:\Dropbox\FAUSTO\SVILUPPI\MSX\CODE\C\MSXgl\engine/src/vdp.c:1891: reg = (u8)(addr >> 11);
    00000620 DD 5E FD         [19] 1802 	ld	e, -3 (ix)
    00000623 DD 56 FE         [19] 1803 	ld	d, -2 (ix)
    00000626 DD 6E FF         [19] 1804 	ld	l, -1 (ix)
                                   1805 ;	spillPairReg hl
                                   1806 ;	spillPairReg hl
                                   1807 ;	spillPairReg hl
                                   1808 ;	spillPairReg hl
    00000629 06 03            [ 7] 1809 	ld	b, #0x03
    0000062B                       1810 00128$:
    0000062B CB 3D            [ 8] 1811 	srl	l
    0000062D CB 1A            [ 8] 1812 	rr	d
    0000062F CB 1B            [ 8] 1813 	rr	e
    00000631 10 F8            [13] 1814 	djnz	00128$
                                   1815 ;E:\Dropbox\FAUSTO\SVILUPPI\MSX\CODE\C\MSXgl\engine/src/vdp.c:1892: switch (g_VDP_Data.Mode)
    00000633 3Ar1Cr00         [13] 1816 	ld	a, (#_g_VDP_Data + 0)
    00000636 FE 03            [ 7] 1817 	cp	a, #0x03
    00000638 28 19            [12] 1818 	jr	Z, 00104$
    0000063A FE 05            [ 7] 1819 	cp	a, #0x05
    0000063C 28 15            [12] 1820 	jr	Z, 00104$
    0000063E FE 10            [ 7] 1821 	cp	a, #0x10
    00000640 28 07            [12] 1822 	jr	Z, 00101$
    00000642 D6 11            [ 7] 1823 	sub	a, #0x11
    00000644 28 08            [12] 1824 	jr	Z, 00102$
    00000646 C3r57r06         [10] 1825 	jp	00105$
                                   1826 ;E:\Dropbox\FAUSTO\SVILUPPI\MSX\CODE\C\MSXgl\engine/src/vdp.c:1896: case VDP_MODE_GRAPHIC3_MIRROR_01:
    00000649                       1827 00101$:
                                   1828 ;E:\Dropbox\FAUSTO\SVILUPPI\MSX\CODE\C\MSXgl\engine/src/vdp.c:1897: reg |= 0b01;
    00000649 CB C3            [ 8] 1829 	set	0, e
                                   1830 ;E:\Dropbox\FAUSTO\SVILUPPI\MSX\CODE\C\MSXgl\engine/src/vdp.c:1898: break;
    0000064B C3r57r06         [10] 1831 	jp	00105$
                                   1832 ;E:\Dropbox\FAUSTO\SVILUPPI\MSX\CODE\C\MSXgl\engine/src/vdp.c:1899: case VDP_MODE_GRAPHIC3_MIRROR_02:
    0000064E                       1833 00102$:
                                   1834 ;E:\Dropbox\FAUSTO\SVILUPPI\MSX\CODE\C\MSXgl\engine/src/vdp.c:1900: reg |= 0b10;
    0000064E CB CB            [ 8] 1835 	set	1, e
                                   1836 ;E:\Dropbox\FAUSTO\SVILUPPI\MSX\CODE\C\MSXgl\engine/src/vdp.c:1901: break;
    00000650 C3r57r06         [10] 1837 	jp	00105$
                                   1838 ;E:\Dropbox\FAUSTO\SVILUPPI\MSX\CODE\C\MSXgl\engine/src/vdp.c:1905: case VDP_MODE_GRAPHIC2:
    00000653                       1839 00104$:
                                   1840 ;E:\Dropbox\FAUSTO\SVILUPPI\MSX\CODE\C\MSXgl\engine/src/vdp.c:1906: reg |= 0b11;
    00000653 7B               [ 4] 1841 	ld	a, e
    00000654 F6 03            [ 7] 1842 	or	a, #0x03
    00000656 5F               [ 4] 1843 	ld	e, a
                                   1844 ;E:\Dropbox\FAUSTO\SVILUPPI\MSX\CODE\C\MSXgl\engine/src/vdp.c:1907: };
    00000657                       1845 00105$:
                                   1846 ;E:\Dropbox\FAUSTO\SVILUPPI\MSX\CODE\C\MSXgl\engine/src/vdp.c:1908: VDP_RegWrite(4, reg);
    00000657 6B               [ 4] 1847 	ld	l, e
                                   1848 ;	spillPairReg hl
                                   1849 ;	spillPairReg hl
    00000658 3E 04            [ 7] 1850 	ld	a, #0x04
    0000065A CDrBDr04         [17] 1851 	call	_VDP_RegWrite
                                   1852 ;E:\Dropbox\FAUSTO\SVILUPPI\MSX\CODE\C\MSXgl\engine/src/vdp.c:1911: g_ScreenPatternHigh = addr >> 16;
    0000065D DD 7E FE         [19] 1853 	ld	a, -2 (ix)
    00000660 32r35r00         [13] 1854 	ld	(_g_ScreenPatternHigh+0), a
                                   1855 ;E:\Dropbox\FAUSTO\SVILUPPI\MSX\CODE\C\MSXgl\engine/src/vdp.c:1913: }
    00000663 DD F9            [10] 1856 	ld	sp, ix
    00000665 DD E1            [14] 1857 	pop	ix
    00000667 C9               [10] 1858 	ret
                                   1859 ;E:\Dropbox\FAUSTO\SVILUPPI\MSX\CODE\C\MSXgl\engine/src/vdp.c:2210: void VDP_LoadPattern_GM2(const u8* src, u8 count, u8 offset)
                                   1860 ;	---------------------------------
                                   1861 ; Function VDP_LoadPattern_GM2
                                   1862 ; ---------------------------------
    00000668                       1863 _VDP_LoadPattern_GM2::
    00000668 DD E5            [15] 1864 	push	ix
    0000066A DD 21 00 00      [14] 1865 	ld	ix,#0
    0000066E DD 39            [15] 1866 	add	ix,sp
    00000670 F5               [11] 1867 	push	af
    00000671 E3               [19] 1868 	ex	(sp), hl
                                   1869 ;E:\Dropbox\FAUSTO\SVILUPPI\MSX\CODE\C\MSXgl\engine/src/vdp.c:2212: u16 dst = g_ScreenPatternLow + (offset * 8);
    00000672 DD 6E 05         [19] 1870 	ld	l, 5 (ix)
                                   1871 ;	spillPairReg hl
                                   1872 ;	spillPairReg hl
    00000675 26 00            [ 7] 1873 	ld	h, #0x00
                                   1874 ;	spillPairReg hl
                                   1875 ;	spillPairReg hl
    00000677 29               [11] 1876 	add	hl, hl
    00000678 29               [11] 1877 	add	hl, hl
    00000679 29               [11] 1878 	add	hl, hl
    0000067A ED 4Br31r00      [20] 1879 	ld	bc, (_g_ScreenPatternLow)
    0000067E 09               [11] 1880 	add	hl, bc
    0000067F 4D               [ 4] 1881 	ld	c, l
    00000680 44               [ 4] 1882 	ld	b, h
                                   1883 ;E:\Dropbox\FAUSTO\SVILUPPI\MSX\CODE\C\MSXgl\engine/src/vdp.c:2213: VDP_WriteVRAM(src, dst, g_ScreenPatternHigh, count * 8);
    00000681 DD 6E 04         [19] 1884 	ld	l, 4 (ix)
                                   1885 ;	spillPairReg hl
                                   1886 ;	spillPairReg hl
    00000684 26 00            [ 7] 1887 	ld	h, #0x00
                                   1888 ;	spillPairReg hl
                                   1889 ;	spillPairReg hl
    00000686 29               [11] 1890 	add	hl, hl
    00000687 29               [11] 1891 	add	hl, hl
    00000688 29               [11] 1892 	add	hl, hl
    00000689 E5               [11] 1893 	push	hl
    0000068A FD E1            [14] 1894 	pop	iy
    0000068C C5               [11] 1895 	push	bc
    0000068D FD E5            [15] 1896 	push	iy
    0000068F FD E5            [15] 1897 	push	iy
    00000691 3Ar35r00         [13] 1898 	ld	a, (_g_ScreenPatternHigh+0)
    00000694 F5               [11] 1899 	push	af
    00000695 33               [ 6] 1900 	inc	sp
    00000696 59               [ 4] 1901 	ld	e, c
    00000697 50               [ 4] 1902 	ld	d, b
    00000698 DD 6E FE         [19] 1903 	ld	l, -2 (ix)
                                   1904 ;	spillPairReg hl
                                   1905 ;	spillPairReg hl
    0000069B DD 66 FF         [19] 1906 	ld	h, -1 (ix)
                                   1907 ;	spillPairReg hl
                                   1908 ;	spillPairReg hl
    0000069E CDrE8r01         [17] 1909 	call	_VDP_WriteVRAM_128K
    000006A1 FD E1            [14] 1910 	pop	iy
    000006A3 C1               [10] 1911 	pop	bc
                                   1912 ;E:\Dropbox\FAUSTO\SVILUPPI\MSX\CODE\C\MSXgl\engine/src/vdp.c:2214: dst += 0x800;
    000006A4 21 00 08         [10] 1913 	ld	hl, #0x0800
    000006A7 09               [11] 1914 	add	hl, bc
    000006A8 4D               [ 4] 1915 	ld	c, l
    000006A9 44               [ 4] 1916 	ld	b, h
                                   1917 ;E:\Dropbox\FAUSTO\SVILUPPI\MSX\CODE\C\MSXgl\engine/src/vdp.c:2215: VDP_WriteVRAM(src, dst, g_ScreenPatternHigh, count * 8);
    000006AA C5               [11] 1918 	push	bc
    000006AB FD E5            [15] 1919 	push	iy
    000006AD FD E5            [15] 1920 	push	iy
    000006AF 3Ar35r00         [13] 1921 	ld	a, (_g_ScreenPatternHigh+0)
    000006B2 F5               [11] 1922 	push	af
    000006B3 33               [ 6] 1923 	inc	sp
    000006B4 59               [ 4] 1924 	ld	e, c
    000006B5 50               [ 4] 1925 	ld	d, b
    000006B6 DD 6E FE         [19] 1926 	ld	l, -2 (ix)
                                   1927 ;	spillPairReg hl
                                   1928 ;	spillPairReg hl
    000006B9 DD 66 FF         [19] 1929 	ld	h, -1 (ix)
                                   1930 ;	spillPairReg hl
                                   1931 ;	spillPairReg hl
    000006BC CDrE8r01         [17] 1932 	call	_VDP_WriteVRAM_128K
    000006BF FD E1            [14] 1933 	pop	iy
    000006C1 C1               [10] 1934 	pop	bc
                                   1935 ;E:\Dropbox\FAUSTO\SVILUPPI\MSX\CODE\C\MSXgl\engine/src/vdp.c:2216: dst += 0x800;
    000006C2 21 00 08         [10] 1936 	ld	hl, #0x0800
    000006C5 09               [11] 1937 	add	hl, bc
                                   1938 ;E:\Dropbox\FAUSTO\SVILUPPI\MSX\CODE\C\MSXgl\engine/src/vdp.c:2217: VDP_WriteVRAM(src, dst, g_ScreenPatternHigh, count * 8);
    000006C6 FD E5            [15] 1939 	push	iy
    000006C8 EB               [ 4] 1940 	ex	de, hl
    000006C9 3Ar35r00         [13] 1941 	ld	a, (_g_ScreenPatternHigh+0)
    000006CC F5               [11] 1942 	push	af
    000006CD 33               [ 6] 1943 	inc	sp
    000006CE DD 6E FE         [19] 1944 	ld	l, -2 (ix)
                                   1945 ;	spillPairReg hl
                                   1946 ;	spillPairReg hl
    000006D1 DD 66 FF         [19] 1947 	ld	h, -1 (ix)
                                   1948 ;	spillPairReg hl
                                   1949 ;	spillPairReg hl
    000006D4 CDrE8r01         [17] 1950 	call	_VDP_WriteVRAM_128K
                                   1951 ;E:\Dropbox\FAUSTO\SVILUPPI\MSX\CODE\C\MSXgl\engine/src/vdp.c:2218: }
    000006D7 DD F9            [10] 1952 	ld	sp, ix
    000006D9 DD E1            [14] 1953 	pop	ix
    000006DB E1               [10] 1954 	pop	hl
    000006DC F1               [10] 1955 	pop	af
    000006DD E9               [ 4] 1956 	jp	(hl)
                                   1957 ;E:\Dropbox\FAUSTO\SVILUPPI\MSX\CODE\C\MSXgl\engine/src/vdp.c:2222: void VDP_LoadColor_GM2(const u8* src, u8 count, u8 offset)
                                   1958 ;	---------------------------------
                                   1959 ; Function VDP_LoadColor_GM2
                                   1960 ; ---------------------------------
    000006DE                       1961 _VDP_LoadColor_GM2::
    000006DE DD E5            [15] 1962 	push	ix
    000006E0 DD 21 00 00      [14] 1963 	ld	ix,#0
    000006E4 DD 39            [15] 1964 	add	ix,sp
    000006E6 F5               [11] 1965 	push	af
    000006E7 E3               [19] 1966 	ex	(sp), hl
                                   1967 ;E:\Dropbox\FAUSTO\SVILUPPI\MSX\CODE\C\MSXgl\engine/src/vdp.c:2224: u16 dst = g_ScreenColorLow + (offset * 8);
    000006E8 DD 6E 05         [19] 1968 	ld	l, 5 (ix)
                                   1969 ;	spillPairReg hl
                                   1970 ;	spillPairReg hl
    000006EB 26 00            [ 7] 1971 	ld	h, #0x00
                                   1972 ;	spillPairReg hl
                                   1973 ;	spillPairReg hl
    000006ED 29               [11] 1974 	add	hl, hl
    000006EE 29               [11] 1975 	add	hl, hl
    000006EF 29               [11] 1976 	add	hl, hl
    000006F0 ED 4Br2Fr00      [20] 1977 	ld	bc, (_g_ScreenColorLow)
    000006F4 09               [11] 1978 	add	hl, bc
    000006F5 4D               [ 4] 1979 	ld	c, l
    000006F6 44               [ 4] 1980 	ld	b, h
                                   1981 ;E:\Dropbox\FAUSTO\SVILUPPI\MSX\CODE\C\MSXgl\engine/src/vdp.c:2225: VDP_WriteVRAM(src, dst, g_ScreenColorHigh, count * 8);
    000006F7 DD 6E 04         [19] 1982 	ld	l, 4 (ix)
                                   1983 ;	spillPairReg hl
                                   1984 ;	spillPairReg hl
    000006FA 26 00            [ 7] 1985 	ld	h, #0x00
                                   1986 ;	spillPairReg hl
                                   1987 ;	spillPairReg hl
    000006FC 29               [11] 1988 	add	hl, hl
    000006FD 29               [11] 1989 	add	hl, hl
    000006FE 29               [11] 1990 	add	hl, hl
    000006FF E5               [11] 1991 	push	hl
    00000700 FD E1            [14] 1992 	pop	iy
    00000702 C5               [11] 1993 	push	bc
    00000703 FD E5            [15] 1994 	push	iy
    00000705 FD E5            [15] 1995 	push	iy
    00000707 3Ar34r00         [13] 1996 	ld	a, (_g_ScreenColorHigh+0)
    0000070A F5               [11] 1997 	push	af
    0000070B 33               [ 6] 1998 	inc	sp
    0000070C 59               [ 4] 1999 	ld	e, c
    0000070D 50               [ 4] 2000 	ld	d, b
    0000070E DD 6E FE         [19] 2001 	ld	l, -2 (ix)
                                   2002 ;	spillPairReg hl
                                   2003 ;	spillPairReg hl
    00000711 DD 66 FF         [19] 2004 	ld	h, -1 (ix)
                                   2005 ;	spillPairReg hl
                                   2006 ;	spillPairReg hl
    00000714 CDrE8r01         [17] 2007 	call	_VDP_WriteVRAM_128K
    00000717 FD E1            [14] 2008 	pop	iy
    00000719 C1               [10] 2009 	pop	bc
                                   2010 ;E:\Dropbox\FAUSTO\SVILUPPI\MSX\CODE\C\MSXgl\engine/src/vdp.c:2226: dst += 0x800;
    0000071A 21 00 08         [10] 2011 	ld	hl, #0x0800
    0000071D 09               [11] 2012 	add	hl, bc
    0000071E 4D               [ 4] 2013 	ld	c, l
    0000071F 44               [ 4] 2014 	ld	b, h
                                   2015 ;E:\Dropbox\FAUSTO\SVILUPPI\MSX\CODE\C\MSXgl\engine/src/vdp.c:2227: VDP_WriteVRAM(src, dst, g_ScreenColorHigh, count * 8);
    00000720 C5               [11] 2016 	push	bc
    00000721 FD E5            [15] 2017 	push	iy
    00000723 FD E5            [15] 2018 	push	iy
    00000725 3Ar34r00         [13] 2019 	ld	a, (_g_ScreenColorHigh+0)
    00000728 F5               [11] 2020 	push	af
    00000729 33               [ 6] 2021 	inc	sp
    0000072A 59               [ 4] 2022 	ld	e, c
    0000072B 50               [ 4] 2023 	ld	d, b
    0000072C DD 6E FE         [19] 2024 	ld	l, -2 (ix)
                                   2025 ;	spillPairReg hl
                                   2026 ;	spillPairReg hl
    0000072F DD 66 FF         [19] 2027 	ld	h, -1 (ix)
                                   2028 ;	spillPairReg hl
                                   2029 ;	spillPairReg hl
    00000732 CDrE8r01         [17] 2030 	call	_VDP_WriteVRAM_128K
    00000735 FD E1            [14] 2031 	pop	iy
    00000737 C1               [10] 2032 	pop	bc
                                   2033 ;E:\Dropbox\FAUSTO\SVILUPPI\MSX\CODE\C\MSXgl\engine/src/vdp.c:2228: dst += 0x800;
    00000738 21 00 08         [10] 2034 	ld	hl, #0x0800
    0000073B 09               [11] 2035 	add	hl, bc
                                   2036 ;E:\Dropbox\FAUSTO\SVILUPPI\MSX\CODE\C\MSXgl\engine/src/vdp.c:2229: VDP_WriteVRAM(src, dst, g_ScreenColorHigh, count * 8);
    0000073C FD E5            [15] 2037 	push	iy
    0000073E EB               [ 4] 2038 	ex	de, hl
    0000073F 3Ar34r00         [13] 2039 	ld	a, (_g_ScreenColorHigh+0)
    00000742 F5               [11] 2040 	push	af
    00000743 33               [ 6] 2041 	inc	sp
    00000744 DD 6E FE         [19] 2042 	ld	l, -2 (ix)
                                   2043 ;	spillPairReg hl
                                   2044 ;	spillPairReg hl
    00000747 DD 66 FF         [19] 2045 	ld	h, -1 (ix)
                                   2046 ;	spillPairReg hl
                                   2047 ;	spillPairReg hl
    0000074A CDrE8r01         [17] 2048 	call	_VDP_WriteVRAM_128K
                                   2049 ;E:\Dropbox\FAUSTO\SVILUPPI\MSX\CODE\C\MSXgl\engine/src/vdp.c:2230: }
    0000074D DD F9            [10] 2050 	ld	sp, ix
    0000074F DD E1            [14] 2051 	pop	ix
    00000751 E1               [10] 2052 	pop	hl
    00000752 F1               [10] 2053 	pop	af
    00000753 E9               [ 4] 2054 	jp	(hl)
                                   2055 ;E:\Dropbox\FAUSTO\SVILUPPI\MSX\CODE\C\MSXgl\engine/src/vdp.c:2234: void VDP_WriteLayout_GM2(const u8* src, u8 dx, u8 dy, u8 nx, u8 ny)
                                   2056 ;	---------------------------------
                                   2057 ; Function VDP_WriteLayout_GM2
                                   2058 ; ---------------------------------
    00000754                       2059 _VDP_WriteLayout_GM2::
    00000754 DD E5            [15] 2060 	push	ix
    00000756 DD 21 00 00      [14] 2061 	ld	ix,#0
    0000075A DD 39            [15] 2062 	add	ix,sp
    0000075C F5               [11] 2063 	push	af
    0000075D F5               [11] 2064 	push	af
    0000075E DD 75 FE         [19] 2065 	ld	-2 (ix), l
    00000761 DD 74 FF         [19] 2066 	ld	-1 (ix), h
                                   2067 ;E:\Dropbox\FAUSTO\SVILUPPI\MSX\CODE\C\MSXgl\engine/src/vdp.c:2236: u16 dst = g_ScreenLayoutLow + (dy * 32) + dx;
    00000764 DD 6E 05         [19] 2068 	ld	l, 5 (ix)
                                   2069 ;	spillPairReg hl
                                   2070 ;	spillPairReg hl
    00000767 26 00            [ 7] 2071 	ld	h, #0x00
                                   2072 ;	spillPairReg hl
                                   2073 ;	spillPairReg hl
    00000769 29               [11] 2074 	add	hl, hl
    0000076A 29               [11] 2075 	add	hl, hl
    0000076B 29               [11] 2076 	add	hl, hl
    0000076C 29               [11] 2077 	add	hl, hl
    0000076D 29               [11] 2078 	add	hl, hl
    0000076E ED 4Br2Dr00      [20] 2079 	ld	bc, (_g_ScreenLayoutLow)
    00000772 09               [11] 2080 	add	hl, bc
    00000773 DD 4E 04         [19] 2081 	ld	c, 4 (ix)
    00000776 06 00            [ 7] 2082 	ld	b, #0x00
    00000778 09               [11] 2083 	add	hl, bc
    00000779 E3               [19] 2084 	ex	(sp), hl
                                   2085 ;E:\Dropbox\FAUSTO\SVILUPPI\MSX\CODE\C\MSXgl\engine/src/vdp.c:2237: for (u8 y = 0; y < ny; ++y)
    0000077A 0E 00            [ 7] 2086 	ld	c, #0x00
    0000077C                       2087 00103$:
    0000077C 79               [ 4] 2088 	ld	a, c
    0000077D DD 96 07         [19] 2089 	sub	a, 7 (ix)
    00000780 30 35            [12] 2090 	jr	NC, 00105$
                                   2091 ;E:\Dropbox\FAUSTO\SVILUPPI\MSX\CODE\C\MSXgl\engine/src/vdp.c:2239: VDP_WriteVRAM(src, dst, g_ScreenLayoutHigh, nx);
    00000782 DD 5E 06         [19] 2092 	ld	e, 6 (ix)
    00000785 16 00            [ 7] 2093 	ld	d, #0x00
    00000787 C5               [11] 2094 	push	bc
    00000788 D5               [11] 2095 	push	de
    00000789 3Ar33r00         [13] 2096 	ld	a, (_g_ScreenLayoutHigh+0)
    0000078C F5               [11] 2097 	push	af
    0000078D 33               [ 6] 2098 	inc	sp
    0000078E DD 5E FC         [19] 2099 	ld	e, -4 (ix)
    00000791 DD 56 FD         [19] 2100 	ld	d, -3 (ix)
    00000794 DD 6E FE         [19] 2101 	ld	l, -2 (ix)
                                   2102 ;	spillPairReg hl
                                   2103 ;	spillPairReg hl
    00000797 DD 66 FF         [19] 2104 	ld	h, -1 (ix)
                                   2105 ;	spillPairReg hl
                                   2106 ;	spillPairReg hl
    0000079A CDrE8r01         [17] 2107 	call	_VDP_WriteVRAM_128K
    0000079D C1               [10] 2108 	pop	bc
                                   2109 ;E:\Dropbox\FAUSTO\SVILUPPI\MSX\CODE\C\MSXgl\engine/src/vdp.c:2240: src += nx;
    0000079E DD 7E FE         [19] 2110 	ld	a, -2 (ix)
    000007A1 DD 86 06         [19] 2111 	add	a, 6 (ix)
    000007A4 DD 77 FE         [19] 2112 	ld	-2 (ix), a
    000007A7 30 03            [12] 2113 	jr	NC, 00118$
    000007A9 DD 34 FF         [23] 2114 	inc	-1 (ix)
    000007AC                       2115 00118$:
                                   2116 ;E:\Dropbox\FAUSTO\SVILUPPI\MSX\CODE\C\MSXgl\engine/src/vdp.c:2241: dst += 32;
    000007AC D1               [10] 2117 	pop	de
    000007AD D5               [11] 2118 	push	de
    000007AE 21 20 00         [10] 2119 	ld	hl, #0x0020
    000007B1 19               [11] 2120 	add	hl, de
    000007B2 E3               [19] 2121 	ex	(sp), hl
                                   2122 ;E:\Dropbox\FAUSTO\SVILUPPI\MSX\CODE\C\MSXgl\engine/src/vdp.c:2237: for (u8 y = 0; y < ny; ++y)
    000007B3 0C               [ 4] 2123 	inc	c
    000007B4 C3r7Cr07         [10] 2124 	jp	00103$
    000007B7                       2125 00105$:
                                   2126 ;E:\Dropbox\FAUSTO\SVILUPPI\MSX\CODE\C\MSXgl\engine/src/vdp.c:2243: }
    000007B7 DD F9            [10] 2127 	ld	sp, ix
    000007B9 DD E1            [14] 2128 	pop	ix
    000007BB E1               [10] 2129 	pop	hl
    000007BC F1               [10] 2130 	pop	af
    000007BD F1               [10] 2131 	pop	af
    000007BE E9               [ 4] 2132 	jp	(hl)
                                   2133 ;E:\Dropbox\FAUSTO\SVILUPPI\MSX\CODE\C\MSXgl\engine/src/vdp.c:2247: void VDP_FillLayout_GM2(u8 value, u8 dx, u8 dy, u8 nx, u8 ny)
                                   2134 ;	---------------------------------
                                   2135 ; Function VDP_FillLayout_GM2
                                   2136 ; ---------------------------------
    000007BF                       2137 _VDP_FillLayout_GM2::
    000007BF DD E5            [15] 2138 	push	ix
    000007C1 DD 21 00 00      [14] 2139 	ld	ix,#0
    000007C5 DD 39            [15] 2140 	add	ix,sp
    000007C7 F5               [11] 2141 	push	af
    000007C8 DD 77 FE         [19] 2142 	ld	-2 (ix), a
    000007CB 4D               [ 4] 2143 	ld	c, l
                                   2144 ;E:\Dropbox\FAUSTO\SVILUPPI\MSX\CODE\C\MSXgl\engine/src/vdp.c:2249: u16 dst = g_ScreenLayoutLow + (dy * 32) + dx;
    000007CC DD 6E 04         [19] 2145 	ld	l, 4 (ix)
                                   2146 ;	spillPairReg hl
                                   2147 ;	spillPairReg hl
    000007CF 26 00            [ 7] 2148 	ld	h, #0x00
                                   2149 ;	spillPairReg hl
                                   2150 ;	spillPairReg hl
    000007D1 29               [11] 2151 	add	hl, hl
    000007D2 29               [11] 2152 	add	hl, hl
    000007D3 29               [11] 2153 	add	hl, hl
    000007D4 29               [11] 2154 	add	hl, hl
    000007D5 29               [11] 2155 	add	hl, hl
    000007D6 ED 5Br2Dr00      [20] 2156 	ld	de, (_g_ScreenLayoutLow)
    000007DA 19               [11] 2157 	add	hl, de
    000007DB 06 00            [ 7] 2158 	ld	b, #0x00
    000007DD 09               [11] 2159 	add	hl, bc
    000007DE 4D               [ 4] 2160 	ld	c, l
    000007DF 44               [ 4] 2161 	ld	b, h
                                   2162 ;E:\Dropbox\FAUSTO\SVILUPPI\MSX\CODE\C\MSXgl\engine/src/vdp.c:2250: for (u8 y = 0; y < ny; ++y)
    000007E0 DD 36 FF 00      [19] 2163 	ld	-1 (ix), #0x00
    000007E4                       2164 00103$:
    000007E4 DD 7E FF         [19] 2165 	ld	a, -1 (ix)
    000007E7 DD 96 06         [19] 2166 	sub	a, 6 (ix)
    000007EA 30 21            [12] 2167 	jr	NC, 00105$
                                   2168 ;E:\Dropbox\FAUSTO\SVILUPPI\MSX\CODE\C\MSXgl\engine/src/vdp.c:2252: VDP_FillVRAM(value, dst, g_ScreenLayoutHigh, nx);
    000007EC DD 5E 05         [19] 2169 	ld	e, 5 (ix)
    000007EF 16 00            [ 7] 2170 	ld	d, #0x00
    000007F1 C5               [11] 2171 	push	bc
    000007F2 D5               [11] 2172 	push	de
    000007F3 3Ar33r00         [13] 2173 	ld	a, (_g_ScreenLayoutHigh+0)
    000007F6 F5               [11] 2174 	push	af
    000007F7 33               [ 6] 2175 	inc	sp
    000007F8 59               [ 4] 2176 	ld	e, c
    000007F9 50               [ 4] 2177 	ld	d, b
    000007FA DD 7E FE         [19] 2178 	ld	a, -2 (ix)
    000007FD CDr2Br02         [17] 2179 	call	_VDP_FillVRAM_128K
    00000800 C1               [10] 2180 	pop	bc
                                   2181 ;E:\Dropbox\FAUSTO\SVILUPPI\MSX\CODE\C\MSXgl\engine/src/vdp.c:2253: dst += 32;
    00000801 21 20 00         [10] 2182 	ld	hl, #0x0020
    00000804 09               [11] 2183 	add	hl, bc
    00000805 4D               [ 4] 2184 	ld	c, l
    00000806 44               [ 4] 2185 	ld	b, h
                                   2186 ;E:\Dropbox\FAUSTO\SVILUPPI\MSX\CODE\C\MSXgl\engine/src/vdp.c:2250: for (u8 y = 0; y < ny; ++y)
    00000807 DD 34 FF         [23] 2187 	inc	-1 (ix)
    0000080A C3rE4r07         [10] 2188 	jp	00103$
    0000080D                       2189 00105$:
                                   2190 ;E:\Dropbox\FAUSTO\SVILUPPI\MSX\CODE\C\MSXgl\engine/src/vdp.c:2255: }
    0000080D DD F9            [10] 2191 	ld	sp, ix
    0000080F DD E1            [14] 2192 	pop	ix
    00000811 E1               [10] 2193 	pop	hl
    00000812 F1               [10] 2194 	pop	af
    00000813 33               [ 6] 2195 	inc	sp
    00000814 E9               [ 4] 2196 	jp	(hl)
                                   2197 	.area _CODE
                                   2198 	.area _INITIALIZER
    00000000                       2199 __xinit__g_VDPInitilized:
    00000000 00                    2200 	.db #0x00	; 0
                                   2201 	.area _CABS (ABS)
